ARM GAS  /tmp/ccOPYu5Z.s 			page 1


   1              		.syntax unified
   2              		.cpu cortex-m3
   3              		.fpu softvfp
   4              		.eabi_attribute 20, 1
   5              		.eabi_attribute 21, 1
   6              		.eabi_attribute 23, 3
   7              		.eabi_attribute 24, 1
   8              		.eabi_attribute 25, 1
   9              		.eabi_attribute 26, 1
  10              		.eabi_attribute 30, 2
  11              		.eabi_attribute 34, 1
  12              		.eabi_attribute 18, 4
  13              		.thumb
  14              		.file	"ch_test.c"
  15              		.text
  16              	.Ltext0:
  17              		.section	.gnu.lto_.jmpfuncs.28ee5ae0fdd4774b,"",%progbits
  18 0000 789CB591 		.ascii	"x\234\265\221;K\003A\020\307g\356\3622\357\247A\213"
  18      3B4B0341 
  18      10C767EE 
  18      F232EFA7 
  18      418B
  19 0012 65111B03 		.ascii	"e\021\033\003\247w\011!\222J\311\003\324\004!\227\004"
  19      A7770921 
  19      924AC903 
  19      D4042197 
  19      04
  20 0023 DBA80B2E 		.ascii	"\333\250\013.\304(\336E\010\026\246\264\2616\215\265"
  20      C428DE45 
  20      0816A6B4 
  20      B1368DB5 
  21 0033 5FC5CF64 		.ascii	"_\305\317d\345\271\233\230\344P\324\302ewfw~\377a\206"
  21      E5B99B98 
  21      E450D4C2 
  21      65776677 
  21      7EFF6186 
  22 0047 590514F8 		.ascii	"Y\005\024\370j=9\341\027\307GA\012\356\001<\370a\305"
  22      6A3D39E1 
  22      17C74741 
  22      0AEE013C 
  22      F861C5
  23 005a 01EAF381 		.ascii	"\001\352\363\201\352\240;x\033O\306q\216@\000\237\307"
  23      EAA03B78 
  23      1B4FC671 
  23      8E40009F 
  23      C7
  24 006b 933D8E28 		.ascii	"\223=\216(\362\225\023\344\250(B\256L\237\252&\236\376"
  24      F29513E4 
  24      A82842AE 
  24      4C9FAA26 
  24      9EFE
  25 007d 79401781 		.ascii	"y@\027\201\000\206\324\260\032\361G\361\263V\014g\267"
  25      0086D4B0 
  25      1AF147F1 
  25      B3560C67 
  25      B7
  26 008e 38FEA58E 		.ascii	"8\376\245\216\360\011Lb\012q\236\344!\340\225I^\221"
ARM GAS  /tmp/ccOPYu5Z.s 			page 2


  26      F0094C62 
  26      0A719EE4 
  26      21E09549 
  26      5E91
  27 00a0 B48CA2DF 		.ascii	"\264\214\242\337 \037\201\254D~p\263\000\2015\311V\334"
  27      201F81AC 
  27      447E70B3 
  27      008135C9 
  27      56DC
  28 00b2 C8E9707B 		.ascii	"\310\351p{\261C@\271E\247\301W\\\022\207\010\344\245"
  28      B14340B9 
  28      45A7C157 
  28      5C128708 
  28      E4A5
  29 00c4 38BCA0FD 		.ascii	"8\274\240\375m\027\021\002E\311\242n\024#p$Q\334\215"
  29      6D171102 
  29      45C9A26E 
  29      14237024 
  29      51DC8D
  30 00d7 1204AE25 		.ascii	"\022\004\256%J\272Q\212\300\303t\274i7\313\020x\234"
  30      4ABA518A 
  30      C0C374BC 
  30      6937CB10 
  30      789C
  31 00e9 B2D59F46 		.ascii	"\262\325\237F5\373\211\377\362\240F\202\0200;\225J\315"
  31      35FB89FF 
  31      F2A04682 
  31      10303B95 
  31      4ACD
  32 00fb 342150DF 		.ascii	"4!P\337?htZ5gtiM\323h\213Y\303\276]\2463\256nl\201\262"
  32      3F68745A 
  32      35677469 
  32      4DD3688B 
  32      59C3BE5D 
  33 0116 0519B34D 		.ascii	"\005\031\263M\315v\263\220\3576\264*\267\316\256n\331"
  33      CD76B390 
  33      EF36B42A 
  33      B7CEAE6E 
  33      D9
  34 0127 CD083645 		.ascii	"\315\0106E\250n\350:\355\366\372CF\033|\300h\223\235"
  34      A86EE83A 
  34      EDF6FA43 
  34      461B7CC0 
  34      68939D
  35 013a F3E125AD 		.ascii	"\363\341%\255\262\201\305\355\021d\017{\003j\224h^7"
  35      B281C5ED 
  35      11640F7B 
  35      036A9468 
  35      5E37
  36 014c 76A946F5 		.ascii	"v\251F\365R\331(\226\365\002xr\271\034\254;\206V.\370"
  36      52D92896 
  36      F5027872 
  36      B91CAC3B 
  36      86562EF8 
  37 0160 293F3677 		.ascii	")?6wZm\332f\226M\315!\267\031\274\003\016\326\232\250"
  37      5A6DDA66 
  37      964DCD21 
ARM GAS  /tmp/ccOPYu5Z.s 			page 3


  37      B719BC03 
  37      0ED69AA8 
  38              		.text
  39              		.section	.gnu.lto_.inline.28ee5ae0fdd4774b,"",%progbits
  40 0000 789CAD51 		.ascii	"x\234\255Q\273J\304@\024=s\223L\222M6\231]u\037\260"
  40      BB4AC440 
  40      143D7393 
  40      4C924D36 
  40      995D751F 
  41 0015 B056DA2D 		.ascii	"\260V\332-\226\376\203\220Z\360\003\\\375\012\321FP"
  41      96FE8390 
  41      5AF0035C 
  41      FD0AD146 
  41      50
  42 0026 21BD205B 		.ascii	"!\275 [\330\373\0036\266b!v\202\205\210\202\262\315"
  42      D8FB0336 
  42      B6622176 
  42      82858882 
  42      B2CD
  43 0038 160A56E2 		.ascii	"\026\012V\342\235\331\354\030\366\321\231\342\346p\316"
  43      9DD9EC18 
  43      F6D199E2 
  43      E670CE
  44 0047 9D7BCEDC 		.ascii	"\235{\316\334!\020\346}o\005\235\000\352\220\004H=_"
  44      2110E67D 
  44      6F059D00 
  44      EA900448 
  44      3D5F
  45 0059 5420075D 		.ascii	"T \007]\303{5f\362,\317\\\254l\010\007\375m\261'\232"
  45      C37B3566 
  45      F22CCF5C 
  45      AC6C0807 
  45      FD6DB127 
  46 006e 80B38ADD 		.ascii	"\200\263\212\335?(tu+y\206`\324#\210w_\021\274\343u"
  46      3F287475 
  46      2B798660 
  46      D4238877 
  46      5F11BCE3 
  47 0083 A5473869 		.ascii	"\245G8i\251\270\200DsX\345\251\365\317\363M\353#\353"
  47      A9B88044 
  47      7358E5A9 
  47      F5CFF34D 
  47      EB23EB
  48 0096 2CF3F989 		.ascii	",\363\371\211!|\0255\030\311Q\257\224\005F\012 \275"
  48      217C1535 
  48      18C951AF 
  48      9405460A 
  48      20BD
  49 00a8 29294220 		.ascii	"))B 9\235\211\324\322D\337\"\316\246]\307\255\356\240"
  49      399D89D4 
  49      D244DF22 
  49      CEA65DC7 
  49      ADEEA0
  50 00bb AB20EF3A 		.ascii	"\253 \357:\232@\214\306\007\313\264\366s\033\333IUD"
  50      9A408CC6 
  50      07CBB4F6 
  50      731BDB49 
ARM GAS  /tmp/ccOPYu5Z.s 			page 4


  50      5544
  51 00cd A1202126 		.ascii	"\241 !&G\235\344tg,\322}\032\233E\2516\357\2510k[\263"
  51      479DE474 
  51      672CD27D 
  51      1A9B45A9 
  51      36EFA930 
  52 00e4 F67CB3CE 		.ascii	"\366|\263\316\345I\022\030\251\242\025\276^0^h\212\364"
  52      E5491218 
  52      A9A215BE 
  52      5E305E68 
  52      8AF4
  53 00f6 9B6D2879 		.ascii	"\233m(y9\010g\327\255\320:\323\217\261\374p\025.\\R"
  53      390867D7 
  53      ADD03AD3 
  53      8FB1FC70 
  53      152E5C52 
  54 010a 9ED5745A 		.ascii	"\236\325tZ~\262\247}\333TG\3503\025_oYj\011\217\342"
  54      7EB2A77D 
  54      DB5447E8 
  54      33155F6F 
  54      596A098F 
  55 011f E84B9BBD 		.ascii	"\350K\233\275\212\321\360\306\267\002E:r\271rJM\223"
  55      8AD1F0C6 
  55      B702453A 
  55      72B9724A 
  55      4D93
  56 0131 21C81054 		.ascii	"!\310\020T\020yV\376\225\233\254R4\227\006M\317\237"
  56      107956FE 
  56      959BAC52 
  56      3497064D 
  56      CF9F
  57 0143 ADF62E5E 		.ascii	"\255\366.^\315\371' \026\001\374\002&(\\\267"
  57      CDF92720 
  57      1601FC02 
  57      26285CB7 
  58              		.text
  59              		.section	.gnu.lto_.pureconst.28ee5ae0fdd4774b,"",%progbits
  60 0000 789C6362 		.ascii	"x\234cb`b\220e\200\000>\006K\026I6IvI\016\011n\011\036"
  60      60629065 
  60      80003E06 
  60      4B164936 
  60      4976490E 
  61 0018 4B5E293E 		.ascii	"K^)>K~K\001KA+!)aK\000*\005\003\017"
  61      4B7E4B01 
  61      4B412B21 
  61      29614B00 
  61      2A05030F 
  62              		.text
  63              		.section	.gnu.lto_print_tokens.28ee5ae0fdd4774b,"",%progbits
  64 0000 789C8D92 		.ascii	"x\234\215\222\301k\023Q\020\306\277yo\337\356\246IQ"
  64      C16B1351 
  64      10C6BF79 
  64      6FDFEEA6 
  64      4951
  65 0012 4184DC4A 		.ascii	"A\204\334JE\020\013\033Z\275x\350\177\321\202z)\355"
  65      45100B1B 
  65      5ABD78E8 
ARM GAS  /tmp/ccOPYu5Z.s 			page 5


  65      7FD1827A 
  65      29ED
  66 0024 22E9A2C1 		.ascii	"\"\351\242\301\200\271y\350K\014\"Z4x\022shK\021E\004"
  66      80B979E8 
  66      4B0C225A 
  66      34781273 
  66      684B1145 
  67 0039 915EC453 		.ascii	"\221^\304S\004\255\346\240\342MoA0x\360/\360`\234\311"
  67      04ADE6A0 
  67      E24D6F41 
  67      3078F02F 
  67      F0609CC9 
  68 004d DB5D532F 		.ascii	"\333]S/\372`\337\314\356\316\357\233y\337\256\202\302"
  68      FA60DFCC 
  68      EECEEF9B 
  68      79DFAE82 
  68      C2
  69 005e DF6B912F 		.ascii	"\337k\221/\243\2013\034\311\007\251\316\007\240\031"
  69      A381331C 
  69      C907A9CE 
  69      07A019
  70 006d 2AF25CA2 		.ascii	"*\362\\\242]\362*\364\224\336|\013\330)\323\016`K\206"
  70      5DF22AF4 
  70      94DE7C0B 
  70      D829D30E 
  70      604B86
  71 0080 489E83B0 		.ascii	"H\236\203\260\241\264gh\343<\211\234\236\305\216\265"
  71      A1B46768 
  71      E33C899C 
  71      9EC58EB5 
  72 0090 F7066F86 		.ascii	"\367\006o\206\217\313\267\266[\035\373k4\242\204\270"
  72      8FCBB7B6 
  72      5B1DFB6B 
  72      34A284B8 
  73 00a0 71991013 		.ascii	"q\231\020\023\316\361\015\315\214\203\362\016N\342\310"
  73      CEF10DCD 
  73      8C83F20E 
  73      4EE2C8
  74 00af DEDEFE9D 		.ascii	"\336\336\376\235IR+\234\370Ork\177\263l\017\220\013"
  74      49522B9C 
  74      F84F726B 
  74      7FB36C0F 
  74      900B
  75 00c1 FF229FA9 		.ascii	"\377\"\237\251\336`4\372\361|\373k\227\216\024\011\253"
  75      DE6034FA 
  75      F17CFB6B 
  75      978E1409 
  75      AB
  76 00d2 F49066E1 		.ascii	"\364\220f\341q\334\345h8\356p\364\221\220\027\360f\302"
  76      71DCE568 
  76      38EE70F4 
  76      919017F0 
  76      66C2
  77 00e4 B4A2C037 		.ascii	"\264\242\3007\2768\207\266\265\235\031\367\020\322\214"
  77      BE3887B6 
  77      B59D19F7 
  77      10D28C
ARM GAS  /tmp/ccOPYu5Z.s 			page 6


  78 00f3 D712EFEC 		.ascii	"\327\022\357\354\3212)\016\272\217\326\340\356\256\277"
  78      D132290E 
  78      BA8FD6E0 
  78      EEAEBF
  79 0102 4A8FC8A4 		.ascii	"J\217\310\244\3645\374\2647\255]L(\250\321\237a\226"
  79      F435FCB4 
  79      37AD5D4C 
  79      28A8D19F 
  79      6196
  80 0114 49832DD6 		.ascii	"I\203-\326\357\321\352\177\036\236tD\225L\027\017\232"
  80      EFD1EA7F 
  80      1E9E7444 
  80      954C170F 
  80      9A
  81 0125 D61E6617 		.ascii	"\326\036f\027\035\310YX#\001\345HaJ3u!C\3749\234\342"
  81      1DC85958 
  81      2301E548 
  81      614A3375 
  81      2143FC39 
  82 013b 9119E482 		.ascii	"\221\031\344\202\002KH\241+[\313\033N\002\301\034\236"
  82      024B48A1 
  82      2B5BCB1B 
  82      4E02C11C 
  82      9E
  83 014c 88EE9443 		.ascii	"\210\356\224C\212,!\210\227\"\224#\327o\353\214\011"
  83      8A2C2188 
  83      97229423 
  83      D76FEB8C 
  83      09
  84 015d AB44634F 		.ascii	"\253DcO\345m\037j\362\204U\031\213\033\2744Yu\301)\373"
  84      E56D1F6A 
  84      F2845519 
  84      8B1BBC34 
  84      5975C129 
  85 0172 29A453C5 		.ascii	")\244S\305\217H+ S\310f\2706\241Rf\211\007\376\315\304"
  85      8F482B20 
  85      53C866B8 
  85      36A15266 
  85      8907FECD 
  86 0187 4416CCB4 		.ascii	"D\026\314\264i\254\335\1771\374N\231\274\227\233\244"
  86      69ACDD7F 
  86      31FC4E99 
  86      BC979BA4 
  87 0197 7393A66B 		.ascii	"s\223\246k\244R\223\246\323v\357\360\372[\363t\006Q"
  87      A45293A6 
  87      D376EFF0 
  87      FA5BF374 
  87      0651
  88 01a9 95F2FFE1 		.ascii	"\225\362\377\341\013\310\201\275\255\033\207\362\017"
  88      0BC881BD 
  88      AD1B87F2 
  88      0F
  89 01b6 A3EE6B3E 		.ascii	"\243\356k>\212~\272wTf1\362=?\2419\350\036\317\206v"
  89      8A7EBA77 
  89      546631F2 
  89      3D3FA139 
  89      E81ECF86 
ARM GAS  /tmp/ccOPYu5Z.s 			page 7


  90 01cb 6B89476A 		.ascii	"k\211Gj\007\322\354X\024U\032\027\2576*\227\223\265"
  90      07D2EC58 
  90      14551A17 
  90      AF362A97 
  90      93B5
  91 01dd 4ABCBE22 		.ascii	"J\274\276\"y\024\243(q%^\257G\363gK\343\274q\345R=Z"
  91      7914A328 
  91      71255EAF 
  91      47F3674B 
  91      E3BC71E5 
  92 01f4 985771FD 		.ascii	"\230Wq\3757\211/\273W"
  92      37892FBB 
  92      57
  93              		.text
  94              		.section	.gnu.lto_execute_test.28ee5ae0fdd4774b,"",%progbits
  95 0000 789C7D51 		.ascii	"x\234}Q\277O\302P\020\276{m_)U\303\244.\006\023G\023"
  95      BF4FC250 
  95      10BE7B6D 
  95      5F2955C3 
  95      A42E0613 
  96 0016 7062E32F 		.ascii	"pb\343/p\205D\027\015\020\203M\354$\233\003\25508`\302"
  96      70854417 
  96      0D10834D 
  96      EC249B03 
  96      AD303860 
  97 002b E4209361 		.ascii	"\344 \223a3F\026\207\306\211\304Dt\360\327f\230H\334"
  97      33461687 
  97      C689C444 
  97      74F0D766 
  97      9848DC
  98 003e C0D5C4B0 		.ascii	"\300\325\304\260\340\275WZ\324\020.\351{\327\273\357"
  98      E0BD575A 
  98      D4102EE9 
  98      7BD7BBEF 
  99 004e FBEEC763 		.ascii	"\373\356\307c\300\340\277m\322\267C\341e\272Q\007d\365"
  99      C0E0BF6D 
  99      D2B743E1 
  99      65BA5107 
  99      64F5
 100 0060 670037C2 		.ascii	"g\0007\302\230\322I\201\023U\037\227\300\231SP\365\303"
 100      98D24981 
 100      13551F97 
 100      C0995350 
 100      F5C3
 101 0072 2AD31A69 		.ascii	"*\323\032i\012\363\257\030\2055\344~\230#\012\007\020"
 101      0AF3AF18 
 101      8535E47E 
 101      98230A07 
 101      10
 102 0083 CA4C5135 		.ascii	"\312LQ5\216\345m\224\352-\326\356\215F\327\267\3677"
 102      8EE56D94 
 102      EA2DD6EE 
 102      8D46D7B7 
 102      F737
 103 0095 356CB005 		.ascii	"5l\260\005\2166\202\016\026\202!\016S\034d\032T\035"
 103      8E36820E 
 103      1682210E 
ARM GAS  /tmp/ccOPYu5Z.s 			page 8


 103      531C641A 
 103      541D
 104 00a7 A7BE0A50 		.ascii	"\247\276\012P\220\277\031:\205\\\026\231\270\225'8\036"
 104      90BF193A 
 104      855C1699 
 104      B8952738 
 104      1E
 105 00b8 565AB595 		.ascii	"VZ\265\225\020\346;N\3634\016\220\303\013\324\210(\231"
 105      10E63B4E 
 105      F3340E90 
 105      C30BD488 
 105      2899
 106 00ca 0D38771D 		.ascii	"\0158w\035'f!\036\301\3209\021\036\263ej\013\311\225"
 106      2766211E 
 106      C1D03911 
 106      1EB3656A 
 106      0BC995
 107 00dd 2DF999F6 		.ascii	"-\371\231\366\031\267P\261\221\345\260I|2\252\342y\375"
 107      19B750B1 
 107      91E5B049 
 107      7C32AAE2 
 107      79FD
 108 00ef 77E60B86 		.ascii	"w\346\013\206Jj\250\244\331\250\214\225$Az\352\230\332"
 108      4A6AA8A4 
 108      D9A88C95 
 108      24417AEA 
 108      98DA
 109 0101 FDEEBFA2 		.ascii	"\375\356\277\242O-\242\276\016\227\202\301I\2050z\021"
 109      4F2DA2BE 
 109      0E9782C1 
 109      4985307A 
 109      11
 110 0112 B9C04624 		.ascii	"\271\300F$+\217\301\352\037\240\372\351\316\207$\001"
 110      2B8FC1EA 
 110      1FA0FAE9 
 110      CE872401 
 111 0122 E1BF9F26 		.ascii	"\341\277\237&K\365:)\345\005*\275\253\017\335\307\201"
 111      4BF53A29 
 111      E5052ABD 
 111      AB0FDDC7 
 111      81
 112 0133 4002EDCD 		.ascii	"@\002\355\315\0100j\260\243\2567\330\010\304\214\331"
 112      08306AB0 
 112      A3AE37D8 
 112      08C48CD9 
 113 0143 1D042D90 		.ascii	"\035\004-\220t;>\0216\306\302B\354}0\231\307\234\255"
 113      743B3E11 
 113      36C6C242 
 113      EC7D3099 
 113      C79CAD
 114 0156 C6A6CE63 		.ascii	"\306\246\316cN\231\207\366\232\226\363\264\356\242\223"
 114      4E9987F6 
 114      9A96F3B4 
 114      EEA293
 115 0165 B2E69F79 		.ascii	"\262\346\237y\270\234\347\015\334\236\267\026`|\313"
 115      B89CE70D 
 115      DC9EB716 
ARM GAS  /tmp/ccOPYu5Z.s 			page 9


 115      607CCB
 116 0174 50DF9413 		.ascii	"P\337\224\023\345\026\023\211di\357\260\224<\260\362"
 116      E5161389 
 116      6469EFB0 
 116      943CB0F2 
 117 0184 C9C2FEAE 		.ascii	"\311\302\376\256\360\023\005\370\001\302\276\225\322"
 117      F01305F8 
 117      01C2BE95 
 117      D2
 118              		.text
 119              		.section	.gnu.lto_print_line.28ee5ae0fdd4774b,"",%progbits
 120 0000 789C9593 		.ascii	"x\234\225\2231h\024A\024\206\3777\263\263w\273\233\323"
 120      31681441 
 120      1486FF37 
 120      B3B377BB 
 120      9BD3
 121 0012 A4915C23 		.ascii	"\244\221\\#!\"J\202w\220\312B\301>m\002j\023\222#\230"
 121      21224A82 
 121      7790CA42 
 121      C13E6D02 
 121      6A139223 
 122 0027 0505C174 		.ascii	"\005\005\301t\026\231\333\204p\010\206\303J\024\301"
 122      1699DB84 
 122      700886C3 
 122      4A14C1
 123 0036 20812082 		.ascii	" \201 \202\245\225\020\021\341\256\210\301N\273\263"
 123      A5951011 
 123      E1AE88C1 
 123      4EBBB3
 124 0045 497B6582 		.ascii	"I{e\202\205\347{;;I\014Bp\340\336{\267\357}\377\314"
 124      85E77B3B 
 124      3B490C42 
 124      70E0DE7B 
 124      B7EF7DFF 
 125 005a FC7BA7A0 		.ascii	"\374{\247\240pz\335\344\317\015\015Lp\246\020\244\332"
 125      707ADDE4 
 125      CF0D0D4C 
 125      70A610A4 
 125      DA
 126 006b 5F816659 		.ascii	"_\201fYQ\340\012\355\212O\345@\351\215]\300\306&#\330"
 126      51E00AED 
 126      8A4FE540 
 126      E98D5DC0 
 126      C62623D8 
 127 007f 214324CF 		.ascii	"!C$\317AXQ:0\264r\207DN\215c\323\332g\275/\375\355\352"
 127      4158513A 
 127      30B47287 
 127      444E8D63 
 127      D3DA67BD 
 128 0097 93D759DB 		.ascii	"\223\327Y\333\376\036\014(%\336\270Jh\020n\363\027\032"
 128      FE1E0C28 
 128      25DEB84A 
 128      68106EF3 
 128      171A
 129 00a9 CB930AFE 		.ascii	"\313\223\012\376>\211#w\016\3267\252\366\230\324\012"
 129      3E892377 
 129      0ED637AA 
ARM GAS  /tmp/ccOPYu5Z.s 			page 10


 129      F698D40A 
 130 00b9 97CF22DF 		.ascii	"\227\317\"\337\253\235\336`\360\356\303\341\317\016"
 130      AB9DDE60 
 130      F0EEC3E1 
 130      CF0E
 131 00c7 8D5408F3 		.ascii	"\215T\010\363\364\206\306\021p\336\344l\220R\020r0\345"
 131      F486C611 
 131      70DEE46C 
 131      90521072 
 131      30E5
 132 00d9 A213159D 		.ascii	"\242\023\025\235X:\011\207\220E\014\326\254m\217\271"
 132      583A0987 
 132      90450CD6 
 132      AC6D8FB9 
 133 00e9 09C88EBC 		.ascii	"\011\310\216\274f8\362ugIq\322]d\275\217\237\303y\332"
 133      6638F275 
 133      674971D2 
 133      5D64BD8F 
 133      9FC379DA 
 134 00fd 225348C9 		.ascii	"\"SH\311q\264?\307,\227\354\221\336E\326\375\336\277"
 134      71B43FC7 
 134      2C97EC91 
 134      DE45D6FD 
 134      DEBF
 135 010f EAE6EE51 		.ascii	"\352\346\356Q\360\022/\232\326\016\263\015\217\361\313"
 135      F0122F9A 
 135      D60EB30D 
 135      8FF1CB
 136 011e B6A42A3D 		.ascii	"\266\244*=\310\365\005/\0254Sw=b&1\221\346 \017\224"
 136      C8F5052F 
 136      15345377 
 136      3D622631 
 136      91E6200F 
 137 0133 594206DD 		.ascii	"YB\006\335\330\002\341\037@8\211\267\242\0339$f\011"
 137      D802E11F 
 137      403889B7 
 137      A21B3924 
 137      6609
 138 0145 418202F1 		.ascii	"A\202\002\361\314\036\214# \214\204\\9\271\306&\014"
 138      CC1E8C23 
 138      208C845C 
 138      39B9C626 
 138      0C
 139 0156 89E26A6B 		.ascii	"\211\342jk\365\340\351u\257\312;S~C\341\273P'o\316]"
 139      F5E0E975 
 139      AFCA3B53 
 139      7E43E1BB 
 139      50276FCE 
 140 016b 7FEB00FC 		.ascii	"\177\353\000\374S\020w\370\211o2\321\301\332~\263\344"
 140      531077F8 
 140      896F32D1 
 140      C1DA7EB3 
 140      E4
 141 017c B59CD0F4 		.ascii	"\265\234\320\364\321K\373\001*\314S\333\232\305t\253"
 141      D14BFB01 
 141      2ACC53DB 
 141      9AC574AB 
ARM GAS  /tmp/ccOPYu5Z.s 			page 11


 142 018c 245A468C 		.ascii	"$ZF\214\026\003\017\373\243\036\215\376\337\300\370"
 142      16030FFB 
 142      A31E8DFE 
 142      DFC0F8
 143 019b 9481D159 		.ascii	"\224\201\321Y\006&\205\201\225#\003\343\223\006\372"
 143      06268581 
 143      952303E3 
 143      9306FA
 144 01aa 3FCE1EC2 		.ascii	"?\316\036\302c\003\023\011\221\034i4\245s\027q\345\225"
 144      63031309 
 144      911C6934 
 144      A5731771 
 144      E595
 145 01bc 7D7E2BA5 		.ascii	"}~+\245\363(FD`X\261\265#\30074{\235K\236uk\206]\312"
 145      F3284644 
 145      6058B1B5 
 145      23C03734 
 145      7B9D4B9E 
 146 01d5 72E90BB5 		.ascii	"r\351\013\265Z}y\361\321r\375~\272Po,\315I]k \221<\327"
 146      5A7D79F1 
 146      D172FD7E 
 146      BA506F2C 
 146      CD495D6B 
 147 01ed 587A589B 		.ascii	"XzX\233\232\242TWb\374\001\345\011\266a"
 147      9AA25457 
 147      62FC01E5 
 147      09B661
 148              		.text
 149              		.section	.gnu.lto_test_printn.part.0.28ee5ae0fdd4774b,"",%progbits
 150 0000 789C8D92 		.ascii	"x\234\215\222AK\033Q\020\307\347\377\336nL\242RO\205"
 150      414B1B51 
 150      10C7E7FF 
 150      DE6E4CA2 
 150      524F85
 151 0013 50842878 		.ascii	"P\204(x\250\201M\241\336\375\022\006\332^B\022Z\263"
 151      A8814DA1 
 151      DEFD1206 
 151      DA5E4212 
 151      5AB3
 152 0025 6024603C 		.ascii	"`$`<y\310K\260 \241\207 \024l{i(\245\264\202\242\375"
 152      79C84BB0 
 152      20A18720 
 152      146C7B69 
 152      28A5B482 
 153 003b 0221A724 		.ascii	"\002!\247$P\305\263\227\334{\251\307\366\340vf7\033"
 153      50C5B397 
 153      DC7BA9C7 
 153      F6E07666 
 153      371B
 154 004d 8D0866D8 		.ascii	"\215\010f\330\235\231\367\336\374f\346\315\256\"Ew%"
 154      9D99F7DE 
 154      FC66E6CD 
 154      AE224577 
 154      25
 155 005e C5EF37DE 		.ascii	"\305\3577\336N\263\205M\260\232g\354XP\276U\320bkQ\015"
 155      4EB3854D 
 155      B09A67EC 
ARM GAS  /tmp/ccOPYu5Z.s 			page 12


 155      5850BE55 
 155      D0626B51 
 156 0073 8843A0AA 		.ascii	"\210C\240\252\2454\252/!\260\275H-c\366\007o\017O\022"
 156      A534AA2F 
 156      21B0BD48 
 156      2D63F607 
 156      6F0F4F12 
 157 0087 E673BD69 		.ascii	"\346s\275i\256=\017.\270L\002T\000\275\340\005\222\276"
 157      AE3D0F2E 
 157      B84C0254 
 157      00BDE005 
 157      92BE
 158 0099 51D678DD 		.ascii	"Q\326x\335\200l_6\336\337&\265\242'\223\220\355\246"
 158      806C5F36 
 158      DEDF26B5 
 158      A2279390 
 158      EDA6
 159 00ab 39B1BA66 		.ascii	"9\261\272f\267\355y\253.,E\3637\224\011\254\232\273"
 159      B7ED79AB 
 159      2E2C45F3 
 159      379409AC 
 159      9ABB
 160 00bd B7E0DFFE 		.ascii	"\267\340\337\376\273Dc\254\340\302\204\255^\365\373"
 160      BB4463AC 
 160      E0C284AD 
 160      5EF5FB
 161 00cc 2D987D53 		.ascii	"-\230}S\373\343y\217\\\330\212\226\036\"\217\225\031"
 161      FBE3798F 
 161      5CD88A96 
 161      1E228F95 
 161      19
 162 00dd 78DE87D3 		.ascii	"x\336\207\323\330\024(\207\357X\344\311\270\210hVS2"
 162      D8142887 
 162      EF58E4C9 
 162      B8886856 
 162      5332
 163 00ef 3EDA35A6 		.ascii	">\3325\246\231\314\341+\237\344\360\305\327-\326$yY"
 163      99CCE12B 
 163      9FE4F0C5 
 163      D72DD624 
 163      7959
 164 0101 D658CBD8 		.ascii	"\326X\313\3303\260\304\352\036u\242D%\360\303'=\252"
 164      33B0C4EA 
 164      1E75A244 
 164      25F0C327 
 164      3DAA
 165 0113 F32A204A 		.ascii	"\363* J\030\226\314@\371\241\277\250\336;8z\232\303"
 165      1896CC40 
 165      F9A1BFA8 
 165      DE3B387A 
 165      9AC3
 166 0125 217FD575 		.ascii	"!\177\325u\340\023}\254\0313\307}\357\320?\263'^\264"
 166      E0137DAC 
 166      1933C77D 
 166      EFD03FB3 
 166      275EB4
 167 0138 04F91FA4 		.ascii	"\004\371\037\244\361\350\220f\352U\210\250\024-s\263"
ARM GAS  /tmp/ccOPYu5Z.s 			page 13


 167      F1E89066 
 167      EA5588A8 
 167      142D73B3 
 168 0148 2330C659 		.ascii	"#0\306Y$\326\366#\363a\3011F\247\350\207\304\306G\324"
 168      24D6F623 
 168      F361C131 
 168      46A7E887 
 168      C4C647D4 
 169 015c 3427122A 		.ascii	"4'\022*2\244B\354\234\354\000\"\301D\371\311g\236\361"
 169      32A442EC 
 169      9CEC0022 
 169      C144F9C9 
 169      679EF1
 170 016f 6C66C3AB 		.ascii	"lf\303\253\350\341U:\277U\020\034\214j\205~\232=\016"
 170      E8E1553A 
 170      BF55101C 
 170      8C6A857E 
 170      9A3D0E
 171 0182 96695F50 		.ascii	"\226i_Pm\320]\012S\005\262\306U\030\224\313=v\234t\345"
 171      6DD05D0A 
 171      5305B2C6 
 171      551894CB 
 171      3D769C74 
 172 0197 F55625BD 		.ascii	"\365V%\275\341\346\323\205bV|\247@\330DY\347\267\337"
 172      E1E6D385 
 172      62567CA7 
 172      40D84459 
 172      E7B7DF
 173 01aa E8B2B312 		.ascii	"\350\262\263\022\227\275l\241Xv\236\377\007\270\207"
 173      97BD6CA1 
 173      58769EFF 
 173      07B887
 174 01b9 A384     		.ascii	"\243\204"
 175              		.text
 176              		.section	.gnu.lto__test_fail.28ee5ae0fdd4774b,"",%progbits
 177 0000 789C6362 		.ascii	"x\234cb`b@\007\222@\314\311\310\300 \001\244\031\231"
 177      60624007 
 177      9240CCC9 
 177      C8C02001 
 177      A41999
 178 0013 19189926 		.ascii	"\031\030\231&\234c`h\344`bd\0041\030\030\031\352\231"
 178      9C636068 
 178      E4606264 
 178      04311818 
 178      19EA99
 179 0026 18EB2319 		.ascii	"\030\353#\031\301j\3273\035x\360\377\377\2729\355K\317"
 179      C16AD733 
 179      1D78F0FF 
 179      FFBA39ED 
 179      4BCF
 180 0038 30CE6562 		.ascii	"0\316ebca\314\005\213\2632\26444LP``H\006sC\200$Ho("
 180      6361CC05 
 180      8BB332B4 
 180      34344C50 
 180      60604806 
 181 0053 23138866 		.ascii	"#\023\210f>\313\320\264c\306\267\003\314\211\214\013"
 181      3ECBD0B4 
ARM GAS  /tmp/ccOPYu5Z.s 			page 14


 181      63C6B703 
 181      CC898C0B 
 182 0063 19591966 		.ascii	"\031Y\031f3\314jlh\020\310dd\250f\370\325\320\001b\001"
 182      33CC6A6C 
 182      6810C864 
 182      64A866F8 
 182      D5D00162 
 183 0078 8D01698C 		.ascii	"\215\001i\214`\314d\204\330\003b1\200\230 \255+\312"
 183      60CC6484 
 183      D8036231 
 183      809820AD 
 183      2BCA
 184 008a F06964C2 		.ascii	"\360id\302\251\361\364\011t\215Lp\215\314\271@\257B"
 184      A9F1F409 
 184      748D4C70 
 184      8DCCB940 
 184      AF42
 185 009c 94338335 		.ascii	"\2243\2035\2463\26200\\dh|p;\031\242\011n\022\304G\214"
 185      A633B230 
 185      305C6468 
 185      7C703B19 
 185      A2096E12 
 186 00b3 209F80EC 		.ascii	" \237\200\354\022\323\323\323/I-.\321\317\311L\322O"
 186      12D3D3D3 
 186      2F492D2E 
 186      D1CFC94C 
 186      D24F
 187 00c5 CE8807B1 		.ascii	"\316\210\007\261\365\222\031\000:\225I\201"
 187      F5921900 
 187      3A954981 
 188              		.text
 189              		.section	.gnu.lto__test_assert.28ee5ae0fdd4774b,"",%progbits
 190 0000 789C7551 		.ascii	"x\234uQ\261J\003A\024\234\267o\017BHa!\202 \022\362"
 190      B14A0341 
 190      149CB76F 
 190      0F424861 
 190      21822012 
 191 0015 0139F05B 		.ascii	"\0019\360[\014h%\361\220x\340U\0116\026\331\204@\322"
 191      0C6825F1 
 191      9078E055 
 191      093616D9 
 191      8440D2
 192 0028 19AC4445 		.ascii	"\031\254DE\210\0106\242\235\244\270@\254\214\210B \215"
 192      880836A2 
 192      9DA4B840 
 192      AC8C8842 
 192      208D
 193 003a 9D1F606D 		.ascii	"\235\037`mas\356\333\013\221\004]\330}\217efv\336\254"
 193      6173EEDB 
 193      0B91045D 
 193      D87D8F65 
 193      6676DEAC 
 194 004e 82C2E2DA 		.ascii	"\202\302\342\332\260{@\300\232\255\344\201T\367\015"
 194      B07B40C0 
 194      9AADE481 
 194      54F70D
 195 005d 686494E2 		.ascii	"hd\224\342\211\017\223\323\361:L\226I\247\327\232H\032"
ARM GAS  /tmp/ccOPYu5Z.s 			page 15


 195      890F93D3 
 195      F13A4C96 
 195      49A7D79A 
 195      481A
 196 006f 10EA8A35 		.ascii	"\020\352\2125\325\267\311\211\334\253\341G\222\334\305"
 196      D5B7C989 
 196      DCABE147 
 196      92DCC5
 197 007e ED87982E 		.ascii	"\355\207\230.U\226\020\022\230\"\202g\017\201xh\031"
 197      55961012 
 197      98228267 
 197      0F817868 
 197      19
 198 008f D3CD0381 		.ascii	"\323\315\003\201#l\332StJ\244\244\362\010\255\317\307"
 198      236CDA53 
 198      744AA4A4 
 198      F208ADCF 
 198      C7
 199 00a0 719BCBD4 		.ascii	"q\233\313\324\263\036*\304[\024\322\234\315\0221&>?"
 199      B31E2AC4 
 199      5B14D29C 
 199      CD123126 
 199      3E3F
 200 00b2 A399010A 		.ascii	"\243\231\001\012\350\031s2\214\237r\335F\307$I=$+\264"
 200      E8197332 
 200      8C9F72DD 
 200      46C72449 
 200      3D242BB4 
 201 00c6 4AA22E4C 		.ascii	"J\242.L\225w\205\365\374\250\025\253\215W4\373\247_"
 201      957785F5 
 201      FCA815AB 
 201      8D5734FB 
 201      A75F
 202 00d8 439E394A 		.ascii	"C\2369J\033ss\354\225\351\212\012\026\227\272\010\234"
 202      1B7373EC 
 202      95E98A0A 
 202      1697BA08 
 202      9C
 203 00e9 719CE3AC 		.ascii	"q\234\343\254a\314\222\265s\204o\323\221NG$9\312\023"
 203      61CC92B5 
 203      73846FD3 
 203      914E4724 
 203      39CA13
 204 00fc E90BCEAD 		.ascii	"\351\013\316\255\240E\274o\305\313tm\025\376\246\362"
 204      A045BC6F 
 204      C5CB746D 
 204      15FEA6F2 
 205 010c BFD497D1 		.ascii	"\277\324\227\321\341\002\221fD/r\004\201{\277\303\244"
 205      E1029166 
 205      442F7204 
 205      817BBFC3 
 205      A4
 206 011d C96897E1 		.ascii	"\311h\227\341\330~\217\\;\327\357\240\2512_\014\226"
 206      D87E8F5C 
 206      3BD7EFA0 
 206      A9325F0C 
 206      96
ARM GAS  /tmp/ccOPYu5Z.s 			page 16


 207 012e A769AADB 		.ascii	"\247i\252\333AN\262'\301\313\004+\305\242_\333\253\326"
 207      414EB227 
 207      C1CB042B 
 207      C5A25FDB 
 207      ABD6
 208 0140 FC8370D7 		.ascii	"\374\203p\327\017\366w\244/\006\340\250Z\371\001\252"
 208      0FF677A4 
 208      2F06E0A8 
 208      5AF901AA 
 209 0150 9B73A5   		.ascii	"\233s\245"
 210              		.text
 211              		.section	.gnu.lto__test_assert_sequence.28ee5ae0fdd4774b,"",%progbits
 212 0000 789CAD54 		.ascii	"x\234\255T[KTQ\024^k\357s\237I#\"\024\272\210\020\004"
 212      5B4B5451 
 212      145E6BEF 
 212      739F4923 
 212      2214BA88 
 213 0016 C10CD573 		.ascii	"\301\014\325s\017\375\207\006\352I\246!NC\015\011J\020"
 213      0FFD8706 
 213      EA49A621 
 213      4E430D09 
 213      4A10
 214 0028 41EEF182 		.ascii	"A\356\361\202\202\302\014\"a\227\007Ez\250$\037\033"
 214      82C20C22 
 214      61970745 
 214      7AA8241F 
 214      1B
 215 0039 A2709240 		.ascii	"\242p\222@M\024\214^\254\004!\242\240A|\210\002\013"
 215      4D148C5E 
 215      AC0421A2 
 215      A0417C88 
 215      020B
 216 004b 4F6BEF73 		.ascii	"Ok\357sq\234J\351\262\341\234\275\366\332\337\372\326"
 216      719C4AE9 
 216      B2E19CBD 
 216      F6DADFFA 
 216      D6
 217 005c F51C060C 		.ascii	"\365\034\006\014j\327Uz^\352\000Gi\307\030 +.\000\344"
 217      6AD7557A 
 217      5EEA0047 
 217      69C71820 
 217      2B2E00E4 
 218 0070 2D86BA2F 		.ascii	"-\206\272/p\246Mq\020\216\263\360\002@\3045\264}\275"
 218      70A64D71 
 218      108EB3F0 
 218      0240C435 
 218      B47DBD
 219 0083 E3034EE9 		.ascii	"\343\003N\351\214\253\033\307\220\260\270\301\314'\007"
 219      8CAB1BC7 
 219      90B0B8C1 
 219      CC2707
 220 0092 E964BD4A 		.ascii	"\351d\275J\322\311\014\321V(\330\210R\000\204\016\306"
 220      D2C90CD1 
 220      5628D888 
 220      5200840E 
 220      C6
 221 00a3 3547374C 		.ascii	"5G7LRu\234E\031\012k\206Q!\006Wz6>\342\315\241r\367"
ARM GAS  /tmp/ccOPYu5Z.s 			page 17


 221      52759C45 
 221      190A6B86 
 221      51210657 
 221      7A363EE2 
 222 00bb 88F8EE79 		.ascii	"\210\370\356y\210Y\244\260\033\0212\010g\350\200Mjc"
 222      8859A4B0 
 222      1B113208 
 222      67E8804D 
 222      6A63
 223 00cd DAD63C7C 		.ascii	"\332\326<|\333\362\362\364@\243\030\351,\212\0152U\226"
 223      DBF2F2F4 
 223      40A318E9 
 223      2C8A0D32 
 223      5596
 224 00df 8777B29C 		.ascii	"\207w\262\234`\345\025\317{\373\364\363\273~\334\323"
 224      60E515CF 
 224      7BFBF4F3 
 224      BB7EDCD3 
 225 00ef 80909356 		.ascii	"\200\220\223Vi\034\303f\340\220E\256#iL\322\214\222"
 225      691CC366 
 225      E09045AE 
 225      23694CD2 
 225      8C92
 226 0101 C60A6E6C 		.ascii	"\306\012nl\272\321\034\211\215I)N\030\254\223\022\021"
 226      BAD11C89 
 226      8D49294E 
 226      18AC9312 
 226      11
 227 0112 EAD02D44 		.ascii	"\352\320-D\261\311\007\202\364N\3534\275\327\014H!\243"
 227      B1C90782 
 227      F44EEB34 
 227      BDD70C48 
 227      21A3
 228 0124 8DCF42E7 		.ascii	"\215\317B\347\312\352\230\221\306\273\250\007\214\327"
 228      CAEA9891 
 228      C6BBA807 
 228      8CD7
 229 0132 605DF409 		.ascii	"`]\364\011q2\213z\0167\373\224B\016T`>\017]\375]\037"
 229      71328B7A 
 229      0E37FB94 
 229      420E5460 
 229      3E0F5DFD 
 230 0148 0AFB7D13 		.ascii	"\012\373}\023\027-\027\231\312F\262\317\002\253\246"
 230      172D1799 
 230      CA46B2CF 
 230      02ABA6
 231 0157 A25B8079 		.ascii	"\242[\200y\350|\334s=\204\333\267\341\026\241\265\300"
 231      E87CDC73 
 231      3D84DBB7 
 231      E116A1B5 
 231      C0
 232 0168 2A6457AC 		.ascii	"*dW\254\253\030\242\034\027\361gRJ\222\256j\031c\021"
 232      AB18A21C 
 232      17F16752 
 232      4A92AE6A 
 232      196311
 233 017b 235633CE 		.ascii	"#V3\316@w%\177,rK8\250\312E\203\207\\&oE\015{\323;\207"
ARM GAS  /tmp/ccOPYu5Z.s 			page 18


 233      4077257F 
 233      2C724B38 
 233      A8CA4583 
 233      875C266F 
 234 0195 6250E4D7 		.ascii	"bP\344\327<\257>\213\006\203#;\365\313\305\270\212\245"
 234      3CAF3E8B 
 234      0683233B 
 234      F5CBC5B8 
 234      8AA5
 235 01a7 34FCA5CC 		.ascii	"4\374\245\314\203Z\207E\027\237\012T\324{\252\356~\014"
 235      835A8745 
 235      179F0A54 
 235      D47BAAEE 
 235      7E0C
 236 01b9 1954A151 		.ascii	"\031T\241Q\260y!vS;\375:\223d\346\250\264\240\\\230"
 236      B0792176 
 236      533BFD3A 
 236      9364E6A8 
 236      B4A05C98 
 237 01cd 8A584A1C 		.ascii	"\212XJ\034\301'/\021y\032\037\020\303\257M\265\337\232"
 237      C1272F11 
 237      791A1F10 
 237      C3AF4DB5 
 237      DF9A
 238 01df CECD5CA9 		.ascii	"\316\315\\\25114\"C+Gz\037nm&\343\317\207\003#\323\200"
 238      31342243 
 238      2B477A1F 
 238      6E6D26E3 
 238      CF870323 
 239 01f5 2902D017 		.ascii	")\002\320\027\022\024)\354'\223\355\220\012\325\013"
 239      121429EC 
 239      2793ED90 
 239      0AD50B
 240 0204 547E6687 		.ascii	"T~f\207\351;\011\013mF\316 rf\347\320\010\234\331Qw"
 240      E93B090B 
 240      6D46CE20 
 240      7266E7D0 
 240      089CD951 
 241 0219 9EBFCF9F 		.ascii	"\236\277\317\237\010\215\230\033\204Ok\011\320E\235"
 241      088D981B 
 241      844F6B09 
 241      D0459D
 242 0228 D1CB71EE 		.ascii	"\321\313q\356LVp\011\230OT^\356\255\217f\222\015s\032"
 242      4C567009 
 242      984F545E 
 242      EEAD8F66 
 242      920D731A 
 243 023c 2E02B4CA 		.ascii	".\002\264\312n\0320\305\271\232\212\257\0053$\255\333"
 243      6E1A30C5 
 243      B99A8AAF 
 243      053324AD 
 243      DB
 244 024d 662E7645 		.ascii	"f.vE y\345Tw5E\241L\340\326\331x=\035/\346\373\204\347"
 244      2079E554 
 244      773545A1 
 244      4CE0D6D9 
 244      783D1D2F 
ARM GAS  /tmp/ccOPYu5Z.s 			page 19


 245 0265 75500DD3 		.ascii	"uP\015\323x\237B\370\207\321\370V\320\323\370\350\277"
 245      789F42F8 
 245      87D1F856 
 245      D0D3F8E8 
 245      BF
 246 0276 8D46E96F 		.ascii	"\215F\351oG\243\364\247\243\221\"\305 \223\205^\357"
 246      47A3F4A7 
 246      A39122C5 
 246      2093855E 
 246      EF
 247 0287 9A183850 		.ascii	"\232\0308P\233\327\330\320\241\315\214\330\226\214\266"
 247      9BD7D8D0 
 247      A1CD8CD8 
 247      968CB6
 248 0296 9985A0B9 		.ascii	"\231\205\240\2717\014\277\267i|\246\334\007\016m\371"
 248      370CBFB7 
 248      697CA6DC 
 248      070E6DF9 
 249 02a6 935AA4FF 		.ascii	"\223Z\244\377\265\014\203\373\363\301\203L\264\361\311"
 249      B50C83FB 
 249      F3C1834C 
 249      B4F1C9
 250 02b5 8640342B 		.ascii	"\206@4+\223{\225\010`\215/\306\345\024#Y\312 \366%\022"
 250      937B9508 
 250      608D2FC6 
 250      E5142359 
 250      CA20F625 
 251 02ca C9F6F36D 		.ascii	"\311\366\363m\355\311K\331s\311\314\205\026)'2\020\223"
 251      EDC94BD9 
 251      73C9CC85 
 251      16292732 
 251      1093
 252 02dc 7B4BFBE5 		.ascii	"{K\373\345\213\255\211\343,\323\312sm\356\017\325\337"
 252      8BAD89E3 
 252      2CD3CA73 
 252      6DEE0FD5 
 252      DF
 253 02ed 6ED0     		.ascii	"n\320"
 254              		.text
 255              		.section	.gnu.lto__test_assert_time_window.28ee5ae0fdd4774b,"",%progbits
 256 0000 789C8D54 		.ascii	"x\234\215TMHTQ\024>\347\3357\315_?\202Q\271\011q\027"
 256      4D485451 
 256      143EE7DD 
 256      37CD5F3F 
 256      8251B909 
 257 0016 910F6DD1 		.ascii	"\221\017m\321\252E\324F\320M)\324J\2363\303\370`~b\346"
 257      AA45D446 
 257      D04D29D4 
 257      4A9E33C3 
 257      F8607E62 
 258 002b 25410BEF 		.ascii	"%A\013\357\250e\211\240\210\213\314\212LC4S\373\021"
 258      A86589A0 
 258      888BCC8A 
 258      4C433453 
 258      FB11
 259 003d AC94A6AC 		.ascii	"\254\224\246\254\260L)t\223m\206\"\"\202\020\212\210"
 259      B04C2974 
ARM GAS  /tmp/ccOPYu5Z.s 			page 20


 259      936D8622 
 259      2282108A 
 259      88
 260 004e 28A673EF 		.ascii	"(\246s\357\033\307\231Ae\036\334s\357}\367\234\357;"
 260      1BC79941 
 260      651EDC73 
 260      EF7DF79C 
 260      EF3B
 261 0060 7FF72AA0 		.ascii	"\177\367*\240@\356WN\243\337\006\020\247\031m\200J\347"
 261      40EE574E 
 261      A3DF0610 
 261      A7196D80 
 261      4AE7
 262 0072 0240CCA1 		.ascii	"\002@\314\241(lI\003\276U\235\332\013\334\305P\265~"
 262      286C4903 
 262      BE559DDA 
 262      0BDCC550 
 262      B57E
 263 0084 AB886201 		.ascii	"\253\210b\001\010\215\012S\261\361\024J\2201%\236H&"
 263      088D0A53 
 263      B1F1144A 
 263      9031259E 
 263      4826
 264 0096 47AFB73D 		.ascii	"G\257\267=\230\302!\245\200a\020A%\2016\022\212\035"
 264      98C221A5 
 264      80611041 
 264      25813612 
 264      8A1D
 265 00a8 0C040709 		.ascii	"\014\004\007\011t\222P\\B\270I0\262\264A\013\347\235"
 265      7492505C 
 265      42B84930 
 265      B2B4410B 
 265      E79D
 266 00ba C5001E89 		.ascii	"\305\000\036\211TMR\020\324\240\"f6\017\317\226\247"
 266      544D5210 
 266      D4A02266 
 266      360FCF96 
 266      A7
 267 00cb 1616BA9C 		.ascii	"\026\026\272\234i=k\021\177\322\376\201\261\364\356"
 267      693D6B11 
 267      7FD2FE81 
 267      B1F4EE
 268 00da 56C7B56D 		.ascii	"V\307\265m\351\315\327\356\345BL\357\346\336|\244\350"
 268      E9CDD7EE 
 268      E5424CEF 
 268      E6DE7CA4 
 268      E8
 269 00eb 74ECA3E0 		.ascii	"t\354\243\340<\2104\024\032\214\206*\010\375h\337\017"
 269      3C883414 
 269      1A8C862A 
 269      08FD68DF 
 269      0F
 270 00fc C3BC2596 		.ascii	"\303\274%\226\370\361\263\273\302@\265\027\256\304:"
 270      F8F1B3BB 
 270      C240B517 
 270      AEC43A
 271 010b 798181B6 		.ascii	"y\201\201\266\223h\340\026N\237\012r)#\255\023n\352"
ARM GAS  /tmp/ccOPYu5Z.s 			page 21


 271      9368E016 
 271      4E9F0A72 
 271      2923AD13 
 271      6EEA
 272 011d D84F68F4 		.ascii	"\330Oh\364\315C\323\367\346\355:\336\244\255\037\035"
 272      CD43D3F7 
 272      E6ED3ADE 
 272      A4AD1F1D 
 273 012d 0406F00A 		.ascii	"\004\006\360\012\232V\272\026'\321\242,\201>\316\273"
 273      9A56BA16 
 273      27D1A22C 
 273      813ECEBB 
 274 013d E2BD6D33 		.ascii	"\342\275m3\310\333xl%\231\334AyP`@\272\"\201\355\005"
 274      C8DB786C 
 274      2599DC41 
 274      79506040 
 274      BA2281ED 
 275 0152 7272E4D4 		.ascii	"rr\344\324\206\360$X\242\347\205{s\254\241<\260X\236"
 275      86F02458 
 275      A2E7857B 
 275      73ACA13C 
 275      B0589E
 276 0165 58637960 		.ascii	"Xcy`\251\022\213\274\263@\022\023\257\377\025\215\214"
 276      A9128BBC 
 276      B3401213 
 276      AFFF158D 
 276      8C
 277 0176 737E3ECE 		.ascii	"s~>\316\177'1\311\010H\307a\231\347|\002L\003q\302\260"
 277      7F2731C9 
 277      0848C761 
 277      99E77C02 
 277      4C0371C2 
 278 018b DDE07F93 		.ascii	"\335\340\177\223)\210\221< \330\346\020\243y@\250\242"
 278      2988913C 
 278      20D8E610 
 278      A37940A8 
 278      A2
 279 019c 8ECD9766 		.ascii	"\216\315\227f\006;\332\307\\\271}\366\255;YX\246\343"
 279      063BDAC7 
 279      5CB97DF6 
 279      AD3B5958 
 279      A6E3
 280 01ae 5D2CA1AA 		.ascii	"],\241\252\217K9F2\253\275t\274#\017nK9$\217W\033N\214"
 280      8F4B3946 
 280      32ABBD74 
 280      BC230F6E 
 280      4B39248F 
 281 01c6 2D168F53 		.ascii	"-\026\217Sv\010\313`\333\255\343=\3319.\362b5\226\365"
 281      7608CB60 
 281      DBADE33D 
 281      D9392EF2 
 281      623596F5 
 282 01da 9AE731F2 		.ascii	"\232\3471\362\013\253Eb\012\334\317(\222\303\212\012"
 282      0BAB4562 
 282      0ADCCF28 
 282      92C38A0A 
 283 01ea B3A3F2C2 		.ascii	"\263\243\362\302'j\334\304b\353\313Cd!\271]\026\031"
ARM GAS  /tmp/ccOPYu5Z.s 			page 22


 283      276ADCC4 
 283      62EBCB43 
 283      6421B95D 
 283      1619
 284 01fc 6C483287 		.ascii	"lH2\207\224\277\024\211S\201\351\014\222b\213D\315M"
 284      94BF1489 
 284      5381E90C 
 284      92628B44 
 284      CD4D
 285 020e 1DC1CDC2 		.ascii	"\035\301\315\302\363\317O\337\332s\362\306\277t3\035"
 285      F3CF4FDF 
 285      DA73F2C6 
 285      BF74331D 
 286 021e 27654226 		.ascii	"'eB&\262\022bO'\303\265\206TC\261/i,\263\222\361\351"
 286      B212624F 
 286      27C3B586 
 286      5443B12F 
 286      692CB392 
 287 0234 D62C8774 		.ascii	"\326,\207t|\230Q\313M\034\242;9y\371W\234\345z4\330"
 287      7C9851CB 
 287      4D1CA23B 
 287      3979F957 
 287      9CE57A34 
 288 0249 41859A4A 		.ascii	"A\205\232J\371\362H\372\342\020F\342\302sq\341\3319"
 288      F9F248FA 
 288      E21046E2 
 288      C27371E1 
 288      D939
 289 025b F8C32F8A 		.ascii	"\370\303/\212\225+(\337&Aa9)VL\244X\200O\022\270\216"
 289      952B28DF 
 289      26416139 
 289      29564CA4 
 289      58804F12 
 290 0271 D384B0BE 		.ascii	"\323\204\260\276\251\272\241\351\334lC\216\2413m\350"
 290      A9BAA1E9 
 290      DC6C438E 
 290      A1336DE8 
 291 0281 0ECAE208 		.ascii	"\016\312\342\010u\367Z0VrT\371\026\276\203X\242\307"
 291      75F75A30 
 291      567254F9 
 291      16BE8358 
 291      A2C7
 292 0293 67E5D16F 		.ascii	"g\345\321o)\275\007\267\304\007P\006\016\247\230\330"
 292      29BD07B7 
 292      C4075006 
 292      0EA798D8 
 293 02a3 D5E99DE2 		.ascii	"\325\351\235\342!Ea$\232}Wi\251f\372\242\246\0260\352"
 293      21456124 
 293      9A7D5769 
 293      A966FAA2 
 293      A61630EA 
 294 02b7 344F7DAD 		.ascii	"4O}\255X\227z\340\000\375\016G\265z=\240\235\016G\314"
 294      58977AE0 
 294      00FD0E47 
 294      B57A3DA0 
 294      9D0E47CC 
 295 02cb A876A2BA 		.ascii	"\250v\242\272\352`\271VYyL\253\256\250j(\023'\265Q\263"
ARM GAS  /tmp/ccOPYu5Z.s 			page 23


 295      EA60B956 
 295      59794CAB 
 295      AEA86A28 
 295      1327B551 
 296 02e0 3610F096 		.ascii	"6\020\360\226\326\303>K\333\023\016\006\303\241\224"
 296      D6C33E4B 
 296      DB130E06 
 296      C3A194
 297 02ef C191E355 		.ascii	"\301\221\343UG\253\316\022\244'\034\361\325\232F\320"
 297      47ABCE12 
 297      A4271CF1 
 297      D59A46D0 
 298 02ff 1721CD3D 		.ascii	"\027!\315=\226f\304\324\214\220'p\306\353#\205\006\223"
 298      9666C4D4 
 298      8C902770 
 298      C6EB2385 
 298      0693
 299 0311 0E8AD608 		.ascii	"\016\212\326\010\303Q\022\244!f:Q\205\255-j\352\021"
 299      C35112A4 
 299      21663A51 
 299      85AD2D6A 
 299      EA11
 300 0323 93F9425E 		.ascii	"\223\371B^\247'\034\362\032\246\021\016\261`\324\377"
 300      A7271CF2 
 300      1AA6110E 
 300      B160D4FF 
 301 0333 1FB770A4 		.ascii	"\037\267p\244\317"
 301      CF
 302              		.text
 303              		.section	.gnu.lto_test_printn.28ee5ae0fdd4774b,"",%progbits
 304 0000 789C8554 		.ascii	"x\234\205TKH\224Q\024>\347\336\371\037\363\317\350\350"
 304      4B489451 
 304      143EE7DE 
 304      F91FF3CF 
 304      E8E8
 305 0012 A823460B 		.ascii	"\250#F\013\221\202J\320\2406-\244u{\205j#:\3258\220"
 305      91824AD0 
 305      A0362DA4 
 305      757B856A 
 305      233AD538 
 306 0027 206514B4 		.ascii	" e\024\264\360:3\201\250\301 D\257\215\026\025\265\310"
 306      F03A3381 
 306      A8C12044 
 306      AF8D1615 
 306      B5C8
 307 0039 45BB5633 		.ascii	"E\273V3!4\212\026-\304\206\026\331\"\202\024\\D\364"
 307      21348A16 
 307      2DC48616 
 307      D9228214 
 307      5C44F4
 308 004c 82A673FE 		.ascii	"\202\246s\376\373\337\0313\241\013s\317\334s\276\357"
 308      FBDF1933 
 308      A10B73CF 
 308      DC73BEEF 
 309 005c BC670408 		.ascii	"\274g\004\010\330y.\323\347s\010\340 I\214\000\212\374"
 309      D8792ED3 
 309      E77308E0 
ARM GAS  /tmp/ccOPYu5Z.s 			page 24


 309      20498C00 
 309      8AFC
 310 006e 2B807157 		.ascii	"+\200qW\210\320\315\006P\236\374\321\003**\321f5\206"
 310      88D0CD06 
 310      509EFCD1 
 310      032A2AD1 
 310      663586
 311 0081 D0F3A5A5 		.ascii	"\320\363\245\245\337E\327\026\326\364K \234\223s\010"
 311      DF45D716 
 311      D6F44B20 
 311      9C937308 
 312 0091 E760D8B7 		.ascii	"\347`\330\267\273Z\026\335\260p\265\335\363\355\036"
 312      BB5A16DD 
 312      B070B5DD 
 312      F3ED1E
 313 00a0 22EB0161 		.ascii	"\"\353\001aL\310\220e;n\330\303\261S\310\211\310\016"
 313      4CC89065 
 313      3B6ED8C3 
 313      B153C889 
 313      C80E
 314 00b2 98536A66 		.ascii	"\230Sjf\375\332\323\307m\223\263\231\274\372]\251`\032"
 314      FDDAD3C7 
 314      6D93B399 
 314      BCFA5DA9 
 314      601A
 315 00c4 29E53684 		.ascii	")\3456\204$\302Iz`\273/D\350\357\032\230Y\310\027\336"
 315      24C2497A 
 315      60BB2F44 
 315      E8EF1A98 
 315      59C817DE 
 316 00d8 4D4EA3AA 		.ascii	"MN\243\2521\245\200}5\246\322R4\374KU3j\365LI\345\012"
 316      31A5807D 
 316      35A6D252 
 316      34FC4B55 
 316      336AF54C 
 317 00ef 95CAF134 		.ascii	"\225\312\3614\206\004\034\370_\300yQX\257T\226W\277"
 317      86041CF8 
 317      5FC07951 
 317      58AF5496 
 317      57BF
 318 0101 7F28617C 		.ascii	"\177(a|\017\3020\2479\200\017\260\003d m$\245\027<\""
 318      0FC230A7 
 318      39800FB0 
 318      0364206D 
 318      24A5173C 
 319 0116 8C88068F 		.ascii	"\214\210\006\217:H\243UO\227\035\343\253\221mq\262\315"
 319      3A48A355 
 319      4F971DE3 
 319      AB916D71 
 319      B2CD
 320 0128 91AD8934 		.ascii	"\221\255\2114N3]nK\200N\004\262\225\261\024\332\202"
 320      4E335D6E 
 320      4B804E04 
 320      B295B114 
 320      DA82
 321 013a 9C52F9F6 		.ascii	"\234R\371\366\001\274OJm\002\316\226N/\335[.\364\241"
 321      01BC4F4A 
ARM GAS  /tmp/ccOPYu5Z.s 			page 25


 321      6D02CE96 
 321      4E2FDD5B 
 321      2EF4A1
 322 014d 20214BB0 		.ascii	" !K\260\360\251\370~R\016\340#\264 \2056\027bm\257\242"
 322      F0A9F87E 
 322      520EE023 
 322      B4208536 
 322      17626DAF 
 323 0162 0F25E41C 		.ascii	"\017%\344\034\011P\206\010\331\005\226\301\273\012?"
 323      09508608 
 323      D90596C1 
 323      BB0A3F
 324 0171 955285AF 		.ascii	"\225R\205\257K\3214\206u\020:\342\012\243C\260\201r"
 324      4BD13486 
 324      75103AE2 
 324      0AA343B0 
 324      8172
 325 0183 1132AE76 		.ascii	"\0212\256v9\214\230\342\224^C6\320\0000}B5\244\321K"
 325      398C98E2 
 325      945E4336 
 325      D000307D 
 325      4235A4D1 
 326 0198 A29F1365 		.ascii	"\242\237\023e\0351\321,\240]\220+\220\235\312~\271\321"
 326      1D31D12C 
 326      A05D902B 
 326      909DCA7E 
 326      B9D1
 327 01aa 66F28AA6 		.ascii	"f\362\212\246P\370=f\374\"\010\255\327\225\221\025\200"
 327      50F83D66 
 327      FC2208AD 
 327      D7959115 
 327      80
 328 01bb 08B7B30F 		.ascii	"\010\267\263\017\321\340\353R\210~)\036\260-\263\221"
 328      D1E0EB52 
 328      887E291E 
 328      B02DB391 
 329 01cb BD604CF5 		.ascii	"\275`L\365d\365\361\023\325\252c\244e\264}X\243Oh\303"
 329      64F5F113 
 329      D5AA63A4 
 329      65B47D58 
 329      A34F68C3 
 330 01df 5DB8334E 		.ascii	"]\2703Nu\306\310\020\204\327\023&\202\357\340z\366\236"
 330      75C6C810 
 330      84D71326 
 330      82EFE07A 
 330      F69E
 331 01f1 302E1AB7 		.ascii	"0.\032\267\007\254&HC#\223)\315\006\332k\2777PM]0\232"
 331      07AC2648 
 331      43239329 
 331      CD06DA6B 
 331      BF37504D 
 332 0208 153E94AA 		.ascii	"\025>\224\252+An\263\370m\251\3168\306\035\023)\003"
 332      2B416EB3 
 332      F86DA9CE 
 332      38C61D13 
 332      2903
 333 021a 353422E9 		.ascii	"54\"\351j\264\226\327fE\031D\012=~G\255[\222\3038f^"
ARM GAS  /tmp/ccOPYu5Z.s 			page 26


 333      6AB496D7 
 333      66451944 
 333      0A3D7E47 
 333      AD5B92C3 
 334 0231 2DE4DE46 		.ascii	"-\344\336FV\271AS3\213o\347\217\031\317q]\037\315\241"
 334      56B94153 
 334      338B6FE7 
 334      8F19CF71 
 334      5D1FCDA1 
 335 0245 3691E830 		.ascii	"6\221\3500g\344\257s4\010H\254\323\206\322\324\011\207"
 335      67E4AF73 
 335      340848AC 
 335      D386D2D4 
 335      0987
 336 0257 68F78848 		.ascii	"h\367\210H\000\352q\234\201\0326\210\260\013\241\271"
 336      00EA719C 
 336      811A3688 
 336      B00BA1B9 
 337 0267 139EB0DF 		.ascii	"\023\236\260\337zM\241F71\305\011(X\245d\247\252\323"
 337      7A4DA146 
 337      3731C509 
 337      2858A564 
 337      A7AAD3
 338 027a 48A450FA 		.ascii	"H\244P\372\263\256\320\211\3556\357\204\037\344\271"
 338      B3AED089 
 338      ED36EF84 
 338      1FE4B9
 339 0289 6518ADDA 		.ascii	"e\030\255\332;M)Q\233\022\357\234eV\2162\341+N\3304"
 339      3B4D2951 
 339      9B12EF9C 
 339      65568E32 
 339      E12B4ED8 
 340 029e 36988184 		.ascii	"6\230\201\204w\031\210\344\021,|,\3762#\320\313\256"
 340      771988E4 
 340      112C7C2C 
 340      FE3223D0 
 340      CBAE
 341 02b0 7AB6AFBA 		.ascii	"z\266\257\272\0173\363\220)lq\250\377\011wsm/\273\365"
 341      0F33F390 
 341      296C71A8 
 341      FF097773 
 341      6D2FBBF5 
 342 02c4 F897B502 		.ascii	"\370\227\265\002/6\252i3\355(<S\023\374\217C\24470\276"
 342      2F36AA69 
 342      33ED283C 
 342      5313FC8F 
 342      43A43730 
 343 02d9 5EDA6F92 		.ascii	"^\332o\222\323\247\227\272\261\345r\367\023]]\335\243"
 343      D3A797BA 
 343      B1E572F7 
 343      135D5DDD 
 343      A3
 344 02ea 672F8E76 		.ascii	"g/\216v\237O\017v'\207\372\371{W\022<\226\375\311\241"
 344      9F4F0F76 
 344      2787FAF9 
 344      7B57123C 
 344      96FDC9A1 
ARM GAS  /tmp/ccOPYu5Z.s 			page 27


 345 02fe 91AE2372 		.ascii	"\221\256#r\360\3229\034\371\003he \370"
 345      F0D2391C 
 345      F9036865 
 345      20F8
 346              		.text
 347              		.section	.gnu.lto_test_print.28ee5ae0fdd4774b,"",%progbits
 348 0000 789C6D52 		.ascii	"x\234mR\277K\034Q\020\376\276\367\366\355\356\235\012"
 348      BF4B1C51 
 348      10FEBEF7 
 348      F6EDEE9D 
 348      0A
 349 0011 2688A095 		.ascii	"&\210\240\225(\026Q\270+\3042\377\305\011\232F\364\220"
 349      281651B8 
 349      2BC432FF 
 349      C5099A46 
 349      F490
 350 0023 F32082A0 		.ascii	"\363 \202\240\235\205\357\316\023B\222\342\260\220\220"
 350      9D85EFCE 
 350      134292E2 
 350      B09090
 351 0032 A4885825 		.ascii	"\244\210X%\010\226B*\255\364\300\037X\212\010\207u\300"
 351      0896422A 
 351      ADF4C01F 
 351      588A0887 
 351      75C0
 352 0044 3E45CE99 		.ascii	">E\316\231{wJB\006vf\336\314|\337|\273o\015\014\376"
 352      7B774A42 
 352      067666DE 
 352      CC7CDF7C 
 352      BB6F0D0C 
 353 0059 B5D7F2BC 		.ascii	"\265\327\362\274\220\362\230D\306\240\251_\002\225\324"
 353      90F29844 
 353      C6A0A95F 
 353      0295D4
 354 0068 300A890D 		.ascii	"0\012\211\015\311I\032\031\373\361\024\360YWK\340{\035"
 354      C9491A19 
 354      FBF114F0 
 354      59574BE0 
 354      7B1D
 355 007a A975109B 		.ascii	"\251u\020\233\306F\216\233sT:\216b\317\373\235\346\366"
 355      C6468E9B 
 355      73543A8E 
 355      62CFFB9D 
 355      E6F6
 356 008c D1F7A1F7 		.ascii	"\321\367\241\367\337\252u\377\247\325b\231\262x\210"
 356      DFAA75FF 
 356      A7D56299 
 356      B27888
 357 009b 2812B372 		.ascii	"(\022\263r\340H;\230\350o%\207\346\270\331j}\275=\270"
 357      E0483B98 
 357      E86F2587 
 357      E6B8D96A 
 357      7DBD3DB8 
 358 00af BFE3CB1E 		.ascii	"\277\343\313\036b\205\260\024\347P\246\215\261\300="
 358      6285B014 
 358      E750A68D 
 358      B1C03D
ARM GAS  /tmp/ccOPYu5Z.s 			page 28


 359 00be 214FE410 		.ascii	"!O\344\020\245\342\\F\007\304\034j\336\327G\240\354"
 359      A5E25C46 
 359      07C41C6A 
 359      DED747A0 
 359      EC
 360 00cf 6205F122 		.ascii	"b\005\361\"\260@#\301\316\320BT\333\013T\033\237\216"
 360      B04023C1 
 360      CED04254 
 360      DB0B541B 
 360      9F8E
 361 00e1 5E2D709F 		.ascii	"^-p\237\016%\306_\360\271\342}\277\010\333\300o\377"
 361      0E25C65F 
 361      F0B9E27D 
 361      BF08DBC0 
 361      6FFF
 362 00f3 4EB37885 		.ascii	"N\263x\205J\240\312\342\216\"A\275\351B\222IL\310j\001"
 362      4AA0CAE2 
 362      8E2241BD 
 362      E9429249 
 362      4CC86A01 
 363 0107 CA402214 		.ascii	"\312@\"\024:\030\306\026\211\377\000\322I\374P\3364"
 363      3A18C616 
 363      89FF00D2 
 363      49FC50DE 
 363      34
 364 0118 403242A1 		.ascii	"@2B\241\220\250\003\341\023d\353\203\355bd\210\355O"
 364      90A803E1 
 364      1364EB83 
 364      ED626488 
 364      ED4F
 365 012a A3DD064C 		.ascii	"\243\335\006L\250\313{J\013\270\202\013\005(\275\272"
 365      A8CB7B4A 
 365      0BB8820B 
 365      0528BDBA 
 366 013a B8445766 		.ascii	"\270DWf60\315\010\267\\\211m\240*\3156\210mI?\267\037"
 366      3630CD08 
 366      B75C896D 
 366      A02ACD36 
 366      886D493F 
 367 0150 7687BB2B 		.ascii	"v\207\273+\\\220\323\323\331\324\333\221q\206\332\257"
 367      5C90D3D3 
 367      D9D4DB91 
 367      7186DAAF 
 368 0160 CAD4D390 		.ascii	"\312\324\323\220\266\372\236\257\346\006,\321\032q\031"
 368      B6FA9EAF 
 368      E6062CD1 
 368      1A7119
 369 016f 7B7E3BA0 		.ascii	"{~;\240\273\234~\336kT\232w\343]Q\301\012\262\265\226"
 369      BB9C7EDE 
 369      6B549A77 
 369      E35D51C1 
 369      0AB2B596 
 370 0183 E88F3698 		.ascii	"\350\2176\230\313\345\327\227\326\326\363o\313\213\371"
 370      CBE5D797 
 370      D6D6F36F 
 370      CB8BF9
 371 0192 E2F2BCE6 		.ascii	"\342\362\274\346\271\"\262\032\347\213\313\253\271\351"
ARM GAS  /tmp/ccOPYu5Z.s 			page 29


 371      B922B21A 
 371      E78BCBAB 
 371      B9E9
 372 01a0 4769D579 		.ascii	"Gi\325y\237"
 372      9F
 373              		.text
 374              		.section	.gnu.lto_test_println.28ee5ae0fdd4774b,"",%progbits
 375 0000 789C8D53 		.ascii	"x\234\215S\315k\023Q\020\237y\037\233\315&\261\261\212"
 375      CD6B1351 
 375      109F791F 
 375      9BCD26B1 
 375      B18A
 376 0012 18412945 		.ascii	"\030A)E\017ZH\016*=\011\376\021-h/%\015\262]0Pho\036"
 376      0F5A480E 
 376      2A3D09FE 
 376      112D682F 
 376      250DB25D 
 377 002b FA122388 		.ascii	"\372\022#\210\365\020z\320\252\010\006\251\250\027/"
 377      F5107AD0 
 377      AA0806A9 
 377      A8172F
 378 003a 053F0EA5 		.ascii	"\005?\016\245\2364V-\036U\012A\257\005=\347\340:\263"
 378      9E34562D 
 378      1E550A41 
 378      AF053DE7 
 378      E03AB3
 379 004d 6F77FBE1 		.ascii	"ow\373\341\241>\310\274\331y\363\233\371\315\357\275"
 379      A13EC8BC 
 379      D979F39B 
 379      F9CDEFBD 
 380 005d 0810B077 		.ascii	"\010\020\260w]\240\337\212\004\030\245\035\035@\321"
 380      5DA0DF8A 
 380      0418A51D 
 380      1D40D1
 381 006c FE0CD070 		.ascii	"\376\014\320p\005*\353H\353\274u\225\220\267\337\001"
 381      052AEB48 
 381      EBBC7595 
 381      90B7DF01 
 382 007c 184FB732 		.ascii	"\030O\2672`\362\032\221\343\2000/\244\3228\177\031\271"
 382      60F21A91 
 382      E380302F 
 382      A4D2387F 
 382      19B9
 383 008e 9C18868E 		.ascii	"\234\030\206\2161\213\275\345\325{\245[\217\232m\363"
 383      318BBDE5 
 383      D57BA55B 
 383      8F9A6DF3 
 384 009e 270C3140 		.ascii	"'\0141@j\\B\250!\\\242\017\034\2126\241v3\261\310\265"
 384      6A5C42A8 
 384      215CA20F 
 384      1C8A36A1 
 384      7633B1C8 
 385 00b3 D7EB1F3A 		.ascii	"\327\353\037:h\026M\343w\030\016D\310\223\373!_\210"
 385      68164DE3 
 385      77180E44 
 385      C893FB21 
 385      5F88
ARM GAS  /tmp/ccOPYu5Z.s 			page 30


 386 00c5 B55E186E 		.ascii	"\265^\030nm\256\374\350\343`Q`\035AA\025;8\014\032\002"
 386      6DAEFCE8 
 386      E3605160 
 386      1D414115 
 386      3B380C1A 
 387 00da 940E19E5 		.ascii	"\224\016\031\345R\3441E\262\034\361\310\350\034Pb\236"
 387      52E43145 
 387      B21CF1C8 
 387      E81C5062 
 387      9E
 388 00eb 4D813E1D 		.ascii	"M\201>\035*\244\241eL{\010\270\037\2551\2624\3548\012"
 388      2AA4A165 
 388      4C7B08B8 
 388      1FAD31B2 
 388      34EC380A 
 389 00ff DA64179A 		.ascii	"\332d\027\232n\312rsa}\007\311\214\200\312~$}\214\305"
 389      6ECA7273 
 389      617D07C9 
 389      8C80CA7E 
 389      247D8CC5 
 390 0113 1F4709A4 		.ascii	"\037G\011\244\244\374\004\315\356\322\313\323iO\353"
 390      A4FC04CD 
 390      EED2CBD3 
 390      694FEB
 391 0122 989F778F 		.ascii	"\230\237w\217W\361\011\021\005\"\274\214\232\312\242"
 391      57F10911 
 391      0522BC8C 
 391      9ACAA2
 392 0131 C5BB0FE0 		.ascii	"\305\273\017\340~\303\230\"\211r\015\372\346&{n=:\345"
 392      7EC39822 
 392      89720DFA 
 392      E6267B6E 
 392      3D3AE5
 393 0144 866EDC88 		.ascii	"\206n\334\210\352~\243\272U|J`\037\263#p\206&N\261Y"
 393      EA7EA3BA 
 393      557C4A60 
 393      1FB32370 
 393      86264EB1 
 394 0159 2AC4E936 		.ascii	"*\304\3516y\012\243>\317(\325B'\022\2347\002\3179\337"
 394      790AA33E 
 394      CF28D542 
 394      27129C37 
 394      02CF39DF 
 395 016d 4B91392A 		.ascii	"K\2219*\306H\031#q\027\362\372\202L\240y\037s\221\004"
 395      C6481923 
 395      7117F2FA 
 395      824CA079 
 395      1F739104 
 396 0181 5CBC0BC2 		.ascii	"\\\274\013\302\306\355Tt\012\260\001\332\306x,/\232"
 396      C6ED5474 
 396      0AB001DA 
 396      C6782C2F 
 396      9A
 397 0192 CDC742C0 		.ascii	"\315\307B\300GV!\005\364\270b\305\023\\.\342\367\346"
 397      47562105 
 397      F4B862C5 
 397      135C2EE2 
ARM GAS  /tmp/ccOPYu5Z.s 			page 31


 397      F7E6
 398 01a4 C6AF3BC7 		.ascii	"\306\257;\307\222F\205\224[!n\231\211Ex\017\255\255"
 398      92468594 
 398      5B216E99 
 398      8945780F 
 398      ADAD
 399 01b6 C6D9348F 		.ascii	"\306\3314\217\217\016l\337\305W\240Y\204@\"#?~?\314"
 399      8F0E6CDF 
 399      C557A059 
 399      84402223 
 399      3F7E3FCC 
 400 01ca 1D355F31 		.ascii	"\0355_1_\311\253\325\222\325\335G\365\337\202O$\020"
 400      5FC9ABD5 
 400      92D5DD47 
 400      F5DF824F 
 400      2410
 401 01dc 9DAA8D91 		.ascii	"\235\252\215\221\324j\217\324\377\000\234X\346\001\013"
 401      D46A8FD4 
 401      FF009C58 
 401      E6010B
 402 01eb 215E7AA7 		.ascii	"!^z\247\306\311\037v\003\034\213`\261\0346\212)\035"
 402      C6C91F76 
 402      031C8B60 
 402      B11C368A 
 402      291D
 403 01fd 0DB07802 		.ascii	"\015\260x\002\316=4K\027\003<\030?\230\210\334\240\240"
 403      CE3D344B 
 403      17033C18 
 403      3F9888DC 
 403      A0A0
 404 020f 377D08E0 		.ascii	"7}\010\340\0134z\375S\011\326\2561\032\241\225\341\322"
 404      0B347AFD 
 404      5309D6AE 
 404      311AA195 
 404      E1D2
 405 0221 47CAE5CA 		.ascii	"G\312\345\312\334\225\331\271\312\325`\252R\233\236"
 405      DC95D9B9 
 405      CAD560AA 
 405      529B9E
 406 0230 64BF5C03 		.ascii	"d\277\\\003\217\367\311\332\364Lyt\333=\257\352\263"
 406      8FF7C9DA 
 406      F44C7974 
 406      DB3DAFEA 
 406      B3
 407 0241 FE8C2C78 		.ascii	"\376\214,x\360\027\370y\330\354"
 407      F017F879 
 407      D8EC
 408              		.text
 409              		.section	.gnu.lto_test_emit_token.28ee5ae0fdd4774b,"",%progbits
 410 0000 789C8D52 		.ascii	"x\234\215R]H\024Q\024>\347\316\214+\376\220\020\004"
 410      5D481451 
 410      143EE7CE 
 410      8C2BFE90 
 410      1004
 411 0012 46AC8B20 		.ascii	"F\254\213 \006\325\216\365R\217\205O>\354\213?\364\363"
 411      06D58EF5 
 411      528F854F 
ARM GAS  /tmp/ccOPYu5Z.s 			page 32


 411      3EEC8B3F 
 411      F4F3
 412 0024 B28CD3E0 		.ascii	"\262\214\323\340\016\355\270\313\316*J\017\336\335\365"
 412      0EEDB8CB 
 412      CE2A4A0F 
 412      DEDDF5
 413 0033 21F02111 		.ascii	"!\360!\021\211\314D%\262\242(z\024\2046\250p3\227$\203"
 413      89CC4425 
 413      B2A2287A 
 413      148436A8 
 413      70339724 
 414 0048 208225E9 		.ascii	" \202%\351!z\222^$\242\355\334\235\335\031\377\310\356"
 414      217A925E 
 414      24A2EDDC 
 414      9DDD19FF 
 414      C8EE
 415 005a 70E79C7B 		.ascii	"p\347\234{\317\337w\356w\0300\330\275\316\320\316I\000"
 415      CFDF77EE 
 415      771830D8 
 415      BDCED0CE 
 415      4900
 416 006c 9F49A202 		.ascii	"\237I\242\002\310\306\363\000\251j\306\244u\025x\215"
 416      C8C6F300 
 416      A96AC6A4 
 416      7515788D 
 417 007c BCE4075E 		.ascii	"\274\344\007^'\241\354\\\313\210B\001\204\021&\3118"
 417      27A1EC5C 
 417      CB884201 
 417      841126C9 
 417      38
 418 008d 7219450E 		.ascii	"r\031E\016\326\014\363\234O\024^o\344\330\324dvt\216"
 418      D60CF39C 
 418      4F145E6F 
 418      E4D8D464 
 418      76748E
 419 00a0 FF2E1611 		.ascii	"\377.\026\021M\244z\215\010:\302%:`\240$\230\274\023"
 419      4DA47A8D 
 419      083AC225 
 419      3A60A024 
 419      98BC13
 420 00b3 80139B9D 		.ascii	"\200\023\233\235\315\337l|;\227\036\347\177(\264\024"
 420      CDDF6C7C 
 420      3B971EE7 
 420      7F28B414 
 421 00c3 D9B26FA4 		.ascii	"\331\262o\244\205^\3503\226-\024\213K\233\017\277N\341"
 421      855EE833 
 421      962D148B 
 421      4B9B0FBF 
 421      4EE1
 422 00d5 E13A1934 		.ascii	"\341:\0314\234\307fPH\336#\351C\013\205\263\002\243"
 422      9CC76650 
 422      48DE23E9 
 422      430B85B3 
 422      02A3
 423 00e7 9C8F0740 		.ascii	"\234\217\007@d\243\325M\177\321C\0172!\245\034\244\253"
 423      64A3D54D 
 423      7FD1430F 
ARM GAS  /tmp/ccOPYu5Z.s 			page 33


 423      3221A51C 
 423      A4AB
 424 00f9 2B280A1F 		.ascii	"+(\012\037\037\255\276\304\211\014_\346\243Y\302\321"
 424      1FADBEC4 
 424      890C5FE6 
 424      A359C2D1 
 425 0109 64A2C4E0 		.ascii	"d\242\304\340\312A-\210;\211\012@\036\322\233\313\231"
 425      CA412D88 
 425      3B890A40 
 425      1ED29BCB 
 425      99
 426 011a 85A36E49 		.ascii	"\205\243nIG\311>\3760-\035\327p\201P\271w?'\267j\217"
 426      47C93EFE 
 426      302D1DD7 
 426      708150B9 
 426      773F27B7 
 427 0130 B9A7C55B 		.ascii	"\271\247\305[_\016\271\207\2257\033\304\210\206\367"
 427      5F0EB987 
 427      95371BC4 
 427      8886F7
 428 013f 89101D45 		.ascii	"\211\020\035EuF[\242]*\214\364e\351HdJ\016\243~X\303"
 428      75465BA2 
 428      5D2A8CF4 
 428      65E94864 
 428      4A0EA37E 
 429 0155 197EFBBC 		.ascii	"\031~\373\274\3518\270x<\373z\331\2568\210W!\235\373"
 429      E938B878 
 429      3CFB7AD9 
 429      AE388857 
 429      219DFB
 430 0168 446C3935 		.ascii	"Dl95\372P\236\206;)\316\033\350\341\257\303/~ChU\316"
 430      FA509E86 
 430      3B29CE1B 
 430      E8E1AFC3 
 430      2F7E4368 
 431 017e 538B6455 		.ascii	"S\213dU\345F\227\341\325\267T\275\033\344\270\362\213"
 431      E54697E1 
 431      D5B754BD 
 431      1BE4B8F2 
 431      8B
 432 018f 14750A9E 		.ascii	"\024u\012\236pZ3\344\354\263\220\211\240\352\206=\303"
 432      705A33E4 
 432      ECB39089 
 432      A0EA863D 
 432      C3
 433 01a0 26560F21 		.ascii	"&V\017!_W\245U\310\214e^\334m\252$S(_\351m\321\201\327"
 433      5F57A555 
 433      C88C655E 
 433      DC6DAA24 
 433      53285FE9 
 434 01b8 E118FE07 		.ascii	"\341\030\376\007W\237\350\212BV\336\327l\017\342\265"
 434      579FE88A 
 434      4256DED7 
 434      6C0FE2B5 
 435 01c8 84A59C15 		.ascii	"\204\245\234\025\312\216\276\012\006y\037\356\277\347"
 435      CA8EBE0A 
 435      06791FEE 
ARM GAS  /tmp/ccOPYu5Z.s 			page 34


 435      BFE7
 436 01d6 7773AFE1 		.ascii	"ws\257\341\203\322\323\037H>\374\213\374\0373\202\374"
 436      83D2D31F 
 436      483EFC8B 
 436      FC1F3382 
 436      FC
 437 01e7 C59DE4CF 		.ascii	"\305\235\344\317\326\373\267\215\246;\005[\336\024\214"
 437      D6FBB78D 
 437      A63B055B 
 437      DE148C
 438 01f6 BDCB28DE 		.ascii	"\275\313(\336\024\210]jW\247&\366\016\202\206OIq\261"
 438      14885D6A 
 438      57A726F6 
 438      0E82864F 
 438      4971B1
 439 0209 5488D7F0 		.ascii	"T\210\327\3609\372\035\234k\220*L\265:\351*\253\233"
 439      39FA1D9C 
 439      6B902A4C 
 439      B53AE92A 
 439      AB9B
 440 021b 868BDE41 		.ascii	"\206\213\336A\270\036\011\006\325\244a'\325\250\331"
 440      B81E0906 
 440      D5A46127 
 440      D5A8D9
 441 022a ABEA91B0 		.ascii	"\253\352\221\260\320\203:\324\012\031N\306\256\305\203"
 441      D0833AD4 
 441      0A194EC6 
 441      AEC583
 442 0239 E7EA3CFD 		.ascii	"\347\352<\375t[+\371\307lU\217YV\254_\215\307\022I["
 442      745B2BF9 
 442      C76C558F 
 442      5956AC5F 
 442      8DC71249 
 443 024e BDD0196A 		.ascii	"\275\320\031j\017\015Q\264\036K\030\341\301\263V0\002"
 443      0F0D51B4 
 443      1E4B18E1 
 443      C1B35630 
 443      02
 444 025f CAA0161D 		.ascii	"\312\240\026\0350N\354\3606\206\222j{\250\253\243K5"
 444      304EECF0 
 444      3686926A 
 444      7BA8ABA3 
 444      4B35
 445 0271 FBF5E8C0 		.ascii	"\373\365\350\300UC\325-\333\264\303}\272N\021\215\216"
 445      5543D52D 
 445      DBB4C37D 
 445      BA4E118D 
 445      8E
 446 0282 6F22E959 		.ascii	"o\"\351Y#\366\260\355Y\"Z\224\004\375\310EH\2624\204"
 446      23F6B0ED 
 446      59225A94 
 446      04FDC845 
 446      48B23484 
 447 0296 BA3A03BD 		.ascii	"\272:\003\275\232m\304\023\346\311@K\033\260\004\370"
 447      9A6DC413 
 447      E6C9404B 
 447      1BB004F8 
ARM GAS  /tmp/ccOPYu5Z.s 			page 35


 448 02a6 2CC38A25 		.ascii	",\303\212%\206\341/\002&1+"
 448      86E12F02 
 448      26312B
 449              		.text
 450              		.section	.gnu.lto_test_emit_token_i.28ee5ae0fdd4774b,"",%progbits
 451 0000 789C8D52 		.ascii	"x\234\215R\277KBQ\024>\347\336\253\210\031\010A\340"
 451      BF4B4251 
 451      143EE7DE 
 451      AB881908 
 451      41E0
 452 0012 52E25053 		.ascii	"R\342PS\357a\375\025\355J5\211I\224\324\243 \267\006"
 452      EF61FD15 
 452      ED4A3589 
 452      4994D4A3 
 452      20B706
 453 0025 EF5383A0 		.ascii	"\357S\203\240!\211\206~ (\321&\326\326\322\340\320\220"
 453      2189867E 
 453      2028D126 
 453      D6D6D2E0 
 453      D090
 454 0037 4552E0D6 		.ascii	"ER\340\326\"A\0204\267D\364:\367]5\3731t\340\275\357"
 454      22411034 
 454      B744F43A 
 454      F75D35FB 
 454      3174E0BD 
 455 004c DC77CFF7 		.ascii	"\334w\317\367\235\357\034\036\003\006?c\222\236g\324"
 455      9DEF1C1E 
 455      03063F63 
 455      929E67D4 
 456 005c 881E4056 		.ascii	"\210\036@Vl\002\330>\306x\313\004\351\027\027# \003"
 456      6C02D83E 
 456      C678CB04 
 456      E9171723 
 456      2003
 457 006e 1C85FE2C 		.ascii	"\034\205\376,\020U\002\010Y\306\005f\347Pi\260\010T"
 457      10550208 
 457      59C60566 
 457      E75069B0 
 457      0854
 458 0080 A4DC6D6F 		.ascii	"\244\334mo\2764\330\301^\275P\226\357\216\203\230F\352"
 458      BE34D8C1 
 458      5EBD5096 
 458      EF8E8398 
 458      46EA
 459 0092 17424821 		.ascii	"\027BH!\314\322\001\303.0\361\335\200\346\326\037\232"
 459      CCD201C3 
 459      2E30F1DD 
 459      80E6D61F 
 459      9A
 460 00a3 3BA1EB72 		.ascii	";\241\353r\256(?\210\3522\307\376dZ\370E=e\365\266\343"
 460      AE283F88 
 460      EA32C7FE 
 460      645AF845 
 460      3D65F5B6 
 461 00b8 545FCF1E 		.ascii	"T_\317\036k8\344\343\220\304\012F@\020\036\023z\321"
 461      6B38E4E3 
 461      90C40A46 
ARM GAS  /tmp/ccOPYu5Z.s 			page 36


 461      40101E13 
 461      7AD1
 462 00ca 4255EC81 		.ascii	"BU\354\201\202\224\3050(5\212\030\275\325\014qd\012"
 462      8294C530 
 462      28358A18 
 462      BDD50C71 
 462      640A
 463 00dc F92DE41A 		.ascii	"\371-\344\032\373d<\211'4\377\"\362#8\264\245\014\222"
 463      FB643C89 
 463      2734FF22 
 463      F22338B4 
 463      A50C92
 464 00ef 870D7893 		.ascii	"\207\015x\223[*\343\272\2532\301;\275\257\340\362\311"
 464      5B2AE3BA 
 464      AB32C13B 
 464      BDAFE0F2 
 464      C9
 465 0100 1EEC9174 		.ascii	"\036\354\221t\251\234!\326\004T%E\211\212\205\205L\221"
 465      A99C21D6 
 465      04542545 
 465      898A8585 
 465      4C91
 466 0112 3CC15F7B 		.ascii	"<\301_{W\021'\265\226I\016\362\333\371\363\322hWL\220"
 466      571127B5 
 466      96490EF2 
 466      DBF9F3D2 
 466      68574C90 
 467 0126 9E3BAF6A 		.ascii	"\236;\257jJ\366\246\365\305\177|\021\331\245\334\334"
 467      4AF6A6F5 
 467      C57F7C11 
 467      D9A5DCDC 
 468 0136 F9FB4972 		.ascii	"\371\373Ir \335S\205N\241\267\353A\270k\270\007\273"
 468      20DD5385 
 468      4EA1B7EB 
 468      41B86BB8 
 468      07BB
 469 0148 5D1BD7A4 		.ascii	"]\033\327\244n\304h\177t\247~\232a\30303\013\353\031"
 469      6EC4687F 
 469      74A77E9A 
 469      61C33033 
 469      0BEB19
 470 015b 73253D6F 		.ascii	"s%=o\246\226\022*7R\020P\230\310\254.\257\031\321h\377"
 470      A696122A 
 470      37521050 
 470      98C8AC2E 
 470      AF19D168 
 471 0170 61EA13D5 		.ascii	"a\352\023\325e\210\272"
 471      6588BA
 472              		.text
 473              		.section	.gnu.lto_test_execute.28ee5ae0fdd4774b,"",%progbits
 474 0000 789CED9A 		.ascii	"x\234\355\232{|T\305\025\307\347\334\335$\233\007\004"
 474      7B7C54C5 
 474      15C7E7DC 
 474      DD249B07 
 474      04
 475 0011 42DE90CD 		.ascii	"B\336\220\315\222\000yo\262A\304F\213\026\025\025A\036"
 475      9200796F 
ARM GAS  /tmp/ccOPYu5Z.s 			page 37


 475      B241C446 
 475      8B161515 
 475      411E
 476 0023 491004C4 		.ascii	"I\020\004\304M\0107\213y IT@e!\001!\242\"\255\200\217"
 476      4D08378B 
 476      79204954 
 476      40652101 
 476      21A222AD 
 477 0039 AA088AE0 		.ascii	"\252\010\212\340GQ\243\002\002\222H\255P\212Vk[\005"
 477      4751A302 
 477      029248AD 
 477      508A566B 
 477      5B05
 478 004b FC34BE2A 		.ascii	"\3744\276*\366c\325*~>\325\366czf\316\334\273\367\356"
 478      F663D52A 
 478      7E3ED5F6 
 478      637A66CE 
 478      DCBBF7EE 
 479 005f BD4913FD 		.ascii	"\275I\023\375\247\177\230?v^\2773s\347\314\367\314\235"
 479      A77F983F 
 479      765EBF33 
 479      73E7CCF7 
 479      CC9D
 480 0071 9D8DC214 		.ascii	"\235\215\302\024\026\376W\211UW\0240\366$0\006c\031"
 480      16FE5789 
 480      55571430 
 480      F6243006 
 480      6319
 481 0083 281B5F67 		.ascii	"(\033_gl\225K\001'e\034\224\351r9\025\307\206\327\030"
 481      6C954B01 
 481      27651C94 
 481      E9723915 
 481      C786D718 
 482 0097 0BC644B4 		.ascii	"\013\306D\264E\261`\\\004D\221 \2222]\256(%\222\004"
 482      45B1605C 
 482      04449120 
 482      92325DAE 
 482      28259204 
 483 00ab 2E217041 		.ascii	".!pA\014\011\242)\323\345\212Q\242I\020+\004\261\220"
 483      0C09A229 
 483      D3E58A51 
 483      A249102B 
 483      04B190
 484 00be 4F823818 		.ascii	"O\2028\030L\231A\224\351r\015V\006\2212^(\343a(\011"
 484      4C994194 
 484      E9720D56 
 484      0691325E 
 484      28E36128 
 485 00d3 8650A6CB 		.ascii	"\206P\246\3135T\031B\202\004!H\200D\022\014\243L\227"
 485      35541942 
 485      82042148 
 485      8044120C 
 485      A34C97
 486 00e6 2B511946 		.ascii	"+Q\031F\202$!H\202\024\022$S\246\313\225\242$\223 U"
 486      82242148 
 486      82141224 
 486      53A6CB95 
ARM GAS  /tmp/ccOPYu5Z.s 			page 38


 486      A2249320 
 487 00fb 085295B4 		.ascii	"\010R\225\264\203\343\2614\346\355d,\245\301p\256\202"
 487      83E3B134 
 487      E6ED642C 
 487      A5C170AE 
 487      82
 488 010c 744ABB5C 		.ascii	"tJ\273\\\303\225tR\217\020\352\021\340\246\3562(\323"
 488      C3957452 
 488      8F10EA11 
 488      E0A6EE32 
 488      28D3
 489 011e E5722B19 		.ascii	"\345r+\031$\310\024\202L\030I\002\017e\272\\#\025\017"
 489      24C81482 
 489      4C184902 
 489      0F65BA5C 
 489      23150F
 490 0131 09B28420 		.ascii	"\011\262\204 \013F\221 \2332]\256QJ6\011F\013\301h\310"
 490      0B469120 
 490      9B325DAE 
 490      514A3609 
 490      460BC168 
 491 0146 21C1182D 		.ascii	"!\301\030-\223\003\271\244\314U\342H\231'\224y\344\307"
 491      9303B9A4 
 491      CC55E248 
 491      99279479 
 491      E4C7
 492 0158 2E57BE52 		.ascii	".W\276R@\365\205\242\276\200\364P\010^\352\240\2102"
 492      40F585A2 
 492      BE80F450 
 492      085EEAA0 
 492      8832
 493 016a 5D2EAF52 		.ascii	"].\257RD\302b!,VJ\016\272\261\344{\273\030K%PJr\237"
 493      44C26221 
 493      2C564A0E 
 493      BAB1E47B 
 493      BB184B25 
 494 0182 962905E0 		.ascii	"\226)\005\340\031\006l\245\342pFDF\271\242cb\343\006"
 494      19066CA5 
 494      E2704644 
 494      46B9A263 
 494      62E306
 495 0195 0D8E1F32 		.ascii	"\015\216\03724aXbRrJjZ\372\360\021\031\356L\317\310"
 495      34615862 
 495      52724A6A 
 495      5AFAF011 
 495      19EE4CCF 
 496 01aa ACEC51A3 		.ascii	"\254\354Q\243\307\344\344\346\345\027\024\026y\213K"
 496      C7E4E4E6 
 496      E5171416 
 496      798B4B
 497 01b9 7CA5B072 		.ascii	"|\245\260r\016p\314\334Yl[0\270\251{\315\343\3379\356"
 497      0E70CCDC 
 497      596C5B30 
 497      B8A97BCD 
 497      E3DF39EE 
 498 01cd FB5567DB 		.ascii	"\373Ug\333#\301\377\364\364\000\004\000\221L\003V\015"
 498      23C1FFF4 
ARM GAS  /tmp/ccOPYu5Z.s 			page 39


 498      F4000400 
 498      914C0356 
 498      0D
 499 01de 6C3616C0 		.ascii	"l6\026\300#\022\305if\224l;\017m\2723\245\275;\2701"
 499      2312C569 
 499      66946C3B 
 499      0F6DBA33 
 499      A5BD3BB8 
 500 01f3 F83D9A06 		.ascii	"\370=\232\006\300\2410w\310\322E\226`k\371\346\246\315"
 500      C0A13077 
 500      C8D24596 
 500      606BF9E6 
 500      A6CD
 501 0205 69ED8FAC 		.ascii	"i\355\217\254\326,qL_?\307\274\347\227\007\266Apmp\325"
 501      D62C714C 
 501      5F3FC7BC 
 501      E79707B6 
 501      41706D70 
 502 021a 973D3DF1 		.ascii	"\227==\361b\314\011\375\032sc\347}o\034\207\340&\315"
 502      62CC09FD 
 502      1A7363E7 
 502      7D6F1C87 
 502      E026CD
 503 022d D0A9B099 		.ascii	"\320\251\260\231\375\032rc\360\205\205G\203m\235==\027"
 503      FD1A7263 
 503      F0858547 
 503      836D9D3D 
 503      3D17
 504 023f 0AAB8A7E 		.ascii	"\012\253\212~>\350\026\323p\021\012\233\325O\303\375"
 504      3EE816D3 
 504      70110A9B 
 504      D54FC3FD 
 505 024f C77FB7CD 		.ascii	"\307\177\267\315`\031\251\260\271?lH?<\015\312\017\033"
 505      6019A9B0 
 505      B93F6C48 
 505      3F3C0DCA 
 505      0F1B
 506 0261 D30FCFF4 		.ascii	"\323\017\317\364\327\364\247A\177\032\364\247A\177\032"
 506      D7F4A741 
 506      7F1AF4A7 
 506      417F1A
 507 0270 F4FF60D0 		.ascii	"\364\377`\320=JgwO\317\301o\237\370\360$$>\001\300\374"
 507      3D4A6777 
 507      4FCFC16F 
 507      9FF8F024 
 507      243E01C0 
 508 0285 B00BB2F0 		.ascii	"\260\013\262\360\345\342\207'1uA=\260d\026\200\250\024"
 508      E5E28727 
 508      3175413D 
 508      B0641680 
 508      A814
 509 0297 FE918AD5 		.ascii	"\376\221\212\325\333\260:\015\013,\235\327\014\307\017"
 509      DBB03A0D 
 509      0B2C9DD7 
 509      0CC70F
 510 02a6 971B3F9C 		.ascii	"\227\033?\234\231\370\021\235\305s\331<7\206\267\346"
 510      99F8119D 
ARM GAS  /tmp/ccOPYu5Z.s 			page 40


 510      C573D93C 
 510      3786B7E6 
 511 02b6 A0FE10EA 		.ascii	"\240\376\020\352sy!\217K\363\261\346\000\326xyM\261"
 511      7379218F 
 511      4BF3B1E6 
 511      00D67879 
 511      4DB1
 512 02c8 1CA58417 		.ascii	"\034\245\204\027|\274y,\326l\307\232q\230>\206i\031"
 512      7CBC792C 
 512      D66CC79A 
 512      71983E86 
 512      6919
 513 02da A647309D 		.ascii	"\246G0\235 \237k\"\246;1\275T\246\223\320(\3462,\354"
 513      209F6B22 
 513      A63B31BD 
 513      54A693D0 
 513      28E6322C 
 514 02ef C1C2E558 		.ascii	"\301\302\345X\210\275\002?\342&c\315SXs\245L\247`\345"
 514      88BD023F 
 514      E22663CD 
 514      535873A5 
 514      4CA760E5 
 515 0303 A0A95878 		.ascii	"\240\251Xx\016\013Wq\3314.\233\2165\317b\315\014\231"
 515      0E0B5771 
 515      D9342E9B 
 515      8E35CF62 
 515      CD0C99
 516 0316 CEE4B272 		.ascii	"\316\344\262r,<\217\205\012.\253\344\262YX\323\2015"
 516      2C3C8F85 
 516      0A2EABE4 
 516      B25958D3 
 516      8135
 517 0328 57CB7436 		.ascii	"W\313t6\227\315\301\302\213X\270\206\313\346r\331<\254"
 517      97CDC1C2 
 517      8B58B886 
 517      CBE672D9 
 517      3CAC
 518 033a 79016BE6 		.ascii	"y\001k\346\313\364Z.[\200\205}X\270\216\313\374\\V\205"
 518      CBF45A2E 
 518      5B80857D 
 518      58B88ECB 
 518      FC5C5685 
 519 034e 357BB1A6 		.ascii	"5{\261\246Z\246\013\271\254\006\013/aa\021\227\251\\"
 519      5AA60BB9 
 519      AC060B2F 
 519      61611197 
 519      A95C
 520 0360 568B35FB 		.ascii	"V\2135\373\261& \323\305\\v=\026\016b\241\216\313\352"
 520      B12620D3 
 520      C55C763D 
 520      160E62A1 
 520      8ECBEA
 521 0373 B9AC41FA 		.ascii	"\271\254A\372\263Q\246K\270\354\006,\274\214\205\245"
 521      B351A64B 
 521      B8EC062C 
 521      BC8C85A5 
 522 0383 5CD6C465 		.ascii	"\\\326\304e\315r!Zdz#\227\335\204\205N,\334\314e\313"
ARM GAS  /tmp/ccOPYu5Z.s 			page 41


 522      CD72215A 
 522      647A2397 
 522      DD84854E 
 522      2CDCCC65 
 523 0398 B86C39D6 		.ascii	"\270l9\326\034\306\232\0252\275\205\313n\305\302+X\270"
 523      1CC69A15 
 523      32BD85CB 
 523      6EC5C22B 
 523      58B8
 524 03aa 8DCB5672 		.ascii	"\215\313VrY\220c\322\205U\253\264\314j\340\312V^\374"
 524      599063D2 
 524      8555ABB4 
 524      CC6AE0CA 
 524      565EFC
 525 03bd 0D16DB78 		.ascii	"\015\026\333x1v\015\377\214[\013r\015o\3272\353\204"
 525      31760DFF 
 525      8C5B0B72 
 525      0D6FD732 
 525      EB84
 526 03cf 783D2FFE 		.ascii	"x=/\376\026\213\355B|\207\020o\340\225\257b\345\235"
 526      168BED42 
 526      7C87106F 
 526      E095AF62 
 526      E59D
 527 03e1 5AE62E21 		.ascii	"Z\346.!FR#X\033\236,<\304\001q\3038\334\370\207\347"
 527      46522358 
 527      1B9E2C3C 
 527      C40171C3 
 527      38DCF887 
 528 03f6 0B16CD2A 		.ascii	"\013\026\315*\021\366h\307\011\266\372\370;_\277\017"
 528      11F668C7 
 528      09B6FAF8 
 528      3B5FBF0F 
 529 0406 7E780D22 		.ascii	"~x\015\"\330\003\354\376U\301\340\020\014\206\025\354"
 529      D803ECFE 
 529      55C1E010 
 529      0C8615EC 
 530 0416 BBE03A9E 		.ascii	"\273\340:\236\033\\\017\334\210\007\303`\021\002*\236"
 530      1B5C0FDC 
 530      8807C360 
 530      11022A9E 
 531 0426 81D81BAC 		.ascii	"\201\330\033\254\255\373\215O\242\310\2121]\035_\015"
 531      ADFB8D4F 
 531      A2C88A31 
 531      5D1D5F0D 
 532 0436 7434E235 		.ascii	"t4\3425[\203\301\031\001\030\342f\213~\035\334zQ\000"
 532      5B83C119 
 532      0118E266 
 532      8B7E1DDC 
 532      7A5100
 533 0449 8632A90F 		.ascii	"\2062\251\017@\002u\361n\377\272\030\346f\265\324E\242"
 533      400275F1 
 533      6EFFBA18 
 533      E666B5D4 
 533      45A2
 534 045b A58BF7FA 		.ascii	"\245\213\367\372\327E\222\233\265\002\365\221l\352\343"
 534      D745929B 
ARM GAS  /tmp/ccOPYu5Z.s 			page 42


 534      B502F591 
 534      6CEAE3
 535 046a 185BDD99 		.ascii	"\030[\335\231I\025\004?\331t\036\272\033\367\204\024"
 535      4915043F 
 535      D9741EBA 
 535      1BF78414 
 536 047a 377A9FAC 		.ascii	"7z\237\254R5+\372\253\004\007{\227q\367\035\333\272"
 536      52352BFA 
 536      AB04077B 
 536      9771F71D 
 536      DBBA
 537 048c 374F3A5B 		.ascii	"7O:[\363z\360\337\017ePgLZU\203B\276\273\254?.f\014"
 537      F37AF0DF 
 537      0F655067 
 537      4C5A5583 
 537      42BEBBAC 
 538 04a4 FB3D89FD 		.ascii	"\373=\211\375\372\341Oh\254\302\345\005,\037\027]\267"
 538      FAE14F68 
 538      ACC2E505 
 538      2C1F175D 
 538      B7
 539 04b5 4DC38EB8 		.ascii	"M\303\216\270<R\210\253@\214\363gz:4\275F\263\303oy"
 539      3C5288AB 
 539      408CF367 
 539      7A3A34BD 
 539      46B3C36F 
 540 04ca BBB93E5D 		.ascii	"\273\271>]\267\034\216\235q\313Xi\011&\313\326;\034"
 540      B71C8E9D 
 540      71CB5869 
 540      0926CBD6 
 540      3B1C
 541 04dc 9AE9952A 		.ascii	"\232\351\225*L\326\217\272\307\230B\3654+l\345\316\217"
 541      4CD68FBA 
 541      C79842F5 
 541      342B6CE5 
 541      CE8F
 542 04ee A03A3EAD 		.ascii	"\240:>\255+\304\334T\230\022\200\021\232\203\234\354"
 542      2BC4DC54 
 542      98128011 
 542      9A839CEC 
 543 04fe 03E640F7 		.ascii	"\003\346@\367\272\230n6Y<\336Kk\276\330\234\256\215"
 543      BA986E36 
 543      593CDE4B 
 543      6BBED89C 
 543      AE8D
 544 0510 33457FB4 		.ascii	"3E\177\264\0149\242\346\343\243\254\355\263Ucu\035o"
 544      0C39A2E6 
 544      E3A3ACED 
 544      B3556375 
 544      1D6F
 545 0522 728776E2 		.ascii	"r\207v\342w\331d\323J\371\341ml\226k\244\000>\242\343"
 545      77D964D3 
 545      4AF9E16D 
 545      6C966BA4 
 545      003EA2E3 
 546 0536 F7A712F9 		.ascii	"\367\247\022\371sD \346\234\224\277\366\203\024G\000"
 546      734420E6 
ARM GAS  /tmp/ccOPYu5Z.s 			page 43


 546      9C94BFF6 
 546      83144700 
 547 0546 32DDEC41 		.ascii	"2\335\354A\271\346\236\336Iy6D\312\037%)\317\367FJd"
 547      B9E69EDE 
 547      49793644 
 547      CA1F2529 
 547      CFF7464A 
 548 055b 1FA4EC7C 		.ascii	"\037\244\354|8\203:\263\2202u\200\244|$\334t\225\225"
 548      38833AB3 
 548      90327580 
 548      A47C24DC 
 548      749595
 549 056e 94A91652 		.ascii	"\224\251\026R>6\222Bv\323\354H\271\312B\312\307&R\310"
 549      3E369242 
 549      76D3EC48 
 549      B9CA42CA 
 549      C72652C8 
 550 0582 74860AD3 		.ascii	"t\206\012\323\315\244|\244\273\010[%)\037IR\246\211"
 550      CDA47CA4 
 550      BB085B25 
 550      291F4952 
 550      A689
 551 0594 B9A930D3 		.ascii	"\271\2510\323@J\224\221\0242\233n$\205\306\231i$e\272"
 551      404A9491 
 551      14329B6E 
 551      2485C699 
 551      692465BA 
 552 05a8 1D295267 		.ascii	"\035)Rg!e\272i\245\374\360a\210\224\010$eF\244$\305"
 552      2165BA69 
 552      A5FCF061 
 552      88940824 
 552      6546A424 
 553 05bd 2549F97B 		.ascii	"%I\371{\377\366\224\221nvT\256yV\357\244t\204H9%I\371"
 553      FFF69491 
 553      6E7654AE 
 553      7956EFA4 
 553      74844839 
 554 05d4 476FA444 		.ascii	"Go\244D\367A\312^NJ\207\035)\345\003$\345k\341\246\012"
 554      F741CA5E 
 554      4E4A871D 
 554      29E50324 
 554      E56BE1A6 
 555 05e9 2B29E516 		.ascii	"+)\345\026R\316\032I!\273J;R*,\244\2345\221B\246W\253"
 555      52CE1A49 
 555      21BB4A3B 
 555      522A2CA4 
 555      9C359142 
 556 0600 30CB4CCA 		.ascii	"0\313L\312\327\272\213\260U\222\362\265$\245R\314M\205"
 556      D7BA8BB0 
 556      5592F2B5 
 556      24A552CC 
 556      4D85
 557 0612 D9065262 		.ascii	"\331\006Rb\214\244\220\331,#)4\316l#)\263\354H\221:"
 557      8CA490D9 
 557      2C232934 
 557      CE6C2329 
 557      B3EC4891 
ARM GAS  /tmp/ccOPYu5Z.s 			page 44


 558 0627 0B29B34C 		.ascii	"\013)\263L+\345\207\257B\244\270\220\224\253\243%)\261"
 558      2BE587AF 
 558      42A4B890 
 558      94ABA325 
 558      29B1
 559 0639 9294CFFB 		.ascii	"\222\224\317\373GJ\266\233\255Rh\315G\205\275\301Z\273"
 559      474AB69B 
 559      AD5268CD 
 559      4785BDC1 
 559      5ABB
 560 064b BF552D5D 		.ascii	"\277U-]\214\256\306\327\013\377\013\300\030z\315\375"
 560      8CAEC6D7 
 560      0BFF0BC0 
 560      187ACDFD 
 561 065b FBC7BD6C 		.ascii	"\373\307\275l\321C\373\366\365\274\257\204\275\346\035"
 561      D143FBF6 
 561      F5BCAF84 
 561      BDE61D
 562 066a 7A5F39F5 		.ascii	"z_9\365\202&\356\220\034\321'\317\211g@ow\177\277\023"
 562      8226EE90 
 562      1CD127CF 
 562      8967406F 
 562      777FBF13 
 563 067e 349CF971 		.ascii	"4\234\371q\202\267\351\007\343J\210cmQ\016>\223\366"
 563      82B7E907 
 563      E34A8863 
 563      6D510E3E 
 563      93F6
 564 0690 5D317653 		.ascii	"]1vSq\206\246\"\026\235:z!\024\027[6%\005 \327\315\266"
 564      7186A622 
 564      169D3A7A 
 564      2114175B 
 564      36250520 
 565 06a7 481FE585 		.ascii	"H\037\345\205\307\305 \266\341\265^\003c\317\216<\352"
 565      C7C520B6 
 565      E1B55E03 
 565      63CF8E3C 
 565      EA
 566 06b8 CD121873 		.ascii	"\315\022\030s\006\030\030\353\025N\3055\326\300\230"
 566      061818EB 
 566      154EC535 
 566      D6C098
 567 06c7 63098C76 		.ascii	"c\011\214v\305\020\030d7\327.0\256\261\004\206n)\002"
 567      C5101864 
 567      37D72E30 
 567      AEB10486 
 567      6E2902
 568 06da 834CE7AB 		.ascii	"\203L\347\2530\317\034\030\274\236f\205\25520\326+\024"
 568      30CF1C18 
 568      BC9E6685 
 568      AD3230D6 
 568      2B14
 569 06ec 1873C5DC 		.ascii	"\030s\305\334T\270\326\020\030\203\331\306\327C\221"
 569      54B8D610 
 569      1883D9C6 
 569      D74391
 570 06fb 4176F38C 		.ascii	"Av\363\214\221A\003]k\214\214yv\221!u\226\310\230gZ"
ARM GAS  /tmp/ccOPYu5Z.s 			page 45


 570      9141035D 
 570      6B8C8C79 
 570      76912175 
 570      96C89867 
 571 0710 2B3FAC53 		.ascii	"+?\254S\364\310\210\303\310\230?HFF<\207\001'\267\256"
 571      F4C888C3 
 571      C8983F48 
 571      46463C87 
 571      0127B7AE 
 572 0724 B5634711 		.ascii	"\265cG\021\011Tp\253\000\002\032 \237}\336\272\033\264"
 572      095470AB 
 572      00021A20 
 572      9F7DDEBA 
 572      1BB4
 573 0736 B64C950F 		.ascii	"\266L\225\017\364\006sZ\320\311\257\226O\207\242\000"
 573      F406735A 
 573      D0C9AF96 
 573      4F87A200 
 574 0746 1498E8D9 		.ascii	"\024\230\350\331\033\242\347\376\204\000\024\272\331"
 574      1BA2E7FE 
 574      840014BA 
 574      D9
 575 0753 4E094F51 		.ascii	"N\011OQ8<C\372\202g/\207g\257\035<\013\006\010\317f"
 575      383C43FA 
 575      82672F87 
 575      67AF1D3C 
 575      0B0608CF 
 576 0768 E1B8EBAC 		.ascii	"\341\270\353\254\360,\260\300\263\305\010\017\331\371"
 576      F02CB0C0 
 576      B3C5080F 
 576      D9F9
 577 0776 EDE0B9CE 		.ascii	"\355\340\271\316\002\317\026\023<dZ\255B\225\031\236"
 577      02CF1613 
 577      3C645AAD 
 577      4295199E 
 578 0786 CD8AE622 		.ascii	"\315\212\346\"l\225\360l\226\360\370\305\334TXh\200"
 578      6C95F06C 
 578      96F0F8C5 
 578      DC545868 
 578      80
 579 0797 67A8091E 		.ascii	"g\250\011\036\262\2532\302C\003-4\302Se\007\217\324"
 579      B2AB32C2 
 579      43032D34 
 579      C2536507 
 579      8FD4
 580 07a9 59E0A992 		.ascii	"Y\340\251\222K\365\000\207\247\320\017\367\206\340\211"
 580      4BF50087 
 580      A7D00FF7 
 580      86E089
 581 07b8 4778AA87 		.ascii	"Gx\252\207Hx\022tx\016\204\340\311RA\351\015\236l\225"
 581      48781274 
 581      780E84E0 
 581      C95241E9 
 581      0D9E6C95 
 582 07cc 2FDDFF80 		.ascii	"/\335\377\200"
 583 07d0 273B1C9E 		.ascii	"';\034\236\375!x\036Bx\274n\266[\302S\034\016\317\260"
 583      FD21781E 
ARM GAS  /tmp/ccOPYu5Z.s 			page 46


 583      4278BC6E 
 583      B65BC253 
 583      1C0ECFB0 
 584 07e4 BEE039CC 		.ascii	"\276\3409\314\341\331o\007O\315\000\341\331.\034\267"
 584      E1D96F07 
 584      4FCD00E1 
 584      D92E1CB7 
 585 07f4 C80A4F8D 		.ascii	"\310\012O\215\005\236\035Fx\310N\265\203g\221\005\236"
 585      059E1D46 
 585      78C84EB5 
 585      83679105 
 585      9E
 586 0805 1D2678C8 		.ascii	"\035&x\3104\240B\255\031\236\355\212\346\"l\225\360"
 586      34A042AD 
 586      199EED8A 
 586      E6226C95 
 586      F0
 587 0816 6C97F0A8 		.ascii	"l\227\360\250bn*,6\300\223h\202\207\354j\215\360\320"
 587      626E2A2C 
 587      36C09368 
 587      8287EC6A 
 587      8DF0D0
 588 0829 408B8DF0 		.ascii	"@\213\215\360\324\332\301#u\026xj\345R=\314\341\361"
 588      D4DAC123 
 588      7516786A 
 588      E5523DCC 
 588      E1F1
 589 083b FAE1D110 		.ascii	"\372\341\321\020<\011\010O`\230\204'\211\340Y}z\353"
 589      3C09084F 
 589      60988427 
 589      89E0597D 
 589      7AEB
 590 084d E31F3834 		.ascii	"\343\03784@\306\024\261\302\000D\351\203\227\350\313"
 590      40C614B1 
 590      C20044E9 
 590      8397E8CB 
 591 085d E1AB17EF 		.ascii	"\341\253\027\3577>\234O\202\022\272\325\347>j\375^\307"
 591      373E9C4F 
 591      8212BAD5 
 591      E73E6AFD 
 591      5EC7
 592 086f 2C173B52 		.ascii	",\027;R!\215f\025\241\325\346a\257h]\212\355\274\227"
 592      218D6615 
 592      A1D5E661 
 592      AF685D8A 
 592      EDBC97
 593 0882 28C3A23E 		.ascii	"(\303\242>\023\243\211\362\345\332\214\245G\010\336"
 593      13A389F2 
 593      E5DA8CA5 
 593      4708DE
 594 0891 8BCA73D0 		.ascii	"\213\312s\320\226[\224\312\325\321~\242\343\347\306"
 594      965B94CA 
 594      D5D17EA2 
 594      E3E7C6
 595 08a0 3C0DD203 		.ascii	"<\015\322\003\302\223\371\232\233\223\373\002\361C\016"
 595      C293F99A 
 595      9B93FB02 
ARM GAS  /tmp/ccOPYu5Z.s 			page 47


 595      F1430E
 596 08af E2013B10 		.ascii	"\342\001;\020\257\037 \210\035b\021\352\254 ^o\001\361"
 596      AF1F2088 
 596      1D6211EA 
 596      AC205E6F 
 596      01F1
 597 08c1 79238864 		.ascii	"y#\210dWo\007b\235\005\304\347M \222i\243\012\015f\020"
 597      576F0762 
 597      9D05C4E7 
 597      4D209269 
 597      A30A0D66 
 598 08d6 3B94901B 		.ascii	";\224\220\033\032%\210\035\022\304z17\025\226\030@L"
 598      1A25881D 
 598      12C47A31 
 598      37159618 
 598      404C
 599 08e8 31814876 		.ascii	"1\201Hv\015F\020i\240%F\020\033\354@\224:\013\210\015"
 599      0D461069 
 599      A0254610 
 599      1BEC4094 
 599      3A0B880D 
 600 08fc B81C4948 		.ascii	"\270\034IH\\c\262$.\225\016>m\335\367}j=\370\204\237"
 600      5C63B224 
 600      2E950E3E 
 600      6DDDF77D 
 600      6A3DF884 
 601 0911 CEE688B7 		.ascii	"\316\346\210\267\324\323\341o)\375\013C\001U\350\327"
 601      D4D3E16F 
 601      29FD0B43 
 601      0155E8D7 
 602 0921 9A4720D8 		.ascii	"\232G \330\256\335M\216S\330\263J\350'\232!t7\031\366"
 602      AEDD4D8E 
 602      53D8B34A 
 602      E8279A21 
 602      743719F6 
 603 0935 CB2EAF3B 		.ascii	"\313.\257;\367(\037\023\037\351\313\317w=wgF\030'\235"
 603      F7281F13 
 603      1FE9CBCF 
 603      773D7767 
 603      4618279D 
 604 0949 C74F34FB 		.ascii	"\307O4\373\341\260b\344\204\2264\364\330\343\253\001"
 604      E1B062E4 
 604      849634F4 
 604      D8E3AB01 
 605 0959 4F9AAFD0 		.ascii	"O\232\257\320\012i]\006\340<\341\310\323\373v~\245\207"
 605      0A695D06 
 605      E03CE1C8 
 605      D3FB767E 
 605      A587
 606 096b 96F74784 		.ascii	"\226\367G\204\326\343\212\326K\011v\244\207\326\232"
 606      D6E38AD6 
 606      4B0976A4 
 606      87D69A
 607 097a A7F590F3 		.ascii	"\247\365\220\363\351\301Ub\014.\273\255\376g\325\374"
 607      E9C15562 
 607      0C2EBBAD 
 607      FE67D5FC 
ARM GAS  /tmp/ccOPYu5Z.s 			page 48


 608 098a 4A4A0CE3 		.ascii	"JJ\014\343\013@\231\350\352\330;;\337\322\373\032k\177"
 608      0B4099E8 
 608      EAD83B3B 
 608      DFD2FB1A 
 608      6B7F
 609 099c E07532E3 		.ascii	"\340u2\343\201\227\326?d\243\037\200\265\277J|\312\036"
 609      8197D63F 
 609      64A31F80 
 609      B5BF4A7C 
 609      CA1E
 610 09ae A7839390 		.ascii	"\247\203\223\220#\267\244\303\233\222\305\205\301\037"
 610      23B7A4C3 
 610      9B92C585 
 610      C11F
 611 09bc 94B00B83 		.ascii	"\224\260\013\203T\340\372tv\250\264\267\220\355\331"
 611      54E0FA74 
 611      76A8B4B7 
 611      90EDD9
 612 09cb 5140778B 		.ascii	"Q@w\213\226\220\275a\200!{B\340\272\324\032\2627XB\366"
 612      9690BD61 
 612      80217B42 
 612      E0BAD41A 
 612      B2375842 
 613 09e0 7563C892 		.ascii	"uc\310\222]\223]\310.\265\204\354\353\246\220%\323\026"
 613      5D935DC8 
 613      2EB584EC 
 613      EBA69025 
 613      D316
 614 09f2 159ACD21 		.ascii	"\025\232\315!{B\204\354!\021z-2dO\310\220m\022sS\341"
 614      7B4284EC 
 614      21117A2D 
 614      32644FC8 
 614      906D1273 
 615 0a08 4643C80E 		.ascii	"FC\310\016g\007\307\203\026\261d\326l\214X\032\347F"
 615      6707C783 
 615      16B164D6 
 615      6C8C581A 
 615      E746
 616 0a1a 63C436DB 		.ascii	"c\3046\333E\254\324Y\"\266Y\205\2344\214\330\226t\031"
 616      45ACD459 
 616      22B65985 
 616      9C348CD8 
 616      967419
 617 0a2d B123F80A 		.ascii	"\261#\370\012\212\025\331\375\201\216\3408\275\377\020"
 617      8A15D9FD 
 617      818EE038 
 617      BDFF10
 618 0a3c 53E7D78B 		.ascii	"S\347\327\213Ax\217\347\367\201\236\341\2241.\374\224"
 618      41788FE7 
 618      F7819EE1 
 618      94312EFC 
 618      94
 619 0a4d 713874CA 		.ascii	"q8t\312x\213N\031gz;ed\364\001\312\316\307\012\250/"
 619      788B4E19 
 619      677A3B65 
 619      64F401CA 
 619      CEC70AA8 
ARM GAS  /tmp/ccOPYu5Z.s 			page 49


 620 0a62 0B28370D 		.ascii	"\013(7\015\020\224S\302K7[A\271\311\002\312i#(d\267"
 620      109453C2 
 620      4B375B41 
 620      B9C902CA 
 620      69232864 
 621 0a77 CC0E949B 		.ascii	"\314\016\224\233-\240\2346\201B\246+TXn\006\345\224"
 621      2DA09C36 
 621      8142A62B 
 621      54586E06 
 621      E594
 622 0a89 A279085B 		.ascii	"\242y\010[%(\247$(\313\304\334T\270\305\000\212\033"
 622      2528A724 
 622      28CBC4DC 
 622      54B8C500 
 622      8A1B
 623 0a9b 41D1B776 		.ascii	"A\321\267v2[n\004\205\306\271\305\010\312r;P\244\316"
 623      325B6E04 
 623      85C6B9C5 
 623      08CA723B 
 623      50A4CE
 624 0aae 02CA72ED 		.ascii	"\002\312r\355\206\210\0074\2361N\206\316\030#\220\237"
 624      86880734 
 624      9E314E86 
 624      CE182390 
 624      9F
 625 0abf 1519929F 		.ascii	"\025\031\222\237L\316\017\377\252\273{W\254\335W\335"
 625      4CCE0FFF 
 625      AABB7B57 
 625      ACDD57DD 
 626 0acf 68D15FF8 		.ascii	"h\321_\370W\335\256\020\011\177\341\003$\271\331gJ\330"
 626      57DDAE10 
 626      097FE103 
 626      24B9D967 
 626      4AD8
 627 0ae1 65B43653 		.ascii	"e\2646SO\037(\354\341(t\331\241p\353\000Q8#\374p\233"
 627      4F1F28EC 
 627      E12874D9 
 627      A170EB00 
 627      513823FC 
 628 0af7 15855B2D 		.ascii	"\025\205[-(|jD\201\354V\332\241p\233\005\205OM(\220"
 628      287C6A44 
 628      81EC56DA 
 628      A1709B05 
 628      854F4D28 
 629 0b0c E92AF466 		.ascii	"\351*\364f\020\3140\234Q4'\361vI\303\031I\303J1=\025"
 629      10CC309C 
 629      513427F1 
 629      7649C319 
 629      49C34A31 
 630 0b22 56830187 		.ascii	"V\203\001\207\221F\034\3100\010F\036h\260\325`\004\202"
 630      91461CC8 
 630      3008461E 
 630      68B0D560 
 630      0482
 631 0b34 860D2742 		.ascii	"\206\015'BSZ\220\010\202i\311\374\360I\210\211L\340"
 631      535A9008 
 631      8269C9FC 
ARM GAS  /tmp/ccOPYu5Z.s 			page 50


 631      F0498889 
 631      4CE0
 632 0b46 4FEA9150 		.ascii	"O\352\221Pd\351\233\312\223'\365M\245L\037:B_\221\013"
 632      64E99BCA 
 632      9327F54D 
 632      A54C1F3A 
 632      425F910B 
 633 0b5a EA856BF9 		.ascii	"\352\205k\371P\027\310q\014\224\034\021\363(\323\346"
 633      5017C871 
 633      0C941C11 
 633      F328D3E6 
 634 0b6a 98DD0708 		.ascii	"\230\335\007\010\035\034\204#v \264\302\000I8+\346\337"
 634      1D1C8423 
 634      7620B4C2 
 634      0049382B 
 634      E6DF
 635 0b7c 0656145A 		.ascii	"\006V\024Z\301\302\3027F\026\310r\015\330\301\320\006"
 635      C1C2C237 
 635      4616C872 
 635      0DD8C1D0 
 635      06
 636 0b8d 161ABE31 		.ascii	"\026\032\2761\321@\306\267\243\037\327\206\321pV\011"
 636      D140C6B7 
 636      A31FD786 
 636      D1705609 
 637 0b9d 39E3768D 		.ascii	"9\343v\215\206\263\222\2065@\223Ta\235\221\207QF\036"
 637      86B39286 
 637      35409354 
 637      619D9187 
 637      51461E
 638 0bb0 C874AD89 		.ascii	"\310t\255\211\007\032n\235\211\207\265\266<hJ\013\017"
 638      071A6E9D 
 638      8987B5B6 
 638      3C684A0B 
 638      0F
 639 0bc1 6B71D0B2 		.ascii	"kq\320\262,\340\017\225-\027~4\355\006m\335O\331\354"
 639      2CE00F95 
 639      2D177E34 
 639      ED066DDD 
 639      4FD9EC
 640 0bd4 06E1E7BF 		.ascii	"\006\341\347\277\371\342\025\360\317\360W\2008\377\321"
 640      F9E215F0 
 640      CFF05780 
 640      38FFD1
 641 0be3 2CC6B035 		.ascii	",\306\2605\212\350n_\377\272\373\271\233}#\273\233`"
 641      8AE86E5F 
 641      FFBAFBB9 
 641      9B7D23BB 
 641      9B60
 642 0bf5 D35D0E3F 		.ascii	"\323]\016?\235\362\333\273\375\353#5\306\236\024\276"
 642      9DF2DBBB 
 642      FDEB2335 
 642      C69E14BE 
 643 0c05 C9D224B9 		.ascii	"\311\322$\271\354\275(\375\375Km\212<\350=\372\225\216"
 643      ECBD28FD 
 643      FD4B6D8A 
 643      3CE83DFA 
ARM GAS  /tmp/ccOPYu5Z.s 			page 51


 643      958E
 644 0c17 72CA0F3D 		.ascii	"r\312\017=\350\341W\365\277\351\007\252T\331wk\273~"
 644      E8E157F5 
 644      BFE907AA 
 644      54D9776B 
 644      BB7E
 645 0c29 8244C852 		.ascii	"\202D\310R\271-s\206\300\240\226t\034\325\372\205k\270"
 645      B92D7386 
 645      C0A09674 
 645      1CD5FA85 
 645      6BB8
 646 0c3b 7E264C37 		.ascii	"~&L7\236\011\305\322\215\327E\241oVr\345\024\025\212"
 646      9E09C5D2 
 646      8DD745A1 
 646      6F5672E5 
 646      14158A
 647 0c4e 0B70E1B2 		.ascii	"\013p\341\262r\036\334\342\347\323\316\243k\366\326"
 647      721EDCE2 
 647      E7D3CEA3 
 647      6BF6D6
 648 0c5d 75AD5F3C 		.ascii	"u\255_<\026\251\331M0\336Q\031\302r\227p\313\004\315"
 648      16A9D94D 
 648      30DE5119 
 648      C2729770 
 648      CB04CD
 649 0c70 65F9C61B 		.ascii	"e\371\306\033hj#\322N\377K\277_U!\371\207\271L\203P"
 649      686A23D2 
 649      4EFF4BBF 
 649      5F5521F9 
 649      87B94C83 
 650 0c85 76629CA4 		.ascii	"vb\234\244\230\011\310\233\327\330\317z\022\361\231"
 650      9809C89B 
 650      D7D8CF7A 
 650      12F199
 651 0c94 F20E6E49 		.ascii	"\362\016nI\343\317T\300\347\303\333\213e{\376\206{2"
 651      E3CF54C0 
 651      E7C3DB8B 
 651      657BFE86 
 651      7B32
 652 0ca6 7843A1B8 		.ascii	"xC\241\270\246n\355>\264\313z{l\276\230\345\330\275"
 652      A66EED3E 
 652      B4CB7A7B 
 652      6CBE98E5 
 652      D8BD
 653 0cb8 FCE98FBA 		.ascii	"\374\351\217\272c6\375\352\361j\350\225\327\263)^\334"
 653      6336FDEA 
 653      F16AE895 
 653      D7B3295E 
 653      DC
 654 0cc9 EEB63B7A 		.ascii	"\356\266;z\271\335-\352\343W\217\236\3072\2503\313N"
 654      B9DD2DEA 
 654      E3578F9E 
 654      C732A833 
 654      CB4E
 655 0cdb B77EA03B 		.ascii	"\267~\240;\335F\007wj\273\315N\267\336\272\323\335\343"
 655      DD460777 
 655      6ABBCD4E 
ARM GAS  /tmp/ccOPYu5Z.s 			page 52


 655      B7DEBAD3 
 655      DDE3
 656 0ced 30EC7464 		.ascii	"0\354tdy\207\355N\327n\335\351t[\0014\031\337\211\374"
 656      7987ED4E 
 656      D76EDDE9 
 656      745B0134 
 656      19DF89FC 
 657 0d01 6D08DBE9 		.ascii	"m\010\333\351x\013M\216\267\313\235n\243\203v\272;\200"
 657      780B4D8E 
 657      B7CB9D6E 
 657      A38376BA 
 657      3B80
 658 0d13 26A9C25D 		.ascii	"&\251\302]\306\235\316k\304\217L7\230v:\032\356.\323"
 658      C69DCE6B 
 658      C48F4C37 
 658      98763A1A 
 658      EE2ED3
 659 0d26 4EB7C176 		.ascii	"N\267\301v\247\323\224\226\235n\003\230V\316\017w;\364"
 659      A7D39496 
 659      9D6E0398 
 659      56CE0F77 
 659      3BF4
 660 0d38 375F21F0 		.ascii	"7_!\360g-\222\033`1\375\007\301\261\255\317\225j\320"
 660      672D921B 
 660      6031FD07 
 660      C1B1ADCF 
 660      956AD0
 661 0d4b 4EECCF8F 		.ascii	"N\354\317\217\013a\337\265&\332|\327*a\016\261\027\036"
 661      0B61DFB5 
 661      26DA7CD7 
 661      2A610EB1 
 661      171E
 662 0d5d B3F94D21 		.ascii	"\263\371M!\034\312\312\000\\\350f\367K\276.\262\331"
 662      1CCACA00 
 662      5CE866F7 
 662      4BBE2EB2 
 662      D9
 663 0d6e 0B7D2C42 		.ascii	"\013},B\364v\274\337\275m\357\243\267R9\355}/\206\276"
 663      F476BCDF 
 663      BD6DEFA3 
 663      B75239ED 
 663      7D2F86BE 
 664 0d82 635EDABF 		.ascii	"c^\332\277y\213Mq\260f4\011\355\030{\223\351\275L\""
 664      798B4D71 
 664      B0663409 
 664      ED187B93 
 664      E9BD4C22 
 665 0d96 55053E51 		.ascii	"U\005>Q47M\366z\213\233k\232\232\213\353\002U\305\325"
 665      34374DF6 
 665      7A8B9B6B 
 665      9A9A8BEB 
 665      0255C5D5 
 666 0daa B50B78DE 		.ascii	"\265\013x\336[\315\234\213\275\276s\022xaA]c\265\277"
 666      5BCD9C8B 
 666      BDBE7312 
 666      7861415D 
 666      63B5BF
ARM GAS  /tmp/ccOPYu5Z.s 			page 53


 667 0dbd 6EC1227F 		.ascii	"n\301\"\177\240\316\353\033\027'\252\232\232k\226x}"
 667      A0CEEB1B 
 667      1727AA9A 
 667      9A6B9678 
 667      7D
 668 0dce E70E1305 		.ascii	"\347\016\023\005\265\256\261J\027\234\207O\262\330Y"
 668      B5AEB14A 
 668      179C874F 
 668      B2D859
 669 0ddd DFA42E89 		.ascii	"\337\244.\211\021\215\325\265K\274\343\200\245\347\347"
 669      118DD5B5 
 669      4BBCE380 
 669      A5E7E7
 670 0dec E77B2EAE 		.ascii	"\347{.\256\015T\005\246\225\027\317\254\360T`\233\247"
 670      0D5405A6 
 670      9517CFAC 
 670      F054609B 
 670      A7
 671 0dfd BC25D05C 		.ascii	"\274%\320\\\303\234\330\304\206\211\366\306\372%\201"
 671      C39CD8C4 
 671      8689F6C6 
 671      FA2581
 672 0e0c BA9A8565 		.ascii	"\272\232\205e\036\376\307R&\373\033<\276\361\236\322"
 672      1EFEC752 
 672      26FB1B3C 
 672      BEF19ED2 
 673 0e1c 12DF799E 		.ascii	"\022\337y\236\"O\311\3702\337\270\262\222\261\244\235"
 673      224FC9F8 
 673      32DFB8B2 
 673      92B1A49D 
 674 0e2c 5EE76F5E 		.ascii	"^\347o^\324\270\264^jG\225WL\035[:\311WR\342\231\345"
 674      D4B8B45E 
 674      6A479557 
 674      4C1D5B3A 
 674      C95752E2 
 675 0e42 AF6BA9F1 		.ascii	"\257k\251\361L\0114\324x\246\326,\014\264\324{.\251"
 675      4C0934D4 
 675      78A6D62C 
 675      0CB4D47B 
 675      2EA9
 676 0e54 69680A34 		.ascii	"ih\0124/#C1\362\304F\377R1\014K*\257\360\010\333YS\212"
 676      2F234331 
 676      F2C446FF 
 676      52310C4B 
 676      2AAFF008 
 677 0e6c 2E093455 		.ascii	".\0114U7\336X\263t\031\213/**\"\345\305\376\246\032"
 677      37DE58B3 
 677      74198B2F 
 677      2A2A22E5 
 677      C5FEA61A 
 678 0e80 0F53BCCC 		.ascii	"\017S\274\314\341\311eJ\036s6\007\352k\322\320g\215"
 678      E1C9654A 
 678      1E733607 
 678      EA6BD2D0 
 678      678D
 679 0e92 4DC5B5FE 		.ascii	"M\305\265\376:L\360ci\263H\275\265,\205\033\316\254"
 679      3A4CF063 
ARM GAS  /tmp/ccOPYu5Z.s 			page 54


 679      69B348BD 
 679      B52C851B 
 679      CEAC
 680 0ea4 696AA96B 		.ascii	"ij\251k.\363L\372\305\025S*g^\352\311\315F\353\271\314"
 680      2EF34CFA 
 680      C515532A 
 680      675EEAC9 
 680      CD46EBB9 
 681 0eb9 39DF93C5 		.ascii	"9\337\223\305\034Yy,\321(*\257\274\370\342K\313\313"
 681      1C59792C 
 681      D1282AAF 
 681      BCF8E24B 
 681      CBCB
 682 0ecb 59FCA440 		.ascii	"Y\374\244@\203\277\316\263TV3\227\264f.M\361_\377c\331"
 682      83BFCEB3 
 682      54563397 
 682      B4662E4D 
 682      F15FFF63 
 683 0ee0 21       		.ascii	"!"
 684              		.text
 685              		.section	.gnu.lto_.symbol_nodes.28ee5ae0fdd4774b,"",%progbits
 686 0000 789C4D8E 		.ascii	"x\234M\216\313J\034A\024\206\317_\227\0315\261\025\006"
 686      CB4A1C41 
 686      1486CF5F 
 686      971935B1 
 686      1506
 687 0012 7423E401 		.ascii	"t#\344\001\362@!\313<B\236\340\210\013\025D\0116((I"
 687      F24021CB 
 687      3C429EE0 
 687      880B1544 
 687      09362828 
 688 0027 A05D84C8 		.ascii	"\240]\204\310\204@\232 \270\262[p#\350\242\025\021M"
 688      84409A20 
 688      B8B25B70 
 688      23E8A215 
 688      114D
 689 0039 A2E37819 		.ascii	"\242\343x\031c\034t B\222\221TM\325h\365\346\373\277"
 689      631C7420 
 689      42929154 
 689      4DD568F5 
 689      E6FBBF
 690 004c 73E93A82 		.ascii	"s\351:\202\004}\024\344>q\002&z\263E\304\374v\362\225"
 690      047D14E4 
 690      3E710226 
 690      7AB345C4 
 690      FC76F295 
 691 0060 3E062996 		.ascii	">\006)\226\372\010\260\370\001a \352`\0043\337 m\365"
 691      FA08B0F8 
 691      016120EA 
 691      600433DF 
 691      206DF5
 692 0073 142C1EAB 		.ascii	"\024,\036\253\342\017X>(\304\031Xy}7\011}\010\245\231"
 692      E20F583E 
 692      28C41958 
 692      797D3709 
 692      7D08A599 
 693 0087 F47768BB 		.ascii	"\364wh\273z\016\326\217Mq\001.\005\332\000\227\003\275"
ARM GAS  /tmp/ccOPYu5Z.s 			page 55


 693      7A0ED68F 
 693      4D71012E 
 693      05DA0097 
 693      03BD
 694 0099 04F704FA 		.ascii	"\004\367\004\372\023\334\033\350\025\270/\320_\340'"
 694      13DC1BE8 
 694      15B82FD0 
 694      5FE027
 695 00a8 815E839F 		.ascii	"\201^\203\237\006\332\004\367\007G\335\242D\346\250"
 695      06DA04F7 
 695      0747DDA2 
 695      44E6A8
 696 00b7 0394CD6D 		.ascii	"\003\224\315mh\201#\327\034\035\005n\300\003\017\246"
 696      688123D7 
 696      1C1D056E 
 696      C0030FA6 
 697 00c7 885AEDE6 		.ascii	"\210Z\355\346s\245(n\354\301\2408\276\267H7\266GT\211"
 697      73A5286E 
 697      ECC1A038 
 697      BEB74837 
 697      B6475489 
 698 00db E24FBB55 		.ascii	"\342O\273Um9q\365L\225)5M\031\225)\3777\242\"\2127w"
 698      6D3971F5 
 698      4C952935 
 698      4D199529 
 698      FF37A222 
 699 00f2 DA520D50 		.ascii	"\332R\015Pj\1770H\205CjFee\220\222#3k\230{\326\272\336"
 699      6A7F3048 
 699      85436A46 
 699      65659092 
 699      23336B98 
 700 010a EDCF388E 		.ascii	"\355\3178\216\305\226\303\264\024;\317;,Q2W_}-+\021"
 700      C596C3B4 
 700      143BCF3B 
 700      2C513257 
 700      5F7D2D2B 
 701 011f E58B3ED4 		.ascii	"\345\213>\324jk\325\371\250\263\323ti\210\326}R\224"
 701      6A6BD5F9 
 701      A8B3D374 
 701      6988D67D 
 701      5294
 702 0131 DFBA64E6 		.ascii	"\337\272d\346\356\326\016\276\366\311\012Q~\357\222"
 702      EED60EBE 
 702      F6C90A51 
 702      7EEF92
 703 0140 D958CE7C 		.ascii	"\331X\316|J\226\263\375\033\330\027j\237\263\266\354"
 703      4A96B3FD 
 703      1BD8176A 
 703      9FB3B6EC 
 704 0150 34BFF890 		.ascii	"4\277\370\220\2544^vnX\331\237\226\252B\305x}U\033\246"
 704      AC345E76 
 704      6E58D99F 
 704      96AA42C5 
 704      787D551B 
 705 0165 538EF1AC 		.ascii	"S\216\361\254\347\2029\311\326\337;\026g\366m\333\270"
 705      E78239C9 
 705      D6DF3B16 
ARM GAS  /tmp/ccOPYu5Z.s 			page 56


 705      67F66DDB 
 705      B8
 706 0176 F6A1F8DD 		.ascii	"\366\241\370\335\015\177}H\223\314\317|\360\241\225"
 706      0D7F7D48 
 706      93CCCF7C 
 706      F0A195
 707 0185 66D517F4 		.ascii	"f\325\027\364\037\035\332\353\340"
 707      1F1DDAEB 
 707      E0
 708              		.text
 709              		.section	.gnu.lto_.refs.28ee5ae0fdd4774b,"",%progbits
 710 0000 789C2D4B 		.ascii	"x\234-K\011\022\2040\014\202\304\256\266\352z\217O\367"
 710      09128430 
 710      0C82C4AE 
 710      B6EA7A8F 
 710      4FF7
 711 0012 BBE6304C 		.ascii	"\273\3460L d@ x\220\243\000!\242\332\321\230E~\346\311"
 711      20644020 
 711      7890A300 
 711      21A2DAD1 
 711      98457EE6 
 712 0027 1ED48185 		.ascii	"\036\324\201\205\225M\307\3246\245\"r~yC\347\357\376"
 712      954DC7D4 
 712      36A52272 
 712      7E7943E7 
 712      EFFE
 713 0039 5B6B0165 		.ascii	"[k\001e\365\276n\221\022\335S\357\203D\2005\025gl1\276"
 713      F5BE6E91 
 713      12DD53EF 
 713      83448035 
 713      15676C31 
 714 004e C2B7F0FE 		.ascii	"\302\267\360\376\255\206\027\0036\002\336"
 714      AD861703 
 714      3602DE
 715              		.text
 716              		.section	.gnu.lto_.decls.28ee5ae0fdd4774b,"",%progbits
 717 0000 789CBD5B 		.ascii	"x\234\275[\013t\024U\232\256[\325yG\010/\215\3142\204"
 717      0B741455 
 717      9AAE5BD5 
 717      7947082F 
 717      8DCC3284 
 718 0014 D199719C 		.ascii	"\321\231q\234\201\000\316\331qv\316*\020\\\341\034\231"
 718      8100CED9 
 718      7176CE2A 
 718      105CE11C 
 718      99
 719 0025 E12438C3 		.ascii	"\341$8\303\354c\332\262S\220^\223\356\230\356\000\356"
 719      EC63DAB2 
 719      53905E93 
 719      EE98EE00 
 719      EE
 720 0036 D95D0B02 		.ascii	"\331]\013\002a\304\025\303;\362J\020\010\012\250\004"
 720      61C415C3 
 720      3BF24A10 
 720      080AA804 
 721 0046 44901068 		.ascii	"D\220\020hd\010\201\214<\202 \001\224\034T|\214\314"
 721      6408818C 
ARM GAS  /tmp/ccOPYu5Z.s 			page 57


 721      3C822001 
 721      941C547C 
 721      8CCC
 722 0058 24C85374 		.ascii	"$\310St\262\377\275u\253\273\352\366\275\335U\314\331"
 722      B2FFBD75 
 722      ABBBEAF6 
 722      BDDD55CC 
 722      D9
 723 0069 ED73FEDB 		.ascii	"\355s\376\333U\225\373\177\377\367\377\367\277\317\352"
 723      5595FB7F 
 723      FFF7FFF7 
 723      BFCFEA
 724 0078 C8922C5D 		.ascii	"\310\222,]I\223\244\036\370\214\377GI\372\367TI\352"
 724      4993A41E 
 724      F88CFF47 
 724      49FAF754 
 724      49EA
 725 008a 2D49D243 		.ascii	"-I\322C \003A\326\200\274\014\262\001d\023H#\310V\220"
 725      200341D6 
 725      80BC0CB2 
 725      01641348 
 725      23C85690 
 726 009e 3741B683 		.ascii	"7A\266\203\354\000\331\011\242\200\354\002i\002i\006"
 726      EC00D909 
 726      A280EC02 
 726      69026906 
 727 00ae D9031201 		.ascii	"\331\003\022\001\331\007\262\037\344\017 - \007A\016"
 727      D907B21F 
 727      E40F202D 
 727      2007410E 
 728 00be 811C06F9 		.ascii	"\201\034\006\371#\310Q\0200O>9 \355 'A.\201t\201\\\001"
 728      23C85110 
 728      304F3E39 
 728      20ED2027 
 728      412E8174 
 729 00d5 B905E241 		.ascii	"\271\005\342A\222\324\013\344\036\220\341 ?\003\371"
 729      92D40BE4 
 729      1E90E120 
 729      3F03F9
 730 00e4 05C81890 		.ascii	"\005\310\030\220\177\002y\026\244\012$\035\352\316\201"
 730      7F027916 
 730      A40A241D 
 730      EACE81
 731 00f3 EFB920CF 		.ascii	"\357\271 \317\201\274\000\362\"\310\002\220E \265H\262"
 731      81BC00F2 
 731      22C80290 
 731      4520B548 
 731      B2
 732 0104 7DB0BD5E 		.ascii	"}\260\275^ \205\310\370\316\306|\340\372\267 \345 k"
 732      2085C8F8 
 732      CEC67CE0 
 732      FAB720E5 
 732      206B
 733 0116 E17E397C 		.ascii	"\341~9|\257\000)\002Y\011\362\317 O\203\254\002\221"
 733      AF002902 
 733      5909F2CF 
 733      204F83AC 
ARM GAS  /tmp/ccOPYu5Z.s 			page 58


 733      0291
 734 0128 E1EF93E1 		.ascii	"\341\357\223\341;\010\202(\036\216\005\266m\362\260"
 734      3B088228 
 734      1E8E05B6 
 734      6DF2B0
 735 0137 7EB06F99 		.ascii	"~\260o\231 G\250\035\214\201\361q\034V##&\035 \247A"
 735      2047A81D 
 735      8C81F171 
 735      1C562323 
 735      261D20A7 
 736 014c DEA55817 		.ascii	"\336\245X\027@.\202|,\031\3660F\035\324\365\300\367"
 736      402E827C 
 736      2C19F630 
 736      461DD4F5 
 736      C0F7
 737 015e 1792DD57 		.ascii	"\027\222\335W\353\007\307\260/\343[\212\024\363\315"
 737      EB07C7B0 
 737      2FE35B8A 
 737      14F3CD
 738 016d CBF10BB7 		.ascii	"\313\361\013\2671\366\355edo\373'\220\301\305\364\365"
 738      31F6ED65 
 738      646FFB27 
 738      90C1C5F4 
 738      F5
 739 017e 77D45F6C 		.ascii	"w\324_l\003\321\230[?]4\256?`\342:\017\031|L\016\"\373"
 739      03D1985B 
 739      3F5D34AE 
 739      3F60E23A 
 739      0F197C4C 
 740 0195 6C5CBB68 		.ascii	"l\\\273h,\326\302\315P\024o\017\347\211G\212\305\361"
 740      2CD6C2CD 
 740      50146F0F 
 740      E789478A 
 740      C5F1
 741 01a7 3C7CAFA3 		.ascii	"<|\257\243u\220\345\3577${NX?8\317R)\306y)\306\033\343"
 741      7590E5EF 
 741      37247B4E 
 741      583F38CF 
 741      5229C679 
 742 01bf 995832AD 		.ascii	"\231X2\255w\205\306\022\203\313H\214\211\3636\213\372"
 742      7785C612 
 742      83CB488C 
 742      89F3368B 
 742      FA
 743 01d0 6EE2617C 		.ascii	"n\342a|3\257\316[\360WQ_%\352+\326\275B\333\032\367"
 743      33AFCE5B 
 743      F057515F 
 743      25EA2BD6 
 743      BD42DB1A 
 744 01e5 914CF8CE 		.ascii	"\221L\370\316\346\3445\233c\270\237\220x\203\364\241"
 744      E6E4359B 
 744      63B89F90 
 744      7883F4A1 
 745 01f5 ED866DAE 		.ascii	"\355\206m\256\207\353\006\220\367-\\\254\3661L3\024"
 745      87EB0690 
 745      F72D5CAC 
 745      F6314C33 
ARM GAS  /tmp/ccOPYu5Z.s 			page 59


 745      14
 746 0206 1914E334 		.ascii	"\031\024\3434\3109\314\021\344\002\310' ](\346?\216"
 746      C839CC11 
 746      E402C827 
 746      205D28E6 
 746      3F8E
 747 0218 D520B81F 		.ascii	"\325 \270\037\0142$A\014p\237\355#\331\363\020\347A"
 747      0C322441 
 747      0C709FED 
 747      23D9F310 
 747      E741
 748 022a 1AF50BC7 		.ascii	"\032\365\013\307\302\314\007\034\223k \335\022\277\317"
 748      C2CC071C 
 748      936B20DD 
 748      12BFCF
 749 0239 59F342A6 		.ascii	"Y\363B\246\330fn\340\274\270\316\311\215\341(\276\217"
 749      D8666EE0 
 749      BCB8CEC9 
 749      8DE128BE 
 749      8F
 750 024a 5B6DF2EC 		.ascii	"[m\362\354t\322\330 )>\027\207S\333?\345\330\302\343"
 750      74D2D820 
 750      293E1787 
 750      53DB3FE5 
 750      D8C2E3
 751 025d 527FC6D6 		.ascii	"R\177\306\326oi_3\307\223\363\002\337:\251='}O\246\266"
 751      6F695F33 
 751      C793F302 
 751      DF3AA93D 
 751      277D4FA6 
 752 0272 4C2E3FE7 		.ascii	"L.?\347p\371\005mKk\356\341\376\210\307\350\0334\337"
 752      70F9056D 
 752      4B6BEEE1 
 752      FE88C7E8 
 752      1B34DF
 753 0285 301F0FAD 		.ascii	"0\037\017\255\237Nu\276\006\371\226:\256\200d\202\334"
 753      9F4E75BE 
 753      06F9963A 
 753      AE806482 
 753      DC
 754 0296 0192231B 		.ascii	"\001\222#\033<p\276=L\363\320\372\301cq*c\217\265\201"
 754      3C70BE3D 
 754      4CF3D0FA 
 754      C163712A 
 754      638FB581 
 755 02aa 683D1367 		.ascii	"h=\023g,\007\007\217\347\243%\243\177Y\373\214\207\306"
 755      2C07078F 
 755      E7A325A3 
 755      7F59FB8C 
 755      87C6
 756 02bc 0EC77609 		.ascii	"\016\307v\0112\306H\234?\343\220}\274\306\261\355'\307"
 756      32C6489C 
 756      3FE3907D 
 756      BCC6B1ED 
 756      27C7
 757 02ce E6A81128 		.ascii	"\346\250\021(6\347\230sP\177\370\373\000Y\334\006\346"
 757      36E79873 
ARM GAS  /tmp/ccOPYu5Z.s 			page 60


 757      507FF8FB 
 757      0059DC06 
 757      E6
 758 02df 9C15918C 		.ascii	"\234\025\221\2149\314\234\323\360\270\215\307e\334g"
 758      39CC9CD3 
 758      F0B88DC7 
 758      65DC67
 759 02ee EE02FD5C 		.ascii	"\356\002\375\\\220\201 \367\242\330\374g\266\335bx\366"
 759      908120F7 
 759      A2D8FC67 
 759      B6DD6278 
 759      F6
 760 02ff 1DF8DB52 		.ascii	"\035\370\333R\370\376;\331\030\327\315\3768\010\356"
 760      F8FE3BD9 
 760      18D7CDFE 
 760      3808EE
 761 030e 75B8FE2E 		.ascii	"u\270\376.|\237\202\373\301\262\321\007\315\371\324"
 761      7C9F82FB 
 761      C1B2D107 
 761      CDF9D4
 762 031d 9C67ADED 		.ascii	"\234g\255\355\376\241d\314\0358>f\333\3439\017\217\301"
 762      FEA164CC 
 762      1D383E66 
 762      DBE3390F 
 762      8FC1
 763 032f B81FE4C9 		.ascii	"\270\037\344\311\306<\210\347\207v\032\233\377\244y"
 763      C63C88E7 
 763      87761A9B 
 763      FFA479
 764 033e 81FBE522 		.ascii	"\201\373\345\"\332Gk9}4K\232\247\353\263\364\372j}\\"
 764      DA476B39 
 764      7D344B9A 
 764      A7EBB3F4 
 764      FA6A7D5C 
 765 0352 6BAF3E52 		.ascii	"k\257>R\215\016\237\274\332^\031\322\357\361\343\316"
 765      8D0E9FBC 
 765      DA5E19D2 
 765      EFF1E3CE 
 766 0362 F57A6E2E 		.ascii	"\365zn.&\242\"x\224N.\2623H\240\276/\255\203\252P_V"
 766      26A22278 
 766      944E2EB2 
 766      3348A0BE 
 766      2FAD83AA 
 767 0379 D15A9401 		.ascii	"\321Z\224\0019#3\320\346\307\370\273$\0318\306\265y"
 767      392333D0 
 767      E6C7F8BB 
 767      241938C6 
 767      B579
 768 038b D583A2E8 		.ascii	"\325\203\242\350\271&\272B\265^F}\310\025\341\242S\212"
 768      B926BA42 
 768      B55E467D 
 768      C815E1A2 
 768      538A
 769 039d A406D5C8 		.ascii	"\244\006\325\31035<T\243\301b';#v!S&\"\2755(\313$K\035"
 769      33353C54 
 769      A3C16227 
 769      3B237621 
ARM GAS  /tmp/ccOPYu5Z.s 			page 61


 769      532622BD 
 770 03b7 378CF135 		.ascii	"7\214\3615\210\3475\235/\376\351\246\254\353\351*\332"
 770      88E7359D 
 770      2FFEE9A6 
 770      ACEBE92A 
 770      DA
 771 03c8 40BCFF07 		.ascii	"@\274\377\007$\335/\275j\204\344\345\357\361B\241\242"
 771      24DD2FBD 
 771      6A84E4E5 
 771      EFF142A1 
 771      A2
 772 03d9 948CB87B 		.ascii	"\224\214\270{\025mD\367Sj)\031\261\013\274.\353\035"
 772      156D44F7 
 772      536A2919 
 772      B10BBC2E 
 772      EB1D
 773 03eb A583DBA1 		.ascii	"\245\203\333\241\266W\202\206\250\351l\254~\355\307"
 773      B6578286 
 773      A8E96CAC 
 773      7EEDC7
 774 03fa 84CE2642 		.ascii	"\204\316&Bg\012\212B[\334r\200\323<w\365\203\004\347"
 774      670A8A42 
 774      5BDC7280 
 774      D33C77F5 
 774      8304E7
 775 040d 7582B312 		.ascii	"u\202\263\022\331\201T\204\030'\220\335\211h\363\322"
 775      D9815484 
 775      182790DD 
 775      8968F3D2 
 776 041d D6755397 		.ascii	"\326uS\227\227\214\365\243j{\031\271BI\2172I\247S\320"
 776      978CF5A3 
 776      6A7B19B9 
 776      42498F32 
 776      49A753D0 
 777 0431 ADAEF364 		.ascii	"\255\256\363d\233 O\314\005\251H\2571\226'<\252\235"
 777      9B204FCC 
 777      05A948AF 
 777      3196273C 
 777      AA9D
 778 0443 290C555B 		.ascii	")\014U[|1\300v\327T\337\022P\225\222P}31\325<\206i="
 778      7C31C076 
 778      D754DF12 
 778      50959250 
 778      7D3331D5 
 779 045b 3201FA53 		.ascii	"2\001\372S\200\235\256\251\276-\240\332/\011\325\035"
 779      809DAEA9 
 779      BE2DA0DA 
 779      2F09D51D 
 780 046b 89A9C625 		.ascii	"\211\251\306%@\216\275[\253\250\3115\325\335\002\252"
 780      408EBD5B 
 780      ABA8C935 
 780      D5DD02AA 
 781 047b 2809D55D 		.ascii	"(\011\325]\356\242\372J4\252\003(\300\036\327T\367\012"
 781      EEA2FA4A 
 781      34AA0328 
 781      C01ED754 
 781      F70A
ARM GAS  /tmp/ccOPYu5Z.s 			page 62


 782 048d A8F64F42 		.ascii	"\250\366OB\265\331e\002\310&\300\275\024`\237k\252\357"
 782      B5D96502 
 782      C826C0BD 
 782      14609F6B 
 782      AAEF
 783 049f 08A8DE93 		.ascii	"\010\250\336\223\204j\304\035\325\235\321\250\336E\001"
 783      846AC41D 
 783      D59DD1A8 
 783      DE4501
 784 04ae FEE09AEA 		.ascii	"\376\340\232\352\001\001\325;\223P\335\3572W\343\000"
 784      0101D53B 
 784      9350DDEF 
 784      3257E300 
 785 04be 0EBAA6DA 		.ascii	"\016\272\246\332*\240\252$\241\332\342.\252\307\242"
 785      2AA0AA24 
 785      A1DAE22E 
 785      AAC7A2
 786 04cd 511D4801 		.ascii	"Q\035H\001\016\273\246\332&\240zw\022\252\2078T#`\354"
 786      0EBBA6DA 
 786      26A07A77 
 786      12AA8738 
 786      542360EC 
 787 04e1 4E6909B5 		.ascii	"Ni\011\265\254\243\260\212\036\032 Dx\027\335I\257\036"
 787      ACA3B08A 
 787      1E1A2044 
 787      7817DD49 
 787      AF1E
 788 04f3 5712D9B2 		.ascii	"W\022\331\262E\302P\023A\036\001R\226\231\317r\231."
 788      45C25013 
 788      411E0152 
 788      9699CF72 
 788      992E
 789 0505 CD2593E9 		.ascii	"\315%\223\351\034}&z:\371\352\350(J\207\241\252\001"
 789      1C7D267A 
 789      3AF9EAE8 
 789      284A87A1 
 789      AA01
 790 0517 099747B8 		.ascii	"\011\227G\270\202I\331\2706\257@e\260\264Z\217tu\276"
 790      8249D9B8 
 790      36AF4065 
 790      B0B45A8F 
 790      7475BE
 791 052a FDFCC1E3 		.ascii	"\375\374\301\343hA\225\336\252w\341\205\201A]\226\366"
 791      684195DE 
 791      AA77E185 
 791      81415D96 
 791      F6
 792 053b 33D3332C 		.ascii	"3\3233,\364\245\3658f\372+\272B\"\206\015\264\243\301"
 792      F4A5F538 
 792      66FA2BBA 
 792      4222860D 
 792      B4A3C1
 793 054e 768B2790 		.ascii	"v\213'\220l}`\330\210\354j\311\256\231\331\331\3233"
 793      6C7D60D8 
 793      88EC6AC9 
 793      AE99D9D9 
 793      D333
ARM GAS  /tmp/ccOPYu5Z.s 			page 63


 794 0560 D879DC4F 		.ascii	"\330y\334O\321\270+\306`l\013o_i\001A\001\020\313RJ"
 794      D1B82BC6 
 794      606C0B6F 
 794      5F690141 
 794      0110CB52 
 795 0575 8FE6598E 		.ascii	"\217\346Y\216\024]t\034\237\177`\004,:\250F\236\260"
 795      145D741C 
 795      9F7F6004 
 795      2C3AA846 
 795      9EB0
 796 0587 BA8ACEA0 		.ascii	"\272\212\316\240\357KI\253\341\212\347P_\032\031\243"
 796      EF4B49AB 
 796      E18AE750 
 796      5F1A19A3 
 797 0597 2D22B7B4 		.ascii	"-\"\267\264<\343\251\304D\314\362\031\"\001\333Y\221"
 797      3CE3A9C4 
 797      44CCF219 
 797      2201DB59 
 797      91
 798 05a8 6FBF6D45 		.ascii	"o\277mE\372\302l\2337\321\025TD\270\202R\321:`\347p"
 798      FAC26C9B 
 798      37D11554 
 798      44B88252 
 798      D13A60E7 
 799 05bd B91B17CA 		.ascii	"\271\033\027\312\363\261N K\237\222v\305ly\325mk\000"
 799      F3B14E20 
 799      4B9F9276 
 799      C56C79D5 
 799      6D6B00
 800 05d0 5AC1EE41 		.ascii	"Z\301\356A\317\347\304\003#\213e\351K\327py6\270\032"
 800      CFE7C403 
 800      238B65E9 
 800      4BD77079 
 800      36B81A
 801 05e3 C80CD504 		.ascii	"\310\014\325\004\273\354\004,]\314m\241\025\354\226"
 801      BBEC042C 
 801      5DCC6DA1 
 801      15EC96
 802 05f2 6BB03CA6 		.ascii	"k\260<\246\315\214\306T\321\007$\366\037\242!P^ \345"
 802      CD8CC654 
 802      D10724F6 
 802      1FA22150 
 802      5E20E5
 803 0605 C7A4BC08 		.ascii	"\307\244\274\010e\364#KU2\273\2405r\302\202\027K\035"
 803      65F4234B 
 803      5532BBA0 
 803      3572C282 
 803      174B1D
 804 0618 2939A2A8 		.ascii	")9\242\2509O\307\23236(\021\006\363\031\006\367Jku}"
 804      394FC79A 
 804      33362811 
 804      06F31906 
 804      F74A6B75 
 805 062d 61E7DB6D 		.ascii	"a\347\333mG\366\241%U\3728CW\226V\220z'\241\357\362"
 805      47F6A125 
 805      55FA3843 
 805      57965690 
ARM GAS  /tmp/ccOPYu5Z.s 			page 64


 805      7A27A1EF 
 806 0642 6C442DD0 		.ascii	"lD-\320\016\337\244O\314\215v\370\223l\207\377\234\333"
 806      0EDFA44F 
 806      CC8D76F8 
 806      936C87FF 
 806      9CDB
 807 0654 E1AF981D 		.ascii	"\341\257\230\035\336\034N\352d'\303\311%\026\375\317"
 807      DE1C4EEA 
 807      6427C3C9 
 807      2516FDCF 
 808 0664 5CF48E79 		.ascii	"\\\364\216ym3!\011\365ozz\024\311\371\220\322\0357\224"
 808      6D332109 
 808      F56F7A7A 
 808      14C9F990 
 808      D21D3794 
 809 0678 CBD2463E 		.ascii	"\313\322F>\257\032;\257.\226\327\345x^\235]\221\225"
 809      AF1A3BAF 
 809      2E96D7E5 
 809      785E9D5D 
 809      9195
 810 068a 070DAFEB 		.ascii	"\007\015\257\353F1\244\360\210+bu\325>\320\031\335\225"
 810      4631A4F0 
 810      882B6275 
 810      D53ED019 
 810      DD95
 811 069c 69D8666E 		.ascii	"i\330fn\303\352\267\212\307\031\325e\251\225\324\270"
 811      C3EAB78A 
 811      C719D565 
 811      A995D4B8 
 812 06ac 226CD2F3 		.ascii	"\"l\322\363\226&\235\245_\2323'':%\330\324\230\215\005"
 812      96269DA5 
 812      5F9A3327 
 812      273A25D8 
 812      D4988D05 
 813 06c0 F9F375AE 		.ascii	"\371\363u\256\263\273o\307\331oXgqe\233\347R\\V\377"
 813      B3BB6FC7 
 813      D96F5867 
 813      71659BE7 
 813      525C56FF 
 814 06d4 91EF7CF7 		.ascii	"\221\357|\367\277\346\2323`\007\251qK\340\005\365\223"
 814      BFE69A33 
 814      6007A971 
 814      4BE005F5 
 814      93
 815 06e5 AAEDD5C6 		.ascii	"\252\355\325\306\231!\276\011~\331\324\334\304Ld\215"
 815      9921BE09 
 815      7ED9D4DC 
 815      C44C648D 
 816 06f5 3ADA131F 		.ascii	":\332\023\037\263\372\316\310\231\203\374y0Q\310\346"
 816      B3FACEC8 
 816      9983FC79 
 816      3051C8E6 
 817 0705 C8E28930 		.ascii	"\310\342\2110\361\212p\256\034\035(\222\204\370#~\210"
 817      F18A70AE 
 817      1C1D2892 
 817      84F8237E 
 817      88
ARM GAS  /tmp/ccOPYu5Z.s 			page 65


 818 0716 97E05861 		.ascii	"\227\340Xa\024Y\272Ij\314\226E\261\"\266\314\226aC,"
 818      1459BA49 
 818      6ACC9645 
 818      B122B6CC 
 818      9661432C 
 819 072a 564B1862 		.ascii	"VK\030b\213\032/\304\317\311\274\020/?\354>\304/\332"
 819      8B1A2FC4 
 819      CFC9BC10 
 819      2F3FEC3E 
 819      C42FDA
 820 073d 434C2764 		.ascii	"CL'd\275Z\277\357\225\330\204l\333\034\322\325\305\222"
 820      BD5ABFEF 
 820      95D8846C 
 820      DB1CD2D5 
 820      C592
 821 074f 336FDD4F 		.ascii	"3o\335O\2164\026\310\370\371\032\205{6\342\000\250\261"
 821      8E3416C8 
 821      F8F91A85 
 821      7B36E200 
 821      A8B1
 822 0761 7AC74F08 		.ascii	"z\307O\010\320b\002\264\351\266\201\232\347n\3709\001"
 822      D06202B4 
 822      E9B6819A 
 822      E76EF839 
 822      01
 823 0772 5A4680DE 		.ascii	"ZF\200\336T\3309Ia\016Y\024\373\301\211\222\021\273"
 823      54D83949 
 823      610E5914 
 823      FBC18992 
 823      11BB
 824 0784 C0A3EBFF 		.ascii	"\300\243\353\377a\345hN\342\340%\317\321\275\212`rk"
 824      61E5684E 
 824      E2E025CF 
 824      D1BD8A60 
 824      726B
 825 0796 5988E654 		.ascii	"Y\210\346T\351\367\231\215p\232\324\233\037\313\035"
 825      E9F7998D 
 825      709AD49B 
 825      1FCB1D
 826 07a5 5B98A835 		.ascii	"[\230\2505C9\262r^\366DS\357C\027zu\207_\273[\257\227"
 826      4339B272 
 826      5EF64453 
 826      EF43177A 
 826      75875FBB 
 827 07bc ED593EDF 		.ascii	"\355Y>\337Y\226GV\314kZ\203\364\324X\236\317O\234\347"
 827      59964756 
 827      CC6B5A83 
 827      F4D4589E 
 827      CF4F9CE7 
 828 07d0 2BE3F31C 		.ascii	"+\343\363\034\206\337\323\207\005\303o\202\011p\035"
 828      86DFD387 
 828      05C36F82 
 828      09701D
 829 07df 37CF1D9C 		.ascii	"7\317\035\234H6V\037\330\207 \377\340\017\015$X\027"
 829      4836561F 
 829      D88720FF 
 829      E00F0D24 
ARM GAS  /tmp/ccOPYu5Z.s 			page 66


 829      5817
 830 07f1 F809EA00 		.ascii	"\370\011\352\000\252y\356n#A_%@\177\212K\3204&A\323"
 830      AA79EE6E 
 830      23415F25 
 830      407F8A4B 
 830      D0342641 
 831 0806 EC699496 		.ascii	"\354i\224\226\021\273\240G\231.\2533yuM\220W\317\237"
 831      11BBA047 
 831      992EAB33 
 831      79754D90 
 831      57CF9F
 832 0819 DA8A1691 		.ascii	"\332\212\026\221E\223\341\362,\017\256\267V\330\310"
 832      4593E1F2 
 832      2C0FAEB7 
 832      56D8C8
 833 0828 0D4616D3 		.ascii	"\015F\026\323e\315\013:\031\312\350\372\001k\331Xn\346"
 833      65CD0B3A 
 833      19CAE8FA 
 833      016BD958 
 833      6EE6
 834 083a B6E9D636 		.ascii	"\266\351\3266\367m\332('_>\314\366$[>\274Hjlq\224\301"
 834      F76DDA28 
 834      275F3ECC 
 834      F6245B3E 
 834      BC486A6C 
 835 0851 AC735B58 		.ascii	"\254s[X\347\266q\235;\327\026]\022b\316\262\264\230"
 835      E7B6719D 
 835      3BD7165D 
 835      1262CEB2 
 835      B498
 836 0863 CFAAA738 		.ascii	"\317\252\2478:{l\227q\277\332q[\254v\260\254vr\247\213"
 836      3A7B6C97 
 836      71BFDA71 
 836      5BAC76B0 
 836      AC7672A7 
 837 0878 A5475CEF 		.ascii	"\245G\\\357Lw\263\021_K\016\237m\021_\303\367\355:^"
 837      4C77B311 
 837      5F4B0E9F 
 837      6D115FC3 
 837      F7ED3A5E 
 838 088c B318EF34 		.ascii	"\263\030\3574\032I\215&A\327\217n\365\270\2765\261\276"
 838      1A498D26 
 838      41D78F6E 
 838      F5B8BE35 
 838      B1BE
 839 089e EDE1FAF6 		.ascii	"\355\341\372\366\336\221h\304w\223\210\357\020\344\201"
 839      DE9168C4 
 839      779388EF 
 839      10E481
 840 08ad C94A4511 		.ascii	"\311JE\021\022\361wn\213\325;,\253\375\\V\313\216\266"
 840      12F1776E 
 840      8BD53B2C 
 840      ABFD5C56 
 840      CB8EB6
 841 08c0 F1D7EEB6 		.ascii	"\361\327\356\266\323\240\204c\310\266\213\255\271\315"
 841      D3A08463 
 841      C8B68BAD 
ARM GAS  /tmp/ccOPYu5Z.s 			page 67


 841      B9CD
 842 08ce BA9EA3A2 		.ascii	"\272\236\243\242V\3225\277\361pF#'H\365\215-\003t\217"
 842      56D235BF 
 842      F1704623 
 842      2748F58D 
 842      2D03748F 
 843 08e2 8ADA8C1E 		.ascii	"\212\332\214\036\236r\2330\235\315\007w\030\2576\216"
 843      9E729B30 
 843      9DCD0777 
 843      18AF368E 
 844 08f2 10A07929 		.ascii	"\020\240y)\354\240\226\312\014j\251\366Q\012n\261\245"
 844      ECA096CA 
 844      0C6AA9F6 
 844      510A6EB1 
 844      A5
 845 0903 1B788442 		.ascii	"\033x\204B\317\322'\370&M\372\177\327\023\245\375\301"
 845      CFD227F8 
 845      264DFA7F 
 845      D713A5FD 
 845      C1
 846 0914 04EB50F3 		.ascii	"\004\353P\363@&5I\234:\2768=\260\212L#'\344\276\200"
 846      40263549 
 846      9C3ABE38 
 846      3DB08A4C 
 846      2327E4BE 
 847 0929 B39D0954 		.ascii	"\263\235\011TR\034r2$3\347/{[\262q#\342\347\311O`N\264"
 847      521C7232 
 847      2433E72F 
 847      7B5BB271 
 847      23E2E7C9 
 848 0941 6C86A9FB 		.ascii	"l\206\251\373\035\344\372@I\226\016\003[\007\007IgI"
 848      1DE4FA40 
 848      49960E03 
 848      5B070749 
 848      6749
 849 0953 1F3AC7B2 		.ascii	"\037:\307\262\\UMX\236s\304\262\256\345P\3349\0213B"
 849      5C554D58 
 849      9E73C4B2 
 849      AEE550DC 
 849      39113342 
 850 0967 6D48B0F2 		.ascii	"mH\260\362\357d\207\250\207\263\270\355\346\350\350"
 850      EF6487A8 
 850      87B3B8ED 
 850      E6E8E8
 851 0976 693339FE 		.ascii	"i39\376H\362\202M\304\344\243\330\036\304\312g\2031"
 851      48F2824D 
 851      C4E4A3D8 
 851      1EC4CA67 
 851      8331
 852 0988 8ED8464D 		.ascii	"\216\330FM\341\361\225l9\276\272@2\006\007\361\266\216"
 852      E1F1956C 
 852      39BEBA40 
 852      320607F1 
 852      B68E
 853 099a AFF4ADBA 		.ascii	"\257\364\255\272\236\221z\273a\375\334aX\215W\245\""
 853      9E917ABB 
 853      61FDDC61 
ARM GAS  /tmp/ccOPYu5Z.s 			page 68


 853      588D57A5 
 853      22
 854 09ab 942FFFF6 		.ascii	"\224/\377\366\220|f\015\311g\256C\222\347.$x\220\025"
 854      907C660D 
 854      C967AE43 
 854      92E72E24 
 854      789015
 855 09be 9EA98843 		.ascii	"\236\251\210CbD\301\251K]V\227.9qI|\020\370\267\271"
 855      6244C1A9 
 855      4B5D5697 
 855      2E397149 
 855      7C10F8B7 
 856 09d3 749DE392 		.ascii	"t\235\343\222#\027\256Y]\350v\355B\236d\377X\016\012"
 856      2317AE59 
 856      5DE876ED 
 856      429E64FF 
 856      580E0A
 857 09e6 657C38F8 		.ascii	"e|8\370))\377B\312\253\262\203\203\302\016+\237\253"
 857      2929FF42 
 857      CAABB283 
 857      83C20E2B 
 857      9FAB
 858 09f8 84CF29F7 		.ascii	"\204\317)\367\035\207\367\261\016\302*z_\306\003\304"
 858      1D87F7B1 
 858      0EC22A7A 
 858      5FC603C4 
 859 0a08 692794DA 		.ascii	"i'\224\332e\321\331\345\315\024\301\366\356\223\265"
 859      65D1D9E5 
 859      CD14C1F6 
 859      EE93B5
 860 0a17 F4ECB29D 		.ascii	"\364\354\262\235\034DT\247\342z-\3025!\265@W(oT\317"
 860      1C4454A7 
 860      E27A2DC2 
 860      3521B540 
 860      57286F54 
 861 0a2c C9F118CD 		.ascii	"\311\361\030\315-%P\243\204nq\026\2565\235M\227[\307"
 861      2D2550A3 
 861      846E7116 
 861      AE359D4D 
 861      975BC7
 862 0a3f D76ED567 		.ascii	"\327n\325g?\247\377\265\347Y\344|\235\250+L\036\341"
 862      3FA7FFB5 
 862      E759E47C 
 862      9DA82B4C 
 862      1EE1
 863 0a51 1D24E3F5 		.ascii	"\035$\343\365\246T\366\370\321\250:K\3411\371\340\253"
 863      A654F6F8 
 863      D1A83A4B 
 863      E131F9E0 
 863      AB
 864 0a62 1BDF595A 		.ascii	"\033\337YZU\317\274\2519#\300\230m\307\370\236\264F"
 864      55CFBCA9 
 864      3923C098 
 864      6DC7F89E 
 864      B446
 865 0a74 D7DB21A0 		.ascii	"\327\333!\240\315\017\275\244Gf\353x\005\206\220\031"
 865      CD0FBDA4 
ARM GAS  /tmp/ccOPYu5Z.s 			page 69


 865      4766EB78 
 865      05869019 
 866 0a84 D6BF4441 		.ascii	"\326\277DAD\356T\307\340\014\250\310\325\233\370U\200"
 866      44EE54C7 
 866      E00CA8C8 
 866      D59BF855 
 866      80
 867 0a95 4ED898E7 		.ascii	"N\330\230\347D7\222\342\374\336\216\0239\026\371\352"
 867      443792E2 
 867      FCDE8E13 
 867      3916F9EA 
 868 0aa5 6ABA0923 		.ascii	"j\272\011#x\205\030\377\022f\236\342\366\025\342\363"
 868      788518FF 
 868      12669EE2 
 868      F615E2F3 
 869 0ab5 0AFF15A2 		.ascii	"\012\377\025\242\271\201\204\365_\032\303=\336\354\377"
 869      B98184F5 
 869      5F1AC33D 
 869      DEECFF
 870 0ac4 C405E1C3 		.ascii	"\304\005\341\303\177\253\205\311\275\247\347a\3630r"
 870      7FAB85C9 
 870      BDA7E761 
 870      F33072
 871 0ad3 098B12F7 		.ascii	"\011\213\022\367[\215\371v\220\372\366HSG\326\026\360"
 871      5B8DF976 
 871      90FAF648 
 871      5347D616 
 871      F0
 872 0ae4 A2A7E759 		.ascii	"\242\247\347Y\023e}R\224\2328*\335\215\207,\355al\354"
 872      13657D52 
 872      949A382A 
 872      DD8D872C 
 872      ED616CEC 
 873 0af8 DE6271E2 		.ascii	"\336bq\342\342\262\320\216C\322\354\263\365h\261\016"
 873      E2B2D08E 
 873      43D2ECB3 
 873      F568B10E 
 874 0b08 79861D43 		.ascii	"y\206\035C\203\315Fi\355e\033Rm/Ta\264\021\274ia^Y\210"
 874      83CD4669 
 874      ED651B52 
 874      6D2F5461 
 874      B411BC69 
 875 0b20 AA2C51AC 		.ascii	"\252,Q\254\263\"}\270\230\266r\264\211\332\322\330\\"
 875      B3227DB8 
 875      98B672B4 
 875      89DAD2D8 
 875      5C
 876 0b31 57D13236 		.ascii	"W\32126\234\260w\337<\320\226\343)xU~*i(^\212!1\363"
 876      9CB077DF 
 876      3CD096E3 
 876      2978557E 
 876      2A69285E 
 877 0b49 394E3791 		.ascii	"9N7\221\326r\205\377:\334\350Z\"\255\025\034-#\220x"
 877      D67285FF 
 877      3ADCE85A 
 877      22AD151C 
 877      2D239078 
ARM GAS  /tmp/ccOPYu5Z.s 			page 70


 878 0b5d 4A75304B 		.ascii	"Ju0K2\266\346&\260\265J\3100\321\251\350\352\230\026"
 878      32B6E626 
 878      B0B54AC8 
 878      30D1A9E8 
 878      EA9816
 879 0b70 7DEFB2A8 		.ascii	"}\357\262\250e>\254\235gAR\354\325Qt\374\351\214k\023"
 879      653EAC9D 
 879      674152EC 
 879      D55174FC 
 879      E98C6B13 
 880 0b84 DEAB9D3A 		.ascii	"\336\253\235:\205\331\035\326\333\207'&\010\235\011"
 880      85D91DD6 
 880      DB872726 
 880      089D09
 881 0b93 82605910 		.ascii	"\202`Y\020\376Pj\300k\353\355'Zg\242\274\350\031\014"
 881      FE506AC0 
 881      6BEBED27 
 881      5A67A2BC 
 881      E8190C
 882 0ba6 07D57017 		.ascii	"\007\325p\027\367\011\021\352\272\230\273dP\251J\270"
 882      F70911EA 
 882      BA98BB64 
 882      50A94AB8 
 883 0bb6 F183F51A 		.ascii	"\361\203\365\032\231\365\222\0377\361v\014\251&\324"
 883      99F5921F 
 883      37F1760C 
 883      A926D4
 884 0bc5 1352746F 		.ascii	"\023Rto\324\324\323\0250\366F\015\012\336\033-O\347"
 884      D4D4D315 
 884      30F6460D 
 884      0ADE1B2D 
 884      4FE7
 885 0bd7 EE8DC438 		.ascii	"\356\215\3048\230\324\253\012\263\353Xt\226\354:\360"
 885      98D4AB0A 
 885      B3EB5874 
 885      96EC3AF0 
 886 0be7 F324BB8E 		.ascii	"\363$\273\216\331U\221%gW\222\275\221\212\326+\270\307"
 886      D9559125 
 886      675792BD 
 886      918AD62B 
 886      B8C7
 887 0bf9 34100A58 		.ascii	"4\020\012X\3676\026\333\200\267\364,y\037k\200mt\015"
 887      F73616DB 
 887      80B7F42C 
 887      791F6B80 
 887      6D740D
 888 0c0c 966703AB 		.ascii	"\226g\003\253\265\202\275\356\004L\264@\004\260\345"
 888      B582BDEE 
 888      044CB440 
 888      04B0E5
 889 0c1b 56B06DAE 		.ascii	"V\260m\256\301\354\314VZ\301v:\001\313\0213[m\005kr"
 889      C1ECCC56 
 889      5AC1763A 
 889      01CB1133 
 889      5B6D056B 
 890 0c30 0D6667B6 		.ascii	"\015fg\266\305\012\266\327\011X\256\230\331V+\330\001"
 890      C50AB6D7 
ARM GAS  /tmp/ccOPYu5Z.s 			page 71


 890      0958AE98 
 890      D9562BD8 
 890      01
 891 0c41 D7607666 		.ascii	"\327`vfoZ\301\332\234\200\345\211\231\275e\005;\346"
 891      6F5AC1DA 
 891      9C80E589 
 891      99BD6505 
 891      3BE6
 892 0c53 1ACCCE6C 		.ascii	"\032\314\316l\247\025\354='`\367\211\231\355\262\202"
 892      A715EC3D 
 892      2760F789 
 892      99EDB282 
 893 0c63 9D760D66 		.ascii	"\235v\015fg\266\333\012v\316\011\330p\021\263\231\221"
 893      67B6DB0A 
 893      76CE09D8 
 893      7011B399 
 893      91
 894 0c74 3DFF52A3 		.ascii	"=\377R\243\306&v\003U\260\354\261Vk\220\023,\312\016"
 894      C6267603 
 894      55B0ECB1 
 894      566B9013 
 894      2CCA0E
 895 0c87 D2E93AF6 		.ascii	"\322\351:\366\3232\366\026f\013\226\267\035\206G\334"
 895      D332F616 
 895      660B96B7 
 895      1D8647DC 
 896 0c97 1E8563D6 		.ascii	"\036\205c\326(|\354$\012\243\304`\355V\260\317\235\200"
 896      287CEC24 
 896      0AA3C460 
 896      ED56B0CF 
 896      9D80
 897 0ca9 8D1337F6 		.ascii	"\215\0237\366{V\260K\256\301\354\314NY\301.;\001\233"
 897      7B56B04B 
 897      AEC1ECCC 
 897      4E59C12E 
 897      3B019B
 898 0cbc 286676DA 		.ascii	"(fv\332\012v\3255\230\225\331\314\310\231X\346\324\217"
 898      0A76D535 
 898      9895D9CC 
 898      C89958E6 
 898      D48F
 899 0cce 62526794 		.ascii	"bRg\224}\270\264U\263\244\016SME'\243\231\263\333\236"
 899      7DB8B455 
 899      B3A40E53 
 899      4D4527A3 
 899      99B3DB9E 
 900 0ce2 39BB6399 		.ascii	"9\273c\231s\213\345mC\241\227\2239A\340}\254S%\224\012"
 900      738BE56D 
 900      43A19793 
 900      3941E07D 
 900      AC532594 
 901 0cf7 9ECB3729 		.ascii	"\236\3137)xk\375\032)\337 e#)\267\221r;)w\220\362mR"
 901      786BFD1A 
 901      29DF2065 
 901      2329B791 
 901      723B2977 
 902 0d0f 3691B299 		.ascii	"6\221\262\231\224{I\271\217\224\373Iy\200\224\207H\331"
ARM GAS  /tmp/ccOPYu5Z.s 			page 72


 902      947B49B9 
 902      8F94FB49 
 902      79809487 
 902      48D9
 903 0d21 46CA7749 		.ascii	"F\312wIy\224\224\307IyB\261\354\231\231\265J\203\240"
 903      799494C7 
 903      497942B1 
 903      EC9999B5 
 903      4A83A0
 904 0d34 8130F7F7 		.ascii	"\2010\367\367\331\245Yg\315\306}\253b\277\342\253Og"
 904      D9A55967 
 904      CDC67DAB 
 904      62BFE2AB 
 904      4F67
 905 0d46 B6A90B12 		.ascii	"\266\251\013\022\234wt(\361?\213Y\236\301]\323\315\322"
 905      9C777428 
 905      F13F8B59 
 905      9EC15DD3 
 905      CDD2
 906 0d58 B7BCA2A7 		.ascii	"\267\274\242\247\230ola]\257\360\337\226R\2743\361\273"
 906      986F6C61 
 906      5DAFF0DF 
 906      9652BC33 
 906      F1BB
 907 0d6a 58A0BA67 		.ascii	"X\240\272g\323>?Y\235\303vg\210a^\226Z\235\031<\227"
 907      D33E3F59 
 907      9DC37667 
 907      88615E96 
 907      5A9D193C 
 908 0d7f D8E0075C 		.ascii	"\330\340\007\\\203\327^?4(\316\340\234LG\006\317'6\330"
 908      83D75E3F 
 908      3428CEE0 
 908      9C4C4706 
 908      CF2736D8 
 909 0d93 C9357879 		.ascii	"\3115xyk\307\217\342\014\036tf\360Bb\203\037\305\033"
 909      6BC78FE2 
 909      0C1E7466 
 909      F0426283 
 909      1FC51B
 910 0da6 3CD6D5B9 		.ascii	"<\326\325\271`cG\035\332\267\276Z\307\357{\236\255\213"
 910      6063471D 
 910      DAB7BE5A 
 910      C7EF7B9E 
 910      AD8B
 911 0db8 E4B8F8F1 		.ascii	"\344\270\370\361\303E\3361\205\360\335<\275g\2161\316"
 911      C345DE31 
 911      85F0DD3C 
 911      BD678E31 
 911      CE
 912 0dc9 30BED117 		.ascii	"0\276\321\027K'\325\350[\371?\223\032\237\010\234\263"
 912      4B27D5E8 
 912      5BF93F93 
 912      1A9F089C 
 912      B3
 913 0dda BF5DBFF1 		.ascii	"\277]\277\361i\004\351\231\346y\311jr\234\356L\363k"
 913      6904E999 
 913      E679C96A 
ARM GAS  /tmp/ccOPYu5Z.s 			page 73


 913      729CEE4C 
 913      F36B
 914 0dec 9B66BD13 		.ascii	"\233f\275\023\315\350k\371\353\237v\312\313\026GP\354"
 914      CDE86BF9 
 914      EB9F76CA 
 914      CB164750 
 914      EC
 915 0dfd BDBC4593 		.ascii	"\275\274E\223\367^\376\013nS@v\317\260\264\375E\322"
 915      F75EFE0B 
 915      6E534076 
 915      CFB0B4FD 
 915      45D2
 916 0e0f F65FF1E3 		.ascii	"\366_\361\343s\334\214\217\212\276T0\327.G^.\\m\376"
 916      73DC8C8F 
 916      8ABE5430 
 916      D72E475E 
 916      2E5C6DFE 
 917 0e23 6AC18C8E 		.ascii	"j\301\214\2163\275\305\026\275z'z\321\330,X\275\364"
 917      33BDC516 
 917      BD7A277A 
 917      D1D82C58 
 917      BDF4
 918 0e35 AE794FC4 		.ascii	"\256yO\304\"\323\22582\335\202\255\2351\260u'\370i\364"
 918      22D39538 
 918      32DD82AD 
 918      9D31B075 
 918      27F869F4 
 919 0e49 3585D9DA 		.ascii	"5\205\331\332\301^\376R\377\227j\3229{;\301Y\321\203"
 919      C15EFE52 
 919      FF976AD2 
 919      397B3BC1 
 919      59D183
 920 0e5c 26661AC5 		.ascii	"&f\032\305\274\341\372\250\350\246\340\250(\325\322"
 920      BCE1FAA8 
 920      E8A6E0A8 
 920      28D5D2
 921 0e6b D411D2EB 		.ascii	"\324\021\322\353\376k\363V]'\007\2033g#sC<'\313\311"
 921      FE6BF356 
 921      5D270783 
 921      33672373 
 921      433C27CB 
 922 0e80 86F86B76 		.ascii	"\206\370kvC|\213;\226\264\357\352\376\235%\237\014\013"
 922      437C8B3B 
 922      96B4EFEA 
 922      FE9D259F 
 922      0C0B
 923 0e92 9B1C59F8 		.ascii	"\233\034Y\370\226\265\360W\256\2053M\307\227[\247\016"
 923      96B5F057 
 923      AE85334D 
 923      C7975BA7 
 923      0E
 924 0ea3 D3C8078E 		.ascii	"\323\310\007\216\214\350\036\306\310L\017\317H\335\336"
 924      8CE81EC6 
 924      C84C0FCF 
 924      48DDDE
 925 0eb2 EE713763 		.ascii	"\356q7c\261\032b\374\030E\226\026e[\215\220aF\226\326"
 925      B11A62FC 
ARM GAS  /tmp/ccOPYu5Z.s 			page 74


 925      18459616 
 925      655B8D90 
 925      614696D6 
 926 0ec6 64D36432 		.ascii	"d\323d2\373IKv\0152\177\207\361\006\321\250\3628\373"
 926      FB494B76 
 926      0D327F87 
 926      F106D1A8 
 926      F238FB
 927 0ed9 1DC65733 		.ascii	"\035\306W3-?^\255b\271\316\346r]\260\261\373\277y\355"
 927      2D3F5EAD 
 927      62B9CEE6 
 927      725DB0B1 
 927      FBBF79ED 
 928 0eed BA3DDB49 		.ascii	"\272=\333I@\346\261F\236\347\032i\337u\274$\256]\367"
 928      40E6B146 
 928      9EE71A69 
 928      DF75BC24 
 928      AE5DF7
 929 0f00 3BB2F002 		.ascii	";\262\360\002ka>\327\002\264\353*^\273\036ud\244\206"
 929      6B613ED7 
 929      02B4EB2A 
 929      5EBB1E75 
 929      64A486
 930 0f13 35B2C093 		.ascii	"5\262\300\223\250S7&8\257Y\344q\365\377\"\265\321\015"
 930      A8533726 
 930      38AF59E4 
 930      71F5FF22 
 930      B5D10D
 931 0f26 413F0AB0 		.ascii	"A?\012\260\304\343\266\007/\365\360{\260\371{l\221\336"
 931      C4E3B607 
 931      2FF5F07B 
 931      B0F97B6C 
 931      91DE
 932 0f38 62775467 		.ascii	"bwTg\230\372\275\251~\255k\246/\011\230\366J\302t\231"
 932      98FABDA9 
 932      7EAD6BA6 
 932      2F0998F6 
 932      4AC27499 
 933 0f4c 80A9D1B1 		.ascii	"\200\251\321\261DZ\313\205Z\213\023\234p\256\340h\321"
 933      445ACB85 
 933      5A8B139C 
 933      70AEE068 
 933      D1
 934 0f5d 63BA04EF 		.ascii	"c\272\004\3579\317\013\376M\310x3\"\322Z%dx*\301\274"
 934      39CF0BFE 
 934      4DC87833 
 934      22D25A25 
 934      64782AC1 
 935 0f72 B15AA895 		.ascii	"\261Z\250\225\"&X\347\211_E\337\334d\3572:\231\277\317"
 935      222658E7 
 935      895F45DF 
 935      DC64EF32 
 935      3A99BFCF 
 936 0f86 6673E7EF 		.ascii	"fs\347\357fv\376\256\3678\231Ou\275\303\372\223\372"
 936      6676FEAE 
 936      F738994F 
 936      75BDC3FA 
ARM GAS  /tmp/ccOPYu5Z.s 			page 75


 936      93FA
 937 0f98 7AB6A7AD 		.ascii	"z\266\247\255\261\3674\311"
 937      B1F734C9 
 938 0fa0 E32B512B 		.ascii	"\343+Q+F\346W\206*\362K\375O\346O\365\371\362\325\212"
 938      46E65786 
 938      2AF24BFD 
 938      4FE64FF5 
 938      F9F2D58A 
 939 0fb4 B2A18160 		.ascii	"\262\241\201`@\033\252\251O\372\363\177:\354\301a#\363"
 939      401BAAA9 
 939      4FFAF37F 
 939      3AECC161 
 939      23F3
 940 0fc6 FD015F69 		.ascii	"\375\001_ie\261\226\037\012\027\027kS\206\225H\251!"
 940      65B1961F 
 940      0A17176B 
 940      53869548 
 940      A921
 941 0fd8 FF7F68DE 		.ascii	"\377\177h\336p\352\243\277|<\257@\032D\000\314J\001"
 941      70EAA3BF 
 941      7C3CAF40 
 941      1A4400CC 
 941      4A01
 942 0fea 6D3AC682 		.ascii	"m:\306\202\272\376@\030\352\246U\302\367\203\336\360"
 942      BAFE4018 
 942      EAA655C2 
 942      F783DEF0 
 943 0ffa 505EAD32 		.ascii	"P^\2552\325W"
 943      D557
 944 1000 E20F68F9 		.ascii	"\342\017h\371^\300U+K\303\336\3603\345Z\010\2642\274"
 944      5EC0552B 
 944      4BC3DEF0 
 944      33E55A08 
 944      B432BC
 945 1013 5EAA97E2 		.ascii	"^\252\227\342\035\023\014\226\3369lX~X\013\205\011O"
 945      1D130C96 
 945      DE396C58 
 945      7E580B85 
 945      094F
 946 1025 5F89175F 		.ascii	"_\211\027_\017\363I\331\345\025P\313\033\016>\245\005"
 946      0FF349D9 
 946      E51550CB 
 946      1B0E3EA5 
 946      05
 947 1036 42DC3A25 		.ascii	"B\334:%\222'\240\226i)!-\\Y\236\036\326\324\212\342"
 947      9227A096 
 947      6929212D 
 947      5C599E1E 
 947      D6D48AE2 
 948 104a E0F4409A 		.ascii	"\340\364@\2326C\363U\206\265L\\\307\247\206\300\231"
 948      3643F355 
 948      86B54C5C 
 948      C7A786C0 
 948      99
 949 105b 6CFA88A8 		.ascii	"l\372\210\250)a_y\246\201]\012\374\372\342g^r\037\030"
 949      29615F79 
 949      A6815D0A 
ARM GAS  /tmp/ccOPYu5Z.s 			page 76


 949      FCFAE267 
 949      5E721F18 
 950 106f 56AE5684 		.ascii	"V\256V\204\207\015\317$\365\274ST\177\251R\026\232\232"
 950      870DCF24 
 950      F5BC5354 
 950      7FA95216 
 950      9A9A
 951 1081 6DDCAAA1 		.ascii	"m\334\252\241\220V\021\316\360\005\003\305\376\260?"
 951      905611CE 
 951      F00503C5 
 951      FEB03F
 952 1090 1818607D 		.ascii	"\030\030`}\354\015iOWj\001\237\226\256\315(\327|a\255"
 952      EC0D694F 
 952      576A019F 
 952      96AECD28 
 952      D77C61AD 
 953 10a4 F8BBC038 		.ascii	"\370\273\3008\030\312\257\010G\343\342+\011=\023\212"
 953      18CAAF08 
 953      47E3E22B 
 953      093D138A 
 954 10b4 06015FFB 		.ascii	"\006\001_\373\313\200R:\016\306\210\277\367\2063\215"
 954      CB80523A 
 954      0EC688BF 
 954      F786338D 
 955 10c4 B8E0CB5C 		.ascii	"\270\340\313\\\0336\2517\335\037\000\357RBa\240\250"
 955      1B36A937 
 955      DD1F00EF 
 955      524261A0 
 955      A8
 956 10d5 688162A2 		.ascii	"h\201b\242\366\300\310\250\032\276\314\262\370\202\002"
 956      F6C0C8A8 
 956      1ABECCB2 
 956      F88202
 957 10e4 99B13B0F 		.ascii	"\231\261;\017\270Q\236\035\273/\015\364&7Z\231\237F"
 957      B8519E1D 
 957      BB2F0DF4 
 957      26375A99 
 957      9F46
 958 10f6 3885947D 		.ascii	"8\205\224}\230\247^\377H\303\015_\260\254,\030\310/"
 958      98A75EFF 
 958      48C30D5F 
 958      B0AC2C18 
 958      C82F
 959 1108 0F568443 		.ascii	"\017V\204C\371\243\013'\024L\230\201\237\225\373K\265"
 959      F9A30B27 
 959      144C9881 
 959      9F95FB4B 
 959      B5
 960 1119 8A50FEA3 		.ascii	"\212P\376\243\005\005\340\235\351Z\012\030\363\206\323"
 960      0505E09D 
 960      E95A0A18 
 960      F386D3
 961 1128 2827686D 		.ascii	"('hmz\225g@\225\250\245\321\220\300\2657\024\256\320"
 961      7A956740 
 961      95A8A5D1 
 961      90C0B537 
 961      14AED0
ARM GAS  /tmp/ccOPYu5Z.s 			page 77


 962 113b D432ACD8 		.ascii	"\3242\254\330\177\014\264V\021\011d\330\257\226\026"
 962      7F0CB456 
 962      110964D8 
 962      AF9616
 963 114a 913FDCC5 		.ascii	"\221?\334\305{\370\353\011\223R\246W\370\303\232\007"
 963      7BF8EB09 
 963      9352A657 
 963      F8C39A07 
 964 115a EE8A95F2 		.ascii	"\356\212\225\362\312\2602U\013+\323\312\302\206\223"
 964      CAB03255 
 964      0B2BD3CA 
 964      C28693
 965 1169 B4BD530D 		.ascii	"\264\275S\015\354A\234\246\010\227`Ml5\323W2\251\244"
 965      EC419CA6 
 965      0897604D 
 965      6C35D357 
 965      32A9A4
 966 117c B8A854D3 		.ascii	"\270\250T\323\312\3571\263\014\252\206\202\225\025>"
 966      CAEF31B3 
 966      0CAA8682 
 966      95153E
 967 118b CDB82598 		.ascii	"\315\270%\230\025\301 N\271\376\261(zq8\300\273)\301"
 967      15C1204E 
 967      B9FEB128 
 967      7A7138C0 
 967      BB29C1
 968 119e 74F2D057 		.ascii	"t\362\320WR\236A. v\345}\315+\310^\357\223\225S\246"
 968      529E412E 
 968      2076E57D 
 968      CD2BC85E 
 968      EF939553 
 969 11b3 681546CC 		.ascii	"h\025F\314K\203>\360\032'W\016\271\237Z\032|\222>\350"
 969      4B833EF0 
 969      1A27570E 
 969      B99F5A1A 
 969      7C923EE8 
 970 11c7 1FCDBBCA 		.ascii	"\037\315\273\312\012\315[\246\205B\352T#\217\275\241"
 970      0ACD5BA6 
 970      8542EA54 
 970      238FBDA1 
 971 11d7 4AF0D640 		.ascii	"J\360\326@\017\205\265\362l_)\244;\205\377I,\260F\003"
 971      0F85B5F2 
 971      6C5F29A4 
 971      3B85FF49 
 971      2CB04603 
 972 11eb 154D9AF0 		.ascii	"\025M\232\360\300\310\374\307\036\033\233?i\374\204"
 972      C0C8FCC7 
 972      1E1B9B3F 
 972      69FC84
 973 11fa 6923A0C3 		.ascii	"i#\240\303\226\341\006\360\227\001\377\254\350\2157"
 973      96E106F0 
 973      9701FFAC 
 973      E88D37
 974 1209 AC14148E 		.ascii	"\254\024\024\216\000\031\351)\232PP\350\031;\376\221"
 974      0019E929 
 974      9A5050E8 
 974      193BFE91 
ARM GAS  /tmp/ccOPYu5Z.s 			page 78


 975 1219 42B9A850 		.ascii	"B\271\250Py\344\321\302\224\202\202\011\205#H9\322S"
 975      79E4D1C2 
 975      94828209 
 975      85234839 
 975      D253
 976 122b 50F048A1 		.ascii	"P\360H\241R\360\313I\312\304\242\002eta\241RX\000\367"
 976      52F0CB49 
 976      CAC4A202 
 976      657461A1 
 976      525800F7 
 977 123f A03066EC 		.ascii	"\2400f\354\244Be,\326\2340\272P\376\225\241\365\000"
 977      A442652C 
 977      D69C30BA 
 977      50FE95A1 
 977      F500
 978 1251 D49F5C78 		.ascii	"\324\237\\xw\214R0\004\005\004\024\177\343\370\341\357"
 978      778C5230 
 978      04050414 
 978      7FE3F8E1 
 978      EF
 979 1262 5F851ED5 		.ascii	"_\205\036\325\302E\320\003\264\262I\220\334\223s9-4"
 979      C245D003 
 979      B4B24990 
 979      DC937339 
 979      2D34
 980 1274 0D47BBAF 		.ascii	"\015G\273\257\257\344\327\223\354u\177\224 #K|A\010"
 980      AFE4D793 
 980      EC757F94 
 980      20234B7C 
 980      4108
 981 1286 1CEE2F15 		.ascii	"\034\356/\025\240\334\217\264\017\271\363Bz\220\253"
 981      A0DC8FB4 
 981      0FB9F342 
 981      7A90AB
 982 1295 A1C96265 		.ascii	"\241\311be\244\244\267\264\264\030\2337\256\210\266"
 982      A4A4B7B4 
 982      B4189B37 
 982      AE88B6
 983 12a4 2F581908 		.ascii	"/X\031\010k\025\375\014\376\343C\230\314o\374a\030\343"
 983      6B15FD0C 
 983      FEE34398 
 983      CC6FFC61 
 983      18E3
 984 12b6 267B3072 		.ascii	"&{0r\037L\325\3668\013W\005\346\217\005}O\335\315\037"
 984      1F4CD5F6 
 984      380B5705 
 984      E68F057D 
 984      4FDDCD1F 
 985 12ca 0EF048E0 		.ascii	"\016\360H\340+\241u~\230\324\263i?\303M\230A\374\202"
 985      2BA1757E 
 985      98D4B369 
 985      3FC34D98 
 985      41FC82
 986 12dd 3C7AEAC7 		.ascii	"<z\352\3076\015mF8\277`B\321\370\242\230\215\262\220"
 986      360D6D46 
 986      38BF6042 
 986      D1F8A298 
ARM GAS  /tmp/ccOPYu5Z.s 			page 79


 986      8DB290
 987 12f0 3FE485B1 		.ascii	"?\344\205\261\037\264\356\360\302 \025\366\216\031]"
 987      1FB4EEF0 
 987      C22015F6 
 987      8E195D
 988 12ff F4C8C4C2 		.ascii	"\364\310\304\302\361w\250\245\323\325gB\220\275x\020"
 988      F177A8A5 
 988      D3D56742 
 988      90BD7810 
 989 130f 4C99A696 		.ascii	"L\231\246\226VjwP\276\217\0070v\026\341E\257\211\305"
 989      566A7750 
 989      BE8F0730 
 989      7616E145 
 989      AF89C5
 990 1322 4A72DD1B 		.ascii	"Jr\335\033\327\232D\272\017\3514\377\013v\350G\271"
 990      D79A44BA 
 990      0FE934FF 
 990      0B76E847 
 990      B9
 991              		.text
 992              		.section	.gnu.lto_.symtab.28ee5ae0fdd4774b,"",%progbits
 993 0000 5F746573 		.ascii	"_test_fail\000\000\000\000\000\000\000\000\000\000\000"
 993      745F6661 
 993      696C0000 
 993      00000000 
 993      00000000 
 994 0015 00F40000 		.ascii	"\000\364\000\000\000test_global_fail\000\000\000\000"
 994      00746573 
 994      745F676C 
 994      6F62616C 
 994      5F666169 
 995 002e 00000000 		.ascii	"\000\000\000\000\000\000\000\000\217\001\000\000_te"
 995      00000000 
 995      8F010000 
 995      5F7465
 996 003d 73745F61 		.ascii	"st_assert\000\000\000\000\000\000\000\000\000\000\000"
 996      73736572 
 996      74000000 
 996      00000000 
 996      00000000 
 997 0051 00FB0000 		.ascii	"\000\373\000\000\000_test_assert_sequence\000\000\000"
 997      005F7465 
 997      73745F61 
 997      73736572 
 997      745F7365 
 998 006e 00000000 		.ascii	"\000\000\000\000\000\000\000\000\000\004\001\000\000"
 998      00000000 
 998      00040100 
 998      00
 999 007b 5F746573 		.ascii	"_test_assert_time_window\000\000\000\000\000\000\000"
 999      745F6173 
 999      73657274 
 999      5F74696D 
 999      655F7769 
 1000 009a 00000000 		.ascii	"\000\000\000\000\000\016\001\000\000test_printn\000"
 1000      000E0100 
 1000      00746573 
ARM GAS  /tmp/ccOPYu5Z.s 			page 80


 1000      745F7072 
 1000      696E746E 
 1001 00af 00000000 		.ascii	"\000\000\000\000\000\000\000\000\000\000\000#\001\000"
 1001      00000000 
 1001      00000023 
 1001      0100
 1002 00bd 00746573 		.ascii	"\000test_print\000\000\000\000\000\000\000\000\000\000"
 1002      745F7072 
 1002      696E7400 
 1002      00000000 
 1002      00000000 
 1003 00d2 00003001 		.ascii	"\000\0000\001\000\000test_println\000\000\000\000\000"
 1003      00007465 
 1003      73745F70 
 1003      72696E74 
 1003      6C6E0000 
 1004 00e9 00000000 		.ascii	"\000\000\000\000\000\000\0007\001\000\000test_emit_"
 1004      00000037 
 1004      01000074 
 1004      6573745F 
 1004      656D6974 
 1005 00fe 746F6B65 		.ascii	"token\000\000\000\000\000\000\000\000\000\000\000\000"
 1005      6E000000 
 1005      00000000 
 1005      00000000 
 1005      00
 1006 010f 3B010000 		.ascii	";\001\000\000test_emit_token_i\000\000\000\000\000\000"
 1006      74657374 
 1006      5F656D69 
 1006      745F746F 
 1006      6B656E5F 
 1007 012a 00000000 		.ascii	"\000\000\000\000\000\000B\001\000\000test_execute\000"
 1007      00004201 
 1007      00007465 
 1007      73745F65 
 1007      78656375 
 1008 0141 00000000 		.ascii	"\000\000\000\000\000\000\000\000\000\000\000F\001\000"
 1008      00000000 
 1008      00000046 
 1008      0100
 1009 014f 00746573 		.ascii	"\000test_step\000\000\000\000\000\000\000\000\000\000"
 1009      745F7374 
 1009      65700000 
 1009      00000000 
 1009      00000000 
 1010 0163 00009801 		.ascii	"\000\000\230\001\000\000test_suite\000\000\002\000\000"
 1010      00007465 
 1010      73745F73 
 1010      75697465 
 1010      00000200 
 1011 0178 00000000 		.ascii	"\000\000\000\000\000\000\000\223\001\000\000chThdSl"
 1011      00000093 
 1011      01000063 
 1011      68546864 
 1011      536C
 1012 018a 65657000 		.ascii	"eep\000\000\002\000\000\000\000\000\000\000\000\000"
 1012      00020000 
ARM GAS  /tmp/ccOPYu5Z.s 			page 81


 1012      00000000 
 1012      000000
 1013 0199 7F010000 		.ascii	"\177\001\000\000test_print_port_info\000\000\002\000"
 1013      74657374 
 1013      5F707269 
 1013      6E745F70 
 1013      6F72745F 
 1014 01b5 00000000 		.ascii	"\000\000\000\000\000\000\000\000\203\001\000\000"
 1014      00000000 
 1014      83010000 
 1015              		.text
 1016              		.section	.gnu.lto_.opts,"",%progbits
 1017 0000 272D6D63 		.ascii	"'-mcpu=cortex-m3' '-mno-thumb-interwork' '-mthumb' "
 1017      70753D63 
 1017      6F727465 
 1017      782D6D33 
 1017      2720272D 
 1018 0033 272D6767 		.ascii	"'-ggdb' '-O2' '-fomit-frame-pointer' '-falign-funct"
 1018      64622720 
 1018      272D4F32 
 1018      2720272D 
 1018      666F6D69 
 1019 0066 696F6E73 		.ascii	"ions=16' '-ffunction-sections' '-fdata-sections' '-"
 1019      3D313627 
 1019      20272D66 
 1019      66756E63 
 1019      74696F6E 
 1020 0099 666E6F2D 		.ascii	"fno-common' '-flto'\000"
 1020      636F6D6D 
 1020      6F6E2720 
 1020      272D666C 
 1020      746F2700 
 1021              		.text
 1022              		.cfi_sections	.debug_frame
 1023              		.section	.text.print_line,"ax",%progbits
 1024              		.align	2
 1025              		.p2align 4,,15
 1026              		.thumb
 1027              		.thumb_func
 1028              		.type	print_line, %function
 1029              	print_line:
 1030              	.LFB222:
 1031              		.file 1 "../test/lib/ch_test.c"
 1032              		.loc 1 90 0
 1033              		.cfi_startproc
 1034              		@ args = 0, pretend = 0, frame = 0
 1035              		@ frame_needed = 0, uses_anonymous_args = 0
 1036              	.LVL0:
 1037 0000 70B5     		push	{r4, r5, r6, lr}
 1038              		.cfi_def_cfa_offset 16
 1039              		.cfi_offset 4, -16
 1040              		.cfi_offset 5, -12
 1041              		.cfi_offset 6, -8
 1042              		.cfi_offset 14, -4
 1043 0002 40F20006 		movw	r6, #:lower16:.LANCHOR0
 1044 0006 C0F20006 		movt	r6, #:upper16:.LANCHOR0
 1045              		.loc 1 90 0
ARM GAS  /tmp/ccOPYu5Z.s 			page 82


 1046 000a 4C25     		movs	r5, #76
 1047              	.LVL1:
 1048              	.L3:
 1049              		.loc 1 94 0 discriminator 2
 1050 000c 3068     		ldr	r0, [r6]
 1051 000e 2D21     		movs	r1, #45
 1052 0010 0368     		ldr	r3, [r0]
 1053 0012 40F20004 		movw	r4, #:lower16:.LANCHOR0
 1054 0016 9B68     		ldr	r3, [r3, #8]
 1055 0018 9847     		blx	r3
 1056              	.LVL2:
 1057              		.loc 1 93 0 discriminator 2
 1058 001a 013D     		subs	r5, r5, #1
 1059              	.LVL3:
 1060              		.loc 1 94 0 discriminator 2
 1061 001c C0F20004 		movt	r4, #:upper16:.LANCHOR0
 1062              		.loc 1 93 0 discriminator 2
 1063 0020 F4D1     		bne	.L3
 1064              		.loc 1 95 0
 1065 0022 2068     		ldr	r0, [r4]
 1066 0024 40F20001 		movw	r1, #:lower16:.LC0
 1067 0028 0368     		ldr	r3, [r0]
 1068 002a C0F20001 		movt	r1, #:upper16:.LC0
 1069 002e 1B68     		ldr	r3, [r3]
 1070 0030 0222     		movs	r2, #2
 1071 0032 9847     		blx	r3
 1072              	.LVL4:
 1073 0034 70BD     		pop	{r4, r5, r6, pc}
 1074              		.cfi_endproc
 1075              	.LFE222:
 1076              		.size	print_line, .-print_line
 1077 0036 00BFAFF3 		.section	.text._test_fail,"ax",%progbits
 1077      0080AFF3 
 1077      0080
 1078              		.align	2
 1079              		.p2align 4,,15
 1080              		.global	_test_fail
 1081              		.thumb
 1082              		.thumb_func
 1083              		.type	_test_fail, %function
 1084              	_test_fail:
 1085              	.LFB223:
 1086              		.loc 1 102 0
 1087              		.cfi_startproc
 1088              		@ args = 0, pretend = 0, frame = 0
 1089              		@ frame_needed = 0, uses_anonymous_args = 0
 1090              		@ link register save eliminated.
 1091              	.LVL5:
 1092 0000 10B4     		push	{r4}
 1093              		.cfi_def_cfa_offset 4
 1094              		.cfi_offset 4, -4
 1095              		.loc 1 104 0
 1096 0002 40F20001 		movw	r1, #:lower16:.LANCHOR1
 1097              		.loc 1 106 0
 1098 0006 40F20004 		movw	r4, #:lower16:.LANCHOR3
 1099              		.loc 1 105 0
 1100 000a 40F20002 		movw	r2, #:lower16:.LANCHOR2
ARM GAS  /tmp/ccOPYu5Z.s 			page 83


 1101              		.loc 1 104 0
 1102 000e 0123     		movs	r3, #1
 1103              		.loc 1 106 0
 1104 0010 C0F20004 		movt	r4, #:upper16:.LANCHOR3
 1105              		.loc 1 104 0
 1106 0014 C0F20001 		movt	r1, #:upper16:.LANCHOR1
 1107              		.loc 1 105 0
 1108 0018 C0F20002 		movt	r2, #:upper16:.LANCHOR2
 1109              		.loc 1 106 0
 1110 001c 2060     		str	r0, [r4]
 1111              		.loc 1 104 0
 1112 001e 0B70     		strb	r3, [r1]
 1113              		.loc 1 108 0
 1114 0020 1846     		mov	r0, r3
 1115              	.LVL6:
 1116              		.loc 1 105 0
 1117 0022 1370     		strb	r3, [r2]
 1118              		.loc 1 108 0
 1119 0024 5DF8044B 		ldr	r4, [sp], #4
 1120 0028 7047     		bx	lr
 1121              		.cfi_endproc
 1122              	.LFE223:
 1123              		.size	_test_fail, .-_test_fail
 1124 002a 00BFAFF3 		.section	.text._test_assert,"ax",%progbits
 1124      0080
 1125              		.align	2
 1126              		.p2align 4,,15
 1127              		.global	_test_assert
 1128              		.thumb
 1129              		.thumb_func
 1130              		.type	_test_assert, %function
 1131              	_test_assert:
 1132              	.LFB224:
 1133              		.loc 1 110 0
 1134              		.cfi_startproc
 1135              		@ args = 0, pretend = 0, frame = 0
 1136              		@ frame_needed = 0, uses_anonymous_args = 0
 1137              		@ link register save eliminated.
 1138              	.LVL7:
 1139 0000 10B4     		push	{r4}
 1140              		.cfi_def_cfa_offset 4
 1141              		.cfi_offset 4, -4
 1142              		.loc 1 112 0
 1143 0002 90B9     		cbnz	r0, .L8
 1144              	.LVL8:
 1145              	.LBB102:
 1146              	.LBB103:
 1147              		.loc 1 104 0
 1148 0004 40F20004 		movw	r4, #:lower16:.LANCHOR1
 1149              		.loc 1 105 0
 1150 0008 40F20002 		movw	r2, #:lower16:.LANCHOR2
 1151              		.loc 1 106 0
 1152 000c 40F20003 		movw	r3, #:lower16:.LANCHOR3
 1153              		.loc 1 104 0
 1154 0010 0120     		movs	r0, #1
 1155              	.LVL9:
 1156 0012 C0F20004 		movt	r4, #:upper16:.LANCHOR1
ARM GAS  /tmp/ccOPYu5Z.s 			page 84


 1157              		.loc 1 105 0
 1158 0016 C0F20002 		movt	r2, #:upper16:.LANCHOR2
 1159              		.loc 1 106 0
 1160 001a C0F20003 		movt	r3, #:upper16:.LANCHOR3
 1161              		.loc 1 104 0
 1162 001e 2070     		strb	r0, [r4]
 1163              		.loc 1 105 0
 1164 0020 1070     		strb	r0, [r2]
 1165              		.loc 1 106 0
 1166 0022 1960     		str	r1, [r3]
 1167              	.LBE103:
 1168              	.LBE102:
 1169              		.loc 1 115 0
 1170 0024 5DF8044B 		ldr	r4, [sp], #4
 1171 0028 7047     		bx	lr
 1172              	.LVL10:
 1173              	.L8:
 1174              		.loc 1 114 0
 1175 002a 0020     		movs	r0, #0
 1176              	.LVL11:
 1177              		.loc 1 115 0
 1178 002c 5DF8044B 		ldr	r4, [sp], #4
 1179 0030 7047     		bx	lr
 1180              		.cfi_endproc
 1181              	.LFE224:
 1182              		.size	_test_assert, .-_test_assert
 1183              		.section	.text._test_assert_sequence,"ax",%progbits
 1184              		.align	2
 1185              		.p2align 4,,15
 1186              		.global	_test_assert_sequence
 1187              		.thumb
 1188              		.thumb_func
 1189              		.type	_test_assert_sequence, %function
 1190              	_test_assert_sequence:
 1191              	.LFB225:
 1192              		.loc 1 117 0
 1193              		.cfi_startproc
 1194              		@ args = 0, pretend = 0, frame = 0
 1195              		@ frame_needed = 0, uses_anonymous_args = 0
 1196              		@ link register save eliminated.
 1197              	.LVL12:
 1198 0000 F0B4     		push	{r4, r5, r6, r7}
 1199              		.cfi_def_cfa_offset 16
 1200              		.cfi_offset 4, -16
 1201              		.cfi_offset 5, -12
 1202              		.cfi_offset 6, -8
 1203              		.cfi_offset 7, -4
 1204 0002 40F20006 		movw	r6, #:lower16:.LANCHOR5
 1205              		.loc 1 118 0
 1206 0006 40F20007 		movw	r7, #:lower16:.LANCHOR4
 1207 000a C0F20006 		movt	r6, #:upper16:.LANCHOR5
 1208 000e C0F20007 		movt	r7, #:upper16:.LANCHOR4
 1209 0012 3568     		ldr	r5, [r6]
 1210 0014 3B46     		mov	r3, r7
 1211              		.loc 1 120 0
 1212 0016 05E0     		b	.L10
 1213              	.LVL13:
ARM GAS  /tmp/ccOPYu5Z.s 			page 85


 1214              	.L13:
 1215              		.loc 1 121 0
 1216 0018 13F8014B 		ldrb	r4, [r3], #1	@ zero_extendqisi2
 1217              	.LVL14:
 1218 001c 10F8012B 		ldrb	r2, [r0], #1	@ zero_extendqisi2
 1219              	.LVL15:
 1220 0020 9442     		cmp	r4, r2
 1221 0022 06D1     		bne	.L14
 1222              	.LVL16:
 1223              	.L10:
 1224              		.loc 1 120 0 discriminator 1
 1225 0024 AB42     		cmp	r3, r5
 1226 0026 F7D3     		bcc	.L13
 1227              		.loc 1 125 0
 1228 0028 0078     		ldrb	r0, [r0]	@ zero_extendqisi2
 1229              	.LVL17:
 1230 002a 10B9     		cbnz	r0, .L14
 1231              	.LBB104:
 1232              	.LBB105:
 1233              		.loc 1 67 0
 1234 002c 3760     		str	r7, [r6]
 1235              	.LBE105:
 1236              	.LBE104:
 1237              		.loc 1 131 0
 1238 002e F0BC     		pop	{r4, r5, r6, r7}
 1239 0030 7047     		bx	lr
 1240              	.LVL18:
 1241              	.L14:
 1242              	.LBB106:
 1243              	.LBB107:
 1244              		.loc 1 104 0
 1245 0032 40F20004 		movw	r4, #:lower16:.LANCHOR1
 1246              		.loc 1 105 0
 1247 0036 40F20002 		movw	r2, #:lower16:.LANCHOR2
 1248              		.loc 1 106 0
 1249 003a 40F20003 		movw	r3, #:lower16:.LANCHOR3
 1250              		.loc 1 104 0
 1251 003e 0120     		movs	r0, #1
 1252 0040 C0F20004 		movt	r4, #:upper16:.LANCHOR1
 1253              		.loc 1 105 0
 1254 0044 C0F20002 		movt	r2, #:upper16:.LANCHOR2
 1255              		.loc 1 106 0
 1256 0048 C0F20003 		movt	r3, #:upper16:.LANCHOR3
 1257              		.loc 1 104 0
 1258 004c 2070     		strb	r0, [r4]
 1259              		.loc 1 105 0
 1260 004e 1070     		strb	r0, [r2]
 1261              		.loc 1 106 0
 1262 0050 1960     		str	r1, [r3]
 1263              	.LBE107:
 1264              	.LBE106:
 1265              		.loc 1 131 0
 1266 0052 F0BC     		pop	{r4, r5, r6, r7}
 1267 0054 7047     		bx	lr
 1268              		.cfi_endproc
 1269              	.LFE225:
 1270              		.size	_test_assert_sequence, .-_test_assert_sequence
ARM GAS  /tmp/ccOPYu5Z.s 			page 86


 1271 0056 00BFAFF3 		.section	.text._test_assert_time_window,"ax",%progbits
 1271      0080AFF3 
 1271      0080
 1272              		.align	2
 1273              		.p2align 4,,15
 1274              		.global	_test_assert_time_window
 1275              		.thumb
 1276              		.thumb_func
 1277              		.type	_test_assert_time_window, %function
 1278              	_test_assert_time_window:
 1279              	.LFB226:
 1280              		.loc 1 135 0
 1281              		.cfi_startproc
 1282              		@ args = 0, pretend = 0, frame = 0
 1283              		@ frame_needed = 0, uses_anonymous_args = 0
 1284              		@ link register save eliminated.
 1285              	.LVL19:
 1286              	.LBB108:
 1287              	.LBB109:
 1288              	.LBB110:
 1289              	.LBB111:
 1290              	.LBB112:
 1291              		.file 2 "../os/hal/ports/STM32/LLD/TIMv1/hal_st_lld.h"
 1292              		.loc 2 141 0
 1293 0000 4FF08043 		mov	r3, #1073741824
 1294 0004 5B6A     		ldr	r3, [r3, #36]
 1295              	.LVL20:
 1296              	.LBE112:
 1297              	.LBE111:
 1298              	.LBE110:
 1299              	.LBE109:
 1300              	.LBE108:
 1301              	.LBB113:
 1302              	.LBB114:
 1303              	.LBB115:
 1304              		.file 3 "../os/rt/include/chvt.h"
 1305              		.loc 3 452 0
 1306 0006 091A     		subs	r1, r1, r0
 1307              	.LVL21:
 1308 0008 1B1A     		subs	r3, r3, r0
 1309              	.LVL22:
 1310              	.LBE115:
 1311              	.LBE114:
 1312              	.LBE113:
 1313              	.LBB116:
 1314              	.LBB117:
 1315              		.loc 1 112 0
 1316 000a 89B2     		uxth	r1, r1
 1317 000c 9BB2     		uxth	r3, r3
 1318              	.LVL23:
 1319 000e 8B42     		cmp	r3, r1
 1320              	.LBE117:
 1321              	.LBE116:
 1322              		.loc 1 135 0
 1323 0010 10B4     		push	{r4}
 1324              		.cfi_def_cfa_offset 4
 1325              		.cfi_offset 4, -4
ARM GAS  /tmp/ccOPYu5Z.s 			page 87


 1326              	.LBB121:
 1327              	.LBB120:
 1328              		.loc 1 114 0
 1329 0012 38BF     		it	cc
 1330 0014 0020     		movcc	r0, #0
 1331              	.LVL24:
 1332              		.loc 1 112 0
 1333 0016 0FD3     		bcc	.L16
 1334              	.LVL25:
 1335              	.LBB118:
 1336              	.LBB119:
 1337              		.loc 1 104 0
 1338 0018 40F20004 		movw	r4, #:lower16:.LANCHOR1
 1339              		.loc 1 105 0
 1340 001c 40F20001 		movw	r1, #:lower16:.LANCHOR2
 1341              		.loc 1 106 0
 1342 0020 40F20003 		movw	r3, #:lower16:.LANCHOR3
 1343              		.loc 1 104 0
 1344 0024 0120     		movs	r0, #1
 1345 0026 C0F20004 		movt	r4, #:upper16:.LANCHOR1
 1346              		.loc 1 105 0
 1347 002a C0F20001 		movt	r1, #:upper16:.LANCHOR2
 1348              		.loc 1 106 0
 1349 002e C0F20003 		movt	r3, #:upper16:.LANCHOR3
 1350              		.loc 1 104 0
 1351 0032 2070     		strb	r0, [r4]
 1352              		.loc 1 105 0
 1353 0034 0870     		strb	r0, [r1]
 1354              		.loc 1 106 0
 1355 0036 1A60     		str	r2, [r3]
 1356              	.LVL26:
 1357              	.L16:
 1358              	.LBE119:
 1359              	.LBE118:
 1360              	.LBE120:
 1361              	.LBE121:
 1362              		.loc 1 139 0
 1363 0038 5DF8044B 		ldr	r4, [sp], #4
 1364 003c 7047     		bx	lr
 1365              		.cfi_endproc
 1366              	.LFE226:
 1367              		.size	_test_assert_time_window, .-_test_assert_time_window
 1368 003e 00BF     		.section	.text.test_printn,"ax",%progbits
 1369              		.align	2
 1370              		.p2align 4,,15
 1371              		.global	test_printn
 1372              		.thumb
 1373              		.thumb_func
 1374              		.type	test_printn, %function
 1375              	test_printn:
 1376              	.LFB227:
 1377              		.loc 1 148 0
 1378              		.cfi_startproc
 1379              		@ args = 0, pretend = 0, frame = 16
 1380              		@ frame_needed = 0, uses_anonymous_args = 0
 1381              	.LVL27:
 1382 0000 70B5     		push	{r4, r5, r6, lr}
ARM GAS  /tmp/ccOPYu5Z.s 			page 88


 1383              		.cfi_def_cfa_offset 16
 1384              		.cfi_offset 4, -16
 1385              		.cfi_offset 5, -12
 1386              		.cfi_offset 6, -8
 1387              		.cfi_offset 14, -4
 1388 0002 84B0     		sub	sp, sp, #16
 1389              		.cfi_def_cfa_offset 32
 1390              		.loc 1 151 0
 1391 0004 48B3     		cbz	r0, .L26
 1392 0006 0DF10105 		add	r5, sp, #1
 1393              		.loc 1 156 0
 1394 000a 4CF6CD46 		movw	r6, #52429
 1395 000e 2B46     		mov	r3, r5
 1396 0010 CCF6CC46 		movt	r6, 52428
 1397              	.LVL28:
 1398              	.L22:
 1399 0014 A6FB0012 		umull	r1, r2, r6, r0
 1400 0018 D208     		lsrs	r2, r2, #3
 1401 001a 02EB8201 		add	r1, r2, r2, lsl #2
 1402 001e A0EB4101 		sub	r1, r0, r1, lsl #1
 1403 0022 3031     		adds	r1, r1, #48
 1404 0024 C9B2     		uxtb	r1, r1
 1405 0026 03F8011C 		strb	r1, [r3, #-1]
 1406 002a 1C46     		mov	r4, r3
 1407              	.LVL29:
 1408              		.loc 1 155 0
 1409 002c 1046     		mov	r0, r2
 1410 002e 0133     		adds	r3, r3, #1
 1411              	.LVL30:
 1412 0030 002A     		cmp	r2, #0
 1413 0032 EFD1     		bne	.L22
 1414              		.loc 1 157 0 discriminator 1
 1415 0034 6B46     		mov	r3, sp
 1416 0036 9C42     		cmp	r4, r3
 1417 0038 0DD9     		bls	.L18
 1418 003a 40F20006 		movw	r6, #:lower16:.LANCHOR0
 1419 003e C0F20006 		movt	r6, #:upper16:.LANCHOR0
 1420 0042 02E0     		b	.L25
 1421              	.LVL31:
 1422              	.L27:
 1423 0044 14F8021C 		ldrb	r1, [r4, #-2]	@ zero_extendqisi2
 1424 0048 013C     		subs	r4, r4, #1
 1425              	.LVL32:
 1426              	.L25:
 1427              		.loc 1 158 0
 1428 004a 3068     		ldr	r0, [r6]
 1429              	.LVL33:
 1430 004c 0368     		ldr	r3, [r0]
 1431 004e 9B68     		ldr	r3, [r3, #8]
 1432 0050 9847     		blx	r3
 1433              	.LVL34:
 1434              		.loc 1 157 0
 1435 0052 AC42     		cmp	r4, r5
 1436 0054 F6D1     		bne	.L27
 1437              	.LVL35:
 1438              	.L18:
 1439              		.loc 1 160 0
ARM GAS  /tmp/ccOPYu5Z.s 			page 89


 1440 0056 04B0     		add	sp, sp, #16
 1441              		@ sp needed
 1442 0058 70BD     		pop	{r4, r5, r6, pc}
 1443              	.LVL36:
 1444              	.L26:
 1445              	.LBB124:
 1446              	.LBB125:
 1447              		.loc 1 152 0
 1448 005a 40F20003 		movw	r3, #:lower16:.LANCHOR0
 1449 005e C0F20003 		movt	r3, #:upper16:.LANCHOR0
 1450 0062 1868     		ldr	r0, [r3]
 1451              	.LVL37:
 1452 0064 3021     		movs	r1, #48
 1453 0066 0368     		ldr	r3, [r0]
 1454 0068 9B68     		ldr	r3, [r3, #8]
 1455 006a 9847     		blx	r3
 1456              	.LVL38:
 1457              	.LBE125:
 1458              	.LBE124:
 1459              		.loc 1 160 0
 1460 006c 04B0     		add	sp, sp, #16
 1461              		@ sp needed
 1462 006e 70BD     		pop	{r4, r5, r6, pc}
 1463              		.cfi_endproc
 1464              	.LFE227:
 1465              		.size	test_printn, .-test_printn
 1466              		.section	.text.test_print,"ax",%progbits
 1467              		.align	2
 1468              		.p2align 4,,15
 1469              		.global	test_print
 1470              		.thumb
 1471              		.thumb_func
 1472              		.type	test_print, %function
 1473              	test_print:
 1474              	.LFB228:
 1475              		.loc 1 169 0
 1476              		.cfi_startproc
 1477              		@ args = 0, pretend = 0, frame = 0
 1478              		@ frame_needed = 0, uses_anonymous_args = 0
 1479              	.LVL39:
 1480 0000 38B5     		push	{r3, r4, r5, lr}
 1481              		.cfi_def_cfa_offset 16
 1482              		.cfi_offset 3, -16
 1483              		.cfi_offset 4, -12
 1484              		.cfi_offset 5, -8
 1485              		.cfi_offset 14, -4
 1486              		.loc 1 171 0
 1487 0002 0178     		ldrb	r1, [r0]	@ zero_extendqisi2
 1488 0004 61B1     		cbz	r1, .L28
 1489 0006 40F20005 		movw	r5, #:lower16:.LANCHOR0
 1490 000a 0446     		mov	r4, r0
 1491 000c C0F20005 		movt	r5, #:upper16:.LANCHOR0
 1492              	.LVL40:
 1493              	.L31:
 1494              		.loc 1 172 0
 1495 0010 2868     		ldr	r0, [r5]
 1496              	.LVL41:
ARM GAS  /tmp/ccOPYu5Z.s 			page 90


 1497 0012 0368     		ldr	r3, [r0]
 1498 0014 9B68     		ldr	r3, [r3, #8]
 1499 0016 9847     		blx	r3
 1500              	.LVL42:
 1501              		.loc 1 171 0
 1502 0018 14F8011F 		ldrb	r1, [r4, #1]!	@ zero_extendqisi2
 1503              	.LVL43:
 1504 001c 0029     		cmp	r1, #0
 1505 001e F7D1     		bne	.L31
 1506              	.LVL44:
 1507              	.L28:
 1508 0020 38BD     		pop	{r3, r4, r5, pc}
 1509              		.cfi_endproc
 1510              	.LFE228:
 1511              		.size	test_print, .-test_print
 1512 0022 00BFAFF3 		.section	.text.test_println,"ax",%progbits
 1512      0080AFF3 
 1512      0080AFF3 
 1512      0080
 1513              		.align	2
 1514              		.p2align 4,,15
 1515              		.global	test_println
 1516              		.thumb
 1517              		.thumb_func
 1518              		.type	test_println, %function
 1519              	test_println:
 1520              	.LFB229:
 1521              		.loc 1 182 0
 1522              		.cfi_startproc
 1523              		@ args = 0, pretend = 0, frame = 0
 1524              		@ frame_needed = 0, uses_anonymous_args = 0
 1525              	.LVL45:
 1526 0000 38B5     		push	{r3, r4, r5, lr}
 1527              		.cfi_def_cfa_offset 16
 1528              		.cfi_offset 3, -16
 1529              		.cfi_offset 4, -12
 1530              		.cfi_offset 5, -8
 1531              		.cfi_offset 14, -4
 1532              	.LBB126:
 1533              	.LBB127:
 1534              		.loc 1 171 0
 1535 0002 0178     		ldrb	r1, [r0]	@ zero_extendqisi2
 1536 0004 40F20005 		movw	r5, #:lower16:.LANCHOR0
 1537 0008 A1B1     		cbz	r1, .L43
 1538 000a 0446     		mov	r4, r0
 1539 000c C0F20005 		movt	r5, #:upper16:.LANCHOR0
 1540              	.LVL46:
 1541              	.L38:
 1542              		.loc 1 172 0
 1543 0010 2868     		ldr	r0, [r5]
 1544              	.LVL47:
 1545 0012 0368     		ldr	r3, [r0]
 1546 0014 9B68     		ldr	r3, [r3, #8]
 1547 0016 9847     		blx	r3
 1548              	.LVL48:
 1549              		.loc 1 171 0
 1550 0018 14F8011F 		ldrb	r1, [r4, #1]!	@ zero_extendqisi2
ARM GAS  /tmp/ccOPYu5Z.s 			page 91


 1551              	.LVL49:
 1552 001c 0029     		cmp	r1, #0
 1553 001e F7D1     		bne	.L38
 1554              	.LVL50:
 1555              	.L37:
 1556              	.LBE127:
 1557              	.LBE126:
 1558              		.loc 1 185 0
 1559 0020 2868     		ldr	r0, [r5]
 1560 0022 40F20001 		movw	r1, #:lower16:.LC0
 1561 0026 0368     		ldr	r3, [r0]
 1562 0028 C0F20001 		movt	r1, #:upper16:.LC0
 1563 002c 1B68     		ldr	r3, [r3]
 1564 002e 0222     		movs	r2, #2
 1565 0030 9847     		blx	r3
 1566              	.LVL51:
 1567 0032 38BD     		pop	{r3, r4, r5, pc}
 1568              	.LVL52:
 1569              	.L43:
 1570 0034 C0F20005 		movt	r5, #:upper16:.LANCHOR0
 1571 0038 F2E7     		b	.L37
 1572              		.cfi_endproc
 1573              	.LFE229:
 1574              		.size	test_println, .-test_println
 1575 003a 00BFAFF3 		.section	.text.test_emit_token,"ax",%progbits
 1575      0080
 1576              		.align	2
 1577              		.p2align 4,,15
 1578              		.global	test_emit_token
 1579              		.thumb
 1580              		.thumb_func
 1581              		.type	test_emit_token, %function
 1582              	test_emit_token:
 1583              	.LFB230:
 1584              		.loc 1 195 0
 1585              		.cfi_startproc
 1586              		@ args = 0, pretend = 0, frame = 0
 1587              		@ frame_needed = 0, uses_anonymous_args = 0
 1588              		@ link register save eliminated.
 1589              	.LVL53:
 1590              	.LBB128:
 1591              	.LBB129:
 1592              	.LBB130:
 1593              	.LBB131:
 1594              	.LBB132:
 1595              		.file 4 "../os/common/ext/CMSIS/include/cmsis_gcc.h"
 1596              		.loc 4 264 0
 1597 0000 2023     		movs	r3, #32
 1598              	@ 264 "../os/common/ext/CMSIS/include/cmsis_gcc.h" 1
 1599 0002 83F31188 		MSR basepri, r3
 1600              	@ 0 "" 2
 1601              		.thumb
 1602              	.LBE132:
 1603              	.LBE131:
 1604              	.LBE130:
 1605              	.LBE129:
 1606              	.LBE128:
ARM GAS  /tmp/ccOPYu5Z.s 			page 92


 1607              		.loc 1 198 0
 1608 0006 40F20003 		movw	r3, #:lower16:.LANCHOR5
 1609 000a C0F20003 		movt	r3, #:upper16:.LANCHOR5
 1610 000e 1A68     		ldr	r2, [r3]
 1611 0010 0449     		ldr	r1, .L46
 1612 0012 8A42     		cmp	r2, r1
 1613              		.loc 1 199 0
 1614 0014 3EBF     		ittt	cc
 1615 0016 511C     		addcc	r1, r2, #1
 1616 0018 1960     		strcc	r1, [r3]
 1617              	.LVL54:
 1618 001a 1070     		strbcc	r0, [r2]
 1619              	.LBB133:
 1620              	.LBB134:
 1621              	.LBB135:
 1622              	.LBB136:
 1623              	.LBB137:
 1624              	.LBB138:
 1625              		.loc 4 264 0
 1626 001c 0023     		movs	r3, #0
 1627              	@ 264 "../os/common/ext/CMSIS/include/cmsis_gcc.h" 1
 1628 001e 83F31188 		MSR basepri, r3
 1629              	@ 0 "" 2
 1630              		.thumb
 1631 0022 7047     		bx	lr
 1632              	.L47:
 1633              		.align	2
 1634              	.L46:
 1635 0024 10000000 		.word	.LANCHOR4+16
 1636              	.LBE138:
 1637              	.LBE137:
 1638              	.LBE136:
 1639              	.LBE135:
 1640              	.LBE134:
 1641              	.LBE133:
 1642              		.cfi_endproc
 1643              	.LFE230:
 1644              		.size	test_emit_token, .-test_emit_token
 1645 0028 AFF30080 		.section	.text.test_emit_token_i,"ax",%progbits
 1645      AFF30080 
 1646              		.align	2
 1647              		.p2align 4,,15
 1648              		.global	test_emit_token_i
 1649              		.thumb
 1650              		.thumb_func
 1651              		.type	test_emit_token_i, %function
 1652              	test_emit_token_i:
 1653              	.LFB231:
 1654              		.loc 1 210 0
 1655              		.cfi_startproc
 1656              		@ args = 0, pretend = 0, frame = 0
 1657              		@ frame_needed = 0, uses_anonymous_args = 0
 1658              		@ link register save eliminated.
 1659              	.LVL55:
 1660              		.loc 1 212 0
 1661 0000 40F20003 		movw	r3, #:lower16:.LANCHOR5
 1662 0004 C0F20003 		movt	r3, #:upper16:.LANCHOR5
ARM GAS  /tmp/ccOPYu5Z.s 			page 93


 1663 0008 1A68     		ldr	r2, [r3]
 1664 000a 0349     		ldr	r1, .L50
 1665 000c 8A42     		cmp	r2, r1
 1666              		.loc 1 213 0
 1667 000e 3EBF     		ittt	cc
 1668 0010 511C     		addcc	r1, r2, #1
 1669 0012 1070     		strbcc	r0, [r2]
 1670 0014 1960     		strcc	r1, [r3]
 1671 0016 7047     		bx	lr
 1672              	.L51:
 1673              		.align	2
 1674              	.L50:
 1675 0018 10000000 		.word	.LANCHOR4+16
 1676              		.cfi_endproc
 1677              	.LFE231:
 1678              		.size	test_emit_token_i, .-test_emit_token_i
 1679 001c AFF30080 		.section	.text.test_execute,"ax",%progbits
 1680              		.align	2
 1681              		.p2align 4,,15
 1682              		.global	test_execute
 1683              		.thumb
 1684              		.thumb_func
 1685              		.type	test_execute, %function
 1686              	test_execute:
 1687              	.LFB232:
 1688              		.loc 1 227 0
 1689              		.cfi_startproc
 1690              		@ args = 0, pretend = 0, frame = 16
 1691              		@ frame_needed = 0, uses_anonymous_args = 0
 1692              	.LVL56:
 1693 0000 2DE9F04F 		push	{r4, r5, r6, r7, r8, r9, r10, fp, lr}
 1694              		.cfi_def_cfa_offset 36
 1695              		.cfi_offset 4, -36
 1696              		.cfi_offset 5, -32
 1697              		.cfi_offset 6, -28
 1698              		.cfi_offset 7, -24
 1699              		.cfi_offset 8, -20
 1700              		.cfi_offset 9, -16
 1701              		.cfi_offset 10, -12
 1702              		.cfi_offset 11, -8
 1703              		.cfi_offset 14, -4
 1704              		.loc 1 230 0
 1705 0004 40F20004 		movw	r4, #:lower16:.LANCHOR0
 1706 0008 C0F20004 		movt	r4, #:upper16:.LANCHOR0
 1707 000c 2060     		str	r0, [r4]
 1708              		.loc 1 231 0
 1709 000e 40F20000 		movw	r0, #:lower16:.LC1
 1710              	.LVL57:
 1711              		.loc 1 227 0
 1712 0012 85B0     		sub	sp, sp, #20
 1713              		.cfi_def_cfa_offset 56
 1714              		.loc 1 231 0
 1715 0014 C0F20000 		movt	r0, #:upper16:.LC1
 1716 0018 FFF7FEFF 		bl	test_println
 1717              	.LVL58:
 1718              		.loc 1 233 0
 1719 001c 40F20000 		movw	r0, #:lower16:.LC2
ARM GAS  /tmp/ccOPYu5Z.s 			page 94


 1720 0020 C0F20000 		movt	r0, #:upper16:.LC2
 1721 0024 FFF7FEFF 		bl	test_println
 1722              	.LVL59:
 1723              		.loc 1 237 0
 1724 0028 40F20000 		movw	r0, #:lower16:.LC3
 1725 002c C0F20000 		movt	r0, #:upper16:.LC3
 1726 0030 40F20005 		movw	r5, #:lower16:.LC4
 1727 0034 FFF7FEFF 		bl	test_println
 1728              	.LVL60:
 1729 0038 C0F20005 		movt	r5, #:upper16:.LC4
 1730              	.LBB171:
 1731              	.LBB172:
 1732              		.loc 1 171 0
 1733 003c 2A21     		movs	r1, #42
 1734              	.LVL61:
 1735              	.L54:
 1736              		.loc 1 172 0
 1737 003e 2068     		ldr	r0, [r4]
 1738              	.LVL62:
 1739 0040 0368     		ldr	r3, [r0]
 1740 0042 9B68     		ldr	r3, [r3, #8]
 1741 0044 9847     		blx	r3
 1742              	.LVL63:
 1743              		.loc 1 171 0
 1744 0046 15F8011F 		ldrb	r1, [r5, #1]!	@ zero_extendqisi2
 1745              	.LVL64:
 1746 004a 0029     		cmp	r1, #0
 1747 004c F7D1     		bne	.L54
 1748              	.LBE172:
 1749              	.LBE171:
 1750              		.loc 1 239 0
 1751 004e 40F20000 		movw	r0, #:lower16:.LC14
 1752 0052 C0F20000 		movt	r0, #:upper16:.LC14
 1753 0056 40F20005 		movw	r5, #:lower16:.LC15
 1754              	.LVL65:
 1755 005a FFF7FEFF 		bl	test_println
 1756              	.LVL66:
 1757 005e C0F20005 		movt	r5, #:upper16:.LC15
 1758              	.LBB173:
 1759              	.LBB174:
 1760              		.loc 1 171 0
 1761 0062 2A21     		movs	r1, #42
 1762              	.LVL67:
 1763              	.L87:
 1764              		.loc 1 172 0
 1765 0064 2068     		ldr	r0, [r4]
 1766              	.LVL68:
 1767 0066 0368     		ldr	r3, [r0]
 1768 0068 9B68     		ldr	r3, [r3, #8]
 1769 006a 9847     		blx	r3
 1770              	.LVL69:
 1771              		.loc 1 171 0
 1772 006c 15F8011F 		ldrb	r1, [r5, #1]!	@ zero_extendqisi2
 1773              	.LVL70:
 1774 0070 0029     		cmp	r1, #0
 1775 0072 F7D1     		bne	.L87
 1776              	.LBE174:
ARM GAS  /tmp/ccOPYu5Z.s 			page 95


 1777              	.LBE173:
 1778              		.loc 1 242 0
 1779 0074 40F20000 		movw	r0, #:lower16:.LC16
 1780 0078 C0F20000 		movt	r0, #:upper16:.LC16
 1781 007c 40F20005 		movw	r5, #:lower16:.LC17
 1782              	.LVL71:
 1783 0080 FFF7FEFF 		bl	test_println
 1784              	.LVL72:
 1785 0084 C0F20005 		movt	r5, #:upper16:.LC17
 1786              	.LBB175:
 1787              	.LBB176:
 1788              		.loc 1 171 0
 1789 0088 2A21     		movs	r1, #42
 1790              	.LVL73:
 1791              	.L88:
 1792              		.loc 1 172 0
 1793 008a 2068     		ldr	r0, [r4]
 1794              	.LVL74:
 1795 008c 0368     		ldr	r3, [r0]
 1796 008e 9B68     		ldr	r3, [r3, #8]
 1797 0090 9847     		blx	r3
 1798              	.LVL75:
 1799              		.loc 1 171 0
 1800 0092 15F8011F 		ldrb	r1, [r5, #1]!	@ zero_extendqisi2
 1801              	.LVL76:
 1802 0096 0029     		cmp	r1, #0
 1803 0098 F7D1     		bne	.L88
 1804              	.LBE176:
 1805              	.LBE175:
 1806              		.loc 1 246 0
 1807 009a 40F20000 		movw	r0, #:lower16:.LC5
 1808 009e C0F20000 		movt	r0, #:upper16:.LC5
 1809 00a2 0191     		str	r1, [sp, #4]
 1810              		.loc 1 255 0
 1811 00a4 40F20007 		movw	r7, #:lower16:test_suite
 1812              		.loc 1 246 0
 1813 00a8 FFF7FEFF 		bl	test_println
 1814              	.LVL77:
 1815              		.loc 1 249 0
 1816 00ac FFF7FEFF 		bl	test_print_port_info
 1817              	.LVL78:
 1818              		.loc 1 251 0
 1819 00b0 40F20000 		movw	r0, #:lower16:.LC1
 1820 00b4 C0F20000 		movt	r0, #:upper16:.LC1
 1821              		.loc 1 255 0
 1822 00b8 C0F20007 		movt	r7, #:upper16:test_suite
 1823              		.loc 1 251 0
 1824 00bc FFF7FEFF 		bl	test_println
 1825              	.LVL79:
 1826              		.loc 1 253 0
 1827 00c0 40F20002 		movw	r2, #:lower16:.LANCHOR2
 1828 00c4 0199     		ldr	r1, [sp, #4]
 1829              		.loc 1 255 0
 1830 00c6 3B68     		ldr	r3, [r7]
 1831              		.loc 1 253 0
 1832 00c8 C0F20002 		movt	r2, #:upper16:.LANCHOR2
 1833 00cc 0392     		str	r2, [sp, #12]
ARM GAS  /tmp/ccOPYu5Z.s 			page 96


 1834 00ce 1170     		strb	r1, [r2]
 1835              	.LVL80:
 1836              		.loc 1 255 0
 1837 00d0 002B     		cmp	r3, #0
 1838 00d2 00F0DB80 		beq	.L58
 1839              	.LBB177:
 1840              	.LBB178:
 1841              	.LBB179:
 1842              	.LBB180:
 1843              		.loc 1 67 0
 1844 00d6 40F20005 		movw	r5, #:lower16:.LANCHOR5
 1845              	.LVL81:
 1846 00da 40F20009 		movw	r9, #:lower16:.LANCHOR4
 1847 00de 0437     		adds	r7, r7, #4
 1848              	.LBE180:
 1849              	.LBE179:
 1850              	.LBE178:
 1851              	.LBE177:
 1852              		.loc 1 254 0
 1853 00e0 0291     		str	r1, [sp, #8]
 1854              	.LBB188:
 1855              	.LBB185:
 1856              	.LBB183:
 1857              	.LBB181:
 1858              		.loc 1 67 0
 1859 00e2 C0F20005 		movt	r5, #:upper16:.LANCHOR5
 1860 00e6 C0F20009 		movt	r9, #:upper16:.LANCHOR4
 1861              	.LVL82:
 1862              	.L59:
 1863 00ea 029A     		ldr	r2, [sp, #8]
 1864              	.LBE181:
 1865              	.LBE183:
 1866              	.LBE185:
 1867              	.LBE188:
 1868              	.LBB189:
 1869              	.LBB190:
 1870              		.loc 1 171 0 discriminator 1
 1871 00ec 0026     		movs	r6, #0
 1872              	.LVL83:
 1873              	.LBE190:
 1874              	.LBE189:
 1875              		.loc 1 257 0 discriminator 1
 1876 00ee 53F82630 		ldr	r3, [r3, r6, lsl #2]
 1877 00f2 0132     		adds	r2, r2, #1
 1878 00f4 0292     		str	r2, [sp, #8]
 1879              	.LVL84:
 1880 00f6 4FEA8608 		lsl	r8, r6, #2
 1881 00fa 002B     		cmp	r3, #0
 1882 00fc 00F0C180 		beq	.L109
 1883              	.LVL85:
 1884              	.L82:
 1885 0100 40F2000A 		movw	r10, #:lower16:.LC6
 1886              		.loc 1 258 0
 1887 0104 FFF7FEFF 		bl	print_line
 1888              	.LVL86:
 1889 0108 C0F2000A 		movt	r10, #:upper16:.LC6
 1890              	.LBB193:
ARM GAS  /tmp/ccOPYu5Z.s 			page 97


 1891              	.LBB194:
 1892              		.loc 1 171 0
 1893 010c 2D21     		movs	r1, #45
 1894              	.LVL87:
 1895              	.L61:
 1896              		.loc 1 172 0
 1897 010e 2068     		ldr	r0, [r4]
 1898              	.LVL88:
 1899 0110 40F2000B 		movw	fp, #:lower16:.LANCHOR0
 1900 0114 0368     		ldr	r3, [r0]
 1901 0116 C0F2000B 		movt	fp, #:upper16:.LANCHOR0
 1902 011a 9B68     		ldr	r3, [r3, #8]
 1903 011c 9847     		blx	r3
 1904              	.LVL89:
 1905              		.loc 1 171 0
 1906 011e 1AF8011F 		ldrb	r1, [r10, #1]!	@ zero_extendqisi2
 1907              	.LVL90:
 1908 0122 0029     		cmp	r1, #0
 1909 0124 F3D1     		bne	.L61
 1910              	.LBE194:
 1911              	.LBE193:
 1912              		.loc 1 260 0
 1913 0126 0298     		ldr	r0, [sp, #8]
 1914 0128 FFF7FEFF 		bl	test_printn
 1915              	.LVL91:
 1916              	.LBB195:
 1917              	.LBB196:
 1918              		.loc 1 172 0
 1919 012c DBF80000 		ldr	r0, [fp]
 1920              	.LVL92:
 1921 0130 2E21     		movs	r1, #46
 1922 0132 0368     		ldr	r3, [r0]
 1923              	.LBE196:
 1924              	.LBE195:
 1925              		.loc 1 262 0
 1926 0134 0136     		adds	r6, r6, #1
 1927              	.LVL93:
 1928              	.LBB198:
 1929              	.LBB197:
 1930              		.loc 1 172 0
 1931 0136 9B68     		ldr	r3, [r3, #8]
 1932 0138 9847     		blx	r3
 1933              	.LVL94:
 1934 013a 40F2000B 		movw	fp, #:lower16:.LC18
 1935              	.LBE197:
 1936              	.LBE198:
 1937              		.loc 1 262 0
 1938 013e 3046     		mov	r0, r6
 1939 0140 FFF7FEFF 		bl	test_printn
 1940              	.LVL95:
 1941 0144 C0F2000B 		movt	fp, #:upper16:.LC18
 1942              	.LBB199:
 1943              	.LBB200:
 1944              		.loc 1 171 0
 1945 0148 2021     		movs	r1, #32
 1946              	.LVL96:
 1947              	.L89:
ARM GAS  /tmp/ccOPYu5Z.s 			page 98


 1948              		.loc 1 172 0
 1949 014a 2068     		ldr	r0, [r4]
 1950              	.LVL97:
 1951 014c 0268     		ldr	r2, [r0]
 1952 014e 9268     		ldr	r2, [r2, #8]
 1953 0150 9047     		blx	r2
 1954              	.LVL98:
 1955              		.loc 1 171 0
 1956 0152 1BF8011F 		ldrb	r1, [fp, #1]!	@ zero_extendqisi2
 1957              	.LVL99:
 1958 0156 0029     		cmp	r1, #0
 1959 0158 F7D1     		bne	.L89
 1960              	.LBE200:
 1961              	.LBE199:
 1962              		.loc 1 264 0
 1963 015a 57F8043C 		ldr	r3, [r7, #-4]
 1964 015e 53F80830 		ldr	r3, [r3, r8]
 1965 0162 1B68     		ldr	r3, [r3]
 1966              	.LVL100:
 1967              	.LBB201:
 1968              	.LBB202:
 1969              		.loc 1 171 0
 1970 0164 1978     		ldrb	r1, [r3]	@ zero_extendqisi2
 1971 0166 9B46     		mov	fp, r3
 1972              	.LVL101:
 1973 0168 39B1     		cbz	r1, .L66
 1974              	.LVL102:
 1975              	.L67:
 1976              		.loc 1 172 0
 1977 016a 2068     		ldr	r0, [r4]
 1978              	.LVL103:
 1979 016c 0268     		ldr	r2, [r0]
 1980 016e 9268     		ldr	r2, [r2, #8]
 1981 0170 9047     		blx	r2
 1982              	.LVL104:
 1983              		.loc 1 171 0
 1984 0172 1BF8011F 		ldrb	r1, [fp, #1]!	@ zero_extendqisi2
 1985              	.LVL105:
 1986 0176 0029     		cmp	r1, #0
 1987 0178 F7D1     		bne	.L67
 1988              	.LVL106:
 1989              	.L66:
 1990              	.LBE202:
 1991              	.LBE201:
 1992              		.loc 1 265 0
 1993 017a 40F20000 		movw	r0, #:lower16:.LC7
 1994 017e C0F20000 		movt	r0, #:upper16:.LC7
 1995 0182 FFF7FEFF 		bl	test_println
 1996              	.LVL107:
 1997              	.LBB203:
 1998              	.LBB204:
 1999              		.file 5 "../os/hal/osal/rt/osal.h"
 2000              		.loc 5 673 0
 2001 0186 C820     		movs	r0, #200
 2002 0188 FFF7FEFF 		bl	chThdSleep
 2003              	.LVL108:
 2004              	.LBE204:
ARM GAS  /tmp/ccOPYu5Z.s 			page 99


 2005              	.LBE203:
 2006              		.loc 1 269 0
 2007 018c 57F8042C 		ldr	r2, [r7, #-4]
 2008              	.LBB205:
 2009              	.LBB186:
 2010              		.loc 1 81 0
 2011 0190 40F2000B 		movw	fp, #:lower16:.LANCHOR1
 2012              	.LBE186:
 2013              	.LBE205:
 2014              		.loc 1 269 0
 2015 0194 52F80880 		ldr	r8, [r2, r8]
 2016              	.LVL109:
 2017              	.LBB206:
 2018              	.LBB187:
 2019              		.loc 1 81 0
 2020 0198 C0F2000B 		movt	fp, #:upper16:.LANCHOR1
 2021              		.loc 1 83 0
 2022 019c D8F80420 		ldr	r2, [r8, #4]
 2023              		.loc 1 81 0
 2024 01a0 0021     		movs	r1, #0
 2025              	.LBB184:
 2026              	.LBB182:
 2027              		.loc 1 67 0
 2028 01a2 C5F80090 		str	r9, [r5]
 2029              	.LBE182:
 2030              	.LBE184:
 2031              		.loc 1 81 0
 2032 01a6 8BF80010 		strb	r1, [fp]
 2033              		.loc 1 83 0
 2034 01aa 02B1     		cbz	r2, .L65
 2035              		.loc 1 84 0
 2036 01ac 9047     		blx	r2
 2037              	.LVL110:
 2038              	.L65:
 2039              		.loc 1 85 0
 2040 01ae D8F80C20 		ldr	r2, [r8, #12]
 2041 01b2 9047     		blx	r2
 2042              	.LVL111:
 2043              		.loc 1 86 0
 2044 01b4 D8F80820 		ldr	r2, [r8, #8]
 2045 01b8 02B1     		cbz	r2, .L68
 2046              		.loc 1 87 0
 2047 01ba 9047     		blx	r2
 2048              	.LVL112:
 2049              	.L68:
 2050              	.LBE187:
 2051              	.LBE206:
 2052              		.loc 1 270 0
 2053 01bc 9BF80030 		ldrb	r3, [fp]	@ zero_extendqisi2
 2054 01c0 002B     		cmp	r3, #0
 2055 01c2 00F08680 		beq	.L69
 2056 01c6 40F20008 		movw	r8, #:lower16:.LC8
 2057              	.LVL113:
 2058 01ca C0F20008 		movt	r8, #:upper16:.LC8
 2059              	.LBB207:
 2060              	.LBB208:
 2061              		.loc 1 171 0
ARM GAS  /tmp/ccOPYu5Z.s 			page 100


 2062 01ce 2D21     		movs	r1, #45
 2063              	.L71:
 2064              	.LVL114:
 2065              		.loc 1 172 0
 2066 01d0 2068     		ldr	r0, [r4]
 2067              	.LVL115:
 2068 01d2 0368     		ldr	r3, [r0]
 2069 01d4 9B68     		ldr	r3, [r3, #8]
 2070 01d6 9847     		blx	r3
 2071              	.LVL116:
 2072              		.loc 1 171 0
 2073 01d8 18F8011F 		ldrb	r1, [r8, #1]!	@ zero_extendqisi2
 2074              	.LVL117:
 2075 01dc 0029     		cmp	r1, #0
 2076 01de F7D1     		bne	.L71
 2077              	.LBE208:
 2078              	.LBE207:
 2079              		.loc 1 272 0
 2080 01e0 40F20003 		movw	r3, #:lower16:.LANCHOR6
 2081 01e4 C0F20003 		movt	r3, #:upper16:.LANCHOR6
 2082 01e8 1868     		ldr	r0, [r3]
 2083 01ea 40F20008 		movw	r8, #:lower16:.LC19
 2084              	.LVL118:
 2085 01ee FFF7FEFF 		bl	test_printn
 2086              	.LVL119:
 2087 01f2 C0F20008 		movt	r8, #:upper16:.LC19
 2088              	.LBB209:
 2089              	.LBB191:
 2090              		.loc 1 171 0
 2091 01f6 2021     		movs	r1, #32
 2092              	.LVL120:
 2093              	.L90:
 2094              		.loc 1 172 0
 2095 01f8 2068     		ldr	r0, [r4]
 2096              	.LVL121:
 2097 01fa 0368     		ldr	r3, [r0]
 2098 01fc 9B68     		ldr	r3, [r3, #8]
 2099 01fe 9847     		blx	r3
 2100              	.LVL122:
 2101              		.loc 1 171 0
 2102 0200 18F8011F 		ldrb	r1, [r8, #1]!	@ zero_extendqisi2
 2103              	.LVL123:
 2104 0204 0029     		cmp	r1, #0
 2105 0206 F7D1     		bne	.L90
 2106              	.LVL124:
 2107              	.LBE191:
 2108              	.LBE209:
 2109              	.LBB210:
 2110              	.LBB211:
 2111              		.loc 1 73 0
 2112 0208 2B68     		ldr	r3, [r5]
 2113 020a 4B45     		cmp	r3, r9
 2114 020c 88BF     		it	hi
 2115 020e DFF8E880 		ldrhi	r8, .L111
 2116              	.LVL125:
 2117 0212 0AD9     		bls	.L75
 2118              	.LVL126:
ARM GAS  /tmp/ccOPYu5Z.s 			page 101


 2119              	.L76:
 2120              		.loc 1 74 0
 2121 0214 2068     		ldr	r0, [r4]
 2122 0216 18F8011C 		ldrb	r1, [r8, #-1]	@ zero_extendqisi2
 2123 021a 0368     		ldr	r3, [r0]
 2124 021c 9B68     		ldr	r3, [r3, #8]
 2125 021e 9847     		blx	r3
 2126              	.LVL127:
 2127              		.loc 1 73 0
 2128 0220 2B68     		ldr	r3, [r5]
 2129              	.LVL128:
 2130 0222 9845     		cmp	r8, r3
 2131 0224 08F10108 		add	r8, r8, #1
 2132              	.LVL129:
 2133 0228 F4D3     		bcc	.L76
 2134              	.LVL130:
 2135              	.L75:
 2136 022a 40F20008 		movw	r8, #:lower16:.LC9
 2137 022e C0F20008 		movt	r8, #:upper16:.LC9
 2138              	.LBE211:
 2139              	.LBE210:
 2140              	.LBB212:
 2141              	.LBB192:
 2142              		.loc 1 171 0
 2143 0232 5D21     		movs	r1, #93
 2144              	.L74:
 2145              	.LVL131:
 2146              	.LBE192:
 2147              	.LBE212:
 2148              	.LBB213:
 2149              	.LBB214:
 2150              		.loc 1 172 0
 2151 0234 2068     		ldr	r0, [r4]
 2152              	.LVL132:
 2153 0236 0368     		ldr	r3, [r0]
 2154 0238 9B68     		ldr	r3, [r3, #8]
 2155 023a 9847     		blx	r3
 2156              	.LVL133:
 2157              		.loc 1 171 0
 2158 023c 18F8011F 		ldrb	r1, [r8, #1]!	@ zero_extendqisi2
 2159              	.LVL134:
 2160 0240 0029     		cmp	r1, #0
 2161 0242 F7D1     		bne	.L74
 2162              	.LBE214:
 2163              	.LBE213:
 2164              		.loc 1 276 0
 2165 0244 40F20003 		movw	r3, #:lower16:.LANCHOR3
 2166 0248 C0F20003 		movt	r3, #:upper16:.LANCHOR3
 2167 024c 1B68     		ldr	r3, [r3]
 2168              	.LVL135:
 2169              	.LBB215:
 2170              	.LBB216:
 2171              		.loc 1 171 0
 2172 024e 1978     		ldrb	r1, [r3]	@ zero_extendqisi2
 2173 0250 9846     		mov	r8, r3
 2174              	.LVL136:
 2175 0252 39B1     		cbz	r1, .L80
ARM GAS  /tmp/ccOPYu5Z.s 			page 102


 2176              	.LVL137:
 2177              	.L81:
 2178              		.loc 1 172 0
 2179 0254 2068     		ldr	r0, [r4]
 2180              	.LVL138:
 2181 0256 0368     		ldr	r3, [r0]
 2182 0258 9B68     		ldr	r3, [r3, #8]
 2183 025a 9847     		blx	r3
 2184              	.LVL139:
 2185              		.loc 1 171 0
 2186 025c 18F8011F 		ldrb	r1, [r8, #1]!	@ zero_extendqisi2
 2187              	.LVL140:
 2188 0260 0029     		cmp	r1, #0
 2189 0262 F7D1     		bne	.L81
 2190              	.LVL141:
 2191              	.L80:
 2192              	.LBE216:
 2193              	.LBE215:
 2194              		.loc 1 277 0
 2195 0264 40F20000 		movw	r0, #:lower16:.LC10
 2196 0268 C0F20000 		movt	r0, #:upper16:.LC10
 2197 026c FFF7FEFF 		bl	test_println
 2198              	.LVL142:
 2199              	.L79:
 2200 0270 57F8043C 		ldr	r3, [r7, #-4]
 2201              	.LVL143:
 2202 0274 4FEA8608 		lsl	r8, r6, #2
 2203              		.loc 1 257 0 discriminator 1
 2204 0278 53F82630 		ldr	r3, [r3, r6, lsl #2]
 2205 027c 002B     		cmp	r3, #0
 2206 027e 7FF43FAF 		bne	.L82
 2207              	.LVL144:
 2208              	.L109:
 2209              		.loc 1 255 0
 2210 0282 57F8043B 		ldr	r3, [r7], #4
 2211 0286 002B     		cmp	r3, #0
 2212 0288 7FF42FAF 		bne	.L59
 2213              	.LVL145:
 2214              	.L58:
 2215              		.loc 1 285 0
 2216 028c FFF7FEFF 		bl	print_line
 2217              	.LVL146:
 2218              		.loc 1 286 0
 2219 0290 40F20000 		movw	r0, #:lower16:.LC1
 2220 0294 C0F20000 		movt	r0, #:upper16:.LC1
 2221 0298 40F20005 		movw	r5, #:lower16:.LC20
 2222 029c FFF7FEFF 		bl	test_println
 2223              	.LVL147:
 2224 02a0 C0F20005 		movt	r5, #:upper16:.LC20
 2225              	.LBB217:
 2226              	.LBB218:
 2227              		.loc 1 171 0
 2228 02a4 4621     		movs	r1, #70
 2229              	.LVL148:
 2230              	.L91:
 2231              		.loc 1 172 0
 2232 02a6 2068     		ldr	r0, [r4]
ARM GAS  /tmp/ccOPYu5Z.s 			page 103


 2233              	.LVL149:
 2234 02a8 0368     		ldr	r3, [r0]
 2235 02aa 9B68     		ldr	r3, [r3, #8]
 2236 02ac 9847     		blx	r3
 2237              	.LVL150:
 2238              		.loc 1 171 0
 2239 02ae 15F8011F 		ldrb	r1, [r5, #1]!	@ zero_extendqisi2
 2240              	.LVL151:
 2241 02b2 0029     		cmp	r1, #0
 2242 02b4 F7D1     		bne	.L91
 2243              	.LBE218:
 2244              	.LBE217:
 2245              		.loc 1 288 0
 2246 02b6 039A     		ldr	r2, [sp, #12]
 2247 02b8 1378     		ldrb	r3, [r2]	@ zero_extendqisi2
 2248 02ba 8BB9     		cbnz	r3, .L110
 2249              		.loc 1 291 0
 2250 02bc 40F20000 		movw	r0, #:lower16:.LC13
 2251 02c0 C0F20000 		movt	r0, #:upper16:.LC13
 2252 02c4 FFF7FEFF 		bl	test_println
 2253              	.LVL152:
 2254              		.loc 1 297 0
 2255 02c8 039B     		ldr	r3, [sp, #12]
 2256 02ca 1878     		ldrb	r0, [r3]	@ zero_extendqisi2
 2257              		.loc 1 298 0
 2258 02cc 05B0     		add	sp, sp, #20
 2259              		@ sp needed
 2260 02ce BDE8F08F 		pop	{r4, r5, r6, r7, r8, r9, r10, fp, pc}
 2261              	.LVL153:
 2262              	.L69:
 2263              		.loc 1 280 0
 2264 02d2 40F20000 		movw	r0, #:lower16:.LC11
 2265 02d6 C0F20000 		movt	r0, #:upper16:.LC11
 2266 02da FFF7FEFF 		bl	test_println
 2267              	.LVL154:
 2268 02de C7E7     		b	.L79
 2269              	.LVL155:
 2270              	.L110:
 2271              		.loc 1 289 0
 2272 02e0 40F20000 		movw	r0, #:lower16:.LC12
 2273 02e4 C0F20000 		movt	r0, #:upper16:.LC12
 2274 02e8 FFF7FEFF 		bl	test_println
 2275              	.LVL156:
 2276              		.loc 1 297 0
 2277 02ec 039B     		ldr	r3, [sp, #12]
 2278 02ee 1878     		ldrb	r0, [r3]	@ zero_extendqisi2
 2279              		.loc 1 298 0
 2280 02f0 05B0     		add	sp, sp, #20
 2281              		@ sp needed
 2282 02f2 BDE8F08F 		pop	{r4, r5, r6, r7, r8, r9, r10, fp, pc}
 2283              	.LVL157:
 2284              	.L112:
 2285 02f6 00BF     		.align	2
 2286              	.L111:
 2287 02f8 01000000 		.word	.LANCHOR4+1
 2288              		.cfi_endproc
 2289              	.LFE232:
ARM GAS  /tmp/ccOPYu5Z.s 			page 104


 2290              		.size	test_execute, .-test_execute
 2291              		.global	test_global_fail
 2292              		.global	test_step
 2293 02fc AFF30080 		.section	.bss.test_failure_message,"aw",%nobits
 2294              		.align	2
 2295              		.set	.LANCHOR3,. + 0
 2296              		.type	test_failure_message, %object
 2297              		.size	test_failure_message, 4
 2298              	test_failure_message:
 2299 0000 00000000 		.space	4
 2300              		.section	.bss.test_local_fail,"aw",%nobits
 2301              		.set	.LANCHOR1,. + 0
 2302              		.type	test_local_fail, %object
 2303              		.size	test_local_fail, 1
 2304              	test_local_fail:
 2305 0000 00       		.space	1
 2306              		.section	.rodata.str1.4,"aMS",%progbits,1
 2307              		.align	2
 2308              	.LC0:
 2309 0000 0D0A00   		.ascii	"\015\012\000"
 2310 0003 00       		.space	1
 2311              	.LC1:
 2312 0004 00       		.ascii	"\000"
 2313 0005 000000   		.space	3
 2314              	.LC2:
 2315 0008 2A2A2A20 		.ascii	"*** ChibiOS/RT Test Suite\000"
 2315      43686962 
 2315      694F532F 
 2315      52542054 
 2315      65737420 
 2316 0022 0000     		.space	2
 2317              	.LC3:
 2318 0024 2A2A2A00 		.ascii	"***\000"
 2319              	.LC4:
 2320 0028 2A2A2A20 		.ascii	"*** Compiled:     \000"
 2320      436F6D70 
 2320      696C6564 
 2320      3A202020 
 2320      202000
 2321 003b 00       		.space	1
 2322              	.LC5:
 2323 003c 53542053 		.ascii	"ST STM32VL-Discovery\000"
 2323      544D3332 
 2323      564C2D44 
 2323      6973636F 
 2323      76657279 
 2324 0051 000000   		.space	3
 2325              	.LC6:
 2326 0054 2D2D2D20 		.ascii	"--- Test Case \000"
 2326      54657374 
 2326      20436173 
 2326      652000
 2327 0063 00       		.space	1
 2328              	.LC7:
 2329 0064 2900     		.ascii	")\000"
 2330 0066 0000     		.space	2
 2331              	.LC8:
ARM GAS  /tmp/ccOPYu5Z.s 			page 105


 2332 0068 2D2D2D20 		.ascii	"--- Result: FAILURE (#\000"
 2332      52657375 
 2332      6C743A20 
 2332      4641494C 
 2332      55524520 
 2333 007f 00       		.space	1
 2334              	.LC9:
 2335 0080 5D202200 		.ascii	"] \"\000"
 2336              	.LC10:
 2337 0084 222900   		.ascii	"\")\000"
 2338 0087 00       		.space	1
 2339              	.LC11:
 2340 0088 2D2D2D20 		.ascii	"--- Result: SUCCESS\000"
 2340      52657375 
 2340      6C743A20 
 2340      53554343 
 2340      45535300 
 2341              	.LC12:
 2342 009c 4641494C 		.ascii	"FAILURE\000"
 2342      55524500 
 2343              	.LC13:
 2344 00a4 53554343 		.ascii	"SUCCESS\000"
 2344      45535300 
 2345              	.LC14:
 2346 00ac 4A616E20 		.ascii	"Jan 17 2018 - 07:15:03\000"
 2346      31372032 
 2346      30313820 
 2346      2D203037 
 2346      3A31353A 
 2347 00c3 00       		.space	1
 2348              	.LC15:
 2349 00c4 2A2A2A20 		.ascii	"*** Platform:     \000"
 2349      506C6174 
 2349      666F726D 
 2349      3A202020 
 2349      202000
 2350 00d7 00       		.space	1
 2351              	.LC16:
 2352 00d8 53544D33 		.ascii	"STM32F100 Value Line Medium Density\000"
 2352      32463130 
 2352      30205661 
 2352      6C756520 
 2352      4C696E65 
 2353              	.LC17:
 2354 00fc 2A2A2A20 		.ascii	"*** Test Board:   \000"
 2354      54657374 
 2354      20426F61 
 2354      72643A20 
 2354      202000
 2355 010f 00       		.space	1
 2356              	.LC18:
 2357 0110 202800   		.ascii	" (\000"
 2358 0113 00       		.space	1
 2359              	.LC19:
 2360 0114 205B00   		.ascii	" [\000"
 2361 0117 00       		.space	1
 2362              	.LC20:
ARM GAS  /tmp/ccOPYu5Z.s 			page 106


 2363 0118 46696E61 		.ascii	"Final result: \000"
 2363      6C207265 
 2363      73756C74 
 2363      3A2000
 2364 0127 00       		.section	.bss.test_chp,"aw",%nobits
 2365              		.align	2
 2366              		.set	.LANCHOR0,. + 0
 2367              		.type	test_chp, %object
 2368              		.size	test_chp, 4
 2369              	test_chp:
 2370 0000 00000000 		.space	4
 2371              		.section	.bss.test_tokp,"aw",%nobits
 2372              		.align	2
 2373              		.set	.LANCHOR5,. + 0
 2374              		.type	test_tokp, %object
 2375              		.size	test_tokp, 4
 2376              	test_tokp:
 2377 0000 00000000 		.space	4
 2378              		.section	.bss.test_step,"aw",%nobits
 2379              		.align	2
 2380              		.set	.LANCHOR6,. + 0
 2381              		.type	test_step, %object
 2382              		.size	test_step, 4
 2383              	test_step:
 2384 0000 00000000 		.space	4
 2385              		.section	.bss.test_tokens_buffer,"aw",%nobits
 2386              		.align	2
 2387              		.set	.LANCHOR4,. + 0
 2388              		.type	test_tokens_buffer, %object
 2389              		.size	test_tokens_buffer, 16
 2390              	test_tokens_buffer:
 2391 0000 00000000 		.space	16
 2391      00000000 
 2391      00000000 
 2391      00000000 
 2392              		.section	.bss.test_global_fail,"aw",%nobits
 2393              		.set	.LANCHOR2,. + 0
 2394              		.type	test_global_fail, %object
 2395              		.size	test_global_fail, 1
 2396              	test_global_fail:
 2397 0000 00       		.space	1
 2398              		.text
 2399              	.Letext0:
 2400              		.file 6 "/usr/lib/gcc/arm-none-eabi/4.8.2/include/stddef.h"
 2401              		.file 7 "/usr/include/newlib/machine/_default_types.h"
 2402              		.file 8 "/usr/include/newlib/stdint.h"
 2403              		.file 9 "../os/common/ports/ARMCMx/compilers/GCC/chtypes.h"
 2404              		.file 10 "../os/rt/include/chsystypes.h"
 2405              		.file 11 "../os/rt/include/chschd.h"
 2406              		.file 12 "../os/common/ports/ARMCMx/chcore.h"
 2407              		.file 13 "../os/common/ports/ARMCMx/chcore_v7m.h"
 2408              		.file 14 "../os/hal/ports/STM32/LLD/TIMv1/stm32_tim.h"
 2409              		.file 15 "../os/rt/include/chsem.h"
 2410              		.file 16 "../os/rt/include/chmtx.h"
 2411              		.file 17 "../os/hal/include/hal_streams.h"
 2412              		.file 18 "../test/lib/ch_test.h"
 2413              		.file 19 "../os/common/ports/ARMCMx/chcore_timer.h"
ARM GAS  /tmp/ccOPYu5Z.s 			page 107


 2414              		.file 20 "../os/rt/include/chsys.h"
 2415              		.file 21 "../os/common/ext/CMSIS/include/core_cm3.h"
 2416              		.file 22 "../test/rt/source/test/test_root.h"
 2417              		.file 23 "../os/rt/include/chthreads.h"
 2418              		.section	.debug_info,"",%progbits
 2419              	.Ldebug_info0:
 2420 0000 C6120000 		.4byte	0x12c6
 2421 0004 0400     		.2byte	0x4
 2422 0006 00000000 		.4byte	.Ldebug_abbrev0
 2423 000a 04       		.byte	0x4
 2424 000b 01       		.uleb128 0x1
 2425 000c 7A060000 		.4byte	.LASF154
 2426 0010 01       		.byte	0x1
 2427 0011 53030000 		.4byte	.LASF155
 2428 0015 47020000 		.4byte	.LASF156
 2429 0019 98000000 		.4byte	.Ldebug_ranges0+0x98
 2430 001d 00000000 		.4byte	0
 2431 0021 00000000 		.4byte	.Ldebug_line0
 2432 0025 02       		.uleb128 0x2
 2433 0026 04       		.byte	0x4
 2434 0027 05       		.byte	0x5
 2435 0028 696E7400 		.ascii	"int\000"
 2436 002c 03       		.uleb128 0x3
 2437 002d 12000000 		.4byte	.LASF2
 2438 0031 06       		.byte	0x6
 2439 0032 D4       		.byte	0xd4
 2440 0033 37000000 		.4byte	0x37
 2441 0037 04       		.uleb128 0x4
 2442 0038 04       		.byte	0x4
 2443 0039 07       		.byte	0x7
 2444 003a 57050000 		.4byte	.LASF0
 2445 003e 04       		.uleb128 0x4
 2446 003f 01       		.byte	0x1
 2447 0040 06       		.byte	0x6
 2448 0041 1F010000 		.4byte	.LASF1
 2449 0045 03       		.uleb128 0x3
 2450 0046 34000000 		.4byte	.LASF3
 2451 004a 07       		.byte	0x7
 2452 004b 1C       		.byte	0x1c
 2453 004c 50000000 		.4byte	0x50
 2454 0050 04       		.uleb128 0x4
 2455 0051 01       		.byte	0x1
 2456 0052 08       		.byte	0x8
 2457 0053 4C040000 		.4byte	.LASF4
 2458 0057 04       		.uleb128 0x4
 2459 0058 02       		.byte	0x2
 2460 0059 05       		.byte	0x5
 2461 005a 62040000 		.4byte	.LASF5
 2462 005e 03       		.uleb128 0x3
 2463 005f 4C050000 		.4byte	.LASF6
 2464 0063 07       		.byte	0x7
 2465 0064 26       		.byte	0x26
 2466 0065 69000000 		.4byte	0x69
 2467 0069 04       		.uleb128 0x4
 2468 006a 02       		.byte	0x2
 2469 006b 07       		.byte	0x7
 2470 006c D6050000 		.4byte	.LASF7
ARM GAS  /tmp/ccOPYu5Z.s 			page 108


 2471 0070 03       		.uleb128 0x3
 2472 0071 09030000 		.4byte	.LASF8
 2473 0075 07       		.byte	0x7
 2474 0076 37       		.byte	0x37
 2475 0077 7B000000 		.4byte	0x7b
 2476 007b 04       		.uleb128 0x4
 2477 007c 04       		.byte	0x4
 2478 007d 05       		.byte	0x5
 2479 007e 6A010000 		.4byte	.LASF9
 2480 0082 03       		.uleb128 0x3
 2481 0083 A2050000 		.4byte	.LASF10
 2482 0087 07       		.byte	0x7
 2483 0088 38       		.byte	0x38
 2484 0089 8D000000 		.4byte	0x8d
 2485 008d 04       		.uleb128 0x4
 2486 008e 04       		.byte	0x4
 2487 008f 07       		.byte	0x7
 2488 0090 29050000 		.4byte	.LASF11
 2489 0094 04       		.uleb128 0x4
 2490 0095 08       		.byte	0x8
 2491 0096 05       		.byte	0x5
 2492 0097 9F010000 		.4byte	.LASF12
 2493 009b 03       		.uleb128 0x3
 2494 009c 39030000 		.4byte	.LASF13
 2495 00a0 07       		.byte	0x7
 2496 00a1 4E       		.byte	0x4e
 2497 00a2 A6000000 		.4byte	0xa6
 2498 00a6 04       		.uleb128 0x4
 2499 00a7 08       		.byte	0x8
 2500 00a8 07       		.byte	0x7
 2501 00a9 6F000000 		.4byte	.LASF14
 2502 00ad 03       		.uleb128 0x3
 2503 00ae 5D060000 		.4byte	.LASF15
 2504 00b2 08       		.byte	0x8
 2505 00b3 2A       		.byte	0x2a
 2506 00b4 45000000 		.4byte	0x45
 2507 00b8 03       		.uleb128 0x3
 2508 00b9 AD010000 		.4byte	.LASF16
 2509 00bd 08       		.byte	0x8
 2510 00be 36       		.byte	0x36
 2511 00bf 5E000000 		.4byte	0x5e
 2512 00c3 03       		.uleb128 0x3
 2513 00c4 44040000 		.4byte	.LASF17
 2514 00c8 08       		.byte	0x8
 2515 00c9 41       		.byte	0x41
 2516 00ca 70000000 		.4byte	0x70
 2517 00ce 03       		.uleb128 0x3
 2518 00cf F7040000 		.4byte	.LASF18
 2519 00d3 08       		.byte	0x8
 2520 00d4 42       		.byte	0x42
 2521 00d5 82000000 		.4byte	0x82
 2522 00d9 03       		.uleb128 0x3
 2523 00da 2B000000 		.4byte	.LASF19
 2524 00de 08       		.byte	0x8
 2525 00df 4E       		.byte	0x4e
 2526 00e0 9B000000 		.4byte	0x9b
 2527 00e4 03       		.uleb128 0x3
ARM GAS  /tmp/ccOPYu5Z.s 			page 109


 2528 00e5 65070000 		.4byte	.LASF20
 2529 00e9 09       		.byte	0x9
 2530 00ea 3C       		.byte	0x3c
 2531 00eb AD000000 		.4byte	0xad
 2532 00ef 03       		.uleb128 0x3
 2533 00f0 73010000 		.4byte	.LASF21
 2534 00f4 09       		.byte	0x9
 2535 00f5 3D       		.byte	0x3d
 2536 00f6 AD000000 		.4byte	0xad
 2537 00fa 03       		.uleb128 0x3
 2538 00fb 0B040000 		.4byte	.LASF22
 2539 00ff 09       		.byte	0x9
 2540 0100 3E       		.byte	0x3e
 2541 0101 AD000000 		.4byte	0xad
 2542 0105 03       		.uleb128 0x3
 2543 0106 28040000 		.4byte	.LASF23
 2544 010a 09       		.byte	0x9
 2545 010b 40       		.byte	0x40
 2546 010c CE000000 		.4byte	0xce
 2547 0110 03       		.uleb128 0x3
 2548 0111 BD020000 		.4byte	.LASF24
 2549 0115 09       		.byte	0x9
 2550 0116 41       		.byte	0x41
 2551 0117 C3000000 		.4byte	0xc3
 2552 011b 03       		.uleb128 0x3
 2553 011c FD020000 		.4byte	.LASF25
 2554 0120 09       		.byte	0x9
 2555 0121 43       		.byte	0x43
 2556 0122 CE000000 		.4byte	0xce
 2557 0126 03       		.uleb128 0x3
 2558 0127 2E020000 		.4byte	.LASF26
 2559 012b 09       		.byte	0x9
 2560 012c 45       		.byte	0x45
 2561 012d C3000000 		.4byte	0xc3
 2562 0131 03       		.uleb128 0x3
 2563 0132 8F050000 		.4byte	.LASF27
 2564 0136 0A       		.byte	0xa
 2565 0137 35       		.byte	0x35
 2566 0138 B8000000 		.4byte	0xb8
 2567 013c 03       		.uleb128 0x3
 2568 013d 69050000 		.4byte	.LASF28
 2569 0141 0A       		.byte	0xa
 2570 0142 3F       		.byte	0x3f
 2571 0143 47010000 		.4byte	0x147
 2572 0147 05       		.uleb128 0x5
 2573 0148 A8020000 		.4byte	.LASF46
 2574 014c 44       		.byte	0x44
 2575 014d 0B       		.byte	0xb
 2576 014e 9A       		.byte	0x9a
 2577 014f 25020000 		.4byte	0x225
 2578 0153 06       		.uleb128 0x6
 2579 0154 97020000 		.4byte	.LASF29
 2580 0158 0B       		.byte	0xb
 2581 0159 9B       		.byte	0x9b
 2582 015a 5A020000 		.4byte	0x25a
 2583 015e 00       		.byte	0
 2584 015f 06       		.uleb128 0x6
ARM GAS  /tmp/ccOPYu5Z.s 			page 110


 2585 0160 E4030000 		.4byte	.LASF30
 2586 0164 0B       		.byte	0xb
 2587 0165 9C       		.byte	0x9c
 2588 0166 05010000 		.4byte	0x105
 2589 016a 08       		.byte	0x8
 2590 016b 07       		.uleb128 0x7
 2591 016c 63747800 		.ascii	"ctx\000"
 2592 0170 0B       		.byte	0xb
 2593 0171 9D       		.byte	0x9d
 2594 0172 6B040000 		.4byte	0x46b
 2595 0176 0C       		.byte	0xc
 2596 0177 06       		.uleb128 0x6
 2597 0178 16060000 		.4byte	.LASF31
 2598 017c 0B       		.byte	0xb
 2599 017d 9F       		.byte	0x9f
 2600 017e 30020000 		.4byte	0x230
 2601 0182 10       		.byte	0x10
 2602 0183 06       		.uleb128 0x6
 2603 0184 B6010000 		.4byte	.LASF32
 2604 0188 0B       		.byte	0xb
 2605 0189 A0       		.byte	0xa0
 2606 018a 30020000 		.4byte	0x230
 2607 018e 14       		.byte	0x14
 2608 018f 06       		.uleb128 0x6
 2609 0190 92020000 		.4byte	.LASF33
 2610 0194 0B       		.byte	0xb
 2611 0195 A7       		.byte	0xa7
 2612 0196 F2060000 		.4byte	0x6f2
 2613 019a 18       		.byte	0x18
 2614 019b 06       		.uleb128 0x6
 2615 019c 3B050000 		.4byte	.LASF34
 2616 01a0 0B       		.byte	0xb
 2617 01a1 B0       		.byte	0xb0
 2618 01a2 04070000 		.4byte	0x704
 2619 01a6 1C       		.byte	0x1c
 2620 01a7 06       		.uleb128 0x6
 2621 01a8 64010000 		.4byte	.LASF35
 2622 01ac 0B       		.byte	0xb
 2623 01ad B5       		.byte	0xb5
 2624 01ae EF000000 		.4byte	0xef
 2625 01b2 20       		.byte	0x20
 2626 01b3 06       		.uleb128 0x6
 2627 01b4 1D070000 		.4byte	.LASF36
 2628 01b8 0B       		.byte	0xb
 2629 01b9 B9       		.byte	0xb9
 2630 01ba E4000000 		.4byte	0xe4
 2631 01be 21       		.byte	0x21
 2632 01bf 06       		.uleb128 0x6
 2633 01c0 13040000 		.4byte	.LASF37
 2634 01c4 0B       		.byte	0xb
 2635 01c5 BE       		.byte	0xbe
 2636 01c6 FA000000 		.4byte	0xfa
 2637 01ca 22       		.byte	0x22
 2638 01cb 08       		.uleb128 0x8
 2639 01cc 7500     		.ascii	"u\000"
 2640 01ce 0B       		.byte	0xb
 2641 01cf 0F01     		.2byte	0x10f
ARM GAS  /tmp/ccOPYu5Z.s 			page 111


 2642 01d1 27060000 		.4byte	0x627
 2643 01d5 24       		.byte	0x24
 2644 01d6 09       		.uleb128 0x9
 2645 01d7 F7010000 		.4byte	.LASF38
 2646 01db 0B       		.byte	0xb
 2647 01dc 1401     		.2byte	0x114
 2648 01de 36020000 		.4byte	0x236
 2649 01e2 28       		.byte	0x28
 2650 01e3 09       		.uleb128 0x9
 2651 01e4 5B010000 		.4byte	.LASF39
 2652 01e8 0B       		.byte	0xb
 2653 01e9 1A01     		.2byte	0x11a
 2654 01eb 5A020000 		.4byte	0x25a
 2655 01ef 2C       		.byte	0x2c
 2656 01f0 09       		.uleb128 0x9
 2657 01f1 C3020000 		.4byte	.LASF40
 2658 01f5 0B       		.byte	0xb
 2659 01f6 2001     		.2byte	0x120
 2660 01f8 1B010000 		.4byte	0x11b
 2661 01fc 34       		.byte	0x34
 2662 01fd 09       		.uleb128 0x9
 2663 01fe 7F070000 		.4byte	.LASF41
 2664 0202 0B       		.byte	0xb
 2665 0203 2701     		.2byte	0x127
 2666 0205 EC060000 		.4byte	0x6ec
 2667 0209 38       		.byte	0x38
 2668 020a 09       		.uleb128 0x9
 2669 020b 4A030000 		.4byte	.LASF42
 2670 020f 0B       		.byte	0xb
 2671 0210 2B01     		.2byte	0x12b
 2672 0212 05010000 		.4byte	0x105
 2673 0216 3C       		.byte	0x3c
 2674 0217 09       		.uleb128 0x9
 2675 0218 9D020000 		.4byte	.LASF43
 2676 021c 0B       		.byte	0xb
 2677 021d 3201     		.2byte	0x132
 2678 021f 0D030000 		.4byte	0x30d
 2679 0223 40       		.byte	0x40
 2680 0224 00       		.byte	0
 2681 0225 03       		.uleb128 0x3
 2682 0226 72030000 		.4byte	.LASF44
 2683 022a 0A       		.byte	0xa
 2684 022b 44       		.byte	0x44
 2685 022c 30020000 		.4byte	0x230
 2686 0230 0A       		.uleb128 0xa
 2687 0231 04       		.byte	0x4
 2688 0232 3C010000 		.4byte	0x13c
 2689 0236 03       		.uleb128 0x3
 2690 0237 44070000 		.4byte	.LASF45
 2691 023b 0A       		.byte	0xa
 2692 023c 49       		.byte	0x49
 2693 023d 41020000 		.4byte	0x241
 2694 0241 05       		.uleb128 0x5
 2695 0242 13050000 		.4byte	.LASF47
 2696 0246 04       		.byte	0x4
 2697 0247 0B       		.byte	0xb
 2698 0248 88       		.byte	0x88
ARM GAS  /tmp/ccOPYu5Z.s 			page 112


 2699 0249 5A020000 		.4byte	0x25a
 2700 024d 06       		.uleb128 0x6
 2701 024e 19000000 		.4byte	.LASF48
 2702 0252 0B       		.byte	0xb
 2703 0253 89       		.byte	0x89
 2704 0254 30020000 		.4byte	0x230
 2705 0258 00       		.byte	0
 2706 0259 00       		.byte	0
 2707 025a 03       		.uleb128 0x3
 2708 025b 31060000 		.4byte	.LASF49
 2709 025f 0A       		.byte	0xa
 2710 0260 50       		.byte	0x50
 2711 0261 65020000 		.4byte	0x265
 2712 0265 05       		.uleb128 0x5
 2713 0266 E6000000 		.4byte	.LASF50
 2714 026a 08       		.byte	0x8
 2715 026b 0B       		.byte	0xb
 2716 026c 8F       		.byte	0x8f
 2717 026d 8A020000 		.4byte	0x28a
 2718 0271 06       		.uleb128 0x6
 2719 0272 19000000 		.4byte	.LASF48
 2720 0276 0B       		.byte	0xb
 2721 0277 90       		.byte	0x90
 2722 0278 30020000 		.4byte	0x230
 2723 027c 00       		.byte	0
 2724 027d 06       		.uleb128 0x6
 2725 027e 3E000000 		.4byte	.LASF51
 2726 0282 0B       		.byte	0xb
 2727 0283 91       		.byte	0x91
 2728 0284 30020000 		.4byte	0x230
 2729 0288 04       		.byte	0x4
 2730 0289 00       		.byte	0
 2731 028a 03       		.uleb128 0x3
 2732 028b 00000000 		.4byte	.LASF52
 2733 028f 0A       		.byte	0xa
 2734 0290 57       		.byte	0x57
 2735 0291 95020000 		.4byte	0x295
 2736 0295 0B       		.uleb128 0xb
 2737 0296 EF020000 		.4byte	.LASF53
 2738 029a 1C       		.byte	0x1c
 2739 029b 0B       		.byte	0xb
 2740 029c 6A01     		.2byte	0x16a
 2741 029e F1020000 		.4byte	0x2f1
 2742 02a2 09       		.uleb128 0x9
 2743 02a3 97020000 		.4byte	.LASF29
 2744 02a7 0B       		.byte	0xb
 2745 02a8 6B01     		.2byte	0x16b
 2746 02aa 5A020000 		.4byte	0x25a
 2747 02ae 00       		.byte	0
 2748 02af 09       		.uleb128 0x9
 2749 02b0 E4030000 		.4byte	.LASF30
 2750 02b4 0B       		.byte	0xb
 2751 02b5 6C01     		.2byte	0x16c
 2752 02b7 05010000 		.4byte	0x105
 2753 02bb 08       		.byte	0x8
 2754 02bc 08       		.uleb128 0x8
 2755 02bd 63747800 		.ascii	"ctx\000"
ARM GAS  /tmp/ccOPYu5Z.s 			page 113


 2756 02c1 0B       		.byte	0xb
 2757 02c2 6E01     		.2byte	0x16e
 2758 02c4 6B040000 		.4byte	0x46b
 2759 02c8 0C       		.byte	0xc
 2760 02c9 09       		.uleb128 0x9
 2761 02ca 16060000 		.4byte	.LASF31
 2762 02ce 0B       		.byte	0xb
 2763 02cf 7101     		.2byte	0x171
 2764 02d1 30020000 		.4byte	0x230
 2765 02d5 10       		.byte	0x10
 2766 02d6 09       		.uleb128 0x9
 2767 02d7 B6010000 		.4byte	.LASF32
 2768 02db 0B       		.byte	0xb
 2769 02dc 7201     		.2byte	0x172
 2770 02de 30020000 		.4byte	0x230
 2771 02e2 14       		.byte	0x14
 2772 02e3 09       		.uleb128 0x9
 2773 02e4 E9030000 		.4byte	.LASF54
 2774 02e8 0B       		.byte	0xb
 2775 02e9 7501     		.2byte	0x175
 2776 02eb 30020000 		.4byte	0x230
 2777 02ef 18       		.byte	0x18
 2778 02f0 00       		.byte	0
 2779 02f1 03       		.uleb128 0x3
 2780 02f2 99050000 		.4byte	.LASF55
 2781 02f6 0A       		.byte	0xa
 2782 02f7 5C       		.byte	0x5c
 2783 02f8 FC020000 		.4byte	0x2fc
 2784 02fc 0A       		.uleb128 0xa
 2785 02fd 04       		.byte	0x4
 2786 02fe 02030000 		.4byte	0x302
 2787 0302 0C       		.uleb128 0xc
 2788 0303 0D030000 		.4byte	0x30d
 2789 0307 0D       		.uleb128 0xd
 2790 0308 0D030000 		.4byte	0x30d
 2791 030c 00       		.byte	0
 2792 030d 0E       		.uleb128 0xe
 2793 030e 04       		.byte	0x4
 2794 030f 03       		.uleb128 0x3
 2795 0310 18040000 		.4byte	.LASF56
 2796 0314 0A       		.byte	0xa
 2797 0315 61       		.byte	0x61
 2798 0316 1A030000 		.4byte	0x31a
 2799 031a 0B       		.uleb128 0xb
 2800 031b B6040000 		.4byte	.LASF57
 2801 031f 14       		.byte	0x14
 2802 0320 0B       		.byte	0xb
 2803 0321 4501     		.2byte	0x145
 2804 0323 69030000 		.4byte	0x369
 2805 0327 09       		.uleb128 0x9
 2806 0328 19000000 		.4byte	.LASF48
 2807 032c 0B       		.byte	0xb
 2808 032d 4601     		.2byte	0x146
 2809 032f 0A070000 		.4byte	0x70a
 2810 0333 00       		.byte	0
 2811 0334 09       		.uleb128 0x9
 2812 0335 3E000000 		.4byte	.LASF51
ARM GAS  /tmp/ccOPYu5Z.s 			page 114


 2813 0339 0B       		.byte	0xb
 2814 033a 4701     		.2byte	0x147
 2815 033c 0A070000 		.4byte	0x70a
 2816 0340 04       		.byte	0x4
 2817 0341 09       		.uleb128 0x9
 2818 0342 1E000000 		.4byte	.LASF58
 2819 0346 0B       		.byte	0xb
 2820 0347 4801     		.2byte	0x148
 2821 0349 31010000 		.4byte	0x131
 2822 034d 08       		.byte	0x8
 2823 034e 09       		.uleb128 0x9
 2824 034f 95010000 		.4byte	.LASF59
 2825 0353 0B       		.byte	0xb
 2826 0354 4901     		.2byte	0x149
 2827 0356 F1020000 		.4byte	0x2f1
 2828 035a 0C       		.byte	0xc
 2829 035b 08       		.uleb128 0x8
 2830 035c 70617200 		.ascii	"par\000"
 2831 0360 0B       		.byte	0xb
 2832 0361 4B01     		.2byte	0x14b
 2833 0363 0D030000 		.4byte	0x30d
 2834 0367 10       		.byte	0x10
 2835 0368 00       		.byte	0
 2836 0369 03       		.uleb128 0x3
 2837 036a BE000000 		.4byte	.LASF60
 2838 036e 0A       		.byte	0xa
 2839 036f 66       		.byte	0x66
 2840 0370 74030000 		.4byte	0x374
 2841 0374 0B       		.uleb128 0xb
 2842 0375 85030000 		.4byte	.LASF61
 2843 0379 0C       		.byte	0xc
 2844 037a 0B       		.byte	0xb
 2845 037b 5501     		.2byte	0x155
 2846 037d B6030000 		.4byte	0x3b6
 2847 0381 09       		.uleb128 0x9
 2848 0382 19000000 		.4byte	.LASF48
 2849 0386 0B       		.byte	0xb
 2850 0387 5601     		.2byte	0x156
 2851 0389 0A070000 		.4byte	0x70a
 2852 038d 00       		.byte	0
 2853 038e 09       		.uleb128 0x9
 2854 038f 3E000000 		.4byte	.LASF51
 2855 0393 0B       		.byte	0xb
 2856 0394 5801     		.2byte	0x158
 2857 0396 0A070000 		.4byte	0x70a
 2858 039a 04       		.byte	0x4
 2859 039b 09       		.uleb128 0x9
 2860 039c 1E000000 		.4byte	.LASF58
 2861 03a0 0B       		.byte	0xb
 2862 03a1 5A01     		.2byte	0x15a
 2863 03a3 31010000 		.4byte	0x131
 2864 03a7 08       		.byte	0x8
 2865 03a8 09       		.uleb128 0x9
 2866 03a9 6C040000 		.4byte	.LASF62
 2867 03ad 0B       		.byte	0xb
 2868 03ae 6201     		.2byte	0x162
 2869 03b0 31010000 		.4byte	0x131
ARM GAS  /tmp/ccOPYu5Z.s 			page 115


 2870 03b4 0A       		.byte	0xa
 2871 03b5 00       		.byte	0
 2872 03b6 03       		.uleb128 0x3
 2873 03b7 4F000000 		.4byte	.LASF63
 2874 03bb 0A       		.byte	0xa
 2875 03bc 6B       		.byte	0x6b
 2876 03bd C1030000 		.4byte	0x3c1
 2877 03c1 0B       		.uleb128 0xb
 2878 03c2 E7010000 		.4byte	.LASF64
 2879 03c6 04       		.byte	0x4
 2880 03c7 0B       		.byte	0xb
 2881 03c8 7C01     		.2byte	0x17c
 2882 03ca DC030000 		.4byte	0x3dc
 2883 03ce 09       		.uleb128 0x9
 2884 03cf BB050000 		.4byte	.LASF65
 2885 03d3 0B       		.byte	0xb
 2886 03d4 8401     		.2byte	0x184
 2887 03d6 10070000 		.4byte	0x710
 2888 03da 00       		.byte	0
 2889 03db 00       		.byte	0
 2890 03dc 03       		.uleb128 0x3
 2891 03dd CC020000 		.4byte	.LASF66
 2892 03e1 0A       		.byte	0xa
 2893 03e2 70       		.byte	0x70
 2894 03e3 E7030000 		.4byte	0x3e7
 2895 03e7 0B       		.uleb128 0xb
 2896 03e8 7C040000 		.4byte	.LASF67
 2897 03ec 70       		.byte	0x70
 2898 03ed 0B       		.byte	0xb
 2899 03ee 9C01     		.2byte	0x19c
 2900 03f0 29040000 		.4byte	0x429
 2901 03f4 09       		.uleb128 0x9
 2902 03f5 57060000 		.4byte	.LASF68
 2903 03f9 0B       		.byte	0xb
 2904 03fa A001     		.2byte	0x1a0
 2905 03fc 8A020000 		.4byte	0x28a
 2906 0400 00       		.byte	0
 2907 0401 09       		.uleb128 0x9
 2908 0402 48010000 		.4byte	.LASF69
 2909 0406 0B       		.byte	0xb
 2910 0407 A401     		.2byte	0x1a4
 2911 0409 69030000 		.4byte	0x369
 2912 040d 1C       		.byte	0x1c
 2913 040e 08       		.uleb128 0x8
 2914 040f 64626700 		.ascii	"dbg\000"
 2915 0413 0B       		.byte	0xb
 2916 0414 A801     		.2byte	0x1a8
 2917 0416 B6030000 		.4byte	0x3b6
 2918 041a 28       		.byte	0x28
 2919 041b 09       		.uleb128 0x9
 2920 041c B2020000 		.4byte	.LASF70
 2921 0420 0B       		.byte	0xb
 2922 0421 AC01     		.2byte	0x1ac
 2923 0423 3C010000 		.4byte	0x13c
 2924 0427 2C       		.byte	0x2c
 2925 0428 00       		.byte	0
 2926 0429 04       		.uleb128 0x4
ARM GAS  /tmp/ccOPYu5Z.s 			page 116


 2927 042a 04       		.byte	0x4
 2928 042b 07       		.byte	0x7
 2929 042c 69030000 		.4byte	.LASF71
 2930 0430 0F       		.uleb128 0xf
 2931 0431 CE000000 		.4byte	0xce
 2932 0435 10       		.uleb128 0x10
 2933 0436 CE000000 		.4byte	0xce
 2934 043a 45040000 		.4byte	0x445
 2935 043e 11       		.uleb128 0x11
 2936 043f 29040000 		.4byte	0x429
 2937 0443 01       		.byte	0x1
 2938 0444 00       		.byte	0
 2939 0445 10       		.uleb128 0x10
 2940 0446 CE000000 		.4byte	0xce
 2941 044a 55040000 		.4byte	0x455
 2942 044e 11       		.uleb128 0x11
 2943 044f 29040000 		.4byte	0x429
 2944 0453 03       		.byte	0x3
 2945 0454 00       		.byte	0
 2946 0455 03       		.uleb128 0x3
 2947 0456 C9010000 		.4byte	.LASF72
 2948 045a 0C       		.byte	0xc
 2949 045b 65       		.byte	0x65
 2950 045c 0D030000 		.4byte	0x30d
 2951 0460 03       		.uleb128 0x3
 2952 0461 18030000 		.4byte	.LASF73
 2953 0465 0C       		.byte	0xc
 2954 0466 6D       		.byte	0x6d
 2955 0467 D9000000 		.4byte	0xd9
 2956 046b 05       		.uleb128 0x5
 2957 046c B6030000 		.4byte	.LASF74
 2958 0470 04       		.byte	0x4
 2959 0471 0C       		.byte	0xc
 2960 0472 89       		.byte	0x89
 2961 0473 83040000 		.4byte	0x483
 2962 0477 07       		.uleb128 0x7
 2963 0478 737000   		.ascii	"sp\000"
 2964 047b 0C       		.byte	0xc
 2965 047c 8A       		.byte	0x8a
 2966 047d FF040000 		.4byte	0x4ff
 2967 0481 00       		.byte	0
 2968 0482 00       		.byte	0
 2969 0483 0B       		.uleb128 0xb
 2970 0484 43000000 		.4byte	.LASF75
 2971 0488 24       		.byte	0x24
 2972 0489 0D       		.byte	0xd
 2973 048a 5901     		.2byte	0x159
 2974 048c FF040000 		.4byte	0x4ff
 2975 0490 08       		.uleb128 0x8
 2976 0491 723400   		.ascii	"r4\000"
 2977 0494 0D       		.byte	0xd
 2978 0495 6C01     		.2byte	0x16c
 2979 0497 55040000 		.4byte	0x455
 2980 049b 00       		.byte	0
 2981 049c 08       		.uleb128 0x8
 2982 049d 723500   		.ascii	"r5\000"
 2983 04a0 0D       		.byte	0xd
ARM GAS  /tmp/ccOPYu5Z.s 			page 117


 2984 04a1 6D01     		.2byte	0x16d
 2985 04a3 55040000 		.4byte	0x455
 2986 04a7 04       		.byte	0x4
 2987 04a8 08       		.uleb128 0x8
 2988 04a9 723600   		.ascii	"r6\000"
 2989 04ac 0D       		.byte	0xd
 2990 04ad 6E01     		.2byte	0x16e
 2991 04af 55040000 		.4byte	0x455
 2992 04b3 08       		.byte	0x8
 2993 04b4 08       		.uleb128 0x8
 2994 04b5 723700   		.ascii	"r7\000"
 2995 04b8 0D       		.byte	0xd
 2996 04b9 6F01     		.2byte	0x16f
 2997 04bb 55040000 		.4byte	0x455
 2998 04bf 0C       		.byte	0xc
 2999 04c0 08       		.uleb128 0x8
 3000 04c1 723800   		.ascii	"r8\000"
 3001 04c4 0D       		.byte	0xd
 3002 04c5 7001     		.2byte	0x170
 3003 04c7 55040000 		.4byte	0x455
 3004 04cb 10       		.byte	0x10
 3005 04cc 08       		.uleb128 0x8
 3006 04cd 723900   		.ascii	"r9\000"
 3007 04d0 0D       		.byte	0xd
 3008 04d1 7101     		.2byte	0x171
 3009 04d3 55040000 		.4byte	0x455
 3010 04d7 14       		.byte	0x14
 3011 04d8 08       		.uleb128 0x8
 3012 04d9 72313000 		.ascii	"r10\000"
 3013 04dd 0D       		.byte	0xd
 3014 04de 7201     		.2byte	0x172
 3015 04e0 55040000 		.4byte	0x455
 3016 04e4 18       		.byte	0x18
 3017 04e5 08       		.uleb128 0x8
 3018 04e6 72313100 		.ascii	"r11\000"
 3019 04ea 0D       		.byte	0xd
 3020 04eb 7301     		.2byte	0x173
 3021 04ed 55040000 		.4byte	0x455
 3022 04f1 1C       		.byte	0x1c
 3023 04f2 08       		.uleb128 0x8
 3024 04f3 6C7200   		.ascii	"lr\000"
 3025 04f6 0D       		.byte	0xd
 3026 04f7 7401     		.2byte	0x174
 3027 04f9 55040000 		.4byte	0x455
 3028 04fd 20       		.byte	0x20
 3029 04fe 00       		.byte	0
 3030 04ff 0A       		.uleb128 0xa
 3031 0500 04       		.byte	0x4
 3032 0501 83040000 		.4byte	0x483
 3033 0505 12       		.uleb128 0x12
 3034 0506 60       		.byte	0x60
 3035 0507 0E       		.byte	0xe
 3036 0508 A101     		.2byte	0x1a1
 3037 050a 11060000 		.4byte	0x611
 3038 050e 08       		.uleb128 0x8
 3039 050f 43523100 		.ascii	"CR1\000"
 3040 0513 0E       		.byte	0xe
ARM GAS  /tmp/ccOPYu5Z.s 			page 118


 3041 0514 A201     		.2byte	0x1a2
 3042 0516 30040000 		.4byte	0x430
 3043 051a 00       		.byte	0
 3044 051b 08       		.uleb128 0x8
 3045 051c 43523200 		.ascii	"CR2\000"
 3046 0520 0E       		.byte	0xe
 3047 0521 A301     		.2byte	0x1a3
 3048 0523 30040000 		.4byte	0x430
 3049 0527 04       		.byte	0x4
 3050 0528 09       		.uleb128 0x9
 3051 0529 A3020000 		.4byte	.LASF76
 3052 052d 0E       		.byte	0xe
 3053 052e A401     		.2byte	0x1a4
 3054 0530 30040000 		.4byte	0x430
 3055 0534 08       		.byte	0x8
 3056 0535 09       		.uleb128 0x9
 3057 0536 0D000000 		.4byte	.LASF77
 3058 053a 0E       		.byte	0xe
 3059 053b A501     		.2byte	0x1a5
 3060 053d 30040000 		.4byte	0x430
 3061 0541 0C       		.byte	0xc
 3062 0542 08       		.uleb128 0x8
 3063 0543 535200   		.ascii	"SR\000"
 3064 0546 0E       		.byte	0xe
 3065 0547 A601     		.2byte	0x1a6
 3066 0549 30040000 		.4byte	0x430
 3067 054d 10       		.byte	0x10
 3068 054e 08       		.uleb128 0x8
 3069 054f 45475200 		.ascii	"EGR\000"
 3070 0553 0E       		.byte	0xe
 3071 0554 A701     		.2byte	0x1a7
 3072 0556 30040000 		.4byte	0x430
 3073 055a 14       		.byte	0x14
 3074 055b 09       		.uleb128 0x9
 3075 055c 0D010000 		.4byte	.LASF78
 3076 0560 0E       		.byte	0xe
 3077 0561 A801     		.2byte	0x1a8
 3078 0563 30040000 		.4byte	0x430
 3079 0567 18       		.byte	0x18
 3080 0568 09       		.uleb128 0x9
 3081 0569 13010000 		.4byte	.LASF79
 3082 056d 0E       		.byte	0xe
 3083 056e A901     		.2byte	0x1a9
 3084 0570 30040000 		.4byte	0x430
 3085 0574 1C       		.byte	0x1c
 3086 0575 09       		.uleb128 0x9
 3087 0576 9A010000 		.4byte	.LASF80
 3088 057a 0E       		.byte	0xe
 3089 057b AA01     		.2byte	0x1aa
 3090 057d 30040000 		.4byte	0x430
 3091 0581 20       		.byte	0x20
 3092 0582 08       		.uleb128 0x8
 3093 0583 434E5400 		.ascii	"CNT\000"
 3094 0587 0E       		.byte	0xe
 3095 0588 AB01     		.2byte	0x1ab
 3096 058a 30040000 		.4byte	0x430
 3097 058e 24       		.byte	0x24
ARM GAS  /tmp/ccOPYu5Z.s 			page 119


 3098 058f 08       		.uleb128 0x8
 3099 0590 50534300 		.ascii	"PSC\000"
 3100 0594 0E       		.byte	0xe
 3101 0595 AC01     		.2byte	0x1ac
 3102 0597 30040000 		.4byte	0x430
 3103 059b 28       		.byte	0x28
 3104 059c 08       		.uleb128 0x8
 3105 059d 41525200 		.ascii	"ARR\000"
 3106 05a1 0E       		.byte	0xe
 3107 05a2 AD01     		.2byte	0x1ad
 3108 05a4 30040000 		.4byte	0x430
 3109 05a8 2C       		.byte	0x2c
 3110 05a9 08       		.uleb128 0x8
 3111 05aa 52435200 		.ascii	"RCR\000"
 3112 05ae 0E       		.byte	0xe
 3113 05af AE01     		.2byte	0x1ae
 3114 05b1 30040000 		.4byte	0x430
 3115 05b5 30       		.byte	0x30
 3116 05b6 08       		.uleb128 0x8
 3117 05b7 43435200 		.ascii	"CCR\000"
 3118 05bb 0E       		.byte	0xe
 3119 05bc AF01     		.2byte	0x1af
 3120 05be 11060000 		.4byte	0x611
 3121 05c2 34       		.byte	0x34
 3122 05c3 09       		.uleb128 0x9
 3123 05c4 E1000000 		.4byte	.LASF81
 3124 05c8 0E       		.byte	0xe
 3125 05c9 B001     		.2byte	0x1b0
 3126 05cb 30040000 		.4byte	0x430
 3127 05cf 44       		.byte	0x44
 3128 05d0 08       		.uleb128 0x8
 3129 05d1 44435200 		.ascii	"DCR\000"
 3130 05d5 0E       		.byte	0xe
 3131 05d6 B101     		.2byte	0x1b1
 3132 05d8 30040000 		.4byte	0x430
 3133 05dc 48       		.byte	0x48
 3134 05dd 09       		.uleb128 0x9
 3135 05de 64050000 		.4byte	.LASF82
 3136 05e2 0E       		.byte	0xe
 3137 05e3 B201     		.2byte	0x1b2
 3138 05e5 30040000 		.4byte	0x430
 3139 05e9 4C       		.byte	0x4c
 3140 05ea 08       		.uleb128 0x8
 3141 05eb 4F5200   		.ascii	"OR\000"
 3142 05ee 0E       		.byte	0xe
 3143 05ef B301     		.2byte	0x1b3
 3144 05f1 30040000 		.4byte	0x430
 3145 05f5 50       		.byte	0x50
 3146 05f6 09       		.uleb128 0x9
 3147 05f7 19010000 		.4byte	.LASF83
 3148 05fb 0E       		.byte	0xe
 3149 05fc B401     		.2byte	0x1b4
 3150 05fe 30040000 		.4byte	0x430
 3151 0602 54       		.byte	0x54
 3152 0603 09       		.uleb128 0x9
 3153 0604 D4040000 		.4byte	.LASF84
 3154 0608 0E       		.byte	0xe
ARM GAS  /tmp/ccOPYu5Z.s 			page 120


 3155 0609 B501     		.2byte	0x1b5
 3156 060b 16060000 		.4byte	0x616
 3157 060f 58       		.byte	0x58
 3158 0610 00       		.byte	0
 3159 0611 0F       		.uleb128 0xf
 3160 0612 45040000 		.4byte	0x445
 3161 0616 0F       		.uleb128 0xf
 3162 0617 35040000 		.4byte	0x435
 3163 061b 13       		.uleb128 0x13
 3164 061c E3020000 		.4byte	.LASF85
 3165 0620 0E       		.byte	0xe
 3166 0621 B601     		.2byte	0x1b6
 3167 0623 05050000 		.4byte	0x505
 3168 0627 14       		.uleb128 0x14
 3169 0628 04       		.byte	0x4
 3170 0629 0B       		.byte	0xb
 3171 062a D2       		.byte	0xd2
 3172 062b 8A060000 		.4byte	0x68a
 3173 062f 15       		.uleb128 0x15
 3174 0630 24000000 		.4byte	.LASF86
 3175 0634 0B       		.byte	0xb
 3176 0635 D9       		.byte	0xd9
 3177 0636 10010000 		.4byte	0x110
 3178 063a 15       		.uleb128 0x15
 3179 063b 9A000000 		.4byte	.LASF87
 3180 063f 0B       		.byte	0xb
 3181 0640 E0       		.byte	0xe0
 3182 0641 10010000 		.4byte	0x110
 3183 0645 15       		.uleb128 0x15
 3184 0646 30070000 		.4byte	.LASF88
 3185 064a 0B       		.byte	0xb
 3186 064b E7       		.byte	0xe7
 3187 064c 0D030000 		.4byte	0x30d
 3188 0650 15       		.uleb128 0x15
 3189 0651 83020000 		.4byte	.LASF89
 3190 0655 0B       		.byte	0xb
 3191 0656 EE       		.byte	0xee
 3192 0657 8A060000 		.4byte	0x68a
 3193 065b 15       		.uleb128 0x15
 3194 065c B6000000 		.4byte	.LASF90
 3195 0660 0B       		.byte	0xb
 3196 0661 F3       		.byte	0xf3
 3197 0662 10010000 		.4byte	0x110
 3198 0666 15       		.uleb128 0x15
 3199 0667 71020000 		.4byte	.LASF91
 3200 066b 0B       		.byte	0xb
 3201 066c FC       		.byte	0xfc
 3202 066d B5060000 		.4byte	0x6b5
 3203 0671 16       		.uleb128 0x16
 3204 0672 00050000 		.4byte	.LASF92
 3205 0676 0B       		.byte	0xb
 3206 0677 0501     		.2byte	0x105
 3207 0679 EC060000 		.4byte	0x6ec
 3208 067d 16       		.uleb128 0x16
 3209 067e 75040000 		.4byte	.LASF93
 3210 0682 0B       		.byte	0xb
 3211 0683 0D01     		.2byte	0x10d
ARM GAS  /tmp/ccOPYu5Z.s 			page 121


 3212 0685 1B010000 		.4byte	0x11b
 3213 0689 00       		.byte	0
 3214 068a 0A       		.uleb128 0xa
 3215 068b 04       		.byte	0x4
 3216 068c 25020000 		.4byte	0x225
 3217 0690 05       		.uleb128 0x5
 3218 0691 C7040000 		.4byte	.LASF94
 3219 0695 0C       		.byte	0xc
 3220 0696 0F       		.byte	0xf
 3221 0697 34       		.byte	0x34
 3222 0698 B5060000 		.4byte	0x6b5
 3223 069c 06       		.uleb128 0x6
 3224 069d 97020000 		.4byte	.LASF29
 3225 06a1 0F       		.byte	0xf
 3226 06a2 35       		.byte	0x35
 3227 06a3 5A020000 		.4byte	0x25a
 3228 06a7 00       		.byte	0
 3229 06a8 07       		.uleb128 0x7
 3230 06a9 636E7400 		.ascii	"cnt\000"
 3231 06ad 0F       		.byte	0xf
 3232 06ae 37       		.byte	0x37
 3233 06af 26010000 		.4byte	0x126
 3234 06b3 08       		.byte	0x8
 3235 06b4 00       		.byte	0
 3236 06b5 0A       		.uleb128 0xa
 3237 06b6 04       		.byte	0x4
 3238 06b7 90060000 		.4byte	0x690
 3239 06bb 05       		.uleb128 0x5
 3240 06bc 41060000 		.4byte	.LASF95
 3241 06c0 10       		.byte	0x10
 3242 06c1 10       		.byte	0x10
 3243 06c2 39       		.byte	0x39
 3244 06c3 EC060000 		.4byte	0x6ec
 3245 06c7 06       		.uleb128 0x6
 3246 06c8 97020000 		.4byte	.LASF29
 3247 06cc 10       		.byte	0x10
 3248 06cd 3A       		.byte	0x3a
 3249 06ce 5A020000 		.4byte	0x25a
 3250 06d2 00       		.byte	0
 3251 06d3 06       		.uleb128 0x6
 3252 06d4 23050000 		.4byte	.LASF96
 3253 06d8 10       		.byte	0x10
 3254 06d9 3C       		.byte	0x3c
 3255 06da 30020000 		.4byte	0x230
 3256 06de 08       		.byte	0x8
 3257 06df 06       		.uleb128 0x6
 3258 06e0 19000000 		.4byte	.LASF48
 3259 06e4 10       		.byte	0x10
 3260 06e5 3E       		.byte	0x3e
 3261 06e6 20070000 		.4byte	0x720
 3262 06ea 0C       		.byte	0xc
 3263 06eb 00       		.byte	0
 3264 06ec 0A       		.uleb128 0xa
 3265 06ed 04       		.byte	0x4
 3266 06ee BB060000 		.4byte	0x6bb
 3267 06f2 0A       		.uleb128 0xa
 3268 06f3 04       		.byte	0x4
ARM GAS  /tmp/ccOPYu5Z.s 			page 122


 3269 06f4 F8060000 		.4byte	0x6f8
 3270 06f8 17       		.uleb128 0x17
 3271 06f9 FD060000 		.4byte	0x6fd
 3272 06fd 04       		.uleb128 0x4
 3273 06fe 01       		.byte	0x1
 3274 06ff 08       		.byte	0x8
 3275 0700 47050000 		.4byte	.LASF97
 3276 0704 0A       		.uleb128 0xa
 3277 0705 04       		.byte	0x4
 3278 0706 60040000 		.4byte	0x460
 3279 070a 0A       		.uleb128 0xa
 3280 070b 04       		.byte	0x4
 3281 070c 0F030000 		.4byte	0x30f
 3282 0710 0F       		.uleb128 0xf
 3283 0711 F2060000 		.4byte	0x6f2
 3284 0715 03       		.uleb128 0x3
 3285 0716 0B020000 		.4byte	.LASF98
 3286 071a 10       		.byte	0x10
 3287 071b 34       		.byte	0x34
 3288 071c BB060000 		.4byte	0x6bb
 3289 0720 0A       		.uleb128 0xa
 3290 0721 04       		.byte	0x4
 3291 0722 15070000 		.4byte	0x715
 3292 0726 04       		.uleb128 0x4
 3293 0727 01       		.byte	0x1
 3294 0728 02       		.byte	0x2
 3295 0729 3E040000 		.4byte	.LASF99
 3296 072d 0A       		.uleb128 0xa
 3297 072e 04       		.byte	0x4
 3298 072f AD000000 		.4byte	0xad
 3299 0733 05       		.uleb128 0x5
 3300 0734 86040000 		.4byte	.LASF100
 3301 0738 10       		.byte	0x10
 3302 0739 11       		.byte	0x11
 3303 073a 46       		.byte	0x46
 3304 073b 70070000 		.4byte	0x770
 3305 073f 06       		.uleb128 0x6
 3306 0740 44030000 		.4byte	.LASF101
 3307 0744 11       		.byte	0x11
 3308 0745 47       		.byte	0x47
 3309 0746 94070000 		.4byte	0x794
 3310 074a 00       		.byte	0
 3311 074b 06       		.uleb128 0x6
 3312 074c 42050000 		.4byte	.LASF102
 3313 0750 11       		.byte	0x11
 3314 0751 47       		.byte	0x47
 3315 0752 B3070000 		.4byte	0x7b3
 3316 0756 04       		.byte	0x4
 3317 0757 07       		.uleb128 0x7
 3318 0758 70757400 		.ascii	"put\000"
 3319 075c 11       		.byte	0x11
 3320 075d 47       		.byte	0x47
 3321 075e CD070000 		.4byte	0x7cd
 3322 0762 08       		.byte	0x8
 3323 0763 07       		.uleb128 0x7
 3324 0764 67657400 		.ascii	"get\000"
 3325 0768 11       		.byte	0x11
ARM GAS  /tmp/ccOPYu5Z.s 			page 123


 3326 0769 47       		.byte	0x47
 3327 076a E2070000 		.4byte	0x7e2
 3328 076e 0C       		.byte	0xc
 3329 076f 00       		.byte	0
 3330 0770 18       		.uleb128 0x18
 3331 0771 2C000000 		.4byte	0x2c
 3332 0775 89070000 		.4byte	0x789
 3333 0779 0D       		.uleb128 0xd
 3334 077a 0D030000 		.4byte	0x30d
 3335 077e 0D       		.uleb128 0xd
 3336 077f 89070000 		.4byte	0x789
 3337 0783 0D       		.uleb128 0xd
 3338 0784 2C000000 		.4byte	0x2c
 3339 0788 00       		.byte	0
 3340 0789 0A       		.uleb128 0xa
 3341 078a 04       		.byte	0x4
 3342 078b 8F070000 		.4byte	0x78f
 3343 078f 17       		.uleb128 0x17
 3344 0790 AD000000 		.4byte	0xad
 3345 0794 0A       		.uleb128 0xa
 3346 0795 04       		.byte	0x4
 3347 0796 70070000 		.4byte	0x770
 3348 079a 18       		.uleb128 0x18
 3349 079b 2C000000 		.4byte	0x2c
 3350 079f B3070000 		.4byte	0x7b3
 3351 07a3 0D       		.uleb128 0xd
 3352 07a4 0D030000 		.4byte	0x30d
 3353 07a8 0D       		.uleb128 0xd
 3354 07a9 2D070000 		.4byte	0x72d
 3355 07ad 0D       		.uleb128 0xd
 3356 07ae 2C000000 		.4byte	0x2c
 3357 07b2 00       		.byte	0
 3358 07b3 0A       		.uleb128 0xa
 3359 07b4 04       		.byte	0x4
 3360 07b5 9A070000 		.4byte	0x79a
 3361 07b9 18       		.uleb128 0x18
 3362 07ba 10010000 		.4byte	0x110
 3363 07be CD070000 		.4byte	0x7cd
 3364 07c2 0D       		.uleb128 0xd
 3365 07c3 0D030000 		.4byte	0x30d
 3366 07c7 0D       		.uleb128 0xd
 3367 07c8 AD000000 		.4byte	0xad
 3368 07cc 00       		.byte	0
 3369 07cd 0A       		.uleb128 0xa
 3370 07ce 04       		.byte	0x4
 3371 07cf B9070000 		.4byte	0x7b9
 3372 07d3 18       		.uleb128 0x18
 3373 07d4 10010000 		.4byte	0x110
 3374 07d8 E2070000 		.4byte	0x7e2
 3375 07dc 0D       		.uleb128 0xd
 3376 07dd 0D030000 		.4byte	0x30d
 3377 07e1 00       		.byte	0
 3378 07e2 0A       		.uleb128 0xa
 3379 07e3 04       		.byte	0x4
 3380 07e4 D3070000 		.4byte	0x7d3
 3381 07e8 19       		.uleb128 0x19
 3382 07e9 04       		.byte	0x4
ARM GAS  /tmp/ccOPYu5Z.s 			page 124


 3383 07ea 11       		.byte	0x11
 3384 07eb 4F       		.byte	0x4f
 3385 07ec FD070000 		.4byte	0x7fd
 3386 07f0 07       		.uleb128 0x7
 3387 07f1 766D7400 		.ascii	"vmt\000"
 3388 07f5 11       		.byte	0x11
 3389 07f6 51       		.byte	0x51
 3390 07f7 FD070000 		.4byte	0x7fd
 3391 07fb 00       		.byte	0
 3392 07fc 00       		.byte	0
 3393 07fd 0A       		.uleb128 0xa
 3394 07fe 04       		.byte	0x4
 3395 07ff 03080000 		.4byte	0x803
 3396 0803 17       		.uleb128 0x17
 3397 0804 33070000 		.4byte	0x733
 3398 0808 03       		.uleb128 0x3
 3399 0809 19020000 		.4byte	.LASF103
 3400 080d 11       		.byte	0x11
 3401 080e 53       		.byte	0x53
 3402 080f E8070000 		.4byte	0x7e8
 3403 0813 0A       		.uleb128 0xa
 3404 0814 04       		.byte	0x4
 3405 0815 19080000 		.4byte	0x819
 3406 0819 1A       		.uleb128 0x1a
 3407 081a 19       		.uleb128 0x19
 3408 081b 10       		.byte	0x10
 3409 081c 12       		.byte	0x12
 3410 081d 3D       		.byte	0x3d
 3411 081e 53080000 		.4byte	0x853
 3412 0822 06       		.uleb128 0x6
 3413 0823 92020000 		.4byte	.LASF33
 3414 0827 12       		.byte	0x12
 3415 0828 3E       		.byte	0x3e
 3416 0829 F2060000 		.4byte	0x6f2
 3417 082d 00       		.byte	0
 3418 082e 06       		.uleb128 0x6
 3419 082f C3030000 		.4byte	.LASF104
 3420 0833 12       		.byte	0x12
 3421 0834 3F       		.byte	0x3f
 3422 0835 13080000 		.4byte	0x813
 3423 0839 04       		.byte	0x4
 3424 083a 06       		.uleb128 0x6
 3425 083b 04010000 		.4byte	.LASF105
 3426 083f 12       		.byte	0x12
 3427 0840 40       		.byte	0x40
 3428 0841 13080000 		.4byte	0x813
 3429 0845 08       		.byte	0x8
 3430 0846 06       		.uleb128 0x6
 3431 0847 5A040000 		.4byte	.LASF106
 3432 084b 12       		.byte	0x12
 3433 084c 41       		.byte	0x41
 3434 084d 13080000 		.4byte	0x813
 3435 0851 0C       		.byte	0xc
 3436 0852 00       		.byte	0
 3437 0853 03       		.uleb128 0x3
 3438 0854 23030000 		.4byte	.LASF107
 3439 0858 12       		.byte	0x12
ARM GAS  /tmp/ccOPYu5Z.s 			page 125


 3440 0859 42       		.byte	0x42
 3441 085a 1A080000 		.4byte	0x81a
 3442 085e 1B       		.uleb128 0x1b
 3443 085f AD050000 		.4byte	.LASF113
 3444 0863 04       		.byte	0x4
 3445 0864 0601     		.2byte	0x106
 3446 0866 03       		.byte	0x3
 3447 0867 78080000 		.4byte	0x878
 3448 086b 1C       		.uleb128 0x1c
 3449 086c 13020000 		.4byte	.LASF116
 3450 0870 04       		.byte	0x4
 3451 0871 0601     		.2byte	0x106
 3452 0873 CE000000 		.4byte	0xce
 3453 0877 00       		.byte	0
 3454 0878 1D       		.uleb128 0x1d
 3455 0879 E4040000 		.4byte	.LASF110
 3456 087d 02       		.byte	0x2
 3457 087e 8B       		.byte	0x8b
 3458 087f 31010000 		.4byte	0x131
 3459 0883 03       		.byte	0x3
 3460 0884 1E       		.uleb128 0x1e
 3461 0885 65000000 		.4byte	.LASF108
 3462 0889 0D       		.byte	0xd
 3463 088a 5202     		.2byte	0x252
 3464 088c 03       		.byte	0x3
 3465 088d 1E       		.uleb128 0x1e
 3466 088e 4F010000 		.4byte	.LASF109
 3467 0892 0D       		.byte	0xd
 3468 0893 6A02     		.2byte	0x26a
 3469 0895 03       		.byte	0x3
 3470 0896 1D       		.uleb128 0x1d
 3471 0897 E9050000 		.4byte	.LASF111
 3472 089b 13       		.byte	0x13
 3473 089c 69       		.byte	0x69
 3474 089d 31010000 		.4byte	0x131
 3475 08a1 03       		.byte	0x3
 3476 08a2 1E       		.uleb128 0x1e
 3477 08a3 9E040000 		.4byte	.LASF112
 3478 08a7 14       		.byte	0x14
 3479 08a8 7601     		.2byte	0x176
 3480 08aa 03       		.byte	0x3
 3481 08ab 1B       		.uleb128 0x1b
 3482 08ac 6D070000 		.4byte	.LASF114
 3483 08b0 14       		.byte	0x14
 3484 08b1 8201     		.2byte	0x182
 3485 08b3 03       		.byte	0x3
 3486 08b4 C6080000 		.4byte	0x8c6
 3487 08b8 1F       		.uleb128 0x1f
 3488 08b9 30040000 		.4byte	.LASF126
 3489 08bd D6080000 		.4byte	0x8d6
 3490 08c1 6D070000 		.4byte	.LASF114
 3491 08c5 00       		.byte	0
 3492 08c6 10       		.uleb128 0x10
 3493 08c7 FD060000 		.4byte	0x6fd
 3494 08cb D6080000 		.4byte	0x8d6
 3495 08cf 11       		.uleb128 0x11
 3496 08d0 29040000 		.4byte	0x429
ARM GAS  /tmp/ccOPYu5Z.s 			page 126


 3497 08d4 0B       		.byte	0xb
 3498 08d5 00       		.byte	0
 3499 08d6 17       		.uleb128 0x17
 3500 08d7 C6080000 		.4byte	0x8c6
 3501 08db 20       		.uleb128 0x20
 3502 08dc 34020000 		.4byte	.LASF115
 3503 08e0 03       		.byte	0x3
 3504 08e1 8801     		.2byte	0x188
 3505 08e3 31010000 		.4byte	0x131
 3506 08e7 03       		.byte	0x3
 3507 08e8 21       		.uleb128 0x21
 3508 08e9 53070000 		.4byte	.LASF121
 3509 08ed 03       		.byte	0x3
 3510 08ee C001     		.2byte	0x1c0
 3511 08f0 26070000 		.4byte	0x726
 3512 08f4 03       		.byte	0x3
 3513 08f5 1E090000 		.4byte	0x91e
 3514 08f9 1C       		.uleb128 0x1c
 3515 08fa DF030000 		.4byte	.LASF117
 3516 08fe 03       		.byte	0x3
 3517 08ff C001     		.2byte	0x1c0
 3518 0901 31010000 		.4byte	0x131
 3519 0905 1C       		.uleb128 0x1c
 3520 0906 79070000 		.4byte	.LASF118
 3521 090a 03       		.byte	0x3
 3522 090b C101     		.2byte	0x1c1
 3523 090d 31010000 		.4byte	0x131
 3524 0911 22       		.uleb128 0x22
 3525 0912 656E6400 		.ascii	"end\000"
 3526 0916 03       		.byte	0x3
 3527 0917 C201     		.2byte	0x1c2
 3528 0919 31010000 		.4byte	0x131
 3529 091d 00       		.byte	0
 3530 091e 23       		.uleb128 0x23
 3531 091f 23070000 		.4byte	.LASF119
 3532 0923 01       		.byte	0x1
 3533 0924 41       		.byte	0x41
 3534 0925 01       		.byte	0x1
 3535 0926 24       		.uleb128 0x24
 3536 0927 D8020000 		.4byte	.LASF123
 3537 092b 01       		.byte	0x1
 3538 092c 66       		.byte	0x66
 3539 092d 26070000 		.4byte	0x726
 3540 0931 01       		.byte	0x1
 3541 0932 42090000 		.4byte	0x942
 3542 0936 25       		.uleb128 0x25
 3543 0937 6D736700 		.ascii	"msg\000"
 3544 093b 01       		.byte	0x1
 3545 093c 66       		.byte	0x66
 3546 093d F2060000 		.4byte	0x6f2
 3547 0941 00       		.byte	0
 3548 0942 20       		.uleb128 0x20
 3549 0943 D2010000 		.4byte	.LASF120
 3550 0947 05       		.byte	0x5
 3551 0948 6802     		.2byte	0x268
 3552 094a 31010000 		.4byte	0x131
 3553 094e 03       		.byte	0x3
ARM GAS  /tmp/ccOPYu5Z.s 			page 127


 3554 094f 21       		.uleb128 0x21
 3555 0950 F1030000 		.4byte	.LASF122
 3556 0954 05       		.byte	0x5
 3557 0955 7B02     		.2byte	0x27b
 3558 0957 26070000 		.4byte	0x726
 3559 095b 03       		.byte	0x3
 3560 095c 85090000 		.4byte	0x985
 3561 0960 1C       		.uleb128 0x1c
 3562 0961 DF030000 		.4byte	.LASF117
 3563 0965 05       		.byte	0x5
 3564 0966 7B02     		.2byte	0x27b
 3565 0968 31010000 		.4byte	0x131
 3566 096c 1C       		.uleb128 0x1c
 3567 096d 79070000 		.4byte	.LASF118
 3568 0971 05       		.byte	0x5
 3569 0972 7C02     		.2byte	0x27c
 3570 0974 31010000 		.4byte	0x131
 3571 0978 22       		.uleb128 0x22
 3572 0979 656E6400 		.ascii	"end\000"
 3573 097d 05       		.byte	0x5
 3574 097e 7D02     		.2byte	0x27d
 3575 0980 31010000 		.4byte	0x131
 3576 0984 00       		.byte	0
 3577 0985 24       		.uleb128 0x24
 3578 0986 37070000 		.4byte	.LASF124
 3579 098a 01       		.byte	0x1
 3580 098b 6E       		.byte	0x6e
 3581 098c 26070000 		.4byte	0x726
 3582 0990 01       		.byte	0x1
 3583 0991 AC090000 		.4byte	0x9ac
 3584 0995 26       		.uleb128 0x26
 3585 0996 90000000 		.4byte	.LASF125
 3586 099a 01       		.byte	0x1
 3587 099b 6E       		.byte	0x6e
 3588 099c 26070000 		.4byte	0x726
 3589 09a0 25       		.uleb128 0x25
 3590 09a1 6D736700 		.ascii	"msg\000"
 3591 09a5 01       		.byte	0x1
 3592 09a6 6E       		.byte	0x6e
 3593 09a7 F2060000 		.4byte	0x6f2
 3594 09ab 00       		.byte	0
 3595 09ac 27       		.uleb128 0x27
 3596 09ad 07050000 		.4byte	.LASF127
 3597 09b1 01       		.byte	0x1
 3598 09b2 94       		.byte	0x94
 3599 09b3 01       		.byte	0x1
 3600 09b4 D6090000 		.4byte	0x9d6
 3601 09b8 25       		.uleb128 0x25
 3602 09b9 6E00     		.ascii	"n\000"
 3603 09bb 01       		.byte	0x1
 3604 09bc 94       		.byte	0x94
 3605 09bd CE000000 		.4byte	0xce
 3606 09c1 28       		.uleb128 0x28
 3607 09c2 62756600 		.ascii	"buf\000"
 3608 09c6 01       		.byte	0x1
 3609 09c7 95       		.byte	0x95
 3610 09c8 D6090000 		.4byte	0x9d6
ARM GAS  /tmp/ccOPYu5Z.s 			page 128


 3611 09cc 28       		.uleb128 0x28
 3612 09cd 7000     		.ascii	"p\000"
 3613 09cf 01       		.byte	0x1
 3614 09d0 95       		.byte	0x95
 3615 09d1 E6090000 		.4byte	0x9e6
 3616 09d5 00       		.byte	0
 3617 09d6 10       		.uleb128 0x10
 3618 09d7 FD060000 		.4byte	0x6fd
 3619 09db E6090000 		.4byte	0x9e6
 3620 09df 11       		.uleb128 0x11
 3621 09e0 29040000 		.4byte	0x429
 3622 09e4 0F       		.byte	0xf
 3623 09e5 00       		.byte	0
 3624 09e6 0A       		.uleb128 0xa
 3625 09e7 04       		.byte	0x4
 3626 09e8 FD060000 		.4byte	0x6fd
 3627 09ec 27       		.uleb128 0x27
 3628 09ed 2E030000 		.4byte	.LASF128
 3629 09f1 01       		.byte	0x1
 3630 09f2 A9       		.byte	0xa9
 3631 09f3 01       		.byte	0x1
 3632 09f4 040A0000 		.4byte	0xa04
 3633 09f8 26       		.uleb128 0x26
 3634 09f9 13030000 		.4byte	.LASF129
 3635 09fd 01       		.byte	0x1
 3636 09fe A9       		.byte	0xa9
 3637 09ff F2060000 		.4byte	0x6f2
 3638 0a03 00       		.byte	0
 3639 0a04 1E       		.uleb128 0x1e
 3640 0a05 FF010000 		.4byte	.LASF130
 3641 0a09 05       		.byte	0x5
 3642 0a0a EB01     		.2byte	0x1eb
 3643 0a0c 03       		.byte	0x3
 3644 0a0d 1E       		.uleb128 0x1e
 3645 0a0e A8040000 		.4byte	.LASF131
 3646 0a12 05       		.byte	0x5
 3647 0a13 F601     		.2byte	0x1f6
 3648 0a15 03       		.byte	0x3
 3649 0a16 1B       		.uleb128 0x1b
 3650 0a17 A6030000 		.4byte	.LASF132
 3651 0a1b 05       		.byte	0x5
 3652 0a1c 9F02     		.2byte	0x29f
 3653 0a1e 03       		.byte	0x3
 3654 0a1f 300A0000 		.4byte	0xa30
 3655 0a23 1C       		.uleb128 0x1c
 3656 0a24 DF030000 		.4byte	.LASF117
 3657 0a28 05       		.byte	0x5
 3658 0a29 9F02     		.2byte	0x29f
 3659 0a2b 31010000 		.4byte	0x131
 3660 0a2f 00       		.byte	0
 3661 0a30 29       		.uleb128 0x29
 3662 0a31 78020000 		.4byte	.LASF157
 3663 0a35 01       		.byte	0x1
 3664 0a36 5A       		.byte	0x5a
 3665 0a37 00000000 		.4byte	.LFB222
 3666 0a3b 36000000 		.4byte	.LFE222-.LFB222
 3667 0a3f 01       		.uleb128 0x1
ARM GAS  /tmp/ccOPYu5Z.s 			page 129


 3668 0a40 9C       		.byte	0x9c
 3669 0a41 770A0000 		.4byte	0xa77
 3670 0a45 2A       		.uleb128 0x2a
 3671 0a46 6900     		.ascii	"i\000"
 3672 0a48 01       		.byte	0x1
 3673 0a49 5B       		.byte	0x5b
 3674 0a4a 37000000 		.4byte	0x37
 3675 0a4e 00000000 		.4byte	.LLST0
 3676 0a52 2B       		.uleb128 0x2b
 3677 0a53 1A000000 		.4byte	.LVL2
 3678 0a57 620A0000 		.4byte	0xa62
 3679 0a5b 2C       		.uleb128 0x2c
 3680 0a5c 01       		.uleb128 0x1
 3681 0a5d 51       		.byte	0x51
 3682 0a5e 02       		.uleb128 0x2
 3683 0a5f 08       		.byte	0x8
 3684 0a60 2D       		.byte	0x2d
 3685 0a61 00       		.byte	0
 3686 0a62 2D       		.uleb128 0x2d
 3687 0a63 34000000 		.4byte	.LVL4
 3688 0a67 2C       		.uleb128 0x2c
 3689 0a68 01       		.uleb128 0x1
 3690 0a69 52       		.byte	0x52
 3691 0a6a 01       		.uleb128 0x1
 3692 0a6b 32       		.byte	0x32
 3693 0a6c 2C       		.uleb128 0x2c
 3694 0a6d 01       		.uleb128 0x1
 3695 0a6e 51       		.byte	0x51
 3696 0a6f 05       		.uleb128 0x5
 3697 0a70 03       		.byte	0x3
 3698 0a71 00000000 		.4byte	.LC0
 3699 0a75 00       		.byte	0
 3700 0a76 00       		.byte	0
 3701 0a77 2E       		.uleb128 0x2e
 3702 0a78 26090000 		.4byte	0x926
 3703 0a7c 00000000 		.4byte	.LFB223
 3704 0a80 2A000000 		.4byte	.LFE223-.LFB223
 3705 0a84 01       		.uleb128 0x1
 3706 0a85 9C       		.byte	0x9c
 3707 0a86 940A0000 		.4byte	0xa94
 3708 0a8a 2F       		.uleb128 0x2f
 3709 0a8b 36090000 		.4byte	0x936
 3710 0a8f 44000000 		.4byte	.LLST1
 3711 0a93 00       		.byte	0
 3712 0a94 2E       		.uleb128 0x2e
 3713 0a95 85090000 		.4byte	0x985
 3714 0a99 00000000 		.4byte	.LFB224
 3715 0a9d 32000000 		.4byte	.LFE224-.LFB224
 3716 0aa1 01       		.uleb128 0x1
 3717 0aa2 9C       		.byte	0x9c
 3718 0aa3 D10A0000 		.4byte	0xad1
 3719 0aa7 2F       		.uleb128 0x2f
 3720 0aa8 95090000 		.4byte	0x995
 3721 0aac 66000000 		.4byte	.LLST2
 3722 0ab0 30       		.uleb128 0x30
 3723 0ab1 A0090000 		.4byte	0x9a0
 3724 0ab5 01       		.uleb128 0x1
ARM GAS  /tmp/ccOPYu5Z.s 			page 130


 3725 0ab6 51       		.byte	0x51
 3726 0ab7 31       		.uleb128 0x31
 3727 0ab8 26090000 		.4byte	0x926
 3728 0abc 04000000 		.4byte	.LBB102
 3729 0ac0 20000000 		.4byte	.LBE102-.LBB102
 3730 0ac4 01       		.byte	0x1
 3731 0ac5 71       		.byte	0x71
 3732 0ac6 2F       		.uleb128 0x2f
 3733 0ac7 36090000 		.4byte	0x936
 3734 0acb A0000000 		.4byte	.LLST3
 3735 0acf 00       		.byte	0
 3736 0ad0 00       		.byte	0
 3737 0ad1 32       		.uleb128 0x32
 3738 0ad2 C9030000 		.4byte	.LASF134
 3739 0ad6 01       		.byte	0x1
 3740 0ad7 75       		.byte	0x75
 3741 0ad8 26070000 		.4byte	0x726
 3742 0adc 00000000 		.4byte	.LFB225
 3743 0ae0 56000000 		.4byte	.LFE225-.LFB225
 3744 0ae4 01       		.uleb128 0x1
 3745 0ae5 9C       		.byte	0x9c
 3746 0ae6 3B0B0000 		.4byte	0xb3b
 3747 0aea 33       		.uleb128 0x33
 3748 0aeb 89020000 		.4byte	.LASF133
 3749 0aef 01       		.byte	0x1
 3750 0af0 75       		.byte	0x75
 3751 0af1 E6090000 		.4byte	0x9e6
 3752 0af5 B3000000 		.4byte	.LLST4
 3753 0af9 34       		.uleb128 0x34
 3754 0afa 6D736700 		.ascii	"msg\000"
 3755 0afe 01       		.byte	0x1
 3756 0aff 75       		.byte	0x75
 3757 0b00 F2060000 		.4byte	0x6f2
 3758 0b04 01       		.uleb128 0x1
 3759 0b05 51       		.byte	0x51
 3760 0b06 2A       		.uleb128 0x2a
 3761 0b07 637000   		.ascii	"cp\000"
 3762 0b0a 01       		.byte	0x1
 3763 0b0b 76       		.byte	0x76
 3764 0b0c E6090000 		.4byte	0x9e6
 3765 0b10 DE000000 		.4byte	.LLST5
 3766 0b14 35       		.uleb128 0x35
 3767 0b15 1E090000 		.4byte	0x91e
 3768 0b19 2C000000 		.4byte	.LBB104
 3769 0b1d 02000000 		.4byte	.LBE104-.LBB104
 3770 0b21 01       		.byte	0x1
 3771 0b22 80       		.byte	0x80
 3772 0b23 31       		.uleb128 0x31
 3773 0b24 26090000 		.4byte	0x926
 3774 0b28 32000000 		.4byte	.LBB106
 3775 0b2c 20000000 		.4byte	.LBE106-.LBB106
 3776 0b30 01       		.byte	0x1
 3777 0b31 7A       		.byte	0x7a
 3778 0b32 30       		.uleb128 0x30
 3779 0b33 36090000 		.4byte	0x936
 3780 0b37 01       		.uleb128 0x1
 3781 0b38 51       		.byte	0x51
ARM GAS  /tmp/ccOPYu5Z.s 			page 131


 3782 0b39 00       		.byte	0
 3783 0b3a 00       		.byte	0
 3784 0b3b 32       		.uleb128 0x32
 3785 0b3c 7C010000 		.4byte	.LASF135
 3786 0b40 01       		.byte	0x1
 3787 0b41 85       		.byte	0x85
 3788 0b42 26070000 		.4byte	0x726
 3789 0b46 00000000 		.4byte	.LFB226
 3790 0b4a 3E000000 		.4byte	.LFE226-.LFB226
 3791 0b4e 01       		.uleb128 0x1
 3792 0b4f 9C       		.byte	0x9c
 3793 0b50 590C0000 		.4byte	0xc59
 3794 0b54 33       		.uleb128 0x33
 3795 0b55 79070000 		.4byte	.LASF118
 3796 0b59 01       		.byte	0x1
 3797 0b5a 85       		.byte	0x85
 3798 0b5b 31010000 		.4byte	0x131
 3799 0b5f 19010000 		.4byte	.LLST6
 3800 0b63 36       		.uleb128 0x36
 3801 0b64 656E6400 		.ascii	"end\000"
 3802 0b68 01       		.byte	0x1
 3803 0b69 86       		.byte	0x86
 3804 0b6a 31010000 		.4byte	0x131
 3805 0b6e 3A010000 		.4byte	.LLST7
 3806 0b72 34       		.uleb128 0x34
 3807 0b73 6D736700 		.ascii	"msg\000"
 3808 0b77 01       		.byte	0x1
 3809 0b78 87       		.byte	0x87
 3810 0b79 F2060000 		.4byte	0x6f2
 3811 0b7d 01       		.uleb128 0x1
 3812 0b7e 52       		.byte	0x52
 3813 0b7f 37       		.uleb128 0x37
 3814 0b80 42090000 		.4byte	0x942
 3815 0b84 00000000 		.4byte	.LBB108
 3816 0b88 06000000 		.4byte	.LBE108-.LBB108
 3817 0b8c 01       		.byte	0x1
 3818 0b8d 89       		.byte	0x89
 3819 0b8e C40B0000 		.4byte	0xbc4
 3820 0b92 38       		.uleb128 0x38
 3821 0b93 DB080000 		.4byte	0x8db
 3822 0b97 00000000 		.4byte	.LBB109
 3823 0b9b 06000000 		.4byte	.LBE109-.LBB109
 3824 0b9f 05       		.byte	0x5
 3825 0ba0 6A02     		.2byte	0x26a
 3826 0ba2 38       		.uleb128 0x38
 3827 0ba3 96080000 		.4byte	0x896
 3828 0ba7 00000000 		.4byte	.LBB110
 3829 0bab 06000000 		.4byte	.LBE110-.LBB110
 3830 0baf 03       		.byte	0x3
 3831 0bb0 8D01     		.2byte	0x18d
 3832 0bb2 35       		.uleb128 0x35
 3833 0bb3 78080000 		.4byte	0x878
 3834 0bb7 00000000 		.4byte	.LBB111
 3835 0bbb 06000000 		.4byte	.LBE111-.LBB111
 3836 0bbf 13       		.byte	0x13
 3837 0bc0 6B       		.byte	0x6b
 3838 0bc1 00       		.byte	0
ARM GAS  /tmp/ccOPYu5Z.s 			page 132


 3839 0bc2 00       		.byte	0
 3840 0bc3 00       		.byte	0
 3841 0bc4 37       		.uleb128 0x37
 3842 0bc5 4F090000 		.4byte	0x94f
 3843 0bc9 06000000 		.4byte	.LBB113
 3844 0bcd 04000000 		.4byte	.LBE113-.LBB113
 3845 0bd1 01       		.byte	0x1
 3846 0bd2 89       		.byte	0x89
 3847 0bd3 1F0C0000 		.4byte	0xc1f
 3848 0bd7 2F       		.uleb128 0x2f
 3849 0bd8 78090000 		.4byte	0x978
 3850 0bdc 5B010000 		.4byte	.LLST8
 3851 0be0 2F       		.uleb128 0x2f
 3852 0be1 6C090000 		.4byte	0x96c
 3853 0be5 7C010000 		.4byte	.LLST9
 3854 0be9 2F       		.uleb128 0x2f
 3855 0bea 60090000 		.4byte	0x960
 3856 0bee 8F010000 		.4byte	.LLST10
 3857 0bf2 38       		.uleb128 0x38
 3858 0bf3 E8080000 		.4byte	0x8e8
 3859 0bf7 06000000 		.4byte	.LBB114
 3860 0bfb 04000000 		.4byte	.LBE114-.LBB114
 3861 0bff 05       		.byte	0x5
 3862 0c00 7F02     		.2byte	0x27f
 3863 0c02 2F       		.uleb128 0x2f
 3864 0c03 11090000 		.4byte	0x911
 3865 0c07 5B010000 		.4byte	.LLST8
 3866 0c0b 2F       		.uleb128 0x2f
 3867 0c0c 05090000 		.4byte	0x905
 3868 0c10 7C010000 		.4byte	.LLST9
 3869 0c14 2F       		.uleb128 0x2f
 3870 0c15 F9080000 		.4byte	0x8f9
 3871 0c19 8F010000 		.4byte	.LLST10
 3872 0c1d 00       		.byte	0
 3873 0c1e 00       		.byte	0
 3874 0c1f 39       		.uleb128 0x39
 3875 0c20 85090000 		.4byte	0x985
 3876 0c24 0A000000 		.4byte	.LBB116
 3877 0c28 00000000 		.4byte	.Ldebug_ranges0+0
 3878 0c2c 01       		.byte	0x1
 3879 0c2d 89       		.byte	0x89
 3880 0c2e 30       		.uleb128 0x30
 3881 0c2f A0090000 		.4byte	0x9a0
 3882 0c33 01       		.uleb128 0x1
 3883 0c34 52       		.byte	0x52
 3884 0c35 2F       		.uleb128 0x2f
 3885 0c36 95090000 		.4byte	0x995
 3886 0c3a A2010000 		.4byte	.LLST14
 3887 0c3e 31       		.uleb128 0x31
 3888 0c3f 26090000 		.4byte	0x926
 3889 0c43 18000000 		.4byte	.LBB118
 3890 0c47 20000000 		.4byte	.LBE118-.LBB118
 3891 0c4b 01       		.byte	0x1
 3892 0c4c 71       		.byte	0x71
 3893 0c4d 2F       		.uleb128 0x2f
 3894 0c4e 36090000 		.4byte	0x936
 3895 0c52 E7010000 		.4byte	.LLST15
ARM GAS  /tmp/ccOPYu5Z.s 			page 133


 3896 0c56 00       		.byte	0
 3897 0c57 00       		.byte	0
 3898 0c58 00       		.byte	0
 3899 0c59 3A       		.uleb128 0x3a
 3900 0c5a AC090000 		.4byte	0x9ac
 3901 0c5e 00000000 		.4byte	.LFB227
 3902 0c62 70000000 		.4byte	.LFE227-.LFB227
 3903 0c66 01       		.uleb128 0x1
 3904 0c67 9C       		.byte	0x9c
 3905 0c68 B70C0000 		.4byte	0xcb7
 3906 0c6c 2F       		.uleb128 0x2f
 3907 0c6d B8090000 		.4byte	0x9b8
 3908 0c71 FA010000 		.4byte	.LLST16
 3909 0c75 3B       		.uleb128 0x3b
 3910 0c76 C1090000 		.4byte	0x9c1
 3911 0c7a 02       		.uleb128 0x2
 3912 0c7b 91       		.byte	0x91
 3913 0c7c 60       		.sleb128 -32
 3914 0c7d 3C       		.uleb128 0x3c
 3915 0c7e CC090000 		.4byte	0x9cc
 3916 0c82 3C020000 		.4byte	.LLST17
 3917 0c86 3D       		.uleb128 0x3d
 3918 0c87 5A000000 		.4byte	.LBB124
 3919 0c8b 12000000 		.4byte	.LBE124-.LBB124
 3920 0c8f 3E       		.uleb128 0x3e
 3921 0c90 B8090000 		.4byte	0x9b8
 3922 0c94 00       		.byte	0
 3923 0c95 3D       		.uleb128 0x3d
 3924 0c96 5A000000 		.4byte	.LBB125
 3925 0c9a 12000000 		.4byte	.LBE125-.LBB125
 3926 0c9e 3F       		.uleb128 0x3f
 3927 0c9f C1090000 		.4byte	0x9c1
 3928 0ca3 3F       		.uleb128 0x3f
 3929 0ca4 CC090000 		.4byte	0x9cc
 3930 0ca8 2D       		.uleb128 0x2d
 3931 0ca9 6C000000 		.4byte	.LVL38
 3932 0cad 2C       		.uleb128 0x2c
 3933 0cae 01       		.uleb128 0x1
 3934 0caf 51       		.byte	0x51
 3935 0cb0 02       		.uleb128 0x2
 3936 0cb1 08       		.byte	0x8
 3937 0cb2 30       		.byte	0x30
 3938 0cb3 00       		.byte	0
 3939 0cb4 00       		.byte	0
 3940 0cb5 00       		.byte	0
 3941 0cb6 00       		.byte	0
 3942 0cb7 3A       		.uleb128 0x3a
 3943 0cb8 EC090000 		.4byte	0x9ec
 3944 0cbc 00000000 		.4byte	.LFB228
 3945 0cc0 22000000 		.4byte	.LFE228-.LFB228
 3946 0cc4 01       		.uleb128 0x1
 3947 0cc5 9C       		.byte	0x9c
 3948 0cc6 D40C0000 		.4byte	0xcd4
 3949 0cca 2F       		.uleb128 0x2f
 3950 0ccb F8090000 		.4byte	0x9f8
 3951 0ccf 8C020000 		.4byte	.LLST18
 3952 0cd3 00       		.byte	0
ARM GAS  /tmp/ccOPYu5Z.s 			page 134


 3953 0cd4 40       		.uleb128 0x40
 3954 0cd5 3B010000 		.4byte	.LASF136
 3955 0cd9 01       		.byte	0x1
 3956 0cda B6       		.byte	0xb6
 3957 0cdb 00000000 		.4byte	.LFB229
 3958 0cdf 3A000000 		.4byte	.LFE229-.LFB229
 3959 0ce3 01       		.uleb128 0x1
 3960 0ce4 9C       		.byte	0x9c
 3961 0ce5 2A0D0000 		.4byte	0xd2a
 3962 0ce9 33       		.uleb128 0x33
 3963 0cea 13030000 		.4byte	.LASF129
 3964 0cee 01       		.byte	0x1
 3965 0cef B6       		.byte	0xb6
 3966 0cf0 F2060000 		.4byte	0x6f2
 3967 0cf4 C2020000 		.4byte	.LLST19
 3968 0cf8 37       		.uleb128 0x37
 3969 0cf9 EC090000 		.4byte	0x9ec
 3970 0cfd 02000000 		.4byte	.LBB126
 3971 0d01 1E000000 		.4byte	.LBE126-.LBB126
 3972 0d05 01       		.byte	0x1
 3973 0d06 B8       		.byte	0xb8
 3974 0d07 150D0000 		.4byte	0xd15
 3975 0d0b 2F       		.uleb128 0x2f
 3976 0d0c F8090000 		.4byte	0x9f8
 3977 0d10 EE020000 		.4byte	.LLST20
 3978 0d14 00       		.byte	0
 3979 0d15 2D       		.uleb128 0x2d
 3980 0d16 32000000 		.4byte	.LVL51
 3981 0d1a 2C       		.uleb128 0x2c
 3982 0d1b 01       		.uleb128 0x1
 3983 0d1c 52       		.byte	0x52
 3984 0d1d 01       		.uleb128 0x1
 3985 0d1e 32       		.byte	0x32
 3986 0d1f 2C       		.uleb128 0x2c
 3987 0d20 01       		.uleb128 0x1
 3988 0d21 51       		.byte	0x51
 3989 0d22 05       		.uleb128 0x5
 3990 0d23 03       		.byte	0x3
 3991 0d24 00000000 		.4byte	.LC0
 3992 0d28 00       		.byte	0
 3993 0d29 00       		.byte	0
 3994 0d2a 41       		.uleb128 0x41
 3995 0d2b 2B010000 		.4byte	.LASF137
 3996 0d2f 01       		.byte	0x1
 3997 0d30 C3       		.byte	0xc3
 3998 0d31 00000000 		.4byte	.LFB230
 3999 0d35 28000000 		.4byte	.LFE230-.LFB230
 4000 0d39 01       		.uleb128 0x1
 4001 0d3a 9C       		.byte	0x9c
 4002 0d3b F20D0000 		.4byte	0xdf2
 4003 0d3f 42       		.uleb128 0x42
 4004 0d40 05040000 		.4byte	.LASF138
 4005 0d44 01       		.byte	0x1
 4006 0d45 C3       		.byte	0xc3
 4007 0d46 FD060000 		.4byte	0x6fd
 4008 0d4a 01       		.uleb128 0x1
 4009 0d4b 50       		.byte	0x50
ARM GAS  /tmp/ccOPYu5Z.s 			page 135


 4010 0d4c 37       		.uleb128 0x37
 4011 0d4d 040A0000 		.4byte	0xa04
 4012 0d51 00000000 		.4byte	.LBB128
 4013 0d55 06000000 		.4byte	.LBE128-.LBB128
 4014 0d59 01       		.byte	0x1
 4015 0d5a C5       		.byte	0xc5
 4016 0d5b 990D0000 		.4byte	0xd99
 4017 0d5f 38       		.uleb128 0x38
 4018 0d60 A2080000 		.4byte	0x8a2
 4019 0d64 00000000 		.4byte	.LBB129
 4020 0d68 06000000 		.4byte	.LBE129-.LBB129
 4021 0d6c 05       		.byte	0x5
 4022 0d6d ED01     		.2byte	0x1ed
 4023 0d6f 38       		.uleb128 0x38
 4024 0d70 84080000 		.4byte	0x884
 4025 0d74 00000000 		.4byte	.LBB130
 4026 0d78 06000000 		.4byte	.LBE130-.LBB130
 4027 0d7c 14       		.byte	0x14
 4028 0d7d 7801     		.2byte	0x178
 4029 0d7f 38       		.uleb128 0x38
 4030 0d80 5E080000 		.4byte	0x85e
 4031 0d84 00000000 		.4byte	.LBB131
 4032 0d88 06000000 		.4byte	.LBE131-.LBB131
 4033 0d8c 0D       		.byte	0xd
 4034 0d8d 5A02     		.2byte	0x25a
 4035 0d8f 3E       		.uleb128 0x3e
 4036 0d90 6B080000 		.4byte	0x86b
 4037 0d94 20       		.byte	0x20
 4038 0d95 00       		.byte	0
 4039 0d96 00       		.byte	0
 4040 0d97 00       		.byte	0
 4041 0d98 00       		.byte	0
 4042 0d99 31       		.uleb128 0x31
 4043 0d9a 0D0A0000 		.4byte	0xa0d
 4044 0d9e 1C000000 		.4byte	.LBB133
 4045 0da2 0C000000 		.4byte	.LBE133-.LBB133
 4046 0da6 01       		.byte	0x1
 4047 0da7 C8       		.byte	0xc8
 4048 0da8 38       		.uleb128 0x38
 4049 0da9 AB080000 		.4byte	0x8ab
 4050 0dad 1C000000 		.4byte	.LBB134
 4051 0db1 0C000000 		.4byte	.LBE134-.LBB134
 4052 0db5 05       		.byte	0x5
 4053 0db6 F801     		.2byte	0x1f8
 4054 0db8 3D       		.uleb128 0x3d
 4055 0db9 1C000000 		.4byte	.LBB135
 4056 0dbd 0C000000 		.4byte	.LBE135-.LBB135
 4057 0dc1 3F       		.uleb128 0x3f
 4058 0dc2 B8080000 		.4byte	0x8b8
 4059 0dc6 38       		.uleb128 0x38
 4060 0dc7 8D080000 		.4byte	0x88d
 4061 0dcb 1C000000 		.4byte	.LBB136
 4062 0dcf 0C000000 		.4byte	.LBE136-.LBB136
 4063 0dd3 14       		.byte	0x14
 4064 0dd4 8F01     		.2byte	0x18f
 4065 0dd6 38       		.uleb128 0x38
 4066 0dd7 5E080000 		.4byte	0x85e
ARM GAS  /tmp/ccOPYu5Z.s 			page 136


 4067 0ddb 1C000000 		.4byte	.LBB137
 4068 0ddf 0C000000 		.4byte	.LBE137-.LBB137
 4069 0de3 0D       		.byte	0xd
 4070 0de4 6D02     		.2byte	0x26d
 4071 0de6 3E       		.uleb128 0x3e
 4072 0de7 6B080000 		.4byte	0x86b
 4073 0deb 00       		.byte	0
 4074 0dec 00       		.byte	0
 4075 0ded 00       		.byte	0
 4076 0dee 00       		.byte	0
 4077 0def 00       		.byte	0
 4078 0df0 00       		.byte	0
 4079 0df1 00       		.byte	0
 4080 0df2 41       		.uleb128 0x41
 4081 0df3 7D050000 		.4byte	.LASF139
 4082 0df7 01       		.byte	0x1
 4083 0df8 D2       		.byte	0xd2
 4084 0df9 00000000 		.4byte	.LFB231
 4085 0dfd 1C000000 		.4byte	.LFE231-.LFB231
 4086 0e01 01       		.uleb128 0x1
 4087 0e02 9C       		.byte	0x9c
 4088 0e03 150E0000 		.4byte	0xe15
 4089 0e07 42       		.uleb128 0x42
 4090 0e08 05040000 		.4byte	.LASF138
 4091 0e0c 01       		.byte	0x1
 4092 0e0d D2       		.byte	0xd2
 4093 0e0e FD060000 		.4byte	0x6fd
 4094 0e12 01       		.uleb128 0x1
 4095 0e13 50       		.byte	0x50
 4096 0e14 00       		.byte	0
 4097 0e15 43       		.uleb128 0x43
 4098 0e16 4A060000 		.4byte	.LASF140
 4099 0e1a 01       		.byte	0x1
 4100 0e1b 4D       		.byte	0x4d
 4101 0e1c 01       		.byte	0x1
 4102 0e1d 2D0E0000 		.4byte	0xe2d
 4103 0e21 25       		.uleb128 0x25
 4104 0e22 74637000 		.ascii	"tcp\000"
 4105 0e26 01       		.byte	0x1
 4106 0e27 4D       		.byte	0x4d
 4107 0e28 2D0E0000 		.4byte	0xe2d
 4108 0e2c 00       		.byte	0
 4109 0e2d 0A       		.uleb128 0xa
 4110 0e2e 04       		.byte	0x4
 4111 0e2f 330E0000 		.4byte	0xe33
 4112 0e33 17       		.uleb128 0x17
 4113 0e34 53080000 		.4byte	0x853
 4114 0e38 43       		.uleb128 0x43
 4115 0e39 BC010000 		.4byte	.LASF141
 4116 0e3d 01       		.byte	0x1
 4117 0e3e 46       		.byte	0x46
 4118 0e3f 01       		.byte	0x1
 4119 0e40 4F0E0000 		.4byte	0xe4f
 4120 0e44 28       		.uleb128 0x28
 4121 0e45 637000   		.ascii	"cp\000"
 4122 0e48 01       		.byte	0x1
 4123 0e49 47       		.byte	0x47
ARM GAS  /tmp/ccOPYu5Z.s 			page 137


 4124 0e4a E6090000 		.4byte	0x9e6
 4125 0e4e 00       		.byte	0
 4126 0e4f 44       		.uleb128 0x44
 4127 0e50 F7000000 		.4byte	.LASF142
 4128 0e54 01       		.byte	0x1
 4129 0e55 E3       		.byte	0xe3
 4130 0e56 10010000 		.4byte	0x110
 4131 0e5a 00000000 		.4byte	.LFB232
 4132 0e5e FC020000 		.4byte	.LFE232-.LFB232
 4133 0e62 01       		.uleb128 0x1
 4134 0e63 9C       		.byte	0x9c
 4135 0e64 F6110000 		.4byte	0x11f6
 4136 0e68 33       		.uleb128 0x33
 4137 0e69 5E000000 		.4byte	.LASF143
 4138 0e6d 01       		.byte	0x1
 4139 0e6e E3       		.byte	0xe3
 4140 0e6f F6110000 		.4byte	0x11f6
 4141 0e73 2F030000 		.4byte	.LLST21
 4142 0e77 2A       		.uleb128 0x2a
 4143 0e78 6900     		.ascii	"i\000"
 4144 0e7a 01       		.byte	0x1
 4145 0e7b E4       		.byte	0xe4
 4146 0e7c 25000000 		.4byte	0x25
 4147 0e80 5F030000 		.4byte	.LLST22
 4148 0e84 2A       		.uleb128 0x2a
 4149 0e85 6A00     		.ascii	"j\000"
 4150 0e87 01       		.byte	0x1
 4151 0e88 E4       		.byte	0xe4
 4152 0e89 25000000 		.4byte	0x25
 4153 0e8d B8030000 		.4byte	.LLST23
 4154 0e91 37       		.uleb128 0x37
 4155 0e92 EC090000 		.4byte	0x9ec
 4156 0e96 3C000000 		.4byte	.LBB171
 4157 0e9a 12000000 		.4byte	.LBE171-.LBB171
 4158 0e9e 01       		.byte	0x1
 4159 0e9f EE       		.byte	0xee
 4160 0ea0 AE0E0000 		.4byte	0xeae
 4161 0ea4 2F       		.uleb128 0x2f
 4162 0ea5 F8090000 		.4byte	0x9f8
 4163 0ea9 F0030000 		.4byte	.LLST24
 4164 0ead 00       		.byte	0
 4165 0eae 37       		.uleb128 0x37
 4166 0eaf EC090000 		.4byte	0x9ec
 4167 0eb3 62000000 		.4byte	.LBB173
 4168 0eb7 12000000 		.4byte	.LBE173-.LBB173
 4169 0ebb 01       		.byte	0x1
 4170 0ebc F1       		.byte	0xf1
 4171 0ebd CB0E0000 		.4byte	0xecb
 4172 0ec1 2F       		.uleb128 0x2f
 4173 0ec2 F8090000 		.4byte	0x9f8
 4174 0ec6 2B040000 		.4byte	.LLST25
 4175 0eca 00       		.byte	0
 4176 0ecb 37       		.uleb128 0x37
 4177 0ecc EC090000 		.4byte	0x9ec
 4178 0ed0 88000000 		.4byte	.LBB175
 4179 0ed4 12000000 		.4byte	.LBE175-.LBB175
 4180 0ed8 01       		.byte	0x1
ARM GAS  /tmp/ccOPYu5Z.s 			page 138


 4181 0ed9 F5       		.byte	0xf5
 4182 0eda E80E0000 		.4byte	0xee8
 4183 0ede 2F       		.uleb128 0x2f
 4184 0edf F8090000 		.4byte	0x9f8
 4185 0ee3 66040000 		.4byte	.LLST26
 4186 0ee7 00       		.byte	0
 4187 0ee8 45       		.uleb128 0x45
 4188 0ee9 150E0000 		.4byte	0xe15
 4189 0eed D6000000 		.4byte	.LBB177
 4190 0ef1 18000000 		.4byte	.Ldebug_ranges0+0x18
 4191 0ef5 01       		.byte	0x1
 4192 0ef6 0D01     		.2byte	0x10d
 4193 0ef8 150F0000 		.4byte	0xf15
 4194 0efc 2F       		.uleb128 0x2f
 4195 0efd 210E0000 		.4byte	0xe21
 4196 0f01 A1040000 		.4byte	.LLST27
 4197 0f05 46       		.uleb128 0x46
 4198 0f06 1E090000 		.4byte	0x91e
 4199 0f0a D6000000 		.4byte	.LBB179
 4200 0f0e 40000000 		.4byte	.Ldebug_ranges0+0x40
 4201 0f12 01       		.byte	0x1
 4202 0f13 50       		.byte	0x50
 4203 0f14 00       		.byte	0
 4204 0f15 45       		.uleb128 0x45
 4205 0f16 EC090000 		.4byte	0x9ec
 4206 0f1a EC000000 		.4byte	.LBB189
 4207 0f1e 60000000 		.4byte	.Ldebug_ranges0+0x60
 4208 0f22 01       		.byte	0x1
 4209 0f23 1101     		.2byte	0x111
 4210 0f25 330F0000 		.4byte	0xf33
 4211 0f29 2F       		.uleb128 0x2f
 4212 0f2a F8090000 		.4byte	0x9f8
 4213 0f2e BF040000 		.4byte	.LLST28
 4214 0f32 00       		.byte	0
 4215 0f33 47       		.uleb128 0x47
 4216 0f34 EC090000 		.4byte	0x9ec
 4217 0f38 0C010000 		.4byte	.LBB193
 4218 0f3c 1A000000 		.4byte	.LBE193-.LBB193
 4219 0f40 01       		.byte	0x1
 4220 0f41 0301     		.2byte	0x103
 4221 0f43 510F0000 		.4byte	0xf51
 4222 0f47 2F       		.uleb128 0x2f
 4223 0f48 F8090000 		.4byte	0x9f8
 4224 0f4c FA040000 		.4byte	.LLST29
 4225 0f50 00       		.byte	0
 4226 0f51 45       		.uleb128 0x45
 4227 0f52 EC090000 		.4byte	0x9ec
 4228 0f56 2C010000 		.4byte	.LBB195
 4229 0f5a 80000000 		.4byte	.Ldebug_ranges0+0x80
 4230 0f5e 01       		.byte	0x1
 4231 0f5f 0501     		.2byte	0x105
 4232 0f61 770F0000 		.4byte	0xf77
 4233 0f65 48       		.uleb128 0x48
 4234 0f66 F8090000 		.4byte	0x9f8
 4235 0f6a 2D       		.uleb128 0x2d
 4236 0f6b 3A010000 		.4byte	.LVL94
 4237 0f6f 2C       		.uleb128 0x2c
ARM GAS  /tmp/ccOPYu5Z.s 			page 139


 4238 0f70 01       		.uleb128 0x1
 4239 0f71 51       		.byte	0x51
 4240 0f72 02       		.uleb128 0x2
 4241 0f73 08       		.byte	0x8
 4242 0f74 2E       		.byte	0x2e
 4243 0f75 00       		.byte	0
 4244 0f76 00       		.byte	0
 4245 0f77 47       		.uleb128 0x47
 4246 0f78 EC090000 		.4byte	0x9ec
 4247 0f7c 48010000 		.4byte	.LBB199
 4248 0f80 12000000 		.4byte	.LBE199-.LBB199
 4249 0f84 01       		.byte	0x1
 4250 0f85 0701     		.2byte	0x107
 4251 0f87 950F0000 		.4byte	0xf95
 4252 0f8b 2F       		.uleb128 0x2f
 4253 0f8c F8090000 		.4byte	0x9f8
 4254 0f90 40050000 		.4byte	.LLST31
 4255 0f94 00       		.byte	0
 4256 0f95 47       		.uleb128 0x47
 4257 0f96 EC090000 		.4byte	0x9ec
 4258 0f9a 64010000 		.4byte	.LBB201
 4259 0f9e 16000000 		.4byte	.LBE201-.LBB201
 4260 0fa2 01       		.byte	0x1
 4261 0fa3 0801     		.2byte	0x108
 4262 0fa5 B30F0000 		.4byte	0xfb3
 4263 0fa9 2F       		.uleb128 0x2f
 4264 0faa F8090000 		.4byte	0x9f8
 4265 0fae 7B050000 		.4byte	.LLST32
 4266 0fb2 00       		.byte	0
 4267 0fb3 47       		.uleb128 0x47
 4268 0fb4 160A0000 		.4byte	0xa16
 4269 0fb8 86010000 		.4byte	.LBB203
 4270 0fbc 06000000 		.4byte	.LBE203-.LBB203
 4271 0fc0 01       		.byte	0x1
 4272 0fc1 0B01     		.2byte	0x10b
 4273 0fc3 E10F0000 		.4byte	0xfe1
 4274 0fc7 2F       		.uleb128 0x2f
 4275 0fc8 230A0000 		.4byte	0xa23
 4276 0fcc B1050000 		.4byte	.LLST33
 4277 0fd0 49       		.uleb128 0x49
 4278 0fd1 8C010000 		.4byte	.LVL108
 4279 0fd5 B0120000 		.4byte	0x12b0
 4280 0fd9 2C       		.uleb128 0x2c
 4281 0fda 01       		.uleb128 0x1
 4282 0fdb 50       		.byte	0x50
 4283 0fdc 02       		.uleb128 0x2
 4284 0fdd 08       		.byte	0x8
 4285 0fde C8       		.byte	0xc8
 4286 0fdf 00       		.byte	0
 4287 0fe0 00       		.byte	0
 4288 0fe1 47       		.uleb128 0x47
 4289 0fe2 EC090000 		.4byte	0x9ec
 4290 0fe6 CE010000 		.4byte	.LBB207
 4291 0fea 12000000 		.4byte	.LBE207-.LBB207
 4292 0fee 01       		.byte	0x1
 4293 0fef 0F01     		.2byte	0x10f
 4294 0ff1 FF0F0000 		.4byte	0xfff
ARM GAS  /tmp/ccOPYu5Z.s 			page 140


 4295 0ff5 2F       		.uleb128 0x2f
 4296 0ff6 F8090000 		.4byte	0x9f8
 4297 0ffa D3050000 		.4byte	.LLST34
 4298 0ffe 00       		.byte	0
 4299 0fff 47       		.uleb128 0x47
 4300 1000 380E0000 		.4byte	0xe38
 4301 1004 08020000 		.4byte	.LBB210
 4302 1008 2A000000 		.4byte	.LBE210-.LBB210
 4303 100c 01       		.byte	0x1
 4304 100d 1201     		.2byte	0x112
 4305 100f 27100000 		.4byte	0x1027
 4306 1013 3D       		.uleb128 0x3d
 4307 1014 08020000 		.4byte	.LBB211
 4308 1018 2A000000 		.4byte	.LBE211-.LBB211
 4309 101c 3C       		.uleb128 0x3c
 4310 101d 440E0000 		.4byte	0xe44
 4311 1021 FE050000 		.4byte	.LLST35
 4312 1025 00       		.byte	0
 4313 1026 00       		.byte	0
 4314 1027 47       		.uleb128 0x47
 4315 1028 EC090000 		.4byte	0x9ec
 4316 102c 34020000 		.4byte	.LBB213
 4317 1030 10000000 		.4byte	.LBE213-.LBB213
 4318 1034 01       		.byte	0x1
 4319 1035 1301     		.2byte	0x113
 4320 1037 45100000 		.4byte	0x1045
 4321 103b 2F       		.uleb128 0x2f
 4322 103c F8090000 		.4byte	0x9f8
 4323 1040 3B060000 		.4byte	.LLST36
 4324 1044 00       		.byte	0
 4325 1045 47       		.uleb128 0x47
 4326 1046 EC090000 		.4byte	0x9ec
 4327 104a 4E020000 		.4byte	.LBB215
 4328 104e 16000000 		.4byte	.LBE215-.LBB215
 4329 1052 01       		.byte	0x1
 4330 1053 1401     		.2byte	0x114
 4331 1055 63100000 		.4byte	0x1063
 4332 1059 2F       		.uleb128 0x2f
 4333 105a F8090000 		.4byte	0x9f8
 4334 105e 66060000 		.4byte	.LLST37
 4335 1062 00       		.byte	0
 4336 1063 47       		.uleb128 0x47
 4337 1064 EC090000 		.4byte	0x9ec
 4338 1068 A4020000 		.4byte	.LBB217
 4339 106c 12000000 		.4byte	.LBE217-.LBB217
 4340 1070 01       		.byte	0x1
 4341 1071 1F01     		.2byte	0x11f
 4342 1073 81100000 		.4byte	0x1081
 4343 1077 2F       		.uleb128 0x2f
 4344 1078 F8090000 		.4byte	0x9f8
 4345 107c 9C060000 		.4byte	.LLST38
 4346 1080 00       		.byte	0
 4347 1081 4A       		.uleb128 0x4a
 4348 1082 1C000000 		.4byte	.LVL58
 4349 1086 D40C0000 		.4byte	0xcd4
 4350 108a 98100000 		.4byte	0x1098
 4351 108e 2C       		.uleb128 0x2c
ARM GAS  /tmp/ccOPYu5Z.s 			page 141


 4352 108f 01       		.uleb128 0x1
 4353 1090 50       		.byte	0x50
 4354 1091 05       		.uleb128 0x5
 4355 1092 03       		.byte	0x3
 4356 1093 04000000 		.4byte	.LC1
 4357 1097 00       		.byte	0
 4358 1098 4A       		.uleb128 0x4a
 4359 1099 28000000 		.4byte	.LVL59
 4360 109d D40C0000 		.4byte	0xcd4
 4361 10a1 AF100000 		.4byte	0x10af
 4362 10a5 2C       		.uleb128 0x2c
 4363 10a6 01       		.uleb128 0x1
 4364 10a7 50       		.byte	0x50
 4365 10a8 05       		.uleb128 0x5
 4366 10a9 03       		.byte	0x3
 4367 10aa 08000000 		.4byte	.LC2
 4368 10ae 00       		.byte	0
 4369 10af 4A       		.uleb128 0x4a
 4370 10b0 38000000 		.4byte	.LVL60
 4371 10b4 D40C0000 		.4byte	0xcd4
 4372 10b8 C6100000 		.4byte	0x10c6
 4373 10bc 2C       		.uleb128 0x2c
 4374 10bd 01       		.uleb128 0x1
 4375 10be 50       		.byte	0x50
 4376 10bf 05       		.uleb128 0x5
 4377 10c0 03       		.byte	0x3
 4378 10c1 24000000 		.4byte	.LC3
 4379 10c5 00       		.byte	0
 4380 10c6 4A       		.uleb128 0x4a
 4381 10c7 5E000000 		.4byte	.LVL66
 4382 10cb D40C0000 		.4byte	0xcd4
 4383 10cf DD100000 		.4byte	0x10dd
 4384 10d3 2C       		.uleb128 0x2c
 4385 10d4 01       		.uleb128 0x1
 4386 10d5 50       		.byte	0x50
 4387 10d6 05       		.uleb128 0x5
 4388 10d7 03       		.byte	0x3
 4389 10d8 AC000000 		.4byte	.LC14
 4390 10dc 00       		.byte	0
 4391 10dd 4A       		.uleb128 0x4a
 4392 10de 84000000 		.4byte	.LVL72
 4393 10e2 D40C0000 		.4byte	0xcd4
 4394 10e6 F4100000 		.4byte	0x10f4
 4395 10ea 2C       		.uleb128 0x2c
 4396 10eb 01       		.uleb128 0x1
 4397 10ec 50       		.byte	0x50
 4398 10ed 05       		.uleb128 0x5
 4399 10ee 03       		.byte	0x3
 4400 10ef D8000000 		.4byte	.LC16
 4401 10f3 00       		.byte	0
 4402 10f4 4A       		.uleb128 0x4a
 4403 10f5 AC000000 		.4byte	.LVL77
 4404 10f9 D40C0000 		.4byte	0xcd4
 4405 10fd 0B110000 		.4byte	0x110b
 4406 1101 2C       		.uleb128 0x2c
 4407 1102 01       		.uleb128 0x1
 4408 1103 50       		.byte	0x50
ARM GAS  /tmp/ccOPYu5Z.s 			page 142


 4409 1104 05       		.uleb128 0x5
 4410 1105 03       		.byte	0x3
 4411 1106 3C000000 		.4byte	.LC5
 4412 110a 00       		.byte	0
 4413 110b 4B       		.uleb128 0x4b
 4414 110c B0000000 		.4byte	.LVL78
 4415 1110 C2120000 		.4byte	0x12c2
 4416 1114 4A       		.uleb128 0x4a
 4417 1115 C0000000 		.4byte	.LVL79
 4418 1119 D40C0000 		.4byte	0xcd4
 4419 111d 2B110000 		.4byte	0x112b
 4420 1121 2C       		.uleb128 0x2c
 4421 1122 01       		.uleb128 0x1
 4422 1123 50       		.byte	0x50
 4423 1124 05       		.uleb128 0x5
 4424 1125 03       		.byte	0x3
 4425 1126 04000000 		.4byte	.LC1
 4426 112a 00       		.byte	0
 4427 112b 4B       		.uleb128 0x4b
 4428 112c 08010000 		.4byte	.LVL86
 4429 1130 300A0000 		.4byte	0xa30
 4430 1134 4A       		.uleb128 0x4a
 4431 1135 2C010000 		.4byte	.LVL91
 4432 1139 AC090000 		.4byte	0x9ac
 4433 113d 49110000 		.4byte	0x1149
 4434 1141 2C       		.uleb128 0x2c
 4435 1142 01       		.uleb128 0x1
 4436 1143 50       		.byte	0x50
 4437 1144 03       		.uleb128 0x3
 4438 1145 91       		.byte	0x91
 4439 1146 50       		.sleb128 -48
 4440 1147 06       		.byte	0x6
 4441 1148 00       		.byte	0
 4442 1149 4A       		.uleb128 0x4a
 4443 114a 44010000 		.4byte	.LVL95
 4444 114e AC090000 		.4byte	0x9ac
 4445 1152 5D110000 		.4byte	0x115d
 4446 1156 2C       		.uleb128 0x2c
 4447 1157 01       		.uleb128 0x1
 4448 1158 50       		.byte	0x50
 4449 1159 02       		.uleb128 0x2
 4450 115a 76       		.byte	0x76
 4451 115b 00       		.sleb128 0
 4452 115c 00       		.byte	0
 4453 115d 4A       		.uleb128 0x4a
 4454 115e 86010000 		.4byte	.LVL107
 4455 1162 D40C0000 		.4byte	0xcd4
 4456 1166 74110000 		.4byte	0x1174
 4457 116a 2C       		.uleb128 0x2c
 4458 116b 01       		.uleb128 0x1
 4459 116c 50       		.byte	0x50
 4460 116d 05       		.uleb128 0x5
 4461 116e 03       		.byte	0x3
 4462 116f 64000000 		.4byte	.LC7
 4463 1173 00       		.byte	0
 4464 1174 4B       		.uleb128 0x4b
 4465 1175 F2010000 		.4byte	.LVL119
ARM GAS  /tmp/ccOPYu5Z.s 			page 143


 4466 1179 AC090000 		.4byte	0x9ac
 4467 117d 4A       		.uleb128 0x4a
 4468 117e 70020000 		.4byte	.LVL142
 4469 1182 D40C0000 		.4byte	0xcd4
 4470 1186 94110000 		.4byte	0x1194
 4471 118a 2C       		.uleb128 0x2c
 4472 118b 01       		.uleb128 0x1
 4473 118c 50       		.byte	0x50
 4474 118d 05       		.uleb128 0x5
 4475 118e 03       		.byte	0x3
 4476 118f 84000000 		.4byte	.LC10
 4477 1193 00       		.byte	0
 4478 1194 4B       		.uleb128 0x4b
 4479 1195 90020000 		.4byte	.LVL146
 4480 1199 300A0000 		.4byte	0xa30
 4481 119d 4A       		.uleb128 0x4a
 4482 119e A0020000 		.4byte	.LVL147
 4483 11a2 D40C0000 		.4byte	0xcd4
 4484 11a6 B4110000 		.4byte	0x11b4
 4485 11aa 2C       		.uleb128 0x2c
 4486 11ab 01       		.uleb128 0x1
 4487 11ac 50       		.byte	0x50
 4488 11ad 05       		.uleb128 0x5
 4489 11ae 03       		.byte	0x3
 4490 11af 04000000 		.4byte	.LC1
 4491 11b3 00       		.byte	0
 4492 11b4 4A       		.uleb128 0x4a
 4493 11b5 C8020000 		.4byte	.LVL152
 4494 11b9 D40C0000 		.4byte	0xcd4
 4495 11bd CB110000 		.4byte	0x11cb
 4496 11c1 2C       		.uleb128 0x2c
 4497 11c2 01       		.uleb128 0x1
 4498 11c3 50       		.byte	0x50
 4499 11c4 05       		.uleb128 0x5
 4500 11c5 03       		.byte	0x3
 4501 11c6 A4000000 		.4byte	.LC13
 4502 11ca 00       		.byte	0
 4503 11cb 4A       		.uleb128 0x4a
 4504 11cc DE020000 		.4byte	.LVL154
 4505 11d0 D40C0000 		.4byte	0xcd4
 4506 11d4 E2110000 		.4byte	0x11e2
 4507 11d8 2C       		.uleb128 0x2c
 4508 11d9 01       		.uleb128 0x1
 4509 11da 50       		.byte	0x50
 4510 11db 05       		.uleb128 0x5
 4511 11dc 03       		.byte	0x3
 4512 11dd 88000000 		.4byte	.LC11
 4513 11e1 00       		.byte	0
 4514 11e2 49       		.uleb128 0x49
 4515 11e3 EC020000 		.4byte	.LVL156
 4516 11e7 D40C0000 		.4byte	0xcd4
 4517 11eb 2C       		.uleb128 0x2c
 4518 11ec 01       		.uleb128 0x1
 4519 11ed 50       		.byte	0x50
 4520 11ee 05       		.uleb128 0x5
 4521 11ef 03       		.byte	0x3
 4522 11f0 9C000000 		.4byte	.LC12
ARM GAS  /tmp/ccOPYu5Z.s 			page 144


 4523 11f4 00       		.byte	0
 4524 11f5 00       		.byte	0
 4525 11f6 0A       		.uleb128 0xa
 4526 11f7 04       		.byte	0x4
 4527 11f8 08080000 		.4byte	0x808
 4528 11fc 4C       		.uleb128 0x4c
 4529 11fd 06060000 		.4byte	.LASF144
 4530 1201 01       		.byte	0x1
 4531 1202 37       		.byte	0x37
 4532 1203 26070000 		.4byte	0x726
 4533 1207 05       		.uleb128 0x5
 4534 1208 03       		.byte	0x3
 4535 1209 00000000 		.4byte	test_local_fail
 4536 120d 4C       		.uleb128 0x4c
 4537 120e 65060000 		.4byte	.LASF145
 4538 1212 01       		.byte	0x1
 4539 1213 38       		.byte	0x38
 4540 1214 F2060000 		.4byte	0x6f2
 4541 1218 05       		.uleb128 0x5
 4542 1219 03       		.byte	0x3
 4543 121a 00000000 		.4byte	test_failure_message
 4544 121e 4C       		.uleb128 0x4c
 4545 121f A3000000 		.4byte	.LASF146
 4546 1223 01       		.byte	0x1
 4547 1224 39       		.byte	0x39
 4548 1225 D6090000 		.4byte	0x9d6
 4549 1229 05       		.uleb128 0x5
 4550 122a 03       		.byte	0x3
 4551 122b 00000000 		.4byte	test_tokens_buffer
 4552 122f 4C       		.uleb128 0x4c
 4553 1230 86000000 		.4byte	.LASF147
 4554 1234 01       		.byte	0x1
 4555 1235 3A       		.byte	0x3a
 4556 1236 E6090000 		.4byte	0x9e6
 4557 123a 05       		.uleb128 0x5
 4558 123b 03       		.byte	0x3
 4559 123c 00000000 		.4byte	test_tokp
 4560 1240 4C       		.uleb128 0x4c
 4561 1241 FD050000 		.4byte	.LASF148
 4562 1245 01       		.byte	0x1
 4563 1246 3B       		.byte	0x3b
 4564 1247 F6110000 		.4byte	0x11f6
 4565 124b 05       		.uleb128 0x5
 4566 124c 03       		.byte	0x3
 4567 124d 00000000 		.4byte	test_chp
 4568 1251 4D       		.uleb128 0x4d
 4569 1252 D4000000 		.4byte	.LASF149
 4570 1256 15       		.byte	0x15
 4571 1257 9606     		.2byte	0x696
 4572 1259 5D120000 		.4byte	0x125d
 4573 125d 0F       		.uleb128 0xf
 4574 125e C3000000 		.4byte	0xc3
 4575 1262 4E       		.uleb128 0x4e
 4576 1263 636800   		.ascii	"ch\000"
 4577 1266 0B       		.byte	0xb
 4578 1267 D201     		.2byte	0x1d2
 4579 1269 DC030000 		.4byte	0x3dc
ARM GAS  /tmp/ccOPYu5Z.s 			page 145


 4580 126d 4F       		.uleb128 0x4f
 4581 126e 9C030000 		.4byte	.LASF150
 4582 1272 01       		.byte	0x1
 4583 1273 28       		.byte	0x28
 4584 1274 37000000 		.4byte	0x37
 4585 1278 05       		.uleb128 0x5
 4586 1279 03       		.byte	0x3
 4587 127a 00000000 		.4byte	test_step
 4588 127e 4F       		.uleb128 0x4f
 4589 127f C5050000 		.4byte	.LASF151
 4590 1283 01       		.byte	0x1
 4591 1284 2D       		.byte	0x2d
 4592 1285 26070000 		.4byte	0x726
 4593 1289 05       		.uleb128 0x5
 4594 128a 03       		.byte	0x3
 4595 128b 00000000 		.4byte	test_global_fail
 4596 128f 10       		.uleb128 0x10
 4597 1290 9A120000 		.4byte	0x129a
 4598 1294 9A120000 		.4byte	0x129a
 4599 1298 50       		.uleb128 0x50
 4600 1299 00       		.byte	0
 4601 129a 0A       		.uleb128 0xa
 4602 129b 04       		.byte	0x4
 4603 129c A0120000 		.4byte	0x12a0
 4604 12a0 17       		.uleb128 0x17
 4605 12a1 2D0E0000 		.4byte	0xe2d
 4606 12a5 51       		.uleb128 0x51
 4607 12a6 72050000 		.4byte	.LASF152
 4608 12aa 16       		.byte	0x16
 4609 12ab 2D       		.byte	0x2d
 4610 12ac 8F120000 		.4byte	0x128f
 4611 12b0 52       		.uleb128 0x52
 4612 12b1 D9040000 		.4byte	.LASF153
 4613 12b5 17       		.byte	0x17
 4614 12b6 0901     		.2byte	0x109
 4615 12b8 C2120000 		.4byte	0x12c2
 4616 12bc 0D       		.uleb128 0xd
 4617 12bd 31010000 		.4byte	0x131
 4618 12c1 00       		.byte	0
 4619 12c2 53       		.uleb128 0x53
 4620 12c3 1C060000 		.4byte	.LASF158
 4621 12c7 16       		.byte	0x16
 4622 12c8 5F       		.byte	0x5f
 4623 12c9 00       		.byte	0
 4624              		.section	.debug_abbrev,"",%progbits
 4625              	.Ldebug_abbrev0:
 4626 0000 01       		.uleb128 0x1
 4627 0001 11       		.uleb128 0x11
 4628 0002 01       		.byte	0x1
 4629 0003 25       		.uleb128 0x25
 4630 0004 0E       		.uleb128 0xe
 4631 0005 13       		.uleb128 0x13
 4632 0006 0B       		.uleb128 0xb
 4633 0007 03       		.uleb128 0x3
 4634 0008 0E       		.uleb128 0xe
 4635 0009 1B       		.uleb128 0x1b
 4636 000a 0E       		.uleb128 0xe
ARM GAS  /tmp/ccOPYu5Z.s 			page 146


 4637 000b 55       		.uleb128 0x55
 4638 000c 17       		.uleb128 0x17
 4639 000d 11       		.uleb128 0x11
 4640 000e 01       		.uleb128 0x1
 4641 000f 10       		.uleb128 0x10
 4642 0010 17       		.uleb128 0x17
 4643 0011 00       		.byte	0
 4644 0012 00       		.byte	0
 4645 0013 02       		.uleb128 0x2
 4646 0014 24       		.uleb128 0x24
 4647 0015 00       		.byte	0
 4648 0016 0B       		.uleb128 0xb
 4649 0017 0B       		.uleb128 0xb
 4650 0018 3E       		.uleb128 0x3e
 4651 0019 0B       		.uleb128 0xb
 4652 001a 03       		.uleb128 0x3
 4653 001b 08       		.uleb128 0x8
 4654 001c 00       		.byte	0
 4655 001d 00       		.byte	0
 4656 001e 03       		.uleb128 0x3
 4657 001f 16       		.uleb128 0x16
 4658 0020 00       		.byte	0
 4659 0021 03       		.uleb128 0x3
 4660 0022 0E       		.uleb128 0xe
 4661 0023 3A       		.uleb128 0x3a
 4662 0024 0B       		.uleb128 0xb
 4663 0025 3B       		.uleb128 0x3b
 4664 0026 0B       		.uleb128 0xb
 4665 0027 49       		.uleb128 0x49
 4666 0028 13       		.uleb128 0x13
 4667 0029 00       		.byte	0
 4668 002a 00       		.byte	0
 4669 002b 04       		.uleb128 0x4
 4670 002c 24       		.uleb128 0x24
 4671 002d 00       		.byte	0
 4672 002e 0B       		.uleb128 0xb
 4673 002f 0B       		.uleb128 0xb
 4674 0030 3E       		.uleb128 0x3e
 4675 0031 0B       		.uleb128 0xb
 4676 0032 03       		.uleb128 0x3
 4677 0033 0E       		.uleb128 0xe
 4678 0034 00       		.byte	0
 4679 0035 00       		.byte	0
 4680 0036 05       		.uleb128 0x5
 4681 0037 13       		.uleb128 0x13
 4682 0038 01       		.byte	0x1
 4683 0039 03       		.uleb128 0x3
 4684 003a 0E       		.uleb128 0xe
 4685 003b 0B       		.uleb128 0xb
 4686 003c 0B       		.uleb128 0xb
 4687 003d 3A       		.uleb128 0x3a
 4688 003e 0B       		.uleb128 0xb
 4689 003f 3B       		.uleb128 0x3b
 4690 0040 0B       		.uleb128 0xb
 4691 0041 01       		.uleb128 0x1
 4692 0042 13       		.uleb128 0x13
 4693 0043 00       		.byte	0
ARM GAS  /tmp/ccOPYu5Z.s 			page 147


 4694 0044 00       		.byte	0
 4695 0045 06       		.uleb128 0x6
 4696 0046 0D       		.uleb128 0xd
 4697 0047 00       		.byte	0
 4698 0048 03       		.uleb128 0x3
 4699 0049 0E       		.uleb128 0xe
 4700 004a 3A       		.uleb128 0x3a
 4701 004b 0B       		.uleb128 0xb
 4702 004c 3B       		.uleb128 0x3b
 4703 004d 0B       		.uleb128 0xb
 4704 004e 49       		.uleb128 0x49
 4705 004f 13       		.uleb128 0x13
 4706 0050 38       		.uleb128 0x38
 4707 0051 0B       		.uleb128 0xb
 4708 0052 00       		.byte	0
 4709 0053 00       		.byte	0
 4710 0054 07       		.uleb128 0x7
 4711 0055 0D       		.uleb128 0xd
 4712 0056 00       		.byte	0
 4713 0057 03       		.uleb128 0x3
 4714 0058 08       		.uleb128 0x8
 4715 0059 3A       		.uleb128 0x3a
 4716 005a 0B       		.uleb128 0xb
 4717 005b 3B       		.uleb128 0x3b
 4718 005c 0B       		.uleb128 0xb
 4719 005d 49       		.uleb128 0x49
 4720 005e 13       		.uleb128 0x13
 4721 005f 38       		.uleb128 0x38
 4722 0060 0B       		.uleb128 0xb
 4723 0061 00       		.byte	0
 4724 0062 00       		.byte	0
 4725 0063 08       		.uleb128 0x8
 4726 0064 0D       		.uleb128 0xd
 4727 0065 00       		.byte	0
 4728 0066 03       		.uleb128 0x3
 4729 0067 08       		.uleb128 0x8
 4730 0068 3A       		.uleb128 0x3a
 4731 0069 0B       		.uleb128 0xb
 4732 006a 3B       		.uleb128 0x3b
 4733 006b 05       		.uleb128 0x5
 4734 006c 49       		.uleb128 0x49
 4735 006d 13       		.uleb128 0x13
 4736 006e 38       		.uleb128 0x38
 4737 006f 0B       		.uleb128 0xb
 4738 0070 00       		.byte	0
 4739 0071 00       		.byte	0
 4740 0072 09       		.uleb128 0x9
 4741 0073 0D       		.uleb128 0xd
 4742 0074 00       		.byte	0
 4743 0075 03       		.uleb128 0x3
 4744 0076 0E       		.uleb128 0xe
 4745 0077 3A       		.uleb128 0x3a
 4746 0078 0B       		.uleb128 0xb
 4747 0079 3B       		.uleb128 0x3b
 4748 007a 05       		.uleb128 0x5
 4749 007b 49       		.uleb128 0x49
 4750 007c 13       		.uleb128 0x13
ARM GAS  /tmp/ccOPYu5Z.s 			page 148


 4751 007d 38       		.uleb128 0x38
 4752 007e 0B       		.uleb128 0xb
 4753 007f 00       		.byte	0
 4754 0080 00       		.byte	0
 4755 0081 0A       		.uleb128 0xa
 4756 0082 0F       		.uleb128 0xf
 4757 0083 00       		.byte	0
 4758 0084 0B       		.uleb128 0xb
 4759 0085 0B       		.uleb128 0xb
 4760 0086 49       		.uleb128 0x49
 4761 0087 13       		.uleb128 0x13
 4762 0088 00       		.byte	0
 4763 0089 00       		.byte	0
 4764 008a 0B       		.uleb128 0xb
 4765 008b 13       		.uleb128 0x13
 4766 008c 01       		.byte	0x1
 4767 008d 03       		.uleb128 0x3
 4768 008e 0E       		.uleb128 0xe
 4769 008f 0B       		.uleb128 0xb
 4770 0090 0B       		.uleb128 0xb
 4771 0091 3A       		.uleb128 0x3a
 4772 0092 0B       		.uleb128 0xb
 4773 0093 3B       		.uleb128 0x3b
 4774 0094 05       		.uleb128 0x5
 4775 0095 01       		.uleb128 0x1
 4776 0096 13       		.uleb128 0x13
 4777 0097 00       		.byte	0
 4778 0098 00       		.byte	0
 4779 0099 0C       		.uleb128 0xc
 4780 009a 15       		.uleb128 0x15
 4781 009b 01       		.byte	0x1
 4782 009c 27       		.uleb128 0x27
 4783 009d 19       		.uleb128 0x19
 4784 009e 01       		.uleb128 0x1
 4785 009f 13       		.uleb128 0x13
 4786 00a0 00       		.byte	0
 4787 00a1 00       		.byte	0
 4788 00a2 0D       		.uleb128 0xd
 4789 00a3 05       		.uleb128 0x5
 4790 00a4 00       		.byte	0
 4791 00a5 49       		.uleb128 0x49
 4792 00a6 13       		.uleb128 0x13
 4793 00a7 00       		.byte	0
 4794 00a8 00       		.byte	0
 4795 00a9 0E       		.uleb128 0xe
 4796 00aa 0F       		.uleb128 0xf
 4797 00ab 00       		.byte	0
 4798 00ac 0B       		.uleb128 0xb
 4799 00ad 0B       		.uleb128 0xb
 4800 00ae 00       		.byte	0
 4801 00af 00       		.byte	0
 4802 00b0 0F       		.uleb128 0xf
 4803 00b1 35       		.uleb128 0x35
 4804 00b2 00       		.byte	0
 4805 00b3 49       		.uleb128 0x49
 4806 00b4 13       		.uleb128 0x13
 4807 00b5 00       		.byte	0
ARM GAS  /tmp/ccOPYu5Z.s 			page 149


 4808 00b6 00       		.byte	0
 4809 00b7 10       		.uleb128 0x10
 4810 00b8 01       		.uleb128 0x1
 4811 00b9 01       		.byte	0x1
 4812 00ba 49       		.uleb128 0x49
 4813 00bb 13       		.uleb128 0x13
 4814 00bc 01       		.uleb128 0x1
 4815 00bd 13       		.uleb128 0x13
 4816 00be 00       		.byte	0
 4817 00bf 00       		.byte	0
 4818 00c0 11       		.uleb128 0x11
 4819 00c1 21       		.uleb128 0x21
 4820 00c2 00       		.byte	0
 4821 00c3 49       		.uleb128 0x49
 4822 00c4 13       		.uleb128 0x13
 4823 00c5 2F       		.uleb128 0x2f
 4824 00c6 0B       		.uleb128 0xb
 4825 00c7 00       		.byte	0
 4826 00c8 00       		.byte	0
 4827 00c9 12       		.uleb128 0x12
 4828 00ca 13       		.uleb128 0x13
 4829 00cb 01       		.byte	0x1
 4830 00cc 0B       		.uleb128 0xb
 4831 00cd 0B       		.uleb128 0xb
 4832 00ce 3A       		.uleb128 0x3a
 4833 00cf 0B       		.uleb128 0xb
 4834 00d0 3B       		.uleb128 0x3b
 4835 00d1 05       		.uleb128 0x5
 4836 00d2 01       		.uleb128 0x1
 4837 00d3 13       		.uleb128 0x13
 4838 00d4 00       		.byte	0
 4839 00d5 00       		.byte	0
 4840 00d6 13       		.uleb128 0x13
 4841 00d7 16       		.uleb128 0x16
 4842 00d8 00       		.byte	0
 4843 00d9 03       		.uleb128 0x3
 4844 00da 0E       		.uleb128 0xe
 4845 00db 3A       		.uleb128 0x3a
 4846 00dc 0B       		.uleb128 0xb
 4847 00dd 3B       		.uleb128 0x3b
 4848 00de 05       		.uleb128 0x5
 4849 00df 49       		.uleb128 0x49
 4850 00e0 13       		.uleb128 0x13
 4851 00e1 00       		.byte	0
 4852 00e2 00       		.byte	0
 4853 00e3 14       		.uleb128 0x14
 4854 00e4 17       		.uleb128 0x17
 4855 00e5 01       		.byte	0x1
 4856 00e6 0B       		.uleb128 0xb
 4857 00e7 0B       		.uleb128 0xb
 4858 00e8 3A       		.uleb128 0x3a
 4859 00e9 0B       		.uleb128 0xb
 4860 00ea 3B       		.uleb128 0x3b
 4861 00eb 0B       		.uleb128 0xb
 4862 00ec 01       		.uleb128 0x1
 4863 00ed 13       		.uleb128 0x13
 4864 00ee 00       		.byte	0
ARM GAS  /tmp/ccOPYu5Z.s 			page 150


 4865 00ef 00       		.byte	0
 4866 00f0 15       		.uleb128 0x15
 4867 00f1 0D       		.uleb128 0xd
 4868 00f2 00       		.byte	0
 4869 00f3 03       		.uleb128 0x3
 4870 00f4 0E       		.uleb128 0xe
 4871 00f5 3A       		.uleb128 0x3a
 4872 00f6 0B       		.uleb128 0xb
 4873 00f7 3B       		.uleb128 0x3b
 4874 00f8 0B       		.uleb128 0xb
 4875 00f9 49       		.uleb128 0x49
 4876 00fa 13       		.uleb128 0x13
 4877 00fb 00       		.byte	0
 4878 00fc 00       		.byte	0
 4879 00fd 16       		.uleb128 0x16
 4880 00fe 0D       		.uleb128 0xd
 4881 00ff 00       		.byte	0
 4882 0100 03       		.uleb128 0x3
 4883 0101 0E       		.uleb128 0xe
 4884 0102 3A       		.uleb128 0x3a
 4885 0103 0B       		.uleb128 0xb
 4886 0104 3B       		.uleb128 0x3b
 4887 0105 05       		.uleb128 0x5
 4888 0106 49       		.uleb128 0x49
 4889 0107 13       		.uleb128 0x13
 4890 0108 00       		.byte	0
 4891 0109 00       		.byte	0
 4892 010a 17       		.uleb128 0x17
 4893 010b 26       		.uleb128 0x26
 4894 010c 00       		.byte	0
 4895 010d 49       		.uleb128 0x49
 4896 010e 13       		.uleb128 0x13
 4897 010f 00       		.byte	0
 4898 0110 00       		.byte	0
 4899 0111 18       		.uleb128 0x18
 4900 0112 15       		.uleb128 0x15
 4901 0113 01       		.byte	0x1
 4902 0114 27       		.uleb128 0x27
 4903 0115 19       		.uleb128 0x19
 4904 0116 49       		.uleb128 0x49
 4905 0117 13       		.uleb128 0x13
 4906 0118 01       		.uleb128 0x1
 4907 0119 13       		.uleb128 0x13
 4908 011a 00       		.byte	0
 4909 011b 00       		.byte	0
 4910 011c 19       		.uleb128 0x19
 4911 011d 13       		.uleb128 0x13
 4912 011e 01       		.byte	0x1
 4913 011f 0B       		.uleb128 0xb
 4914 0120 0B       		.uleb128 0xb
 4915 0121 3A       		.uleb128 0x3a
 4916 0122 0B       		.uleb128 0xb
 4917 0123 3B       		.uleb128 0x3b
 4918 0124 0B       		.uleb128 0xb
 4919 0125 01       		.uleb128 0x1
 4920 0126 13       		.uleb128 0x13
 4921 0127 00       		.byte	0
ARM GAS  /tmp/ccOPYu5Z.s 			page 151


 4922 0128 00       		.byte	0
 4923 0129 1A       		.uleb128 0x1a
 4924 012a 15       		.uleb128 0x15
 4925 012b 00       		.byte	0
 4926 012c 27       		.uleb128 0x27
 4927 012d 19       		.uleb128 0x19
 4928 012e 00       		.byte	0
 4929 012f 00       		.byte	0
 4930 0130 1B       		.uleb128 0x1b
 4931 0131 2E       		.uleb128 0x2e
 4932 0132 01       		.byte	0x1
 4933 0133 03       		.uleb128 0x3
 4934 0134 0E       		.uleb128 0xe
 4935 0135 3A       		.uleb128 0x3a
 4936 0136 0B       		.uleb128 0xb
 4937 0137 3B       		.uleb128 0x3b
 4938 0138 05       		.uleb128 0x5
 4939 0139 27       		.uleb128 0x27
 4940 013a 19       		.uleb128 0x19
 4941 013b 20       		.uleb128 0x20
 4942 013c 0B       		.uleb128 0xb
 4943 013d 01       		.uleb128 0x1
 4944 013e 13       		.uleb128 0x13
 4945 013f 00       		.byte	0
 4946 0140 00       		.byte	0
 4947 0141 1C       		.uleb128 0x1c
 4948 0142 05       		.uleb128 0x5
 4949 0143 00       		.byte	0
 4950 0144 03       		.uleb128 0x3
 4951 0145 0E       		.uleb128 0xe
 4952 0146 3A       		.uleb128 0x3a
 4953 0147 0B       		.uleb128 0xb
 4954 0148 3B       		.uleb128 0x3b
 4955 0149 05       		.uleb128 0x5
 4956 014a 49       		.uleb128 0x49
 4957 014b 13       		.uleb128 0x13
 4958 014c 00       		.byte	0
 4959 014d 00       		.byte	0
 4960 014e 1D       		.uleb128 0x1d
 4961 014f 2E       		.uleb128 0x2e
 4962 0150 00       		.byte	0
 4963 0151 03       		.uleb128 0x3
 4964 0152 0E       		.uleb128 0xe
 4965 0153 3A       		.uleb128 0x3a
 4966 0154 0B       		.uleb128 0xb
 4967 0155 3B       		.uleb128 0x3b
 4968 0156 0B       		.uleb128 0xb
 4969 0157 27       		.uleb128 0x27
 4970 0158 19       		.uleb128 0x19
 4971 0159 49       		.uleb128 0x49
 4972 015a 13       		.uleb128 0x13
 4973 015b 20       		.uleb128 0x20
 4974 015c 0B       		.uleb128 0xb
 4975 015d 00       		.byte	0
 4976 015e 00       		.byte	0
 4977 015f 1E       		.uleb128 0x1e
 4978 0160 2E       		.uleb128 0x2e
ARM GAS  /tmp/ccOPYu5Z.s 			page 152


 4979 0161 00       		.byte	0
 4980 0162 03       		.uleb128 0x3
 4981 0163 0E       		.uleb128 0xe
 4982 0164 3A       		.uleb128 0x3a
 4983 0165 0B       		.uleb128 0xb
 4984 0166 3B       		.uleb128 0x3b
 4985 0167 05       		.uleb128 0x5
 4986 0168 27       		.uleb128 0x27
 4987 0169 19       		.uleb128 0x19
 4988 016a 20       		.uleb128 0x20
 4989 016b 0B       		.uleb128 0xb
 4990 016c 00       		.byte	0
 4991 016d 00       		.byte	0
 4992 016e 1F       		.uleb128 0x1f
 4993 016f 34       		.uleb128 0x34
 4994 0170 00       		.byte	0
 4995 0171 03       		.uleb128 0x3
 4996 0172 0E       		.uleb128 0xe
 4997 0173 49       		.uleb128 0x49
 4998 0174 13       		.uleb128 0x13
 4999 0175 34       		.uleb128 0x34
 5000 0176 19       		.uleb128 0x19
 5001 0177 1C       		.uleb128 0x1c
 5002 0178 0E       		.uleb128 0xe
 5003 0179 00       		.byte	0
 5004 017a 00       		.byte	0
 5005 017b 20       		.uleb128 0x20
 5006 017c 2E       		.uleb128 0x2e
 5007 017d 00       		.byte	0
 5008 017e 03       		.uleb128 0x3
 5009 017f 0E       		.uleb128 0xe
 5010 0180 3A       		.uleb128 0x3a
 5011 0181 0B       		.uleb128 0xb
 5012 0182 3B       		.uleb128 0x3b
 5013 0183 05       		.uleb128 0x5
 5014 0184 27       		.uleb128 0x27
 5015 0185 19       		.uleb128 0x19
 5016 0186 49       		.uleb128 0x49
 5017 0187 13       		.uleb128 0x13
 5018 0188 20       		.uleb128 0x20
 5019 0189 0B       		.uleb128 0xb
 5020 018a 00       		.byte	0
 5021 018b 00       		.byte	0
 5022 018c 21       		.uleb128 0x21
 5023 018d 2E       		.uleb128 0x2e
 5024 018e 01       		.byte	0x1
 5025 018f 03       		.uleb128 0x3
 5026 0190 0E       		.uleb128 0xe
 5027 0191 3A       		.uleb128 0x3a
 5028 0192 0B       		.uleb128 0xb
 5029 0193 3B       		.uleb128 0x3b
 5030 0194 05       		.uleb128 0x5
 5031 0195 27       		.uleb128 0x27
 5032 0196 19       		.uleb128 0x19
 5033 0197 49       		.uleb128 0x49
 5034 0198 13       		.uleb128 0x13
 5035 0199 20       		.uleb128 0x20
ARM GAS  /tmp/ccOPYu5Z.s 			page 153


 5036 019a 0B       		.uleb128 0xb
 5037 019b 01       		.uleb128 0x1
 5038 019c 13       		.uleb128 0x13
 5039 019d 00       		.byte	0
 5040 019e 00       		.byte	0
 5041 019f 22       		.uleb128 0x22
 5042 01a0 05       		.uleb128 0x5
 5043 01a1 00       		.byte	0
 5044 01a2 03       		.uleb128 0x3
 5045 01a3 08       		.uleb128 0x8
 5046 01a4 3A       		.uleb128 0x3a
 5047 01a5 0B       		.uleb128 0xb
 5048 01a6 3B       		.uleb128 0x3b
 5049 01a7 05       		.uleb128 0x5
 5050 01a8 49       		.uleb128 0x49
 5051 01a9 13       		.uleb128 0x13
 5052 01aa 00       		.byte	0
 5053 01ab 00       		.byte	0
 5054 01ac 23       		.uleb128 0x23
 5055 01ad 2E       		.uleb128 0x2e
 5056 01ae 00       		.byte	0
 5057 01af 03       		.uleb128 0x3
 5058 01b0 0E       		.uleb128 0xe
 5059 01b1 3A       		.uleb128 0x3a
 5060 01b2 0B       		.uleb128 0xb
 5061 01b3 3B       		.uleb128 0x3b
 5062 01b4 0B       		.uleb128 0xb
 5063 01b5 27       		.uleb128 0x27
 5064 01b6 19       		.uleb128 0x19
 5065 01b7 20       		.uleb128 0x20
 5066 01b8 0B       		.uleb128 0xb
 5067 01b9 00       		.byte	0
 5068 01ba 00       		.byte	0
 5069 01bb 24       		.uleb128 0x24
 5070 01bc 2E       		.uleb128 0x2e
 5071 01bd 01       		.byte	0x1
 5072 01be 3F       		.uleb128 0x3f
 5073 01bf 19       		.uleb128 0x19
 5074 01c0 03       		.uleb128 0x3
 5075 01c1 0E       		.uleb128 0xe
 5076 01c2 3A       		.uleb128 0x3a
 5077 01c3 0B       		.uleb128 0xb
 5078 01c4 3B       		.uleb128 0x3b
 5079 01c5 0B       		.uleb128 0xb
 5080 01c6 27       		.uleb128 0x27
 5081 01c7 19       		.uleb128 0x19
 5082 01c8 49       		.uleb128 0x49
 5083 01c9 13       		.uleb128 0x13
 5084 01ca 20       		.uleb128 0x20
 5085 01cb 0B       		.uleb128 0xb
 5086 01cc 01       		.uleb128 0x1
 5087 01cd 13       		.uleb128 0x13
 5088 01ce 00       		.byte	0
 5089 01cf 00       		.byte	0
 5090 01d0 25       		.uleb128 0x25
 5091 01d1 05       		.uleb128 0x5
 5092 01d2 00       		.byte	0
ARM GAS  /tmp/ccOPYu5Z.s 			page 154


 5093 01d3 03       		.uleb128 0x3
 5094 01d4 08       		.uleb128 0x8
 5095 01d5 3A       		.uleb128 0x3a
 5096 01d6 0B       		.uleb128 0xb
 5097 01d7 3B       		.uleb128 0x3b
 5098 01d8 0B       		.uleb128 0xb
 5099 01d9 49       		.uleb128 0x49
 5100 01da 13       		.uleb128 0x13
 5101 01db 00       		.byte	0
 5102 01dc 00       		.byte	0
 5103 01dd 26       		.uleb128 0x26
 5104 01de 05       		.uleb128 0x5
 5105 01df 00       		.byte	0
 5106 01e0 03       		.uleb128 0x3
 5107 01e1 0E       		.uleb128 0xe
 5108 01e2 3A       		.uleb128 0x3a
 5109 01e3 0B       		.uleb128 0xb
 5110 01e4 3B       		.uleb128 0x3b
 5111 01e5 0B       		.uleb128 0xb
 5112 01e6 49       		.uleb128 0x49
 5113 01e7 13       		.uleb128 0x13
 5114 01e8 00       		.byte	0
 5115 01e9 00       		.byte	0
 5116 01ea 27       		.uleb128 0x27
 5117 01eb 2E       		.uleb128 0x2e
 5118 01ec 01       		.byte	0x1
 5119 01ed 3F       		.uleb128 0x3f
 5120 01ee 19       		.uleb128 0x19
 5121 01ef 03       		.uleb128 0x3
 5122 01f0 0E       		.uleb128 0xe
 5123 01f1 3A       		.uleb128 0x3a
 5124 01f2 0B       		.uleb128 0xb
 5125 01f3 3B       		.uleb128 0x3b
 5126 01f4 0B       		.uleb128 0xb
 5127 01f5 27       		.uleb128 0x27
 5128 01f6 19       		.uleb128 0x19
 5129 01f7 20       		.uleb128 0x20
 5130 01f8 0B       		.uleb128 0xb
 5131 01f9 01       		.uleb128 0x1
 5132 01fa 13       		.uleb128 0x13
 5133 01fb 00       		.byte	0
 5134 01fc 00       		.byte	0
 5135 01fd 28       		.uleb128 0x28
 5136 01fe 34       		.uleb128 0x34
 5137 01ff 00       		.byte	0
 5138 0200 03       		.uleb128 0x3
 5139 0201 08       		.uleb128 0x8
 5140 0202 3A       		.uleb128 0x3a
 5141 0203 0B       		.uleb128 0xb
 5142 0204 3B       		.uleb128 0x3b
 5143 0205 0B       		.uleb128 0xb
 5144 0206 49       		.uleb128 0x49
 5145 0207 13       		.uleb128 0x13
 5146 0208 00       		.byte	0
 5147 0209 00       		.byte	0
 5148 020a 29       		.uleb128 0x29
 5149 020b 2E       		.uleb128 0x2e
ARM GAS  /tmp/ccOPYu5Z.s 			page 155


 5150 020c 01       		.byte	0x1
 5151 020d 03       		.uleb128 0x3
 5152 020e 0E       		.uleb128 0xe
 5153 020f 3A       		.uleb128 0x3a
 5154 0210 0B       		.uleb128 0xb
 5155 0211 3B       		.uleb128 0x3b
 5156 0212 0B       		.uleb128 0xb
 5157 0213 27       		.uleb128 0x27
 5158 0214 19       		.uleb128 0x19
 5159 0215 11       		.uleb128 0x11
 5160 0216 01       		.uleb128 0x1
 5161 0217 12       		.uleb128 0x12
 5162 0218 06       		.uleb128 0x6
 5163 0219 40       		.uleb128 0x40
 5164 021a 18       		.uleb128 0x18
 5165 021b 9742     		.uleb128 0x2117
 5166 021d 19       		.uleb128 0x19
 5167 021e 01       		.uleb128 0x1
 5168 021f 13       		.uleb128 0x13
 5169 0220 00       		.byte	0
 5170 0221 00       		.byte	0
 5171 0222 2A       		.uleb128 0x2a
 5172 0223 34       		.uleb128 0x34
 5173 0224 00       		.byte	0
 5174 0225 03       		.uleb128 0x3
 5175 0226 08       		.uleb128 0x8
 5176 0227 3A       		.uleb128 0x3a
 5177 0228 0B       		.uleb128 0xb
 5178 0229 3B       		.uleb128 0x3b
 5179 022a 0B       		.uleb128 0xb
 5180 022b 49       		.uleb128 0x49
 5181 022c 13       		.uleb128 0x13
 5182 022d 02       		.uleb128 0x2
 5183 022e 17       		.uleb128 0x17
 5184 022f 00       		.byte	0
 5185 0230 00       		.byte	0
 5186 0231 2B       		.uleb128 0x2b
 5187 0232 898201   		.uleb128 0x4109
 5188 0235 01       		.byte	0x1
 5189 0236 11       		.uleb128 0x11
 5190 0237 01       		.uleb128 0x1
 5191 0238 01       		.uleb128 0x1
 5192 0239 13       		.uleb128 0x13
 5193 023a 00       		.byte	0
 5194 023b 00       		.byte	0
 5195 023c 2C       		.uleb128 0x2c
 5196 023d 8A8201   		.uleb128 0x410a
 5197 0240 00       		.byte	0
 5198 0241 02       		.uleb128 0x2
 5199 0242 18       		.uleb128 0x18
 5200 0243 9142     		.uleb128 0x2111
 5201 0245 18       		.uleb128 0x18
 5202 0246 00       		.byte	0
 5203 0247 00       		.byte	0
 5204 0248 2D       		.uleb128 0x2d
 5205 0249 898201   		.uleb128 0x4109
 5206 024c 01       		.byte	0x1
ARM GAS  /tmp/ccOPYu5Z.s 			page 156


 5207 024d 11       		.uleb128 0x11
 5208 024e 01       		.uleb128 0x1
 5209 024f 00       		.byte	0
 5210 0250 00       		.byte	0
 5211 0251 2E       		.uleb128 0x2e
 5212 0252 2E       		.uleb128 0x2e
 5213 0253 01       		.byte	0x1
 5214 0254 31       		.uleb128 0x31
 5215 0255 13       		.uleb128 0x13
 5216 0256 11       		.uleb128 0x11
 5217 0257 01       		.uleb128 0x1
 5218 0258 12       		.uleb128 0x12
 5219 0259 06       		.uleb128 0x6
 5220 025a 40       		.uleb128 0x40
 5221 025b 18       		.uleb128 0x18
 5222 025c 9742     		.uleb128 0x2117
 5223 025e 19       		.uleb128 0x19
 5224 025f 01       		.uleb128 0x1
 5225 0260 13       		.uleb128 0x13
 5226 0261 00       		.byte	0
 5227 0262 00       		.byte	0
 5228 0263 2F       		.uleb128 0x2f
 5229 0264 05       		.uleb128 0x5
 5230 0265 00       		.byte	0
 5231 0266 31       		.uleb128 0x31
 5232 0267 13       		.uleb128 0x13
 5233 0268 02       		.uleb128 0x2
 5234 0269 17       		.uleb128 0x17
 5235 026a 00       		.byte	0
 5236 026b 00       		.byte	0
 5237 026c 30       		.uleb128 0x30
 5238 026d 05       		.uleb128 0x5
 5239 026e 00       		.byte	0
 5240 026f 31       		.uleb128 0x31
 5241 0270 13       		.uleb128 0x13
 5242 0271 02       		.uleb128 0x2
 5243 0272 18       		.uleb128 0x18
 5244 0273 00       		.byte	0
 5245 0274 00       		.byte	0
 5246 0275 31       		.uleb128 0x31
 5247 0276 1D       		.uleb128 0x1d
 5248 0277 01       		.byte	0x1
 5249 0278 31       		.uleb128 0x31
 5250 0279 13       		.uleb128 0x13
 5251 027a 11       		.uleb128 0x11
 5252 027b 01       		.uleb128 0x1
 5253 027c 12       		.uleb128 0x12
 5254 027d 06       		.uleb128 0x6
 5255 027e 58       		.uleb128 0x58
 5256 027f 0B       		.uleb128 0xb
 5257 0280 59       		.uleb128 0x59
 5258 0281 0B       		.uleb128 0xb
 5259 0282 00       		.byte	0
 5260 0283 00       		.byte	0
 5261 0284 32       		.uleb128 0x32
 5262 0285 2E       		.uleb128 0x2e
 5263 0286 01       		.byte	0x1
ARM GAS  /tmp/ccOPYu5Z.s 			page 157


 5264 0287 3F       		.uleb128 0x3f
 5265 0288 19       		.uleb128 0x19
 5266 0289 03       		.uleb128 0x3
 5267 028a 0E       		.uleb128 0xe
 5268 028b 3A       		.uleb128 0x3a
 5269 028c 0B       		.uleb128 0xb
 5270 028d 3B       		.uleb128 0x3b
 5271 028e 0B       		.uleb128 0xb
 5272 028f 27       		.uleb128 0x27
 5273 0290 19       		.uleb128 0x19
 5274 0291 49       		.uleb128 0x49
 5275 0292 13       		.uleb128 0x13
 5276 0293 11       		.uleb128 0x11
 5277 0294 01       		.uleb128 0x1
 5278 0295 12       		.uleb128 0x12
 5279 0296 06       		.uleb128 0x6
 5280 0297 40       		.uleb128 0x40
 5281 0298 18       		.uleb128 0x18
 5282 0299 9742     		.uleb128 0x2117
 5283 029b 19       		.uleb128 0x19
 5284 029c 01       		.uleb128 0x1
 5285 029d 13       		.uleb128 0x13
 5286 029e 00       		.byte	0
 5287 029f 00       		.byte	0
 5288 02a0 33       		.uleb128 0x33
 5289 02a1 05       		.uleb128 0x5
 5290 02a2 00       		.byte	0
 5291 02a3 03       		.uleb128 0x3
 5292 02a4 0E       		.uleb128 0xe
 5293 02a5 3A       		.uleb128 0x3a
 5294 02a6 0B       		.uleb128 0xb
 5295 02a7 3B       		.uleb128 0x3b
 5296 02a8 0B       		.uleb128 0xb
 5297 02a9 49       		.uleb128 0x49
 5298 02aa 13       		.uleb128 0x13
 5299 02ab 02       		.uleb128 0x2
 5300 02ac 17       		.uleb128 0x17
 5301 02ad 00       		.byte	0
 5302 02ae 00       		.byte	0
 5303 02af 34       		.uleb128 0x34
 5304 02b0 05       		.uleb128 0x5
 5305 02b1 00       		.byte	0
 5306 02b2 03       		.uleb128 0x3
 5307 02b3 08       		.uleb128 0x8
 5308 02b4 3A       		.uleb128 0x3a
 5309 02b5 0B       		.uleb128 0xb
 5310 02b6 3B       		.uleb128 0x3b
 5311 02b7 0B       		.uleb128 0xb
 5312 02b8 49       		.uleb128 0x49
 5313 02b9 13       		.uleb128 0x13
 5314 02ba 02       		.uleb128 0x2
 5315 02bb 18       		.uleb128 0x18
 5316 02bc 00       		.byte	0
 5317 02bd 00       		.byte	0
 5318 02be 35       		.uleb128 0x35
 5319 02bf 1D       		.uleb128 0x1d
 5320 02c0 00       		.byte	0
ARM GAS  /tmp/ccOPYu5Z.s 			page 158


 5321 02c1 31       		.uleb128 0x31
 5322 02c2 13       		.uleb128 0x13
 5323 02c3 11       		.uleb128 0x11
 5324 02c4 01       		.uleb128 0x1
 5325 02c5 12       		.uleb128 0x12
 5326 02c6 06       		.uleb128 0x6
 5327 02c7 58       		.uleb128 0x58
 5328 02c8 0B       		.uleb128 0xb
 5329 02c9 59       		.uleb128 0x59
 5330 02ca 0B       		.uleb128 0xb
 5331 02cb 00       		.byte	0
 5332 02cc 00       		.byte	0
 5333 02cd 36       		.uleb128 0x36
 5334 02ce 05       		.uleb128 0x5
 5335 02cf 00       		.byte	0
 5336 02d0 03       		.uleb128 0x3
 5337 02d1 08       		.uleb128 0x8
 5338 02d2 3A       		.uleb128 0x3a
 5339 02d3 0B       		.uleb128 0xb
 5340 02d4 3B       		.uleb128 0x3b
 5341 02d5 0B       		.uleb128 0xb
 5342 02d6 49       		.uleb128 0x49
 5343 02d7 13       		.uleb128 0x13
 5344 02d8 02       		.uleb128 0x2
 5345 02d9 17       		.uleb128 0x17
 5346 02da 00       		.byte	0
 5347 02db 00       		.byte	0
 5348 02dc 37       		.uleb128 0x37
 5349 02dd 1D       		.uleb128 0x1d
 5350 02de 01       		.byte	0x1
 5351 02df 31       		.uleb128 0x31
 5352 02e0 13       		.uleb128 0x13
 5353 02e1 11       		.uleb128 0x11
 5354 02e2 01       		.uleb128 0x1
 5355 02e3 12       		.uleb128 0x12
 5356 02e4 06       		.uleb128 0x6
 5357 02e5 58       		.uleb128 0x58
 5358 02e6 0B       		.uleb128 0xb
 5359 02e7 59       		.uleb128 0x59
 5360 02e8 0B       		.uleb128 0xb
 5361 02e9 01       		.uleb128 0x1
 5362 02ea 13       		.uleb128 0x13
 5363 02eb 00       		.byte	0
 5364 02ec 00       		.byte	0
 5365 02ed 38       		.uleb128 0x38
 5366 02ee 1D       		.uleb128 0x1d
 5367 02ef 01       		.byte	0x1
 5368 02f0 31       		.uleb128 0x31
 5369 02f1 13       		.uleb128 0x13
 5370 02f2 11       		.uleb128 0x11
 5371 02f3 01       		.uleb128 0x1
 5372 02f4 12       		.uleb128 0x12
 5373 02f5 06       		.uleb128 0x6
 5374 02f6 58       		.uleb128 0x58
 5375 02f7 0B       		.uleb128 0xb
 5376 02f8 59       		.uleb128 0x59
 5377 02f9 05       		.uleb128 0x5
ARM GAS  /tmp/ccOPYu5Z.s 			page 159


 5378 02fa 00       		.byte	0
 5379 02fb 00       		.byte	0
 5380 02fc 39       		.uleb128 0x39
 5381 02fd 1D       		.uleb128 0x1d
 5382 02fe 01       		.byte	0x1
 5383 02ff 31       		.uleb128 0x31
 5384 0300 13       		.uleb128 0x13
 5385 0301 52       		.uleb128 0x52
 5386 0302 01       		.uleb128 0x1
 5387 0303 55       		.uleb128 0x55
 5388 0304 17       		.uleb128 0x17
 5389 0305 58       		.uleb128 0x58
 5390 0306 0B       		.uleb128 0xb
 5391 0307 59       		.uleb128 0x59
 5392 0308 0B       		.uleb128 0xb
 5393 0309 00       		.byte	0
 5394 030a 00       		.byte	0
 5395 030b 3A       		.uleb128 0x3a
 5396 030c 2E       		.uleb128 0x2e
 5397 030d 01       		.byte	0x1
 5398 030e 31       		.uleb128 0x31
 5399 030f 13       		.uleb128 0x13
 5400 0310 11       		.uleb128 0x11
 5401 0311 01       		.uleb128 0x1
 5402 0312 12       		.uleb128 0x12
 5403 0313 06       		.uleb128 0x6
 5404 0314 40       		.uleb128 0x40
 5405 0315 18       		.uleb128 0x18
 5406 0316 9642     		.uleb128 0x2116
 5407 0318 19       		.uleb128 0x19
 5408 0319 01       		.uleb128 0x1
 5409 031a 13       		.uleb128 0x13
 5410 031b 00       		.byte	0
 5411 031c 00       		.byte	0
 5412 031d 3B       		.uleb128 0x3b
 5413 031e 34       		.uleb128 0x34
 5414 031f 00       		.byte	0
 5415 0320 31       		.uleb128 0x31
 5416 0321 13       		.uleb128 0x13
 5417 0322 02       		.uleb128 0x2
 5418 0323 18       		.uleb128 0x18
 5419 0324 00       		.byte	0
 5420 0325 00       		.byte	0
 5421 0326 3C       		.uleb128 0x3c
 5422 0327 34       		.uleb128 0x34
 5423 0328 00       		.byte	0
 5424 0329 31       		.uleb128 0x31
 5425 032a 13       		.uleb128 0x13
 5426 032b 02       		.uleb128 0x2
 5427 032c 17       		.uleb128 0x17
 5428 032d 00       		.byte	0
 5429 032e 00       		.byte	0
 5430 032f 3D       		.uleb128 0x3d
 5431 0330 0B       		.uleb128 0xb
 5432 0331 01       		.byte	0x1
 5433 0332 11       		.uleb128 0x11
 5434 0333 01       		.uleb128 0x1
ARM GAS  /tmp/ccOPYu5Z.s 			page 160


 5435 0334 12       		.uleb128 0x12
 5436 0335 06       		.uleb128 0x6
 5437 0336 00       		.byte	0
 5438 0337 00       		.byte	0
 5439 0338 3E       		.uleb128 0x3e
 5440 0339 05       		.uleb128 0x5
 5441 033a 00       		.byte	0
 5442 033b 31       		.uleb128 0x31
 5443 033c 13       		.uleb128 0x13
 5444 033d 1C       		.uleb128 0x1c
 5445 033e 0B       		.uleb128 0xb
 5446 033f 00       		.byte	0
 5447 0340 00       		.byte	0
 5448 0341 3F       		.uleb128 0x3f
 5449 0342 34       		.uleb128 0x34
 5450 0343 00       		.byte	0
 5451 0344 31       		.uleb128 0x31
 5452 0345 13       		.uleb128 0x13
 5453 0346 00       		.byte	0
 5454 0347 00       		.byte	0
 5455 0348 40       		.uleb128 0x40
 5456 0349 2E       		.uleb128 0x2e
 5457 034a 01       		.byte	0x1
 5458 034b 3F       		.uleb128 0x3f
 5459 034c 19       		.uleb128 0x19
 5460 034d 03       		.uleb128 0x3
 5461 034e 0E       		.uleb128 0xe
 5462 034f 3A       		.uleb128 0x3a
 5463 0350 0B       		.uleb128 0xb
 5464 0351 3B       		.uleb128 0x3b
 5465 0352 0B       		.uleb128 0xb
 5466 0353 27       		.uleb128 0x27
 5467 0354 19       		.uleb128 0x19
 5468 0355 11       		.uleb128 0x11
 5469 0356 01       		.uleb128 0x1
 5470 0357 12       		.uleb128 0x12
 5471 0358 06       		.uleb128 0x6
 5472 0359 40       		.uleb128 0x40
 5473 035a 18       		.uleb128 0x18
 5474 035b 9642     		.uleb128 0x2116
 5475 035d 19       		.uleb128 0x19
 5476 035e 01       		.uleb128 0x1
 5477 035f 13       		.uleb128 0x13
 5478 0360 00       		.byte	0
 5479 0361 00       		.byte	0
 5480 0362 41       		.uleb128 0x41
 5481 0363 2E       		.uleb128 0x2e
 5482 0364 01       		.byte	0x1
 5483 0365 3F       		.uleb128 0x3f
 5484 0366 19       		.uleb128 0x19
 5485 0367 03       		.uleb128 0x3
 5486 0368 0E       		.uleb128 0xe
 5487 0369 3A       		.uleb128 0x3a
 5488 036a 0B       		.uleb128 0xb
 5489 036b 3B       		.uleb128 0x3b
 5490 036c 0B       		.uleb128 0xb
 5491 036d 27       		.uleb128 0x27
ARM GAS  /tmp/ccOPYu5Z.s 			page 161


 5492 036e 19       		.uleb128 0x19
 5493 036f 11       		.uleb128 0x11
 5494 0370 01       		.uleb128 0x1
 5495 0371 12       		.uleb128 0x12
 5496 0372 06       		.uleb128 0x6
 5497 0373 40       		.uleb128 0x40
 5498 0374 18       		.uleb128 0x18
 5499 0375 9742     		.uleb128 0x2117
 5500 0377 19       		.uleb128 0x19
 5501 0378 01       		.uleb128 0x1
 5502 0379 13       		.uleb128 0x13
 5503 037a 00       		.byte	0
 5504 037b 00       		.byte	0
 5505 037c 42       		.uleb128 0x42
 5506 037d 05       		.uleb128 0x5
 5507 037e 00       		.byte	0
 5508 037f 03       		.uleb128 0x3
 5509 0380 0E       		.uleb128 0xe
 5510 0381 3A       		.uleb128 0x3a
 5511 0382 0B       		.uleb128 0xb
 5512 0383 3B       		.uleb128 0x3b
 5513 0384 0B       		.uleb128 0xb
 5514 0385 49       		.uleb128 0x49
 5515 0386 13       		.uleb128 0x13
 5516 0387 02       		.uleb128 0x2
 5517 0388 18       		.uleb128 0x18
 5518 0389 00       		.byte	0
 5519 038a 00       		.byte	0
 5520 038b 43       		.uleb128 0x43
 5521 038c 2E       		.uleb128 0x2e
 5522 038d 01       		.byte	0x1
 5523 038e 03       		.uleb128 0x3
 5524 038f 0E       		.uleb128 0xe
 5525 0390 3A       		.uleb128 0x3a
 5526 0391 0B       		.uleb128 0xb
 5527 0392 3B       		.uleb128 0x3b
 5528 0393 0B       		.uleb128 0xb
 5529 0394 27       		.uleb128 0x27
 5530 0395 19       		.uleb128 0x19
 5531 0396 20       		.uleb128 0x20
 5532 0397 0B       		.uleb128 0xb
 5533 0398 01       		.uleb128 0x1
 5534 0399 13       		.uleb128 0x13
 5535 039a 00       		.byte	0
 5536 039b 00       		.byte	0
 5537 039c 44       		.uleb128 0x44
 5538 039d 2E       		.uleb128 0x2e
 5539 039e 01       		.byte	0x1
 5540 039f 3F       		.uleb128 0x3f
 5541 03a0 19       		.uleb128 0x19
 5542 03a1 03       		.uleb128 0x3
 5543 03a2 0E       		.uleb128 0xe
 5544 03a3 3A       		.uleb128 0x3a
 5545 03a4 0B       		.uleb128 0xb
 5546 03a5 3B       		.uleb128 0x3b
 5547 03a6 0B       		.uleb128 0xb
 5548 03a7 27       		.uleb128 0x27
ARM GAS  /tmp/ccOPYu5Z.s 			page 162


 5549 03a8 19       		.uleb128 0x19
 5550 03a9 49       		.uleb128 0x49
 5551 03aa 13       		.uleb128 0x13
 5552 03ab 11       		.uleb128 0x11
 5553 03ac 01       		.uleb128 0x1
 5554 03ad 12       		.uleb128 0x12
 5555 03ae 06       		.uleb128 0x6
 5556 03af 40       		.uleb128 0x40
 5557 03b0 18       		.uleb128 0x18
 5558 03b1 9642     		.uleb128 0x2116
 5559 03b3 19       		.uleb128 0x19
 5560 03b4 01       		.uleb128 0x1
 5561 03b5 13       		.uleb128 0x13
 5562 03b6 00       		.byte	0
 5563 03b7 00       		.byte	0
 5564 03b8 45       		.uleb128 0x45
 5565 03b9 1D       		.uleb128 0x1d
 5566 03ba 01       		.byte	0x1
 5567 03bb 31       		.uleb128 0x31
 5568 03bc 13       		.uleb128 0x13
 5569 03bd 52       		.uleb128 0x52
 5570 03be 01       		.uleb128 0x1
 5571 03bf 55       		.uleb128 0x55
 5572 03c0 17       		.uleb128 0x17
 5573 03c1 58       		.uleb128 0x58
 5574 03c2 0B       		.uleb128 0xb
 5575 03c3 59       		.uleb128 0x59
 5576 03c4 05       		.uleb128 0x5
 5577 03c5 01       		.uleb128 0x1
 5578 03c6 13       		.uleb128 0x13
 5579 03c7 00       		.byte	0
 5580 03c8 00       		.byte	0
 5581 03c9 46       		.uleb128 0x46
 5582 03ca 1D       		.uleb128 0x1d
 5583 03cb 00       		.byte	0
 5584 03cc 31       		.uleb128 0x31
 5585 03cd 13       		.uleb128 0x13
 5586 03ce 52       		.uleb128 0x52
 5587 03cf 01       		.uleb128 0x1
 5588 03d0 55       		.uleb128 0x55
 5589 03d1 17       		.uleb128 0x17
 5590 03d2 58       		.uleb128 0x58
 5591 03d3 0B       		.uleb128 0xb
 5592 03d4 59       		.uleb128 0x59
 5593 03d5 0B       		.uleb128 0xb
 5594 03d6 00       		.byte	0
 5595 03d7 00       		.byte	0
 5596 03d8 47       		.uleb128 0x47
 5597 03d9 1D       		.uleb128 0x1d
 5598 03da 01       		.byte	0x1
 5599 03db 31       		.uleb128 0x31
 5600 03dc 13       		.uleb128 0x13
 5601 03dd 11       		.uleb128 0x11
 5602 03de 01       		.uleb128 0x1
 5603 03df 12       		.uleb128 0x12
 5604 03e0 06       		.uleb128 0x6
 5605 03e1 58       		.uleb128 0x58
ARM GAS  /tmp/ccOPYu5Z.s 			page 163


 5606 03e2 0B       		.uleb128 0xb
 5607 03e3 59       		.uleb128 0x59
 5608 03e4 05       		.uleb128 0x5
 5609 03e5 01       		.uleb128 0x1
 5610 03e6 13       		.uleb128 0x13
 5611 03e7 00       		.byte	0
 5612 03e8 00       		.byte	0
 5613 03e9 48       		.uleb128 0x48
 5614 03ea 05       		.uleb128 0x5
 5615 03eb 00       		.byte	0
 5616 03ec 31       		.uleb128 0x31
 5617 03ed 13       		.uleb128 0x13
 5618 03ee 00       		.byte	0
 5619 03ef 00       		.byte	0
 5620 03f0 49       		.uleb128 0x49
 5621 03f1 898201   		.uleb128 0x4109
 5622 03f4 01       		.byte	0x1
 5623 03f5 11       		.uleb128 0x11
 5624 03f6 01       		.uleb128 0x1
 5625 03f7 31       		.uleb128 0x31
 5626 03f8 13       		.uleb128 0x13
 5627 03f9 00       		.byte	0
 5628 03fa 00       		.byte	0
 5629 03fb 4A       		.uleb128 0x4a
 5630 03fc 898201   		.uleb128 0x4109
 5631 03ff 01       		.byte	0x1
 5632 0400 11       		.uleb128 0x11
 5633 0401 01       		.uleb128 0x1
 5634 0402 31       		.uleb128 0x31
 5635 0403 13       		.uleb128 0x13
 5636 0404 01       		.uleb128 0x1
 5637 0405 13       		.uleb128 0x13
 5638 0406 00       		.byte	0
 5639 0407 00       		.byte	0
 5640 0408 4B       		.uleb128 0x4b
 5641 0409 898201   		.uleb128 0x4109
 5642 040c 00       		.byte	0
 5643 040d 11       		.uleb128 0x11
 5644 040e 01       		.uleb128 0x1
 5645 040f 31       		.uleb128 0x31
 5646 0410 13       		.uleb128 0x13
 5647 0411 00       		.byte	0
 5648 0412 00       		.byte	0
 5649 0413 4C       		.uleb128 0x4c
 5650 0414 34       		.uleb128 0x34
 5651 0415 00       		.byte	0
 5652 0416 03       		.uleb128 0x3
 5653 0417 0E       		.uleb128 0xe
 5654 0418 3A       		.uleb128 0x3a
 5655 0419 0B       		.uleb128 0xb
 5656 041a 3B       		.uleb128 0x3b
 5657 041b 0B       		.uleb128 0xb
 5658 041c 49       		.uleb128 0x49
 5659 041d 13       		.uleb128 0x13
 5660 041e 02       		.uleb128 0x2
 5661 041f 18       		.uleb128 0x18
 5662 0420 00       		.byte	0
ARM GAS  /tmp/ccOPYu5Z.s 			page 164


 5663 0421 00       		.byte	0
 5664 0422 4D       		.uleb128 0x4d
 5665 0423 34       		.uleb128 0x34
 5666 0424 00       		.byte	0
 5667 0425 03       		.uleb128 0x3
 5668 0426 0E       		.uleb128 0xe
 5669 0427 3A       		.uleb128 0x3a
 5670 0428 0B       		.uleb128 0xb
 5671 0429 3B       		.uleb128 0x3b
 5672 042a 05       		.uleb128 0x5
 5673 042b 49       		.uleb128 0x49
 5674 042c 13       		.uleb128 0x13
 5675 042d 3F       		.uleb128 0x3f
 5676 042e 19       		.uleb128 0x19
 5677 042f 3C       		.uleb128 0x3c
 5678 0430 19       		.uleb128 0x19
 5679 0431 00       		.byte	0
 5680 0432 00       		.byte	0
 5681 0433 4E       		.uleb128 0x4e
 5682 0434 34       		.uleb128 0x34
 5683 0435 00       		.byte	0
 5684 0436 03       		.uleb128 0x3
 5685 0437 08       		.uleb128 0x8
 5686 0438 3A       		.uleb128 0x3a
 5687 0439 0B       		.uleb128 0xb
 5688 043a 3B       		.uleb128 0x3b
 5689 043b 05       		.uleb128 0x5
 5690 043c 49       		.uleb128 0x49
 5691 043d 13       		.uleb128 0x13
 5692 043e 3F       		.uleb128 0x3f
 5693 043f 19       		.uleb128 0x19
 5694 0440 3C       		.uleb128 0x3c
 5695 0441 19       		.uleb128 0x19
 5696 0442 00       		.byte	0
 5697 0443 00       		.byte	0
 5698 0444 4F       		.uleb128 0x4f
 5699 0445 34       		.uleb128 0x34
 5700 0446 00       		.byte	0
 5701 0447 03       		.uleb128 0x3
 5702 0448 0E       		.uleb128 0xe
 5703 0449 3A       		.uleb128 0x3a
 5704 044a 0B       		.uleb128 0xb
 5705 044b 3B       		.uleb128 0x3b
 5706 044c 0B       		.uleb128 0xb
 5707 044d 49       		.uleb128 0x49
 5708 044e 13       		.uleb128 0x13
 5709 044f 3F       		.uleb128 0x3f
 5710 0450 19       		.uleb128 0x19
 5711 0451 02       		.uleb128 0x2
 5712 0452 18       		.uleb128 0x18
 5713 0453 00       		.byte	0
 5714 0454 00       		.byte	0
 5715 0455 50       		.uleb128 0x50
 5716 0456 21       		.uleb128 0x21
 5717 0457 00       		.byte	0
 5718 0458 00       		.byte	0
 5719 0459 00       		.byte	0
ARM GAS  /tmp/ccOPYu5Z.s 			page 165


 5720 045a 51       		.uleb128 0x51
 5721 045b 34       		.uleb128 0x34
 5722 045c 00       		.byte	0
 5723 045d 03       		.uleb128 0x3
 5724 045e 0E       		.uleb128 0xe
 5725 045f 3A       		.uleb128 0x3a
 5726 0460 0B       		.uleb128 0xb
 5727 0461 3B       		.uleb128 0x3b
 5728 0462 0B       		.uleb128 0xb
 5729 0463 49       		.uleb128 0x49
 5730 0464 13       		.uleb128 0x13
 5731 0465 3F       		.uleb128 0x3f
 5732 0466 19       		.uleb128 0x19
 5733 0467 3C       		.uleb128 0x3c
 5734 0468 19       		.uleb128 0x19
 5735 0469 00       		.byte	0
 5736 046a 00       		.byte	0
 5737 046b 52       		.uleb128 0x52
 5738 046c 2E       		.uleb128 0x2e
 5739 046d 01       		.byte	0x1
 5740 046e 3F       		.uleb128 0x3f
 5741 046f 19       		.uleb128 0x19
 5742 0470 03       		.uleb128 0x3
 5743 0471 0E       		.uleb128 0xe
 5744 0472 3A       		.uleb128 0x3a
 5745 0473 0B       		.uleb128 0xb
 5746 0474 3B       		.uleb128 0x3b
 5747 0475 05       		.uleb128 0x5
 5748 0476 27       		.uleb128 0x27
 5749 0477 19       		.uleb128 0x19
 5750 0478 3C       		.uleb128 0x3c
 5751 0479 19       		.uleb128 0x19
 5752 047a 01       		.uleb128 0x1
 5753 047b 13       		.uleb128 0x13
 5754 047c 00       		.byte	0
 5755 047d 00       		.byte	0
 5756 047e 53       		.uleb128 0x53
 5757 047f 2E       		.uleb128 0x2e
 5758 0480 00       		.byte	0
 5759 0481 3F       		.uleb128 0x3f
 5760 0482 19       		.uleb128 0x19
 5761 0483 03       		.uleb128 0x3
 5762 0484 0E       		.uleb128 0xe
 5763 0485 3A       		.uleb128 0x3a
 5764 0486 0B       		.uleb128 0xb
 5765 0487 3B       		.uleb128 0x3b
 5766 0488 0B       		.uleb128 0xb
 5767 0489 27       		.uleb128 0x27
 5768 048a 19       		.uleb128 0x19
 5769 048b 3C       		.uleb128 0x3c
 5770 048c 19       		.uleb128 0x19
 5771 048d 00       		.byte	0
 5772 048e 00       		.byte	0
 5773 048f 00       		.byte	0
 5774              		.section	.debug_loc,"",%progbits
 5775              	.Ldebug_loc0:
 5776              	.LLST0:
ARM GAS  /tmp/ccOPYu5Z.s 			page 166


 5777 0000 00000000 		.4byte	.LVL0
 5778 0004 0C000000 		.4byte	.LVL1
 5779 0008 0200     		.2byte	0x2
 5780 000a 30       		.byte	0x30
 5781 000b 9F       		.byte	0x9f
 5782 000c 0C000000 		.4byte	.LVL1
 5783 0010 1A000000 		.4byte	.LVL2
 5784 0014 0600     		.2byte	0x6
 5785 0016 08       		.byte	0x8
 5786 0017 4C       		.byte	0x4c
 5787 0018 75       		.byte	0x75
 5788 0019 00       		.sleb128 0
 5789 001a 1C       		.byte	0x1c
 5790 001b 9F       		.byte	0x9f
 5791 001c 1A000000 		.4byte	.LVL2
 5792 0020 1C000000 		.4byte	.LVL3
 5793 0024 0600     		.2byte	0x6
 5794 0026 08       		.byte	0x8
 5795 0027 4D       		.byte	0x4d
 5796 0028 75       		.byte	0x75
 5797 0029 00       		.sleb128 0
 5798 002a 1C       		.byte	0x1c
 5799 002b 9F       		.byte	0x9f
 5800 002c 1C000000 		.4byte	.LVL3
 5801 0030 36000000 		.4byte	.LFE222
 5802 0034 0600     		.2byte	0x6
 5803 0036 08       		.byte	0x8
 5804 0037 4C       		.byte	0x4c
 5805 0038 75       		.byte	0x75
 5806 0039 00       		.sleb128 0
 5807 003a 1C       		.byte	0x1c
 5808 003b 9F       		.byte	0x9f
 5809 003c 00000000 		.4byte	0
 5810 0040 00000000 		.4byte	0
 5811              	.LLST1:
 5812 0044 00000000 		.4byte	.LVL5
 5813 0048 22000000 		.4byte	.LVL6
 5814 004c 0100     		.2byte	0x1
 5815 004e 50       		.byte	0x50
 5816 004f 22000000 		.4byte	.LVL6
 5817 0053 2A000000 		.4byte	.LFE223
 5818 0057 0500     		.2byte	0x5
 5819 0059 03       		.byte	0x3
 5820 005a 00000000 		.4byte	test_failure_message
 5821 005e 00000000 		.4byte	0
 5822 0062 00000000 		.4byte	0
 5823              	.LLST2:
 5824 0066 00000000 		.4byte	.LVL7
 5825 006a 12000000 		.4byte	.LVL9
 5826 006e 0100     		.2byte	0x1
 5827 0070 50       		.byte	0x50
 5828 0071 12000000 		.4byte	.LVL9
 5829 0075 2A000000 		.4byte	.LVL10
 5830 0079 0400     		.2byte	0x4
 5831 007b F3       		.byte	0xf3
 5832 007c 01       		.uleb128 0x1
 5833 007d 50       		.byte	0x50
ARM GAS  /tmp/ccOPYu5Z.s 			page 167


 5834 007e 9F       		.byte	0x9f
 5835 007f 2A000000 		.4byte	.LVL10
 5836 0083 2C000000 		.4byte	.LVL11
 5837 0087 0100     		.2byte	0x1
 5838 0089 50       		.byte	0x50
 5839 008a 2C000000 		.4byte	.LVL11
 5840 008e 32000000 		.4byte	.LFE224
 5841 0092 0400     		.2byte	0x4
 5842 0094 F3       		.byte	0xf3
 5843 0095 01       		.uleb128 0x1
 5844 0096 50       		.byte	0x50
 5845 0097 9F       		.byte	0x9f
 5846 0098 00000000 		.4byte	0
 5847 009c 00000000 		.4byte	0
 5848              	.LLST3:
 5849 00a0 04000000 		.4byte	.LVL8
 5850 00a4 2A000000 		.4byte	.LVL10
 5851 00a8 0100     		.2byte	0x1
 5852 00aa 51       		.byte	0x51
 5853 00ab 00000000 		.4byte	0
 5854 00af 00000000 		.4byte	0
 5855              	.LLST4:
 5856 00b3 00000000 		.4byte	.LVL12
 5857 00b7 20000000 		.4byte	.LVL15
 5858 00bb 0100     		.2byte	0x1
 5859 00bd 50       		.byte	0x50
 5860 00be 20000000 		.4byte	.LVL15
 5861 00c2 24000000 		.4byte	.LVL16
 5862 00c6 0300     		.2byte	0x3
 5863 00c8 70       		.byte	0x70
 5864 00c9 7F       		.sleb128 -1
 5865 00ca 9F       		.byte	0x9f
 5866 00cb 24000000 		.4byte	.LVL16
 5867 00cf 2A000000 		.4byte	.LVL17
 5868 00d3 0100     		.2byte	0x1
 5869 00d5 50       		.byte	0x50
 5870 00d6 00000000 		.4byte	0
 5871 00da 00000000 		.4byte	0
 5872              	.LLST5:
 5873 00de 00000000 		.4byte	.LVL12
 5874 00e2 18000000 		.4byte	.LVL13
 5875 00e6 0600     		.2byte	0x6
 5876 00e8 03       		.byte	0x3
 5877 00e9 00000000 		.4byte	test_tokens_buffer
 5878 00ed 9F       		.byte	0x9f
 5879 00ee 18000000 		.4byte	.LVL13
 5880 00f2 1C000000 		.4byte	.LVL14
 5881 00f6 0100     		.2byte	0x1
 5882 00f8 53       		.byte	0x53
 5883 00f9 1C000000 		.4byte	.LVL14
 5884 00fd 24000000 		.4byte	.LVL16
 5885 0101 0300     		.2byte	0x3
 5886 0103 73       		.byte	0x73
 5887 0104 7F       		.sleb128 -1
 5888 0105 9F       		.byte	0x9f
 5889 0106 24000000 		.4byte	.LVL16
 5890 010a 32000000 		.4byte	.LVL18
ARM GAS  /tmp/ccOPYu5Z.s 			page 168


 5891 010e 0100     		.2byte	0x1
 5892 0110 53       		.byte	0x53
 5893 0111 00000000 		.4byte	0
 5894 0115 00000000 		.4byte	0
 5895              	.LLST6:
 5896 0119 00000000 		.4byte	.LVL19
 5897 011d 16000000 		.4byte	.LVL24
 5898 0121 0100     		.2byte	0x1
 5899 0123 50       		.byte	0x50
 5900 0124 16000000 		.4byte	.LVL24
 5901 0128 3E000000 		.4byte	.LFE226
 5902 012c 0400     		.2byte	0x4
 5903 012e F3       		.byte	0xf3
 5904 012f 01       		.uleb128 0x1
 5905 0130 50       		.byte	0x50
 5906 0131 9F       		.byte	0x9f
 5907 0132 00000000 		.4byte	0
 5908 0136 00000000 		.4byte	0
 5909              	.LLST7:
 5910 013a 00000000 		.4byte	.LVL19
 5911 013e 08000000 		.4byte	.LVL21
 5912 0142 0100     		.2byte	0x1
 5913 0144 51       		.byte	0x51
 5914 0145 08000000 		.4byte	.LVL21
 5915 0149 3E000000 		.4byte	.LFE226
 5916 014d 0400     		.2byte	0x4
 5917 014f F3       		.byte	0xf3
 5918 0150 01       		.uleb128 0x1
 5919 0151 51       		.byte	0x51
 5920 0152 9F       		.byte	0x9f
 5921 0153 00000000 		.4byte	0
 5922 0157 00000000 		.4byte	0
 5923              	.LLST8:
 5924 015b 06000000 		.4byte	.LVL20
 5925 015f 08000000 		.4byte	.LVL21
 5926 0163 0100     		.2byte	0x1
 5927 0165 51       		.byte	0x51
 5928 0166 08000000 		.4byte	.LVL21
 5929 016a 3E000000 		.4byte	.LFE226
 5930 016e 0400     		.2byte	0x4
 5931 0170 F3       		.byte	0xf3
 5932 0171 01       		.uleb128 0x1
 5933 0172 51       		.byte	0x51
 5934 0173 9F       		.byte	0x9f
 5935 0174 00000000 		.4byte	0
 5936 0178 00000000 		.4byte	0
 5937              	.LLST9:
 5938 017c 06000000 		.4byte	.LVL20
 5939 0180 16000000 		.4byte	.LVL24
 5940 0184 0100     		.2byte	0x1
 5941 0186 50       		.byte	0x50
 5942 0187 00000000 		.4byte	0
 5943 018b 00000000 		.4byte	0
 5944              	.LLST10:
 5945 018f 06000000 		.4byte	.LVL20
 5946 0193 0A000000 		.4byte	.LVL22
 5947 0197 0100     		.2byte	0x1
ARM GAS  /tmp/ccOPYu5Z.s 			page 169


 5948 0199 53       		.byte	0x53
 5949 019a 00000000 		.4byte	0
 5950 019e 00000000 		.4byte	0
 5951              	.LLST14:
 5952 01a2 06000000 		.4byte	.LVL20
 5953 01a6 08000000 		.4byte	.LVL21
 5954 01aa 1400     		.2byte	0x14
 5955 01ac 73       		.byte	0x73
 5956 01ad 00       		.sleb128 0
 5957 01ae 70       		.byte	0x70
 5958 01af 00       		.sleb128 0
 5959 01b0 1C       		.byte	0x1c
 5960 01b1 0A       		.byte	0xa
 5961 01b2 FFFF     		.2byte	0xffff
 5962 01b4 1A       		.byte	0x1a
 5963 01b5 71       		.byte	0x71
 5964 01b6 00       		.sleb128 0
 5965 01b7 70       		.byte	0x70
 5966 01b8 00       		.sleb128 0
 5967 01b9 1C       		.byte	0x1c
 5968 01ba 0A       		.byte	0xa
 5969 01bb FFFF     		.2byte	0xffff
 5970 01bd 1A       		.byte	0x1a
 5971 01be 2D       		.byte	0x2d
 5972 01bf 9F       		.byte	0x9f
 5973 01c0 08000000 		.4byte	.LVL21
 5974 01c4 0A000000 		.4byte	.LVL22
 5975 01c8 1500     		.2byte	0x15
 5976 01ca 73       		.byte	0x73
 5977 01cb 00       		.sleb128 0
 5978 01cc 70       		.byte	0x70
 5979 01cd 00       		.sleb128 0
 5980 01ce 1C       		.byte	0x1c
 5981 01cf 0A       		.byte	0xa
 5982 01d0 FFFF     		.2byte	0xffff
 5983 01d2 1A       		.byte	0x1a
 5984 01d3 F3       		.byte	0xf3
 5985 01d4 01       		.uleb128 0x1
 5986 01d5 51       		.byte	0x51
 5987 01d6 70       		.byte	0x70
 5988 01d7 00       		.sleb128 0
 5989 01d8 1C       		.byte	0x1c
 5990 01d9 0A       		.byte	0xa
 5991 01da FFFF     		.2byte	0xffff
 5992 01dc 1A       		.byte	0x1a
 5993 01dd 2D       		.byte	0x2d
 5994 01de 9F       		.byte	0x9f
 5995 01df 00000000 		.4byte	0
 5996 01e3 00000000 		.4byte	0
 5997              	.LLST15:
 5998 01e7 18000000 		.4byte	.LVL25
 5999 01eb 38000000 		.4byte	.LVL26
 6000 01ef 0100     		.2byte	0x1
 6001 01f1 52       		.byte	0x52
 6002 01f2 00000000 		.4byte	0
 6003 01f6 00000000 		.4byte	0
 6004              	.LLST16:
ARM GAS  /tmp/ccOPYu5Z.s 			page 170


 6005 01fa 00000000 		.4byte	.LVL27
 6006 01fe 14000000 		.4byte	.LVL28
 6007 0202 0100     		.2byte	0x1
 6008 0204 50       		.byte	0x50
 6009 0205 14000000 		.4byte	.LVL28
 6010 0209 2C000000 		.4byte	.LVL29
 6011 020d 0100     		.2byte	0x1
 6012 020f 50       		.byte	0x50
 6013 0210 2C000000 		.4byte	.LVL29
 6014 0214 44000000 		.4byte	.LVL31
 6015 0218 0100     		.2byte	0x1
 6016 021a 52       		.byte	0x52
 6017 021b 5A000000 		.4byte	.LVL36
 6018 021f 64000000 		.4byte	.LVL37
 6019 0223 0100     		.2byte	0x1
 6020 0225 50       		.byte	0x50
 6021 0226 64000000 		.4byte	.LVL37
 6022 022a 70000000 		.4byte	.LFE227
 6023 022e 0400     		.2byte	0x4
 6024 0230 F3       		.byte	0xf3
 6025 0231 01       		.uleb128 0x1
 6026 0232 50       		.byte	0x50
 6027 0233 9F       		.byte	0x9f
 6028 0234 00000000 		.4byte	0
 6029 0238 00000000 		.4byte	0
 6030              	.LLST17:
 6031 023c 14000000 		.4byte	.LVL28
 6032 0240 2C000000 		.4byte	.LVL29
 6033 0244 0300     		.2byte	0x3
 6034 0246 73       		.byte	0x73
 6035 0247 7F       		.sleb128 -1
 6036 0248 9F       		.byte	0x9f
 6037 0249 2C000000 		.4byte	.LVL29
 6038 024d 30000000 		.4byte	.LVL30
 6039 0251 0100     		.2byte	0x1
 6040 0253 53       		.byte	0x53
 6041 0254 30000000 		.4byte	.LVL30
 6042 0258 44000000 		.4byte	.LVL31
 6043 025c 0100     		.2byte	0x1
 6044 025e 54       		.byte	0x54
 6045 025f 44000000 		.4byte	.LVL31
 6046 0263 4A000000 		.4byte	.LVL32
 6047 0267 0300     		.2byte	0x3
 6048 0269 74       		.byte	0x74
 6049 026a 7F       		.sleb128 -1
 6050 026b 9F       		.byte	0x9f
 6051 026c 4A000000 		.4byte	.LVL32
 6052 0270 4C000000 		.4byte	.LVL33
 6053 0274 0100     		.2byte	0x1
 6054 0276 54       		.byte	0x54
 6055 0277 4C000000 		.4byte	.LVL33
 6056 027b 56000000 		.4byte	.LVL35
 6057 027f 0300     		.2byte	0x3
 6058 0281 74       		.byte	0x74
 6059 0282 7F       		.sleb128 -1
 6060 0283 9F       		.byte	0x9f
 6061 0284 00000000 		.4byte	0
ARM GAS  /tmp/ccOPYu5Z.s 			page 171


 6062 0288 00000000 		.4byte	0
 6063              	.LLST18:
 6064 028c 00000000 		.4byte	.LVL39
 6065 0290 10000000 		.4byte	.LVL40
 6066 0294 0100     		.2byte	0x1
 6067 0296 50       		.byte	0x50
 6068 0297 10000000 		.4byte	.LVL40
 6069 029b 12000000 		.4byte	.LVL41
 6070 029f 0100     		.2byte	0x1
 6071 02a1 54       		.byte	0x54
 6072 02a2 12000000 		.4byte	.LVL41
 6073 02a6 1C000000 		.4byte	.LVL43
 6074 02aa 0300     		.2byte	0x3
 6075 02ac 74       		.byte	0x74
 6076 02ad 01       		.sleb128 1
 6077 02ae 9F       		.byte	0x9f
 6078 02af 1C000000 		.4byte	.LVL43
 6079 02b3 20000000 		.4byte	.LVL44
 6080 02b7 0100     		.2byte	0x1
 6081 02b9 54       		.byte	0x54
 6082 02ba 00000000 		.4byte	0
 6083 02be 00000000 		.4byte	0
 6084              	.LLST19:
 6085 02c2 00000000 		.4byte	.LVL45
 6086 02c6 10000000 		.4byte	.LVL46
 6087 02ca 0100     		.2byte	0x1
 6088 02cc 50       		.byte	0x50
 6089 02cd 10000000 		.4byte	.LVL46
 6090 02d1 34000000 		.4byte	.LVL52
 6091 02d5 0400     		.2byte	0x4
 6092 02d7 F3       		.byte	0xf3
 6093 02d8 01       		.uleb128 0x1
 6094 02d9 50       		.byte	0x50
 6095 02da 9F       		.byte	0x9f
 6096 02db 34000000 		.4byte	.LVL52
 6097 02df 3A000000 		.4byte	.LFE229
 6098 02e3 0100     		.2byte	0x1
 6099 02e5 50       		.byte	0x50
 6100 02e6 00000000 		.4byte	0
 6101 02ea 00000000 		.4byte	0
 6102              	.LLST20:
 6103 02ee 00000000 		.4byte	.LVL45
 6104 02f2 10000000 		.4byte	.LVL46
 6105 02f6 0100     		.2byte	0x1
 6106 02f8 50       		.byte	0x50
 6107 02f9 10000000 		.4byte	.LVL46
 6108 02fd 12000000 		.4byte	.LVL47
 6109 0301 0100     		.2byte	0x1
 6110 0303 54       		.byte	0x54
 6111 0304 12000000 		.4byte	.LVL47
 6112 0308 1C000000 		.4byte	.LVL49
 6113 030c 0300     		.2byte	0x3
 6114 030e 74       		.byte	0x74
 6115 030f 01       		.sleb128 1
 6116 0310 9F       		.byte	0x9f
 6117 0311 1C000000 		.4byte	.LVL49
 6118 0315 20000000 		.4byte	.LVL50
ARM GAS  /tmp/ccOPYu5Z.s 			page 172


 6119 0319 0100     		.2byte	0x1
 6120 031b 54       		.byte	0x54
 6121 031c 34000000 		.4byte	.LVL52
 6122 0320 3A000000 		.4byte	.LFE229
 6123 0324 0100     		.2byte	0x1
 6124 0326 50       		.byte	0x50
 6125 0327 00000000 		.4byte	0
 6126 032b 00000000 		.4byte	0
 6127              	.LLST21:
 6128 032f 00000000 		.4byte	.LVL56
 6129 0333 12000000 		.4byte	.LVL57
 6130 0337 0100     		.2byte	0x1
 6131 0339 50       		.byte	0x50
 6132 033a 12000000 		.4byte	.LVL57
 6133 033e 1B000000 		.4byte	.LVL58-1
 6134 0342 0500     		.2byte	0x5
 6135 0344 03       		.byte	0x3
 6136 0345 00000000 		.4byte	test_chp
 6137 0349 1B000000 		.4byte	.LVL58-1
 6138 034d FC020000 		.4byte	.LFE232
 6139 0351 0400     		.2byte	0x4
 6140 0353 F3       		.byte	0xf3
 6141 0354 01       		.uleb128 0x1
 6142 0355 50       		.byte	0x50
 6143 0356 9F       		.byte	0x9f
 6144 0357 00000000 		.4byte	0
 6145 035b 00000000 		.4byte	0
 6146              	.LLST22:
 6147 035f D0000000 		.4byte	.LVL80
 6148 0363 EA000000 		.4byte	.LVL82
 6149 0367 0200     		.2byte	0x2
 6150 0369 30       		.byte	0x30
 6151 036a 9F       		.byte	0x9f
 6152 036b EA000000 		.4byte	.LVL82
 6153 036f F6000000 		.4byte	.LVL84
 6154 0373 0200     		.2byte	0x2
 6155 0375 91       		.byte	0x91
 6156 0376 50       		.sleb128 -48
 6157 0377 F6000000 		.4byte	.LVL84
 6158 037b 00010000 		.4byte	.LVL85
 6159 037f 0300     		.2byte	0x3
 6160 0381 72       		.byte	0x72
 6161 0382 7F       		.sleb128 -1
 6162 0383 9F       		.byte	0x9f
 6163 0384 00010000 		.4byte	.LVL85
 6164 0388 82020000 		.4byte	.LVL144
 6165 038c 0600     		.2byte	0x6
 6166 038e 91       		.byte	0x91
 6167 038f 50       		.sleb128 -48
 6168 0390 06       		.byte	0x6
 6169 0391 31       		.byte	0x31
 6170 0392 1C       		.byte	0x1c
 6171 0393 9F       		.byte	0x9f
 6172 0394 82020000 		.4byte	.LVL144
 6173 0398 8C020000 		.4byte	.LVL145
 6174 039c 0200     		.2byte	0x2
 6175 039e 91       		.byte	0x91
ARM GAS  /tmp/ccOPYu5Z.s 			page 173


 6176 039f 50       		.sleb128 -48
 6177 03a0 D2020000 		.4byte	.LVL153
 6178 03a4 E0020000 		.4byte	.LVL155
 6179 03a8 0600     		.2byte	0x6
 6180 03aa 91       		.byte	0x91
 6181 03ab 50       		.sleb128 -48
 6182 03ac 06       		.byte	0x6
 6183 03ad 31       		.byte	0x31
 6184 03ae 1C       		.byte	0x1c
 6185 03af 9F       		.byte	0x9f
 6186 03b0 00000000 		.4byte	0
 6187 03b4 00000000 		.4byte	0
 6188              	.LLST23:
 6189 03b8 EE000000 		.4byte	.LVL83
 6190 03bc 36010000 		.4byte	.LVL93
 6191 03c0 0100     		.2byte	0x1
 6192 03c2 56       		.byte	0x56
 6193 03c3 36010000 		.4byte	.LVL93
 6194 03c7 74020000 		.4byte	.LVL143
 6195 03cb 0300     		.2byte	0x3
 6196 03cd 76       		.byte	0x76
 6197 03ce 7F       		.sleb128 -1
 6198 03cf 9F       		.byte	0x9f
 6199 03d0 74020000 		.4byte	.LVL143
 6200 03d4 8C020000 		.4byte	.LVL145
 6201 03d8 0100     		.2byte	0x1
 6202 03da 56       		.byte	0x56
 6203 03db D2020000 		.4byte	.LVL153
 6204 03df E0020000 		.4byte	.LVL155
 6205 03e3 0300     		.2byte	0x3
 6206 03e5 76       		.byte	0x76
 6207 03e6 7F       		.sleb128 -1
 6208 03e7 9F       		.byte	0x9f
 6209 03e8 00000000 		.4byte	0
 6210 03ec 00000000 		.4byte	0
 6211              	.LLST24:
 6212 03f0 38000000 		.4byte	.LVL60
 6213 03f4 3E000000 		.4byte	.LVL61
 6214 03f8 0600     		.2byte	0x6
 6215 03fa 03       		.byte	0x3
 6216 03fb 28000000 		.4byte	.LC4
 6217 03ff 9F       		.byte	0x9f
 6218 0400 3E000000 		.4byte	.LVL61
 6219 0404 40000000 		.4byte	.LVL62
 6220 0408 0100     		.2byte	0x1
 6221 040a 55       		.byte	0x55
 6222 040b 40000000 		.4byte	.LVL62
 6223 040f 4A000000 		.4byte	.LVL64
 6224 0413 0300     		.2byte	0x3
 6225 0415 75       		.byte	0x75
 6226 0416 01       		.sleb128 1
 6227 0417 9F       		.byte	0x9f
 6228 0418 4A000000 		.4byte	.LVL64
 6229 041c 5A000000 		.4byte	.LVL65
 6230 0420 0100     		.2byte	0x1
 6231 0422 55       		.byte	0x55
 6232 0423 00000000 		.4byte	0
ARM GAS  /tmp/ccOPYu5Z.s 			page 174


 6233 0427 00000000 		.4byte	0
 6234              	.LLST25:
 6235 042b 5E000000 		.4byte	.LVL66
 6236 042f 64000000 		.4byte	.LVL67
 6237 0433 0600     		.2byte	0x6
 6238 0435 03       		.byte	0x3
 6239 0436 C4000000 		.4byte	.LC15
 6240 043a 9F       		.byte	0x9f
 6241 043b 64000000 		.4byte	.LVL67
 6242 043f 66000000 		.4byte	.LVL68
 6243 0443 0100     		.2byte	0x1
 6244 0445 55       		.byte	0x55
 6245 0446 66000000 		.4byte	.LVL68
 6246 044a 70000000 		.4byte	.LVL70
 6247 044e 0300     		.2byte	0x3
 6248 0450 75       		.byte	0x75
 6249 0451 01       		.sleb128 1
 6250 0452 9F       		.byte	0x9f
 6251 0453 70000000 		.4byte	.LVL70
 6252 0457 80000000 		.4byte	.LVL71
 6253 045b 0100     		.2byte	0x1
 6254 045d 55       		.byte	0x55
 6255 045e 00000000 		.4byte	0
 6256 0462 00000000 		.4byte	0
 6257              	.LLST26:
 6258 0466 84000000 		.4byte	.LVL72
 6259 046a 8A000000 		.4byte	.LVL73
 6260 046e 0600     		.2byte	0x6
 6261 0470 03       		.byte	0x3
 6262 0471 FC000000 		.4byte	.LC17
 6263 0475 9F       		.byte	0x9f
 6264 0476 8A000000 		.4byte	.LVL73
 6265 047a 8C000000 		.4byte	.LVL74
 6266 047e 0100     		.2byte	0x1
 6267 0480 55       		.byte	0x55
 6268 0481 8C000000 		.4byte	.LVL74
 6269 0485 96000000 		.4byte	.LVL76
 6270 0489 0300     		.2byte	0x3
 6271 048b 75       		.byte	0x75
 6272 048c 01       		.sleb128 1
 6273 048d 9F       		.byte	0x9f
 6274 048e 96000000 		.4byte	.LVL76
 6275 0492 DA000000 		.4byte	.LVL81
 6276 0496 0100     		.2byte	0x1
 6277 0498 55       		.byte	0x55
 6278 0499 00000000 		.4byte	0
 6279 049d 00000000 		.4byte	0
 6280              	.LLST27:
 6281 04a1 98010000 		.4byte	.LVL109
 6282 04a5 CA010000 		.4byte	.LVL113
 6283 04a9 0100     		.2byte	0x1
 6284 04ab 58       		.byte	0x58
 6285 04ac D2020000 		.4byte	.LVL153
 6286 04b0 E0020000 		.4byte	.LVL155
 6287 04b4 0100     		.2byte	0x1
 6288 04b6 58       		.byte	0x58
 6289 04b7 00000000 		.4byte	0
ARM GAS  /tmp/ccOPYu5Z.s 			page 175


 6290 04bb 00000000 		.4byte	0
 6291              	.LLST28:
 6292 04bf F2010000 		.4byte	.LVL119
 6293 04c3 F8010000 		.4byte	.LVL120
 6294 04c7 0600     		.2byte	0x6
 6295 04c9 03       		.byte	0x3
 6296 04ca 14010000 		.4byte	.LC19
 6297 04ce 9F       		.byte	0x9f
 6298 04cf F8010000 		.4byte	.LVL120
 6299 04d3 FA010000 		.4byte	.LVL121
 6300 04d7 0100     		.2byte	0x1
 6301 04d9 58       		.byte	0x58
 6302 04da FA010000 		.4byte	.LVL121
 6303 04de 04020000 		.4byte	.LVL123
 6304 04e2 0300     		.2byte	0x3
 6305 04e4 78       		.byte	0x78
 6306 04e5 01       		.sleb128 1
 6307 04e6 9F       		.byte	0x9f
 6308 04e7 04020000 		.4byte	.LVL123
 6309 04eb 12020000 		.4byte	.LVL125
 6310 04ef 0100     		.2byte	0x1
 6311 04f1 58       		.byte	0x58
 6312 04f2 00000000 		.4byte	0
 6313 04f6 00000000 		.4byte	0
 6314              	.LLST29:
 6315 04fa 08010000 		.4byte	.LVL86
 6316 04fe 0E010000 		.4byte	.LVL87
 6317 0502 0600     		.2byte	0x6
 6318 0504 03       		.byte	0x3
 6319 0505 54000000 		.4byte	.LC6
 6320 0509 9F       		.byte	0x9f
 6321 050a 0E010000 		.4byte	.LVL87
 6322 050e 10010000 		.4byte	.LVL88
 6323 0512 0100     		.2byte	0x1
 6324 0514 5A       		.byte	0x5a
 6325 0515 10010000 		.4byte	.LVL88
 6326 0519 22010000 		.4byte	.LVL90
 6327 051d 0300     		.2byte	0x3
 6328 051f 7A       		.byte	0x7a
 6329 0520 01       		.sleb128 1
 6330 0521 9F       		.byte	0x9f
 6331 0522 22010000 		.4byte	.LVL90
 6332 0526 82020000 		.4byte	.LVL144
 6333 052a 0100     		.2byte	0x1
 6334 052c 5A       		.byte	0x5a
 6335 052d D2020000 		.4byte	.LVL153
 6336 0531 E0020000 		.4byte	.LVL155
 6337 0535 0100     		.2byte	0x1
 6338 0537 5A       		.byte	0x5a
 6339 0538 00000000 		.4byte	0
 6340 053c 00000000 		.4byte	0
 6341              	.LLST31:
 6342 0540 44010000 		.4byte	.LVL95
 6343 0544 4A010000 		.4byte	.LVL96
 6344 0548 0600     		.2byte	0x6
 6345 054a 03       		.byte	0x3
 6346 054b 10010000 		.4byte	.LC18
ARM GAS  /tmp/ccOPYu5Z.s 			page 176


 6347 054f 9F       		.byte	0x9f
 6348 0550 4A010000 		.4byte	.LVL96
 6349 0554 4C010000 		.4byte	.LVL97
 6350 0558 0100     		.2byte	0x1
 6351 055a 5B       		.byte	0x5b
 6352 055b 4C010000 		.4byte	.LVL97
 6353 055f 56010000 		.4byte	.LVL99
 6354 0563 0300     		.2byte	0x3
 6355 0565 7B       		.byte	0x7b
 6356 0566 01       		.sleb128 1
 6357 0567 9F       		.byte	0x9f
 6358 0568 56010000 		.4byte	.LVL99
 6359 056c 68010000 		.4byte	.LVL101
 6360 0570 0100     		.2byte	0x1
 6361 0572 5B       		.byte	0x5b
 6362 0573 00000000 		.4byte	0
 6363 0577 00000000 		.4byte	0
 6364              	.LLST32:
 6365 057b 64010000 		.4byte	.LVL100
 6366 057f 6A010000 		.4byte	.LVL102
 6367 0583 0100     		.2byte	0x1
 6368 0585 53       		.byte	0x53
 6369 0586 6A010000 		.4byte	.LVL102
 6370 058a 6C010000 		.4byte	.LVL103
 6371 058e 0100     		.2byte	0x1
 6372 0590 5B       		.byte	0x5b
 6373 0591 6C010000 		.4byte	.LVL103
 6374 0595 76010000 		.4byte	.LVL105
 6375 0599 0300     		.2byte	0x3
 6376 059b 7B       		.byte	0x7b
 6377 059c 01       		.sleb128 1
 6378 059d 9F       		.byte	0x9f
 6379 059e 76010000 		.4byte	.LVL105
 6380 05a2 7A010000 		.4byte	.LVL106
 6381 05a6 0100     		.2byte	0x1
 6382 05a8 5B       		.byte	0x5b
 6383 05a9 00000000 		.4byte	0
 6384 05ad 00000000 		.4byte	0
 6385              	.LLST33:
 6386 05b1 86010000 		.4byte	.LVL107
 6387 05b5 82020000 		.4byte	.LVL144
 6388 05b9 0300     		.2byte	0x3
 6389 05bb 08       		.byte	0x8
 6390 05bc C8       		.byte	0xc8
 6391 05bd 9F       		.byte	0x9f
 6392 05be D2020000 		.4byte	.LVL153
 6393 05c2 E0020000 		.4byte	.LVL155
 6394 05c6 0300     		.2byte	0x3
 6395 05c8 08       		.byte	0x8
 6396 05c9 C8       		.byte	0xc8
 6397 05ca 9F       		.byte	0x9f
 6398 05cb 00000000 		.4byte	0
 6399 05cf 00000000 		.4byte	0
 6400              	.LLST34:
 6401 05d3 D0010000 		.4byte	.LVL114
 6402 05d7 D2010000 		.4byte	.LVL115
 6403 05db 0100     		.2byte	0x1
ARM GAS  /tmp/ccOPYu5Z.s 			page 177


 6404 05dd 58       		.byte	0x58
 6405 05de D2010000 		.4byte	.LVL115
 6406 05e2 DC010000 		.4byte	.LVL117
 6407 05e6 0300     		.2byte	0x3
 6408 05e8 78       		.byte	0x78
 6409 05e9 01       		.sleb128 1
 6410 05ea 9F       		.byte	0x9f
 6411 05eb DC010000 		.4byte	.LVL117
 6412 05ef EE010000 		.4byte	.LVL118
 6413 05f3 0100     		.2byte	0x1
 6414 05f5 58       		.byte	0x58
 6415 05f6 00000000 		.4byte	0
 6416 05fa 00000000 		.4byte	0
 6417              	.LLST35:
 6418 05fe 08020000 		.4byte	.LVL124
 6419 0602 14020000 		.4byte	.LVL126
 6420 0606 0600     		.2byte	0x6
 6421 0608 03       		.byte	0x3
 6422 0609 00000000 		.4byte	test_tokens_buffer
 6423 060d 9F       		.byte	0x9f
 6424 060e 14020000 		.4byte	.LVL126
 6425 0612 22020000 		.4byte	.LVL128
 6426 0616 0300     		.2byte	0x3
 6427 0618 78       		.byte	0x78
 6428 0619 7F       		.sleb128 -1
 6429 061a 9F       		.byte	0x9f
 6430 061b 22020000 		.4byte	.LVL128
 6431 061f 28020000 		.4byte	.LVL129
 6432 0623 0100     		.2byte	0x1
 6433 0625 58       		.byte	0x58
 6434 0626 28020000 		.4byte	.LVL129
 6435 062a 2A020000 		.4byte	.LVL130
 6436 062e 0300     		.2byte	0x3
 6437 0630 78       		.byte	0x78
 6438 0631 7F       		.sleb128 -1
 6439 0632 9F       		.byte	0x9f
 6440 0633 00000000 		.4byte	0
 6441 0637 00000000 		.4byte	0
 6442              	.LLST36:
 6443 063b 34020000 		.4byte	.LVL131
 6444 063f 36020000 		.4byte	.LVL132
 6445 0643 0100     		.2byte	0x1
 6446 0645 58       		.byte	0x58
 6447 0646 36020000 		.4byte	.LVL132
 6448 064a 40020000 		.4byte	.LVL134
 6449 064e 0300     		.2byte	0x3
 6450 0650 78       		.byte	0x78
 6451 0651 01       		.sleb128 1
 6452 0652 9F       		.byte	0x9f
 6453 0653 40020000 		.4byte	.LVL134
 6454 0657 52020000 		.4byte	.LVL136
 6455 065b 0100     		.2byte	0x1
 6456 065d 58       		.byte	0x58
 6457 065e 00000000 		.4byte	0
 6458 0662 00000000 		.4byte	0
 6459              	.LLST37:
 6460 0666 4E020000 		.4byte	.LVL135
ARM GAS  /tmp/ccOPYu5Z.s 			page 178


 6461 066a 54020000 		.4byte	.LVL137
 6462 066e 0100     		.2byte	0x1
 6463 0670 53       		.byte	0x53
 6464 0671 54020000 		.4byte	.LVL137
 6465 0675 56020000 		.4byte	.LVL138
 6466 0679 0100     		.2byte	0x1
 6467 067b 58       		.byte	0x58
 6468 067c 56020000 		.4byte	.LVL138
 6469 0680 60020000 		.4byte	.LVL140
 6470 0684 0300     		.2byte	0x3
 6471 0686 78       		.byte	0x78
 6472 0687 01       		.sleb128 1
 6473 0688 9F       		.byte	0x9f
 6474 0689 60020000 		.4byte	.LVL140
 6475 068d 64020000 		.4byte	.LVL141
 6476 0691 0100     		.2byte	0x1
 6477 0693 58       		.byte	0x58
 6478 0694 00000000 		.4byte	0
 6479 0698 00000000 		.4byte	0
 6480              	.LLST38:
 6481 069c A0020000 		.4byte	.LVL147
 6482 06a0 A6020000 		.4byte	.LVL148
 6483 06a4 0600     		.2byte	0x6
 6484 06a6 03       		.byte	0x3
 6485 06a7 18010000 		.4byte	.LC20
 6486 06ab 9F       		.byte	0x9f
 6487 06ac A6020000 		.4byte	.LVL148
 6488 06b0 A8020000 		.4byte	.LVL149
 6489 06b4 0100     		.2byte	0x1
 6490 06b6 55       		.byte	0x55
 6491 06b7 A8020000 		.4byte	.LVL149
 6492 06bb B2020000 		.4byte	.LVL151
 6493 06bf 0300     		.2byte	0x3
 6494 06c1 75       		.byte	0x75
 6495 06c2 01       		.sleb128 1
 6496 06c3 9F       		.byte	0x9f
 6497 06c4 B2020000 		.4byte	.LVL151
 6498 06c8 D2020000 		.4byte	.LVL153
 6499 06cc 0100     		.2byte	0x1
 6500 06ce 55       		.byte	0x55
 6501 06cf E0020000 		.4byte	.LVL155
 6502 06d3 F6020000 		.4byte	.LVL157
 6503 06d7 0100     		.2byte	0x1
 6504 06d9 55       		.byte	0x55
 6505 06da 00000000 		.4byte	0
 6506 06de 00000000 		.4byte	0
 6507              		.section	.debug_aranges,"",%progbits
 6508 0000 6C000000 		.4byte	0x6c
 6509 0004 0200     		.2byte	0x2
 6510 0006 00000000 		.4byte	.Ldebug_info0
 6511 000a 04       		.byte	0x4
 6512 000b 00       		.byte	0
 6513 000c 0000     		.2byte	0
 6514 000e 0000     		.2byte	0
 6515 0010 00000000 		.4byte	.LFB222
 6516 0014 36000000 		.4byte	.LFE222-.LFB222
 6517 0018 00000000 		.4byte	.LFB223
ARM GAS  /tmp/ccOPYu5Z.s 			page 179


 6518 001c 2A000000 		.4byte	.LFE223-.LFB223
 6519 0020 00000000 		.4byte	.LFB224
 6520 0024 32000000 		.4byte	.LFE224-.LFB224
 6521 0028 00000000 		.4byte	.LFB225
 6522 002c 56000000 		.4byte	.LFE225-.LFB225
 6523 0030 00000000 		.4byte	.LFB226
 6524 0034 3E000000 		.4byte	.LFE226-.LFB226
 6525 0038 00000000 		.4byte	.LFB227
 6526 003c 70000000 		.4byte	.LFE227-.LFB227
 6527 0040 00000000 		.4byte	.LFB228
 6528 0044 22000000 		.4byte	.LFE228-.LFB228
 6529 0048 00000000 		.4byte	.LFB229
 6530 004c 3A000000 		.4byte	.LFE229-.LFB229
 6531 0050 00000000 		.4byte	.LFB230
 6532 0054 28000000 		.4byte	.LFE230-.LFB230
 6533 0058 00000000 		.4byte	.LFB231
 6534 005c 1C000000 		.4byte	.LFE231-.LFB231
 6535 0060 00000000 		.4byte	.LFB232
 6536 0064 FC020000 		.4byte	.LFE232-.LFB232
 6537 0068 00000000 		.4byte	0
 6538 006c 00000000 		.4byte	0
 6539              		.section	.debug_ranges,"",%progbits
 6540              	.Ldebug_ranges0:
 6541 0000 0A000000 		.4byte	.LBB116
 6542 0004 10000000 		.4byte	.LBE116
 6543 0008 12000000 		.4byte	.LBB121
 6544 000c 38000000 		.4byte	.LBE121
 6545 0010 00000000 		.4byte	0
 6546 0014 00000000 		.4byte	0
 6547 0018 D6000000 		.4byte	.LBB177
 6548 001c E0000000 		.4byte	.LBE177
 6549 0020 E2000000 		.4byte	.LBB188
 6550 0024 EC000000 		.4byte	.LBE188
 6551 0028 90010000 		.4byte	.LBB205
 6552 002c 94010000 		.4byte	.LBE205
 6553 0030 98010000 		.4byte	.LBB206
 6554 0034 BC010000 		.4byte	.LBE206
 6555 0038 00000000 		.4byte	0
 6556 003c 00000000 		.4byte	0
 6557 0040 D6000000 		.4byte	.LBB179
 6558 0044 E0000000 		.4byte	.LBE179
 6559 0048 E2000000 		.4byte	.LBB183
 6560 004c EC000000 		.4byte	.LBE183
 6561 0050 A2010000 		.4byte	.LBB184
 6562 0054 A6010000 		.4byte	.LBE184
 6563 0058 00000000 		.4byte	0
 6564 005c 00000000 		.4byte	0
 6565 0060 EC000000 		.4byte	.LBB189
 6566 0064 EE000000 		.4byte	.LBE189
 6567 0068 F6010000 		.4byte	.LBB209
 6568 006c 08020000 		.4byte	.LBE209
 6569 0070 32020000 		.4byte	.LBB212
 6570 0074 34020000 		.4byte	.LBE212
 6571 0078 00000000 		.4byte	0
 6572 007c 00000000 		.4byte	0
 6573 0080 2C010000 		.4byte	.LBB195
 6574 0084 34010000 		.4byte	.LBE195
ARM GAS  /tmp/ccOPYu5Z.s 			page 180


 6575 0088 36010000 		.4byte	.LBB198
 6576 008c 3E010000 		.4byte	.LBE198
 6577 0090 00000000 		.4byte	0
 6578 0094 00000000 		.4byte	0
 6579 0098 00000000 		.4byte	.LFB222
 6580 009c 36000000 		.4byte	.LFE222
 6581 00a0 00000000 		.4byte	.LFB223
 6582 00a4 2A000000 		.4byte	.LFE223
 6583 00a8 00000000 		.4byte	.LFB224
 6584 00ac 32000000 		.4byte	.LFE224
 6585 00b0 00000000 		.4byte	.LFB225
 6586 00b4 56000000 		.4byte	.LFE225
 6587 00b8 00000000 		.4byte	.LFB226
 6588 00bc 3E000000 		.4byte	.LFE226
 6589 00c0 00000000 		.4byte	.LFB227
 6590 00c4 70000000 		.4byte	.LFE227
 6591 00c8 00000000 		.4byte	.LFB228
 6592 00cc 22000000 		.4byte	.LFE228
 6593 00d0 00000000 		.4byte	.LFB229
 6594 00d4 3A000000 		.4byte	.LFE229
 6595 00d8 00000000 		.4byte	.LFB230
 6596 00dc 28000000 		.4byte	.LFE230
 6597 00e0 00000000 		.4byte	.LFB231
 6598 00e4 1C000000 		.4byte	.LFE231
 6599 00e8 00000000 		.4byte	.LFB232
 6600 00ec FC020000 		.4byte	.LFE232
 6601 00f0 00000000 		.4byte	0
 6602 00f4 00000000 		.4byte	0
 6603              		.section	.debug_line,"",%progbits
 6604              	.Ldebug_line0:
 6605 0000 CD040000 		.section	.debug_str,"MS",%progbits,1
 6605      02008202 
 6605      00000201 
 6605      FB0E0D00 
 6605      01010101 
 6606              	.LASF52:
 6607 0000 72656164 		.ascii	"ready_list_t\000"
 6607      795F6C69 
 6607      73745F74 
 6607      00
 6608              	.LASF77:
 6609 000d 44494552 		.ascii	"DIER\000"
 6609      00
 6610              	.LASF2:
 6611 0012 73697A65 		.ascii	"size_t\000"
 6611      5F7400
 6612              	.LASF48:
 6613 0019 6E657874 		.ascii	"next\000"
 6613      00
 6614              	.LASF58:
 6615 001e 64656C74 		.ascii	"delta\000"
 6615      6100
 6616              	.LASF86:
 6617 0024 7264796D 		.ascii	"rdymsg\000"
 6617      736700
 6618              	.LASF19:
 6619 002b 75696E74 		.ascii	"uint64_t\000"
ARM GAS  /tmp/ccOPYu5Z.s 			page 181


 6619      36345F74 
 6619      00
 6620              	.LASF3:
 6621 0034 5F5F7569 		.ascii	"__uint8_t\000"
 6621      6E74385F 
 6621      7400
 6622              	.LASF51:
 6623 003e 70726576 		.ascii	"prev\000"
 6623      00
 6624              	.LASF75:
 6625 0043 706F7274 		.ascii	"port_intctx\000"
 6625      5F696E74 
 6625      63747800 
 6626              	.LASF63:
 6627 004f 73797374 		.ascii	"system_debug_t\000"
 6627      656D5F64 
 6627      65627567 
 6627      5F7400
 6628              	.LASF143:
 6629 005e 73747265 		.ascii	"stream\000"
 6629      616D00
 6630              	.LASF108:
 6631 0065 706F7274 		.ascii	"port_lock\000"
 6631      5F6C6F63 
 6631      6B00
 6632              	.LASF14:
 6633 006f 6C6F6E67 		.ascii	"long long unsigned int\000"
 6633      206C6F6E 
 6633      6720756E 
 6633      7369676E 
 6633      65642069 
 6634              	.LASF147:
 6635 0086 74657374 		.ascii	"test_tokp\000"
 6635      5F746F6B 
 6635      7000
 6636              	.LASF125:
 6637 0090 636F6E64 		.ascii	"condition\000"
 6637      6974696F 
 6637      6E00
 6638              	.LASF87:
 6639 009a 65786974 		.ascii	"exitcode\000"
 6639      636F6465 
 6639      00
 6640              	.LASF146:
 6641 00a3 74657374 		.ascii	"test_tokens_buffer\000"
 6641      5F746F6B 
 6641      656E735F 
 6641      62756666 
 6641      657200
 6642              	.LASF90:
 6643 00b6 73656E74 		.ascii	"sentmsg\000"
 6643      6D736700 
 6644              	.LASF60:
 6645 00be 76697274 		.ascii	"virtual_timers_list_t\000"
 6645      75616C5F 
 6645      74696D65 
 6645      72735F6C 
ARM GAS  /tmp/ccOPYu5Z.s 			page 182


 6645      6973745F 
 6646              	.LASF149:
 6647 00d4 49544D5F 		.ascii	"ITM_RxBuffer\000"
 6647      52784275 
 6647      66666572 
 6647      00
 6648              	.LASF81:
 6649 00e1 42445452 		.ascii	"BDTR\000"
 6649      00
 6650              	.LASF50:
 6651 00e6 63685F74 		.ascii	"ch_threads_queue\000"
 6651      68726561 
 6651      64735F71 
 6651      75657565 
 6651      00
 6652              	.LASF142:
 6653 00f7 74657374 		.ascii	"test_execute\000"
 6653      5F657865 
 6653      63757465 
 6653      00
 6654              	.LASF105:
 6655 0104 74656172 		.ascii	"teardown\000"
 6655      646F776E 
 6655      00
 6656              	.LASF78:
 6657 010d 43434D52 		.ascii	"CCMR1\000"
 6657      3100
 6658              	.LASF79:
 6659 0113 43434D52 		.ascii	"CCMR2\000"
 6659      3200
 6660              	.LASF83:
 6661 0119 43434D52 		.ascii	"CCMR3\000"
 6661      3300
 6662              	.LASF1:
 6663 011f 7369676E 		.ascii	"signed char\000"
 6663      65642063 
 6663      68617200 
 6664              	.LASF137:
 6665 012b 74657374 		.ascii	"test_emit_token\000"
 6665      5F656D69 
 6665      745F746F 
 6665      6B656E00 
 6666              	.LASF136:
 6667 013b 74657374 		.ascii	"test_println\000"
 6667      5F707269 
 6667      6E746C6E 
 6667      00
 6668              	.LASF69:
 6669 0148 76746C69 		.ascii	"vtlist\000"
 6669      737400
 6670              	.LASF109:
 6671 014f 706F7274 		.ascii	"port_unlock\000"
 6671      5F756E6C 
 6671      6F636B00 
 6672              	.LASF39:
 6673 015b 6D736771 		.ascii	"msgqueue\000"
 6673      75657565 
ARM GAS  /tmp/ccOPYu5Z.s 			page 183


 6673      00
 6674              	.LASF35:
 6675 0164 73746174 		.ascii	"state\000"
 6675      6500
 6676              	.LASF9:
 6677 016a 6C6F6E67 		.ascii	"long int\000"
 6677      20696E74 
 6677      00
 6678              	.LASF21:
 6679 0173 74737461 		.ascii	"tstate_t\000"
 6679      74655F74 
 6679      00
 6680              	.LASF135:
 6681 017c 5F746573 		.ascii	"_test_assert_time_window\000"
 6681      745F6173 
 6681      73657274 
 6681      5F74696D 
 6681      655F7769 
 6682              	.LASF59:
 6683 0195 66756E63 		.ascii	"func\000"
 6683      00
 6684              	.LASF80:
 6685 019a 43434552 		.ascii	"CCER\000"
 6685      00
 6686              	.LASF12:
 6687 019f 6C6F6E67 		.ascii	"long long int\000"
 6687      206C6F6E 
 6687      6720696E 
 6687      7400
 6688              	.LASF16:
 6689 01ad 75696E74 		.ascii	"uint16_t\000"
 6689      31365F74 
 6689      00
 6690              	.LASF32:
 6691 01b6 6F6C6465 		.ascii	"older\000"
 6691      7200
 6692              	.LASF141:
 6693 01bc 7072696E 		.ascii	"print_tokens\000"
 6693      745F746F 
 6693      6B656E73 
 6693      00
 6694              	.LASF72:
 6695 01c9 72656761 		.ascii	"regarm_t\000"
 6695      726D5F74 
 6695      00
 6696              	.LASF120:
 6697 01d2 6F73616C 		.ascii	"osalOsGetSystemTimeX\000"
 6697      4F734765 
 6697      74537973 
 6697      74656D54 
 6697      696D6558 
 6698              	.LASF64:
 6699 01e7 63685F73 		.ascii	"ch_system_debug\000"
 6699      79737465 
 6699      6D5F6465 
 6699      62756700 
 6700              	.LASF38:
ARM GAS  /tmp/ccOPYu5Z.s 			page 184


 6701 01f7 77616974 		.ascii	"waiting\000"
 6701      696E6700 
 6702              	.LASF130:
 6703 01ff 6F73616C 		.ascii	"osalSysLock\000"
 6703      5379734C 
 6703      6F636B00 
 6704              	.LASF98:
 6705 020b 6D757465 		.ascii	"mutex_t\000"
 6705      785F7400 
 6706              	.LASF116:
 6707 0213 76616C75 		.ascii	"value\000"
 6707      6500
 6708              	.LASF103:
 6709 0219 42617365 		.ascii	"BaseSequentialStream\000"
 6709      53657175 
 6709      656E7469 
 6709      616C5374 
 6709      7265616D 
 6710              	.LASF26:
 6711 022e 636E745F 		.ascii	"cnt_t\000"
 6711      7400
 6712              	.LASF115:
 6713 0234 63685654 		.ascii	"chVTGetSystemTimeX\000"
 6713      47657453 
 6713      79737465 
 6713      6D54696D 
 6713      655800
 6714              	.LASF156:
 6715 0247 2F686F6D 		.ascii	"/home/jerson/ChibiOS/rt_stm32f100rb_onion\000"
 6715      652F6A65 
 6715      72736F6E 
 6715      2F436869 
 6715      62694F53 
 6716              	.LASF91:
 6717 0271 77747365 		.ascii	"wtsemp\000"
 6717      6D7000
 6718              	.LASF157:
 6719 0278 7072696E 		.ascii	"print_line\000"
 6719      745F6C69 
 6719      6E6500
 6720              	.LASF89:
 6721 0283 77747472 		.ascii	"wttrp\000"
 6721      7000
 6722              	.LASF133:
 6723 0289 65787065 		.ascii	"expected\000"
 6723      63746564 
 6723      00
 6724              	.LASF33:
 6725 0292 6E616D65 		.ascii	"name\000"
 6725      00
 6726              	.LASF29:
 6727 0297 71756575 		.ascii	"queue\000"
 6727      6500
 6728              	.LASF43:
 6729 029d 6D706F6F 		.ascii	"mpool\000"
 6729      6C00
 6730              	.LASF76:
ARM GAS  /tmp/ccOPYu5Z.s 			page 185


 6731 02a3 534D4352 		.ascii	"SMCR\000"
 6731      00
 6732              	.LASF46:
 6733 02a8 63685F74 		.ascii	"ch_thread\000"
 6733      68726561 
 6733      6400
 6734              	.LASF70:
 6735 02b2 6D61696E 		.ascii	"mainthread\000"
 6735      74687265 
 6735      616400
 6736              	.LASF24:
 6737 02bd 6D73675F 		.ascii	"msg_t\000"
 6737      7400
 6738              	.LASF40:
 6739 02c3 6570656E 		.ascii	"epending\000"
 6739      64696E67 
 6739      00
 6740              	.LASF66:
 6741 02cc 63685F73 		.ascii	"ch_system_t\000"
 6741      79737465 
 6741      6D5F7400 
 6742              	.LASF123:
 6743 02d8 5F746573 		.ascii	"_test_fail\000"
 6743      745F6661 
 6743      696C00
 6744              	.LASF85:
 6745 02e3 73746D33 		.ascii	"stm32_tim_t\000"
 6745      325F7469 
 6745      6D5F7400 
 6746              	.LASF53:
 6747 02ef 63685F72 		.ascii	"ch_ready_list\000"
 6747      65616479 
 6747      5F6C6973 
 6747      7400
 6748              	.LASF25:
 6749 02fd 6576656E 		.ascii	"eventmask_t\000"
 6749      746D6173 
 6749      6B5F7400 
 6750              	.LASF8:
 6751 0309 5F5F696E 		.ascii	"__int32_t\000"
 6751      7433325F 
 6751      7400
 6752              	.LASF129:
 6753 0313 6D736770 		.ascii	"msgp\000"
 6753      00
 6754              	.LASF73:
 6755 0318 73746B61 		.ascii	"stkalign_t\000"
 6755      6C69676E 
 6755      5F7400
 6756              	.LASF107:
 6757 0323 74657374 		.ascii	"testcase_t\000"
 6757      63617365 
 6757      5F7400
 6758              	.LASF128:
 6759 032e 74657374 		.ascii	"test_print\000"
 6759      5F707269 
 6759      6E7400
ARM GAS  /tmp/ccOPYu5Z.s 			page 186


 6760              	.LASF13:
 6761 0339 5F5F7569 		.ascii	"__uint64_t\000"
 6761      6E743634 
 6761      5F7400
 6762              	.LASF101:
 6763 0344 77726974 		.ascii	"write\000"
 6763      6500
 6764              	.LASF42:
 6765 034a 7265616C 		.ascii	"realprio\000"
 6765      7072696F 
 6765      00
 6766              	.LASF155:
 6767 0353 2E2E2F74 		.ascii	"../test/lib/ch_test.c\000"
 6767      6573742F 
 6767      6C69622F 
 6767      63685F74 
 6767      6573742E 
 6768              	.LASF71:
 6769 0369 73697A65 		.ascii	"sizetype\000"
 6769      74797065 
 6769      00
 6770              	.LASF44:
 6771 0372 74687265 		.ascii	"thread_reference_t\000"
 6771      61645F72 
 6771      65666572 
 6771      656E6365 
 6771      5F7400
 6772              	.LASF61:
 6773 0385 63685F76 		.ascii	"ch_virtual_timers_list\000"
 6773      69727475 
 6773      616C5F74 
 6773      696D6572 
 6773      735F6C69 
 6774              	.LASF150:
 6775 039c 74657374 		.ascii	"test_step\000"
 6775      5F737465 
 6775      7000
 6776              	.LASF132:
 6777 03a6 6F73616C 		.ascii	"osalThreadSleep\000"
 6777      54687265 
 6777      6164536C 
 6777      65657000 
 6778              	.LASF74:
 6779 03b6 706F7274 		.ascii	"port_context\000"
 6779      5F636F6E 
 6779      74657874 
 6779      00
 6780              	.LASF104:
 6781 03c3 73657475 		.ascii	"setup\000"
 6781      7000
 6782              	.LASF134:
 6783 03c9 5F746573 		.ascii	"_test_assert_sequence\000"
 6783      745F6173 
 6783      73657274 
 6783      5F736571 
 6783      75656E63 
 6784              	.LASF117:
ARM GAS  /tmp/ccOPYu5Z.s 			page 187


 6785 03df 74696D65 		.ascii	"time\000"
 6785      00
 6786              	.LASF30:
 6787 03e4 7072696F 		.ascii	"prio\000"
 6787      00
 6788              	.LASF54:
 6789 03e9 63757272 		.ascii	"current\000"
 6789      656E7400 
 6790              	.LASF122:
 6791 03f1 6F73616C 		.ascii	"osalOsIsTimeWithinX\000"
 6791      4F734973 
 6791      54696D65 
 6791      57697468 
 6791      696E5800 
 6792              	.LASF138:
 6793 0405 746F6B65 		.ascii	"token\000"
 6793      6E00
 6794              	.LASF22:
 6795 040b 74726566 		.ascii	"trefs_t\000"
 6795      735F7400 
 6796              	.LASF37:
 6797 0413 72656673 		.ascii	"refs\000"
 6797      00
 6798              	.LASF56:
 6799 0418 76697274 		.ascii	"virtual_timer_t\000"
 6799      75616C5F 
 6799      74696D65 
 6799      725F7400 
 6800              	.LASF23:
 6801 0428 74707269 		.ascii	"tprio_t\000"
 6801      6F5F7400 
 6802              	.LASF126:
 6803 0430 5F5F6675 		.ascii	"__func__.5198\000"
 6803      6E635F5F 
 6803      2E353139 
 6803      3800
 6804              	.LASF99:
 6805 043e 5F426F6F 		.ascii	"_Bool\000"
 6805      6C00
 6806              	.LASF17:
 6807 0444 696E7433 		.ascii	"int32_t\000"
 6807      325F7400 
 6808              	.LASF4:
 6809 044c 756E7369 		.ascii	"unsigned char\000"
 6809      676E6564 
 6809      20636861 
 6809      7200
 6810              	.LASF106:
 6811 045a 65786563 		.ascii	"execute\000"
 6811      75746500 
 6812              	.LASF5:
 6813 0462 73686F72 		.ascii	"short int\000"
 6813      7420696E 
 6813      7400
 6814              	.LASF62:
 6815 046c 6C617374 		.ascii	"lasttime\000"
 6815      74696D65 
ARM GAS  /tmp/ccOPYu5Z.s 			page 188


 6815      00
 6816              	.LASF93:
 6817 0475 65776D61 		.ascii	"ewmask\000"
 6817      736B00
 6818              	.LASF67:
 6819 047c 63685F73 		.ascii	"ch_system\000"
 6819      79737465 
 6819      6D00
 6820              	.LASF100:
 6821 0486 42617365 		.ascii	"BaseSequentialStreamVMT\000"
 6821      53657175 
 6821      656E7469 
 6821      616C5374 
 6821      7265616D 
 6822              	.LASF112:
 6823 049e 63685379 		.ascii	"chSysLock\000"
 6823      734C6F63 
 6823      6B00
 6824              	.LASF131:
 6825 04a8 6F73616C 		.ascii	"osalSysUnlock\000"
 6825      53797355 
 6825      6E6C6F63 
 6825      6B00
 6826              	.LASF57:
 6827 04b6 63685F76 		.ascii	"ch_virtual_timer\000"
 6827      69727475 
 6827      616C5F74 
 6827      696D6572 
 6827      00
 6828              	.LASF94:
 6829 04c7 63685F73 		.ascii	"ch_semaphore\000"
 6829      656D6170 
 6829      686F7265 
 6829      00
 6830              	.LASF84:
 6831 04d4 43435852 		.ascii	"CCXR\000"
 6831      00
 6832              	.LASF153:
 6833 04d9 63685468 		.ascii	"chThdSleep\000"
 6833      64536C65 
 6833      657000
 6834              	.LASF110:
 6835 04e4 73745F6C 		.ascii	"st_lld_get_counter\000"
 6835      6C645F67 
 6835      65745F63 
 6835      6F756E74 
 6835      657200
 6836              	.LASF18:
 6837 04f7 75696E74 		.ascii	"uint32_t\000"
 6837      33325F74 
 6837      00
 6838              	.LASF92:
 6839 0500 77746D74 		.ascii	"wtmtxp\000"
 6839      787000
 6840              	.LASF127:
 6841 0507 74657374 		.ascii	"test_printn\000"
 6841      5F707269 
ARM GAS  /tmp/ccOPYu5Z.s 			page 189


 6841      6E746E00 
 6842              	.LASF47:
 6843 0513 63685F74 		.ascii	"ch_threads_list\000"
 6843      68726561 
 6843      64735F6C 
 6843      69737400 
 6844              	.LASF96:
 6845 0523 6F776E65 		.ascii	"owner\000"
 6845      7200
 6846              	.LASF11:
 6847 0529 6C6F6E67 		.ascii	"long unsigned int\000"
 6847      20756E73 
 6847      69676E65 
 6847      6420696E 
 6847      7400
 6848              	.LASF34:
 6849 053b 77616261 		.ascii	"wabase\000"
 6849      736500
 6850              	.LASF102:
 6851 0542 72656164 		.ascii	"read\000"
 6851      00
 6852              	.LASF97:
 6853 0547 63686172 		.ascii	"char\000"
 6853      00
 6854              	.LASF6:
 6855 054c 5F5F7569 		.ascii	"__uint16_t\000"
 6855      6E743136 
 6855      5F7400
 6856              	.LASF0:
 6857 0557 756E7369 		.ascii	"unsigned int\000"
 6857      676E6564 
 6857      20696E74 
 6857      00
 6858              	.LASF82:
 6859 0564 444D4152 		.ascii	"DMAR\000"
 6859      00
 6860              	.LASF28:
 6861 0569 74687265 		.ascii	"thread_t\000"
 6861      61645F74 
 6861      00
 6862              	.LASF152:
 6863 0572 74657374 		.ascii	"test_suite\000"
 6863      5F737569 
 6863      746500
 6864              	.LASF139:
 6865 057d 74657374 		.ascii	"test_emit_token_i\000"
 6865      5F656D69 
 6865      745F746F 
 6865      6B656E5F 
 6865      6900
 6866              	.LASF27:
 6867 058f 73797374 		.ascii	"systime_t\000"
 6867      696D655F 
 6867      7400
 6868              	.LASF55:
 6869 0599 76746675 		.ascii	"vtfunc_t\000"
 6869      6E635F74 
ARM GAS  /tmp/ccOPYu5Z.s 			page 190


 6869      00
 6870              	.LASF10:
 6871 05a2 5F5F7569 		.ascii	"__uint32_t\000"
 6871      6E743332 
 6871      5F7400
 6872              	.LASF113:
 6873 05ad 5F5F7365 		.ascii	"__set_BASEPRI\000"
 6873      745F4241 
 6873      53455052 
 6873      4900
 6874              	.LASF65:
 6875 05bb 70616E69 		.ascii	"panic_msg\000"
 6875      635F6D73 
 6875      6700
 6876              	.LASF151:
 6877 05c5 74657374 		.ascii	"test_global_fail\000"
 6877      5F676C6F 
 6877      62616C5F 
 6877      6661696C 
 6877      00
 6878              	.LASF7:
 6879 05d6 73686F72 		.ascii	"short unsigned int\000"
 6879      7420756E 
 6879      7369676E 
 6879      65642069 
 6879      6E7400
 6880              	.LASF111:
 6881 05e9 706F7274 		.ascii	"port_timer_get_time\000"
 6881      5F74696D 
 6881      65725F67 
 6881      65745F74 
 6881      696D6500 
 6882              	.LASF148:
 6883 05fd 74657374 		.ascii	"test_chp\000"
 6883      5F636870 
 6883      00
 6884              	.LASF144:
 6885 0606 74657374 		.ascii	"test_local_fail\000"
 6885      5F6C6F63 
 6885      616C5F66 
 6885      61696C00 
 6886              	.LASF31:
 6887 0616 6E657765 		.ascii	"newer\000"
 6887      7200
 6888              	.LASF158:
 6889 061c 74657374 		.ascii	"test_print_port_info\000"
 6889      5F707269 
 6889      6E745F70 
 6889      6F72745F 
 6889      696E666F 
 6890              	.LASF49:
 6891 0631 74687265 		.ascii	"threads_queue_t\000"
 6891      6164735F 
 6891      71756575 
 6891      655F7400 
 6892              	.LASF95:
 6893 0641 63685F6D 		.ascii	"ch_mutex\000"
ARM GAS  /tmp/ccOPYu5Z.s 			page 191


 6893      75746578 
 6893      00
 6894              	.LASF140:
 6895 064a 65786563 		.ascii	"execute_test\000"
 6895      7574655F 
 6895      74657374 
 6895      00
 6896              	.LASF68:
 6897 0657 726C6973 		.ascii	"rlist\000"
 6897      7400
 6898              	.LASF15:
 6899 065d 75696E74 		.ascii	"uint8_t\000"
 6899      385F7400 
 6900              	.LASF145:
 6901 0665 74657374 		.ascii	"test_failure_message\000"
 6901      5F666169 
 6901      6C757265 
 6901      5F6D6573 
 6901      73616765 
 6902              	.LASF154:
 6903 067a 474E5520 		.ascii	"GNU C 4.8.2 -mcpu=cortex-m3 -mno-thumb-interwork -m"
 6903      4320342E 
 6903      382E3220 
 6903      2D6D6370 
 6903      753D636F 
 6904 06ad 7468756D 		.ascii	"thumb -ggdb -O2 -fomit-frame-pointer -falign-functi"
 6904      62202D67 
 6904      67646220 
 6904      2D4F3220 
 6904      2D666F6D 
 6905 06e0 6F6E733D 		.ascii	"ons=16 -ffunction-sections -fdata-sections -fno-com"
 6905      3136202D 
 6905      6666756E 
 6905      6374696F 
 6905      6E2D7365 
 6906 0713 6D6F6E20 		.ascii	"mon -flto\000"
 6906      2D666C74 
 6906      6F00
 6907              	.LASF36:
 6908 071d 666C6167 		.ascii	"flags\000"
 6908      7300
 6909              	.LASF119:
 6910 0723 636C6561 		.ascii	"clear_tokens\000"
 6910      725F746F 
 6910      6B656E73 
 6910      00
 6911              	.LASF88:
 6912 0730 77746F62 		.ascii	"wtobjp\000"
 6912      6A7000
 6913              	.LASF124:
 6914 0737 5F746573 		.ascii	"_test_assert\000"
 6914      745F6173 
 6914      73657274 
 6914      00
 6915              	.LASF45:
 6916 0744 74687265 		.ascii	"threads_list_t\000"
 6916      6164735F 
ARM GAS  /tmp/ccOPYu5Z.s 			page 192


 6916      6C697374 
 6916      5F7400
 6917              	.LASF121:
 6918 0753 63685654 		.ascii	"chVTIsTimeWithinX\000"
 6918      49735469 
 6918      6D655769 
 6918      7468696E 
 6918      5800
 6919              	.LASF20:
 6920 0765 746D6F64 		.ascii	"tmode_t\000"
 6920      655F7400 
 6921              	.LASF114:
 6922 076d 63685379 		.ascii	"chSysUnlock\000"
 6922      73556E6C 
 6922      6F636B00 
 6923              	.LASF118:
 6924 0779 73746172 		.ascii	"start\000"
 6924      7400
 6925              	.LASF41:
 6926 077f 6D74786C 		.ascii	"mtxlist\000"
 6926      69737400 
 6927              		.comm	__gnu_lto_v1,1,1
 6928              		.ident	"GCC: (4.8.2-14ubuntu1+6) 4.8.2"
ARM GAS  /tmp/ccOPYu5Z.s 			page 193


DEFINED SYMBOLS
                            *ABS*:0000000000000000 ch_test.c
     /tmp/ccOPYu5Z.s:1024   .text.print_line:0000000000000000 $t
     /tmp/ccOPYu5Z.s:1029   .text.print_line:0000000000000000 print_line
     /tmp/ccOPYu5Z.s:2366   .bss.test_chp:0000000000000000 .LANCHOR0
     /tmp/ccOPYu5Z.s:2308   .rodata.str1.4:0000000000000000 .LC0
     /tmp/ccOPYu5Z.s:1078   .text._test_fail:0000000000000000 $t
     /tmp/ccOPYu5Z.s:1084   .text._test_fail:0000000000000000 _test_fail
     /tmp/ccOPYu5Z.s:2301   .bss.test_local_fail:0000000000000000 .LANCHOR1
     /tmp/ccOPYu5Z.s:2295   .bss.test_failure_message:0000000000000000 .LANCHOR3
     /tmp/ccOPYu5Z.s:2393   .bss.test_global_fail:0000000000000000 .LANCHOR2
     /tmp/ccOPYu5Z.s:1125   .text._test_assert:0000000000000000 $t
     /tmp/ccOPYu5Z.s:1131   .text._test_assert:0000000000000000 _test_assert
     /tmp/ccOPYu5Z.s:1184   .text._test_assert_sequence:0000000000000000 $t
     /tmp/ccOPYu5Z.s:1190   .text._test_assert_sequence:0000000000000000 _test_assert_sequence
     /tmp/ccOPYu5Z.s:2373   .bss.test_tokp:0000000000000000 .LANCHOR5
     /tmp/ccOPYu5Z.s:2387   .bss.test_tokens_buffer:0000000000000000 .LANCHOR4
     /tmp/ccOPYu5Z.s:1272   .text._test_assert_time_window:0000000000000000 $t
     /tmp/ccOPYu5Z.s:1278   .text._test_assert_time_window:0000000000000000 _test_assert_time_window
     /tmp/ccOPYu5Z.s:1369   .text.test_printn:0000000000000000 $t
     /tmp/ccOPYu5Z.s:1375   .text.test_printn:0000000000000000 test_printn
     /tmp/ccOPYu5Z.s:1467   .text.test_print:0000000000000000 $t
     /tmp/ccOPYu5Z.s:1473   .text.test_print:0000000000000000 test_print
     /tmp/ccOPYu5Z.s:1513   .text.test_println:0000000000000000 $t
     /tmp/ccOPYu5Z.s:1519   .text.test_println:0000000000000000 test_println
     /tmp/ccOPYu5Z.s:1576   .text.test_emit_token:0000000000000000 $t
     /tmp/ccOPYu5Z.s:1582   .text.test_emit_token:0000000000000000 test_emit_token
     /tmp/ccOPYu5Z.s:1635   .text.test_emit_token:0000000000000024 $d
     /tmp/ccOPYu5Z.s:1646   .text.test_emit_token_i:0000000000000000 $t
     /tmp/ccOPYu5Z.s:1652   .text.test_emit_token_i:0000000000000000 test_emit_token_i
     /tmp/ccOPYu5Z.s:1675   .text.test_emit_token_i:0000000000000018 $d
     /tmp/ccOPYu5Z.s:1680   .text.test_execute:0000000000000000 $t
     /tmp/ccOPYu5Z.s:1686   .text.test_execute:0000000000000000 test_execute
     /tmp/ccOPYu5Z.s:2311   .rodata.str1.4:0000000000000004 .LC1
     /tmp/ccOPYu5Z.s:2314   .rodata.str1.4:0000000000000008 .LC2
     /tmp/ccOPYu5Z.s:2317   .rodata.str1.4:0000000000000024 .LC3
     /tmp/ccOPYu5Z.s:2319   .rodata.str1.4:0000000000000028 .LC4
     /tmp/ccOPYu5Z.s:2345   .rodata.str1.4:00000000000000ac .LC14
     /tmp/ccOPYu5Z.s:2348   .rodata.str1.4:00000000000000c4 .LC15
     /tmp/ccOPYu5Z.s:2351   .rodata.str1.4:00000000000000d8 .LC16
     /tmp/ccOPYu5Z.s:2353   .rodata.str1.4:00000000000000fc .LC17
     /tmp/ccOPYu5Z.s:2322   .rodata.str1.4:000000000000003c .LC5
     /tmp/ccOPYu5Z.s:2325   .rodata.str1.4:0000000000000054 .LC6
     /tmp/ccOPYu5Z.s:2356   .rodata.str1.4:0000000000000110 .LC18
     /tmp/ccOPYu5Z.s:2328   .rodata.str1.4:0000000000000064 .LC7
     /tmp/ccOPYu5Z.s:2331   .rodata.str1.4:0000000000000068 .LC8
     /tmp/ccOPYu5Z.s:2380   .bss.test_step:0000000000000000 .LANCHOR6
     /tmp/ccOPYu5Z.s:2359   .rodata.str1.4:0000000000000114 .LC19
     /tmp/ccOPYu5Z.s:2334   .rodata.str1.4:0000000000000080 .LC9
     /tmp/ccOPYu5Z.s:2336   .rodata.str1.4:0000000000000084 .LC10
     /tmp/ccOPYu5Z.s:2362   .rodata.str1.4:0000000000000118 .LC20
     /tmp/ccOPYu5Z.s:2343   .rodata.str1.4:00000000000000a4 .LC13
     /tmp/ccOPYu5Z.s:2339   .rodata.str1.4:0000000000000088 .LC11
     /tmp/ccOPYu5Z.s:2341   .rodata.str1.4:000000000000009c .LC12
     /tmp/ccOPYu5Z.s:2287   .text.test_execute:00000000000002f8 $d
     /tmp/ccOPYu5Z.s:2396   .bss.test_global_fail:0000000000000000 test_global_fail
     /tmp/ccOPYu5Z.s:2383   .bss.test_step:0000000000000000 test_step
ARM GAS  /tmp/ccOPYu5Z.s 			page 194


     /tmp/ccOPYu5Z.s:2294   .bss.test_failure_message:0000000000000000 $d
     /tmp/ccOPYu5Z.s:2298   .bss.test_failure_message:0000000000000000 test_failure_message
     /tmp/ccOPYu5Z.s:2304   .bss.test_local_fail:0000000000000000 test_local_fail
     /tmp/ccOPYu5Z.s:2305   .bss.test_local_fail:0000000000000000 $d
     /tmp/ccOPYu5Z.s:2307   .rodata.str1.4:0000000000000000 $d
     /tmp/ccOPYu5Z.s:2365   .bss.test_chp:0000000000000000 $d
     /tmp/ccOPYu5Z.s:2369   .bss.test_chp:0000000000000000 test_chp
     /tmp/ccOPYu5Z.s:2372   .bss.test_tokp:0000000000000000 $d
     /tmp/ccOPYu5Z.s:2376   .bss.test_tokp:0000000000000000 test_tokp
     /tmp/ccOPYu5Z.s:2379   .bss.test_step:0000000000000000 $d
     /tmp/ccOPYu5Z.s:2386   .bss.test_tokens_buffer:0000000000000000 $d
     /tmp/ccOPYu5Z.s:2390   .bss.test_tokens_buffer:0000000000000000 test_tokens_buffer
     /tmp/ccOPYu5Z.s:2397   .bss.test_global_fail:0000000000000000 $d
                            *COM*:0000000000000001 __gnu_lto_v1
                     .debug_frame:0000000000000010 $d
     /tmp/ccOPYu5Z.s:1645   .text.test_emit_token:0000000000000028 $t
     /tmp/ccOPYu5Z.s:1679   .text.test_emit_token_i:000000000000001c $t
     /tmp/ccOPYu5Z.s:2293   .text.test_execute:00000000000002fc $t

UNDEFINED SYMBOLS
test_suite
test_print_port_info
chThdSleep
