ARM GAS  /tmp/cc8siAbf.s 			page 1


   1              		.syntax unified
   2              		.cpu cortex-m3
   3              		.fpu softvfp
   4              		.eabi_attribute 20, 1
   5              		.eabi_attribute 21, 1
   6              		.eabi_attribute 23, 3
   7              		.eabi_attribute 24, 1
   8              		.eabi_attribute 25, 1
   9              		.eabi_attribute 26, 1
  10              		.eabi_attribute 30, 2
  11              		.eabi_attribute 34, 1
  12              		.eabi_attribute 18, 4
  13              		.thumb
  14              		.file	"chcore_v7m.c"
  15              		.text
  16              	.Ltext0:
  17              		.section	.gnu.lto_.jmpfuncs.ea27d1e65d892695,"",%progbits
  18 0000 789C6362 		.ascii	"x\234cb`b\300\006\270\24043\030\263\000I\000\001\302"
  18      6062C006 
  18      B8A03433 
  18      18B30049 
  18      0001C2
  19 0013 0019     		.ascii	"\000\031"
  20              		.text
  21              		.section	.gnu.lto_.inline.ea27d1e65d892695,"",%progbits
  22 0000 789C6362 		.ascii	"x\234cb`b\300\006\334\24043\003\003\277\030#\003\223"
  22      6062C006 
  22      DCA03433 
  22      0303BF18 
  22      230393
  23 0013 C8851E46 		.ascii	"\310\205\036F\006\266\005\362`\325L\334`\031N\016\240"
  23      06B605F2 
  23      60D54CDC 
  23      60194E0E 
  23      A0
  24 0024 04CF8358 		.ascii	"\004\317\203X\2708\013\003\0277HhN$\\\210\221\013D\002"
  24      B8380B03 
  24      17374868 
  24      4E245C88 
  24      910B4402 
  25 0038 000FB806 		.ascii	"\000\017\270\006\321"
  25      D1
  26              		.text
  27              		.section	.gnu.lto_.pureconst.ea27d1e65d892695,"",%progbits
  28 0000 789C6362 		.ascii	"x\234cb`b`g\200\000f\006+f+\026+\000\002\367\000\304"
  28      60626067 
  28      80006606 
  28      2B662B16 
  28      2B0002F7 
  29              		.text
  30              		.section	.gnu.lto__port_irq_epilogue.part.0.ea27d1e65d892695,"",%progbits
  31 0000 789CAD52 		.ascii	"x\234\255RMHTQ\024>\347\276\367F\235\306\212\026\201"
  31      4D485451 
  31      143EE7BE 
  31      F7469DC6 
  31      8A1681
  32 0013 10320861 		.ascii	"\0202\010a\240\314K\012\\\005\205mZ\014\205\243P\213"
ARM GAS  /tmp/cc8siAbf.s 			page 2


  32      A0CC4B0A 
  32      5C05856D 
  32      5A0C85A3 
  32      508B
  33 0025 90F135E9 		.ascii	"\220\3615\351#\307\031f\306\232p\341\235\037Hl\241\014"
  33      23C71966 
  33      C69A70E1 
  33      9D1F486C 
  33      A10C
  34 0037 0AFE5428 		.ascii	"\012\376T(\364c\272\220h\221\313\251\220\022\311h%\342"
  34      F463BA90 
  34      6891CBA9 
  34      9012C968 
  34      25E2
  35 0049 66762146 		.ascii	"fv!F(\321\306~\246s\357\2337\316D\240\213\016\314=w"
  35      28D1C67E 
  35      A673EF9B 
  35      37CE44A0 
  35      8B0ECC3D 
  36 005e EE39DFF7 		.ascii	"\3569\337\367\335\373\235\307\200\301\337q\221~\235"
  36      DDFB9DC7 
  36      80C1DF71 
  36      917E9D
  37 006d 2AC023CA 		.ascii	"*\300#\312X\001\350\030Y\245\215\003\231\314\214)\203"
  37      5801E818 
  37      59A58D03 
  37      99CC8C29 
  37      83
  38 007e F5C09DAA 		.ascii	"\365\300\235\252X]\012j\3424Q\251\332\033\015Ql\000"
  38      585D0A6A 
  38      E23451A9 
  38      DA1B0D51 
  38      6C00
  39 0090 61C0C114 		.ascii	"a\300\301\024U\303\201k(X\325:\230\341<\223[\232\337"
  39      55C3816B 
  39      2858D53A 
  39      98E13C93 
  39      5B9ADF
  40 00a3 64133C9B 		.ascii	"d\023<\233\236\341?\363yD\023\351\006\036\004\003\341"
  40      9EE13FF3 
  40      794413E9 
  40      061E0403 
  40      E1
  41 00b4 2AFD41B7 		.ascii	"*\375A\267LL-\277\222\304N\34666\207\035\023\243\331"
  41      4C4C2DBF 
  41      92C44EE6 
  41      3636871D 
  41      13A3D9
  42 00c7 F474110B 		.ascii	"\364t\021\013\007\001f\262\277\336=\250\341\323\311"
  42      070166B2 
  42      BFDE3DA8 
  42      E1D3C9
  43 00d6 11FE9B70 		.ascii	"\021\376\233p&*\014\256\037H2\223]\033\032\256\031\332"
  43      262A0CAE 
  43      1F483293 
  43      5D1B1AAE 
  43      19DA
ARM GAS  /tmp/cc8siAbf.s 			page 3


  44 00e8 43AA0C3A 		.ascii	"C\252\014:\367C.0\236\313\347\327_V\271\020\3748\203"
  44      F7432E30 
  44      9ECBE7D7 
  44      5F56B910 
  44      FC3883
  45 00fb 75F4423F 		.ascii	"u\364B?>\246\254\024\262J\371)e\015L\324\010\241A\232"
  45      3EA6AC14 
  45      B24AF929 
  45      650D4CD4 
  45      08A1419A 
  46 010f F311B77C 		.ascii	"\363\021\267|\014E\033\255\302\3036t\210\254\264#\223"
  46      0C451BAD 
  46      C2C33674 
  46      88ACB423 
  46      93
  47 0120 7915123B 		.ascii	"y\025\022;\3115W\241\333\242\266\301\331W\337f\217k"
  47      C93557A1 
  47      DBA2B6C1 
  47      D957DF66 
  47      8F6B
  48 0132 452A4B07 		.ascii	"E*K\007HgV*\020\263\244\246\261\200\251\210\241+\326"
  48      4867562A 
  48      10B3A4A6 
  48      B180A988 
  48      A12BD6
  49 0145 E46BE1CE 		.ascii	"\344k\341\316C>~\336$)\212\256B\3272$\267I\311\217\317"
  49      433E7EDE 
  49      24298AAE 
  49      42D73224 
  49      B749C98F 
  50 015a 096D09C9 		.ascii	"\011m\011\311\322\007Hn\275%\245\263~\234\247J\0272"
  50      D207486E 
  50      BD25A5B3 
  50      7E9CA74A 
  50      1732
  51 016c 79BC0CCC 		.ascii	"y\274\014\314:\260d\351X\264\246\356\247\266Fk\354N"
  51      3AB064E9 
  51      58B4A6EE 
  51      A7B6466B 
  51      EC4E
  52 017e 854EA55B 		.ascii	"\205N\245[\344M\376\010\374\003\244H\376\305\305g\257"
  52      E44DFE08 
  52      FC03A448 
  52      FEC5C567 
  52      AF
  53 018f 0B850698 		.ascii	"\013\205\006\230\343\024gL\254\230\202\311\004\347G"
  53      E314674C 
  53      AC9882C9 
  53      04E747
  54 019e 4DAC2CD0 		.ascii	"M\254,\320(6\215\230\207\014qZE\355\225 y\276\246\026"
  54      28368D98 
  54      870C715A 
  54      45ED9520 
  54      79BEA616 
  55 01b2 C66A6D71 		.ascii	"\306jmqU\262\027\025\013\263\375~o\005y\206'\266\211"
  55      55B21715 
  55      0BB3FD7E 
ARM GAS  /tmp/cc8siAbf.s 			page 4


  55      6F057986 
  55      27B689
  56 01c5 497E87FD 		.ascii	"I~\207\375\373\215\226\230\000V!\271\363f\335U\034\232"
  56      FB8D9698 
  56      005621B9 
  56      F366DD55 
  56      1C9A
  57 01d7 3D808DB9 		.ascii	"=\200\215\271\023\350\307\027\005\337\205\216\201\314"
  57      13E8C717 
  57      05DF858E 
  57      81CC
  58 01e5 F21C6108 		.ascii	"\362\034a\010\313]\037G\313vg\221v\2576\205%#\001\370"
  58      CB5D1F47 
  58      CB766791 
  58      76AF3685 
  58      252301F8 
  59 01f9 08A9DCC2 		.ascii	"\010\251\334\302\3221\373-Z?\354\362A\341\305!C\274"
  59      D231FB2D 
  59      5A3FECF2 
  59      41E1C521 
  59      43BC
  60 020b 8AC24417 		.ascii	"\212\302D\027\300{H\177I4\025\273\304\365\265\322\273"
  60      C07B487F 
  60      493415BB 
  60      C4F5B5D2 
  60      BB
  61 021c B753F360 		.ascii	"\267S\363`\275B\326\354\246>\217\235*\263\270y?\213"
  61      BD42D6EC 
  61      A63E8F9D 
  61      2AB3B879 
  61      3F8B
  62 022e 2D8F2D65 		.ascii	"-\217-e~\327\304j\003\325\022f\265\310\374\343?0k%\314"
  62      7ED7C46A 
  62      03D51266 
  62      B5C8FCE3 
  62      3F306B25 
  63 0243 9AFCF23F 		.ascii	"\232\374\362?A\"\267\362\004-f;\332\010KEaZ\203\307"
  63      4122B7F2 
  63      042D663B 
  63      DA084B45 
  63      615A83C7 
  64 0257 A387A2BA 		.ascii	"\243\207\242\272\021\012\006C\275z \036\323[\274\276"
  64      110A0643 
  64      BD7A201E 
  64      D35BBCBE 
  65 0267 4B3EDDEC 		.ascii	"K>\335\3545z\372n\004t#\0305\243\035]\206\341\351\006"
  65      357AFA6E 
  65      04742318 
  65      35A31D5D 
  65      86E1E906 
  66 027b 472410ED 		.ascii	"G$\020\355\353\211\325\227A\302\241H,\252_h\365\266"
  66      EB89D597 
  66      41C2A148 
  66      2CAA5F68 
  66      F5B6
  67 028d 78E3BAD1 		.ascii	"x\343\272\321m\204\"\201\216\333\315A\217\001\252\021"
  67      6D842281 
ARM GAS  /tmp/cc8siAbf.s 			page 5


  67      8EDBCD41 
  67      8F01AA11 
  68 029d 8B871D62 		.ascii	"\213\207\035b\3614U{[}\356\223\247\033\335\341h\330"
  68      F134557B 
  68      5B7DEE93 
  68      A71BDDE1 
  68      68D8
  69 02af 09CAB908 		.ascii	"\011\312\271\010\034\216\205\302\227o^\211\204\014_"
  69      1C8E85C2 
  69      976F5E89 
  69      840C5F
  70 02be CC6FDCAA 		.ascii	"\314o\334\252\366\372ZE\261\221\272\234\300\"\240D\303"
  70      F6FA5A45 
  70      B191BA9C 
  70      C022A044 
  70      C3
  71 02cf F0079CF2 		.ascii	"\360\007\234\362C\""
  71      4322
  72              		.text
  73              		.section	.gnu.lto_SVC_Handler.ea27d1e65d892695,"",%progbits
  74 0000 789C8D52 		.ascii	"x\234\215RMHTQ\024>\347\336\367t\260\214\242\225\020"
  74      4D485451 
  74      143EE7DE 
  74      F774B08C 
  74      A29510
  75 0013 31181194 		.ascii	"1\030\021\224\315\263U\253\240p\325b(\034\203Z\311x"
  75      CDB355AB 
  75      A070D562 
  75      281C835A 
  75      C978
  76 0025 7B8D8F1C 		.ascii	"{\215\217\034\337\343\275\321\214\026\336\031]\224\272"
  76      DFE3BDD1 
  76      8C16DE19 
  76      5D94BA
  77 0034 18234989 		.ascii	"\030#I\211@\211(\262?Z\004\321f\"(\314\237(j\321\302"
  77      408928B2 
  77      3F5A04D1 
  77      662228CC 
  77      9F286AD1 
  78 0049 1817D222 		.ascii	"\030\027\322\"\022\245M\013\353u\357}\363f\264\"=p\337"
  78      12A54D0B 
  78      EB75EF7D 
  78      F366B422 
  78      3D70DF
  79 005c 79F79CF3 		.ascii	"y\367\234\363}\367\234\357^\002\004\376\264:\261\356"
  79      7DF79CEF 
  79      5E0204FE 
  79      B43AB1EE 
  80 006c 518045E1 		.ascii	"Q\200E\341\221\002\222\374\034@6B\020\345\017 \364\022"
  80      910292FC 
  80      1C403642 
  80      10E50F20 
  80      F412
  81 007e EC3D83B2 		.ascii	"\354=\203\262\224\326\303\004\347W\213\213_\2128v\255"
  81      94D6C304 
  81      E7578B8B 
  81      5F8A3876 
ARM GAS  /tmp/cc8siAbf.s 			page 6


  81      AD
  82 008f D03FCE57 		.ascii	"\320?\316W}\037\321BA\273\037\201!\234\026\033\214*"
  82      7D1FD142 
  82      41BB1F81 
  82      219C161B 
  82      8C2A
  83 00a1 47B4F5E7 		.ascii	"G\264\365\347\004\330\302\360\253\353u|<\227\347\277"
  83      04D8C2F0 
  83      ABEB757C 
  83      3C97E7BF 
  84 00b1 04D4424A 		.ascii	"\004\324BJ\340\320\346\220\305\371g#\007\307x\241\177"
  84      E0D0E690 
  84      C5F96723 
  84      07C778A1 
  84      7F
  85 00c2 223C5523 		.ascii	"\"<U#\320\266\021\366\021)\024}\377\341\352\302\302"
  85      D0B611F6 
  85      1129147D 
  85      FFE1EAC2 
  85      C2
  86 00d3 24EEA8A1 		.ascii	"$\356\250\241\220\304[X\017Z\311\353\302O\010\037\021"
  86      90C45B58 
  86      0F5AC9EB 
  86      C24F081F 
  86      11
  87 00e4 FEB6F0C2 		.ascii	"\376\266\360\302t\350\347<\037\015\362 \331\205\265"
  87      74E8E73C 
  87      1F0DF220 
  87      D985B5
  88 00f3 88AF54E3 		.ascii	"\210\257T\343\024\022\351\351\034dW\226\226\337`\271"
  88      1412E9E9 
  88      1C645796 
  88      96DF60B9 
  89 0103 380007DB 		.ascii	"8\000\007\333\302\340\314\360\026\020\214wD\236\241"
  89      C2E0CCF0 
  89      16108C77 
  89      449EA1
  90 0112 22103282 		.ascii	"\"\0202\202E\245\3724\270\202\335p\341&\037=j\211\022"
  90      45A5FA34 
  90      B882DD70 
  90      E1261F3D 
  90      6A8912
  91 0125 61298CA8 		.ascii	"a)\214\250\252)\310-K\336$\336E\275\324\223\312\315"
  91      AA29C82D 
  91      4BDE24DE 
  91      45BDD493 
  91      CACD
  92 0137 42EEEBCB 		.ascii	"B\356\353\313\301\231,\015XSHUx\012H\020\010\332\025"
  92      C1992C0D 
  92      58534855 
  92      780A4810 
  92      08DA15
  93 014a 6159DA37 		.ascii	"aY\3327\330\367}\250:\254\324DT)\023\205\177\0004\305"
  93      D8F77DA8 
  93      3AACD444 
  93      54291385 
  93      7F0034C5 
ARM GAS  /tmp/cc8siAbf.s 			page 7


  94 015e BDD4E70F 		.ascii	"\275\324\347\017\355\012\001\272\212\226+K\367\366\363"
  94      ED0A01BA 
  94      8A962B4B 
  94      F7F6F3
  95 016d D3D67CF6 		.ascii	"\323\326|\3662\367\375^%\374\245\215\204O\311\311\346"
  95      32F7FD5E 
  95      25FCA58D 
  95      844FC9C9 
  95      E6
  96 017e 20B7B234 		.ascii	" \267\2624:\035\352TVh\372\355\0131\311\003%Z\250\023"
  96      3A1DEA54 
  96      5668FAED 
  96      0B31C903 
  96      255AA813 
  97 0192 09644218 		.ascii	"\011dB\030\300\365B\215b\240TU\231\266\222\273\201k"
  97      C0F5428D 
  97      62A05455 
  97      99B692BB 
  97      816B
  98 01a4 5454FA45 		.ascii	"TT\372E\312\357\305\037\370Vw\377\011\347W\012\374\207"
  98      CAEFC51F 
  98      F85677FF 
  98      09E7570A 
  98      FC87
  99 01b6 8F3E557D 		.ascii	"\217>U}\277\306\215\032\2271\025R\315?~\377W\363\376"
  99      BFC68D1A 
  99      97311552 
  99      CD3F7EFF 
  99      57F3FE
 100 01c9 C8FCCEAC 		.ascii	"\310\374\316\254\236\304\247k\356\234?\377\260@+\017"
 100      9EC4A76B 
 100      EE9C3FFF 
 100      B0402B0F 
 101 01d9 E0E38A5E 		.ascii	"\340\343\212^\031\214\212\245\211\245\207\003\316\376"
 101      198C8AA5 
 101      89A58703 
 101      CEFE
 102 01e7 6FC0F2F1 		.ascii	"o\300\362\361\225\374\347R\276:h\360\035d\213\223{\002"
 102      95FCE752 
 102      BE3A68F0 
 102      1D648B93 
 102      7B02
 103 01f9 F6D05AC4 		.ascii	"\366\320Z\304X\342aJ\300\276X\314\260=\203\331\351\264"
 103      58E2614A 
 103      C0BE58CC 
 103      B03D83D9 
 103      E9B4
 104 020b DD6938B6 		.ascii	"\335i8\266\233\361\214c\315\361\246x\217\301\332\231"
 104      9BF18C63 
 104      CDF1A678 
 104      8FC1DA99 
 105 021b ED9AADDD 		.ascii	"\355\232\255\335\207\3231\006U,\323\343\304\0325\351"
 105      87D33106 
 105      552CD3E3 
 105      C41A35E9 
 106 022b 0EACC398 		.ascii	"\016\254\303\230=\031\243)\2368\2360\254N\326\321u\326"
 106      3D19A329 
ARM GAS  /tmp/cc8siAbf.s 			page 8


 106      9E389E30 
 106      AC4ED6D1 
 106      75D6
 107 023d 3458DAB3 		.ascii	"4X\332\263\274\326\024c\261v\250rM\257\253#S\033oND"
 107      BCD61463 
 107      B176A872 
 107      4DAFAB23 
 107      531B6F4E 
 108 0252 F7363644 		.ascii	"\36766D\035\317\251\001z\304\205m\031\3339q\356\244"
 108      1DCFA901 
 108      7AC4856D 
 108      19DB3971 
 108      EEA4
 109 0264 6BB34426 		.ascii	"k\263D&\311\316\327\306\023\3152\331 \252j\200\270@"
 109      C9CED7C6 
 109      13CD32D9 
 109      20AA6A80 
 109      B840
 110 0276 3D6793CD 		.ascii	"=g\223\315\265\203\336\235\354\3502\267K\212\266\244"
 110      B583DE9D 
 110      ECE832B7 
 110      4B8AB6A4 
 111 0286 673AAE25 		.ascii	"g:\256%i\240:m\246m\367\"\374\006\\\222\"2"
 111      69A03A6D 
 111      A66DF722 
 111      FC065C92 
 111      2232
 112              		.text
 113              		.section	.gnu.lto__port_irq_epilogue.ea27d1e65d892695,"",%progbits
 114 0000 789C8D52 		.ascii	"x\234\215RMh\023A\024~of\267]k\225\234*z\250\241 \012"
 114      4D681341 
 114      147E6F66 
 114      B75D6B95 
 114      9C2A7AA8 
 115 0017 95ACB71C 		.ascii	"\225\254\267\034\274(=y\310%iAOe;.\355B\267\033\222"
 115      BC283D79 
 115      C8256941 
 115      4F653B2E 
 115      ED42B71B 
 116 002c B4443C74 		.ascii	"\264D<t\222\315A\360\022\012B\261\026[\377\240\245\250"
 116      92CD41F0 
 116      120A42B1 
 116      165BFFA0 
 116      A5A8
 117 003e 17A1D01E 		.ascii	"\027\241\320\036R/\255\224\244Tr\220\236\342EP\013\242"
 117      522FAD94 
 117      A4547290 
 117      9EE24550 
 117      0BA2
 118 0050 78126C9C 		.ascii	"x\022l\234\331m\266I\020\353\203\231\367v\337\317\367"
 118      D96DB649 
 118      10EB8399 
 118      F776DFCF 
 118      F7
 119 0061 DEFB8600 		.ascii	"\336\373\206\000\201v\271*\316\031\012\360Lh\354\000"
 119      8176B92A 
 119      CE190AF0 
ARM GAS  /tmp/cc8siAbf.s 			page 9


 119      4C68EC00 
 120 0071 24C50A40 		.ascii	"$\305\012@N#\204V{\200w)\353Q\340\335\024U\371\033\025"
 120      4E238456 
 120      7B807729 
 120      EB51E0DD 
 120      1455F91B 
 121 0086 5FE73415 		.ascii	"_\3474\025Q\032\2000M\250\242\342\364-\364\252\275\""
 121      511A8030 
 121      4DA8A2E2 
 121      F42DF4AA 
 121      BD22
 122 0098 A55ABDFE 		.ascii	"\245Z\275\376\362\347\346\343}\\!\335\024,\004E^BT("
 122      F2E7E6E3 
 122      7D5C21DD 
 122      142C0445 
 122      5E425428 
 123 00ac 705E0C03 		.ascii	"p^\014\0030\357sP\334\262\306\020\022\251\351;\310k"
 123      30EF7350 
 123      DCB2C610 
 123      12A9E93B 
 123      C86B
 124 00be 007DB0C8 		.ascii	"\000}\260\310\371L\355\315Ry\003g\\\276\305\013\245"
 124      F94CEDCD 
 124      52790367 
 124      5CBEC50B 
 124      A5
 125 00cf 7A1DCF5B 		.ascii	"z\035\317[(\242\342(So\242\205$\354)\252\264\316\"\377"
 125      28A2E228 
 125      536FA285 
 125      24EC29AA 
 125      B4CE22FF 
 126 00e3 A100800A 		.ascii	"\241\000\200\012\344\277\257\272/\316\005\220\276Q\372"
 126      E4BFAFBA 
 126      2FCE0590 
 126      BE51FA
 127 00f2 FA7E8E5E 		.ascii	"\372~\216^2\360\011\366\005\375\360o;\0334\010\270\177"
 127      32F009F6 
 127      05FDF06F 
 127      3B1B3408 
 127      B87F
 128 0104 B0AB0218 		.ascii	"\260\253\002\030\270\210\252\300\222xD\034\012\336\250"
 128      B888AAC0 
 128      9278441C 
 128      0ADEA8
 129 0113 0805618A 		.ascii	"\010\005a\212\025R\177\217\275\360\000\347\371\3545"
 129      15527F8F 
 129      BDF000E7 
 129      F9EC35
 130 0122 0B9516F4 		.ascii	"\013\225\026\364#\377\354\241_\365\373+\303\333\275"
 130      23FFECA1 
 130      5FF5FB2B 
 130      C3DBBD
 131 0131 D5FA07F4 		.ascii	"\325\372\007\364\353\217\"\355\207e^\020i\035s\360P"
 131      EB8F22ED 
 131      87655E10 
 131      691D73F0 
 131      50
ARM GAS  /tmp/cc8siAbf.s 			page 10


 132 0142 A84E5942 		.ascii	"\250NYB\343{.?\355U\323\274\254\021l\314W\006w\315]"
 132      E37B2E3F 
 132      ED55D3BC 
 132      AC116CCC 
 132      570677CD 
 133 0157 0ED21551 		.ascii	"\016\322\025QA\206\001\017\011\347\026\024\366s\247"
 133      4186010F 
 133      09E71614 
 133      F673A7
 134 0166 029FE768 		.ascii	"\002\237\347h\226!\321{\265\207\356\200\253\371A\000"
 134      9621D17B 
 134      B587EE80 
 134      ABF94100 
 135 0176 77E117BF 		.ascii	"w\341\027\277\307C\026\236`\376\010\202\251\256F\264"
 135      C743169E 
 135      60FE0882 
 135      A9AE46B4 
 136 0186 02EBD136 		.ascii	"\002\353\3216R>W\332I1\360\251\267\241cY\201\177\261"
 136      523E57DA 
 136      4931F0A9 
 136      B7A16359 
 136      817FB1
 137 0199 F2655EB2 		.ascii	"\362e^\262\362\272\231\225\265\352\307#V\266?\375hb"
 137      F2BA9995 
 137      B5EAC723 
 137      56B63FFD 
 137      6862
 138 01ab 459E8EBF 		.ascii	"E\236\216\277\260b\340\2220\002\264\006\013\006\256"
 138      B062E092 
 138      3002B406 
 138      0B06AE
 139 01ba 606FF31A 		.ascii	"`o\363\032T\357\271\355B\256\266\375\034\017{\361',"
 139      54EFB9ED 
 139      42AEB6FD 
 139      1C0F7BF1 
 139      272C
 140 01cc FDDE7C74 		.ascii	"\375\336|t\226/\344\213\374@\314g\341I\002\013x\334"
 140      962FE48B 
 140      FC40CC67 
 140      E149020B 
 140      78DC
 141 01de A36B34D6 		.ascii	"\243k4\326$\203\"I`H\370\213\221\210\356\244u\346\330"
 141      24832249 
 141      6048F88B 
 141      9188EEA4 
 141      75E6D8
 142 01f1 B633A127 		.ascii	"\2663\241'\235T&\255_\217\307\006bY\235\2151'e\016O"
 142      9D5426AD 
 142      5F8FC706 
 142      62599D8D 
 142      3127650E 
 143 0206 45ED08FB 		.ascii	"E\355\010\373\317\2701P\247\214\361I\263\277%\332\314"
 143      CFB83150 
 143      A78CF149 
 143      B3BF25DA 
 143      CC
 144 0217 66F48158 		.ascii	"f\364\201X\342FB\267&\330\370\344mSgv\332J\017\2172"
ARM GAS  /tmp/cc8siAbf.s 			page 11


 144      E24642B7 
 144      26D8F8E4 
 144      6D536776 
 144      DA4A0F8F 
 145 022c 263242B1 		.ascii	"&2B\261D<<b\244\315d\312\272\034\276p\005H\012:m\323"
 145      443C3C62 
 145      A4CD64CA 
 145      BA1CBE70 
 145      05480A3A 
 146 0242 76527740 		.ascii	"vRw@a\231l\362\017\222\220\360)"
 146      61996CF2 
 146      0F9290F0 
 146      29
 147              		.text
 148              		.section	.gnu.lto_.symbol_nodes.ea27d1e65d892695,"",%progbits
 149 0000 789C45CA 		.ascii	"x\234E\312\271\015\2000\024\004\321\335o\273\0162j\243"
 149      B90D8030 
 149      1404D1DD 
 149      6FBB0E32 
 149      6AA3
 150 0012 8B350972 		.ascii	"\2135\011rH\003& \243\007.\011\221R\011E\020`\301dO"
 150      48032620 
 150      A3072E09 
 150      91520945 
 150      1060C164 
 151 0027 1A83A141 		.ascii	"\032\203\241A\311N\012\350/@\312\211\334(\276\214-\271"
 151      C94E0AE8 
 151      2F40CA89 
 151      DC28BE8C 
 151      2DB9
 152 0039 53F6C966 		.ascii	"S\366\311f\312\225uH\264\205\362?\271R\241\274\221\016"
 152      CA957548 
 152      B485F23F 
 152      B952A1BC 
 152      910E
 153 004b 01477757 		.ascii	"\001GwW\316\003\343T\343\001\211\210\036\370"
 153      CE03E354 
 153      E3018988 
 153      1EF8
 154              		.text
 155              		.section	.gnu.lto_.refs.ea27d1e65d892695,"",%progbits
 156 0000 789C6362 		.ascii	"x\234cb`b`g\200\000&\006&F&&\006\000\000\352\000\025"
 156      60626067 
 156      80002606 
 156      26462626 
 156      060000EA 
 157              		.text
 158              		.section	.gnu.lto_.decls.ea27d1e65d892695,"",%progbits
 159 0000 789CAD57 		.ascii	"x\234\255W}l\024\307\025\237\331;\177\\\3558\011\015"
 159      7D6C14C7 
 159      159FD93B 
 159      7F5CED38 
 159      090D
 160 0012 911DA9C2 		.ascii	"\221\035\251\302(MR\021\325\347\300\037\245R\013\230"
 160      284D5211 
 160      D5E7C01F 
 160      A5520B98 
ARM GAS  /tmp/cc8siAbf.s 			page 12


 161 0022 33D4FEC3 		.ascii	"3\324\376\303\315\351.\240J\374\261l\327\007>\345\316"
 161      CDE92EA0 
 161      4AFCB16C 
 161      D7073EE5 
 161      CE
 162 0033 67F6D681 		.ascii	"g\366\326\201H\225\272\376\0108\024)\207c\0077!\344"
 162      4895BAFE 
 162      08381429 
 162      87630737 
 162      21E4
 163 0045 2084EF3A 		.ascii	" \204\357:\304\244\230 \343\\\250B\250RE\004(\204\030"
 163      C4A49820 
 163      E35CA842 
 163      A8524504 
 163      288418
 164 0058 E2AB48A9 		.ascii	"\342\253H\251\3324\221\221#\265X\330\3277\263\273w\263"
 164      DA349191 
 164      23B558D8 
 164      D737B3BB 
 164      77B3
 165 006a EB5DBC1B 		.ascii	"\353]\274\033u\244\367nnw\346\367~\357\315\333\2317"
 165      75A4F76E 
 165      6E77E6F7 
 165      7EEFCDDB 
 165      9937
 166 007c 1CE2D06F 		.ascii	"\034\342\320o0B9h\343U\010\315\367 \344E\010-C\205V"
 166      30423968 
 166      E35508CD 
 166      F720E445 
 166      082D4385 
 167 0091 0CB217E4 		.ascii	"\014\262\027\344\000\310a\220\243 \203 \357\240\331"
 167      00C86190 
 167      A3208320 
 167      EFA0D9
 168 00a0 8D8CAB00 		.ascii	"\215\214\253\000\031\326~\313A\316\200\224\200\234\000"
 168      19D67ECB 
 168      41CE8094 
 168      809C00
 169 00af B90C7216 		.ascii	"\271\014r\026d\024d9\3105\2201\220!\220\353 \034\310"
 169      64146439 
 169      C8359031 
 169      902190EB 
 169      201CC8
 170 00c2 45900B8C 		.ascii	"E\220\013\214\335\033 75{:\007s#\234J5;\254\335a\315"
 170      DD1B2037 
 170      357B3A07 
 170      73239C4A 
 170      353BACDD 
 171 00d8 26B1F315 		.ascii	"&\261\363\025\343\317Q\006\367k\220\011\220I\013\334"
 171      E3CF5106 
 171      F76B9009 
 171      90490BDC 
 172 00e8 410DABC4 		.ascii	"A\015\253\304\344\223\216w\007d\012\344g\020\303\237"
 172      E4938E77 
 172      07640AE4 
 172      6710C39F 
 173 00f8 83ECD3EC 		.ascii	"\203\354\323\354b\342\013V\347\021\214e\320\257\303"
ARM GAS  /tmp/cc8siAbf.s 			page 13


 173      62E20B56 
 173      E7118C65 
 173      D0AFC3
 174 0107 AA8DBD8C 		.ascii	"\252\215\275\214Ms[\200\366(\231l\366\303\231\343U="
 174      4D735B80 
 174      F628996C 
 174      F6C399E3 
 174      553D
 175 0119 E9CE4C2E 		.ascii	"\351\316L.\267\034=\214\372\025h\351\255\212\202e\001"
 175      B71C3D8C 
 175      FA1568E9 
 175      AD8A8265 
 175      01
 176 012a 2F9B8F7E 		.ascii	"/\233\217~\205\005\\\341C\325\264S\356\243\013\206\220"
 176      85055CE1 
 176      43D5B453 
 176      EEA30B86 
 176      90
 177 013b 80F7E187 		.ascii	"\200\367\341\207\265\336\032\217\012\307\241E\030-B"
 177      B5DE1A8F 
 177      0AC7A145 
 177      182D42
 178 014a 87617E4A 		.ascii	"\207a~JQ:\037\305\026&\021z\034\275E\337\037R<\024\237"
 178      513A1FC5 
 178      1626117A 
 178      1CBD45DF 
 178      1F523C14 
 179 015f 20ECC50B 		.ascii	" \354\305\013\330!\002~\023sf\242\331Tv\370\3347\333"
 179      D821027E 
 179      137366A2 
 179      D95476F8 
 179      DC37DB
 180 0172 F0CEAEF4 		.ascii	"\360\316\256\364ye\"\227\273\337\005\327\203\026\\\223"
 180      79652297 
 180      BBDF05D7 
 180      83165C93 
 181 0182 18FEEEC7 		.ascii	"\030\376\356\307\213\220\321\362!+\313\231\221\361\035"
 181      8B90D1F2 
 181      212BCB99 
 181      91F11D
 182 0191 0A4E7564 		.ascii	"\012Nuds\271\005*\032\207^\304\326\000Gf\003\244!\306"
 182      73B9052A 
 182      1A875EC4 
 182      D6004766 
 182      03A421C6 
 183 01a5 6F7C8C95 		.ascii	"o|\214\225^\345n.\347A:\302\353\263\020hl\024cl\216"
 183      5EE56E2E 
 183      E7413AC2 
 183      EBB31068 
 183      6C14636C 
 184 01ba 9A6373CC 		.ascii	"\232cs\314\312@\346\333\217\312)\2777V\350\360\207\035"
 184      CA40E6DB 
 184      8FCA29BF 
 184      3756E8F0 
 184      871D
 185 01cc C10F9AE1 		.ascii	"\301\017\232\341\337\266\014\375\235\337\375\3356\364"
 185      DFB60CFD 
ARM GAS  /tmp/cc8siAbf.s 			page 14


 185      9DDFFDDD 
 185      36F4
 186 01da A5681B2C 		.ascii	"\245h\033,\267\222}A\351\300\233\220\276\010\245\372"
 186      B7927D41 
 186      E9C09B90 
 186      BE08A5FA 
 187 01ea 22903478 		.ascii	"\"\2204x\014\355W\263\202\023\360\011\\\012\354\256"
 187      0CED57B3 
 187      8213F009 
 187      5C0AECAE 
 188 01fa 62EBF440 		.ascii	"b\353\364@\352\000\322\310|\265\257\3670\262]\342!\213"
 188      EA00D2C8 
 188      7CB5AFF7 
 188      30B25DE2 
 188      218B
 189 020c 25BE61B3 		.ascii	"%\276a\263D'\215.\372P\017\341\017\3164\234\257\260"
 189      44278D2E 
 189      FA500FE1 
 189      0FCE349C 
 189      AFB0
 190 021e B640F9A7 		.ascii	"\266@\371\247\262\343/}\370\001\356\004\237\005<\214"
 190      B2E32F7D 
 190      F801EE04 
 190      9F053C8C 
 191 022e 7D60A19F 		.ascii	"}`\241\2373Zp\0165\335;\362SE)\025\360i\012\364\027"
 191      335A700E 
 191      35DD3BF2 
 191      53452915 
 191      F0690AF4 
 192 0243 1390804B 		.ascii	"\023\220\200K|F\322\360_\037@\320\350k\255C\366\323"
 192      7C46D2F0 
 192      5F1F40D0 
 192      E86BAD43 
 192      F6D3
 193 0255 FB91DBE1 		.ascii	"\373\221\333\341eh{\201\353<\264\223,h5\303Z\341t\332"
 193      65687B81 
 193      EB3CB493 
 193      2C6835C3 
 193      5AE174DA 
 194 0269 D5349A57 		.ascii	"\3254\232W)\305Q<O\003V\3274;\274u\272\033w\320\230"
 194      29C5513C 
 194      4F0356D7 
 194      343BBC75 
 194      BA1B77D0 
 195 027e 9077C822 		.ascii	"\220w\310\"\342Z[\210\322`0\363\237K}UJ\372,6\330\267"
 195      E25A5B88 
 195      D26030F3 
 195      9F4B7D55 
 195      4AFA2C36 
 196 0294 FD7CB570 		.ascii	"\375|\265p\355\272z\353\266f\205\314\344\3206\2179`"
 196      EDBA7AEB 
 196      B66685CC 
 196      E4D0368F 
 196      3960
 197 02a6 CBCB8C11 		.ascii	"\313\313\214\021\200\377\314\000\016\245<:\177+;Z\027"
 197      80FFCC00 
 197      0EA53C3A 
ARM GAS  /tmp/cc8siAbf.s 			page 15


 197      7F2B3B5A 
 197      17
 198 02b7 E533AFC2 		.ascii	"\3453\257\302g\344\015\216\316\364\341\336.\345|\255"
 198      67E40D8E 
 198      CEF4E1DE 
 198      2EE57CAD 
 199 02c7 CEE165D7 		.ascii	"\316\341e\327\210\325\206HL]*O\011:\330+N\300Jm\351"
 199      88D58648 
 199      4C5D2A4F 
 199      093AD82B 
 199      4EC04A6D 
 200 02dc 65EEB260 		.ascii	"e\356\262`\277w\015fd6\303\202\355v\002\366\200=\263"
 200      BF770D66 
 200      6436C382 
 200      ED7602F6 
 200      803DB3
 201 02ef D415062C 		.ascii	"\324\025\006,\355\032\314\310\254\227\005;\350\004\254"
 201      ED1ACCC8 
 201      AC97053B 
 201      E804AC
 202 02fe D29E591F 		.ascii	"\322\236Y\037\013v\3045X\265)\301\355\366\24638\237"
 202      0B76C435 
 202      58B529C1 
 202      EDF6A633 
 202      389F
 203 0310 9A0FA214 		.ascii	"\232\017\242\024\375\316\006*\264\255\"\373\226RY9\367"
 203      FDCE062A 
 203      B4AD22FB 
 203      96525939 
 203      F7
 204 0321 A6F957BA 		.ascii	"\246\371W\272K\274\355\261\3354\311\000\235\203\332"
 204      4BBCEDB1 
 204      DD34C900 
 204      9D83DA
 205 0330 D77BB9C2 		.ascii	"\327{\271\302\256Y\251\303{\264Y\227\361\203\264G\311"
 205      AE59A9C3 
 205      7BB45997 
 205      F183B447 
 205      C9
 206 0341 28F96F11 		.ascii	"(\371o\021F\330\371\362\031c\247\334W\350\350;\252\346"
 206      46D8F9F2 
 206      1963A7DC 
 206      57E8E83B 
 206      AAE6
 207 0353 607AC540 		.ascii	"`z\305@\205j^\003z\3008P\300\327\\\233\376\334\306\264"
 207      856A5E03 
 207      7AC03850 
 207      C0D75C9B 
 207      FEDCC6B4 
 208 0367 1E13D386 		.ascii	"\036\023\323\206BN\004;\250\261\302\212\230f\035\274"
 208      424E043B 
 208      A8B1C28A 
 208      98661DBC 
 209 0377 C7ACEB85 		.ascii	"\307\254\353\205Y\264t\232\310^{\355\312E\274\013\366"
 209      59B4749A 
 209      C85E7BED 
 209      CA45BC0B 
ARM GAS  /tmp/cc8siAbf.s 			page 16


 209      F6
 210 0388 047A2CA6 		.ascii	"\004z,\246{8SM2\214\355\335\371\302\342\304\312\032"
 210      7B38534D 
 210      328CEDDD 
 210      F9C2E2C4 
 210      CA1A
 211 039a 76350F09 		.ascii	"v5\017\011\026\207\376UXuz\202w*C\207\024\237\012N\246"
 211      1687FE55 
 211      58757A82 
 211      772A4387 
 211      149F0A4E 
 212 03af DF8023DC 		.ascii	"\337\200#\334\332\010}=>\373@\317Ld\372?\036\201]\230"
 212      DA087D3D 
 212      3EFB40CF 
 212      4C64FA3F 
 212      1E815D98 
 213 03c3 147DEF2B 		.ascii	"\024}\357+\013\275\316K\251/5\326\036u!U\026\005\027"
 213      0BBDCE4B 
 213      A92F35D6 
 213      1E752155 
 213      160517
 214 03d6 A817FF9D 		.ascii	"\250\027\377\235\355\205\200\377\246\323\370!zS\201"
 214      ED8580FF 
 214      A6D3F821 
 214      7A5381
 215 03e5 52E8BD73 		.ascii	"R\350\275s\345\251\3749\332\351%3n\3328\242\273\252"
 215      E5A9FC39 
 215      DAE92533 
 215      6EDA38A2 
 215      BBAA
 216 03f7 1730931D 		.ascii	"\0270\223\035\301\312|\001s\323\\\300\3342\372[\370"
 216      C1CA7C01 
 216      73D35CC0 
 216      DC32FA5B 
 216      F8
 217 0408 E20CF9B8 		.ascii	"\342\014\371\270T7P\242M\373\312u>\376\333&\037\213"
 217      543750A2 
 217      4DFBCA75 
 217      3EFEDB26 
 217      1F8B
 218 041a 8D3932BC 		.ascii	"\21592\274\365\334#\307\206\024\345Ee&\367\333\216n"
 218      F5DC23C7 
 218      8614E545 
 218      6526F7DB 
 218      8E6E
 219 042c ACD7673B 		.ascii	"\254\327g;\275N\352\263\257\315\356}c\271\234\357\376"
 219      BD4EEAB3 
 219      AFCDEE7D 
 219      63B99CEF 
 219      FE
 220 043d E3BC565F 		.ascii	"\343\274V_v\365p\371\012\363\200#\023\023f\023\267\255"
 220      76F570F9 
 220      0AF38023 
 220      13136613 
 220      B7AD
 221 044f 4C40AE7F 		.ascii	"L@\256\177\324g\310u5\03184\344u\260\334\237\262\313"
 221      D467C875 
ARM GAS  /tmp/cc8siAbf.s 			page 17


 221      35193834 
 221      E475B0DC 
 221      9FB2CB
 222 0462 9DA13326 		.ascii	"\235\2413&\277\313rO\232\311~kQ\314u\335\263\002\023"
 222      BFCB724F 
 222      9AC97E6B 
 222      51CC75DD 
 222      B30213
 223 0475 F029FC98 		.ascii	"\360)\374\230\243\022\311\242*\312\346\267\350\035\371"
 223      A312C9A2 
 223      2ACAE6B7 
 223      E81DF9
 224 0484 3D3A957D 		.ascii	"=:\225}\375V&\321E\253\223)8?8t\333\024\370\271\201"
 224      FD5626D1 
 224      45AB9329 
 224      383F3874 
 224      DB14F8B9 
 225 0499 08AD6953 		.ascii	"\010\255iSm\225yy\254\\\361\252\317\347\250\253\372"
 225      6D957979 
 225      AC5CF1AA 
 225      CFE7A8AB 
 225      FA
 226 04aa BA32BB5E 		.ascii	"\2722\273^\353\247uU>\002\231\377C\00484E]\231\376n"
 226      EBA77555 
 226      3E0299FF 
 226      43043834 
 226      455D99FE 
 227 04bf 65537757 		.ascii	"eSwWf`\214\236\261w\350\302+En\301\252\015`\257\262"
 227      66608C9E 
 227      B177E8C2 
 227      2B456EC1 
 227      AA0D60AF 
 228 04d4 602F3801 		.ascii	"`/8\001\263\253\230\000l7\013\266\3355\230\221\331\036"
 228      B3AB9800 
 228      6C370BB6 
 228      DD359891 
 228      D91E
 229 04e6 162CE504 		.ascii	"\026,\345\004\314\256b\002\260\343,X\237k0\226YGfh\335"
 229      CCAE6202 
 229      B0E32C58 
 229      9F6B3096 
 229      59476668 
 230 04fb F1F5A6B2 		.ascii	"\361\365\246\262\243\213\226\035\003\205\354\230]w\220"
 230      A38B961D 
 230      0385EC98 
 230      5D7790
 231 050a CBCE1F9E 		.ascii	"\313\316\037\236\204\033\012S\247\330M\020\360K\034"
 231      841B0A53 
 231      A7D84D10 
 231      F04B1C
 232 0519 49276C4C 		.ascii	"I'lL\247|\025\242\025!\034\032(\262\274.9 3\335\273"
 232      A77C15A2 
 232      15211C1A 
 232      28B2BC2E 
 232      392033DD 
 233 052e 6729BD2E 		.ascii	"g)\275.\365r$&\351\"s\365\217M\327\2459\270\270\031"
 233      F5722426 
ARM GAS  /tmp/cc8siAbf.s 			page 18


 233      E92273F5 
 233      8F4DD7A5 
 233      39B8B819 
 234 0542 ABD15AAF 		.ascii	"\253\321Z\257\323*\247\323\330s%\305\371lF\011\270\237"
 234      D32AA7D3 
 234      D87325C5 
 234      F96C4609 
 234      B89F
 235 0554 737BAEBC 		.ascii	"s{\256\274\302Y\237+e\006\322\372(R\271\2323\304@b\216"
 235      C2599F2B 
 235      6506D2FA 
 235      2852B99A 
 235      33C44062 
 236 0569 32B8BB0B 		.ascii	"2\270\273\013v\257\013\361#\344\204*\326sn\320I\316"
 236      76AF0BF1 
 236      23E4842A 
 236      D6736ED0 
 236      49CE
 237 057b 55DB7F0D 		.ascii	"U\333\177\015'\331\004~\327\011\330\217\354\277\206"
 237      27D9047E 
 237      D709D88F 
 237      ECBF86
 238 058a 532CD87B 		.ascii	"S,\330{\256\301\214\314N\263`\243N\300j\355\231\215"
 238      AEC18CCC 
 238      4EB360A3 
 238      4EC06AED 
 238      998D
 239 059c B0607F72 		.ascii	"\260`\177r\015fd6\312\202\375\331\011\330R{f\027X\260"
 239      0D666436 
 239      CA82FDD9 
 239      09D8527B 
 239      661758B0 
 240 05b0 4F5C8331 		.ascii	"O\\\2031\314\372:2\027\327\245\204|]O\222W)\344\373"
 240      CCFA3A32 
 240      17D7A584 
 240      7C5D4F92 
 240      5729E4FB 
 241 05c4 0AE3DE68 		.ascii	"\012\343\336h\030\306T\277\246a\002>\244}\026\205\262"
 241      18C654BF 
 241      A661023E 
 241      A47D1685 
 241      B2
 242 05d5 DEFC9743 		.ascii	"\336\374\227C\227\314\274\015(Zw\205M\020\340D\274\254"
 242      97CCBC0D 
 242      285A7785 
 242      4D10E044 
 242      BCAC
 243 05e7 0641A15B 		.ascii	"\006A\241[\306U'Ah\260\007\273\302\202\215\271\0063"
 243      C6552741 
 243      68B007BB 
 243      C2828DB9 
 243      0633
 244 05f9 46F4B342 		.ascii	"F\364\263BD\253M\001U\260qOg\2071\0015\017\023\360q"
 244      44AB4D01 
 244      55B0714F 
 244      67873101 
 244      350F13F0 
ARM GAS  /tmp/cc8siAbf.s 			page 19


 245 060e D71BCD3B 		.ascii	"\327\033\315;6\033M\241\226gG\201\333\343f\267\215,"
 245      361B4DA1 
 245      96674781 
 245      DBE366B7 
 245      8D2C
 246 0620 B46ED02E 		.ascii	"\264n\320.\210\035\231\317\355\375N\347\241\036\272"
 246      881D99CF 
 246      EDFD4EE7 
 246      A11EBA
 247 062f 97DFE661 		.ascii	"\227\337\346a\002\376\243k\277O\332\370\235\2774\031"
 247      02FEA36B 
 247      BF4FDAF8 
 247      9DBF3419 
 248 063f 4681DF5F 		.ascii	"F\201\337_\232\3756\262\320\272\353m\374\206B\356\372"
 248      9AFD36B2 
 248      D0BAEB6D 
 248      FC8642EE 
 248      FA
 249 0650 3A923B84 		.ascii	":\222;\204)\207\376\351\010\254\315&y\340\333\376\202"
 249      2987FEE9 
 249      08ACCD26 
 249      79E0DBFE 
 249      82
 250 0661 FDB6279D 		.ascii	"\375\266'\235db\017\266\240f\325\330\032T\3003\264H"
 250      64620FB6 
 250      A066D5D8 
 250      1A54C033 
 250      B448
 251 0673 CCE185A0 		.ascii	"\314\341\205\240;9\242\273\251\336Ju\017\325\333\251"
 251      3B39A2BB 
 251      A9DE4A75 
 251      0FD5DBA9 
 252 0683 DE41F500 		.ascii	"\336A\365\000\325\257R\275\233\352=T\247\251\336G\365"
 252      D5AF52BD 
 252      9BEA3D54 
 252      A7A9DE47 
 252      F5
 253 0694 7EAA0F50 		.ascii	"~\252\017P}\204\352cT\017R}\202\352ST\237\006\235o\246"
 253      7D84EA63 
 253      540F527D 
 253      82EA5354 
 253      9F069D6F 
 254 06a9 5BFA948D 		.ascii	"[\372\224\215\277\304\203\021\316\356n\277\357\036w"
 254      BFC48311 
 254      CEEE6EBF 
 254      EF1E77
 255 06b8 FB339CF9 		.ascii	"\3733\234\371n?|\356n\225\325\275\355\216\251\366\260"
 255      6E3F7CEE 
 255      6E95D5BD 
 255      ED8EA9F6 
 255      B0
 256 06c9 BE548D72 		.ascii	"\276T\215r\246{\312\373\234\325\275\355\362-\253{\333"
 256      A67BCAFB 
 256      9CD5BDED 
 256      F22DAB7B 
 256      DB
 257 06da 8E622726 		.ascii	"\216b'&>0\2338k4\201\236\250\251\361'\222~1\021\217"
ARM GAS  /tmp/cc8siAbf.s 			page 20


 257      3E309B38 
 257      6B34819E 
 257      A8A9F127 
 257      927E3111 
 258 06ef 275AFD6D 		.ascii	"'Z\375m\011IN\372\353BM\201\246-~\261ELH\021\376\271"
 258      09494EFA 
 258      EB424D81 
 258      A62D7EB1 
 258      454C4811 
 259 0705 9FC46B44 		.ascii	"\237\304kDT\305\223w|T\332\304G\332\242\261\304\306"
 259      54C59377 
 259      7C54DAC4 
 259      47DAA2B1 
 259      C4C6
 260 0717 F6484D9B 		.ascii	"\366HM\233 \3115\265\305\277\370\345\232\352\200C\240"
 260      20C935B5 
 260      C5BFF8E5 
 260      9AEA8043 
 260      A0
 261 0728 16345F05 		.ascii	"\0264_\005Jn\216\312b\013\277AJ\304\371hR\372\276\372"
 261      4A6E8ECA 
 261      620BBF41 
 261      4AC4F968 
 261      52FABEFA 
 262 073c 34B2252A 		.ascii	"4\262%*\347\237\225\205\327\006\370\006\241\2659\026"
 262      E79F9585 
 262      D706F806 
 262      A1B53916 
 263 074c 91E6CD36 		.ascii	"\221\346\3156\377\210jP\222\375\321V1\326\336\034\001"
 263      FF886A50 
 263      92FDD156 
 263      31D6DE1C 
 263      01
 264 075d 3B49B1A5 		.ascii	";I\261\245\031l\024\361+\023\211X\225\330\022\026[\032"
 264      196C14F1 
 264      2B138958 
 264      95D81216 
 264      5B1A
 265 076f 93412912 		.ascii	"\223A)\022\211\267\311\321Dk(\262\251=*E\232\177\340"
 265      89B7C9D1 
 265      446B28B2 
 265      A93D2A45 
 265      9A7FE0
 266 0782 6F4F4AF9 		.ascii	"oOJ\371i\255\221\315\261\350\257\375I\2719\332*\303"
 266      69AD91CD 
 266      B1E8AFFD 
 266      49B939DA 
 266      2AC3
 267 0794 ECD276F8 		.ascii	"\354\322v\370]\262\230\227\177l5,.\210-\321\326\210"
 267      5DB29897 
 267      7F6C352C 
 267      2E882DD1 
 267      D688
 268 07a6 9F6F8E6C 		.ascii	"\237o\216l\020\332c2/?\337\026I\302\264\357\361\274"
 268      10DA6332 
 268      2F3FDF16 
 268      49C2B4EF 
ARM GAS  /tmp/cc8siAbf.s 			page 21


 268      F1BC
 269 07b8 3EB14C73 		.ascii	">\261LsF\026\345-\217\316\025\027bQ\212l\024\2448/s"
 269      4616E52D 
 269      8FCE1517 
 269      62518A6C 
 269      14A4382F 
 270 07cd 522D27   		.ascii	"R-'"
 271 07d0 3DC5498B 		.ascii	"=\305I\2139i\211GzjqqL\342\345\226f\256M\364niKJ^\261"
 271      39698947 
 271      7A6A7171 
 271      4CE2E596 
 271      66AE4DF4 
 272 07ea 45909E34 		.ascii	"E\220\2364\000\202\021\177\240)\334\030.D!\236\214&"
 272      0082117F 
 272      A029DC18 
 272      2E44219E 
 272      8C26
 273 07fc F98DA208 		.ascii	"\371\215\242\010\300>\236\337\030\221\371`8x\237\020"
 273      C03E9EDF 
 273      1891F960 
 273      38789F10 
 274 080c DB2C3C9F 		.ascii	"\333,<\237\344\243\2551`\017\317\223\352\363\0129\321"
 274      E4A3AD31 
 274      600FCF93 
 274      EAF30A39 
 274      D1
 275 081d F6F486A0 		.ascii	"\366\364\206\240\224\020\303\262 >\373\020e\336\336"
 275      9410C3B2 
 275      203EFB10 
 275      65DEDE
 276 082c 1A4B88CF 		.ascii	"\032K\210\317\026\026\202yx\237:se]xU0\324X\364\234"
 276      16168279 
 276      789F3A73 
 276      655D7855 
 276      30D458F4 
 277 0841 106B8F2C 		.ascii	"\020k\217,\232\213\021Y}1\276\204x\032\016\254\344\237"
 277      9A8B1159 
 277      7D31BE84 
 277      781A0EAC 
 277      E49F
 278 0853 81881505 		.ascii	"\201\210\025\005\202k\032\353\275\215\201p\310\273\366"
 278      826B1AEB 
 278      BD8D8170 
 278      C8BBF6
 279 0862 99A74345 		.ascii	"\231\247CEu\215\241@\310\023\006\011\004B%$\222Ky\331"
 279      758DA140 
 279      C8130609 
 279      04422524 
 279      924B79D9 
 280 0876 A7C6147A 		.ascii	"\247\306\024z\236pC\260(\334@\206\007V\203j \252\036"
 280      9E7043B0 
 280      28DC4086 
 280      0756836A 
 280      20AA1E
 281 0889 545153D3 		.ascii	"TQS\323\352\272\220w%Qu\360\337\023\\\035\362\324\203"
 281      EABA9077 
 281      255175F0 
ARM GAS  /tmp/cc8siAbf.s 			page 22


 281      DF135C1D 
 281      F2D483
 282 089c D4D587BC 		.ascii	"\324\325\207\274\360.\344m\014\327\205|\241U\341U\241"
 282      F02EE46D 
 282      0CD7857C 
 282      A155E155 
 282      A1
 283 08ad B5ABEA6B 		.ascii	"\265\253\352k\301p] 4\217\272d\360\322\227\177\364?"
 283      C1705D20 
 283      348FBA64 
 283      F0D2977F 
 283      F43F
 284 08bf 4559DB24 		.ascii	"EY\333$"
 285              		.text
 286              		.section	.gnu.lto_.symtab.ea27d1e65d892695,"",%progbits
 287 0000 5356435F 		.ascii	"SVC_Handler\000\000\000\000\000\000\000\000\000\000"
 287      48616E64 
 287      6C657200 
 287      00000000 
 287      00000000 
 288 0015 0000AB00 		.ascii	"\000\000\253\000\000\000_port_irq_epilogue\000\000\000"
 288      00005F70 
 288      6F72745F 
 288      6972715F 
 288      6570696C 
 289 0030 00000000 		.ascii	"\000\000\000\000\000\000\000\000\000\256\000\000\000"
 289      00000000 
 289      00AE0000 
 289      00
 290 003d 5F706F72 		.ascii	"_port_switch_from_isr\000\000\002\000\000\000\000\000"
 290      745F7377 
 290      69746368 
 290      5F66726F 
 290      6D5F6973 
 291 005a 00000000 		.ascii	"\000\000\000\000\246\000\000\000_port_exit_from_isr"
 291      A6000000 
 291      5F706F72 
 291      745F6578 
 291      69745F66 
 292 0075 00000200 		.ascii	"\000\000\002\000\000\000\000\000\000\000\000\000\251"
 292      00000000 
 292      00000000 
 292      A9
 293 0082 00000063 		.ascii	"\000\000\000chSchIsPreemptionRequired\000\000\002\000"
 293      68536368 
 293      49735072 
 293      65656D70 
 293      74696F6E 
 294 00a2 00000000 		.ascii	"\000\000\000\000\000\000\000\000\261\000\000\000"
 294      00000000 
 294      B1000000 
 295              		.text
 296              		.section	.gnu.lto_.opts,"",%progbits
 297 0000 272D6D63 		.ascii	"'-mcpu=cortex-m3' '-mno-thumb-interwork' '-mthumb' "
 297      70753D63 
 297      6F727465 
 297      782D6D33 
ARM GAS  /tmp/cc8siAbf.s 			page 23


 297      2720272D 
 298 0033 272D6767 		.ascii	"'-ggdb' '-O2' '-fomit-frame-pointer' '-falign-funct"
 298      64622720 
 298      272D4F32 
 298      2720272D 
 298      666F6D69 
 299 0066 696F6E73 		.ascii	"ions=16' '-ffunction-sections' '-fdata-sections' '-"
 299      3D313627 
 299      20272D66 
 299      66756E63 
 299      74696F6E 
 300 0099 666E6F2D 		.ascii	"fno-common' '-flto'\000"
 300      636F6D6D 
 300      6F6E2720 
 300      272D666C 
 300      746F2700 
 301              		.text
 302              		.cfi_sections	.debug_frame
 303              		.section	.text.SVC_Handler,"ax",%progbits
 304              		.align	2
 305              		.p2align 4,,15
 306              		.global	SVC_Handler
 307              		.thumb
 308              		.thumb_func
 309              		.type	SVC_Handler, %function
 310              	SVC_Handler:
 311              	.LFB188:
 312              		.file 1 "../os/common/ports/ARMCMx/chcore_v7m.c"
 313              		.loc 1 62 0
 314              		.cfi_startproc
 315              		@ args = 0, pretend = 0, frame = 0
 316              		@ frame_needed = 0, uses_anonymous_args = 0
 317              		@ link register save eliminated.
 318              	.LBB51:
 319              	.LBB52:
 320              		.file 2 "../os/common/ext/CMSIS/include/cmsis_gcc.h"
 321              		.loc 2 152 0
 322              	@ 152 "../os/common/ext/CMSIS/include/cmsis_gcc.h" 1
 323 0000 EFF30983 		MRS r3, psp
 324              	
 325              	@ 0 "" 2
 326              	.LVL0:
 327              		.thumb
 328              	.LBE52:
 329              	.LBE51:
 330              		.loc 1 76 0
 331 0004 2033     		adds	r3, r3, #32
 332              	.LVL1:
 333              	.LBB53:
 334              	.LBB54:
 335              		.loc 2 164 0
 336              	@ 164 "../os/common/ext/CMSIS/include/cmsis_gcc.h" 1
 337 0006 83F30988 		MSR psp, r3
 338              	
 339              	@ 0 "" 2
 340              	.LVL2:
 341              		.thumb
ARM GAS  /tmp/cc8siAbf.s 			page 24


 342              	.LBE54:
 343              	.LBE53:
 344              	.LBB55:
 345              	.LBB56:
 346              	.LBB57:
 347              	.LBB58:
 348              		.loc 2 264 0
 349 000a 0023     		movs	r3, #0
 350              	.LVL3:
 351              	@ 264 "../os/common/ext/CMSIS/include/cmsis_gcc.h" 1
 352 000c 83F31188 		MSR basepri, r3
 353              	@ 0 "" 2
 354              		.thumb
 355 0010 7047     		bx	lr
 356              	.LBE58:
 357              	.LBE57:
 358              	.LBE56:
 359              	.LBE55:
 360              		.cfi_endproc
 361              	.LFE188:
 362              		.size	SVC_Handler, .-SVC_Handler
 363 0012 00BFAFF3 		.section	.text._port_irq_epilogue,"ax",%progbits
 363      0080AFF3 
 363      0080AFF3 
 363      0080
 364              		.align	2
 365              		.p2align 4,,15
 366              		.global	_port_irq_epilogue
 367              		.thumb
 368              		.thumb_func
 369              		.type	_port_irq_epilogue, %function
 370              	_port_irq_epilogue:
 371              	.LFB189:
 372              		.loc 1 122 0
 373              		.cfi_startproc
 374              		@ args = 0, pretend = 0, frame = 0
 375              		@ frame_needed = 0, uses_anonymous_args = 0
 376              	.LVL4:
 377 0000 10B5     		push	{r4, lr}
 378              		.cfi_def_cfa_offset 8
 379              		.cfi_offset 4, -8
 380              		.cfi_offset 14, -4
 381              	.LBB83:
 382              	.LBB84:
 383              	.LBB85:
 384              	.LBB86:
 385              		.loc 2 264 0
 386 0002 2023     		movs	r3, #32
 387              	@ 264 "../os/common/ext/CMSIS/include/cmsis_gcc.h" 1
 388 0004 83F31188 		MSR basepri, r3
 389              	@ 0 "" 2
 390              		.thumb
 391              	.LBE86:
 392              	.LBE85:
 393              	.LBE84:
 394              	.LBE83:
 395              		.loc 1 125 0
ARM GAS  /tmp/cc8siAbf.s 			page 25


 396 0008 4FF46D43 		mov	r3, #60672
 397 000c CEF20003 		movt	r3, 57344
 398 0010 5B68     		ldr	r3, [r3, #4]
 399 0012 13F40063 		ands	r3, r3, #2048
 400 0016 02D1     		bne	.L7
 401              	.LVL5:
 402              	.LBB87:
 403              	.LBB88:
 404              	.LBB89:
 405              	.LBB90:
 406              		.loc 2 264 0
 407              	@ 264 "../os/common/ext/CMSIS/include/cmsis_gcc.h" 1
 408 0018 83F31188 		MSR basepri, r3
 409              	@ 0 "" 2
 410              		.thumb
 411 001c 10BD     		pop	{r4, pc}
 412              	.LVL6:
 413              	.L7:
 414              	.LBE90:
 415              	.LBE89:
 416              	.LBE88:
 417              	.LBE87:
 418              	.LBB91:
 419              	.LBB92:
 420              	.LBB93:
 421              	.LBB94:
 422              		.loc 2 152 0
 423              	@ 152 "../os/common/ext/CMSIS/include/cmsis_gcc.h" 1
 424 001e EFF30984 		MRS r4, psp
 425              	
 426              	@ 0 "" 2
 427              	.LVL7:
 428              		.thumb
 429              	.LBE94:
 430              	.LBE93:
 431              		.loc 1 141 0
 432 0022 4FF08073 		mov	r3, #16777216
 433 0026 44F8043C 		str	r3, [r4, #-4]
 434              	.LVL8:
 435              		.loc 1 138 0
 436 002a A4F12003 		sub	r3, r4, #32
 437              	.LVL9:
 438              	.LBB95:
 439              	.LBB96:
 440              		.loc 2 164 0
 441              	@ 164 "../os/common/ext/CMSIS/include/cmsis_gcc.h" 1
 442 002e 83F30988 		MSR psp, r3
 443              	
 444              	@ 0 "" 2
 445              		.thumb
 446              	.LBE96:
 447              	.LBE95:
 448              		.loc 1 151 0
 449 0032 FFF7FEFF 		bl	chSchIsPreemptionRequired
 450              	.LVL10:
 451 0036 30B1     		cbz	r0, .L4
 452              		.loc 1 153 0
ARM GAS  /tmp/cc8siAbf.s 			page 26


 453 0038 40F20003 		movw	r3, #:lower16:_port_switch_from_isr
 454 003c C0F20003 		movt	r3, #:upper16:_port_switch_from_isr
 455 0040 44F8083C 		str	r3, [r4, #-8]
 456 0044 10BD     		pop	{r4, pc}
 457              	.LVL11:
 458              	.L4:
 459              		.loc 1 158 0
 460 0046 40F20003 		movw	r3, #:lower16:_port_exit_from_isr
 461 004a C0F20003 		movt	r3, #:upper16:_port_exit_from_isr
 462 004e 44F8083C 		str	r3, [r4, #-8]
 463 0052 10BD     		pop	{r4, pc}
 464              	.LBE92:
 465              	.LBE91:
 466              		.cfi_endproc
 467              	.LFE189:
 468              		.size	_port_irq_epilogue, .-_port_irq_epilogue
 469 0054 AFF30080 		.text
 469      AFF30080 
 469      AFF30080 
 470              	.Letext0:
 471              		.file 3 "/usr/include/newlib/machine/_default_types.h"
 472              		.file 4 "/usr/include/newlib/stdint.h"
 473              		.file 5 "../os/common/ports/ARMCMx/compilers/GCC/chtypes.h"
 474              		.file 6 "../os/rt/include/chsystypes.h"
 475              		.file 7 "../os/rt/include/chschd.h"
 476              		.file 8 "../os/common/ext/CMSIS/include/core_cm3.h"
 477              		.file 9 "../os/common/ports/ARMCMx/chcore.h"
 478              		.file 10 "../os/common/ports/ARMCMx/chcore_v7m.h"
 479              		.file 11 "../os/rt/include/chsem.h"
 480              		.file 12 "../os/rt/include/chmtx.h"
 481              		.section	.debug_info,"",%progbits
 482              	.Ldebug_info0:
 483 0000 250A0000 		.4byte	0xa25
 484 0004 0400     		.2byte	0x4
 485 0006 00000000 		.4byte	.Ldebug_abbrev0
 486 000a 04       		.byte	0x4
 487 000b 01       		.uleb128 0x1
 488 000c AA020000 		.4byte	.LASF119
 489 0010 01       		.byte	0x1
 490 0011 C4030000 		.4byte	.LASF120
 491 0015 1B040000 		.4byte	.LASF121
 492 0019 00000000 		.4byte	.Ldebug_ranges0+0
 493 001d 00000000 		.4byte	0
 494 0021 00000000 		.4byte	.Ldebug_line0
 495 0025 02       		.uleb128 0x2
 496 0026 04       		.byte	0x4
 497 0027 05       		.byte	0x5
 498 0028 696E7400 		.ascii	"int\000"
 499 002c 03       		.uleb128 0x3
 500 002d 04       		.byte	0x4
 501 002e 07       		.byte	0x7
 502 002f 48000000 		.4byte	.LASF0
 503 0033 03       		.uleb128 0x3
 504 0034 01       		.byte	0x1
 505 0035 06       		.byte	0x6
 506 0036 49050000 		.4byte	.LASF1
 507 003a 04       		.uleb128 0x4
ARM GAS  /tmp/cc8siAbf.s 			page 27


 508 003b 45040000 		.4byte	.LASF4
 509 003f 03       		.byte	0x3
 510 0040 1C       		.byte	0x1c
 511 0041 45000000 		.4byte	0x45
 512 0045 03       		.uleb128 0x3
 513 0046 01       		.byte	0x1
 514 0047 08       		.byte	0x8
 515 0048 D9040000 		.4byte	.LASF2
 516 004c 03       		.uleb128 0x3
 517 004d 02       		.byte	0x2
 518 004e 05       		.byte	0x5
 519 004f 93030000 		.4byte	.LASF3
 520 0053 04       		.uleb128 0x4
 521 0054 7E010000 		.4byte	.LASF5
 522 0058 03       		.byte	0x3
 523 0059 26       		.byte	0x26
 524 005a 5E000000 		.4byte	0x5e
 525 005e 03       		.uleb128 0x3
 526 005f 02       		.byte	0x2
 527 0060 07       		.byte	0x7
 528 0061 5B050000 		.4byte	.LASF6
 529 0065 04       		.uleb128 0x4
 530 0066 6E000000 		.4byte	.LASF7
 531 006a 03       		.byte	0x3
 532 006b 37       		.byte	0x37
 533 006c 70000000 		.4byte	0x70
 534 0070 03       		.uleb128 0x3
 535 0071 04       		.byte	0x4
 536 0072 05       		.byte	0x5
 537 0073 A2030000 		.4byte	.LASF8
 538 0077 04       		.uleb128 0x4
 539 0078 E7040000 		.4byte	.LASF9
 540 007c 03       		.byte	0x3
 541 007d 38       		.byte	0x38
 542 007e 82000000 		.4byte	0x82
 543 0082 03       		.uleb128 0x3
 544 0083 04       		.byte	0x4
 545 0084 07       		.byte	0x7
 546 0085 89040000 		.4byte	.LASF10
 547 0089 03       		.uleb128 0x3
 548 008a 08       		.byte	0x8
 549 008b 05       		.byte	0x5
 550 008c 81020000 		.4byte	.LASF11
 551 0090 04       		.uleb128 0x4
 552 0091 FE010000 		.4byte	.LASF12
 553 0095 03       		.byte	0x3
 554 0096 4E       		.byte	0x4e
 555 0097 9B000000 		.4byte	0x9b
 556 009b 03       		.uleb128 0x3
 557 009c 08       		.byte	0x8
 558 009d 07       		.byte	0x7
 559 009e 4D010000 		.4byte	.LASF13
 560 00a2 04       		.uleb128 0x4
 561 00a3 57020000 		.4byte	.LASF14
 562 00a7 04       		.byte	0x4
 563 00a8 2A       		.byte	0x2a
 564 00a9 3A000000 		.4byte	0x3a
ARM GAS  /tmp/cc8siAbf.s 			page 28


 565 00ad 04       		.uleb128 0x4
 566 00ae 6A030000 		.4byte	.LASF15
 567 00b2 04       		.byte	0x4
 568 00b3 36       		.byte	0x36
 569 00b4 53000000 		.4byte	0x53
 570 00b8 04       		.uleb128 0x4
 571 00b9 AE040000 		.4byte	.LASF16
 572 00bd 04       		.byte	0x4
 573 00be 41       		.byte	0x41
 574 00bf 65000000 		.4byte	0x65
 575 00c3 04       		.uleb128 0x4
 576 00c4 FE000000 		.4byte	.LASF17
 577 00c8 04       		.byte	0x4
 578 00c9 42       		.byte	0x42
 579 00ca 77000000 		.4byte	0x77
 580 00ce 04       		.uleb128 0x4
 581 00cf 0C040000 		.4byte	.LASF18
 582 00d3 04       		.byte	0x4
 583 00d4 4E       		.byte	0x4e
 584 00d5 90000000 		.4byte	0x90
 585 00d9 04       		.uleb128 0x4
 586 00da 57030000 		.4byte	.LASF19
 587 00de 05       		.byte	0x5
 588 00df 3C       		.byte	0x3c
 589 00e0 A2000000 		.4byte	0xa2
 590 00e4 04       		.uleb128 0x4
 591 00e5 48020000 		.4byte	.LASF20
 592 00e9 05       		.byte	0x5
 593 00ea 3D       		.byte	0x3d
 594 00eb A2000000 		.4byte	0xa2
 595 00ef 04       		.uleb128 0x4
 596 00f0 81040000 		.4byte	.LASF21
 597 00f4 05       		.byte	0x5
 598 00f5 3E       		.byte	0x3e
 599 00f6 A2000000 		.4byte	0xa2
 600 00fa 04       		.uleb128 0x4
 601 00fb 2D010000 		.4byte	.LASF22
 602 00ff 05       		.byte	0x5
 603 0100 40       		.byte	0x40
 604 0101 C3000000 		.4byte	0xc3
 605 0105 04       		.uleb128 0x4
 606 0106 8F020000 		.4byte	.LASF23
 607 010a 05       		.byte	0x5
 608 010b 41       		.byte	0x41
 609 010c B8000000 		.4byte	0xb8
 610 0110 04       		.uleb128 0x4
 611 0111 14010000 		.4byte	.LASF24
 612 0115 05       		.byte	0x5
 613 0116 43       		.byte	0x43
 614 0117 C3000000 		.4byte	0xc3
 615 011b 04       		.uleb128 0x4
 616 011c 89010000 		.4byte	.LASF25
 617 0120 05       		.byte	0x5
 618 0121 45       		.byte	0x45
 619 0122 B8000000 		.4byte	0xb8
 620 0126 04       		.uleb128 0x4
 621 0127 2C000000 		.4byte	.LASF26
ARM GAS  /tmp/cc8siAbf.s 			page 29


 622 012b 06       		.byte	0x6
 623 012c 35       		.byte	0x35
 624 012d AD000000 		.4byte	0xad
 625 0131 04       		.uleb128 0x4
 626 0132 D9010000 		.4byte	.LASF27
 627 0136 06       		.byte	0x6
 628 0137 3F       		.byte	0x3f
 629 0138 3C010000 		.4byte	0x13c
 630 013c 05       		.uleb128 0x5
 631 013d 68020000 		.4byte	.LASF45
 632 0141 44       		.byte	0x44
 633 0142 07       		.byte	0x7
 634 0143 9A       		.byte	0x9a
 635 0144 1A020000 		.4byte	0x21a
 636 0148 06       		.uleb128 0x6
 637 0149 A8040000 		.4byte	.LASF28
 638 014d 07       		.byte	0x7
 639 014e 9B       		.byte	0x9b
 640 014f 4F020000 		.4byte	0x24f
 641 0153 00       		.byte	0
 642 0154 06       		.uleb128 0x6
 643 0155 1F020000 		.4byte	.LASF29
 644 0159 07       		.byte	0x7
 645 015a 9C       		.byte	0x9c
 646 015b FA000000 		.4byte	0xfa
 647 015f 08       		.byte	0x8
 648 0160 07       		.uleb128 0x7
 649 0161 63747800 		.ascii	"ctx\000"
 650 0165 07       		.byte	0x7
 651 0166 9D       		.byte	0x9d
 652 0167 CF050000 		.4byte	0x5cf
 653 016b 0C       		.byte	0xc
 654 016c 06       		.uleb128 0x6
 655 016d BE040000 		.4byte	.LASF30
 656 0171 07       		.byte	0x7
 657 0172 9F       		.byte	0x9f
 658 0173 25020000 		.4byte	0x225
 659 0177 10       		.byte	0x10
 660 0178 06       		.uleb128 0x6
 661 0179 92050000 		.4byte	.LASF31
 662 017d 07       		.byte	0x7
 663 017e A0       		.byte	0xa0
 664 017f 25020000 		.4byte	0x225
 665 0183 14       		.byte	0x14
 666 0184 06       		.uleb128 0x6
 667 0185 64040000 		.4byte	.LASF32
 668 0189 07       		.byte	0x7
 669 018a A7       		.byte	0xa7
 670 018b A5070000 		.4byte	0x7a5
 671 018f 18       		.byte	0x18
 672 0190 06       		.uleb128 0x6
 673 0191 3C020000 		.4byte	.LASF33
 674 0195 07       		.byte	0x7
 675 0196 B0       		.byte	0xb0
 676 0197 B7070000 		.4byte	0x7b7
 677 019b 1C       		.byte	0x1c
 678 019c 06       		.uleb128 0x6
ARM GAS  /tmp/cc8siAbf.s 			page 30


 679 019d 23050000 		.4byte	.LASF34
 680 01a1 07       		.byte	0x7
 681 01a2 B5       		.byte	0xb5
 682 01a3 E4000000 		.4byte	0xe4
 683 01a7 20       		.byte	0x20
 684 01a8 06       		.uleb128 0x6
 685 01a9 26000000 		.4byte	.LASF35
 686 01ad 07       		.byte	0x7
 687 01ae B9       		.byte	0xb9
 688 01af D9000000 		.4byte	0xd9
 689 01b3 21       		.byte	0x21
 690 01b4 06       		.uleb128 0x6
 691 01b5 78000000 		.4byte	.LASF36
 692 01b9 07       		.byte	0x7
 693 01ba BE       		.byte	0xbe
 694 01bb EF000000 		.4byte	0xef
 695 01bf 22       		.byte	0x22
 696 01c0 08       		.uleb128 0x8
 697 01c1 7500     		.ascii	"u\000"
 698 01c3 07       		.byte	0x7
 699 01c4 0F01     		.2byte	0x10f
 700 01c6 DA060000 		.4byte	0x6da
 701 01ca 24       		.byte	0x24
 702 01cb 09       		.uleb128 0x9
 703 01cc F2040000 		.4byte	.LASF37
 704 01d0 07       		.byte	0x7
 705 01d1 1401     		.2byte	0x114
 706 01d3 2B020000 		.4byte	0x22b
 707 01d7 28       		.byte	0x28
 708 01d8 09       		.uleb128 0x9
 709 01d9 5F020000 		.4byte	.LASF38
 710 01dd 07       		.byte	0x7
 711 01de 1A01     		.2byte	0x11a
 712 01e0 4F020000 		.4byte	0x24f
 713 01e4 2C       		.byte	0x2c
 714 01e5 09       		.uleb128 0x9
 715 01e6 3F000000 		.4byte	.LASF39
 716 01ea 07       		.byte	0x7
 717 01eb 2001     		.2byte	0x120
 718 01ed 10010000 		.4byte	0x110
 719 01f1 34       		.byte	0x34
 720 01f2 09       		.uleb128 0x9
 721 01f3 BA010000 		.4byte	.LASF40
 722 01f7 07       		.byte	0x7
 723 01f8 2701     		.2byte	0x127
 724 01fa 9F070000 		.4byte	0x79f
 725 01fe 38       		.byte	0x38
 726 01ff 09       		.uleb128 0x9
 727 0200 36000000 		.4byte	.LASF41
 728 0204 07       		.byte	0x7
 729 0205 2B01     		.2byte	0x12b
 730 0207 FA000000 		.4byte	0xfa
 731 020b 3C       		.byte	0x3c
 732 020c 09       		.uleb128 0x9
 733 020d A1050000 		.4byte	.LASF42
 734 0211 07       		.byte	0x7
 735 0212 3201     		.2byte	0x132
ARM GAS  /tmp/cc8siAbf.s 			page 31


 736 0214 02030000 		.4byte	0x302
 737 0218 40       		.byte	0x40
 738 0219 00       		.byte	0
 739 021a 04       		.uleb128 0x4
 740 021b 29020000 		.4byte	.LASF43
 741 021f 06       		.byte	0x6
 742 0220 44       		.byte	0x44
 743 0221 25020000 		.4byte	0x225
 744 0225 0A       		.uleb128 0xa
 745 0226 04       		.byte	0x4
 746 0227 31010000 		.4byte	0x131
 747 022b 04       		.uleb128 0x4
 748 022c 5A000000 		.4byte	.LASF44
 749 0230 06       		.byte	0x6
 750 0231 49       		.byte	0x49
 751 0232 36020000 		.4byte	0x236
 752 0236 05       		.uleb128 0x5
 753 0237 00000000 		.4byte	.LASF46
 754 023b 04       		.byte	0x4
 755 023c 07       		.byte	0x7
 756 023d 88       		.byte	0x88
 757 023e 4F020000 		.4byte	0x24f
 758 0242 06       		.uleb128 0x6
 759 0243 55000000 		.4byte	.LASF47
 760 0247 07       		.byte	0x7
 761 0248 89       		.byte	0x89
 762 0249 25020000 		.4byte	0x225
 763 024d 00       		.byte	0
 764 024e 00       		.byte	0
 765 024f 04       		.uleb128 0x4
 766 0250 95010000 		.4byte	.LASF48
 767 0254 06       		.byte	0x6
 768 0255 50       		.byte	0x50
 769 0256 5A020000 		.4byte	0x25a
 770 025a 05       		.uleb128 0x5
 771 025b D4000000 		.4byte	.LASF49
 772 025f 08       		.byte	0x8
 773 0260 07       		.byte	0x7
 774 0261 8F       		.byte	0x8f
 775 0262 7F020000 		.4byte	0x27f
 776 0266 06       		.uleb128 0x6
 777 0267 55000000 		.4byte	.LASF47
 778 026b 07       		.byte	0x7
 779 026c 90       		.byte	0x90
 780 026d 25020000 		.4byte	0x225
 781 0271 00       		.byte	0
 782 0272 06       		.uleb128 0x6
 783 0273 CF000000 		.4byte	.LASF50
 784 0277 07       		.byte	0x7
 785 0278 91       		.byte	0x91
 786 0279 25020000 		.4byte	0x225
 787 027d 04       		.byte	0x4
 788 027e 00       		.byte	0
 789 027f 04       		.uleb128 0x4
 790 0280 9B040000 		.4byte	.LASF51
 791 0284 06       		.byte	0x6
 792 0285 57       		.byte	0x57
ARM GAS  /tmp/cc8siAbf.s 			page 32


 793 0286 8A020000 		.4byte	0x28a
 794 028a 0B       		.uleb128 0xb
 795 028b B5000000 		.4byte	.LASF52
 796 028f 1C       		.byte	0x1c
 797 0290 07       		.byte	0x7
 798 0291 6A01     		.2byte	0x16a
 799 0293 E6020000 		.4byte	0x2e6
 800 0297 09       		.uleb128 0x9
 801 0298 A8040000 		.4byte	.LASF28
 802 029c 07       		.byte	0x7
 803 029d 6B01     		.2byte	0x16b
 804 029f 4F020000 		.4byte	0x24f
 805 02a3 00       		.byte	0
 806 02a4 09       		.uleb128 0x9
 807 02a5 1F020000 		.4byte	.LASF29
 808 02a9 07       		.byte	0x7
 809 02aa 6C01     		.2byte	0x16c
 810 02ac FA000000 		.4byte	0xfa
 811 02b0 08       		.byte	0x8
 812 02b1 08       		.uleb128 0x8
 813 02b2 63747800 		.ascii	"ctx\000"
 814 02b6 07       		.byte	0x7
 815 02b7 6E01     		.2byte	0x16e
 816 02b9 CF050000 		.4byte	0x5cf
 817 02bd 0C       		.byte	0xc
 818 02be 09       		.uleb128 0x9
 819 02bf BE040000 		.4byte	.LASF30
 820 02c3 07       		.byte	0x7
 821 02c4 7101     		.2byte	0x171
 822 02c6 25020000 		.4byte	0x225
 823 02ca 10       		.byte	0x10
 824 02cb 09       		.uleb128 0x9
 825 02cc 92050000 		.4byte	.LASF31
 826 02d0 07       		.byte	0x7
 827 02d1 7201     		.2byte	0x172
 828 02d3 25020000 		.4byte	0x225
 829 02d7 14       		.byte	0x14
 830 02d8 09       		.uleb128 0x9
 831 02d9 79050000 		.4byte	.LASF53
 832 02dd 07       		.byte	0x7
 833 02de 7501     		.2byte	0x175
 834 02e0 25020000 		.4byte	0x225
 835 02e4 18       		.byte	0x18
 836 02e5 00       		.byte	0
 837 02e6 04       		.uleb128 0x4
 838 02e7 E5000000 		.4byte	.LASF54
 839 02eb 06       		.byte	0x6
 840 02ec 5C       		.byte	0x5c
 841 02ed F1020000 		.4byte	0x2f1
 842 02f1 0A       		.uleb128 0xa
 843 02f2 04       		.byte	0x4
 844 02f3 F7020000 		.4byte	0x2f7
 845 02f7 0C       		.uleb128 0xc
 846 02f8 02030000 		.4byte	0x302
 847 02fc 0D       		.uleb128 0xd
 848 02fd 02030000 		.4byte	0x302
 849 0301 00       		.byte	0
ARM GAS  /tmp/cc8siAbf.s 			page 33


 850 0302 0E       		.uleb128 0xe
 851 0303 04       		.byte	0x4
 852 0304 04       		.uleb128 0x4
 853 0305 9A020000 		.4byte	.LASF55
 854 0309 06       		.byte	0x6
 855 030a 61       		.byte	0x61
 856 030b 0F030000 		.4byte	0x30f
 857 030f 0B       		.uleb128 0xb
 858 0310 35010000 		.4byte	.LASF56
 859 0314 14       		.byte	0x14
 860 0315 07       		.byte	0x7
 861 0316 4501     		.2byte	0x145
 862 0318 5E030000 		.4byte	0x35e
 863 031c 09       		.uleb128 0x9
 864 031d 55000000 		.4byte	.LASF47
 865 0321 07       		.byte	0x7
 866 0322 4601     		.2byte	0x146
 867 0324 BD070000 		.4byte	0x7bd
 868 0328 00       		.byte	0
 869 0329 09       		.uleb128 0x9
 870 032a CF000000 		.4byte	.LASF50
 871 032e 07       		.byte	0x7
 872 032f 4701     		.2byte	0x147
 873 0331 BD070000 		.4byte	0x7bd
 874 0335 04       		.byte	0x4
 875 0336 09       		.uleb128 0x9
 876 0337 55050000 		.4byte	.LASF57
 877 033b 07       		.byte	0x7
 878 033c 4801     		.2byte	0x148
 879 033e 26010000 		.4byte	0x126
 880 0342 08       		.byte	0x8
 881 0343 09       		.uleb128 0x9
 882 0344 C3000000 		.4byte	.LASF58
 883 0348 07       		.byte	0x7
 884 0349 4901     		.2byte	0x149
 885 034b E6020000 		.4byte	0x2e6
 886 034f 0C       		.byte	0xc
 887 0350 08       		.uleb128 0x8
 888 0351 70617200 		.ascii	"par\000"
 889 0355 07       		.byte	0x7
 890 0356 4B01     		.2byte	0x14b
 891 0358 02030000 		.4byte	0x302
 892 035c 10       		.byte	0x10
 893 035d 00       		.byte	0
 894 035e 04       		.uleb128 0x4
 895 035f FA040000 		.4byte	.LASF59
 896 0363 06       		.byte	0x6
 897 0364 66       		.byte	0x66
 898 0365 69030000 		.4byte	0x369
 899 0369 0B       		.uleb128 0xb
 900 036a C2010000 		.4byte	.LASF60
 901 036e 0C       		.byte	0xc
 902 036f 07       		.byte	0x7
 903 0370 5501     		.2byte	0x155
 904 0372 AB030000 		.4byte	0x3ab
 905 0376 09       		.uleb128 0x9
 906 0377 55000000 		.4byte	.LASF47
ARM GAS  /tmp/cc8siAbf.s 			page 34


 907 037b 07       		.byte	0x7
 908 037c 5601     		.2byte	0x156
 909 037e BD070000 		.4byte	0x7bd
 910 0382 00       		.byte	0
 911 0383 09       		.uleb128 0x9
 912 0384 CF000000 		.4byte	.LASF50
 913 0388 07       		.byte	0x7
 914 0389 5801     		.2byte	0x158
 915 038b BD070000 		.4byte	0x7bd
 916 038f 04       		.byte	0x4
 917 0390 09       		.uleb128 0x9
 918 0391 55050000 		.4byte	.LASF57
 919 0395 07       		.byte	0x7
 920 0396 5A01     		.2byte	0x15a
 921 0398 26010000 		.4byte	0x126
 922 039c 08       		.byte	0x8
 923 039d 09       		.uleb128 0x9
 924 039e 03040000 		.4byte	.LASF61
 925 03a2 07       		.byte	0x7
 926 03a3 6201     		.2byte	0x162
 927 03a5 26010000 		.4byte	0x126
 928 03a9 0A       		.byte	0xa
 929 03aa 00       		.byte	0
 930 03ab 04       		.uleb128 0x4
 931 03ac 72020000 		.4byte	.LASF62
 932 03b0 06       		.byte	0x6
 933 03b1 6B       		.byte	0x6b
 934 03b2 B6030000 		.4byte	0x3b6
 935 03b6 0B       		.uleb128 0xb
 936 03b7 EE000000 		.4byte	.LASF63
 937 03bb 04       		.byte	0x4
 938 03bc 07       		.byte	0x7
 939 03bd 7C01     		.2byte	0x17c
 940 03bf D1030000 		.4byte	0x3d1
 941 03c3 09       		.uleb128 0x9
 942 03c4 4D030000 		.4byte	.LASF64
 943 03c8 07       		.byte	0x7
 944 03c9 8401     		.2byte	0x184
 945 03cb C3070000 		.4byte	0x7c3
 946 03cf 00       		.byte	0
 947 03d0 00       		.byte	0
 948 03d1 04       		.uleb128 0x4
 949 03d2 30050000 		.4byte	.LASF65
 950 03d6 06       		.byte	0x6
 951 03d7 70       		.byte	0x70
 952 03d8 DC030000 		.4byte	0x3dc
 953 03dc 0B       		.uleb128 0xb
 954 03dd EB030000 		.4byte	.LASF66
 955 03e1 70       		.byte	0x70
 956 03e2 07       		.byte	0x7
 957 03e3 9C01     		.2byte	0x19c
 958 03e5 1E040000 		.4byte	0x41e
 959 03e9 09       		.uleb128 0x9
 960 03ea 15040000 		.4byte	.LASF67
 961 03ee 07       		.byte	0x7
 962 03ef A001     		.2byte	0x1a0
 963 03f1 7F020000 		.4byte	0x27f
ARM GAS  /tmp/cc8siAbf.s 			page 35


 964 03f5 00       		.byte	0
 965 03f6 09       		.uleb128 0x9
 966 03f7 8E000000 		.4byte	.LASF68
 967 03fb 07       		.byte	0x7
 968 03fc A401     		.2byte	0x1a4
 969 03fe 5E030000 		.4byte	0x35e
 970 0402 1C       		.byte	0x1c
 971 0403 08       		.uleb128 0x8
 972 0404 64626700 		.ascii	"dbg\000"
 973 0408 07       		.byte	0x7
 974 0409 A801     		.2byte	0x1a8
 975 040b AB030000 		.4byte	0x3ab
 976 040f 28       		.byte	0x28
 977 0410 09       		.uleb128 0x9
 978 0411 5F030000 		.4byte	.LASF69
 979 0415 07       		.byte	0x7
 980 0416 AC01     		.2byte	0x1ac
 981 0418 31010000 		.4byte	0x131
 982 041c 2C       		.byte	0x2c
 983 041d 00       		.byte	0
 984 041e 03       		.uleb128 0x3
 985 041f 04       		.byte	0x4
 986 0420 07       		.byte	0x7
 987 0421 78040000 		.4byte	.LASF70
 988 0425 0F       		.uleb128 0xf
 989 0426 C3000000 		.4byte	0xc3
 990 042a 10       		.uleb128 0x10
 991 042b 8C       		.byte	0x8c
 992 042c 08       		.byte	0x8
 993 042d A101     		.2byte	0x1a1
 994 042f 45050000 		.4byte	0x545
 995 0433 09       		.uleb128 0x9
 996 0434 E9010000 		.4byte	.LASF71
 997 0438 08       		.byte	0x8
 998 0439 A301     		.2byte	0x1a3
 999 043b 45050000 		.4byte	0x545
 1000 043f 00       		.byte	0
 1001 0440 09       		.uleb128 0x9
 1002 0441 43020000 		.4byte	.LASF72
 1003 0445 08       		.byte	0x8
 1004 0446 A401     		.2byte	0x1a4
 1005 0448 25040000 		.4byte	0x425
 1006 044c 04       		.byte	0x4
 1007 044d 09       		.uleb128 0x9
 1008 044e 6E040000 		.4byte	.LASF73
 1009 0452 08       		.byte	0x8
 1010 0453 A501     		.2byte	0x1a5
 1011 0455 25040000 		.4byte	0x425
 1012 0459 08       		.byte	0x8
 1013 045a 09       		.uleb128 0x9
 1014 045b 51020000 		.4byte	.LASF74
 1015 045f 08       		.byte	0x8
 1016 0460 A601     		.2byte	0x1a6
 1017 0462 25040000 		.4byte	0x425
 1018 0466 0C       		.byte	0xc
 1019 0467 08       		.uleb128 0x8
 1020 0468 53435200 		.ascii	"SCR\000"
ARM GAS  /tmp/cc8siAbf.s 			page 36


 1021 046c 08       		.byte	0x8
 1022 046d A701     		.2byte	0x1a7
 1023 046f 25040000 		.4byte	0x425
 1024 0473 10       		.byte	0x10
 1025 0474 08       		.uleb128 0x8
 1026 0475 43435200 		.ascii	"CCR\000"
 1027 0479 08       		.byte	0x8
 1028 047a A801     		.2byte	0x1a8
 1029 047c 25040000 		.4byte	0x425
 1030 0480 14       		.byte	0x14
 1031 0481 08       		.uleb128 0x8
 1032 0482 53485000 		.ascii	"SHP\000"
 1033 0486 08       		.byte	0x8
 1034 0487 A901     		.2byte	0x1a9
 1035 0489 5A050000 		.4byte	0x55a
 1036 048d 18       		.byte	0x18
 1037 048e 09       		.uleb128 0x9
 1038 048f 8D030000 		.4byte	.LASF75
 1039 0493 08       		.byte	0x8
 1040 0494 AA01     		.2byte	0x1aa
 1041 0496 25040000 		.4byte	0x425
 1042 049a 24       		.byte	0x24
 1043 049b 09       		.uleb128 0x9
 1044 049c 95020000 		.4byte	.LASF76
 1045 04a0 08       		.byte	0x8
 1046 04a1 AB01     		.2byte	0x1ab
 1047 04a3 25040000 		.4byte	0x425
 1048 04a7 28       		.byte	0x28
 1049 04a8 09       		.uleb128 0x9
 1050 04a9 1A020000 		.4byte	.LASF77
 1051 04ad 08       		.byte	0x8
 1052 04ae AC01     		.2byte	0x1ac
 1053 04b0 25040000 		.4byte	0x425
 1054 04b4 2C       		.byte	0x2c
 1055 04b5 09       		.uleb128 0x9
 1056 04b6 69000000 		.4byte	.LASF78
 1057 04ba 08       		.byte	0x8
 1058 04bb AD01     		.2byte	0x1ad
 1059 04bd 25040000 		.4byte	0x425
 1060 04c1 30       		.byte	0x30
 1061 04c2 09       		.uleb128 0x9
 1062 04c3 73030000 		.4byte	.LASF79
 1063 04c7 08       		.byte	0x8
 1064 04c8 AE01     		.2byte	0x1ae
 1065 04ca 25040000 		.4byte	0x425
 1066 04ce 34       		.byte	0x34
 1067 04cf 09       		.uleb128 0x9
 1068 04d0 69040000 		.4byte	.LASF80
 1069 04d4 08       		.byte	0x8
 1070 04d5 AF01     		.2byte	0x1af
 1071 04d7 25040000 		.4byte	0x425
 1072 04db 38       		.byte	0x38
 1073 04dc 09       		.uleb128 0x9
 1074 04dd 09020000 		.4byte	.LASF81
 1075 04e1 08       		.byte	0x8
 1076 04e2 B001     		.2byte	0x1b0
 1077 04e4 25040000 		.4byte	0x425
ARM GAS  /tmp/cc8siAbf.s 			page 37


 1078 04e8 3C       		.byte	0x3c
 1079 04e9 08       		.uleb128 0x8
 1080 04ea 50465200 		.ascii	"PFR\000"
 1081 04ee 08       		.byte	0x8
 1082 04ef B101     		.2byte	0x1b1
 1083 04f1 6F050000 		.4byte	0x56f
 1084 04f5 40       		.byte	0x40
 1085 04f6 08       		.uleb128 0x8
 1086 04f7 44465200 		.ascii	"DFR\000"
 1087 04fb 08       		.byte	0x8
 1088 04fc B201     		.2byte	0x1b2
 1089 04fe 45050000 		.4byte	0x545
 1090 0502 48       		.byte	0x48
 1091 0503 08       		.uleb128 0x8
 1092 0504 41445200 		.ascii	"ADR\000"
 1093 0508 08       		.byte	0x8
 1094 0509 B301     		.2byte	0x1b3
 1095 050b 45050000 		.4byte	0x545
 1096 050f 4C       		.byte	0x4c
 1097 0510 09       		.uleb128 0x9
 1098 0511 0F010000 		.4byte	.LASF82
 1099 0515 08       		.byte	0x8
 1100 0516 B401     		.2byte	0x1b4
 1101 0518 89050000 		.4byte	0x589
 1102 051c 50       		.byte	0x50
 1103 051d 09       		.uleb128 0x9
 1104 051e 8D050000 		.4byte	.LASF83
 1105 0522 08       		.byte	0x8
 1106 0523 B501     		.2byte	0x1b5
 1107 0525 A3050000 		.4byte	0x5a3
 1108 0529 60       		.byte	0x60
 1109 052a 09       		.uleb128 0x9
 1110 052b 83030000 		.4byte	.LASF84
 1111 052f 08       		.byte	0x8
 1112 0530 B601     		.2byte	0x1b6
 1113 0532 93050000 		.4byte	0x593
 1114 0536 74       		.byte	0x74
 1115 0537 09       		.uleb128 0x9
 1116 0538 10000000 		.4byte	.LASF85
 1117 053c 08       		.byte	0x8
 1118 053d B701     		.2byte	0x1b7
 1119 053f 25040000 		.4byte	0x425
 1120 0543 88       		.byte	0x88
 1121 0544 00       		.byte	0
 1122 0545 11       		.uleb128 0x11
 1123 0546 25040000 		.4byte	0x425
 1124 054a 12       		.uleb128 0x12
 1125 054b A2000000 		.4byte	0xa2
 1126 054f 5A050000 		.4byte	0x55a
 1127 0553 13       		.uleb128 0x13
 1128 0554 1E040000 		.4byte	0x41e
 1129 0558 0B       		.byte	0xb
 1130 0559 00       		.byte	0
 1131 055a 0F       		.uleb128 0xf
 1132 055b 4A050000 		.4byte	0x54a
 1133 055f 12       		.uleb128 0x12
 1134 0560 C3000000 		.4byte	0xc3
ARM GAS  /tmp/cc8siAbf.s 			page 38


 1135 0564 6F050000 		.4byte	0x56f
 1136 0568 13       		.uleb128 0x13
 1137 0569 1E040000 		.4byte	0x41e
 1138 056d 01       		.byte	0x1
 1139 056e 00       		.byte	0
 1140 056f 11       		.uleb128 0x11
 1141 0570 74050000 		.4byte	0x574
 1142 0574 0F       		.uleb128 0xf
 1143 0575 5F050000 		.4byte	0x55f
 1144 0579 12       		.uleb128 0x12
 1145 057a C3000000 		.4byte	0xc3
 1146 057e 89050000 		.4byte	0x589
 1147 0582 13       		.uleb128 0x13
 1148 0583 1E040000 		.4byte	0x41e
 1149 0587 03       		.byte	0x3
 1150 0588 00       		.byte	0
 1151 0589 11       		.uleb128 0x11
 1152 058a 8E050000 		.4byte	0x58e
 1153 058e 0F       		.uleb128 0xf
 1154 058f 79050000 		.4byte	0x579
 1155 0593 12       		.uleb128 0x12
 1156 0594 C3000000 		.4byte	0xc3
 1157 0598 A3050000 		.4byte	0x5a3
 1158 059c 13       		.uleb128 0x13
 1159 059d 1E040000 		.4byte	0x41e
 1160 05a1 04       		.byte	0x4
 1161 05a2 00       		.byte	0
 1162 05a3 11       		.uleb128 0x11
 1163 05a4 A8050000 		.4byte	0x5a8
 1164 05a8 0F       		.uleb128 0xf
 1165 05a9 93050000 		.4byte	0x593
 1166 05ad 14       		.uleb128 0x14
 1167 05ae 5B040000 		.4byte	.LASF86
 1168 05b2 08       		.byte	0x8
 1169 05b3 B801     		.2byte	0x1b8
 1170 05b5 2A040000 		.4byte	0x42a
 1171 05b9 04       		.uleb128 0x4
 1172 05ba 1D000000 		.4byte	.LASF87
 1173 05be 09       		.byte	0x9
 1174 05bf 65       		.byte	0x65
 1175 05c0 02030000 		.4byte	0x302
 1176 05c4 04       		.uleb128 0x4
 1177 05c5 6E050000 		.4byte	.LASF88
 1178 05c9 09       		.byte	0x9
 1179 05ca 6D       		.byte	0x6d
 1180 05cb CE000000 		.4byte	0xce
 1181 05cf 05       		.uleb128 0x5
 1182 05d0 95000000 		.4byte	.LASF89
 1183 05d4 04       		.byte	0x4
 1184 05d5 09       		.byte	0x9
 1185 05d6 89       		.byte	0x89
 1186 05d7 E7050000 		.4byte	0x5e7
 1187 05db 07       		.uleb128 0x7
 1188 05dc 737000   		.ascii	"sp\000"
 1189 05df 09       		.byte	0x9
 1190 05e0 8A       		.byte	0x8a
 1191 05e1 63060000 		.4byte	0x663
ARM GAS  /tmp/cc8siAbf.s 			page 39


 1192 05e5 00       		.byte	0
 1193 05e6 00       		.byte	0
 1194 05e7 0B       		.uleb128 0xb
 1195 05e8 AB030000 		.4byte	.LASF90
 1196 05ec 24       		.byte	0x24
 1197 05ed 0A       		.byte	0xa
 1198 05ee 5901     		.2byte	0x159
 1199 05f0 63060000 		.4byte	0x663
 1200 05f4 08       		.uleb128 0x8
 1201 05f5 723400   		.ascii	"r4\000"
 1202 05f8 0A       		.byte	0xa
 1203 05f9 6C01     		.2byte	0x16c
 1204 05fb B9050000 		.4byte	0x5b9
 1205 05ff 00       		.byte	0
 1206 0600 08       		.uleb128 0x8
 1207 0601 723500   		.ascii	"r5\000"
 1208 0604 0A       		.byte	0xa
 1209 0605 6D01     		.2byte	0x16d
 1210 0607 B9050000 		.4byte	0x5b9
 1211 060b 04       		.byte	0x4
 1212 060c 08       		.uleb128 0x8
 1213 060d 723600   		.ascii	"r6\000"
 1214 0610 0A       		.byte	0xa
 1215 0611 6E01     		.2byte	0x16e
 1216 0613 B9050000 		.4byte	0x5b9
 1217 0617 08       		.byte	0x8
 1218 0618 08       		.uleb128 0x8
 1219 0619 723700   		.ascii	"r7\000"
 1220 061c 0A       		.byte	0xa
 1221 061d 6F01     		.2byte	0x16f
 1222 061f B9050000 		.4byte	0x5b9
 1223 0623 0C       		.byte	0xc
 1224 0624 08       		.uleb128 0x8
 1225 0625 723800   		.ascii	"r8\000"
 1226 0628 0A       		.byte	0xa
 1227 0629 7001     		.2byte	0x170
 1228 062b B9050000 		.4byte	0x5b9
 1229 062f 10       		.byte	0x10
 1230 0630 08       		.uleb128 0x8
 1231 0631 723900   		.ascii	"r9\000"
 1232 0634 0A       		.byte	0xa
 1233 0635 7101     		.2byte	0x171
 1234 0637 B9050000 		.4byte	0x5b9
 1235 063b 14       		.byte	0x14
 1236 063c 08       		.uleb128 0x8
 1237 063d 72313000 		.ascii	"r10\000"
 1238 0641 0A       		.byte	0xa
 1239 0642 7201     		.2byte	0x172
 1240 0644 B9050000 		.4byte	0x5b9
 1241 0648 18       		.byte	0x18
 1242 0649 08       		.uleb128 0x8
 1243 064a 72313100 		.ascii	"r11\000"
 1244 064e 0A       		.byte	0xa
 1245 064f 7301     		.2byte	0x173
 1246 0651 B9050000 		.4byte	0x5b9
 1247 0655 1C       		.byte	0x1c
 1248 0656 08       		.uleb128 0x8
ARM GAS  /tmp/cc8siAbf.s 			page 40


 1249 0657 6C7200   		.ascii	"lr\000"
 1250 065a 0A       		.byte	0xa
 1251 065b 7401     		.2byte	0x174
 1252 065d B9050000 		.4byte	0x5b9
 1253 0661 20       		.byte	0x20
 1254 0662 00       		.byte	0
 1255 0663 0A       		.uleb128 0xa
 1256 0664 04       		.byte	0x4
 1257 0665 E7050000 		.4byte	0x5e7
 1258 0669 0B       		.uleb128 0xb
 1259 066a 4F040000 		.4byte	.LASF91
 1260 066e 20       		.byte	0x20
 1261 066f 0A       		.byte	0xa
 1262 0670 3A01     		.2byte	0x13a
 1263 0672 DA060000 		.4byte	0x6da
 1264 0676 08       		.uleb128 0x8
 1265 0677 723000   		.ascii	"r0\000"
 1266 067a 0A       		.byte	0xa
 1267 067b 3B01     		.2byte	0x13b
 1268 067d B9050000 		.4byte	0x5b9
 1269 0681 00       		.byte	0
 1270 0682 08       		.uleb128 0x8
 1271 0683 723100   		.ascii	"r1\000"
 1272 0686 0A       		.byte	0xa
 1273 0687 3C01     		.2byte	0x13c
 1274 0689 B9050000 		.4byte	0x5b9
 1275 068d 04       		.byte	0x4
 1276 068e 08       		.uleb128 0x8
 1277 068f 723200   		.ascii	"r2\000"
 1278 0692 0A       		.byte	0xa
 1279 0693 3D01     		.2byte	0x13d
 1280 0695 B9050000 		.4byte	0x5b9
 1281 0699 08       		.byte	0x8
 1282 069a 08       		.uleb128 0x8
 1283 069b 723300   		.ascii	"r3\000"
 1284 069e 0A       		.byte	0xa
 1285 069f 3E01     		.2byte	0x13e
 1286 06a1 B9050000 		.4byte	0x5b9
 1287 06a5 0C       		.byte	0xc
 1288 06a6 08       		.uleb128 0x8
 1289 06a7 72313200 		.ascii	"r12\000"
 1290 06ab 0A       		.byte	0xa
 1291 06ac 3F01     		.2byte	0x13f
 1292 06ae B9050000 		.4byte	0x5b9
 1293 06b2 10       		.byte	0x10
 1294 06b3 09       		.uleb128 0x9
 1295 06b4 29050000 		.4byte	.LASF92
 1296 06b8 0A       		.byte	0xa
 1297 06b9 4001     		.2byte	0x140
 1298 06bb B9050000 		.4byte	0x5b9
 1299 06bf 14       		.byte	0x14
 1300 06c0 08       		.uleb128 0x8
 1301 06c1 706300   		.ascii	"pc\000"
 1302 06c4 0A       		.byte	0xa
 1303 06c5 4101     		.2byte	0x141
 1304 06c7 B9050000 		.4byte	0x5b9
 1305 06cb 18       		.byte	0x18
ARM GAS  /tmp/cc8siAbf.s 			page 41


 1306 06cc 09       		.uleb128 0x9
 1307 06cd 73040000 		.4byte	.LASF93
 1308 06d1 0A       		.byte	0xa
 1309 06d2 4201     		.2byte	0x142
 1310 06d4 B9050000 		.4byte	0x5b9
 1311 06d8 1C       		.byte	0x1c
 1312 06d9 00       		.byte	0
 1313 06da 15       		.uleb128 0x15
 1314 06db 04       		.byte	0x4
 1315 06dc 07       		.byte	0x7
 1316 06dd D2       		.byte	0xd2
 1317 06de 3D070000 		.4byte	0x73d
 1318 06e2 16       		.uleb128 0x16
 1319 06e3 E2010000 		.4byte	.LASF94
 1320 06e7 07       		.byte	0x7
 1321 06e8 D9       		.byte	0xd9
 1322 06e9 05010000 		.4byte	0x105
 1323 06ed 16       		.uleb128 0x16
 1324 06ee 98050000 		.4byte	.LASF95
 1325 06f2 07       		.byte	0x7
 1326 06f3 E0       		.byte	0xe0
 1327 06f4 05010000 		.4byte	0x105
 1328 06f8 16       		.uleb128 0x16
 1329 06f9 7D000000 		.4byte	.LASF96
 1330 06fd 07       		.byte	0x7
 1331 06fe E7       		.byte	0xe7
 1332 06ff 02030000 		.4byte	0x302
 1333 0703 16       		.uleb128 0x16
 1334 0704 43050000 		.4byte	.LASF97
 1335 0708 07       		.byte	0x7
 1336 0709 EE       		.byte	0xee
 1337 070a 3D070000 		.4byte	0x73d
 1338 070e 16       		.uleb128 0x16
 1339 070f 07010000 		.4byte	.LASF98
 1340 0713 07       		.byte	0x7
 1341 0714 F3       		.byte	0xf3
 1342 0715 05010000 		.4byte	0x105
 1343 0719 16       		.uleb128 0x16
 1344 071a 3C050000 		.4byte	.LASF99
 1345 071e 07       		.byte	0x7
 1346 071f FC       		.byte	0xfc
 1347 0720 68070000 		.4byte	0x768
 1348 0724 17       		.uleb128 0x17
 1349 0725 16000000 		.4byte	.LASF100
 1350 0729 07       		.byte	0x7
 1351 072a 0501     		.2byte	0x105
 1352 072c 9F070000 		.4byte	0x79f
 1353 0730 17       		.uleb128 0x17
 1354 0731 C8000000 		.4byte	.LASF101
 1355 0735 07       		.byte	0x7
 1356 0736 0D01     		.2byte	0x10d
 1357 0738 10010000 		.4byte	0x110
 1358 073c 00       		.byte	0
 1359 073d 0A       		.uleb128 0xa
 1360 073e 04       		.byte	0x4
 1361 073f 1A020000 		.4byte	0x21a
 1362 0743 05       		.uleb128 0x5
ARM GAS  /tmp/cc8siAbf.s 			page 42


 1363 0744 20010000 		.4byte	.LASF102
 1364 0748 0C       		.byte	0xc
 1365 0749 0B       		.byte	0xb
 1366 074a 34       		.byte	0x34
 1367 074b 68070000 		.4byte	0x768
 1368 074f 06       		.uleb128 0x6
 1369 0750 A8040000 		.4byte	.LASF28
 1370 0754 0B       		.byte	0xb
 1371 0755 35       		.byte	0x35
 1372 0756 4F020000 		.4byte	0x24f
 1373 075a 00       		.byte	0
 1374 075b 07       		.uleb128 0x7
 1375 075c 636E7400 		.ascii	"cnt\000"
 1376 0760 0B       		.byte	0xb
 1377 0761 37       		.byte	0x37
 1378 0762 1B010000 		.4byte	0x11b
 1379 0766 08       		.byte	0x8
 1380 0767 00       		.byte	0
 1381 0768 0A       		.uleb128 0xa
 1382 0769 04       		.byte	0x4
 1383 076a 43070000 		.4byte	0x743
 1384 076e 05       		.uleb128 0x5
 1385 076f F5010000 		.4byte	.LASF103
 1386 0773 10       		.byte	0x10
 1387 0774 0C       		.byte	0xc
 1388 0775 39       		.byte	0x39
 1389 0776 9F070000 		.4byte	0x79f
 1390 077a 06       		.uleb128 0x6
 1391 077b A8040000 		.4byte	.LASF28
 1392 077f 0C       		.byte	0xc
 1393 0780 3A       		.byte	0x3a
 1394 0781 4F020000 		.4byte	0x24f
 1395 0785 00       		.byte	0
 1396 0786 06       		.uleb128 0x6
 1397 0787 8F010000 		.4byte	.LASF104
 1398 078b 0C       		.byte	0xc
 1399 078c 3C       		.byte	0x3c
 1400 078d 25020000 		.4byte	0x225
 1401 0791 08       		.byte	0x8
 1402 0792 06       		.uleb128 0x6
 1403 0793 55000000 		.4byte	.LASF47
 1404 0797 0C       		.byte	0xc
 1405 0798 3E       		.byte	0x3e
 1406 0799 D3070000 		.4byte	0x7d3
 1407 079d 0C       		.byte	0xc
 1408 079e 00       		.byte	0
 1409 079f 0A       		.uleb128 0xa
 1410 07a0 04       		.byte	0x4
 1411 07a1 6E070000 		.4byte	0x76e
 1412 07a5 0A       		.uleb128 0xa
 1413 07a6 04       		.byte	0x4
 1414 07a7 AB070000 		.4byte	0x7ab
 1415 07ab 11       		.uleb128 0x11
 1416 07ac B0070000 		.4byte	0x7b0
 1417 07b0 03       		.uleb128 0x3
 1418 07b1 01       		.byte	0x1
 1419 07b2 08       		.byte	0x8
ARM GAS  /tmp/cc8siAbf.s 			page 43


 1420 07b3 24020000 		.4byte	.LASF105
 1421 07b7 0A       		.uleb128 0xa
 1422 07b8 04       		.byte	0x4
 1423 07b9 C4050000 		.4byte	0x5c4
 1424 07bd 0A       		.uleb128 0xa
 1425 07be 04       		.byte	0x4
 1426 07bf 04030000 		.4byte	0x304
 1427 07c3 0F       		.uleb128 0xf
 1428 07c4 A5070000 		.4byte	0x7a5
 1429 07c8 04       		.uleb128 0x4
 1430 07c9 B6040000 		.4byte	.LASF106
 1431 07cd 0C       		.byte	0xc
 1432 07ce 34       		.byte	0x34
 1433 07cf 6E070000 		.4byte	0x76e
 1434 07d3 0A       		.uleb128 0xa
 1435 07d4 04       		.byte	0x4
 1436 07d5 C8070000 		.4byte	0x7c8
 1437 07d9 03       		.uleb128 0x3
 1438 07da 01       		.byte	0x1
 1439 07db 02       		.byte	0x2
 1440 07dc EF010000 		.4byte	.LASF107
 1441 07e0 18       		.uleb128 0x18
 1442 07e1 F5030000 		.4byte	.LASF110
 1443 07e5 02       		.byte	0x2
 1444 07e6 0601     		.2byte	0x106
 1445 07e8 03       		.byte	0x3
 1446 07e9 FA070000 		.4byte	0x7fa
 1447 07ed 19       		.uleb128 0x19
 1448 07ee B4010000 		.4byte	.LASF112
 1449 07f2 02       		.byte	0x2
 1450 07f3 0601     		.2byte	0x106
 1451 07f5 C3000000 		.4byte	0xc3
 1452 07f9 00       		.byte	0
 1453 07fa 1A       		.uleb128 0x1a
 1454 07fb 84000000 		.4byte	.LASF108
 1455 07ff 0A       		.byte	0xa
 1456 0800 5202     		.2byte	0x252
 1457 0802 03       		.byte	0x3
 1458 0803 1A       		.uleb128 0x1a
 1459 0804 81050000 		.4byte	.LASF109
 1460 0808 0A       		.byte	0xa
 1461 0809 6A02     		.2byte	0x26a
 1462 080b 03       		.byte	0x3
 1463 080c 1B       		.uleb128 0x1b
 1464 080d A7050000 		.4byte	.LASF122
 1465 0811 02       		.byte	0x2
 1466 0812 94       		.byte	0x94
 1467 0813 C3000000 		.4byte	0xc3
 1468 0817 03       		.byte	0x3
 1469 0818 28080000 		.4byte	0x828
 1470 081c 1C       		.uleb128 0x1c
 1471 081d 46010000 		.4byte	.LASF116
 1472 0821 02       		.byte	0x2
 1473 0822 96       		.byte	0x96
 1474 0823 C3000000 		.4byte	0xc3
 1475 0827 00       		.byte	0
 1476 0828 1D       		.uleb128 0x1d
ARM GAS  /tmp/cc8siAbf.s 			page 44


 1477 0829 79030000 		.4byte	.LASF111
 1478 082d 02       		.byte	0x2
 1479 082e A2       		.byte	0xa2
 1480 082f 03       		.byte	0x3
 1481 0830 40080000 		.4byte	0x840
 1482 0834 1E       		.uleb128 0x1e
 1483 0835 A5010000 		.4byte	.LASF113
 1484 0839 02       		.byte	0x2
 1485 083a A2       		.byte	0xa2
 1486 083b C3000000 		.4byte	0xc3
 1487 083f 00       		.byte	0
 1488 0840 1A       		.uleb128 0x1a
 1489 0841 C4040000 		.4byte	.LASF114
 1490 0845 0A       		.byte	0xa
 1491 0846 8402     		.2byte	0x284
 1492 0848 03       		.byte	0x3
 1493 0849 1A       		.uleb128 0x1a
 1494 084a A2000000 		.4byte	.LASF115
 1495 084e 0A       		.byte	0xa
 1496 084f 7902     		.2byte	0x279
 1497 0851 03       		.byte	0x3
 1498 0852 1F       		.uleb128 0x1f
 1499 0853 10050000 		.4byte	.LASF123
 1500 0857 01       		.byte	0x1
 1501 0858 7A       		.byte	0x7a
 1502 0859 01       		.byte	0x1
 1503 085a 6C080000 		.4byte	0x86c
 1504 085e 20       		.uleb128 0x20
 1505 085f 1C       		.uleb128 0x1c
 1506 0860 9D030000 		.4byte	.LASF117
 1507 0864 01       		.byte	0x1
 1508 0865 7E       		.byte	0x7e
 1509 0866 6C080000 		.4byte	0x86c
 1510 086a 00       		.byte	0
 1511 086b 00       		.byte	0
 1512 086c 0A       		.uleb128 0xa
 1513 086d 04       		.byte	0x4
 1514 086e 69060000 		.4byte	0x669
 1515 0872 21       		.uleb128 0x21
 1516 0873 0E020000 		.4byte	.LASF124
 1517 0877 01       		.byte	0x1
 1518 0878 3E       		.byte	0x3e
 1519 0879 00000000 		.4byte	.LFB188
 1520 087d 12000000 		.4byte	.LFE188-.LFB188
 1521 0881 01       		.uleb128 0x1
 1522 0882 9C       		.byte	0x9c
 1523 0883 13090000 		.4byte	0x913
 1524 0887 22       		.uleb128 0x22
 1525 0888 9D030000 		.4byte	.LASF117
 1526 088c 01       		.byte	0x1
 1527 088d 40       		.byte	0x40
 1528 088e 6C080000 		.4byte	0x86c
 1529 0892 00000000 		.4byte	.LLST0
 1530 0896 23       		.uleb128 0x23
 1531 0897 0C080000 		.4byte	0x80c
 1532 089b 00000000 		.4byte	.LBB51
 1533 089f 04000000 		.4byte	.LBE51-.LBB51
ARM GAS  /tmp/cc8siAbf.s 			page 45


 1534 08a3 01       		.byte	0x1
 1535 08a4 48       		.byte	0x48
 1536 08a5 BD080000 		.4byte	0x8bd
 1537 08a9 24       		.uleb128 0x24
 1538 08aa 00000000 		.4byte	.LBB52
 1539 08ae 04000000 		.4byte	.LBE52-.LBB52
 1540 08b2 25       		.uleb128 0x25
 1541 08b3 1C080000 		.4byte	0x81c
 1542 08b7 20000000 		.4byte	.LLST1
 1543 08bb 00       		.byte	0
 1544 08bc 00       		.byte	0
 1545 08bd 23       		.uleb128 0x23
 1546 08be 28080000 		.4byte	0x828
 1547 08c2 06000000 		.4byte	.LBB53
 1548 08c6 04000000 		.4byte	.LBE53-.LBB53
 1549 08ca 01       		.byte	0x1
 1550 08cb 4F       		.byte	0x4f
 1551 08cc DA080000 		.4byte	0x8da
 1552 08d0 26       		.uleb128 0x26
 1553 08d1 34080000 		.4byte	0x834
 1554 08d5 00000000 		.4byte	.LLST0
 1555 08d9 00       		.byte	0
 1556 08da 27       		.uleb128 0x27
 1557 08db 40080000 		.4byte	0x840
 1558 08df 0A000000 		.4byte	.LBB55
 1559 08e3 08000000 		.4byte	.LBE55-.LBB55
 1560 08e7 01       		.byte	0x1
 1561 08e8 52       		.byte	0x52
 1562 08e9 28       		.uleb128 0x28
 1563 08ea 03080000 		.4byte	0x803
 1564 08ee 0A000000 		.4byte	.LBB56
 1565 08f2 08000000 		.4byte	.LBE56-.LBB56
 1566 08f6 0A       		.byte	0xa
 1567 08f7 8602     		.2byte	0x286
 1568 08f9 28       		.uleb128 0x28
 1569 08fa E0070000 		.4byte	0x7e0
 1570 08fe 0A000000 		.4byte	.LBB57
 1571 0902 08000000 		.4byte	.LBE57-.LBB57
 1572 0906 0A       		.byte	0xa
 1573 0907 6D02     		.2byte	0x26d
 1574 0909 29       		.uleb128 0x29
 1575 090a ED070000 		.4byte	0x7ed
 1576 090e 00       		.byte	0
 1577 090f 00       		.byte	0
 1578 0910 00       		.byte	0
 1579 0911 00       		.byte	0
 1580 0912 00       		.byte	0
 1581 0913 2A       		.uleb128 0x2a
 1582 0914 52080000 		.4byte	0x852
 1583 0918 00000000 		.4byte	.LFB189
 1584 091c 54000000 		.4byte	.LFE189-.LFB189
 1585 0920 01       		.uleb128 0x1
 1586 0921 9C       		.byte	0x9c
 1587 0922 000A0000 		.4byte	0xa00
 1588 0926 23       		.uleb128 0x23
 1589 0927 49080000 		.4byte	0x849
 1590 092b 02000000 		.4byte	.LBB83
ARM GAS  /tmp/cc8siAbf.s 			page 46


 1591 092f 06000000 		.4byte	.LBE83-.LBB83
 1592 0933 01       		.byte	0x1
 1593 0934 7C       		.byte	0x7c
 1594 0935 62090000 		.4byte	0x962
 1595 0939 28       		.uleb128 0x28
 1596 093a FA070000 		.4byte	0x7fa
 1597 093e 02000000 		.4byte	.LBB84
 1598 0942 06000000 		.4byte	.LBE84-.LBB84
 1599 0946 0A       		.byte	0xa
 1600 0947 7B02     		.2byte	0x27b
 1601 0949 28       		.uleb128 0x28
 1602 094a E0070000 		.4byte	0x7e0
 1603 094e 02000000 		.4byte	.LBB85
 1604 0952 06000000 		.4byte	.LBE85-.LBB85
 1605 0956 0A       		.byte	0xa
 1606 0957 5A02     		.2byte	0x25a
 1607 0959 29       		.uleb128 0x29
 1608 095a ED070000 		.4byte	0x7ed
 1609 095e 20       		.byte	0x20
 1610 095f 00       		.byte	0
 1611 0960 00       		.byte	0
 1612 0961 00       		.byte	0
 1613 0962 23       		.uleb128 0x23
 1614 0963 40080000 		.4byte	0x840
 1615 0967 18000000 		.4byte	.LBB87
 1616 096b 06000000 		.4byte	.LBE87-.LBB87
 1617 096f 01       		.byte	0x1
 1618 0970 A5       		.byte	0xa5
 1619 0971 A1090000 		.4byte	0x9a1
 1620 0975 28       		.uleb128 0x28
 1621 0976 03080000 		.4byte	0x803
 1622 097a 18000000 		.4byte	.LBB88
 1623 097e 06000000 		.4byte	.LBE88-.LBB88
 1624 0982 0A       		.byte	0xa
 1625 0983 8602     		.2byte	0x286
 1626 0985 28       		.uleb128 0x28
 1627 0986 E0070000 		.4byte	0x7e0
 1628 098a 18000000 		.4byte	.LBB89
 1629 098e 06000000 		.4byte	.LBE89-.LBB89
 1630 0992 0A       		.byte	0xa
 1631 0993 6D02     		.2byte	0x26d
 1632 0995 26       		.uleb128 0x26
 1633 0996 ED070000 		.4byte	0x7ed
 1634 099a 40000000 		.4byte	.LLST3
 1635 099e 00       		.byte	0
 1636 099f 00       		.byte	0
 1637 09a0 00       		.byte	0
 1638 09a1 24       		.uleb128 0x24
 1639 09a2 1E000000 		.4byte	.LBB92
 1640 09a6 36000000 		.4byte	.LBE92-.LBB92
 1641 09aa 25       		.uleb128 0x25
 1642 09ab 5F080000 		.4byte	0x85f
 1643 09af 54000000 		.4byte	.LLST4
 1644 09b3 23       		.uleb128 0x23
 1645 09b4 0C080000 		.4byte	0x80c
 1646 09b8 1E000000 		.4byte	.LBB93
 1647 09bc 04000000 		.4byte	.LBE93-.LBB93
ARM GAS  /tmp/cc8siAbf.s 			page 47


 1648 09c0 01       		.byte	0x1
 1649 09c1 86       		.byte	0x86
 1650 09c2 D8090000 		.4byte	0x9d8
 1651 09c6 24       		.uleb128 0x24
 1652 09c7 1E000000 		.4byte	.LBB94
 1653 09cb 04000000 		.4byte	.LBE94-.LBB94
 1654 09cf 2B       		.uleb128 0x2b
 1655 09d0 1C080000 		.4byte	0x81c
 1656 09d4 01       		.uleb128 0x1
 1657 09d5 54       		.byte	0x54
 1658 09d6 00       		.byte	0
 1659 09d7 00       		.byte	0
 1660 09d8 23       		.uleb128 0x23
 1661 09d9 28080000 		.4byte	0x828
 1662 09dd 2E000000 		.4byte	.LBB95
 1663 09e1 04000000 		.4byte	.LBE95-.LBB95
 1664 09e5 01       		.byte	0x1
 1665 09e6 93       		.byte	0x93
 1666 09e7 F5090000 		.4byte	0x9f5
 1667 09eb 26       		.uleb128 0x26
 1668 09ec 34080000 		.4byte	0x834
 1669 09f0 81000000 		.4byte	.LLST5
 1670 09f4 00       		.byte	0
 1671 09f5 2C       		.uleb128 0x2c
 1672 09f6 36000000 		.4byte	.LVL10
 1673 09fa 1C0A0000 		.4byte	0xa1c
 1674 09fe 00       		.byte	0
 1675 09ff 00       		.byte	0
 1676 0a00 2D       		.uleb128 0x2d
 1677 0a01 B7030000 		.4byte	.LASF118
 1678 0a05 08       		.byte	0x8
 1679 0a06 9606     		.2byte	0x696
 1680 0a08 0C0A0000 		.4byte	0xa0c
 1681 0a0c 0F       		.uleb128 0xf
 1682 0a0d B8000000 		.4byte	0xb8
 1683 0a11 2E       		.uleb128 0x2e
 1684 0a12 636800   		.ascii	"ch\000"
 1685 0a15 07       		.byte	0x7
 1686 0a16 D201     		.2byte	0x1d2
 1687 0a18 D1030000 		.4byte	0x3d1
 1688 0a1c 2F       		.uleb128 0x2f
 1689 0a1d 64010000 		.4byte	.LASF125
 1690 0a21 07       		.byte	0x7
 1691 0a22 E201     		.2byte	0x1e2
 1692 0a24 D9070000 		.4byte	0x7d9
 1693 0a28 00       		.byte	0
 1694              		.section	.debug_abbrev,"",%progbits
 1695              	.Ldebug_abbrev0:
 1696 0000 01       		.uleb128 0x1
 1697 0001 11       		.uleb128 0x11
 1698 0002 01       		.byte	0x1
 1699 0003 25       		.uleb128 0x25
 1700 0004 0E       		.uleb128 0xe
 1701 0005 13       		.uleb128 0x13
 1702 0006 0B       		.uleb128 0xb
 1703 0007 03       		.uleb128 0x3
 1704 0008 0E       		.uleb128 0xe
ARM GAS  /tmp/cc8siAbf.s 			page 48


 1705 0009 1B       		.uleb128 0x1b
 1706 000a 0E       		.uleb128 0xe
 1707 000b 55       		.uleb128 0x55
 1708 000c 17       		.uleb128 0x17
 1709 000d 11       		.uleb128 0x11
 1710 000e 01       		.uleb128 0x1
 1711 000f 10       		.uleb128 0x10
 1712 0010 17       		.uleb128 0x17
 1713 0011 00       		.byte	0
 1714 0012 00       		.byte	0
 1715 0013 02       		.uleb128 0x2
 1716 0014 24       		.uleb128 0x24
 1717 0015 00       		.byte	0
 1718 0016 0B       		.uleb128 0xb
 1719 0017 0B       		.uleb128 0xb
 1720 0018 3E       		.uleb128 0x3e
 1721 0019 0B       		.uleb128 0xb
 1722 001a 03       		.uleb128 0x3
 1723 001b 08       		.uleb128 0x8
 1724 001c 00       		.byte	0
 1725 001d 00       		.byte	0
 1726 001e 03       		.uleb128 0x3
 1727 001f 24       		.uleb128 0x24
 1728 0020 00       		.byte	0
 1729 0021 0B       		.uleb128 0xb
 1730 0022 0B       		.uleb128 0xb
 1731 0023 3E       		.uleb128 0x3e
 1732 0024 0B       		.uleb128 0xb
 1733 0025 03       		.uleb128 0x3
 1734 0026 0E       		.uleb128 0xe
 1735 0027 00       		.byte	0
 1736 0028 00       		.byte	0
 1737 0029 04       		.uleb128 0x4
 1738 002a 16       		.uleb128 0x16
 1739 002b 00       		.byte	0
 1740 002c 03       		.uleb128 0x3
 1741 002d 0E       		.uleb128 0xe
 1742 002e 3A       		.uleb128 0x3a
 1743 002f 0B       		.uleb128 0xb
 1744 0030 3B       		.uleb128 0x3b
 1745 0031 0B       		.uleb128 0xb
 1746 0032 49       		.uleb128 0x49
 1747 0033 13       		.uleb128 0x13
 1748 0034 00       		.byte	0
 1749 0035 00       		.byte	0
 1750 0036 05       		.uleb128 0x5
 1751 0037 13       		.uleb128 0x13
 1752 0038 01       		.byte	0x1
 1753 0039 03       		.uleb128 0x3
 1754 003a 0E       		.uleb128 0xe
 1755 003b 0B       		.uleb128 0xb
 1756 003c 0B       		.uleb128 0xb
 1757 003d 3A       		.uleb128 0x3a
 1758 003e 0B       		.uleb128 0xb
 1759 003f 3B       		.uleb128 0x3b
 1760 0040 0B       		.uleb128 0xb
 1761 0041 01       		.uleb128 0x1
ARM GAS  /tmp/cc8siAbf.s 			page 49


 1762 0042 13       		.uleb128 0x13
 1763 0043 00       		.byte	0
 1764 0044 00       		.byte	0
 1765 0045 06       		.uleb128 0x6
 1766 0046 0D       		.uleb128 0xd
 1767 0047 00       		.byte	0
 1768 0048 03       		.uleb128 0x3
 1769 0049 0E       		.uleb128 0xe
 1770 004a 3A       		.uleb128 0x3a
 1771 004b 0B       		.uleb128 0xb
 1772 004c 3B       		.uleb128 0x3b
 1773 004d 0B       		.uleb128 0xb
 1774 004e 49       		.uleb128 0x49
 1775 004f 13       		.uleb128 0x13
 1776 0050 38       		.uleb128 0x38
 1777 0051 0B       		.uleb128 0xb
 1778 0052 00       		.byte	0
 1779 0053 00       		.byte	0
 1780 0054 07       		.uleb128 0x7
 1781 0055 0D       		.uleb128 0xd
 1782 0056 00       		.byte	0
 1783 0057 03       		.uleb128 0x3
 1784 0058 08       		.uleb128 0x8
 1785 0059 3A       		.uleb128 0x3a
 1786 005a 0B       		.uleb128 0xb
 1787 005b 3B       		.uleb128 0x3b
 1788 005c 0B       		.uleb128 0xb
 1789 005d 49       		.uleb128 0x49
 1790 005e 13       		.uleb128 0x13
 1791 005f 38       		.uleb128 0x38
 1792 0060 0B       		.uleb128 0xb
 1793 0061 00       		.byte	0
 1794 0062 00       		.byte	0
 1795 0063 08       		.uleb128 0x8
 1796 0064 0D       		.uleb128 0xd
 1797 0065 00       		.byte	0
 1798 0066 03       		.uleb128 0x3
 1799 0067 08       		.uleb128 0x8
 1800 0068 3A       		.uleb128 0x3a
 1801 0069 0B       		.uleb128 0xb
 1802 006a 3B       		.uleb128 0x3b
 1803 006b 05       		.uleb128 0x5
 1804 006c 49       		.uleb128 0x49
 1805 006d 13       		.uleb128 0x13
 1806 006e 38       		.uleb128 0x38
 1807 006f 0B       		.uleb128 0xb
 1808 0070 00       		.byte	0
 1809 0071 00       		.byte	0
 1810 0072 09       		.uleb128 0x9
 1811 0073 0D       		.uleb128 0xd
 1812 0074 00       		.byte	0
 1813 0075 03       		.uleb128 0x3
 1814 0076 0E       		.uleb128 0xe
 1815 0077 3A       		.uleb128 0x3a
 1816 0078 0B       		.uleb128 0xb
 1817 0079 3B       		.uleb128 0x3b
 1818 007a 05       		.uleb128 0x5
ARM GAS  /tmp/cc8siAbf.s 			page 50


 1819 007b 49       		.uleb128 0x49
 1820 007c 13       		.uleb128 0x13
 1821 007d 38       		.uleb128 0x38
 1822 007e 0B       		.uleb128 0xb
 1823 007f 00       		.byte	0
 1824 0080 00       		.byte	0
 1825 0081 0A       		.uleb128 0xa
 1826 0082 0F       		.uleb128 0xf
 1827 0083 00       		.byte	0
 1828 0084 0B       		.uleb128 0xb
 1829 0085 0B       		.uleb128 0xb
 1830 0086 49       		.uleb128 0x49
 1831 0087 13       		.uleb128 0x13
 1832 0088 00       		.byte	0
 1833 0089 00       		.byte	0
 1834 008a 0B       		.uleb128 0xb
 1835 008b 13       		.uleb128 0x13
 1836 008c 01       		.byte	0x1
 1837 008d 03       		.uleb128 0x3
 1838 008e 0E       		.uleb128 0xe
 1839 008f 0B       		.uleb128 0xb
 1840 0090 0B       		.uleb128 0xb
 1841 0091 3A       		.uleb128 0x3a
 1842 0092 0B       		.uleb128 0xb
 1843 0093 3B       		.uleb128 0x3b
 1844 0094 05       		.uleb128 0x5
 1845 0095 01       		.uleb128 0x1
 1846 0096 13       		.uleb128 0x13
 1847 0097 00       		.byte	0
 1848 0098 00       		.byte	0
 1849 0099 0C       		.uleb128 0xc
 1850 009a 15       		.uleb128 0x15
 1851 009b 01       		.byte	0x1
 1852 009c 27       		.uleb128 0x27
 1853 009d 19       		.uleb128 0x19
 1854 009e 01       		.uleb128 0x1
 1855 009f 13       		.uleb128 0x13
 1856 00a0 00       		.byte	0
 1857 00a1 00       		.byte	0
 1858 00a2 0D       		.uleb128 0xd
 1859 00a3 05       		.uleb128 0x5
 1860 00a4 00       		.byte	0
 1861 00a5 49       		.uleb128 0x49
 1862 00a6 13       		.uleb128 0x13
 1863 00a7 00       		.byte	0
 1864 00a8 00       		.byte	0
 1865 00a9 0E       		.uleb128 0xe
 1866 00aa 0F       		.uleb128 0xf
 1867 00ab 00       		.byte	0
 1868 00ac 0B       		.uleb128 0xb
 1869 00ad 0B       		.uleb128 0xb
 1870 00ae 00       		.byte	0
 1871 00af 00       		.byte	0
 1872 00b0 0F       		.uleb128 0xf
 1873 00b1 35       		.uleb128 0x35
 1874 00b2 00       		.byte	0
 1875 00b3 49       		.uleb128 0x49
ARM GAS  /tmp/cc8siAbf.s 			page 51


 1876 00b4 13       		.uleb128 0x13
 1877 00b5 00       		.byte	0
 1878 00b6 00       		.byte	0
 1879 00b7 10       		.uleb128 0x10
 1880 00b8 13       		.uleb128 0x13
 1881 00b9 01       		.byte	0x1
 1882 00ba 0B       		.uleb128 0xb
 1883 00bb 0B       		.uleb128 0xb
 1884 00bc 3A       		.uleb128 0x3a
 1885 00bd 0B       		.uleb128 0xb
 1886 00be 3B       		.uleb128 0x3b
 1887 00bf 05       		.uleb128 0x5
 1888 00c0 01       		.uleb128 0x1
 1889 00c1 13       		.uleb128 0x13
 1890 00c2 00       		.byte	0
 1891 00c3 00       		.byte	0
 1892 00c4 11       		.uleb128 0x11
 1893 00c5 26       		.uleb128 0x26
 1894 00c6 00       		.byte	0
 1895 00c7 49       		.uleb128 0x49
 1896 00c8 13       		.uleb128 0x13
 1897 00c9 00       		.byte	0
 1898 00ca 00       		.byte	0
 1899 00cb 12       		.uleb128 0x12
 1900 00cc 01       		.uleb128 0x1
 1901 00cd 01       		.byte	0x1
 1902 00ce 49       		.uleb128 0x49
 1903 00cf 13       		.uleb128 0x13
 1904 00d0 01       		.uleb128 0x1
 1905 00d1 13       		.uleb128 0x13
 1906 00d2 00       		.byte	0
 1907 00d3 00       		.byte	0
 1908 00d4 13       		.uleb128 0x13
 1909 00d5 21       		.uleb128 0x21
 1910 00d6 00       		.byte	0
 1911 00d7 49       		.uleb128 0x49
 1912 00d8 13       		.uleb128 0x13
 1913 00d9 2F       		.uleb128 0x2f
 1914 00da 0B       		.uleb128 0xb
 1915 00db 00       		.byte	0
 1916 00dc 00       		.byte	0
 1917 00dd 14       		.uleb128 0x14
 1918 00de 16       		.uleb128 0x16
 1919 00df 00       		.byte	0
 1920 00e0 03       		.uleb128 0x3
 1921 00e1 0E       		.uleb128 0xe
 1922 00e2 3A       		.uleb128 0x3a
 1923 00e3 0B       		.uleb128 0xb
 1924 00e4 3B       		.uleb128 0x3b
 1925 00e5 05       		.uleb128 0x5
 1926 00e6 49       		.uleb128 0x49
 1927 00e7 13       		.uleb128 0x13
 1928 00e8 00       		.byte	0
 1929 00e9 00       		.byte	0
 1930 00ea 15       		.uleb128 0x15
 1931 00eb 17       		.uleb128 0x17
 1932 00ec 01       		.byte	0x1
ARM GAS  /tmp/cc8siAbf.s 			page 52


 1933 00ed 0B       		.uleb128 0xb
 1934 00ee 0B       		.uleb128 0xb
 1935 00ef 3A       		.uleb128 0x3a
 1936 00f0 0B       		.uleb128 0xb
 1937 00f1 3B       		.uleb128 0x3b
 1938 00f2 0B       		.uleb128 0xb
 1939 00f3 01       		.uleb128 0x1
 1940 00f4 13       		.uleb128 0x13
 1941 00f5 00       		.byte	0
 1942 00f6 00       		.byte	0
 1943 00f7 16       		.uleb128 0x16
 1944 00f8 0D       		.uleb128 0xd
 1945 00f9 00       		.byte	0
 1946 00fa 03       		.uleb128 0x3
 1947 00fb 0E       		.uleb128 0xe
 1948 00fc 3A       		.uleb128 0x3a
 1949 00fd 0B       		.uleb128 0xb
 1950 00fe 3B       		.uleb128 0x3b
 1951 00ff 0B       		.uleb128 0xb
 1952 0100 49       		.uleb128 0x49
 1953 0101 13       		.uleb128 0x13
 1954 0102 00       		.byte	0
 1955 0103 00       		.byte	0
 1956 0104 17       		.uleb128 0x17
 1957 0105 0D       		.uleb128 0xd
 1958 0106 00       		.byte	0
 1959 0107 03       		.uleb128 0x3
 1960 0108 0E       		.uleb128 0xe
 1961 0109 3A       		.uleb128 0x3a
 1962 010a 0B       		.uleb128 0xb
 1963 010b 3B       		.uleb128 0x3b
 1964 010c 05       		.uleb128 0x5
 1965 010d 49       		.uleb128 0x49
 1966 010e 13       		.uleb128 0x13
 1967 010f 00       		.byte	0
 1968 0110 00       		.byte	0
 1969 0111 18       		.uleb128 0x18
 1970 0112 2E       		.uleb128 0x2e
 1971 0113 01       		.byte	0x1
 1972 0114 03       		.uleb128 0x3
 1973 0115 0E       		.uleb128 0xe
 1974 0116 3A       		.uleb128 0x3a
 1975 0117 0B       		.uleb128 0xb
 1976 0118 3B       		.uleb128 0x3b
 1977 0119 05       		.uleb128 0x5
 1978 011a 27       		.uleb128 0x27
 1979 011b 19       		.uleb128 0x19
 1980 011c 20       		.uleb128 0x20
 1981 011d 0B       		.uleb128 0xb
 1982 011e 01       		.uleb128 0x1
 1983 011f 13       		.uleb128 0x13
 1984 0120 00       		.byte	0
 1985 0121 00       		.byte	0
 1986 0122 19       		.uleb128 0x19
 1987 0123 05       		.uleb128 0x5
 1988 0124 00       		.byte	0
 1989 0125 03       		.uleb128 0x3
ARM GAS  /tmp/cc8siAbf.s 			page 53


 1990 0126 0E       		.uleb128 0xe
 1991 0127 3A       		.uleb128 0x3a
 1992 0128 0B       		.uleb128 0xb
 1993 0129 3B       		.uleb128 0x3b
 1994 012a 05       		.uleb128 0x5
 1995 012b 49       		.uleb128 0x49
 1996 012c 13       		.uleb128 0x13
 1997 012d 00       		.byte	0
 1998 012e 00       		.byte	0
 1999 012f 1A       		.uleb128 0x1a
 2000 0130 2E       		.uleb128 0x2e
 2001 0131 00       		.byte	0
 2002 0132 03       		.uleb128 0x3
 2003 0133 0E       		.uleb128 0xe
 2004 0134 3A       		.uleb128 0x3a
 2005 0135 0B       		.uleb128 0xb
 2006 0136 3B       		.uleb128 0x3b
 2007 0137 05       		.uleb128 0x5
 2008 0138 27       		.uleb128 0x27
 2009 0139 19       		.uleb128 0x19
 2010 013a 20       		.uleb128 0x20
 2011 013b 0B       		.uleb128 0xb
 2012 013c 00       		.byte	0
 2013 013d 00       		.byte	0
 2014 013e 1B       		.uleb128 0x1b
 2015 013f 2E       		.uleb128 0x2e
 2016 0140 01       		.byte	0x1
 2017 0141 03       		.uleb128 0x3
 2018 0142 0E       		.uleb128 0xe
 2019 0143 3A       		.uleb128 0x3a
 2020 0144 0B       		.uleb128 0xb
 2021 0145 3B       		.uleb128 0x3b
 2022 0146 0B       		.uleb128 0xb
 2023 0147 27       		.uleb128 0x27
 2024 0148 19       		.uleb128 0x19
 2025 0149 49       		.uleb128 0x49
 2026 014a 13       		.uleb128 0x13
 2027 014b 20       		.uleb128 0x20
 2028 014c 0B       		.uleb128 0xb
 2029 014d 01       		.uleb128 0x1
 2030 014e 13       		.uleb128 0x13
 2031 014f 00       		.byte	0
 2032 0150 00       		.byte	0
 2033 0151 1C       		.uleb128 0x1c
 2034 0152 34       		.uleb128 0x34
 2035 0153 00       		.byte	0
 2036 0154 03       		.uleb128 0x3
 2037 0155 0E       		.uleb128 0xe
 2038 0156 3A       		.uleb128 0x3a
 2039 0157 0B       		.uleb128 0xb
 2040 0158 3B       		.uleb128 0x3b
 2041 0159 0B       		.uleb128 0xb
 2042 015a 49       		.uleb128 0x49
 2043 015b 13       		.uleb128 0x13
 2044 015c 00       		.byte	0
 2045 015d 00       		.byte	0
 2046 015e 1D       		.uleb128 0x1d
ARM GAS  /tmp/cc8siAbf.s 			page 54


 2047 015f 2E       		.uleb128 0x2e
 2048 0160 01       		.byte	0x1
 2049 0161 03       		.uleb128 0x3
 2050 0162 0E       		.uleb128 0xe
 2051 0163 3A       		.uleb128 0x3a
 2052 0164 0B       		.uleb128 0xb
 2053 0165 3B       		.uleb128 0x3b
 2054 0166 0B       		.uleb128 0xb
 2055 0167 27       		.uleb128 0x27
 2056 0168 19       		.uleb128 0x19
 2057 0169 20       		.uleb128 0x20
 2058 016a 0B       		.uleb128 0xb
 2059 016b 01       		.uleb128 0x1
 2060 016c 13       		.uleb128 0x13
 2061 016d 00       		.byte	0
 2062 016e 00       		.byte	0
 2063 016f 1E       		.uleb128 0x1e
 2064 0170 05       		.uleb128 0x5
 2065 0171 00       		.byte	0
 2066 0172 03       		.uleb128 0x3
 2067 0173 0E       		.uleb128 0xe
 2068 0174 3A       		.uleb128 0x3a
 2069 0175 0B       		.uleb128 0xb
 2070 0176 3B       		.uleb128 0x3b
 2071 0177 0B       		.uleb128 0xb
 2072 0178 49       		.uleb128 0x49
 2073 0179 13       		.uleb128 0x13
 2074 017a 00       		.byte	0
 2075 017b 00       		.byte	0
 2076 017c 1F       		.uleb128 0x1f
 2077 017d 2E       		.uleb128 0x2e
 2078 017e 01       		.byte	0x1
 2079 017f 3F       		.uleb128 0x3f
 2080 0180 19       		.uleb128 0x19
 2081 0181 03       		.uleb128 0x3
 2082 0182 0E       		.uleb128 0xe
 2083 0183 3A       		.uleb128 0x3a
 2084 0184 0B       		.uleb128 0xb
 2085 0185 3B       		.uleb128 0x3b
 2086 0186 0B       		.uleb128 0xb
 2087 0187 27       		.uleb128 0x27
 2088 0188 19       		.uleb128 0x19
 2089 0189 20       		.uleb128 0x20
 2090 018a 0B       		.uleb128 0xb
 2091 018b 01       		.uleb128 0x1
 2092 018c 13       		.uleb128 0x13
 2093 018d 00       		.byte	0
 2094 018e 00       		.byte	0
 2095 018f 20       		.uleb128 0x20
 2096 0190 0B       		.uleb128 0xb
 2097 0191 01       		.byte	0x1
 2098 0192 00       		.byte	0
 2099 0193 00       		.byte	0
 2100 0194 21       		.uleb128 0x21
 2101 0195 2E       		.uleb128 0x2e
 2102 0196 01       		.byte	0x1
 2103 0197 3F       		.uleb128 0x3f
ARM GAS  /tmp/cc8siAbf.s 			page 55


 2104 0198 19       		.uleb128 0x19
 2105 0199 03       		.uleb128 0x3
 2106 019a 0E       		.uleb128 0xe
 2107 019b 3A       		.uleb128 0x3a
 2108 019c 0B       		.uleb128 0xb
 2109 019d 3B       		.uleb128 0x3b
 2110 019e 0B       		.uleb128 0xb
 2111 019f 27       		.uleb128 0x27
 2112 01a0 19       		.uleb128 0x19
 2113 01a1 11       		.uleb128 0x11
 2114 01a2 01       		.uleb128 0x1
 2115 01a3 12       		.uleb128 0x12
 2116 01a4 06       		.uleb128 0x6
 2117 01a5 40       		.uleb128 0x40
 2118 01a6 18       		.uleb128 0x18
 2119 01a7 9742     		.uleb128 0x2117
 2120 01a9 19       		.uleb128 0x19
 2121 01aa 01       		.uleb128 0x1
 2122 01ab 13       		.uleb128 0x13
 2123 01ac 00       		.byte	0
 2124 01ad 00       		.byte	0
 2125 01ae 22       		.uleb128 0x22
 2126 01af 34       		.uleb128 0x34
 2127 01b0 00       		.byte	0
 2128 01b1 03       		.uleb128 0x3
 2129 01b2 0E       		.uleb128 0xe
 2130 01b3 3A       		.uleb128 0x3a
 2131 01b4 0B       		.uleb128 0xb
 2132 01b5 3B       		.uleb128 0x3b
 2133 01b6 0B       		.uleb128 0xb
 2134 01b7 49       		.uleb128 0x49
 2135 01b8 13       		.uleb128 0x13
 2136 01b9 02       		.uleb128 0x2
 2137 01ba 17       		.uleb128 0x17
 2138 01bb 00       		.byte	0
 2139 01bc 00       		.byte	0
 2140 01bd 23       		.uleb128 0x23
 2141 01be 1D       		.uleb128 0x1d
 2142 01bf 01       		.byte	0x1
 2143 01c0 31       		.uleb128 0x31
 2144 01c1 13       		.uleb128 0x13
 2145 01c2 11       		.uleb128 0x11
 2146 01c3 01       		.uleb128 0x1
 2147 01c4 12       		.uleb128 0x12
 2148 01c5 06       		.uleb128 0x6
 2149 01c6 58       		.uleb128 0x58
 2150 01c7 0B       		.uleb128 0xb
 2151 01c8 59       		.uleb128 0x59
 2152 01c9 0B       		.uleb128 0xb
 2153 01ca 01       		.uleb128 0x1
 2154 01cb 13       		.uleb128 0x13
 2155 01cc 00       		.byte	0
 2156 01cd 00       		.byte	0
 2157 01ce 24       		.uleb128 0x24
 2158 01cf 0B       		.uleb128 0xb
 2159 01d0 01       		.byte	0x1
 2160 01d1 11       		.uleb128 0x11
ARM GAS  /tmp/cc8siAbf.s 			page 56


 2161 01d2 01       		.uleb128 0x1
 2162 01d3 12       		.uleb128 0x12
 2163 01d4 06       		.uleb128 0x6
 2164 01d5 00       		.byte	0
 2165 01d6 00       		.byte	0
 2166 01d7 25       		.uleb128 0x25
 2167 01d8 34       		.uleb128 0x34
 2168 01d9 00       		.byte	0
 2169 01da 31       		.uleb128 0x31
 2170 01db 13       		.uleb128 0x13
 2171 01dc 02       		.uleb128 0x2
 2172 01dd 17       		.uleb128 0x17
 2173 01de 00       		.byte	0
 2174 01df 00       		.byte	0
 2175 01e0 26       		.uleb128 0x26
 2176 01e1 05       		.uleb128 0x5
 2177 01e2 00       		.byte	0
 2178 01e3 31       		.uleb128 0x31
 2179 01e4 13       		.uleb128 0x13
 2180 01e5 02       		.uleb128 0x2
 2181 01e6 17       		.uleb128 0x17
 2182 01e7 00       		.byte	0
 2183 01e8 00       		.byte	0
 2184 01e9 27       		.uleb128 0x27
 2185 01ea 1D       		.uleb128 0x1d
 2186 01eb 01       		.byte	0x1
 2187 01ec 31       		.uleb128 0x31
 2188 01ed 13       		.uleb128 0x13
 2189 01ee 11       		.uleb128 0x11
 2190 01ef 01       		.uleb128 0x1
 2191 01f0 12       		.uleb128 0x12
 2192 01f1 06       		.uleb128 0x6
 2193 01f2 58       		.uleb128 0x58
 2194 01f3 0B       		.uleb128 0xb
 2195 01f4 59       		.uleb128 0x59
 2196 01f5 0B       		.uleb128 0xb
 2197 01f6 00       		.byte	0
 2198 01f7 00       		.byte	0
 2199 01f8 28       		.uleb128 0x28
 2200 01f9 1D       		.uleb128 0x1d
 2201 01fa 01       		.byte	0x1
 2202 01fb 31       		.uleb128 0x31
 2203 01fc 13       		.uleb128 0x13
 2204 01fd 11       		.uleb128 0x11
 2205 01fe 01       		.uleb128 0x1
 2206 01ff 12       		.uleb128 0x12
 2207 0200 06       		.uleb128 0x6
 2208 0201 58       		.uleb128 0x58
 2209 0202 0B       		.uleb128 0xb
 2210 0203 59       		.uleb128 0x59
 2211 0204 05       		.uleb128 0x5
 2212 0205 00       		.byte	0
 2213 0206 00       		.byte	0
 2214 0207 29       		.uleb128 0x29
 2215 0208 05       		.uleb128 0x5
 2216 0209 00       		.byte	0
 2217 020a 31       		.uleb128 0x31
ARM GAS  /tmp/cc8siAbf.s 			page 57


 2218 020b 13       		.uleb128 0x13
 2219 020c 1C       		.uleb128 0x1c
 2220 020d 0B       		.uleb128 0xb
 2221 020e 00       		.byte	0
 2222 020f 00       		.byte	0
 2223 0210 2A       		.uleb128 0x2a
 2224 0211 2E       		.uleb128 0x2e
 2225 0212 01       		.byte	0x1
 2226 0213 31       		.uleb128 0x31
 2227 0214 13       		.uleb128 0x13
 2228 0215 11       		.uleb128 0x11
 2229 0216 01       		.uleb128 0x1
 2230 0217 12       		.uleb128 0x12
 2231 0218 06       		.uleb128 0x6
 2232 0219 40       		.uleb128 0x40
 2233 021a 18       		.uleb128 0x18
 2234 021b 9742     		.uleb128 0x2117
 2235 021d 19       		.uleb128 0x19
 2236 021e 01       		.uleb128 0x1
 2237 021f 13       		.uleb128 0x13
 2238 0220 00       		.byte	0
 2239 0221 00       		.byte	0
 2240 0222 2B       		.uleb128 0x2b
 2241 0223 34       		.uleb128 0x34
 2242 0224 00       		.byte	0
 2243 0225 31       		.uleb128 0x31
 2244 0226 13       		.uleb128 0x13
 2245 0227 02       		.uleb128 0x2
 2246 0228 18       		.uleb128 0x18
 2247 0229 00       		.byte	0
 2248 022a 00       		.byte	0
 2249 022b 2C       		.uleb128 0x2c
 2250 022c 898201   		.uleb128 0x4109
 2251 022f 00       		.byte	0
 2252 0230 11       		.uleb128 0x11
 2253 0231 01       		.uleb128 0x1
 2254 0232 31       		.uleb128 0x31
 2255 0233 13       		.uleb128 0x13
 2256 0234 00       		.byte	0
 2257 0235 00       		.byte	0
 2258 0236 2D       		.uleb128 0x2d
 2259 0237 34       		.uleb128 0x34
 2260 0238 00       		.byte	0
 2261 0239 03       		.uleb128 0x3
 2262 023a 0E       		.uleb128 0xe
 2263 023b 3A       		.uleb128 0x3a
 2264 023c 0B       		.uleb128 0xb
 2265 023d 3B       		.uleb128 0x3b
 2266 023e 05       		.uleb128 0x5
 2267 023f 49       		.uleb128 0x49
 2268 0240 13       		.uleb128 0x13
 2269 0241 3F       		.uleb128 0x3f
 2270 0242 19       		.uleb128 0x19
 2271 0243 3C       		.uleb128 0x3c
 2272 0244 19       		.uleb128 0x19
 2273 0245 00       		.byte	0
 2274 0246 00       		.byte	0
ARM GAS  /tmp/cc8siAbf.s 			page 58


 2275 0247 2E       		.uleb128 0x2e
 2276 0248 34       		.uleb128 0x34
 2277 0249 00       		.byte	0
 2278 024a 03       		.uleb128 0x3
 2279 024b 08       		.uleb128 0x8
 2280 024c 3A       		.uleb128 0x3a
 2281 024d 0B       		.uleb128 0xb
 2282 024e 3B       		.uleb128 0x3b
 2283 024f 05       		.uleb128 0x5
 2284 0250 49       		.uleb128 0x49
 2285 0251 13       		.uleb128 0x13
 2286 0252 3F       		.uleb128 0x3f
 2287 0253 19       		.uleb128 0x19
 2288 0254 3C       		.uleb128 0x3c
 2289 0255 19       		.uleb128 0x19
 2290 0256 00       		.byte	0
 2291 0257 00       		.byte	0
 2292 0258 2F       		.uleb128 0x2f
 2293 0259 2E       		.uleb128 0x2e
 2294 025a 00       		.byte	0
 2295 025b 3F       		.uleb128 0x3f
 2296 025c 19       		.uleb128 0x19
 2297 025d 03       		.uleb128 0x3
 2298 025e 0E       		.uleb128 0xe
 2299 025f 3A       		.uleb128 0x3a
 2300 0260 0B       		.uleb128 0xb
 2301 0261 3B       		.uleb128 0x3b
 2302 0262 05       		.uleb128 0x5
 2303 0263 27       		.uleb128 0x27
 2304 0264 19       		.uleb128 0x19
 2305 0265 49       		.uleb128 0x49
 2306 0266 13       		.uleb128 0x13
 2307 0267 3C       		.uleb128 0x3c
 2308 0268 19       		.uleb128 0x19
 2309 0269 00       		.byte	0
 2310 026a 00       		.byte	0
 2311 026b 00       		.byte	0
 2312              		.section	.debug_loc,"",%progbits
 2313              	.Ldebug_loc0:
 2314              	.LLST0:
 2315 0000 04000000 		.4byte	.LVL0
 2316 0004 06000000 		.4byte	.LVL1
 2317 0008 0300     		.2byte	0x3
 2318 000a 73       		.byte	0x73
 2319 000b 20       		.sleb128 32
 2320 000c 9F       		.byte	0x9f
 2321 000d 06000000 		.4byte	.LVL1
 2322 0011 0C000000 		.4byte	.LVL3
 2323 0015 0100     		.2byte	0x1
 2324 0017 53       		.byte	0x53
 2325 0018 00000000 		.4byte	0
 2326 001c 00000000 		.4byte	0
 2327              	.LLST1:
 2328 0020 04000000 		.4byte	.LVL0
 2329 0024 06000000 		.4byte	.LVL1
 2330 0028 0100     		.2byte	0x1
 2331 002a 53       		.byte	0x53
ARM GAS  /tmp/cc8siAbf.s 			page 59


 2332 002b 06000000 		.4byte	.LVL1
 2333 002f 0C000000 		.4byte	.LVL3
 2334 0033 0300     		.2byte	0x3
 2335 0035 73       		.byte	0x73
 2336 0036 60       		.sleb128 -32
 2337 0037 9F       		.byte	0x9f
 2338 0038 00000000 		.4byte	0
 2339 003c 00000000 		.4byte	0
 2340              	.LLST3:
 2341 0040 18000000 		.4byte	.LVL5
 2342 0044 1E000000 		.4byte	.LVL6
 2343 0048 0200     		.2byte	0x2
 2344 004a 30       		.byte	0x30
 2345 004b 9F       		.byte	0x9f
 2346 004c 00000000 		.4byte	0
 2347 0050 00000000 		.4byte	0
 2348              	.LLST4:
 2349 0054 22000000 		.4byte	.LVL7
 2350 0058 2E000000 		.4byte	.LVL9
 2351 005c 0300     		.2byte	0x3
 2352 005e 74       		.byte	0x74
 2353 005f 60       		.sleb128 -32
 2354 0060 9F       		.byte	0x9f
 2355 0061 2E000000 		.4byte	.LVL9
 2356 0065 35000000 		.4byte	.LVL10-1
 2357 0069 0100     		.2byte	0x1
 2358 006b 53       		.byte	0x53
 2359 006c 35000000 		.4byte	.LVL10-1
 2360 0070 54000000 		.4byte	.LFE189
 2361 0074 0300     		.2byte	0x3
 2362 0076 74       		.byte	0x74
 2363 0077 60       		.sleb128 -32
 2364 0078 9F       		.byte	0x9f
 2365 0079 00000000 		.4byte	0
 2366 007d 00000000 		.4byte	0
 2367              	.LLST5:
 2368 0081 2A000000 		.4byte	.LVL8
 2369 0085 2E000000 		.4byte	.LVL9
 2370 0089 0300     		.2byte	0x3
 2371 008b 74       		.byte	0x74
 2372 008c 60       		.sleb128 -32
 2373 008d 9F       		.byte	0x9f
 2374 008e 2E000000 		.4byte	.LVL9
 2375 0092 35000000 		.4byte	.LVL10-1
 2376 0096 0100     		.2byte	0x1
 2377 0098 53       		.byte	0x53
 2378 0099 35000000 		.4byte	.LVL10-1
 2379 009d 54000000 		.4byte	.LFE189
 2380 00a1 0300     		.2byte	0x3
 2381 00a3 74       		.byte	0x74
 2382 00a4 60       		.sleb128 -32
 2383 00a5 9F       		.byte	0x9f
 2384 00a6 00000000 		.4byte	0
 2385 00aa 00000000 		.4byte	0
 2386              		.section	.debug_aranges,"",%progbits
 2387 0000 24000000 		.4byte	0x24
 2388 0004 0200     		.2byte	0x2
ARM GAS  /tmp/cc8siAbf.s 			page 60


 2389 0006 00000000 		.4byte	.Ldebug_info0
 2390 000a 04       		.byte	0x4
 2391 000b 00       		.byte	0
 2392 000c 0000     		.2byte	0
 2393 000e 0000     		.2byte	0
 2394 0010 00000000 		.4byte	.LFB188
 2395 0014 12000000 		.4byte	.LFE188-.LFB188
 2396 0018 00000000 		.4byte	.LFB189
 2397 001c 54000000 		.4byte	.LFE189-.LFB189
 2398 0020 00000000 		.4byte	0
 2399 0024 00000000 		.4byte	0
 2400              		.section	.debug_ranges,"",%progbits
 2401              	.Ldebug_ranges0:
 2402 0000 00000000 		.4byte	.LFB188
 2403 0004 12000000 		.4byte	.LFE188
 2404 0008 00000000 		.4byte	.LFB189
 2405 000c 54000000 		.4byte	.LFE189
 2406 0010 00000000 		.4byte	0
 2407 0014 00000000 		.4byte	0
 2408              		.section	.debug_line,"",%progbits
 2409              	.Ldebug_line0:
 2410 0000 C0010000 		.section	.debug_str,"MS",%progbits,1
 2410      02005D01 
 2410      00000201 
 2410      FB0E0D00 
 2410      01010101 
 2411              	.LASF46:
 2412 0000 63685F74 		.ascii	"ch_threads_list\000"
 2412      68726561 
 2412      64735F6C 
 2412      69737400 
 2413              	.LASF85:
 2414 0010 43504143 		.ascii	"CPACR\000"
 2414      5200
 2415              	.LASF100:
 2416 0016 77746D74 		.ascii	"wtmtxp\000"
 2416      787000
 2417              	.LASF87:
 2418 001d 72656761 		.ascii	"regarm_t\000"
 2418      726D5F74 
 2418      00
 2419              	.LASF35:
 2420 0026 666C6167 		.ascii	"flags\000"
 2420      7300
 2421              	.LASF26:
 2422 002c 73797374 		.ascii	"systime_t\000"
 2422      696D655F 
 2422      7400
 2423              	.LASF41:
 2424 0036 7265616C 		.ascii	"realprio\000"
 2424      7072696F 
 2424      00
 2425              	.LASF39:
 2426 003f 6570656E 		.ascii	"epending\000"
 2426      64696E67 
 2426      00
 2427              	.LASF0:
ARM GAS  /tmp/cc8siAbf.s 			page 61


 2428 0048 756E7369 		.ascii	"unsigned int\000"
 2428      676E6564 
 2428      20696E74 
 2428      00
 2429              	.LASF47:
 2430 0055 6E657874 		.ascii	"next\000"
 2430      00
 2431              	.LASF44:
 2432 005a 74687265 		.ascii	"threads_list_t\000"
 2432      6164735F 
 2432      6C697374 
 2432      5F7400
 2433              	.LASF78:
 2434 0069 44465352 		.ascii	"DFSR\000"
 2434      00
 2435              	.LASF7:
 2436 006e 5F5F696E 		.ascii	"__int32_t\000"
 2436      7433325F 
 2436      7400
 2437              	.LASF36:
 2438 0078 72656673 		.ascii	"refs\000"
 2438      00
 2439              	.LASF96:
 2440 007d 77746F62 		.ascii	"wtobjp\000"
 2440      6A7000
 2441              	.LASF108:
 2442 0084 706F7274 		.ascii	"port_lock\000"
 2442      5F6C6F63 
 2442      6B00
 2443              	.LASF68:
 2444 008e 76746C69 		.ascii	"vtlist\000"
 2444      737400
 2445              	.LASF89:
 2446 0095 706F7274 		.ascii	"port_context\000"
 2446      5F636F6E 
 2446      74657874 
 2446      00
 2447              	.LASF115:
 2448 00a2 706F7274 		.ascii	"port_lock_from_isr\000"
 2448      5F6C6F63 
 2448      6B5F6672 
 2448      6F6D5F69 
 2448      737200
 2449              	.LASF52:
 2450 00b5 63685F72 		.ascii	"ch_ready_list\000"
 2450      65616479 
 2450      5F6C6973 
 2450      7400
 2451              	.LASF58:
 2452 00c3 66756E63 		.ascii	"func\000"
 2452      00
 2453              	.LASF101:
 2454 00c8 65776D61 		.ascii	"ewmask\000"
 2454      736B00
 2455              	.LASF50:
 2456 00cf 70726576 		.ascii	"prev\000"
 2456      00
ARM GAS  /tmp/cc8siAbf.s 			page 62


 2457              	.LASF49:
 2458 00d4 63685F74 		.ascii	"ch_threads_queue\000"
 2458      68726561 
 2458      64735F71 
 2458      75657565 
 2458      00
 2459              	.LASF54:
 2460 00e5 76746675 		.ascii	"vtfunc_t\000"
 2460      6E635F74 
 2460      00
 2461              	.LASF63:
 2462 00ee 63685F73 		.ascii	"ch_system_debug\000"
 2462      79737465 
 2462      6D5F6465 
 2462      62756700 
 2463              	.LASF17:
 2464 00fe 75696E74 		.ascii	"uint32_t\000"
 2464      33325F74 
 2464      00
 2465              	.LASF98:
 2466 0107 73656E74 		.ascii	"sentmsg\000"
 2466      6D736700 
 2467              	.LASF82:
 2468 010f 4D4D4652 		.ascii	"MMFR\000"
 2468      00
 2469              	.LASF24:
 2470 0114 6576656E 		.ascii	"eventmask_t\000"
 2470      746D6173 
 2470      6B5F7400 
 2471              	.LASF102:
 2472 0120 63685F73 		.ascii	"ch_semaphore\000"
 2472      656D6170 
 2472      686F7265 
 2472      00
 2473              	.LASF22:
 2474 012d 74707269 		.ascii	"tprio_t\000"
 2474      6F5F7400 
 2475              	.LASF56:
 2476 0135 63685F76 		.ascii	"ch_virtual_timer\000"
 2476      69727475 
 2476      616C5F74 
 2476      696D6572 
 2476      00
 2477              	.LASF116:
 2478 0146 72657375 		.ascii	"result\000"
 2478      6C7400
 2479              	.LASF13:
 2480 014d 6C6F6E67 		.ascii	"long long unsigned int\000"
 2480      206C6F6E 
 2480      6720756E 
 2480      7369676E 
 2480      65642069 
 2481              	.LASF125:
 2482 0164 63685363 		.ascii	"chSchIsPreemptionRequired\000"
 2482      68497350 
 2482      7265656D 
 2482      7074696F 
ARM GAS  /tmp/cc8siAbf.s 			page 63


 2482      6E526571 
 2483              	.LASF5:
 2484 017e 5F5F7569 		.ascii	"__uint16_t\000"
 2484      6E743136 
 2484      5F7400
 2485              	.LASF25:
 2486 0189 636E745F 		.ascii	"cnt_t\000"
 2486      7400
 2487              	.LASF104:
 2488 018f 6F776E65 		.ascii	"owner\000"
 2488      7200
 2489              	.LASF48:
 2490 0195 74687265 		.ascii	"threads_queue_t\000"
 2490      6164735F 
 2490      71756575 
 2490      655F7400 
 2491              	.LASF113:
 2492 01a5 746F704F 		.ascii	"topOfProcStack\000"
 2492      6650726F 
 2492      63537461 
 2492      636B00
 2493              	.LASF112:
 2494 01b4 76616C75 		.ascii	"value\000"
 2494      6500
 2495              	.LASF40:
 2496 01ba 6D74786C 		.ascii	"mtxlist\000"
 2496      69737400 
 2497              	.LASF60:
 2498 01c2 63685F76 		.ascii	"ch_virtual_timers_list\000"
 2498      69727475 
 2498      616C5F74 
 2498      696D6572 
 2498      735F6C69 
 2499              	.LASF27:
 2500 01d9 74687265 		.ascii	"thread_t\000"
 2500      61645F74 
 2500      00
 2501              	.LASF94:
 2502 01e2 7264796D 		.ascii	"rdymsg\000"
 2502      736700
 2503              	.LASF71:
 2504 01e9 43505549 		.ascii	"CPUID\000"
 2504      4400
 2505              	.LASF107:
 2506 01ef 5F426F6F 		.ascii	"_Bool\000"
 2506      6C00
 2507              	.LASF103:
 2508 01f5 63685F6D 		.ascii	"ch_mutex\000"
 2508      75746578 
 2508      00
 2509              	.LASF12:
 2510 01fe 5F5F7569 		.ascii	"__uint64_t\000"
 2510      6E743634 
 2510      5F7400
 2511              	.LASF81:
 2512 0209 41465352 		.ascii	"AFSR\000"
 2512      00
ARM GAS  /tmp/cc8siAbf.s 			page 64


 2513              	.LASF124:
 2514 020e 5356435F 		.ascii	"SVC_Handler\000"
 2514      48616E64 
 2514      6C657200 
 2515              	.LASF77:
 2516 021a 48465352 		.ascii	"HFSR\000"
 2516      00
 2517              	.LASF29:
 2518 021f 7072696F 		.ascii	"prio\000"
 2518      00
 2519              	.LASF105:
 2520 0224 63686172 		.ascii	"char\000"
 2520      00
 2521              	.LASF43:
 2522 0229 74687265 		.ascii	"thread_reference_t\000"
 2522      61645F72 
 2522      65666572 
 2522      656E6365 
 2522      5F7400
 2523              	.LASF33:
 2524 023c 77616261 		.ascii	"wabase\000"
 2524      736500
 2525              	.LASF72:
 2526 0243 49435352 		.ascii	"ICSR\000"
 2526      00
 2527              	.LASF20:
 2528 0248 74737461 		.ascii	"tstate_t\000"
 2528      74655F74 
 2528      00
 2529              	.LASF74:
 2530 0251 41495243 		.ascii	"AIRCR\000"
 2530      5200
 2531              	.LASF14:
 2532 0257 75696E74 		.ascii	"uint8_t\000"
 2532      385F7400 
 2533              	.LASF38:
 2534 025f 6D736771 		.ascii	"msgqueue\000"
 2534      75657565 
 2534      00
 2535              	.LASF45:
 2536 0268 63685F74 		.ascii	"ch_thread\000"
 2536      68726561 
 2536      6400
 2537              	.LASF62:
 2538 0272 73797374 		.ascii	"system_debug_t\000"
 2538      656D5F64 
 2538      65627567 
 2538      5F7400
 2539              	.LASF11:
 2540 0281 6C6F6E67 		.ascii	"long long int\000"
 2540      206C6F6E 
 2540      6720696E 
 2540      7400
 2541              	.LASF23:
 2542 028f 6D73675F 		.ascii	"msg_t\000"
 2542      7400
 2543              	.LASF76:
ARM GAS  /tmp/cc8siAbf.s 			page 65


 2544 0295 43465352 		.ascii	"CFSR\000"
 2544      00
 2545              	.LASF55:
 2546 029a 76697274 		.ascii	"virtual_timer_t\000"
 2546      75616C5F 
 2546      74696D65 
 2546      725F7400 
 2547              	.LASF119:
 2548 02aa 474E5520 		.ascii	"GNU C 4.8.2 -mcpu=cortex-m3 -mno-thumb-interwork -m"
 2548      4320342E 
 2548      382E3220 
 2548      2D6D6370 
 2548      753D636F 
 2549 02dd 7468756D 		.ascii	"thumb -ggdb -O2 -fomit-frame-pointer -falign-functi"
 2549      62202D67 
 2549      67646220 
 2549      2D4F3220 
 2549      2D666F6D 
 2550 0310 6F6E733D 		.ascii	"ons=16 -ffunction-sections -fdata-sections -fno-com"
 2550      3136202D 
 2550      6666756E 
 2550      6374696F 
 2550      6E2D7365 
 2551 0343 6D6F6E20 		.ascii	"mon -flto\000"
 2551      2D666C74 
 2551      6F00
 2552              	.LASF64:
 2553 034d 70616E69 		.ascii	"panic_msg\000"
 2553      635F6D73 
 2553      6700
 2554              	.LASF19:
 2555 0357 746D6F64 		.ascii	"tmode_t\000"
 2555      655F7400 
 2556              	.LASF69:
 2557 035f 6D61696E 		.ascii	"mainthread\000"
 2557      74687265 
 2557      616400
 2558              	.LASF15:
 2559 036a 75696E74 		.ascii	"uint16_t\000"
 2559      31365F74 
 2559      00
 2560              	.LASF79:
 2561 0373 4D4D4641 		.ascii	"MMFAR\000"
 2561      5200
 2562              	.LASF111:
 2563 0379 5F5F7365 		.ascii	"__set_PSP\000"
 2563      745F5053 
 2563      5000
 2564              	.LASF84:
 2565 0383 52455345 		.ascii	"RESERVED0\000"
 2565      52564544 
 2565      3000
 2566              	.LASF75:
 2567 038d 53484353 		.ascii	"SHCSR\000"
 2567      5200
 2568              	.LASF3:
 2569 0393 73686F72 		.ascii	"short int\000"
ARM GAS  /tmp/cc8siAbf.s 			page 66


 2569      7420696E 
 2569      7400
 2570              	.LASF117:
 2571 039d 63747870 		.ascii	"ctxp\000"
 2571      00
 2572              	.LASF8:
 2573 03a2 6C6F6E67 		.ascii	"long int\000"
 2573      20696E74 
 2573      00
 2574              	.LASF90:
 2575 03ab 706F7274 		.ascii	"port_intctx\000"
 2575      5F696E74 
 2575      63747800 
 2576              	.LASF118:
 2577 03b7 49544D5F 		.ascii	"ITM_RxBuffer\000"
 2577      52784275 
 2577      66666572 
 2577      00
 2578              	.LASF120:
 2579 03c4 2E2E2F6F 		.ascii	"../os/common/ports/ARMCMx/chcore_v7m.c\000"
 2579      732F636F 
 2579      6D6D6F6E 
 2579      2F706F72 
 2579      74732F41 
 2580              	.LASF66:
 2581 03eb 63685F73 		.ascii	"ch_system\000"
 2581      79737465 
 2581      6D00
 2582              	.LASF110:
 2583 03f5 5F5F7365 		.ascii	"__set_BASEPRI\000"
 2583      745F4241 
 2583      53455052 
 2583      4900
 2584              	.LASF61:
 2585 0403 6C617374 		.ascii	"lasttime\000"
 2585      74696D65 
 2585      00
 2586              	.LASF18:
 2587 040c 75696E74 		.ascii	"uint64_t\000"
 2587      36345F74 
 2587      00
 2588              	.LASF67:
 2589 0415 726C6973 		.ascii	"rlist\000"
 2589      7400
 2590              	.LASF121:
 2591 041b 2F686F6D 		.ascii	"/home/jerson/ChibiOS/rt_stm32f100rb_onion\000"
 2591      652F6A65 
 2591      72736F6E 
 2591      2F436869 
 2591      62694F53 
 2592              	.LASF4:
 2593 0445 5F5F7569 		.ascii	"__uint8_t\000"
 2593      6E74385F 
 2593      7400
 2594              	.LASF91:
 2595 044f 706F7274 		.ascii	"port_extctx\000"
 2595      5F657874 
ARM GAS  /tmp/cc8siAbf.s 			page 67


 2595      63747800 
 2596              	.LASF86:
 2597 045b 5343425F 		.ascii	"SCB_Type\000"
 2597      54797065 
 2597      00
 2598              	.LASF32:
 2599 0464 6E616D65 		.ascii	"name\000"
 2599      00
 2600              	.LASF80:
 2601 0469 42464152 		.ascii	"BFAR\000"
 2601      00
 2602              	.LASF73:
 2603 046e 56544F52 		.ascii	"VTOR\000"
 2603      00
 2604              	.LASF93:
 2605 0473 78707372 		.ascii	"xpsr\000"
 2605      00
 2606              	.LASF70:
 2607 0478 73697A65 		.ascii	"sizetype\000"
 2607      74797065 
 2607      00
 2608              	.LASF21:
 2609 0481 74726566 		.ascii	"trefs_t\000"
 2609      735F7400 
 2610              	.LASF10:
 2611 0489 6C6F6E67 		.ascii	"long unsigned int\000"
 2611      20756E73 
 2611      69676E65 
 2611      6420696E 
 2611      7400
 2612              	.LASF51:
 2613 049b 72656164 		.ascii	"ready_list_t\000"
 2613      795F6C69 
 2613      73745F74 
 2613      00
 2614              	.LASF28:
 2615 04a8 71756575 		.ascii	"queue\000"
 2615      6500
 2616              	.LASF16:
 2617 04ae 696E7433 		.ascii	"int32_t\000"
 2617      325F7400 
 2618              	.LASF106:
 2619 04b6 6D757465 		.ascii	"mutex_t\000"
 2619      785F7400 
 2620              	.LASF30:
 2621 04be 6E657765 		.ascii	"newer\000"
 2621      7200
 2622              	.LASF114:
 2623 04c4 706F7274 		.ascii	"port_unlock_from_isr\000"
 2623      5F756E6C 
 2623      6F636B5F 
 2623      66726F6D 
 2623      5F697372 
 2624              	.LASF2:
 2625 04d9 756E7369 		.ascii	"unsigned char\000"
 2625      676E6564 
 2625      20636861 
ARM GAS  /tmp/cc8siAbf.s 			page 68


 2625      7200
 2626              	.LASF9:
 2627 04e7 5F5F7569 		.ascii	"__uint32_t\000"
 2627      6E743332 
 2627      5F7400
 2628              	.LASF37:
 2629 04f2 77616974 		.ascii	"waiting\000"
 2629      696E6700 
 2630              	.LASF59:
 2631 04fa 76697274 		.ascii	"virtual_timers_list_t\000"
 2631      75616C5F 
 2631      74696D65 
 2631      72735F6C 
 2631      6973745F 
 2632              	.LASF123:
 2633 0510 5F706F72 		.ascii	"_port_irq_epilogue\000"
 2633      745F6972 
 2633      715F6570 
 2633      696C6F67 
 2633      756500
 2634              	.LASF34:
 2635 0523 73746174 		.ascii	"state\000"
 2635      6500
 2636              	.LASF92:
 2637 0529 6C725F74 		.ascii	"lr_thd\000"
 2637      686400
 2638              	.LASF65:
 2639 0530 63685F73 		.ascii	"ch_system_t\000"
 2639      79737465 
 2639      6D5F7400 
 2640              	.LASF99:
 2641 053c 77747365 		.ascii	"wtsemp\000"
 2641      6D7000
 2642              	.LASF97:
 2643 0543 77747472 		.ascii	"wttrp\000"
 2643      7000
 2644              	.LASF1:
 2645 0549 7369676E 		.ascii	"signed char\000"
 2645      65642063 
 2645      68617200 
 2646              	.LASF57:
 2647 0555 64656C74 		.ascii	"delta\000"
 2647      6100
 2648              	.LASF6:
 2649 055b 73686F72 		.ascii	"short unsigned int\000"
 2649      7420756E 
 2649      7369676E 
 2649      65642069 
 2649      6E7400
 2650              	.LASF88:
 2651 056e 73746B61 		.ascii	"stkalign_t\000"
 2651      6C69676E 
 2651      5F7400
 2652              	.LASF53:
 2653 0579 63757272 		.ascii	"current\000"
 2653      656E7400 
 2654              	.LASF109:
ARM GAS  /tmp/cc8siAbf.s 			page 69


 2655 0581 706F7274 		.ascii	"port_unlock\000"
 2655      5F756E6C 
 2655      6F636B00 
 2656              	.LASF83:
 2657 058d 49534152 		.ascii	"ISAR\000"
 2657      00
 2658              	.LASF31:
 2659 0592 6F6C6465 		.ascii	"older\000"
 2659      7200
 2660              	.LASF95:
 2661 0598 65786974 		.ascii	"exitcode\000"
 2661      636F6465 
 2661      00
 2662              	.LASF42:
 2663 05a1 6D706F6F 		.ascii	"mpool\000"
 2663      6C00
 2664              	.LASF122:
 2665 05a7 5F5F6765 		.ascii	"__get_PSP\000"
 2665      745F5053 
 2665      5000
 2666              		.comm	__gnu_lto_v1,1,1
 2667              		.ident	"GCC: (4.8.2-14ubuntu1+6) 4.8.2"
ARM GAS  /tmp/cc8siAbf.s 			page 70


DEFINED SYMBOLS
                            *ABS*:0000000000000000 chcore_v7m.c
     /tmp/cc8siAbf.s:304    .text.SVC_Handler:0000000000000000 $t
     /tmp/cc8siAbf.s:310    .text.SVC_Handler:0000000000000000 SVC_Handler
     /tmp/cc8siAbf.s:364    .text._port_irq_epilogue:0000000000000000 $t
     /tmp/cc8siAbf.s:370    .text._port_irq_epilogue:0000000000000000 _port_irq_epilogue
                            *COM*:0000000000000001 __gnu_lto_v1
                     .debug_frame:0000000000000010 $d

UNDEFINED SYMBOLS
chSchIsPreemptionRequired
_port_switch_from_isr
_port_exit_from_isr
