ARM GAS  /tmp/ccq7hRlA.s 			page 1


   1              		.syntax unified
   2              		.cpu cortex-m3
   3              		.fpu softvfp
   4              		.eabi_attribute 20, 1
   5              		.eabi_attribute 21, 1
   6              		.eabi_attribute 23, 3
   7              		.eabi_attribute 24, 1
   8              		.eabi_attribute 25, 1
   9              		.eabi_attribute 26, 1
  10              		.eabi_attribute 30, 2
  11              		.eabi_attribute 34, 1
  12              		.eabi_attribute 18, 4
  13              		.thumb
  14              		.file	"chdynamic.c"
  15              		.text
  16              	.Ltext0:
  17              		.section	.gnu.lto_.jmpfuncs.1e5d5f69587b85aa,"",%progbits
  18 0000 789C6362 		.ascii	"x\234cb`b\300\006\"\2404\023\203=\023\003#c\007S\004"
  18      6062C006 
  18      22A03413 
  18      833D1303 
  18      23630753 
  19 0015 63262303 		.ascii	"c&#\003#\003\230f\004J\000133\220.cd\000R\214e\014\020"
  19      23039866 
  19      044A0031 
  19      3333902E 
  19      63640052 
  20 002d 29260E20 		.ascii	")&\016 G\036I\013\023\212\026F\250\026\006\000f\372"
  20      471E490B 
  20      138A1646 
  20      A8160600 
  20      66FA
  21 003f 0732     		.ascii	"\0072"
  22              		.text
  23              		.section	.gnu.lto_.inline.1e5d5f69587b85aa,"",%progbits
  24 0000 789C6362 		.ascii	"x\234cb`b\300\006\302\2414\023\203\204\224\021#\003"
  24      6062C006 
  24      C2A13413 
  24      83849411 
  24      2303
  25 0012 93C48A2D 		.ascii	"\223\304\212-\214\014l\013\344\301\252\231y\200\022"
  25      8C0C6C0B 
  25      E4C1AA99 
  25      798012
  26 0021 13FCC034 		.ascii	"\023\374\3004#\003+\037Pd\202\037\220\317\010Q+}\355"
  26      23032B1F 
  26      5064821F 
  26      90CF0851 
  26      2B7DED
  27 0034 142303FB 		.ascii	"\024#\003\373-5,j\301$\220\007\000\372L\012\354"
  27      2D352C6A 
  27      C1249007 
  27      00FA4C0A 
  27      EC
  28              		.text
  29              		.section	.gnu.lto_.pureconst.1e5d5f69587b85aa,"",%progbits
  30 0000 789C6362 		.ascii	"x\234cb`b`e\200\000&\006+F+\000\001\206\000\201"
ARM GAS  /tmp/ccq7hRlA.s 			page 2


  30      60626065 
  30      80002606 
  30      2B462B00 
  30      01860081 
  31              		.text
  32              		.section	.gnu.lto_chThdCreateFromHeap.1e5d5f69587b85aa,"",%progbits
  33 0000 789C8D54 		.ascii	"x\234\215T]h\024W\024>\347\336\231\354\232M\232\244"
  33      5D681457 
  33      143EE7DE 
  33      99EC9A4D 
  33      9AA4
  34 0012 26FE21C9 		.ascii	"&\376!\311b)-(;\202\202\257J\236D\342CR\241>\311\344"
  34      62292D28 
  34      3B8282AF 
  34      4A9E44E2 
  34      4352A13E 
  35 0028 664906DC 		.ascii	"fI\006\334l\330Y\177B)\271nb\210\264H\020\301\237\020"
  35      6CD8597F 
  35      4229B96E 
  35      6288B448 
  35      10C19F10 
  36 003c 6A08B6D8 		.ascii	"j\010\266\330\206*\024kD\244\343\017Am\223\320>\265"
  36      862A146B 
  36      44A4E30F 
  36      416D93D0 
  36      3EB5
  37 004e 0FA10B79 		.ascii	"\017\241\013y\250m\240\245\264P\321\322\364\334\271"
  37      A86DA0A5 
  37      B450D1D2 
  37      F4DCB9
  38 005d 33B39B65 		.ascii	"3\263\233eQg\331\373\373\235s\276\373\235s/\003\006"
  38      5167D9FB 
  38      FB9D73BE 
  38      FB9D732F 
  38      0306
  39 006f 95DF2EFA 		.ascii	"\225\337.\372\217\232\0007\251G\023\220\215/\000\234"
  39      8F9A0037 
  39      A9471390 
  39      8D2F009C 
  40 007f 8A33663C 		.ascii	"\2123f<\341 k\371\334\023\000Y\307\321\320\353\006\242"
  40      E1206BF9 
  40      DC130059 
  40      C7D1D0EB 
  40      06A2
  41 0091 1A00C210 		.ascii	"\032\000\302\020\343\006\016\035F\345\204o\203))\317"
  41      E3060E1D 
  41      46E5846F 
  41      832929CF 
  42 00a1 15AFAE3C 		.ascii	"\025\257\256<\305K\322\033\271\"\377]]Et\220\002nE\020"
  42      C54BD21B 
  42      B922FF5D 
  42      5D457490 
  42      026E4510 
  43 00b5 08EFD304 		.ascii	"\010\357\323\004\223~\307\214\265\014\264\255\2674\367"
  43      937EC78C 
  43      B50CB4AD 
  43      B734F7
ARM GAS  /tmp/ccq7hRlA.s 			page 3


  44 00c4 F16679A5 		.ascii	"\361fy\2450.\377#S\0079\203\266\327\261\364\306\275"
  44      302EFF23 
  44      53073983 
  44      B6D7B1F4 
  44      C6BD
  45 00d6 177317B0 		.ascii	"\027s\027\260\314\322`\360V\311\322\323=\333\264\326"
  45      CCD260F0 
  45      56C9D2D3 
  45      3DDBB4D6 
  46 00e6 F43AF38A 		.ascii	"\364:\363\212\253\253\337\335\234]^\301&\242HT\015\314"
  46      ABABDFDD 
  46      9C5D5EC1 
  46      26A24854 
  46      0DCC
  47 00f8 2098D460 		.ascii	" \230\324`\014l\234\306m\020\247\011K\320\236YO#\336"
  47      0C6C9CC6 
  47      6D10A709 
  47      4BD09E59 
  47      4F23DE
  48 010b 408DD144 		.ascii	"@\215\321D\215\331B\200)\002\320g\302\210\224\343I="
  48      8DD94280 
  48      2902D067 
  48      C28894E3 
  48      493D
  49 011d D766365E 		.ascii	"\327f6^\365\367\204\257\315{\324*\311\016!S=_\204\321"
  49      F5F784AF 
  49      CD7BD42A 
  49      C90E2153 
  49      3D5F84D1 
  50 0131 E2EC32DA 		.ascii	"\342\3542\332\370\031\311\335\213\261\017\340\271\034"
  50      F819C9DD 
  50      8BB10FE0 
  50      B91C
  51 013f 938D0ED6 		.ascii	"\223\215\016\326\010\364\015h\321\350ES\261\216\305"
  51      08F40D68 
  51      D1E84553 
  51      B18EC5
  52 014e 29781CE0 		.ascii	")x\034\34010\215\327\001\310\012\340\021<\374\345\336"
  52      31308DD7 
  52      01C80AE0 
  52      113CFCE5 
  52      DE
  53 015f 5FA33C72 		.ascii	"_\243<r\244\014x\371\031\017\321\224\322\307\347\241"
  53      A40C78F9 
  53      190FD194 
  53      D2C7E7A1 
  54 016f F0EDEC1F 		.ascii	"\360\355\354\037\317\002\027\333\341s)U\274u\232g\267"
  54      CF0217DB 
  54      E1732955 
  54      BC759A67 
  54      B7
  55 0180 0E4A1E28 		.ascii	"\016J\036(\020A\367W\300\314\020\026\222\213)\330\360"
  55      1041F757 
  55      C0CC1016 
  55      928B29D8 
  55      F0
  56 0191 47C3D367 		.ascii	"G\303\323g\3150v\202V\211\262o\377\270J\250\310\007"
ARM GAS  /tmp/ccq7hRlA.s 			page 4


  56      CD307682 
  56      5689B26F 
  56      FFB84AA8 
  56      C807
  57 01a3 0B7C247C 		.ascii	"\013|$|\350\201\012Xm\010\343\001\254\276*,\021\302"
  57      E8810A58 
  57      6D08E301 
  57      ACBE2A2C 
  57      11C2
  58 01b5 8C00D650 		.ascii	"\214\000\326P\025\306C\230\031\300\232\224\220\205x"
  58      15C64398 
  58      19C09A94 
  58      908578
  59 01c4 5871C5C9 		.ascii	"Xq\305\311k\363\367\360\334\260|$G<\252\2346\007\353"
  59      6BF3F7F0 
  59      DCB07C24 
  59      473CAA9C 
  59      3607EB
  60 01d7 181C7C55 		.ascii	"\030\034|U\321\251\265\272$\015\026\240\360\347\314"
  60      D1A9B5BA 
  60      240D16A0 
  60      F0E7CC
  61 01e6 F0A75B82 		.ascii	"\360\247[\202\012\010K\301\273\363\303\004\177\327\306"
  61      0A084BC1 
  61      BBF3C304 
  61      7FD7C6
  62 01f5 EB7E0D04 		.ascii	"\353~\015\004k\323\347\237%\266F\2633\277\223\226\232"
  62      6BD3E79F 
  62      25B646B3 
  62      33BF9396 
  62      9A
  63 0206 AD204904 		.ascii	"\255 I\004\235W\350\303 \375.\323\224t\342\372\262\266"
  63      9D57E8C3 
  63      20FD2ED3 
  63      9474E2FA 
  63      B2B6
  64 0218 C2173829 		.ascii	"\302\0278)/\356u\224\030e\321K\373_\006\373oh~\2130"
  64      2FEE7594 
  64      1865D14B 
  64      FB5F06FB 
  64      6F687E8B 
  65 022d 525C7A10 		.ascii	"R\\z\020\325WKT_\015\"PB\255\320\367\241\203\215Z\""
  65      D5574B54 
  65      5F0D2250 
  65      42ADD0F7 
  65      A1838D5A 
  66 0242 8DA552D3 		.ascii	"\215\245R\323\012y5a\261M\371\305\326\342\313;\373\343"
  66      0A793561 
  66      B14DF9C5 
  66      D6E2CB3B 
  66      FBE3
  67 0254 3F4FB15C 		.ascii	"?O\261\\b\231p\360\315\011\242\353\340z\002)f\232A7"
  67      629970F0 
  67      CD09A2EB 
  67      E07A0229 
  67      669A4137 
  68 0268 D6444A35 		.ascii	"\326DJ5\243O\351t\361\347\345X\020\006\"F-\"@\006\346"
ARM GAS  /tmp/ccq7hRlA.s 			page 5


  68      A34FE974 
  68      F1E7E558 
  68      10062246 
  68      2D224006 
  69 027d 1B14878D 		.ascii	"\033\024\207\215\225Y\372u\2412K6\336\360e{e\232\340"
  69      9559FA75 
  69      A1324B36 
  69      DEF0657B 
  69      659AE0
  70 0290 6569FA6D 		.ascii	"ei\372mR\245\351\233\265i\372\244\2765\272\323\245|"
  70      52A5E99B 
  70      B569FAA4 
  70      BE35BAD3 
  70      A57C
  71 02a2 FD5D96AF 		.ascii	"\375]\226\257\030\370W;^%e6~M\203(r\230\"\033ock\371"
  71      18F8573B 
  71      5E256536 
  71      7E4D8328 
  71      7298221B 
  72 02ba B534FC87 		.ascii	"\2654\374\207`\036\356\257D\327Z\245a7|%\307\324\003"
  72      601EEEAF 
  72      44D75AA5 
  72      61377C25 
  72      C7D403
  73 02cd 46A0EFE9 		.ascii	"F\240\357\351\255U\272\370\222\376\004\030\250\313f"
  73      AD55BAF8 
  73      92FE0418 
  73      A8CB66
  74 02dc 6E359358 		.ascii	"n5\223X|\346n\235zYP9R16\247RV\326\265ry\313\315\011"
  74      7CE66E9D 
  74      7A595039 
  74      523136A7 
  74      5256D6B5 
  75 02f5 4BF4F50C 		.ascii	"K\364\365\014\366\333\031G\244\004\260\374\000?\341"
  75      F6DB1947 
  75      A404B0FC 
  75      003FE1
  76 0304 0EB07CCF 		.ascii	"\016\260|\317;\032#\262\231L\266\337\032\310\346\362"
  76      3B1A23B2 
  76      994CB6DF 
  76      1AC8E6F2 
  77 0314 AEB5AFB3 		.ascii	"\256\265\257\263\243\275\343$\031\210l.}\344\370\236"
  77      A3BDE324 
  77      19886C2E 
  77      7DE4F89E 
  78 0324 4CAA0FCC 		.ascii	"L\252\017\314\343\366\321c\351\355k\320\351\223y\253"
  78      E3F6D163 
  78      E9ED6BD0 
  78      E99379AB 
  79 0334 BDA36B7F 		.ascii	"\275\243k\177\227\345\364\213\243\307z\322\226\310\270"
  79      97E5F48B 
  79      A3C77AD2 
  79      96C8B8
  80 0343 8E7BA457 		.ascii	"\216{\244W\010\262(E\217v\373\334A\227v\032;\272:\223"
  80      08B22845 
  80      8F76FBDC 
  80      4197761A 
ARM GAS  /tmp/ccq7hRlA.s 			page 6


  80      3BBA3A93 
  81 0357 DDB69B1E 		.ascii	"\335\266\233\036\3109;\222o\357\004\226\203X&\235\311"
  81      C8393B92 
  81      6FEF0496 
  81      8358269D 
  81      C9
  82 0368 E606E17F 		.ascii	"\346\006\341\177H\351{\366"
  82      48E97BF6 
  83              		.text
  84              		.section	.gnu.lto_chThdCreateFromMemoryPool.1e5d5f69587b85aa,"",%progbits
  85 0000 789C8D54 		.ascii	"x\234\215T]hTG\024>g\346\356n\314&&\261\306\032\321"
  85      5D685447 
  85      143E67E6 
  85      EE6ECC26 
  85      26B1C61A 
  86 0015 B828A562 		.ascii	"\270(\245b$WP\350\253\342\223H|0\012\366In&\213\271"
  86      245750E8 
  86      ABE29348 
  86      7C300AF6 
  86      496E268B 
  87 002a E0CD86BD 		.ascii	"\340\315\206\275\353O\220\342\270I\301\266>\004)\324"
  87      EB4F90E2 
  87      B849C1B6 
  87      3E0429D4 
  88 003a 2A418368 		.ascii	"*A\203h\251\006\245Ji@\037\256\277\230h\"\012R#\010"
  88      A906A54A 
  88      69401FAE 
  88      BF986822 
  88      0A522308 
  89 004e FB126A14 		.ascii	"\373\022j\024\004[\037\324\026\343\231\271?\331]\227"
  89      045B1FD4 
  89      16E399B9 
  89      3FD95D97 
  90 005e EA5D76E6 		.ascii	"\352]v\346\316\314\367\3159\363\235\357\016\003\006"
  90      CECCF7CD 
  90      39F39DEF 
  90      0E0306
  91 006d E5CF1AFA 		.ascii	"\345\317\032\372\377\035\003\370\235z\214\001\262\201"
  91      FF1D03F8 
  91      9D7A8C01 
  91      B281
  92 007b 09808355 		.ascii	"\011\200\203U\214\031c\034d5\2775\006 k8\032\376\274"
  92      8C19631C 
  92      6435BF35 
  92      06206B38 
  92      1AFEBC
  93 008e 81A85E00 		.ascii	"\201\250^\000\341\000\343\006\036\370\032\325&|\031"
  93      E100E306 
  93      1EF81AD5 
  93      267C19
  94 009d 0C4979A4 		.ascii	"\014Iy\2440uv\032\177\226^\377I\371\337\314\014\242"
  94      3075761A 
  94      7F965EFF 
  94      49F9DFCC 
  94      0CA2
  95 00af 8D147031 		.ascii	"\215\024p1\202@\330N\003L\351\216\031\245\031\370\\"
  95      8240D84E 
ARM GAS  /tmp/ccq7hRlA.s 			page 7


  95      034CE98E 
  95      19A519F8 
  95      5C
  96 00c0 6F72EC70 		.ascii	"or\354p\223<\231\037\220\357\210j#g\260\364S\230\336"
  96      933C991F 
  96      90EF886A 
  96      2367B0F4 
  96      5398DE
  97 00d3 80F7EFD8 		.ascii	"\200\367\357\330OX\3044\030,\237ez~\317\026\226R/0\257"
  97      4F58C434 
  97      182C9F65 
  97      7A7ECF16 
  97      96522F30 
  98 00e8 303333FC 		.ascii	"033\374\360\351\341\273x\236-A\240\\\015t\020\342`\341"
  98      F0E9E1BB 
  98      789E2D41 
  98      A05C0D74 
  98      10E260E1 
  99 00fc 295C0609 		.ascii	")\\\006\011\032`5M\307\222\324\304ki\310\352\250\341"
  99      1A60354D 
  99      C792D4C4 
  99      6B69C8EA 
  99      A8E1
 100 010e 0DD4188D 		.ascii	"\015\324\030\215\204\032\"\024=1\350\227r \345\217}"
 100      841A2214 
 100      3D31E897 
 100      7220E58F 
 100      7D
 101 011f AE83310B 		.ascii	"\256\2031\013O\353e\241\365\331J\255\222m\0332\325\363"
 101      4FEB65A1 
 101      F5D94AAD 
 101      926D1B32 
 101      D5F3
 102 0131 7BD05F18 		.ascii	"{\320_\030\231B\013\177!\311wb|?\274\225\207d\275\215"
 102      99420B7F 
 102      21C97762 
 102      7C3FBC95 
 102      8764BD8D 
 103 0145 09819A40 		.ascii	"\011\201\232@\223\206\215U\000\243\300|\224\2773a\001"
 103      93868D55 
 103      00A3C07C 
 103      94BF3361 
 103      01
 104 0156 6EC38DBF 		.ascii	"n\303\215\277\256\376\363=\217\350\352\200\274\370t"
 104      AEFEF33D 
 104      8FE8EA80 
 104      BCF874
 105 0165 DB684885 		.ascii	"\333hH\205\343\343\220\2773r\341M\260E\013\234\225R"
 105      E3E390BF 
 105      3372E14D 
 105      B0450B9C 
 105      9552
 106 0177 4599E367 		.ascii	"E\231\343g\327\341\207\242\035\022\000\004\335X\006"
 106      D7E187A2 
 106      1D120004 
 106      DD5806
 107 0186 8B87B030 		.ascii	"\213\207\2600\245\270\206=>zq\322\010cW\267\300J\033"
ARM GAS  /tmp/ccq7hRlA.s 			page 8


 107      A5B8863D 
 107      3E7A71D2 
 107      086357B7 
 107      C04A1B
 108 0199 AB8FC3B1 		.ascii	"\253\217\303\261\203D:A\211$)u\225P\215&u`h\271q\350"
 108      83443A41 
 108      89242975 
 108      95508D26 
 108      756068B9 
 109 01af FBA16F41 		.ascii	"\373\241oA\310#T\234\330z\303\321\012)F\261y\020;\251"
 109      C823549C 
 109      D87AC3D1 
 109      0A2946B1 
 109      79103BA9 
 110 01c3 A19BCA60 		.ascii	"\241\233\312`\265!\314\010`\265\025asCX,\200\325U\204"
 110      B521CC08 
 110      60B51561 
 110      7343582C 
 110      80D55584 
 111 01d7 F110160F 		.ascii	"\361\020\026\017`\015\252\000\371\252\320\243\205\301"
 111      600DAA00 
 111      F9AAD0A3 
 111      85C1
 112 01e5 5FC7AFE2 		.ascii	"_\307\257\342\221>y[\366{\344\265\2456\3261\330\374"
 112      913E795B 
 112      F67BE4B5 
 112      A536D631 
 112      D8FC
 113 01f7 319BAAB9 		.ascii	"1\233\252\271\272\024\275L@\376\345p\337\231E\201eB"
 113      BA14BD4C 
 113      40FEE570 
 113      DF994581 
 113      6542
 114 0209 EF78971F 		.ascii	"\357x\227\037\034\347+,\374M;&\230;\365\343\353\344"
 114      1CE72B2C 
 114      FC4D3B26 
 114      983BF5E3 
 114      EBE4
 115 021b E268F4DD 		.ascii	"\342h\364\335\013\222\321\317V\220\242\202d\021\376"
 115      0B92D1CF 
 115      5690A282 
 115      6411FE
 116 022a 99917EC7 		.ascii	"\231\221~\307hH\353\334\377\274\233\341\034\016\312"
 116      6848EBDC 
 116      FFBC9BE1 
 116      1C0ECA
 117 0239 A3EB6CAC 		.ascii	"\243\353l\254/\211>\273~>Xo\360\363Sn|r3rcc\344\306"
 117      2F893EBB 
 117      7E3E586F 
 117      F0F3536E 
 117      7C723372 
 118 0251 7922104C 		.ascii	"y\"\020L\315\320\363\215\215\237\371\022\371X\3720\346"
 118      CDD0F38D 
 118      8D9FF912 
 118      F958FA30 
 118      E6
 119 0262 6B85BC78 		.ascii	"k\205\274xh\322!m\322F-\357\310\243?\246\261Xb\231\264"
ARM GAS  /tmp/ccq7hRlA.s 			page 9


 119      68D2216D 
 119      D2462DEF 
 119      C8A33FA6 
 119      B1586299 
 120 0277 B191AC42 		.ascii	"\261\221\254B\031- \220\312\014\002\227$\"\245>g\332"
 120      192D2090 
 120      CA0C0297 
 120      2422A53E 
 120      67DA
 121 0289 2CF93BAF 		.ascii	",\371;\257+\260yevU\370\315\250\303|[x:\225\010\022"
 121      2BB07965 
 121      7655F8CD 
 121      A8C37C5B 
 121      783A9508 
 122 029e 84E82C0B 		.ascii	"\204\350,\013ETUMmR\331/*\257\357\364Dy}-\274\250\005"
 122      4554554D 
 122      6D52D92F 
 122      2AAFEFF4 
 122      44797D2D 
 123 02b5 FF6881E1 		.ascii	"\377h\201\341\377\012\374lP\025\370zi\201O\3246G\327"
 123      FF0AFC6C 
 123      5015F87A 
 123      69814FD4 
 123      3647D7
 124 02c8 47343DFA 		.ascii	"G4=\372\252\250\322Z\025A\307\373\260\330\026\216\320"
 124      AAA8D25A 
 124      1541C7FB 
 124      B0D8168E 
 124      D0
 125 02d9 4B14392C 		.ascii	"K\0249,\256\205\227\261\271\370\"0\364\2053\016\327"
 125      AE8597B1 
 125      B9F82230 
 125      F485330E 
 125      D7
 126 02ea 9E471789 		.ascii	"\236G\027\211*\340Z\270$\017\251\313\222@\367\351^W"
 126      2AE05AB8 
 126      240FA9CB 
 126      9240F7E9 
 126      5E57
 127 02fc BA683927 		.ascii	"\272h9'\001\003e\331\360\237\363I,~\345I\215\272\301"
 127      010365D9 
 127      F09FF349 
 127      2C7EE549 
 127      8DBAC1
 128 030f 506DA462 		.ascii	"Pm\244b4\265\266\232\031\327\314\346L7+L\321\325\331"
 128      34B5B69A 
 128      19D7CCE6 
 128      4C372B4C 
 128      D1D5D9
 129 0322 DB6D39B6 		.ascii	"\333m9\266h\025\300r=|\257\333\303r\235_\372\030\221"
 129      6815C072 
 129      3D7CAFDB 
 129      C3729D5F 
 129      FA1891
 130 0335 719C4CB7 		.ascii	"q\234L\267\331\223\311\346\\s\375\226\266\015m\373\210"
 130      D993C9E6 
 130      5C73FD96 
ARM GAS  /tmp/ccq7hRlA.s 			page 10


 130      B60D6DFB 
 130      88
 131 0346 2032D9F4 		.ascii	" 2\331\364\216=_9\255]\020\333c\355\332\235n)A\247\367"
 131      8E3D5F39 
 131      AD5D10DB 
 131      63EDDA9D 
 131      6E2941A7 
 132 035b E5CC0D6D 		.ascii	"\345\314\015m\355\033\333M\273[\354\332\335\2316\205"
 132      ED1BDB4D 
 132      BB5BECDA 
 132      DD993685 
 133 036b E3DAEE8E 		.ascii	"\343\332\356\216\235B\020c6z\264\332\345\366\272\264"
 133      9D421063 
 133      367AB4DA 
 133      E5F6BAB4 
 134 037b 52DFD6BE 		.ascii	"R\337\326\276%\325a\271\351\236\254\275*\365\305j`Y"
 134      25D561B9 
 134      E99EACBD 
 134      2AF5C56A 
 134      6059
 135 038d 48386927 		.ascii	"H8i'\223\355\205\367C9\224g"
 135      93ED85F7 
 135      43399467 
 136              		.text
 137              		.section	.gnu.lto_.symbol_nodes.1e5d5f69587b85aa,"",%progbits
 138 0000 789C45CD 		.ascii	"x\234E\315\273\015\2000\014\004\320;;\254\301\252\216"
 138      BB0D8030 
 138      0C04D03B 
 138      3BACC1AA 
 138      8E
 139 0011 940244C5 		.ascii	"\224\002D\305\0044Y\203\237\030\200\031\220\230\003"
 139      04345983 
 139      9F188019 
 139      909803
 140 0020 44F888B8 		.ascii	"D\370\210\2709\275\273\302\002A\215\357\244\247\001"
 140      39BDBBC2 
 140      02418DEF 
 140      A4A701
 141 002f ED0A9875 		.ascii	"\355\012\230u5e\2401\2233M^zON4\315\032i.k\241\025\277"
 141      3565A031 
 141      93334D5E 
 141      7A4F4E34 
 141      CD1A692E 
 142 0047 140E613B 		.ascii	"\024\016a;S*Bu\224\232^\356w\262x\373\264\304\307\202"
 142      532A4275 
 142      949A5EEE 
 142      77B278FB 
 142      B4C4C782 
 143 005b D81C252E 		.ascii	"\330\034%.\024((\275"
 143      142828BD 
 144              		.text
 145              		.section	.gnu.lto_.refs.1e5d5f69587b85aa,"",%progbits
 146 0000 789C6362 		.ascii	"x\234cb`b`d\200\002\000\000F\000\006"
 146      60626064 
 146      80020000 
 146      460006
 147              		.text
ARM GAS  /tmp/ccq7hRlA.s 			page 11


 148              		.section	.gnu.lto_.decls.1e5d5f69587b85aa,"",%progbits
 149 0000 789CBD5B 		.ascii	"x\234\275[{\224\024\325\231\277\267\252{f\232\031\221"
 149      7B9414D5 
 149      99BFB7AA 
 149      7B669A19 
 149      91
 150 0011 E8D133E3 		.ascii	"\350\3213\343\352:&f\3431+C\214Ip\367$j\310F<\2119\236"
 150      EA3A2666 
 150      E3312B43 
 150      8C4970F7 
 150      246AC846 
 151 0029 B09EDDFD 		.ascii	"\260\236\335\375g;eO1\323K\277\266\273\206\201\375\307"
 151      673B654F 
 151      31D34BBF 
 151      B6BB8681 
 151      FDC7
 152 003b 62C09180 		.ascii	"b\300\221\200\217a&d \"\016/\021\225 \"\210\200\330"
 152      8F612664 
 152      20220E2F 
 152      11952022 
 152      8880D8
 153 004e 60684718 		.ascii	"`hG\030\201a\3441\"\241Q\224\005\343\310C\230\014\201"
 153      8161E431 
 153      22A15194 
 153      05E3C843 
 153      980C81
 154 0061 9D7CF7AB 		.ascii	"\235|\367\253\252\356\252\333U\325\325C\334:\347V\327"
 154      AAEEAADB 
 154      55D5D543 
 154      DC3AE756 
 154      D7
 155 0072 E3DEDFF7 		.ascii	"\343\336\337\367\376\356wo\315\010D U\002!\303pD\356"
 155      FEEE776F 
 155      CD084420 
 155      550221C3 
 155      7044EE
 156 0085 26E44765 		.ascii	"&\344Ge\204\210\004~\211\366K\241\301#\342'\332\301"
 156      8488047E 
 156      89F64BA1 
 156      C123E227 
 156      DAC1
 157 0097 AE97405B 		.ascii	"\256\227@[\012/\336\201\326\003-\013\355SJ\012\016\326"
 157      0A2FDE81 
 157      D6032D0B 
 157      ED534A0A 
 157      0ED6
 158 00a9 AF1ADA32 		.ascii	"\257\032\3322h\243\241UA\273\007\332>\350;\000\277\247"
 158      68A3A155 
 158      41BB07DA 
 158      3EE83B00 
 158      BFA7
 159 00bb A8867B0C 		.ascii	"\250\206{\014~O\300\357Fhmp\275\031~?\203\337\317\241"
 159      7E4FC0EF 
 159      46686D70 
 159      BD197E3F 
 159      83DFCFA1 
 160 00cf 7D01ED34 		.ascii	"}\001\3554\264\367X_h\313u\236\316P\215\227n\370-\207"
ARM GAS  /tmp/ccq7hRlA.s 			page 12


 160      B4F7585F 
 160      68CB759E 
 160      CE508D97 
 160      6EF82D87 
 161 00e3 DFFDF07B 		.ascii	"\337\375\360{\000\332!h\037@;\014\355\0104\037\264\200"
 161      00DA2168 
 161      1F403B0C 
 161      ED08341F 
 161      B480
 162 00f5 CE0BE3F3 		.ascii	"\316\013\343\363,\264\013\320\206t\336\231\014\002\310"
 162      2CB40BD0 
 162      8674DE99 
 162      0C02C8
 163 0104 EF1734BC 		.ascii	"\357\0274\274\005p\377;h\317@[\004\355Yh\317q\2621\331"
 163      0570FF3B 
 163      68CF405B 
 163      04ED5968 
 163      CF71B231 
 164 0119 FFCE412E 		.ascii	"\377\316A.&\017\223\255\002\360N\350r5\300\357\363\320"
 164      260F93AD 
 164      02F04EE8 
 164      7235C0EF 
 164      F3D0
 165 012b 56D091CB 		.ascii	"V\320\221\313\0300\311\270\326A\316\377\320\373-\325"
 165      1830C9B8 
 165      D641CEFF 
 165      D0FB2DD5 
 166 013b ED514CD6 		.ascii	"\355QL\3264\334o\207\3666\264?@\333\301\306\013VYo&"
 166      34DC6F87 
 166      F636B43F 
 166      40DBC1C6 
 166      0B56596F 
 167 0150 8BD5AE6C 		.ascii	"\213\325\256lv\307\251Ct\241\232\236\245\016\017?J\256"
 167      76C7A943 
 167      74A19A9E 
 167      A50E0F3F 
 167      4AAE
 168 0162 27F35538 		.ascii	"'\363U8\272ZU\225*\225d\216\252\266\260\233\211\335"
 168      BA5A5595 
 168      2A95648E 
 168      AAB6B09B 
 168      89DD
 169 0174 A3AF21F3 		.ascii	"\243\257!\363\330\233\332nP\313\277S\211\216\016\220"
 169      D89BDA6E 
 169      50CBBF53 
 169      898E0E90 
 170 0184 2E1F5E55 		.ascii	".\037^U\005\310O\000\356\233d\271\252\266e\207.\365"
 170      05C84F00 
 170      EE9B64B9 
 170      AAB66587 
 170      2EF5
 171 0196 89AA5A21 		.ascii	"\211\252Z!\321\345\364\032p\300\177\246\344v\262\012"
 171      D1E5F41A 
 171      70C07FA6 
 171      E476B20A 
 172 01a6 06B601D4 		.ascii	"\006\266\001\3247l<\211\024\005\026\310\317(\221\350"
 172      376C3C89 
ARM GAS  /tmp/ccq7hRlA.s 			page 13


 172      140516C8 
 172      CF2891E8 
 173 01b6 0B8027D1 		.ascii	"\013\200'\321\225\364v\215\222\232=\334z\244\205\316"
 173      95F4768D 
 173      929A3DDC 
 173      7AA485CE 
 174 01c6 0046B577 		.ascii	"\000F\265wD\177ks\334B\272`@zp\347\"\252vm\2476\024"
 174      447F6B73 
 174      DC42BA60 
 174      407A70E7 
 174      22AA766D 
 175 01dd EF350856 		.ascii	"\3575\010V\230$\351z\362\001\224\344e\224$A-\004t\220"
 175      9824E97A 
 175      F20194E4 
 175      65942441 
 175      2D047490 
 176 01f1 AE7B9D50 		.ascii	"\256{\235P\004\242R6dM\001\337\231=\006\337k<\360\335"
 176      04A25236 
 176      644D01DF 
 176      993D06DF 
 176      6B3CF0DD 
 177 0205 92EE9DF3 		.ascii	"\222\356\235\363l\015\343[\242\313h%\340\316\313\341"
 177      6C0DE35B 
 177      A2CB6825 
 177      E0CECBE1 
 178 0215 EA746B0D 		.ascii	"\352tk\015\272>B\214K\355\320;X\361\366\355\254j\223"
 178      BA3E428C 
 178      4BEDD03B 
 178      58F1F6ED 
 178      AC6A93
 179 0228 0CB0DF96 		.ascii	"\014\260\337\226\014Vk\307\252v\230\245\225\350Z\372"
 179      0C566BC7 
 179      AA7698A5 
 179      95E85AFA 
 180 0238 4D38BF4A 		.ascii	"M8\277Jo\201\363kp\316\035\002\304\240aR;\325\025\027"
 180      6F81F36B 
 180      70CE1D02 
 180      C4A06152 
 180      3BD51517 
 181 024c 6168E722 		.ascii	"ah\347\"TI\200\314\316\273(\261\025A\267f\307\334?\364"
 181      544980CC 
 181      CEBB28B1 
 181      1541B766 
 181      C7DC3FF4 
 182 0260 D299A8F5 		.ascii	"\322\231\250\365\2150L \357S\253A\275C\015=\265c\033"
 182      8D304C20 
 182      EF53AB41 
 182      BD430D3D 
 182      B5631B
 183 0273 6D41A8CD 		.ascii	"mA\250\315\010uq\304P\235\355[\356F\037\333\212@k\005"
 183      087571C4 
 183      509DED5B 
 183      EE461FDB 
 183      8A406B05 
 184 0287 2B9044CB 		.ascii	"+\220D\313s\222\347\356\215\016\014\015_\353\027,\317"
 184      7392E7EE 
 184      8D0E0C0D 
ARM GAS  /tmp/ccq7hRlA.s 			page 14


 184      5FEB172C 
 184      CF
 185 0298 5F4DBEE2 		.ascii	"_M\276\342\356\002\331\"p\246\263s\230\012'\323\251"
 185      EE02D922 
 185      70A6B373 
 185      980A27D3 
 185      A9
 186 02a9 D90F327F 		.ascii	"\331\0172\177\024X\276\021\215\010*s\322\221@\266!\255"
 186      1458BE11 
 186      8D082A73 
 186      D29140B6 
 186      21AD
 187 02bb B7F9087A 		.ascii	"\267\371\010z\363@\217\021Ao{\212\240\365;;\321]\212"
 187      F3408F11 
 187      416F7B8A 
 187      A0F53B3B 
 187      D15D8A
 188 02ce 6634C1A0 		.ascii	"f4\301\240\177+\322?\213\364\273y\372\227\017~\370\230"
 188      7F2BD23F 
 188      8BF4BB79 
 188      FA970F7E 
 188      F898
 189 02e0 4EBFDB13 		.ascii	"N\277\333\023\3757\016\376\246\220\276D\177t\235\233"
 189      FD370EFE 
 189      A690BE44 
 189      7F749D9B 
 190 02f0 6FBC79E0 		.ascii	"o\274y\340\3233:\225\036\014\325\347E\336;\356\251\264"
 190      D3333A95 
 190      1E0CD5E7 
 190      45DE3BEE 
 190      A9B4
 191 0302 DA0FEE4D 		.ascii	"\332\017\356M\035\004\262F4\370\037Q\246\000A\007\346"
 191      1D04B246 
 191      34F81F51 
 191      A6004107 
 191      E6
 192 0313 D3F6996A 		.ascii	"\323\366\231j\3678\203\207WKF\254\265hb\313A\314=\032"
 192      F7388387 
 192      574B46AC 
 192      B56862CB 
 192      41CC3D1A 
 193 0327 D87A2F60 		.ascii	"\330z/`\216\256\324\222\336j\006\333X2\230\225\263\275"
 193      8EAED492 
 193      DE6A06DB 
 193      58329895 
 193      B3BD
 194 0339 66B0CD5E 		.ascii	"f\260\315^\300\3068s\266\317\014\266\265d0+g\357\233"
 194      C0C63873 
 194      B6CF0CB6 
 194      B564302B 
 194      67EF9B
 195 034c C1B67901 		.ascii	"\301\266y\001\253v\346\354\200\031lG\311`V\316\016\231"
 195      AB76E6EC 
 195      80196C47 
 195      C96056CE 
 195      0E99
 196 035e C1DEF502 		.ascii	"\301\336\365\002Vk\303Y\356\260\033\307\334\372\035"
ARM GAS  /tmp/ccq7hRlA.s 			page 15


 196      566BC359 
 196      EEB01BC7 
 196      DCFA1D
 197 036d 9AF37381 		.ascii	"\232\363s\201\364\210FN(\321\247I\036c\217Xj\016\263"
 197      F488464E 
 197      28D1A749 
 197      1E638F58 
 197      6A0EB3
 198 0380 C80D53F8 		.ascii	"\310\015S\370\321\245\264C\213\013m\032\355\363\202"
 198      D1A5B443 
 198      8B0B6D1A 
 198      EDF382
 199 038f E8E2306D 		.ascii	"\350\3420m\273Lsr\177\311`V\263,f`\226\\\243\317H\331"
 199      BB4C7372 
 199      7FC96056 
 199      B32C6660 
 199      965CA3CF 
 200 03a5 15E9EA05 		.ascii	"\025\351\352\005\371tWa`\261\272L\313mP\246\011\271"
 200      F9745761 
 200      60B1BA4C 
 200      CB6D50A6 
 200      09B9
 201 03b7 CE6A75B5 		.ascii	"\316ju\265}_\211\236\304\271\375\024\015\344\270\320"
 201      7D5F899E 
 201      C4B9FD14 
 201      0DE4B8D0 
 202 03c7 AE8DAB61 		.ascii	"\256\215\253aV\220\222\243\242]\305\207\000\356C\235"
 202      569092A3 
 202      A25DC587 
 202      00EE439D 
 203 03d7 3CE184D9 		.ascii	"<\341\204\331\023\216{Q\223K(\354uRS\272U\235Mg\254"
 203      138E7B51 
 203      934B28EC 
 203      755253BA 
 203      559D4D67 
 204 03ec BDD1B53C 		.ascii	"\275\321\265<|\363\300\300\022\275\012\370\002'\357"
 204      7CF3C0C0 
 204      12BD0AF8 
 204      0227EF
 205 03fb 93A26D15 		.ascii	"\223\242m\025\340\011l\350\251=FIq\026\301\276\0349"
 205      E0096CE8 
 205      A93D4649 
 205      7116C1BE 
 205      1C39
 206 040d 5857E7BE 		.ascii	"XW\347\276\033U\237D\317#\320\345\202I#\300\225\024"
 206      1B559F44 
 206      CF23D0E5 
 206      824923C0 
 206      9514
 207 041f 01EBA41F 		.ascii	"\001\353\244\037\010\344/\206\215\303j\306\257t\214"
 207      08E42F86 
 207      8DC36AC6 
 207      AF748C
 208 042e 93E907CC 		.ascii	"\223\351\007\314\246\237\355+\325\364\226\010\201\""
 208      A69FED2B 
 208      D5F49608 
 208      8122
ARM GAS  /tmp/ccq7hRlA.s 			page 16


 209 043c E482D0A9 		.ascii	"\344\202\320\251\246g\210&_w\015\014( wm\375!\226j\027"
 209      A6678826 
 209      5F770D0C 
 209      2820776D 
 209      FD21966A 
 210 0451 51AF4FFB 		.ascii	"Q\257O\373l\015\344\001h\350\251\325\337F\240\313\010"
 210      6C0DE401 
 210      68E8A9D5 
 210      DF46A0CB 
 210      08
 211 0462 B460C440 		.ascii	"\264`\304@\235\355\213\307#\020\013Y\001VM\274\245)"
 211      9DED8BC7 
 211      23100B59 
 211      01564DBC 
 211      A529
 212 0474 67696AB5 		.ascii	"gij\265@.\352\364\240\373\252\372\012\344E\336\\\026"
 212      402EEAF4 
 212      A0FBAAFA 
 212      0AE445DE 
 212      5C16
 213 0486 715CA686 		.ascii	"q\\\246\206\\\276\275\324N\317\265\250\013\306\225`"
 213      5CBEBDD4 
 213      4ECFB5A8 
 213      0BC69560 
 214 0496 AFB9BABD 		.ascii	"\257\271\272\275\036C\355\274R\240\235\313%\252\007"
 214      1E43EDBC 
 214      52A09DCB 
 214      25AA07
 215 04a5 4A8C92C5 		.ascii	"J\214\222\305\250\260\212\321:<\0021\336\322\304\230"
 215      A8B08AD1 
 215      3A3C0231 
 215      DED2C498 
 216 04b5 83626CFD 		.ascii	"\203bl\375\033\210\221)Y\2141&1p\001\373\033m\366\273"
 216      1B889129 
 216      598C3126 
 216      317001FB 
 216      1B6DF6BB 
 217 04c9 96B4BB97 		.ascii	"\226\264\273\227\360\214\237\247\205k-\345sz\377nZ\253"
 217      F08C9FA7 
 217      856B2DE5 
 217      737AFF6E 
 217      5AAB
 218 04db 3D2EBE66 		.ascii	"=.\276f?\267\333\264\320S=-\364v\345\026z\355\250\262"
 218      3FB7DBB4 
 218      D0533D2D 
 218      F476E516 
 218      7AEDA8B2 
 219 04ef 5D7601E6 		.ascii	"]v\001\346\005\252kh\367u,\221\316G\230\336\221\302"
 219      05AA6B68 
 219      F7752C91 
 219      CE4798DE 
 219      91C2
 220 0501 643BF7BD 		.ascii	"d;\367\275\256\305\351\002\004\352/0a\031g\3012\253"
 220      AEC5E902 
 220      04EA2F30 
 220      611967C1 
 220      32AB
ARM GAS  /tmp/ccq7hRlA.s 			page 17


 221 0513 05E19651 		.ascii	"\005\341\226Q\3723&\310G\365'\354\246\234\374\277\217"
 221      FA3326C8 
 221      47F527EC 
 221      A69CFCBF 
 221      8F
 222 0524 13C8C7C8 		.ascii	"\023\310\307\310>\263^\211\365\227\341=\255\307;\214"
 222      3EB35E89 
 222      F597E13D 
 222      ADC73B8C 
 223 0534 DA4933D0 		.ascii	"\332I3\320\251+BlI?\367\264\261?r\017\253\236\316]!"
 223      A92B426C 
 223      493FF7B4 
 223      B13F720F 
 223      AB9ECE5D 
 224 0549 DC963D7C 		.ascii	"\334\226=|Y\300-\333\226;L;F~\177\345\211\177Ds/\025"
 224      59C02DDB 
 224      963B4C3B 
 224      467E7FE5 
 224      897F4473 
 225 055f 183B170B 		.ascii	"\030;\027\013\314\275\214r\3136\366\300\324\305)\220"
 225      CCBD8C72 
 225      CB36F6C0 
 225      D4C52990 
 226 056f 9608A619 		.ascii	"\226\010\246\031\360I\377\025\232!s\2363C\307\025!\266"
 226      F049FF15 
 226      9A21739E 
 226      3343C715 
 226      21B6
 227 0581 A4877433 		.ascii	"\244\207t3\024[d\377\312\300\252BA\236A\262/\012\334"
 227      145B64FF 
 227      CAC0AA42 
 227      419E41B2 
 227      2F0ADC
 228 0594 1A7BED67 		.ascii	"\032{\355g\331V\275\"b\357\212g\212\303\237\004\324"
 228      D956BD22 
 228      62EF8A67 
 228      8AC39F04 
 228      D4
 229 05a5 F62A6DB7 		.ascii	"\366*m\267N\242\033\250\240\243\332\025JE\325\223\376"
 229      4EA21BA8 
 229      A0A3DA15 
 229      4A45D593 
 229      FE
 230 05b6 A3DC3DAE 		.ascii	"\243\334=\256\224\234\2231r\316\032\324\345v?ot\226"
 230      949C9331 
 230      72CE1AD4 
 230      E5763F6F 
 230      7496
 231 05c8 442C462F 		.ascii	"D,F/)\350\272sJ\362\272`\341\017'\247Zev\252\236+s\001"
 231      29E8BA73 
 231      4AF2BA60 
 231      E10F27A7 
 231      5A6576AA 
 232 05e0 70AACC72 		.ascii	"p\252\314r\315\251\2129\201J\315\353\030X?!\345\015"
 232      CDA98A39 
 232      814ACDEB 
 232      18583F21 
ARM GAS  /tmp/ccq7hRlA.s 			page 18


 232      E50D
 233 05f2 BC170C0D 		.ascii	"\274\027\014\015t?\256\357\201l\360\344\005\347m\274"
 233      743FAEEF 
 233      816CF0E4 
 233      05E76DBC 
 234 0602 60C308BD 		.ascii	"`\303\010\275\000\\\372\344\273\024\341\264u\331\205"
 234      005CFAE4 
 234      BB14E1B4 
 234      75D985
 235 0611 1C93255A 		.ascii	"\034\223%ZA\207\273$\227\252\030\315\277\322\375\237"
 235      4187BB24 
 235      97AA18CD 
 235      BFD2FD9F 
 236 0621 B01973AB 		.ascii	"\260\031s\253\300\366\241/\025\270\226\246\031\223k"
 236      C0F6A12F 
 236      15B896A6 
 236      19936B
 237 0630 E5D528D1 		.ascii	"\345\325(\321\215\002[\250\275!\260M\330Mx\336\"\230"
 237      8D025BA8 
 237      BD21B04D 
 237      D84D78DE 
 237      2298
 238 0642 B6629DDC 		.ascii	"\266b\235\334\342\315\274[Ht\035\257F\257\313\345\242"
 238      E2CDBC5B 
 238      48741DAF 
 238      46AFCBE5 
 238      A2
 239 0653 64D69BBD 		.ascii	"d\326\233\275oV\331\225y\337\007\231\335>\334Y,aWx\327"
 239      6F56D995 
 239      79DF0799 
 239      DD3EDC59 
 239      2C615778 
 240 0668 0E2370DF 		.ascii	"\016#p\337\306\300\235[\306kw3__y\331$\355\034\251("
 240      C6C09D5B 
 240      C66B7733 
 240      5F5F79D9 
 240      24ED1CA9 
 241 067d B943208B 		.ascii	"\271C \213\313<\254qjm\264\236\233h\017\350eZ\321\235"
 241      CB3CAC71 
 241      6A6DB49E 
 241      9B680FE8 
 241      655AD19D 
 242 0691 5663E63A 		.ascii	"Vc\346:\376\304D\234\271\336EO\353\342t\341a\303v\015"
 242      FEC4449C 
 242      B9DE454F 
 242      EBE274E1 
 242      61C3760D 
 243 06a5 0EE9E1C3 		.ascii	"\016\351\341\303\370pkn\303\266\307C\030\267\244\327"
 243      F8706B6E 
 243      C3B6C743 
 243      18B7A4D7 
 244 06b5 593E7918 		.ascii	"Y>y\030\036\330\343\356\201\256\372\264\230\260\307"
 244      1ED8E3EE 
 244      81AEFAB4 
 244      98B0C7
 245 06c4 1420BB31 		.ascii	"\024 \2731@\366\230\203B oy\321\375mN\256\010ih\237"
 245      40F69883 
ARM GAS  /tmp/ccq7hRlA.s 			page 19


 245      42206F79 
 245      D1FD6D4E 
 245      AE086968 
 246 06d9 F6A9C9F8 		.ascii	"\366\251\311\370x\364\016\217g\227\210,xf[\266\244\333"
 246      78F40E8F 
 246      6797882C 
 246      78665BB6 
 246      A4DB
 247 06eb FA707B48 		.ascii	"\372p{H\363\321\275^\230\033\347\014\366\\\207\241\334"
 247      F3D1BD5E 
 247      981BE70C 
 247      F65C87A1 
 247      DC
 248 06fc F558A1F4 		.ascii	"\365X\241\364{\301\033\357$lK\372\365\276E:\236\366"
 248      7BC11BEF 
 248      246C4BFA 
 248      F5BE453A 
 248      9EF6
 249 070e 65E558C9 		.ascii	"e\345X\311xV\376\366wX\352\271S^\340\356\365l\373\374"
 249      7856FEF6 
 249      7758EAB9 
 249      535EE0EE 
 249      F56CFBFC 
 250 0722 77449850 		.ascii	"wD\230Pq\027\353%\374B\365:\236\267\343\371#<\037\307"
 250      7117EB25 
 250      FC42F53A 
 250      9EB7E3F9 
 250      233C1FC7 
 251 0736 F3A778FE 		.ascii	"\363\247x\376\034\317Cx\236\205i\364\327x~\012\317\335"
 251      1CCF4378 
 251      9E8569F4 
 251      D7787E0A 
 251      CFDD
 252 0748 78EEC573 		.ascii	"x\356\305s\037\236\367\343\371 \236\373\275$\\\2175"
 252      1F9EF7E3 
 252      F9209EFB 
 252      BD245C8F 
 252      35
 253 0759 E0527A3D 		.ascii	"\340Rz=^\211\004\277\346\332\316&\263?\316o\243\250"
 253      5E8904BF 
 253      E6DACE26 
 253      B33FCE6F 
 253      A3A8
 254 076b B92F1A4C 		.ascii	"\271/\032L\307z\234\367\016\246k\266\250\352\030\211"
 254      C77A9CF7 
 254      0EA66BB6 
 254      A8EA1889 
 255 077b 1EC1409F 		.ascii	"\036\301@\237_n\033\350.@\002Y\206c\262\\\244\247;\036"
 255      5F6E1BE8 
 255      2E400259 
 255      8663B25C 
 255      A4A73B1E 
 256 078f AF624BA6 		.ascii	"\257bK\246\254\247(\237\377\316\242\302\212\321\362"
 256      ACA7289F 
 256      FFCEA2C2 
 256      8AD1F2
 257 079e 091A5DC0 		.ascii	"\011\032]\300I\027\237\010\026]x\317\372o\375%\373O"
ARM GAS  /tmp/ccq7hRlA.s 			page 20


 257      49179F08 
 257      165D78CF 
 257      FA6FFD25 
 257      FB4F
 258 07b0 6B50FE13 		.ascii	"kP\376\023\030P\037\225\363I\337\317\345|\2775\347\373"
 258      18501F95 
 258      F349DFCF 
 258      E57CBF35 
 258      E7FB
 259 07c2 03F90B3D 		.ascii	"\003\371\013=\347\353L\030Cs\267'\264\272"
 259      E7EB4C18 
 259      4373B727 
 259      B4BA
 260 07d0 4FA20F8B 		.ascii	"O\242\017\213\256>\240\263\266n8[\263\012Y;\216\261"
 260      AE3EA0B3 
 260      B66E385B 
 260      B30A593B 
 260      8EB1
 261 07e2 39AFC2CA 		.ascii	"9\257\302\312\032\267\024a*pR\317\200P\351`\201\202"
 261      1AB71461 
 261      2A7052CF 
 261      8050E960 
 261      8182
 262 07f4 770279AE 		.ascii	"w\002y\256\3020\347\310\226\023\275\203\331\033\337"
 262      C230E7C8 
 262      9613BD83 
 262      D91BDF
 263 0803 784D55D7 		.ascii	"xMU\327\376J\337\023H\227\231\275\307\222\356\364\242"
 263      FE4ADF13 
 263      489799BD 
 263      C792EEF4 
 263      A2
 264 0814 6673E626 		.ascii	"fs\346&\346*g`\222\024\310\013\234\234\305Q\004\262"
 264      E62A6760 
 264      9214C80B 
 264      9C9CC551 
 264      04B2
 265 0826 01C77C59 		.ascii	"\001\307|Y\260\275\220\021k\265\307\305=\360`\353\323"
 265      B0BD9011 
 265      6BB5C7C5 
 265      3DF060EB 
 265      D3
 266 0837 37A85D4F 		.ascii	"7\250]OT\033{\270\333s\220#[6\034\315\214\202z\261\350"
 266      541B7BB8 
 266      DB739023 
 266      5B361CCD 
 266      8C827AB1 
 267 084c DF0630C6 		.ascii	"\337\0060\306.\362\241\323\237aE\336EO\221s\270\325"
 267      2EF2A1D3 
 267      9F6145DE 
 267      454F9173 
 267      B8D5
 268 085e 66ADA5E9 		.ascii	"f\255\245\351\322\311\035.\027Vt\027Gh\356\226\364\221"
 268      D2C91D2E 
 268      17567417 
 268      4768EE96 
 268      F491
ARM GAS  /tmp/ccq7hRlA.s 			page 21


 269 0870 8C91F2B5 		.ascii	"\214\221\362\265\010\352F\275\225\202W\313\011&\220"
 269      08EA46BD 
 269      958257CB 
 269      092690
 270 087f DD57A8FB 		.ascii	"\335W\250\373A\357\272o\0219\335\237A\335\263\307\305"
 270      41EFBA6F 
 270      1139DD9F 
 270      41DDB3C7 
 270      C5
 271 0890 757FAED5 		.ascii	"u\177\256\325\230\236>\304\020\355C\276\331\330\221"
 271      989E3EC4 
 271      10ED43BE 
 271      D9D891
 272 089f E9F23CA7 		.ascii	"\351\362<\247\313C%\343\025\352\362\310Huiw\230cL\242"
 272      CB4325E3 
 272      15EAF2C8 
 272      48756977 
 272      98634CA2 
 273 08b3 17B05E1A 		.ascii	"\027\260^\032\304\231m\010\3173DK\355\364\021\237J\354"
 273      C4996D08 
 273      CF33444B 
 273      EDF4119F 
 273      4AEC
 274 08c5 683BFF81 		.ascii	"h;\377\201@z\321\375\254\324\321\026;'y,\353\362\310"
 274      407AD1FD 
 274      ACD4D116 
 274      3B27792C 
 274      EBF2C8
 275 08d8 74E94D90 		.ascii	"t\351M\220\254\251\360\373\010\005\371\030E8\215\347"
 275      ACA9F0FB 
 275      0805F918 
 275      45388DE7 
 276 08e8 39A28789 		.ascii	"9\242\207\211\372\303|\034\361I>\177\257\355\360\344"
 276      FAC37C1C 
 276      F1493E7F 
 276      AFEDF0E4 
 277 08f8 EE3752F3 		.ascii	"\3567R\363{\267\351\316\341O\002\030\310<\361z+U\374"
 277      7BB7E9CE 
 277      E14F0218 
 277      C83CF17A 
 277      2B55FC
 278 090b DAEF6D5A 		.ascii	"\332\357mZ\331\274r[\365\0138\255\264\211\314g\347\006"
 278      D9BC725B 
 278      F50B38AD 
 278      B489CC67 
 278      E706
 279 091d 5CA71546 		.ascii	"\\\247\025F\312\211\215\371\242\363\264R\370\316\314"
 279      CA898DF9 
 279      A2F3B452 
 279      F8CECC
 280 092c 2CE1A641 		.ascii	",\341\246A\201tpl\334J\226\251j{v\307\251\323~X\310"
 280      8174706C 
 280      DC4A96A9 
 280      6A7B76C7 
 280      A9D37E58 
 281 0941 F98C085B 		.ascii	"\371\214\010[\211\335\226\320\233m\231\322M\242\215"
 281      89DD96D0 
ARM GAS  /tmp/ccq7hRlA.s 			page 22


 281      9B6D99D2 
 281      4DA28D
 282 0950 5587E489 		.ascii	"U\207\344\211\232=$\372\270(\270\016C\253i\303\322\007"
 282      9A3D24FA 
 282      B828B80E 
 282      43AB69C3 
 282      D207
 283 0962 33AB2108 		.ascii	"3\253!\010\005\315t\022\375\023-2\224\346)\236c\024"
 283      05CD7412 
 283      FD132D32 
 283      94E6299E 
 283      6314
 284 0974 37E2AEFB 		.ascii	"7\342\256\373\266\"\303\320\017t\212\375\231\225\032"
 284      B622C3D0 
 284      0F748AFD 
 284      99951A
 285 0983 45CD22AB 		.ascii	"E\315\"\253\213\310\310z\031\024\373\030E\254\215_)"
 285      8BC8C87A 
 285      1914FB18 
 285      45AC8D5F 
 285      29
 286 0994 324AD3FA 		.ascii	"2J\323\372?\220\025XWg\236\254\231\303(j\033\220\316"
 286      3F901558 
 286      57679EAC 
 286      99C3286A 
 286      1B90CE
 287 09a7 E3746B76 		.ascii	"\343tkv\212\226\277\030\324\376^\020\377zlFvx\370f\316"
 287      8A96BF18 
 287      D4FE5E10 
 287      FF7A6C46 
 287      7678F866 
 288 09bc 7319A863 		.ascii	"s\031\250cq+\026\257Z\235v\010u\017\356\177\351L\265"
 288      712B16AF 
 288      5A9D7608 
 288      750FEE7F 
 288      E94CB5
 289 09cf B6507F5E 		.ascii	"\266P\177^d\231\341H\300\276fu\202\301\275.>\355\317"
 289      6499E148 
 289      C0BE6675 
 289      82C1BD2E 
 289      3EEDCF
 290 09e2 CB60B5BA 		.ascii	"\313`\265\272\312S\336\357\260\233s=\254\211?CNW\027"
 290      CA53DEEF 
 290      B09B733D 
 290      AC893F43 
 290      4E5717
 291 09f5 4C3952AD 		.ascii	"L9R\255\366\324\303\214clC\275,\346\027\303\253K\237"
 291      F6D4C38C 
 291      636C43BD 
 291      2CE617C3 
 291      AB4B9F
 292 0a08 70728793 		.ascii	"pr\207\223\235\030~\316\374\032\231U#\236\327\346s\363"
 292      9D187ECE 
 292      FC1A9955 
 292      239ED7E6 
 292      73F3
 293 0a1a DA20EAA1 		.ascii	"\332 \352\241\024\274Z\013\336\202\014\277/\357}\251"
ARM GAS  /tmp/ccq7hRlA.s 			page 23


 293      14BC5A0B 
 293      DE820CBF 
 293      2FEF7DA9 
 294 0a2a B09ECF9D 		.ascii	"\260\236\317\235\214%\256d\367^\242\377\271Z+\321_\303"
 294      8C25AE64 
 294      F75EA2FF 
 294      B95A2BD1 
 294      5FC3
 295 0a3c C89D39CA 		.ascii	"\310\2359\3125\227\256w\311\245\233\\r)\367\016*T\301"
 295      3597AE77 
 295      C9A59B5C 
 295      7229F70E 
 295      2A54C1
 296 0a4f 833D5CF7 		.ascii	"\203=\\\367\200-\370\371`\200u\260\210\353`\221M\202"
 296      802DF8F9 
 296      608075B0 
 296      88EB6091 
 296      4D82
 297 0a61 6BF1BCCE 		.ascii	"k\361\274\316\313T\270B\264\231\012]\247>=\217\025\233"
 297      CB54B842 
 297      B4990A5D 
 297      A73E3D8F 
 297      159B
 298 0a73 17DA46D9 		.ascii	"\027\332F\331\316\013+^<V\246\315\013+P\363/b\267\245"
 298      CE0B2B5E 
 298      3C56A6CD 
 298      0B2B50F3 
 298      2F62B7A5 
 299 0a87 A253F65B 		.ascii	"\242S\366[a\312\231\013\301{\2505\275;\0174\245\367"
 299      61CA990B 
 299      C17BA835 
 299      BD3B0F34 
 299      A5F7
 300 0a99 F4FE9DBF 		.ascii	"\364\376\235\277\327\362\2649\305;\0175\245xu\220\345"
 300      D7F2B439 
 300      C53B0F35 
 300      A5787590 
 300      E5
 301 0aaa E936B4E3 		.ascii	"\3516\264\343b\321}\2309\275?\243\261\212\323{W\221"
 301      62D17D98 
 301      39BD3FA3 
 301      B18AD37B 
 301      5791
 302 0abc 719604DF 		.ascii	"q\226\004\337\267\223K\360N\343t\373\275U\230\340\263"
 302      B7934BF0 
 302      4EE374FB 
 302      BD5598E0 
 302      B3
 303 0acd 6DEC03DD 		.ascii	"m\354\003\335\343t\336\314\256n\3654[\331z/P\272\371"
 303      E374DECC 
 303      AE6EF534 
 303      5BD97A2F 
 303      50BAF9
 304 0ae0 20636CE4 		.ascii	" cl\344n\332m\026\3020\355q\2266X\333e\313\332\346\225"
 304      6EDA6D16 
 304      C230ED71 
 304      963658DB 
ARM GAS  /tmp/ccq7hRlA.s 			page 24


 304      65CBDAE6 
 305 0af5 433F7CF6 		.ascii	"C?|\366Uu\326\257\325\377\033~\224\2260\001\275W|\002"
 305      5575D6AF 
 305      D5FF1B7E 
 305      94963001 
 305      BD577C02 
 306 0b09 821C434D 		.ascii	"\202\034CMI<\235+4\331\237\221\350K\326\313\260L\260"
 306      493C9D2B 
 306      34D99F91 
 306      E84BD6CB 
 306      B04CB0
 307 0b1c 9968AC7D 		.ascii	"\231h\254}%\332\013\341T\264\033\353\330\307O\012\317"
 307      25DA0BE1 
 307      54B41BEB 
 307      D8C74F0A 
 307      CF
 308 0b2d 6813529F 		.ascii	"h\023R\237\247ia]k\247\221`M^\3357\342\204\275)\203"
 308      A769615D 
 308      6BA79160 
 308      4D5EDD37 
 308      E284BD29 
 309 0b42 9B8C03F8 		.ascii	"\233\214\003\370\255c\023\032\246\024\260Z\013\330>"
 309      AD63131A 
 309      A614B05A 
 309      0BD83E
 310 0b51 3358DA0B 		.ascii	"3X\332\013\230\313\207\223\303\231\337\232v\030\215"
 310      98CB8793 
 310      C399DF9A 
 310      76188D
 311 0b60 202C05CF 		.ascii	" ,\005\317\312\334Y\2159\255\362\332\341\2059\227?\335"
 311      CADC598D 
 311      39ADF2DA 
 311      E1853997 
 311      3FDD
 312 0b72 FB4BCE0C 		.ascii	"\373K\316\014\246\210-\005\256\2263\257\221\225\337"
 312      A6882D05 
 312      AE9633AF 
 312      9195DF
 313 0b81 C7ACBC1F 		.ascii	"\307\254\274\037\363\361\001<\037\302\363\007x>\214"
 313      F3F1013C 
 313      1FC2F307 
 313      783E8C
 314 0b90 E723D6B5 		.ascii	"\347#\326\265\327..\234\014W2a\347}\216\224\206\356"
 314      D72E2E9C 
 314      0C573261 
 314      E77D8E94 
 314      86EE
 315 0ba2 145B7BCC 		.ascii	"\024[{\314E\203%\270\217:\004\367Q\333\340\356\035L"
 315      458325B8 
 315      8F3A04F7 
 315      51DBE0EE 
 315      1D4C
 316 0bb4 DFB6D029 		.ascii	"\337\266\320)\270]\346\366c|\332a\313\001\307\245\231"
 316      B85DE6F6 
 316      637CDA61 
 316      CB01C7A5 
 316      99
ARM GAS  /tmp/ccq7hRlA.s 			page 25


 317 0bc5 CD5C2F90 		.ascii	"\315\\/\220\363\016\214~b\313\350\241\227\216\335\276"
 317      F30E8C7E 
 317      62CBE8A1 
 317      978EDDBE 
 318 0bd5 50DD6EF3 		.ascii	"P\335n\363\0373\256|\236\340\371\\!V\362\214\314\256"
 318      1F33AE7C 
 318      9EE0F95C 
 318      2156F28C 
 318      CCAE
 319 0be7 B467E4A4 		.ascii	"\264g\344\244\225\021\256\3048\346Rb\234\312[\347k\244"
 319      9511AEC4 
 319      38E65262 
 319      9CCA5BE7 
 319      6BA4
 320 0bf9 4DDB1A59 		.ascii	"M\333\032Y0Z\373KK}\314\030c\214\240\217\371L\374\032"
 320      305AFB4B 
 320      4B7DCC18 
 320      638CA08F 
 320      F94CFC1A 
 321 0c0d 5E593E80 		.ascii	"^Y>\200c\017'*\177\022\363\177\315Y\025\310_P+\351Z"
 321      630F272A 
 321      7F12F37F 
 321      CD5915C8 
 321      5F502BE9 
 322 0c22 8EF278A3 		.ascii	"\216\362x\243_\271\216\363y\311\224\007\034(\227\331"
 322      5FB98EF3 
 322      79C99407 
 322      1C2897D9 
 323 0c32 ABEA3D17 		.ascii	"\253\352=\027U}\221W\0257j\237C4\263Q\247\035Gu\273"
 323      557D9157 
 323      15376A9F 
 323      4334B351 
 323      A71D4775 
 324 0c47 D03A931F 		.ascii	"\320:\223\037\305\274*}:\333\277\351\314\177\276\374"
 324      C5BC2A7D 
 324      3ADBBFE9 
 324      CC7FBEFC 
 325 0c57 AAAAA2FB 		.ascii	"\252\252\242\373\317\230\305\007\200\313\274{Nw\254"
 325      CF98C507 
 325      80CBBC7B 
 325      4E77AC
 326 0c66 BC2F09E4 		.ascii	"\274/\011\344\367\005\216\2045\002\034/\250\"\242\261"
 326      F7058E84 
 326      35021C2F 
 326      A822A2B1 
 327 0c76 FE67A13E 		.ascii	"\376g\241>\260\370\331\227\205\016\017\254]\352\334"
 327      B0F8D997 
 327      850E0FAC 
 327      5DEADC
 328 0c85 5F63FC8B 		.ascii	"_c\374\213\330-\032=\201l\364D\341\002Oa\320\226\302"
 328      D82D1A3D 
 328      816CF444 
 328      E1024F61 
 328      D096C2
 329 0c98 FCAD6726 		.ascii	"\374\255g&\016\345\205\277\305\273\360\027\371\250\332"
 329      0EE585BF 
 329      C5BBF017 
ARM GAS  /tmp/ccq7hRlA.s 			page 26


 329      F9A8DA
 330 0ca7 8C338425 		.ascii	"\2143\204%\252\006,\254bO\201\\\252\324\235S\257\272"
 330      AA062CAC 
 330      624F815C 
 330      AAD49D53 
 330      AFBA
 331 0cb9 7AB5AA4B 		.ascii	"z\265\252K\373\217\2369Ul\304\220c\331\245\177\024\326"
 331      FB8F9E39 
 331      556CC490 
 331      63D9A57F 
 331      14D6
 332 0ccb 253E37E3 		.ascii	"%>7\343\241\352\234\304C\274\304\227l%\356\337\324\333"
 332      A1EA9CC4 
 332      43BCC497 
 332      6C25EEDF 
 332      D4DB
 333 0cdd 6836B7A1 		.ascii	"h6\267\241\326\266*/jm\361qDf\372\354\015\367y\241\341"
 333      D6B62A2F 
 333      6A6DF171 
 333      4466FAEC 
 333      0DF779A1 
 334 0cf2 1679A2F0 		.ascii	"\026y\242\360\030O\241\325\347\226\202N\270\370\372"
 334      184FA1D5 
 334      E796824E 
 334      B8F8FA
 335 0d01 6C5FCED7 		.ascii	"l_\316\327\277N\226\250{\367fw\274\264\220\316\316\252"
 335      BF4E96A8 
 335      7BF76677 
 335      BCB490CE 
 335      CEAA
 336 0d13 6D20FB30 		.ascii	"m \37305\347\206\377\315\347\206\275\271j\351\006\034"
 336      35E786FF 
 336      CDE786BD 
 336      B96AE906 
 336      1C
 337 0d24 EA9042F8 		.ascii	"\352\220B\370n\022\235\353+5\207<\341\263\317!5\026"
 337      6E129DEB 
 337      2B35873C 
 337      E1B3CF21 
 337      3516
 338 0d36 0518BDD8 		.ascii	"\005\030\275\330\327\212*n\341\301s!\220\265UT\0377"
 338      D78A2A6E 
 338      E1C17321 
 338      90B55554 
 338      1F37
 339 0d48 8A5DD48C 		.ascii	"\212]\324\214\035[\027O\325%\225\272T2T\027j\254\237"
 339      1D5B174F 
 339      D52595BA 
 339      54325417 
 339      6AAC9F
 340 0d5b 1E93A2E1 		.ascii	"\036\223\242\341\320\330\020\371\373\334\233p,\024i"
 340      D0D810F9 
 340      FBDC9B70 
 340      2C1469
 341 0d6a AA97E16D 		.ascii	"\252\227\341mjzJ\231\236\220Sc\033I\205\322\230\224"
 341      6A7A4A99 
 341      9E905363 
ARM GAS  /tmp/ccq7hRlA.s 			page 27


 341      1B4985D2 
 341      9894
 342 0d7c A5FAA052 		.ascii	"\245\372\240Rv\377/\036\256\235@\002\241\306\240\366"
 342      76FF2F1E 
 342      AE9D4002 
 342      A1C6A0F6 
 343 0d8c E806BB81 		.ascii	"\350\006\273\201\200\014\203\256\326z\244\202\377\335"
 343      800C83AE 
 343      D67AA482 
 343      FFDD
 344 0d9a 2437C941 		.ascii	"$7\311AeLn\220\376\310\027\223\247)\276DR\236\352\307"
 344      654C6E90 
 344      FEC81793 
 344      A729BE44 
 344      529EEAC7 
 345 0dae FB3B35AC 		.ascii	"\373;5\254P<\032\215\307\352\022\361\244\222\252\273"
 345      503C1A8D 
 345      C7EA12F1 
 345      A492AABB 
 346 0dbe EF970F4E 		.ascii	"\357\227\017Nxp\032{\226\010G\344d\252\356\376\011\023"
 346      78701A7B 
 346      960847E4 
 346      64AAEEFE 
 346      0913
 347 0dd0 8084C158 		.ascii	"\200\204\301X\271\222H\206\343A\345\246\272\246T2\307"
 347      B9924886 
 347      E341E5A6 
 347      BAA65432 
 347      C7
 348 0de1 424C6E8E 		.ascii	"BLn\216\204\037\251K)\365\341\230\302\330o\202\337\357"
 348      841FA94B 
 348      29F5E198 
 348      C2D86F82 
 348      DFEF
 349 0df3 DE1954EE 		.ascii	"\336\031T\356\260\353\026\225B\215\341\230\\\027\254"
 349      B0EB1695 
 349      428DE198 
 349      5C17AC
 350 0e02 97274B4D 		.ascii	"\227'KM\021%h\200\217\012\006\215\201>F\246\212\261"
 350      11256880 
 350      8F0A068D 
 350      813E46A6 
 350      8AB1
 351 0e14 140CC563 		.ascii	"\024\014\305c\012\360\375\015\027f\033C\361\244\014"
 351      0AF0FD0D 
 351      17661B43 
 351      F1A40C
 352 0e23 00953800 		.ascii	"\000\2258\000 B\312\264o\025\353\037\234\372\203(\343"
 352      2042CAB4 
 352      6F15EB1F 
 352      9CFA8328 
 352      E3
 353 0e34 35293748 		.ascii	"5)7H\311hP\021\222w\011\311\357\011\311\357\013\311"
 353      C9685011 
 353      927709C9 
 353      EF09C9EF 
 353      0BC9
ARM GAS  /tmp/ccq7hRlA.s 			page 28


 354 0e46 1F08C9F1 		.ascii	"\037\010\311\361B\362n1\371\235q\320\276#D\222B*!\002"
 354      42F26E31 
 354      F99D71D0 
 354      BE234492 
 354      422A2102 
 355 0e5a A81F4490 		.ascii	"\250\037D\220\223\376x\244^N\372B\215R\322\007\006\225"
 355      93FE78A4 
 355      5E4EFA42 
 355      8D52D207 
 355      0695
 356 0e6c 47A59429 		.ascii	"G\245\224)R$\334\020\013*(\371\367\357\012*\272,\354"
 356      5224DC10 
 356      0B2A28F9 
 356      F7EF0A2A 
 356      BA2CEC
 357 0e7f B2AC597A 		.ascii	"\262\254YzDJ\311\025JJ\221\024\260K9{1>\250\004\264"
 357      444AC915 
 357      4A4A9114 
 357      B04B397B 
 357      313EA804 
 358 0e94 2E70E5C7 		.ascii	".p\345\3077\345J4^\017\357\375\223#RC\252\\I\312\223"
 358      37E54A34 
 358      5E0FEFFD 
 358      93235243 
 358      AA5C49CA 
 359 0ea9 53A009F6 		.ascii	"S\240\011\366\343\217\246\032`\240\256\034\030\250_"
 359      E38FA61A 
 359      60A0AE1C 
 359      18A85F
 360 0eb8 9525EBA7 		.ascii	"\225%\353\247\303\253\012yZX\011\301\340\262f%\376\310"
 360      C3AB0A79 
 360      5A5809C1 
 360      E0B26625 
 360      FEC8
 361 0eca 7F25AED1 		.ascii	"\177%\256\321\335\007\206\312I9\026b\240\315\212\222"
 361      DD0786CA 
 361      49391662 
 361      A0CD8A92 
 362 0eda 4C94A7E4 		.ascii	"L\224\247\344\230\002\003\252\3005RrTJ4\202\"j\354\\"
 362      980203AA 
 362      C0355272 
 362      544A3482 
 362      226AEC5C 
 363 0eee 4A66BAF1 		.ascii	"Jf\272\361\207b`\035\021\316\000\014\217\022\0250.\332"
 363      8762601D 
 363      11CE000C 
 363      8F121530 
 363      2EDA
 364 0f00 04E6B01B 		.ascii	"\004\346\260\033\023U\246\2611\361\346\230\234,\307"
 364      1355A6B1 
 364      31F1E698 
 364      9C2CC7
 365 0f0f 5E4C7605 		.ascii	"^Lv\005\036'*\345\251\214\260\224\232\002\217\344fv"
 365      1E272AE5 
 365      A98CB094 
 365      9A028FE4 
 365      6676
ARM GAS  /tmp/ccq7hRlA.s 			page 29


 366 0f21 419B461B 		.ascii	"A\233F\033\316\031\011\247\200\314\325&weO\312\233\245"
 366      CE1909A7 
 366      80CCD526 
 366      77654FCA 
 366      9BA5
 367 0f33 B0128E35 		.ascii	"\260\022\2165T\000\277\350\256\025rB\216\201\2075\224"
 367      5400BFE8 
 367      AE157242 
 367      8E818735 
 367      94
 368 0f44 0324EB01 		.ascii	"\003$\353\001\246\223\"\314Q\374\321D<\036\271\325b"
 368      A69322CC 
 368      51FCD144 
 368      3C1EB9D5 
 368      62
 369 0f55 F1788AF9 		.ascii	"\361x\212\371Z\236\273FYJ\000{WE\345h<9=\310n\203J\245"
 369      5A9EBB46 
 369      594A007B 
 369      5745E568 
 369      3C393DC8 
 370 0f6d E9EE4EF4 		.ascii	"\351\356N\364U6\250!\024\252\003\227\270#\026\217\311"
 370      5536A821 
 370      14AA0397 
 370      B823168F 
 370      C9
 371 0f7e 77C8D223 		.ascii	"w\310\322#\341\272\273\306\216\037{g\016\014\374\034"
 371      E1BABBC6 
 371      8E1F7B67 
 371      0E0CFC1C 
 372 0f8e 5C17C0CA 		.ascii	"\\\027\300\312R\341\377\001\335~\313\2250\220\320\335"
 372      52E1FF01 
 372      DD7ECB95 
 372      3090D0DD 
 373 0f9e 93D1     		.ascii	"\223\321"
 374 0fa0 6E9095C9 		.ascii	"n\220\225\311M\261\020\330\256\"\221\214O\015\203#]"
 374      4DB110D8 
 374      AE22918C 
 374      4F0D8323 
 374      5D
 375 0fb1 85BCC009 		.ascii	"\205\274\300\011\256\201%\323\235\037\275\312\237\220"
 375      AE8125D3 
 375      9D1FBDCA 
 375      9F90
 376 0fbf 1AE4946F 		.ascii	"\032\344\224orR\226}\354\245\217Q\3655\245\344\3722"
 376      7252967D 
 376      ECA58F51 
 376      F535A5E4 
 376      FA32
 377 0fd1 AD9B08FA 		.ascii	"\255\233\010\372\270\311\306 \27261l\031\321\240rm\250"
 377      B8C9C620 
 377      BA36316C 
 377      19D1A072 
 377      6DA8
 378 0fe3 F15F1BEB 		.ascii	"\361_\033\353'\300cE\376i2\036\235\010p~\206\231\020"
 378      27C06345 
 378      FE69321E 
 378      9D08707E 
ARM GAS  /tmp/ccq7hRlA.s 			page 30


 378      869910
 379 0ff6 12934529 		.ascii	"\022\223E)\331p[1Q\230"
 379      D9705B31 
 379      5198
 380 1000 A253263D 		.ascii	"\242S&=\262{`\032\1774n*\301\003\345\220\022d\\V\345"
 380      B27B601A 
 380      7F346E2A 
 380      C103E590 
 380      12645C56 
 381 1015 250E2A35 		.ascii	"%\016*5\034\361\007\021\341!\030)D\023\340\221\223B"
 381      1CF10711 
 381      E1211829 
 381      4413E091 
 381      9342
 382 1027 8DFF264D 		.ascii	"\215\377&M\221\233\022\223\374\315,`|\315`n?\033\233"
 382      919B1293 
 382      FCCD2C60 
 382      7CCD606E 
 382      3F1B9B
 383 103a B85677E8 		.ascii	"\270Vw\350z9\025J\206\023J\034\024u\235\011nRS\212\371"
 383      7A39154A 
 383      86134A1C 
 383      14759D09 
 383      6E52538A 
 384 104f 865CFFC0 		.ascii	"\206\\\377\3005\241F&\324}\221H<t\037\323\236\\_\031"
 384      35A14626 
 384      D47D9148 
 384      3C741FD3 
 384      9E5C5F19 
 385 1063 6A6444F0 		.ascii	"jdD\360\221\255\257Og\002A\212\2354=\365\363xhJ\000"
 385      91ADAF4F 
 385      6702418A 
 385      9D343DF5 
 385      F378684A 
 386 1078 B308749E 		.ascii	"\263\010t\236\362m\2136 \011\325Mxp\322\003\223\362"
 386      F26D8B36 
 386      2009D54D 
 386      7870D203 
 386      93F2
 387 108a 63A3A970 		.ascii	"c\243\251p*\010\356\302\024\022\204\210R\202?\276o\322"
 387      2A08EEC2 
 387      14128488 
 387      52823FBE 
 387      6FD2
 388 109c BF3CF4CB 		.ascii	"\277<\364\313\007\256\222\"\315\322\364\024\304i\004"
 388      07AE9222 
 388      CDD2F414 
 388      C46904
 389 10ab 529D7FAA 		.ascii	"R\235\177\252\024i\222+\221\302\3031\206\254e\252&\274"
 389      1469922B 
 389      91C2C331 
 389      86AC65AA 
 389      26BC
 390 10bd AE080651 		.ascii	"\256\010\006QA\301\253\214\213\261\337\273\373\256\357"
 390      41C1AB8C 
 390      8BB1DFBB 
 390      FBAEEF
ARM GAS  /tmp/ccq7hRlA.s 			page 31


 391 10cc FE15D400 		.ascii	"\376\025\324\000\351Q"
 391      E951
 392              		.text
 393              		.section	.gnu.lto_.symtab.1e5d5f69587b85aa,"",%progbits
 394 0000 63685468 		.ascii	"chThdCreateFromHeap\000\000\000\000\000\000\000\000"
 394      64437265 
 394      61746546 
 394      726F6D48 
 394      65617000 
 395 001b 00000000 		.ascii	"\000\000\000\000\241\000\000\000chThdCreateFromMemo"
 395      A1000000 
 395      63685468 
 395      64437265 
 395      61746546 
 396 0036 7279506F 		.ascii	"ryPool\000\000\000\000\000\000\000\000\000\000\000\000"
 396      6F6C0000 
 396      00000000 
 396      00000000 
 396      0000
 397 0048 A2010000 		.ascii	"\242\001\000\000chSchWakeupS\000\000\002\000\000\000"
 397      63685363 
 397      6857616B 
 397      65757053 
 397      00000200 
 398 005e 00000000 		.ascii	"\000\000\000\000\000\000\307\001\000\000chThdCreate"
 398      0000C701 
 398      00006368 
 398      54686443 
 398      72656174 
 399 0073 53757370 		.ascii	"SuspendedI\000\000\002\000\000\000\000\000\000\000\000"
 399      656E6465 
 399      64490000 
 399      02000000 
 399      00000000 
 400 0088 00CC0100 		.ascii	"\000\314\001\000\000chHeapAllocAligned\000\000\002\000"
 400      00636848 
 400      65617041 
 400      6C6C6F63 
 400      416C6967 
 401 00a3 00000000 		.ascii	"\000\000\000\000\000\000\000\000\340\001\000\000chP"
 401      00000000 
 401      E0010000 
 401      636850
 402 00b2 6F6F6C41 		.ascii	"oolAlloc\000\000\002\000\000\000\000\000\000\000\000"
 402      6C6C6F63 
 402      00000200 
 402      00000000 
 402      000000
 403 00c5 00E60100 		.ascii	"\000\346\001\000\000"
 403      00
 404              		.text
 405              		.section	.gnu.lto_.opts,"",%progbits
 406 0000 272D6D63 		.ascii	"'-mcpu=cortex-m3' '-mno-thumb-interwork' '-mthumb' "
 406      70753D63 
 406      6F727465 
 406      782D6D33 
 406      2720272D 
ARM GAS  /tmp/ccq7hRlA.s 			page 32


 407 0033 272D6767 		.ascii	"'-ggdb' '-O2' '-fomit-frame-pointer' '-falign-funct"
 407      64622720 
 407      272D4F32 
 407      2720272D 
 407      666F6D69 
 408 0066 696F6E73 		.ascii	"ions=16' '-ffunction-sections' '-fdata-sections' '-"
 408      3D313627 
 408      20272D66 
 408      66756E63 
 408      74696F6E 
 409 0099 666E6F2D 		.ascii	"fno-common' '-flto'\000"
 409      636F6D6D 
 409      6F6E2720 
 409      272D666C 
 409      746F2700 
 410              		.text
 411              		.cfi_sections	.debug_frame
 412              		.section	.text.chThdCreateFromHeap,"ax",%progbits
 413              		.align	2
 414              		.p2align 4,,15
 415              		.global	chThdCreateFromHeap
 416              		.thumb
 417              		.thumb_func
 418              		.type	chThdCreateFromHeap, %function
 419              	chThdCreateFromHeap:
 420              	.LFB188:
 421              		.file 1 "../os/rt/src/chdynamic.c"
 422              		.loc 1 84 0
 423              		.cfi_startproc
 424              		@ args = 8, pretend = 0, frame = 24
 425              		@ frame_needed = 0, uses_anonymous_args = 0
 426              	.LVL0:
 427 0000 70B5     		push	{r4, r5, r6, lr}
 428              		.cfi_def_cfa_offset 16
 429              		.cfi_offset 4, -16
 430              		.cfi_offset 5, -12
 431              		.cfi_offset 6, -8
 432              		.cfi_offset 14, -4
 433 0002 1446     		mov	r4, r2
 434 0004 86B0     		sub	sp, sp, #24
 435              		.cfi_def_cfa_offset 40
 436              		.loc 1 88 0
 437 0006 0822     		movs	r2, #8
 438              	.LVL1:
 439              		.loc 1 84 0
 440 0008 1E46     		mov	r6, r3
 441 000a 0D46     		mov	r5, r1
 442              		.loc 1 88 0
 443 000c FFF7FEFF 		bl	chHeapAllocAligned
 444              	.LVL2:
 445              		.loc 1 89 0
 446 0010 C8B1     		cbz	r0, .L2
 447              		.loc 1 93 0
 448 0012 0A9B     		ldr	r3, [sp, #40]
 449              		.loc 1 96 0
 450 0014 0544     		add	r5, r5, r0
 451              	.LVL3:
ARM GAS  /tmp/ccq7hRlA.s 			page 33


 452              		.loc 1 93 0
 453 0016 0493     		str	r3, [sp, #16]
 454 0018 0B9B     		ldr	r3, [sp, #44]
 455 001a 0295     		str	r5, [sp, #8]
 456 001c 0593     		str	r3, [sp, #20]
 457              	.LVL4:
 458 001e 0094     		str	r4, [sp]
 459 0020 0190     		str	r0, [sp, #4]
 460 0022 0396     		str	r6, [sp, #12]
 461              	.LBB34:
 462              	.LBB35:
 463              	.LBB36:
 464              	.LBB37:
 465              		.file 2 "../os/common/ext/CMSIS/include/cmsis_gcc.h"
 466              		.loc 2 264 0
 467 0024 2023     		movs	r3, #32
 468              	@ 264 "../os/common/ext/CMSIS/include/cmsis_gcc.h" 1
 469 0026 83F31188 		MSR basepri, r3
 470              	@ 0 "" 2
 471              		.thumb
 472              	.LBE37:
 473              	.LBE36:
 474              	.LBE35:
 475              	.LBE34:
 476              		.loc 1 109 0
 477 002a 6846     		mov	r0, sp
 478              	.LVL5:
 479 002c FFF7FEFF 		bl	chThdCreateSuspendedI
 480              	.LVL6:
 481              		.loc 1 110 0
 482 0030 0123     		movs	r3, #1
 483 0032 80F82130 		strb	r3, [r0, #33]
 484              		.loc 1 111 0
 485 0036 0021     		movs	r1, #0
 486              		.loc 1 109 0
 487 0038 0446     		mov	r4, r0
 488              	.LVL7:
 489              		.loc 1 111 0
 490 003a FFF7FEFF 		bl	chSchWakeupS
 491              	.LVL8:
 492              	.LBB38:
 493              	.LBB39:
 494              	.LBB40:
 495              	.LBB41:
 496              	.LBB42:
 497              		.loc 2 264 0
 498 003e 0023     		movs	r3, #0
 499              	@ 264 "../os/common/ext/CMSIS/include/cmsis_gcc.h" 1
 500 0040 83F31188 		MSR basepri, r3
 501              	@ 0 "" 2
 502              		.thumb
 503              	.LBE42:
 504              	.LBE41:
 505              	.LBE40:
 506              	.LBE39:
 507              	.LBE38:
 508              		.loc 1 114 0
ARM GAS  /tmp/ccq7hRlA.s 			page 34


 509 0044 2046     		mov	r0, r4
 510              	.LVL9:
 511              	.L2:
 512              		.loc 1 115 0
 513 0046 06B0     		add	sp, sp, #24
 514              		@ sp needed
 515 0048 70BD     		pop	{r4, r5, r6, pc}
 516              		.cfi_endproc
 517              	.LFE188:
 518              		.size	chThdCreateFromHeap, .-chThdCreateFromHeap
 519 004a 00BFAFF3 		.section	.text.chThdCreateFromMemoryPool,"ax",%progbits
 519      0080
 520              		.align	2
 521              		.p2align 4,,15
 522              		.global	chThdCreateFromMemoryPool
 523              		.thumb
 524              		.thumb_func
 525              		.type	chThdCreateFromMemoryPool, %function
 526              	chThdCreateFromMemoryPool:
 527              	.LFB189:
 528              		.loc 1 146 0
 529              		.cfi_startproc
 530              		@ args = 4, pretend = 0, frame = 24
 531              		@ frame_needed = 0, uses_anonymous_args = 0
 532              	.LVL10:
 533 0000 F0B5     		push	{r4, r5, r6, r7, lr}
 534              		.cfi_def_cfa_offset 20
 535              		.cfi_offset 4, -20
 536              		.cfi_offset 5, -16
 537              		.cfi_offset 6, -12
 538              		.cfi_offset 7, -8
 539              		.cfi_offset 14, -4
 540 0002 87B0     		sub	sp, sp, #28
 541              		.cfi_def_cfa_offset 48
 542              		.loc 1 146 0
 543 0004 0F46     		mov	r7, r1
 544 0006 1646     		mov	r6, r2
 545 0008 1C46     		mov	r4, r3
 546 000a 0546     		mov	r5, r0
 547              		.loc 1 152 0
 548 000c FFF7FEFF 		bl	chPoolAlloc
 549              	.LVL11:
 550              		.loc 1 153 0
 551 0010 D0B1     		cbz	r0, .L6
 552              		.loc 1 160 0
 553 0012 6B68     		ldr	r3, [r5, #4]
 554              		.loc 1 157 0
 555 0014 0C9A     		ldr	r2, [sp, #48]
 556              		.loc 1 160 0
 557 0016 0344     		add	r3, r3, r0
 558              		.loc 1 157 0
 559 0018 0293     		str	r3, [sp, #8]
 560 001a 0097     		str	r7, [sp]
 561 001c 0190     		str	r0, [sp, #4]
 562 001e 0396     		str	r6, [sp, #12]
 563 0020 0494     		str	r4, [sp, #16]
 564 0022 0592     		str	r2, [sp, #20]
ARM GAS  /tmp/ccq7hRlA.s 			page 35


 565              	.LVL12:
 566              	.LBB43:
 567              	.LBB44:
 568              	.LBB45:
 569              	.LBB46:
 570              		.loc 2 264 0
 571 0024 2023     		movs	r3, #32
 572              	@ 264 "../os/common/ext/CMSIS/include/cmsis_gcc.h" 1
 573 0026 83F31188 		MSR basepri, r3
 574              	@ 0 "" 2
 575              		.thumb
 576              	.LBE46:
 577              	.LBE45:
 578              	.LBE44:
 579              	.LBE43:
 580              		.loc 1 173 0
 581 002a 6846     		mov	r0, sp
 582              	.LVL13:
 583 002c FFF7FEFF 		bl	chThdCreateSuspendedI
 584              	.LVL14:
 585              		.loc 1 174 0
 586 0030 0223     		movs	r3, #2
 587 0032 80F82130 		strb	r3, [r0, #33]
 588              		.loc 1 175 0
 589 0036 0564     		str	r5, [r0, #64]
 590              		.loc 1 176 0
 591 0038 0021     		movs	r1, #0
 592              		.loc 1 173 0
 593 003a 0446     		mov	r4, r0
 594              	.LVL15:
 595              		.loc 1 176 0
 596 003c FFF7FEFF 		bl	chSchWakeupS
 597              	.LVL16:
 598              	.LBB47:
 599              	.LBB48:
 600              	.LBB49:
 601              	.LBB50:
 602              	.LBB51:
 603              		.loc 2 264 0
 604 0040 0023     		movs	r3, #0
 605              	@ 264 "../os/common/ext/CMSIS/include/cmsis_gcc.h" 1
 606 0042 83F31188 		MSR basepri, r3
 607              	@ 0 "" 2
 608              		.thumb
 609              	.LBE51:
 610              	.LBE50:
 611              	.LBE49:
 612              	.LBE48:
 613              	.LBE47:
 614              		.loc 1 179 0
 615 0046 2046     		mov	r0, r4
 616              	.LVL17:
 617              	.L6:
 618              		.loc 1 180 0
 619 0048 07B0     		add	sp, sp, #28
 620              		@ sp needed
 621 004a F0BD     		pop	{r4, r5, r6, r7, pc}
ARM GAS  /tmp/ccq7hRlA.s 			page 36


 622              		.cfi_endproc
 623              	.LFE189:
 624              		.size	chThdCreateFromMemoryPool, .-chThdCreateFromMemoryPool
 625 004c AFF30080 		.text
 626              	.Letext0:
 627              		.file 3 "/usr/lib/gcc/arm-none-eabi/4.8.2/include/stddef.h"
 628              		.file 4 "/usr/include/newlib/machine/_default_types.h"
 629              		.file 5 "/usr/include/newlib/stdint.h"
 630              		.file 6 "../os/common/ports/ARMCMx/compilers/GCC/chtypes.h"
 631              		.file 7 "../os/rt/include/chsystypes.h"
 632              		.file 8 "../os/rt/include/chschd.h"
 633              		.file 9 "../os/common/ports/ARMCMx/chcore.h"
 634              		.file 10 "../os/common/ports/ARMCMx/chcore_v7m.h"
 635              		.file 11 "../os/rt/include/chsem.h"
 636              		.file 12 "../os/rt/include/chmtx.h"
 637              		.file 13 "../os/rt/include/chthreads.h"
 638              		.file 14 "../os/common/oslib/include/chmemcore.h"
 639              		.file 15 "../os/common/oslib/include/chheap.h"
 640              		.file 16 "../os/common/oslib/include/chmempools.h"
 641              		.file 17 "../os/rt/include/chsys.h"
 642              		.file 18 "../os/common/ext/CMSIS/include/core_cm3.h"