ARM GAS  /tmp/ccq7hRlA.s 			page 1


   1              		.syntax unified
   2              		.cpu cortex-m3
   3              		.fpu softvfp
   4              		.eabi_attribute 20, 1
   5              		.eabi_attribute 21, 1
   6              		.eabi_attribute 23, 3
   7              		.eabi_attribute 24, 1
   8              		.eabi_attribute 25, 1
   9              		.eabi_attribute 26, 1
  10              		.eabi_attribute 30, 2
  11              		.eabi_attribute 34, 1
  12              		.eabi_attribute 18, 4
  13              		.thumb
  14              		.file	"chdynamic.c"
  15              		.text
  16              	.Ltext0:
  17              		.section	.gnu.lto_.jmpfuncs.1e5d5f69587b85aa,"",%progbits
  18 0000 789C6362 		.ascii	"x\234cb`b\300\006\"\2404\023\203=\023\003#c\007S\004"
  18      6062C006 
  18      22A03413 
  18      833D1303 
  18      23630753 
  19 0015 63262303 		.ascii	"c&#\003#\003\230f\004J\000133\220.cd\000R\214e\014\020"
  19      23039866 
  19      044A0031 
  19      3333902E 
  19      63640052 
  20 002d 29260E20 		.ascii	")&\016 G\036I\013\023\212\026F\250\026\006\000f\372"
  20      471E490B 
  20      138A1646 
  20      A8160600 
  20      66FA
  21 003f 0732     		.ascii	"\0072"
  22              		.text
  23              		.section	.gnu.lto_.inline.1e5d5f69587b85aa,"",%progbits
  24 0000 789C6362 		.ascii	"x\234cb`b\300\006\302\2414\023\203\204\224\021#\003"
  24      6062C006 
  24      C2A13413 
  24      83849411 
  24      2303
  25 0012 93C48A2D 		.ascii	"\223\304\212-\214\014l\013\344\301\252\231y\200\022"
  25      8C0C6C0B 
  25      E4C1AA99 
  25      798012
  26 0021 13FCC034 		.ascii	"\023\374\3004#\003+\037Pd\202\037\220\317\010Q+}\355"
  26      23032B1F 
  26      5064821F 
  26      90CF0851 
  26      2B7DED
  27 0034 142303FB 		.ascii	"\024#\003\373-5,j\301$\220\007\000\372L\012\354"
  27      2D352C6A 
  27      C1249007 
  27      00FA4C0A 
  27      EC
  28              		.text
  29              		.section	.gnu.lto_.pureconst.1e5d5f69587b85aa,"",%progbits
  30 0000 789C6362 		.ascii	"x\234cb`b`e\200\000&\006+F+\000\001\206\000\201"
ARM GAS  /tmp/ccq7hRlA.s 			page 2


  30      60626065 
  30      80002606 
  30      2B462B00 
  30      01860081 
  31              		.text
  32              		.section	.gnu.lto_chThdCreateFromHeap.1e5d5f69587b85aa,"",%progbits
  33 0000 789C8D54 		.ascii	"x\234\215T]h\024W\024>\347\336\231\354\232M\232\244"
  33      5D681457 
  33      143EE7DE 
  33      99EC9A4D 
  33      9AA4
  34 0012 26FE21C9 		.ascii	"&\376!\311b)-(;\202\202\257J\236D\342CR\241>\311\344"
  34      62292D28 
  34      3B8282AF 
  34      4A9E44E2 
  34      4352A13E 
  35 0028 664906DC 		.ascii	"fI\006\334l\330Y\177B)\271nb\210\264H\020\301\237\020"
  35      6CD8597F 
  35      4229B96E 
  35      6288B448 
  35      10C19F10 
  36 003c 6A08B6D8 		.ascii	"j\010\266\330\206*\024kD\244\343\017Am\223\320>\265"
  36      862A146B 
  36      44A4E30F 
  36      416D93D0 
  36      3EB5
  37 004e 0FA10B79 		.ascii	"\017\241\013y\250m\240\245\264P\321\322\364\334\271"
  37      A86DA0A5 
  37      B450D1D2 
  37      F4DCB9
  38 005d 33B39B65 		.ascii	"3\263\233eQg\331\373\373\235s\276\373\235s/\003\006"
  38      5167D9FB 
  38      FB9D73BE 
  38      FB9D732F 
  38      0306
  39 006f 95DF2EFA 		.ascii	"\225\337.\372\217\232\0007\251G\023\220\215/\000\234"
  39      8F9A0037 
  39      A9471390 
  39      8D2F009C 
  40 007f 8A33663C 		.ascii	"\2123f<\341 k\371\334\023\000Y\307\321\320\353\006\242"
  40      E1206BF9 
  40      DC130059 
  40      C7D1D0EB 
  40      06A2
  41 0091 1A00C210 		.ascii	"\032\000\302\020\343\006\016\035F\345\204o\203))\317"
  41      E3060E1D 
  41      46E5846F 
  41      832929CF 
  42 00a1 15AFAE3C 		.ascii	"\025\257\256<\305K\322\033\271\"\377]]Et\220\002nE\020"
  42      C54BD21B 
  42      B922FF5D 
  42      5D457490 
  42      026E4510 
  43 00b5 08EFD304 		.ascii	"\010\357\323\004\223~\307\214\265\014\264\255\2674\367"
  43      937EC78C 
  43      B50CB4AD 
  43      B734F7
ARM GAS  /tmp/ccq7hRlA.s 			page 3


  44 00c4 F16679A5 		.ascii	"\361fy\2450.\377#S\0079\203\266\327\261\364\306\275"
  44      302EFF23 
  44      53073983 
  44      B6D7B1F4 
  44      C6BD
  45 00d6 177317B0 		.ascii	"\027s\027\260\314\322`\360V\311\322\323=\333\264\326"
  45      CCD260F0 
  45      56C9D2D3 
  45      3DDBB4D6 
  46 00e6 F43AF38A 		.ascii	"\364:\363\212\253\253\337\335\234]^\301&\242HT\015\314"
  46      ABABDFDD 
  46      9C5D5EC1 
  46      26A24854 
  46      0DCC
  47 00f8 2098D460 		.ascii	" \230\324`\014l\234\306m\020\247\011K\320\236YO#\336"
  47      0C6C9CC6 
  47      6D10A709 
  47      4BD09E59 
  47      4F23DE
  48 010b 408DD144 		.ascii	"@\215\321D\215\331B\200)\002\320g\302\210\224\343I="
  48      8DD94280 
  48      2902D067 
  48      C28894E3 
  48      493D
  49 011d D766365E 		.ascii	"\327f6^\365\367\204\257\315{\324*\311\016!S=_\204\321"
  49      F5F784AF 
  49      CD7BD42A 
  49      C90E2153 
  49      3D5F84D1 
  50 0131 E2EC32DA 		.ascii	"\342\3542\332\370\031\311\335\213\261\017\340\271\034"
  50      F819C9DD 
  50      8BB10FE0 
  50      B91C
  51 013f 938D0ED6 		.ascii	"\223\215\016\326\010\364\015h\321\350ES\261\216\305"
  51      08F40D68 
  51      D1E84553 
  51      B18EC5
  52 014e 29781CE0 		.ascii	")x\034\34010\215\327\001\310\012\340\021<\374\345\336"
  52      31308DD7 
  52      01C80AE0 
  52      113CFCE5 
  52      DE
  53 015f 5FA33C72 		.ascii	"_\243<r\244\014x\371\031\017\321\224\322\307\347\241"
  53      A40C78F9 
  53      190FD194 
  53      D2C7E7A1 
  54 016f F0EDEC1F 		.ascii	"\360\355\354\037\317\002\027\333\341s)U\274u\232g\267"
  54      CF0217DB 
  54      E1732955 
  54      BC759A67 
  54      B7
  55 0180 0E4A1E28 		.ascii	"\016J\036(\020A\367W\300\314\020\026\222\213)\330\360"
  55      1041F757 
  55      C0CC1016 
  55      928B29D8 
  55      F0
  56 0191 47C3D367 		.ascii	"G\303\323g\3150v\202V\211\262o\377\270J\250\310\007"
ARM GAS  /tmp/ccq7hRlA.s 			page 4


  56      CD307682 
  56      5689B26F 
  56      FFB84AA8 
  56      C807
  57 01a3 0B7C247C 		.ascii	"\013|$|\350\201\012Xm\010\343\001\254\276*,\021\302"
  57      E8810A58 
  57      6D08E301 
  57      ACBE2A2C 
  57      11C2
  58 01b5 8C00D650 		.ascii	"\214\000\326P\025\306C\230\031\300\232\224\220\205x"
  58      15C64398 
  58      19C09A94 
  58      908578
  59 01c4 5871C5C9 		.ascii	"Xq\305\311k\363\367\360\334\260|$G<\252\2346\007\353"
  59      6BF3F7F0 
  59      DCB07C24 
  59      473CAA9C 
  59      3607EB
  60 01d7 181C7C55 		.ascii	"\030\034|U\321\251\265\272$\015\026\240\360\347\314"
  60      D1A9B5BA 
  60      240D16A0 
  60      F0E7CC
  61 01e6 F0A75B82 		.ascii	"\360\247[\202\012\010K\301\273\363\303\004\177\327\306"
  61      0A084BC1 
  61      BBF3C304 
  61      7FD7C6
  62 01f5 EB7E0D04 		.ascii	"\353~\015\004k\323\347\237%\266F\2633\277\223\226\232"
  62      6BD3E79F 
  62      25B646B3 
  62      33BF9396 
  62      9A
  63 0206 AD204904 		.ascii	"\255 I\004\235W\350\303 \375.\323\224t\342\372\262\266"
  63      9D57E8C3 
  63      20FD2ED3 
  63      9474E2FA 
  63      B2B6
  64 0218 C2173829 		.ascii	"\302\0278)/\356u\224\030e\321K\373_\006\373oh~\2130"
  64      2FEE7594 
  64      1865D14B 
  64      FB5F06FB 
  64      6F687E8B 
  65 022d 525C7A10 		.ascii	"R\\z\020\325WKT_\015\"PB\255\320\367\241\203\215Z\""
  65      D5574B54 
  65      5F0D2250 
  65      42ADD0F7 
  65      A1838D5A 
  66 0242 8DA552D3 		.ascii	"\215\245R\323\012y5a\261M\371\305\326\342\313;\373\343"
  66      0A793561 
  66      B14DF9C5 
  66      D6E2CB3B 
  66      FBE3
  67 0254 3F4FB15C 		.ascii	"?O\261\\b\231p\360\315\011\242\353\340z\002)f\232A7"
  67      629970F0 
  67      CD09A2EB 
  67      E07A0229 
  67      669A4137 
  68 0268 D6444A35 		.ascii	"\326DJ5\243O\351t\361\347\345X\020\006\"F-\"@\006\346"
ARM GAS  /tmp/ccq7hRlA.s 			page 5


  68      A34FE974 
  68      F1E7E558 
  68      10062246 
  68      2D224006 
  69 027d 1B14878D 		.ascii	"\033\024\207\215\225Y\372u\2412K6\336\360e{e\232\340"
  69      9559FA75 
  69      A1324B36 
  69      DEF0657B 
  69      659AE0
  70 0290 6569FA6D 		.ascii	"ei\372mR\245\351\233\265i\372\244\2765\272\323\245|"
  70      52A5E99B 
  70      B569FAA4 
  70      BE35BAD3 
  70      A57C
  71 02a2 FD5D96AF 		.ascii	"\375]\226\257\030\370W;^%e6~M\203(r\230\"\033ock\371"
  71      18F8573B 
  71      5E256536 
  71      7E4D8328 
  71      7298221B 
  72 02ba B534FC87 		.ascii	"\2654\374\207`\036\356\257D\327Z\245a7|%\307\324\003"
  72      601EEEAF 
  72      44D75AA5 
  72      61377C25 
  72      C7D403
  73 02cd 46A0EFE9 		.ascii	"F\240\357\351\255U\272\370\222\376\004\030\250\313f"
  73      AD55BAF8 
  73      92FE0418 
  73      A8CB66
  74 02dc 6E359358 		.ascii	"n5\223X|\346n\235zYP9R16\247RV\326\265ry\313\315\011"
  74      7CE66E9D 
  74      7A595039 
  74      523136A7 
  74      5256D6B5 
  75 02f5 4BF4F50C 		.ascii	"K\364\365\014\366\333\031G\244\004\260\374\000?\341"
  75      F6DB1947 
  75      A404B0FC 
  75      003FE1
  76 0304 0EB07CCF 		.ascii	"\016\260|\317;\032#\262\231L\266\337\032\310\346\362"
  76      3B1A23B2 
  76      994CB6DF 
  76      1AC8E6F2 
  77 0314 AEB5AFB3 		.ascii	"\256\265\257\263\243\275\343$\031\210l.}\344\370\236"
  77      A3BDE324 
  77      19886C2E 
  77      7DE4F89E 
  78 0324 4CAA0FCC 		.ascii	"L\252\017\314\343\366\321c\351\355k\320\351\223y\253"
  78      E3F6D163 
  78      E9ED6BD0 
  78      E99379AB 
  79 0334 BDA36B7F 		.ascii	"\275\243k\177\227\345\364\213\243\307z\322\226\310\270"
  79      97E5F48B 
  79      A3C77AD2 
  79      96C8B8
  80 0343 8E7BA457 		.ascii	"\216{\244W\010\262(E\217v\373\334A\227v\032;\272:\223"
  80      08B22845 
  80      8F76FBDC 
  80      4197761A 
ARM GAS  /tmp/ccq7hRlA.s 			page 6


  80      3BBA3A93 
  81 0357 DDB69B1E 		.ascii	"\335\266\233\036\3109;\222o\357\004\226\203X&\235\311"
  81      C8393B92 
  81      6FEF0496 
  81      8358269D 
  81      C9
  82 0368 E606E17F 		.ascii	"\346\006\341\177H\351{\366"
  82      48E97BF6 
  83              		.text
  84              		.section	.gnu.lto_chThdCreateFromMemoryPool.1e5d5f69587b85aa,"",%progbits
  85 0000 789C8D54 		.ascii	"x\234\215T]hTG\024>g\346\356n\314&&\261\306\032\321"
  85      5D685447 
  85      143E67E6 
  85      EE6ECC26 
  85      26B1C61A 
  86 0015 B828A562 		.ascii	"\270(\245b$WP\350\253\342\223H|0\012\366In&\213\271"
  86      245750E8 
  86      ABE29348 
  86      7C300AF6 
  86      496E268B 
  87 002a E0CD86BD 		.ascii	"\340\315\206\275\353O\220\342\270I\301\266>\004)\324"
  87      EB4F90E2 
  87      B849C1B6 
  87      3E0429D4 
  88 003a 2A418368 		.ascii	"*A\203h\251\006\245Ji@\037\256\277\230h\"\012R#\010"
  88      A906A54A 
  88      69401FAE 
  88      BF986822 
  88      0A522308 
  89 004e FB126A14 		.ascii	"\373\022j\024\004[\037\324\026\343\231\271?\331]\227"
  89      045B1FD4 
  89      16E399B9 
  89      3FD95D97 
  90 005e EA5D76E6 		.ascii	"\352]v\346\316\314\367\3159\363\235\357\016\003\006"
  90      CECCF7CD 
  90      39F39DEF 
  90      0E0306
  91 006d E5CF1AFA 		.ascii	"\345\317\032\372\377\035\003\370\235z\214\001\262\201"
  91      FF1D03F8 
  91      9D7A8C01 
  91      B281
  92 007b 09808355 		.ascii	"\011\200\203U\214\031c\034d5\2775\006 k8\032\376\274"
  92      8C19631C 
  92      6435BF35 
  92      06206B38 
  92      1AFEBC
  93 008e 81A85E00 		.ascii	"\201\250^\000\341\000\343\006\036\370\032\325&|\031"
  93      E100E306 
  93      1EF81AD5 
  93      267C19
  94 009d 0C4979A4 		.ascii	"\014Iy\2440uv\032\177\226^\377I\371\337\314\014\242"
  94      3075761A 
  94      7F965EFF 
  94      49F9DFCC 
  94      0CA2
  95 00af 8D147031 		.ascii	"\215\024p1\202@\330N\003L\351\216\031\245\031\370\\"
  95      8240D84E 
ARM GAS  /tmp/ccq7hRlA.s 			page 7


  95      034CE98E 
  95      19A519F8 
  95      5C
  96 00c0 6F72EC70 		.ascii	"or\354p\223<\231\037\220\357\210j#g\260\364S\230\336"
  96      933C991F 
  96      90EF886A 
  96      2367B0F4 
  96      5398DE
  97 00d3 80F7EFD8 		.ascii	"\200\367\357\330OX\3044\030,\237ez~\317\026\226R/0\257"
  97      4F58C434 
  97      182C9F65 
  97      7A7ECF16 
  97      96522F30 
  98 00e8 303333FC 		.ascii	"033\374\360\351\341\273x\236-A\240\\\015t\020\342`\341"
  98      F0E9E1BB 
  98      789E2D41 
  98      A05C0D74 
  98      10E260E1 
  99 00fc 295C0609 		.ascii	")\\\006\011\032`5M\307\222\324\304ki\310\352\250\341"
  99      1A60354D 
  99      C792D4C4 
  99      6B69C8EA 
  99      A8E1
 100 010e 0DD4188D 		.ascii	"\015\324\030\215\204\032\"\024=1\350\227r \345\217}"
 100      841A2214 
 100      3D31E897 
 100      7220E58F 
 100      7D
 101 011f AE83310B 		.ascii	"\256\2031\013O\353e\241\365\331J\255\222m\0332\325\363"
 101      4FEB65A1 
 101      F5D94AAD 
 101      926D1B32 
 101      D5F3
 102 0131 7BD05F18 		.ascii	"{\320_\030\231B\013\177!\311wb|?\274\225\207d\275\215"
 102      99420B7F 
 102      21C97762 
 102      7C3FBC95 
 102      8764BD8D 
 103 0145 09819A40 		.ascii	"\011\201\232@\223\206\215U\000\243\300|\224\2773a\001"
 103      93868D55 
 103      00A3C07C 
 103      94BF3361 
 103      01
 104 0156 6EC38DBF 		.ascii	"n\303\215\277\256\376\363=\217\350\352\200\274\370t"
 104      AEFEF33D 
 104      8FE8EA80 
 104      BCF874
 105 0165 DB684885 		.ascii	"\333hH\205\343\343\220\2773r\341M\260E\013\234\225R"
 105      E3E390BF 
 105      3372E14D 
 105      B0450B9C 
 105      9552
 106 0177 4599E367 		.ascii	"E\231\343g\327\341\207\242\035\022\000\004\335X\006"
 106      D7E187A2 
 106      1D120004 
 106      DD5806
 107 0186 8B87B030 		.ascii	"\213\207\2600\245\270\206=>zq\322\010cW\267\300J\033"
ARM GAS  /tmp/ccq7hRlA.s 			page 8


 107      A5B8863D 
 107      3E7A71D2 
 107      086357B7 
 107      C04A1B
 108 0199 AB8FC3B1 		.ascii	"\253\217\303\261\203D:A\211$)u\225P\215&u`h\271q\350"
 108      83443A41 
 108      89242975 
 108      95508D26 
 108      756068B9 
 109 01af FBA16F41 		.ascii	"\373\241oA\310#T\234\330z\303\321\012)F\261y\020;\251"
 109      C823549C 
 109      D87AC3D1 
 109      0A2946B1 
 109      79103BA9 
 110 01c3 A19BCA60 		.ascii	"\241\233\312`\265!\314\010`\265\025asCX,\200\325U\204"
 110      B521CC08 
 110      60B51561 
 110      7343582C 
 110      80D55584 
 111 01d7 F110160F 		.ascii	"\361\020\026\017`\015\252\000\371\252\320\243\205\301"
 111      600DAA00 
 111      F9AAD0A3 
 111      85C1
 112 01e5 5FC7AFE2 		.ascii	"_\307\257\342\221>y[\366{\344\265\2456\3261\330\374"
 112      913E795B 
 112      F67BE4B5 
 112      A536D631 
 112      D8FC
 113 01f7 319BAAB9 		.ascii	"1\233\252\271\272\024\275L@\376\345p\337\231E\201eB"
 113      BA14BD4C 
 113      40FEE570 
 113      DF994581 
 113      6542
 114 0209 EF78971F 		.ascii	"\357x\227\037\034\347+,\374M;&\230;\365\343\353\344"
 114      1CE72B2C 
 114      FC4D3B26 
 114      983BF5E3 
 114      EBE4
 115 021b E268F4DD 		.ascii	"\342h\364\335\013\222\321\317V\220\242\202d\021\376"
 115      0B92D1CF 
 115      5690A282 
 115      6411FE
 116 022a 99917EC7 		.ascii	"\231\221~\307hH\353\334\377\274\233\341\034\016\312"
 116      6848EBDC 
 116      FFBC9BE1 
 116      1C0ECA
 117 0239 A3EB6CAC 		.ascii	"\243\353l\254/\211>\273~>Xo\360\363Sn|r3rcc\344\306"
 117      2F893EBB 
 117      7E3E586F 
 117      F0F3536E 
 117      7C723372 
 118 0251 7922104C 		.ascii	"y\"\020L\315\320\363\215\215\237\371\022\371X\3720\346"
 118      CDD0F38D 
 118      8D9FF912 
 118      F958FA30 
 118      E6
 119 0262 6B85BC78 		.ascii	"k\205\274xh\322!m\322F-\357\310\243?\246\261Xb\231\264"
ARM GAS  /tmp/ccq7hRlA.s 			page 9


 119      68D2216D 
 119      D2462DEF 
 119      C8A33FA6 
 119      B1586299 
 120 0277 B191AC42 		.ascii	"\261\221\254B\031- \220\312\014\002\227$\"\245>g\332"
 120      192D2090 
 120      CA0C0297 
 120      2422A53E 
 120      67DA
 121 0289 2CF93BAF 		.ascii	",\371;\257+\260yevU\370\315\250\303|[x:\225\010\022"
 121      2BB07965 
 121      7655F8CD 
 121      A8C37C5B 
 121      783A9508 
 122 029e 84E82C0B 		.ascii	"\204\350,\013ETUMmR\331/*\257\357\364Dy}-\274\250\005"
 122      4554554D 
 122      6D52D92F 
 122      2AAFEFF4 
 122      44797D2D 
 123 02b5 FF6881E1 		.ascii	"\377h\201\341\377\012\374lP\025\370zi\201O\3246G\327"
 123      FF0AFC6C 
 123      5015F87A 
 123      69814FD4 
 123      3647D7
 124 02c8 47343DFA 		.ascii	"G4=\372\252\250\322Z\025A\307\373\260\330\026\216\320"
 124      AAA8D25A 
 124      1541C7FB 
 124      B0D8168E 
 124      D0
 125 02d9 4B14392C 		.ascii	"K\0249,\256\205\227\261\271\370\"0\364\2053\016\327"
 125      AE8597B1 
 125      B9F82230 
 125      F485330E 
 125      D7
 126 02ea 9E471789 		.ascii	"\236G\027\211*\340Z\270$\017\251\313\222@\367\351^W"
 126      2AE05AB8 
 126      240FA9CB 
 126      9240F7E9 
 126      5E57
 127 02fc BA683927 		.ascii	"\272h9'\001\003e\331\360\237\363I,~\345I\215\272\301"
 127      010365D9 
 127      F09FF349 
 127      2C7EE549 
 127      8DBAC1
 128 030f 506DA462 		.ascii	"Pm\244b4\265\266\232\031\327\314\346L7+L\321\325\331"
 128      34B5B69A 
 128      19D7CCE6 
 128      4C372B4C 
 128      D1D5D9
 129 0322 DB6D39B6 		.ascii	"\333m9\266h\025\300r=|\257\333\303r\235_\372\030\221"
 129      6815C072 
 129      3D7CAFDB 
 129      C3729D5F 
 129      FA1891
 130 0335 719C4CB7 		.ascii	"q\234L\267\331\223\311\346\\s\375\226\266\015m\373\210"
 130      D993C9E6 
 130      5C73FD96 
ARM GAS  /tmp/ccq7hRlA.s 			page 10


 130      B60D6DFB 
 130      88
 131 0346 2032D9F4 		.ascii	" 2\331\364\216=_9\255]\020\333c\355\332\235n)A\247\367"
 131      8E3D5F39 
 131      AD5D10DB 
 131      63EDDA9D 
 131      6E2941A7 
 132 035b E5CC0D6D 		.ascii	"\345\314\015m\355\033\333M\273[\354\332\335\2316\205"
 132      ED1BDB4D 
 132      BB5BECDA 
 132      DD993685 
 133 036b E3DAEE8E 		.ascii	"\343\332\356\216\235B\020c6z\264\332\345\366\272\264"
 133      9D421063 
 133      367AB4DA 
 133      E5F6BAB4 
 134 037b 52DFD6BE 		.ascii	"R\337\326\276%\325a\271\351\236\254\275*\365\305j`Y"
 134      25D561B9 
 134      E99EACBD 
 134      2AF5C56A 
 134      6059
 135 038d 48386927 		.ascii	"H8i'\223\355\205\367C9\224g"
 135      93ED85F7 
 135      43399467 
 136              		.text
 137              		.section	.gnu.lto_.symbol_nodes.1e5d5f69587b85aa,"",%progbits
 138 0000 789C45CD 		.ascii	"x\234E\315\273\015\2000\014\004\320;;\254\301\252\216"
 138      BB0D8030 
 138      0C04D03B 
 138      3BACC1AA 
 138      8E
 139 0011 940244C5 		.ascii	"\224\002D\305\0044Y\203\237\030\200\031\220\230\003"
 139      04345983 
 139      9F188019 
 139      909803
 140 0020 44F888B8 		.ascii	"D\370\210\2709\275\273\302\002A\215\357\244\247\001"
 140      39BDBBC2 
 140      02418DEF 
 140      A4A701
 141 002f ED0A9875 		.ascii	"\355\012\230u5e\2401\2233M^zON4\315\032i.k\241\025\277"
 141      3565A031 
 141      93334D5E 
 141      7A4F4E34 
 141      CD1A692E 
 142 0047 140E613B 		.ascii	"\024\016a;S*Bu\224\232^\356w\262x\373\264\304\307\202"
 142      532A4275 
 142      949A5EEE 
 142      77B278FB 
 142      B4C4C782 
 143 005b D81C252E 		.ascii	"\330\034%.\024((\275"
 143      142828BD 
 144              		.text
 145              		.section	.gnu.lto_.refs.1e5d5f69587b85aa,"",%progbits
 146 0000 789C6362 		.ascii	"x\234cb`b`d\200\002\000\000F\000\006"
 146      60626064 
 146      80020000 
 146      460006
 147              		.text
ARM GAS  /tmp/ccq7hRlA.s 			page 11


 148              		.section	.gnu.lto_.decls.1e5d5f69587b85aa,"",%progbits
 149 0000 789CBD5B 		.ascii	"x\234\275[{\224\024\325\231\277\267\252{f\232\031\221"
 149      7B9414D5 
 149      99BFB7AA 
 149      7B669A19 
 149      91
 150 0011 E8D133E3 		.ascii	"\350\3213\343\352:&f\3431+C\214Ip\367$j\310F<\2119\236"
 150      EA3A2666 
 150      E3312B43 
 150      8C4970F7 
 150      246AC846 
 151 0029 B09EDDFD 		.ascii	"\260\236\335\375g;eO1\323K\277\266\273\206\201\375\307"
 151      673B654F 
 151      31D34BBF 
 151      B6BB8681 
 151      FDC7
 152 003b 62C09180 		.ascii	"b\300\221\200\217a&d \"\016/\021\225 \"\210\200\330"
 152      8F612664 
 152      20220E2F 
 152      11952022 
 152      8880D8
 153 004e 60684718 		.ascii	"`hG\030\201a\3441\"\241Q\224\005\343\310C\230\014\201"
 153      8161E431 
 153      22A15194 
 153      05E3C843 
 153      980C81
 154 0061 9D7CF7AB 		.ascii	"\235|\367\253\252\356\252\333U\325\325C\334:\347V\327"
 154      AAEEAADB 
 154      55D5D543 
 154      DC3AE756 
 154      D7
 155 0072 E3DEDFF7 		.ascii	"\343\336\337\367\376\356wo\315\010D U\002!\303pD\356"
 155      FEEE776F 
 155      CD084420 
 155      550221C3 
 155      7044EE
 156 0085 26E44765 		.ascii	"&\344Ge\204\210\004~\211\366K\241\301#\342'\332\301"
 156      8488047E 
 156      89F64BA1 
 156      C123E227 
 156      DAC1
 157 0097 AE97405B 		.ascii	"\256\227@[\012/\336\201\326\003-\013\355SJ\012\016\326"
 157      0A2FDE81 
 157      D6032D0B 
 157      ED534A0A 
 157      0ED6
 158 00a9 AF1ADA32 		.ascii	"\257\032\3322h\243\241UA\273\007\332>\350;\000\277\247"
 158      68A3A155 
 158      41BB07DA 
 158      3EE83B00 
 158      BFA7
 159 00bb A8867B0C 		.ascii	"\250\206{\014~O\300\357Fhmp\275\031~?\203\337\317\241"
 159      7E4FC0EF 
 159      46686D70 
 159      BD197E3F 
 159      83DFCFA1 
 160 00cf 7D01ED34 		.ascii	"}\001\3554\264\367X_h\313u\236\316P\215\227n\370-\207"
ARM GAS  /tmp/ccq7hRlA.s 			page 12


 160      B4F7585F 
 160      68CB759E 
 160      CE508D97 
 160      6EF82D87 
 161 00e3 DFFDF07B 		.ascii	"\337\375\360{\000\332!h\037@;\014\355\0104\037\264\200"
 161      00DA2168 
 161      1F403B0C 
 161      ED08341F 
 161      B480
 162 00f5 CE0BE3F3 		.ascii	"\316\013\343\363,\264\013\320\206t\336\231\014\002\310"
 162      2CB40BD0 
 162      8674DE99 
 162      0C02C8
 163 0104 EF1734BC 		.ascii	"\357\0274\274\005p\377;h\317@[\004\355Yh\317q\2621\331"
 163      0570FF3B 
 163      68CF405B 
 163      04ED5968 
 163      CF71B231 
 164 0119 FFCE412E 		.ascii	"\377\316A.&\017\223\255\002\360N\350r5\300\357\363\320"
 164      260F93AD 
 164      02F04EE8 
 164      7235C0EF 
 164      F3D0
 165 012b 56D091CB 		.ascii	"V\320\221\313\0300\311\270\326A\316\377\320\373-\325"
 165      1830C9B8 
 165      D641CEFF 
 165      D0FB2DD5 
 166 013b ED514CD6 		.ascii	"\355QL\3264\334o\207\3666\264?@\333\301\306\013VYo&"
 166      34DC6F87 
 166      F636B43F 
 166      40DBC1C6 
 166      0B56596F 
 167 0150 8BD5AE6C 		.ascii	"\213\325\256lv\307\251Ct\241\232\236\245\016\017?J\256"
 167      76C7A943 
 167      74A19A9E 
 167      A50E0F3F 
 167      4AAE
 168 0162 27F35538 		.ascii	"'\363U8\272ZU\225*\225d\216\252\266\260\233\211\335"
 168      BA5A5595 
 168      2A95648E 
 168      AAB6B09B 
 168      89DD
 169 0174 A3AF21F3 		.ascii	"\243\257!\363\330\233\332nP\313\277S\211\216\016\220"
 169      D89BDA6E 
 169      50CBBF53 
 169      898E0E90 
 170 0184 2E1F5E55 		.ascii	".\037^U\005\310O\000\356\233d\271\252\266e\207.\365"
 170      05C84F00 
 170      EE9B64B9 
 170      AAB66587 
 170      2EF5
 171 0196 89AA5A21 		.ascii	"\211\252Z!\321\345\364\032p\300\177\246\344v\262\012"
 171      D1E5F41A 
 171      70C07FA6 
 171      E476B20A 
 172 01a6 06B601D4 		.ascii	"\006\266\001\3247l<\211\024\005\026\310\317(\221\350"
 172      376C3C89 
ARM GAS  /tmp/ccq7hRlA.s 			page 13


 172      140516C8 
 172      CF2891E8 
 173 01b6 0B8027D1 		.ascii	"\013\200'\321\225\364v\215\222\232=\334z\244\205\316"
 173      95F4768D 
 173      929A3DDC 
 173      7AA485CE 
 174 01c6 0046B577 		.ascii	"\000F\265wD\177ks\334B\272`@zp\347\"\252vm\2476\024"
 174      447F6B73 
 174      DC42BA60 
 174      407A70E7 
 174      22AA766D 
 175 01dd EF350856 		.ascii	"\3575\010V\230$\351z\362\001\224\344e\224$A-\004t\220"
 175      9824E97A 
 175      F20194E4 
 175      65942441 
 175      2D047490 
 176 01f1 AE7B9D50 		.ascii	"\256{\235P\004\242R6dM\001\337\231=\006\337k<\360\335"
 176      04A25236 
 176      644D01DF 
 176      993D06DF 
 176      6B3CF0DD 
 177 0205 92EE9DF3 		.ascii	"\222\356\235\363l\015\343[\242\313h%\340\316\313\341"
 177      6C0DE35B 
 177      A2CB6825 
 177      E0CECBE1 
 178 0215 EA746B0D 		.ascii	"\352tk\015\272>B\214K\355\320;X\361\366\355\254j\223"
 178      BA3E428C 
 178      4BEDD03B 
 178      58F1F6ED 
 178      AC6A93
 179 0228 0CB0DF96 		.ascii	"\014\260\337\226\014Vk\307\252v\230\245\225\350Z\372"
 179      0C566BC7 
 179      AA7698A5 
 179      95E85AFA 
 180 0238 4D38BF4A 		.ascii	"M8\277Jo\201\363kp\316\035\002\304\240aR;\325\025\027"
 180      6F81F36B 
 180      70CE1D02 
 180      C4A06152 
 180      3BD51517 
 181 024c 6168E722 		.ascii	"ah\347\"TI\200\314\316\273(\261\025A\267f\307\334?\364"
 181      544980CC 
 181      CEBB28B1 
 181      1541B766 
 181      C7DC3FF4 
 182 0260 D299A8F5 		.ascii	"\322\231\250\365\2150L \357S\253A\275C\015=\265c\033"
 182      8D304C20 
 182      EF53AB41 
 182      BD430D3D 
 182      B5631B
 183 0273 6D41A8CD 		.ascii	"mA\250\315\010uq\304P\235\355[\356F\037\333\212@k\005"
 183      087571C4 
 183      509DED5B 
 183      EE461FDB 
 183      8A406B05 
 184 0287 2B9044CB 		.ascii	"+\220D\313s\222\347\356\215\016\014\015_\353\027,\317"
 184      7392E7EE 
 184      8D0E0C0D 
ARM GAS  /tmp/ccq7hRlA.s 			page 14


 184      5FEB172C 
 184      CF
 185 0298 5F4DBEE2 		.ascii	"_M\276\342\356\002\331\"p\246\263s\230\012'\323\251"
 185      EE02D922 
 185      70A6B373 
 185      980A27D3 
 185      A9
 186 02a9 D90F327F 		.ascii	"\331\0172\177\024X\276\021\215\010*s\322\221@\266!\255"
 186      1458BE11 
 186      8D082A73 
 186      D29140B6 
 186      21AD
 187 02bb B7F9087A 		.ascii	"\267\371\010z\363@\217\021Ao{\212\240\365;;\321]\212"
 187      F3408F11 
 187      416F7B8A 
 187      A0F53B3B 
 187      D15D8A
 188 02ce 6634C1A0 		.ascii	"f4\301\240\177+\322?\213\364\273y\372\227\017~\370\230"
 188      7F2BD23F 
 188      8BF4BB79 
 188      FA970F7E 
 188      F898
 189 02e0 4EBFDB13 		.ascii	"N\277\333\023\3757\016\376\246\220\276D\177t\235\233"
 189      FD370EFE 
 189      A690BE44 
 189      7F749D9B 
 190 02f0 6FBC79E0 		.ascii	"o\274y\340\3233:\225\036\014\325\347E\336;\356\251\264"
 190      D3333A95 
 190      1E0CD5E7 
 190      45DE3BEE 
 190      A9B4
 191 0302 DA0FEE4D 		.ascii	"\332\017\356M\035\004\262F4\370\037Q\246\000A\007\346"
 191      1D04B246 
 191      34F81F51 
 191      A6004107 
 191      E6
 192 0313 D3F6996A 		.ascii	"\323\366\231j\3678\203\207WKF\254\265hb\313A\314=\032"
 192      F7388387 
 192      574B46AC 
 192      B56862CB 
 192      41CC3D1A 
 193 0327 D87A2F60 		.ascii	"\330z/`\216\256\324\222\336j\006\333X2\230\225\263\275"
 193      8EAED492 
 193      DE6A06DB 
 193      58329895 
 193      B3BD
 194 0339 66B0CD5E 		.ascii	"f\260\315^\300\3068s\266\317\014\266\265d0+g\357\233"
 194      C0C63873 
 194      B6CF0CB6 
 194      B564302B 
 194      67EF9B
 195 034c C1B67901 		.ascii	"\301\266y\001\253v\346\354\200\031lG\311`V\316\016\231"
 195      AB76E6EC 
 195      80196C47 
 195      C96056CE 
 195      0E99
 196 035e C1DEF502 		.ascii	"\301\336\365\002Vk\303Y\356\260\033\307\334\372\035"
ARM GAS  /tmp/ccq7hRlA.s 			page 15


 196      566BC359 
 196      EEB01BC7 
 196      DCFA1D
 197 036d 9AF37381 		.ascii	"\232\363s\201\364\210FN(\321\247I\036c\217Xj\016\263"
 197      F488464E 
 197      28D1A749 
 197      1E638F58 
 197      6A0EB3
 198 0380 C80D53F8 		.ascii	"\310\015S\370\321\245\264C\213\013m\032\355\363\202"
 198      D1A5B443 
 198      8B0B6D1A 
 198      EDF382
 199 038f E8E2306D 		.ascii	"\350\3420m\273Lsr\177\311`V\263,f`\226\\\243\317H\331"
 199      BB4C7372 
 199      7FC96056 
 199      B32C6660 
 199      965CA3CF 
 200 03a5 15E9EA05 		.ascii	"\025\351\352\005\371tWa`\261\272L\313mP\246\011\271"
 200      F9745761 
 200      60B1BA4C 
 200      CB6D50A6 
 200      09B9
 201 03b7 CE6A75B5 		.ascii	"\316ju\265}_\211\236\304\271\375\024\015\344\270\320"
 201      7D5F899E 
 201      C4B9FD14 
 201      0DE4B8D0 
 202 03c7 AE8DAB61 		.ascii	"\256\215\253aV\220\222\243\242]\305\207\000\356C\235"
 202      569092A3 
 202      A25DC587 
 202      00EE439D 
 203 03d7 3CE184D9 		.ascii	"<\341\204\331\023\216{Q\223K(\354uRS\272U\235Mg\254"
 203      138E7B51 
 203      934B28EC 
 203      755253BA 
 203      559D4D67 
 204 03ec BDD1B53C 		.ascii	"\275\321\265<|\363\300\300\022\275\012\370\002'\357"
 204      7CF3C0C0 
 204      12BD0AF8 
 204      0227EF
 205 03fb 93A26D15 		.ascii	"\223\242m\025\340\011l\350\251=FIq\026\301\276\0349"
 205      E0096CE8 
 205      A93D4649 
 205      7116C1BE 
 205      1C39
 206 040d 5857E7BE 		.ascii	"XW\347\276\033U\237D\317#\320\345\202I#\300\225\024"
 206      1B559F44 
 206      CF23D0E5 
 206      824923C0 
 206      9514
 207 041f 01EBA41F 		.ascii	"\001\353\244\037\010\344/\206\215\303j\306\257t\214"
 207      08E42F86 
 207      8DC36AC6 
 207      AF748C
 208 042e 93E907CC 		.ascii	"\223\351\007\314\246\237\355+\325\364\226\010\201\""
 208      A69FED2B 
 208      D5F49608 
 208      8122
ARM GAS  /tmp/ccq7hRlA.s 			page 16


 209 043c E482D0A9 		.ascii	"\344\202\320\251\246g\210&_w\015\014( wm\375!\226j\027"
 209      A6678826 
 209      5F770D0C 
 209      2820776D 
 209      FD21966A 
 210 0451 51AF4FFB 		.ascii	"Q\257O\373l\015\344\001h\350\251\325\337F\240\313\010"
 210      6C0DE401 
 210      68E8A9D5 
 210      DF46A0CB 
 210      08
 211 0462 B460C440 		.ascii	"\264`\304@\235\355\213\307#\020\013Y\001VM\274\245)"
 211      9DED8BC7 
 211      23100B59 
 211      01564DBC 
 211      A529
 212 0474 67696AB5 		.ascii	"gij\265@.\352\364\240\373\252\372\012\344E\336\\\026"
 212      402EEAF4 
 212      A0FBAAFA 
 212      0AE445DE 
 212      5C16
 213 0486 715CA686 		.ascii	"q\\\246\206\\\276\275\324N\317\265\250\013\306\225`"
 213      5CBEBDD4 
 213      4ECFB5A8 
 213      0BC69560 
 214 0496 AFB9BABD 		.ascii	"\257\271\272\275\036C\355\274R\240\235\313%\252\007"
 214      1E43EDBC 
 214      52A09DCB 
 214      25AA07
 215 04a5 4A8C92C5 		.ascii	"J\214\222\305\250\260\212\321:<\0021\336\322\304\230"
 215      A8B08AD1 
 215      3A3C0231 
 215      DED2C498 
 216 04b5 83626CFD 		.ascii	"\203bl\375\033\210\221)Y\2141&1p\001\373\033m\366\273"
 216      1B889129 
 216      598C3126 
 216      317001FB 
 216      1B6DF6BB 
 217 04c9 96B4BB97 		.ascii	"\226\264\273\227\360\214\237\247\205k-\345sz\377nZ\253"
 217      F08C9FA7 
 217      856B2DE5 
 217      737AFF6E 
 217      5AAB
 218 04db 3D2EBE66 		.ascii	"=.\276f?\267\333\264\320S=-\364v\345\026z\355\250\262"
 218      3FB7DBB4 
 218      D0533D2D 
 218      F476E516 
 218      7AEDA8B2 
 219 04ef 5D7601E6 		.ascii	"]v\001\346\005\252kh\367u,\221\316G\230\336\221\302"
 219      05AA6B68 
 219      F7752C91 
 219      CE4798DE 
 219      91C2
 220 0501 643BF7BD 		.ascii	"d;\367\275\256\305\351\002\004\352/0a\031g\3012\253"
 220      AEC5E902 
 220      04EA2F30 
 220      611967C1 
 220      32AB
ARM GAS  /tmp/ccq7hRlA.s 			page 17


 221 0513 05E19651 		.ascii	"\005\341\226Q\3723&\310G\365'\354\246\234\374\277\217"
 221      FA3326C8 
 221      47F527EC 
 221      A69CFCBF 
 221      8F
 222 0524 13C8C7C8 		.ascii	"\023\310\307\310>\263^\211\365\227\341=\255\307;\214"
 222      3EB35E89 
 222      F597E13D 
 222      ADC73B8C 
 223 0534 DA4933D0 		.ascii	"\332I3\320\251+BlI?\367\264\261?r\017\253\236\316]!"
 223      A92B426C 
 223      493FF7B4 
 223      B13F720F 
 223      AB9ECE5D 
 224 0549 DC963D7C 		.ascii	"\334\226=|Y\300-\333\226;L;F~\177\345\211\177Ds/\025"
 224      59C02DDB 
 224      963B4C3B 
 224      467E7FE5 
 224      897F4473 
 225 055f 183B170B 		.ascii	"\030;\027\013\314\275\214r\3136\366\300\324\305)\220"
 225      CCBD8C72 
 225      CB36F6C0 
 225      D4C52990 
 226 056f 9608A619 		.ascii	"\226\010\246\031\360I\377\025\232!s\2363C\307\025!\266"
 226      F049FF15 
 226      9A21739E 
 226      3343C715 
 226      21B6
 227 0581 A4877433 		.ascii	"\244\207t3\024[d\377\312\300\252BA\236A\262/\012\334"
 227      145B64FF 
 227      CAC0AA42 
 227      419E41B2 
 227      2F0ADC
 228 0594 1A7BED67 		.ascii	"\032{\355g\331V\275\"b\357\212g\212\303\237\004\324"
 228      D956BD22 
 228      62EF8A67 
 228      8AC39F04 
 228      D4
 229 05a5 F62A6DB7 		.ascii	"\366*m\267N\242\033\250\240\243\332\025JE\325\223\376"
 229      4EA21BA8 
 229      A0A3DA15 
 229      4A45D593 
 229      FE
 230 05b6 A3DC3DAE 		.ascii	"\243\334=\256\224\234\2231r\316\032\324\345v?ot\226"
 230      949C9331 
 230      72CE1AD4 
 230      E5763F6F 
 230      7496
 231 05c8 442C462F 		.ascii	"D,F/)\350\272sJ\362\272`\341\017'\247Zev\252\236+s\001"
 231      29E8BA73 
 231      4AF2BA60 
 231      E10F27A7 
 231      5A6576AA 
 232 05e0 70AACC72 		.ascii	"p\252\314r\315\251\2129\201J\315\353\030X?!\345\015"
 232      CDA98A39 
 232      814ACDEB 
 232      18583F21 
ARM GAS  /tmp/ccq7hRlA.s 			page 18


 232      E50D
 233 05f2 BC170C0D 		.ascii	"\274\027\014\015t?\256\357\201l\360\344\005\347m\274"
 233      743FAEEF 
 233      816CF0E4 
 233      05E76DBC 
 234 0602 60C308BD 		.ascii	"`\303\010\275\000\\\372\344\273\024\341\264u\331\205"
 234      005CFAE4 
 234      BB14E1B4 
 234      75D985
 235 0611 1C93255A 		.ascii	"\034\223%ZA\207\273$\227\252\030\315\277\322\375\237"
 235      4187BB24 
 235      97AA18CD 
 235      BFD2FD9F 
 236 0621 B01973AB 		.ascii	"\260\031s\253\300\366\241/\025\270\226\246\031\223k"
 236      C0F6A12F 
 236      15B896A6 
 236      19936B
 237 0630 E5D528D1 		.ascii	"\345\325(\321\215\002[\250\275!\260M\330Mx\336\"\230"
 237      8D025BA8 
 237      BD21B04D 
 237      D84D78DE 
 237      2298
 238 0642 B6629DDC 		.ascii	"\266b\235\334\342\315\274[Ht\035\257F\257\313\345\242"
 238      E2CDBC5B 
 238      48741DAF 
 238      46AFCBE5 
 238      A2
 239 0653 64D69BBD 		.ascii	"d\326\233\275oV\331\225y\337\007\231\335>\334Y,aWx\327"
 239      6F56D995 
 239      79DF0799 
 239      DD3EDC59 
 239      2C615778 
 240 0668 0E2370DF 		.ascii	"\016#p\337\306\300\235[\306kw3__y\331$\355\034\251("
 240      C6C09D5B 
 240      C66B7733 
 240      5F5F79D9 
 240      24ED1CA9 
 241 067d B943208B 		.ascii	"\271C \213\313<\254qjm\264\236\233h\017\350eZ\321\235"
 241      CB3CAC71 
 241      6A6DB49E 
 241      9B680FE8 
 241      655AD19D 
 242 0691 5663E63A 		.ascii	"Vc\346:\376\304D\234\271\336EO\353\342t\341a\303v\015"
 242      FEC4449C 
 242      B9DE454F 
 242      EBE274E1 
 242      61C3760D 
 243 06a5 0EE9E1C3 		.ascii	"\016\351\341\303\370pkn\303\266\307C\030\267\244\327"
 243      F8706B6E 
 243      C3B6C743 
 243      18B7A4D7 
 244 06b5 593E7918 		.ascii	"Y>y\030\036\330\343\356\201\256\372\264\230\260\307"
 244      1ED8E3EE 
 244      81AEFAB4 
 244      98B0C7
 245 06c4 1420BB31 		.ascii	"\024 \2731@\366\230\203B oy\321\375mN\256\010ih\237"
 245      40F69883 
ARM GAS  /tmp/ccq7hRlA.s 			page 19


 245      42206F79 
 245      D1FD6D4E 
 245      AE086968 
 246 06d9 F6A9C9F8 		.ascii	"\366\251\311\370x\364\016\217g\227\210,xf[\266\244\333"
 246      78F40E8F 
 246      6797882C 
 246      78665BB6 
 246      A4DB
 247 06eb FA707B48 		.ascii	"\372p{H\363\321\275^\230\033\347\014\366\\\207\241\334"
 247      F3D1BD5E 
 247      981BE70C 
 247      F65C87A1 
 247      DC
 248 06fc F558A1F4 		.ascii	"\365X\241\364{\301\033\357$lK\372\365\276E:\236\366"
 248      7BC11BEF 
 248      246C4BFA 
 248      F5BE453A 
 248      9EF6
 249 070e 65E558C9 		.ascii	"e\345X\311xV\376\366wX\352\271S^\340\356\365l\373\374"
 249      7856FEF6 
 249      7758EAB9 
 249      535EE0EE 
 249      F56CFBFC 
 250 0722 77449850 		.ascii	"wD\230Pq\027\353%\374B\365:\236\267\343\371#<\037\307"
 250      7117EB25 
 250      FC42F53A 
 250      9EB7E3F9 
 250      233C1FC7 
 251 0736 F3A778FE 		.ascii	"\363\247x\376\034\317Cx\236\205i\364\327x~\012\317\335"
 251      1CCF4378 
 251      9E8569F4 
 251      D7787E0A 
 251      CFDD
 252 0748 78EEC573 		.ascii	"x\356\305s\037\236\367\343\371 \236\373\275$\\\2175"
 252      1F9EF7E3 
 252      F9209EFB 
 252      BD245C8F 
 252      35
 253 0759 E0527A3D 		.ascii	"\340Rz=^\211\004\277\346\332\316&\263?\316o\243\250"
 253      5E8904BF 
 253      E6DACE26 
 253      B33FCE6F 
 253      A3A8
 254 076b B92F1A4C 		.ascii	"\271/\032L\307z\234\367\016\246k\266\250\352\030\211"
 254      C77A9CF7 
 254      0EA66BB6 
 254      A8EA1889 
 255 077b 1EC1409F 		.ascii	"\036\301@\237_n\033\350.@\002Y\206c\262\\\244\247;\036"
 255      5F6E1BE8 
 255      2E400259 
 255      8663B25C 
 255      A4A73B1E 
 256 078f AF624BA6 		.ascii	"\257bK\246\254\247(\237\377\316\242\302\212\321\362"
 256      ACA7289F 
 256      FFCEA2C2 
 256      8AD1F2
 257 079e 091A5DC0 		.ascii	"\011\032]\300I\027\237\010\026]x\317\372o\375%\373O"
ARM GAS  /tmp/ccq7hRlA.s 			page 20


 257      49179F08 
 257      165D78CF 
 257      FA6FFD25 
 257      FB4F
 258 07b0 6B50FE13 		.ascii	"kP\376\023\030P\037\225\363I\337\317\345|\2775\347\373"
 258      18501F95 
 258      F349DFCF 
 258      E57CBF35 
 258      E7FB
 259 07c2 03F90B3D 		.ascii	"\003\371\013=\347\353L\030Cs\267'\264\272"
 259      E7EB4C18 
 259      4373B727 
 259      B4BA
 260 07d0 4FA20F8B 		.ascii	"O\242\017\213\256>\240\263\266n8[\263\012Y;\216\261"
 260      AE3EA0B3 
 260      B66E385B 
 260      B30A593B 
 260      8EB1
 261 07e2 39AFC2CA 		.ascii	"9\257\302\312\032\267\024a*pR\317\200P\351`\201\202"
 261      1AB71461 
 261      2A7052CF 
 261      8050E960 
 261      8182
 262 07f4 770279AE 		.ascii	"w\002y\256\3020\347\310\226\023\275\203\331\033\337"
 262      C230E7C8 
 262      9613BD83 
 262      D91BDF
 263 0803 784D55D7 		.ascii	"xMU\327\376J\337\023H\227\231\275\307\222\356\364\242"
 263      FE4ADF13 
 263      489799BD 
 263      C792EEF4 
 263      A2
 264 0814 6673E626 		.ascii	"fs\346&\346*g`\222\024\310\013\234\234\305Q\004\262"
 264      E62A6760 
 264      9214C80B 
 264      9C9CC551 
 264      04B2
 265 0826 01C77C59 		.ascii	"\001\307|Y\260\275\220\021k\265\307\305=\360`\353\323"
 265      B0BD9011 
 265      6BB5C7C5 
 265      3DF060EB 
 265      D3
 266 0837 37A85D4F 		.ascii	"7\250]OT\033{\270\333s\220#[6\034\315\214\202z\261\350"
 266      541B7BB8 
 266      DB739023 
 266      5B361CCD 
 266      8C827AB1 
 267 084c DF0630C6 		.ascii	"\337\0060\306.\362\241\323\237aE\336EO\221s\270\325"
 267      2EF2A1D3 
 267      9F6145DE 
 267      454F9173 
 267      B8D5
 268 085e 66ADA5E9 		.ascii	"f\255\245\351\322\311\035.\027Vt\027Gh\356\226\364\221"
 268      D2C91D2E 
 268      17567417 
 268      4768EE96 
 268      F491
ARM GAS  /tmp/ccq7hRlA.s 			page 21


 269 0870 8C91F2B5 		.ascii	"\214\221\362\265\010\352F\275\225\202W\313\011&\220"
 269      08EA46BD 
 269      958257CB 
 269      092690
 270 087f DD57A8FB 		.ascii	"\335W\250\373A\357\272o\0219\335\237A\335\263\307\305"
 270      41EFBA6F 
 270      1139DD9F 
 270      41DDB3C7 
 270      C5
 271 0890 757FAED5 		.ascii	"u\177\256\325\230\236>\304\020\355C\276\331\330\221"
 271      989E3EC4 
 271      10ED43BE 
 271      D9D891
 272 089f E9F23CA7 		.ascii	"\351\362<\247\313C%\343\025\352\362\310Huiw\230cL\242"
 272      CB4325E3 
 272      15EAF2C8 
 272      48756977 
 272      98634CA2 
 273 08b3 17B05E1A 		.ascii	"\027\260^\032\304\231m\010\3173DK\355\364\021\237J\354"
 273      C4996D08 
 273      CF33444B 
 273      EDF4119F 
 273      4AEC
 274 08c5 683BFF81 		.ascii	"h;\377\201@z\321\375\254\324\321\026;'y,\353\362\310"
 274      407AD1FD 
 274      ACD4D116 
 274      3B27792C 
 274      EBF2C8
 275 08d8 74E94D90 		.ascii	"t\351M\220\254\251\360\373\010\005\371\030E8\215\347"
 275      ACA9F0FB 
 275      0805F918 
 275      45388DE7 
 276 08e8 39A28789 		.ascii	"9\242\207\211\372\303|\034\361I>\177\257\355\360\344"
 276      FAC37C1C 
 276      F1493E7F 
 276      AFEDF0E4 
 277 08f8 EE3752F3 		.ascii	"\3567R\363{\267\351\316\341O\002\030\310<\361z+U\374"
 277      7BB7E9CE 
 277      E14F0218 
 277      C83CF17A 
 277      2B55FC
 278 090b DAEF6D5A 		.ascii	"\332\357mZ\331\274r[\365\0138\255\264\211\314g\347\006"
 278      D9BC725B 
 278      F50B38AD 
 278      B489CC67 
 278      E706
 279 091d 5CA71546 		.ascii	"\\\247\025F\312\211\215\371\242\363\264R\370\316\314"
 279      CA898DF9 
 279      A2F3B452 
 279      F8CECC
 280 092c 2CE1A641 		.ascii	",\341\246A\201tpl\334J\226\251j{v\307\251\323~X\310"
 280      8174706C 
 280      DC4A96A9 
 280      6A7B76C7 
 280      A9D37E58 
 281 0941 F98C085B 		.ascii	"\371\214\010[\211\335\226\320\233m\231\322M\242\215"
 281      89DD96D0 
ARM GAS  /tmp/ccq7hRlA.s 			page 22


 281      9B6D99D2 
 281      4DA28D
 282 0950 5587E489 		.ascii	"U\207\344\211\232=$\372\270(\270\016C\253i\303\322\007"
 282      9A3D24FA 
 282      B828B80E 
 282      43AB69C3 
 282      D207
 283 0962 33AB2108 		.ascii	"3\253!\010\005\315t\022\375\023-2\224\346)\236c\024"
 283      05CD7412 
 283      FD132D32 
 283      94E6299E 
 283      6314
 284 0974 37E2AEFB 		.ascii	"7\342\256\373\266\"\303\320\017t\212\375\231\225\032"
 284      B622C3D0 
 284      0F748AFD 
 284      99951A
 285 0983 45CD22AB 		.ascii	"E\315\"\253\213\310\310z\031\024\373\030E\254\215_)"
 285      8BC8C87A 
 285      1914FB18 
 285      45AC8D5F 
 285      29
 286 0994 324AD3FA 		.ascii	"2J\323\372?\220\025XWg\236\254\231\303(j\033\220\316"
 286      3F901558 
 286      57679EAC 
 286      99C3286A 
 286      1B90CE
 287 09a7 E3746B76 		.ascii	"\343tkv\212\226\277\030\324\376^\020\377zlFvx\370f\316"
 287      8A96BF18 
 287      D4FE5E10 
 287      FF7A6C46 
 287      7678F866 
 288 09bc 7319A863 		.ascii	"s\031\250cq+\026\257Z\235v\010u\017\356\177\351L\265"
 288      712B16AF 
 288      5A9D7608 
 288      750FEE7F 
 288      E94CB5
 289 09cf B6507F5E 		.ascii	"\266P\177^d\231\341H\300\276fu\202\301\275.>\355\317"
 289      6499E148 
 289      C0BE6675 
 289      82C1BD2E 
 289      3EEDCF
 290 09e2 CB60B5BA 		.ascii	"\313`\265\272\312S\336\357\260\233s=\254\211?CNW\027"
 290      CA53DEEF 
 290      B09B733D 
 290      AC893F43 
 290      4E5717
 291 09f5 4C3952AD 		.ascii	"L9R\255\366\324\303\214clC\275,\346\027\303\253K\237"
 291      F6D4C38C 
 291      636C43BD 
 291      2CE617C3 
 291      AB4B9F
 292 0a08 70728793 		.ascii	"pr\207\223\235\030~\316\374\032\231U#\236\327\346s\363"
 292      9D187ECE 
 292      FC1A9955 
 292      239ED7E6 
 292      73F3
 293 0a1a DA20EAA1 		.ascii	"\332 \352\241\024\274Z\013\336\202\014\277/\357}\251"
ARM GAS  /tmp/ccq7hRlA.s 			page 23


 293      14BC5A0B 
 293      DE820CBF 
 293      2FEF7DA9 
 294 0a2a B09ECF9D 		.ascii	"\260\236\317\235\214%\256d\367^\242\377\271Z+\321_\303"
 294      8C25AE64 
 294      F75EA2FF 
 294      B95A2BD1 
 294      5FC3
 295 0a3c C89D39CA 		.ascii	"\310\2359\3125\227\256w\311\245\233\\r)\367\016*T\301"
 295      3597AE77 
 295      C9A59B5C 
 295      7229F70E 
 295      2A54C1
 296 0a4f 833D5CF7 		.ascii	"\203=\\\367\200-\370\371`\200u\260\210\353`\221M\202"
 296      802DF8F9 
 296      608075B0 
 296      88EB6091 
 296      4D82
 297 0a61 6BF1BCCE 		.ascii	"k\361\274\316\313T\270B\264\231\012]\247>=\217\025\233"
 297      CB54B842 
 297      B4990A5D 
 297      A73E3D8F 
 297      159B
 298 0a73 17DA46D9 		.ascii	"\027\332F\331\316\013+^<V\246\315\013+P\363/b\267\245"
 298      CE0B2B5E 
 298      3C56A6CD 
 298      0B2B50F3 
 298      2F62B7A5 
 299 0a87 A253F65B 		.ascii	"\242S\366[a\312\231\013\301{\2505\275;\0174\245\367"
 299      61CA990B 
 299      C17BA835 
 299      BD3B0F34 
 299      A5F7
 300 0a99 F4FE9DBF 		.ascii	"\364\376\235\277\327\362\2649\305;\0175\245xu\220\345"
 300      D7F2B439 
 300      C53B0F35 
 300      A5787590 
 300      E5
 301 0aaa E936B4E3 		.ascii	"\3516\264\343b\321}\2309\275?\243\261\212\323{W\221"
 301      62D17D98 
 301      39BD3FA3 
 301      B18AD37B 
 301      5791
 302 0abc 719604DF 		.ascii	"q\226\004\337\267\223K\360N\343t\373\275U\230\340\263"
 302      B7934BF0 
 302      4EE374FB 
 302      BD5598E0 
 302      B3
 303 0acd 6DEC03DD 		.ascii	"m\354\003\335\343t\336\314\256n\3654[\331z/P\272\371"
 303      E374DECC 
 303      AE6EF534 
 303      5BD97A2F 
 303      50BAF9
 304 0ae0 20636CE4 		.ascii	" cl\344n\332m\026\3020\355q\2266X\333e\313\332\346\225"
 304      6EDA6D16 
 304      C230ED71 
 304      963658DB 
ARM GAS  /tmp/ccq7hRlA.s 			page 24


 304      65CBDAE6 
 305 0af5 433F7CF6 		.ascii	"C?|\366Uu\326\257\325\377\033~\224\2260\001\275W|\002"
 305      5575D6AF 
 305      D5FF1B7E 
 305      94963001 
 305      BD577C02 
 306 0b09 821C434D 		.ascii	"\202\034CMI<\235+4\331\237\221\350K\326\313\260L\260"
 306      493C9D2B 
 306      34D99F91 
 306      E84BD6CB 
 306      B04CB0
 307 0b1c 9968AC7D 		.ascii	"\231h\254}%\332\013\341T\264\033\353\330\307O\012\317"
 307      25DA0BE1 
 307      54B41BEB 
 307      D8C74F0A 
 307      CF
 308 0b2d 6813529F 		.ascii	"h\023R\237\247ia]k\247\221`M^\3357\342\204\275)\203"
 308      A769615D 
 308      6BA79160 
 308      4D5EDD37 
 308      E284BD29 
 309 0b42 9B8C03F8 		.ascii	"\233\214\003\370\255c\023\032\246\024\260Z\013\330>"
 309      AD63131A 
 309      A614B05A 
 309      0BD83E
 310 0b51 3358DA0B 		.ascii	"3X\332\013\230\313\207\223\303\231\337\232v\030\215"
 310      98CB8793 
 310      C399DF9A 
 310      76188D
 311 0b60 202C05CF 		.ascii	" ,\005\317\312\334Y\2159\255\362\332\341\2059\227?\335"
 311      CADC598D 
 311      39ADF2DA 
 311      E1853997 
 311      3FDD
 312 0b72 FB4BCE0C 		.ascii	"\373K\316\014\246\210-\005\256\2263\257\221\225\337"
 312      A6882D05 
 312      AE9633AF 
 312      9195DF
 313 0b81 C7ACBC1F 		.ascii	"\307\254\274\037\363\361\001<\037\302\363\007x>\214"
 313      F3F1013C 
 313      1FC2F307 
 313      783E8C
 314 0b90 E723D6B5 		.ascii	"\347#\326\265\327..\234\014W2a\347}\216\224\206\356"
 314      D72E2E9C 
 314      0C573261 
 314      E77D8E94 
 314      86EE
 315 0ba2 145B7BCC 		.ascii	"\024[{\314E\203%\270\217:\004\367Q\333\340\356\035L"
 315      458325B8 
 315      8F3A04F7 
 315      51DBE0EE 
 315      1D4C
 316 0bb4 DFB6D029 		.ascii	"\337\266\320)\270]\346\366c|\332a\313\001\307\245\231"
 316      B85DE6F6 
 316      637CDA61 
 316      CB01C7A5 
 316      99
ARM GAS  /tmp/ccq7hRlA.s 			page 25


 317 0bc5 CD5C2F90 		.ascii	"\315\\/\220\363\016\214~b\313\350\241\227\216\335\276"
 317      F30E8C7E 
 317      62CBE8A1 
 317      978EDDBE 
 318 0bd5 50DD6EF3 		.ascii	"P\335n\363\0373\256|\236\340\371\\!V\362\214\314\256"
 318      1F33AE7C 
 318      9EE0F95C 
 318      2156F28C 
 318      CCAE
 319 0be7 B467E4A4 		.ascii	"\264g\344\244\225\021\256\3048\346Rb\234\312[\347k\244"
 319      9511AEC4 
 319      38E65262 
 319      9CCA5BE7 
 319      6BA4
 320 0bf9 4DDB1A59 		.ascii	"M\333\032Y0Z\373KK}\314\030c\214\240\217\371L\374\032"
 320      305AFB4B 
 320      4B7DCC18 
 320      638CA08F 
 320      F94CFC1A 
 321 0c0d 5E593E80 		.ascii	"^Y>\200c\017'*\177\022\363\177\315Y\025\310_P+\351Z"
 321      630F272A 
 321      7F12F37F 
 321      CD5915C8 
 321      5F502BE9 
 322 0c22 8EF278A3 		.ascii	"\216\362x\243_\271\216\363y\311\224\007\034(\227\331"
 322      5FB98EF3 
 322      79C99407 
 322      1C2897D9 
 323 0c32 ABEA3D17 		.ascii	"\253\352=\027U}\221W\0257j\237C4\263Q\247\035Gu\273"
 323      557D9157 
 323      15376A9F 
 323      4334B351 
 323      A71D4775 
 324 0c47 D03A931F 		.ascii	"\320:\223\037\305\274*}:\333\277\351\314\177\276\374"
 324      C5BC2A7D 
 324      3ADBBFE9 
 324      CC7FBEFC 
 325 0c57 AAAAA2FB 		.ascii	"\252\252\242\373\317\230\305\007\200\313\274{Nw\254"
 325      CF98C507 
 325      80CBBC7B 
 325      4E77AC
 326 0c66 BC2F09E4 		.ascii	"\274/\011\344\367\005\216\2045\002\034/\250\"\242\261"
 326      F7058E84 
 326      35021C2F 
 326      A822A2B1 
 327 0c76 FE67A13E 		.ascii	"\376g\241>\260\370\331\227\205\016\017\254]\352\334"
 327      B0F8D997 
 327      850E0FAC 
 327      5DEADC
 328 0c85 5F63FC8B 		.ascii	"_c\374\213\330-\032=\201l\364D\341\002Oa\320\226\302"
 328      D82D1A3D 
 328      816CF444 
 328      E1024F61 
 328      D096C2
 329 0c98 FCAD6726 		.ascii	"\374\255g&\016\345\205\277\305\273\360\027\371\250\332"
 329      0EE585BF 
 329      C5BBF017 
ARM GAS  /tmp/ccq7hRlA.s 			page 26


 329      F9A8DA
 330 0ca7 8C338425 		.ascii	"\2143\204%\252\006,\254bO\201\\\252\324\235S\257\272"
 330      AA062CAC 
 330      624F815C 
 330      AAD49D53 
 330      AFBA
 331 0cb9 7AB5AA4B 		.ascii	"z\265\252K\373\217\2369Ul\304\220c\331\245\177\024\326"
 331      FB8F9E39 
 331      556CC490 
 331      63D9A57F 
 331      14D6
 332 0ccb 253E37E3 		.ascii	"%>7\343\241\352\234\304C\274\304\227l%\356\337\324\333"
 332      A1EA9CC4 
 332      43BCC497 
 332      6C25EEDF 
 332      D4DB
 333 0cdd 6836B7A1 		.ascii	"h6\267\241\326\266*/jm\361qDf\372\354\015\367y\241\341"
 333      D6B62A2F 
 333      6A6DF171 
 333      4466FAEC 
 333      0DF779A1 
 334 0cf2 1679A2F0 		.ascii	"\026y\242\360\030O\241\325\347\226\202N\270\370\372"
 334      184FA1D5 
 334      E796824E 
 334      B8F8FA
 335 0d01 6C5FCED7 		.ascii	"l_\316\327\277N\226\250{\367fw\274\264\220\316\316\252"
 335      BF4E96A8 
 335      7BF76677 
 335      BCB490CE 
 335      CEAA
 336 0d13 6D20FB30 		.ascii	"m \37305\347\206\377\315\347\206\275\271j\351\006\034"
 336      35E786FF 
 336      CDE786BD 
 336      B96AE906 
 336      1C
 337 0d24 EA9042F8 		.ascii	"\352\220B\370n\022\235\353+5\207<\341\263\317!5\026"
 337      6E129DEB 
 337      2B35873C 
 337      E1B3CF21 
 337      3516
 338 0d36 0518BDD8 		.ascii	"\005\030\275\330\327\212*n\341\301s!\220\265UT\0377"
 338      D78A2A6E 
 338      E1C17321 
 338      90B55554 
 338      1F37
 339 0d48 8A5DD48C 		.ascii	"\212]\324\214\035[\027O\325%\225\272T2T\027j\254\237"
 339      1D5B174F 
 339      D52595BA 
 339      54325417 
 339      6AAC9F
 340 0d5b 1E93A2E1 		.ascii	"\036\223\242\341\320\330\020\371\373\334\233p,\024i"
 340      D0D810F9 
 340      FBDC9B70 
 340      2C1469
 341 0d6a AA97E16D 		.ascii	"\252\227\341mjzJ\231\236\220Sc\033I\205\322\230\224"
 341      6A7A4A99 
 341      9E905363 
ARM GAS  /tmp/ccq7hRlA.s 			page 27


 341      1B4985D2 
 341      9894
 342 0d7c A5FAA052 		.ascii	"\245\372\240Rv\377/\036\256\235@\002\241\306\240\366"
 342      76FF2F1E 
 342      AE9D4002 
 342      A1C6A0F6 
 343 0d8c E806BB81 		.ascii	"\350\006\273\201\200\014\203\256\326z\244\202\377\335"
 343      800C83AE 
 343      D67AA482 
 343      FFDD
 344 0d9a 2437C941 		.ascii	"$7\311AeLn\220\376\310\027\223\247)\276DR\236\352\307"
 344      654C6E90 
 344      FEC81793 
 344      A729BE44 
 344      529EEAC7 
 345 0dae FB3B35AC 		.ascii	"\373;5\254P<\032\215\307\352\022\361\244\222\252\273"
 345      503C1A8D 
 345      C7EA12F1 
 345      A492AABB 
 346 0dbe EF970F4E 		.ascii	"\357\227\017Nxp\032{\226\010G\344d\252\356\376\011\023"
 346      78701A7B 
 346      960847E4 
 346      64AAEEFE 
 346      0913
 347 0dd0 8084C158 		.ascii	"\200\204\301X\271\222H\206\343A\345\246\272\246T2\307"
 347      B9924886 
 347      E341E5A6 
 347      BAA65432 
 347      C7
 348 0de1 424C6E8E 		.ascii	"BLn\216\204\037\251K)\365\341\230\302\330o\202\337\357"
 348      841FA94B 
 348      29F5E198 
 348      C2D86F82 
 348      DFEF
 349 0df3 DE1954EE 		.ascii	"\336\031T\356\260\353\026\225B\215\341\230\\\027\254"
 349      B0EB1695 
 349      428DE198 
 349      5C17AC
 350 0e02 97274B4D 		.ascii	"\227'KM\021%h\200\217\012\006\215\201>F\246\212\261"
 350      11256880 
 350      8F0A068D 
 350      813E46A6 
 350      8AB1
 351 0e14 140CC563 		.ascii	"\024\014\305c\012\360\375\015\027f\033C\361\244\014"
 351      0AF0FD0D 
 351      17661B43 
 351      F1A40C
 352 0e23 00953800 		.ascii	"\000\2258\000 B\312\264o\025\353\037\234\372\203(\343"
 352      2042CAB4 
 352      6F15EB1F 
 352      9CFA8328 
 352      E3
 353 0e34 35293748 		.ascii	"5)7H\311hP\021\222w\011\311\357\011\311\357\013\311"
 353      C9685011 
 353      927709C9 
 353      EF09C9EF 
 353      0BC9
ARM GAS  /tmp/ccq7hRlA.s 			page 28


 354 0e46 1F08C9F1 		.ascii	"\037\010\311\361B\362n1\371\235q\320\276#D\222B*!\002"
 354      42F26E31 
 354      F99D71D0 
 354      BE234492 
 354      422A2102 
 355 0e5a A81F4490 		.ascii	"\250\037D\220\223\376x\244^N\372B\215R\322\007\006\225"
 355      93FE78A4 
 355      5E4EFA42 
 355      8D52D207 
 355      0695
 356 0e6c 47A59429 		.ascii	"G\245\224)R$\334\020\013*(\371\367\357\012*\272,\354"
 356      5224DC10 
 356      0B2A28F9 
 356      F7EF0A2A 
 356      BA2CEC
 357 0e7f B2AC597A 		.ascii	"\262\254YzDJ\311\025JJ\221\024\260K9{1>\250\004\264"
 357      444AC915 
 357      4A4A9114 
 357      B04B397B 
 357      313EA804 
 358 0e94 2E70E5C7 		.ascii	".p\345\3077\345J4^\017\357\375\223#RC\252\\I\312\223"
 358      37E54A34 
 358      5E0FEFFD 
 358      93235243 
 358      AA5C49CA 
 359 0ea9 53A009F6 		.ascii	"S\240\011\366\343\217\246\032`\240\256\034\030\250_"
 359      E38FA61A 
 359      60A0AE1C 
 359      18A85F
 360 0eb8 9525EBA7 		.ascii	"\225%\353\247\303\253\012yZX\011\301\340\262f%\376\310"
 360      C3AB0A79 
 360      5A5809C1 
 360      E0B26625 
 360      FEC8
 361 0eca 7F25AED1 		.ascii	"\177%\256\321\335\007\206\312I9\026b\240\315\212\222"
 361      DD0786CA 
 361      49391662 
 361      A0CD8A92 
 362 0eda 4C94A7E4 		.ascii	"L\224\247\344\230\002\003\252\3005RrTJ4\202\"j\354\\"
 362      980203AA 
 362      C0355272 
 362      544A3482 
 362      226AEC5C 
 363 0eee 4A66BAF1 		.ascii	"Jf\272\361\207b`\035\021\316\000\014\217\022\0250.\332"
 363      8762601D 
 363      11CE000C 
 363      8F121530 
 363      2EDA
 364 0f00 04E6B01B 		.ascii	"\004\346\260\033\023U\246\2611\361\346\230\234,\307"
 364      1355A6B1 
 364      31F1E698 
 364      9C2CC7
 365 0f0f 5E4C7605 		.ascii	"^Lv\005\036'*\345\251\214\260\224\232\002\217\344fv"
 365      1E272AE5 
 365      A98CB094 
 365      9A028FE4 
 365      6676
ARM GAS  /tmp/ccq7hRlA.s 			page 29


 366 0f21 419B461B 		.ascii	"A\233F\033\316\031\011\247\200\314\325&weO\312\233\245"
 366      CE1909A7 
 366      80CCD526 
 366      77654FCA 
 366      9BA5
 367 0f33 B0128E35 		.ascii	"\260\022\2165T\000\277\350\256\025rB\216\201\2075\224"
 367      5400BFE8 
 367      AE157242 
 367      8E818735 
 367      94
 368 0f44 0324EB01 		.ascii	"\003$\353\001\246\223\"\314Q\374\321D<\036\271\325b"
 368      A69322CC 
 368      51FCD144 
 368      3C1EB9D5 
 368      62
 369 0f55 F1788AF9 		.ascii	"\361x\212\371Z\236\273FYJ\000{WE\345h<9=\310n\203J\245"
 369      5A9EBB46 
 369      594A007B 
 369      5745E568 
 369      3C393DC8 
 370 0f6d E9EE4EF4 		.ascii	"\351\356N\364U6\250!\024\252\003\227\270#\026\217\311"
 370      5536A821 
 370      14AA0397 
 370      B823168F 
 370      C9
 371 0f7e 77C8D223 		.ascii	"w\310\322#\341\272\273\306\216\037{g\016\014\374\034"
 371      E1BABBC6 
 371      8E1F7B67 
 371      0E0CFC1C 
 372 0f8e 5C17C0CA 		.ascii	"\\\027\300\312R\341\377\001\335~\313\2250\220\320\335"
 372      52E1FF01 
 372      DD7ECB95 
 372      3090D0DD 
 373 0f9e 93D1     		.ascii	"\223\321"
 374 0fa0 6E9095C9 		.ascii	"n\220\225\311M\261\020\330\256\"\221\214O\015\203#]"
 374      4DB110D8 
 374      AE22918C 
 374      4F0D8323 
 374      5D
 375 0fb1 85BCC009 		.ascii	"\205\274\300\011\256\201%\323\235\037\275\312\237\220"
 375      AE8125D3 
 375      9D1FBDCA 
 375      9F90
 376 0fbf 1AE4946F 		.ascii	"\032\344\224orR\226}\354\245\217Q\3655\245\344\3722"
 376      7252967D 
 376      ECA58F51 
 376      F535A5E4 
 376      FA32
 377 0fd1 AD9B08FA 		.ascii	"\255\233\010\372\270\311\306 \27261l\031\321\240rm\250"
 377      B8C9C620 
 377      BA36316C 
 377      19D1A072 
 377      6DA8
 378 0fe3 F15F1BEB 		.ascii	"\361_\033\353'\300cE\376i2\036\235\010p~\206\231\020"
 378      27C06345 
 378      FE69321E 
 378      9D08707E 
ARM GAS  /tmp/ccq7hRlA.s 			page 30


 378      869910
 379 0ff6 12934529 		.ascii	"\022\223E)\331p[1Q\230"
 379      D9705B31 
 379      5198
 380 1000 A253263D 		.ascii	"\242S&=\262{`\032\1774n*\301\003\345\220\022d\\V\345"
 380      B27B601A 
 380      7F346E2A 
 380      C103E590 
 380      12645C56 
 381 1015 250E2A35 		.ascii	"%\016*5\034\361\007\021\341!\030)D\023\340\221\223B"
 381      1CF10711 
 381      E1211829 
 381      4413E091 
 381      9342
 382 1027 8DFF264D 		.ascii	"\215\377&M\221\233\022\223\374\315,`|\315`n?\033\233"
 382      919B1293 
 382      FCCD2C60 
 382      7CCD606E 
 382      3F1B9B
 383 103a B85677E8 		.ascii	"\270Vw\350z9\025J\206\023J\034\024u\235\011nRS\212\371"
 383      7A39154A 
 383      86134A1C 
 383      14759D09 
 383      6E52538A 
 384 104f 865CFFC0 		.ascii	"\206\\\377\3005\241F&\324}\221H<t\037\323\236\\_\031"
 384      35A14626 
 384      D47D9148 
 384      3C741FD3 
 384      9E5C5F19 
 385 1063 6A6444F0 		.ascii	"jdD\360\221\255\257Og\002A\212\2354=\365\363xhJ\000"
 385      91ADAF4F 
 385      6702418A 
 385      9D343DF5 
 385      F378684A 
 386 1078 B308749E 		.ascii	"\263\010t\236\362m\2136 \011\325Mxp\322\003\223\362"
 386      F26D8B36 
 386      2009D54D 
 386      7870D203 
 386      93F2
 387 108a 63A3A970 		.ascii	"c\243\251p*\010\356\302\024\022\204\210R\202?\276o\322"
 387      2A08EEC2 
 387      14128488 
 387      52823FBE 
 387      6FD2
 388 109c BF3CF4CB 		.ascii	"\277<\364\313\007\256\222\"\315\322\364\024\304i\004"
 388      07AE9222 
 388      CDD2F414 
 388      C46904
 389 10ab 529D7FAA 		.ascii	"R\235\177\252\024i\222+\221\302\3031\206\254e\252&\274"
 389      1469922B 
 389      91C2C331 
 389      86AC65AA 
 389      26BC
 390 10bd AE080651 		.ascii	"\256\010\006QA\301\253\214\213\261\337\273\373\256\357"
 390      41C1AB8C 
 390      8BB1DFBB 
 390      FBAEEF
ARM GAS  /tmp/ccq7hRlA.s 			page 31


 391 10cc FE15D400 		.ascii	"\376\025\324\000\351Q"
 391      E951
 392              		.text
 393              		.section	.gnu.lto_.symtab.1e5d5f69587b85aa,"",%progbits
 394 0000 63685468 		.ascii	"chThdCreateFromHeap\000\000\000\000\000\000\000\000"
 394      64437265 
 394      61746546 
 394      726F6D48 
 394      65617000 
 395 001b 00000000 		.ascii	"\000\000\000\000\241\000\000\000chThdCreateFromMemo"
 395      A1000000 
 395      63685468 
 395      64437265 
 395      61746546 
 396 0036 7279506F 		.ascii	"ryPool\000\000\000\000\000\000\000\000\000\000\000\000"
 396      6F6C0000 
 396      00000000 
 396      00000000 
 396      0000
 397 0048 A2010000 		.ascii	"\242\001\000\000chSchWakeupS\000\000\002\000\000\000"
 397      63685363 
 397      6857616B 
 397      65757053 
 397      00000200 
 398 005e 00000000 		.ascii	"\000\000\000\000\000\000\307\001\000\000chThdCreate"
 398      0000C701 
 398      00006368 
 398      54686443 
 398      72656174 
 399 0073 53757370 		.ascii	"SuspendedI\000\000\002\000\000\000\000\000\000\000\000"
 399      656E6465 
 399      64490000 
 399      02000000 
 399      00000000 
 400 0088 00CC0100 		.ascii	"\000\314\001\000\000chHeapAllocAligned\000\000\002\000"
 400      00636848 
 400      65617041 
 400      6C6C6F63 
 400      416C6967 
 401 00a3 00000000 		.ascii	"\000\000\000\000\000\000\000\000\340\001\000\000chP"
 401      00000000 
 401      E0010000 
 401      636850
 402 00b2 6F6F6C41 		.ascii	"oolAlloc\000\000\002\000\000\000\000\000\000\000\000"
 402      6C6C6F63 
 402      00000200 
 402      00000000 
 402      000000
 403 00c5 00E60100 		.ascii	"\000\346\001\000\000"
 403      00
 404              		.text
 405              		.section	.gnu.lto_.opts,"",%progbits
 406 0000 272D6D63 		.ascii	"'-mcpu=cortex-m3' '-mno-thumb-interwork' '-mthumb' "
 406      70753D63 
 406      6F727465 
 406      782D6D33 
 406      2720272D 
ARM GAS  /tmp/ccq7hRlA.s 			page 32


 407 0033 272D6767 		.ascii	"'-ggdb' '-O2' '-fomit-frame-pointer' '-falign-funct"
 407      64622720 
 407      272D4F32 
 407      2720272D 
 407      666F6D69 
 408 0066 696F6E73 		.ascii	"ions=16' '-ffunction-sections' '-fdata-sections' '-"
 408      3D313627 
 408      20272D66 
 408      66756E63 
 408      74696F6E 
 409 0099 666E6F2D 		.ascii	"fno-common' '-flto'\000"
 409      636F6D6D 
 409      6F6E2720 
 409      272D666C 
 409      746F2700 
 410              		.text
 411              		.cfi_sections	.debug_frame
 412              		.section	.text.chThdCreateFromHeap,"ax",%progbits
 413              		.align	2
 414              		.p2align 4,,15
 415              		.global	chThdCreateFromHeap
 416              		.thumb
 417              		.thumb_func
 418              		.type	chThdCreateFromHeap, %function
 419              	chThdCreateFromHeap:
 420              	.LFB188:
 421              		.file 1 "../os/rt/src/chdynamic.c"
 422              		.loc 1 84 0
 423              		.cfi_startproc
 424              		@ args = 8, pretend = 0, frame = 24
 425              		@ frame_needed = 0, uses_anonymous_args = 0
 426              	.LVL0:
 427 0000 70B5     		push	{r4, r5, r6, lr}
 428              		.cfi_def_cfa_offset 16
 429              		.cfi_offset 4, -16
 430              		.cfi_offset 5, -12
 431              		.cfi_offset 6, -8
 432              		.cfi_offset 14, -4
 433 0002 1446     		mov	r4, r2
 434 0004 86B0     		sub	sp, sp, #24
 435              		.cfi_def_cfa_offset 40
 436              		.loc 1 88 0
 437 0006 0822     		movs	r2, #8
 438              	.LVL1:
 439              		.loc 1 84 0
 440 0008 1E46     		mov	r6, r3
 441 000a 0D46     		mov	r5, r1
 442              		.loc 1 88 0
 443 000c FFF7FEFF 		bl	chHeapAllocAligned
 444              	.LVL2:
 445              		.loc 1 89 0
 446 0010 C8B1     		cbz	r0, .L2
 447              		.loc 1 93 0
 448 0012 0A9B     		ldr	r3, [sp, #40]
 449              		.loc 1 96 0
 450 0014 0544     		add	r5, r5, r0
 451              	.LVL3:
ARM GAS  /tmp/ccq7hRlA.s 			page 33


 452              		.loc 1 93 0
 453 0016 0493     		str	r3, [sp, #16]
 454 0018 0B9B     		ldr	r3, [sp, #44]
 455 001a 0295     		str	r5, [sp, #8]
 456 001c 0593     		str	r3, [sp, #20]
 457              	.LVL4:
 458 001e 0094     		str	r4, [sp]
 459 0020 0190     		str	r0, [sp, #4]
 460 0022 0396     		str	r6, [sp, #12]
 461              	.LBB34:
 462              	.LBB35:
 463              	.LBB36:
 464              	.LBB37:
 465              		.file 2 "../os/common/ext/CMSIS/include/cmsis_gcc.h"
 466              		.loc 2 264 0
 467 0024 2023     		movs	r3, #32
 468              	@ 264 "../os/common/ext/CMSIS/include/cmsis_gcc.h" 1
 469 0026 83F31188 		MSR basepri, r3
 470              	@ 0 "" 2
 471              		.thumb
 472              	.LBE37:
 473              	.LBE36:
 474              	.LBE35:
 475              	.LBE34:
 476              		.loc 1 109 0
 477 002a 6846     		mov	r0, sp
 478              	.LVL5:
 479 002c FFF7FEFF 		bl	chThdCreateSuspendedI
 480              	.LVL6:
 481              		.loc 1 110 0
 482 0030 0123     		movs	r3, #1
 483 0032 80F82130 		strb	r3, [r0, #33]
 484              		.loc 1 111 0
 485 0036 0021     		movs	r1, #0
 486              		.loc 1 109 0
 487 0038 0446     		mov	r4, r0
 488              	.LVL7:
 489              		.loc 1 111 0
 490 003a FFF7FEFF 		bl	chSchWakeupS
 491              	.LVL8:
 492              	.LBB38:
 493              	.LBB39:
 494              	.LBB40:
 495              	.LBB41:
 496              	.LBB42:
 497              		.loc 2 264 0
 498 003e 0023     		movs	r3, #0
 499              	@ 264 "../os/common/ext/CMSIS/include/cmsis_gcc.h" 1
 500 0040 83F31188 		MSR basepri, r3
 501              	@ 0 "" 2
 502              		.thumb
 503              	.LBE42:
 504              	.LBE41:
 505              	.LBE40:
 506              	.LBE39:
 507              	.LBE38:
 508              		.loc 1 114 0
ARM GAS  /tmp/ccq7hRlA.s 			page 34


 509 0044 2046     		mov	r0, r4
 510              	.LVL9:
 511              	.L2:
 512              		.loc 1 115 0
 513 0046 06B0     		add	sp, sp, #24
 514              		@ sp needed
 515 0048 70BD     		pop	{r4, r5, r6, pc}
 516              		.cfi_endproc
 517              	.LFE188:
 518              		.size	chThdCreateFromHeap, .-chThdCreateFromHeap
 519 004a 00BFAFF3 		.section	.text.chThdCreateFromMemoryPool,"ax",%progbits
 519      0080
 520              		.align	2
 521              		.p2align 4,,15
 522              		.global	chThdCreateFromMemoryPool
 523              		.thumb
 524              		.thumb_func
 525              		.type	chThdCreateFromMemoryPool, %function
 526              	chThdCreateFromMemoryPool:
 527              	.LFB189:
 528              		.loc 1 146 0
 529              		.cfi_startproc
 530              		@ args = 4, pretend = 0, frame = 24
 531              		@ frame_needed = 0, uses_anonymous_args = 0
 532              	.LVL10:
 533 0000 F0B5     		push	{r4, r5, r6, r7, lr}
 534              		.cfi_def_cfa_offset 20
 535              		.cfi_offset 4, -20
 536              		.cfi_offset 5, -16
 537              		.cfi_offset 6, -12
 538              		.cfi_offset 7, -8
 539              		.cfi_offset 14, -4
 540 0002 87B0     		sub	sp, sp, #28
 541              		.cfi_def_cfa_offset 48
 542              		.loc 1 146 0
 543 0004 0F46     		mov	r7, r1
 544 0006 1646     		mov	r6, r2
 545 0008 1C46     		mov	r4, r3
 546 000a 0546     		mov	r5, r0
 547              		.loc 1 152 0
 548 000c FFF7FEFF 		bl	chPoolAlloc
 549              	.LVL11:
 550              		.loc 1 153 0
 551 0010 D0B1     		cbz	r0, .L6
 552              		.loc 1 160 0
 553 0012 6B68     		ldr	r3, [r5, #4]
 554              		.loc 1 157 0
 555 0014 0C9A     		ldr	r2, [sp, #48]
 556              		.loc 1 160 0
 557 0016 0344     		add	r3, r3, r0
 558              		.loc 1 157 0
 559 0018 0293     		str	r3, [sp, #8]
 560 001a 0097     		str	r7, [sp]
 561 001c 0190     		str	r0, [sp, #4]
 562 001e 0396     		str	r6, [sp, #12]
 563 0020 0494     		str	r4, [sp, #16]
 564 0022 0592     		str	r2, [sp, #20]
ARM GAS  /tmp/ccq7hRlA.s 			page 35


 565              	.LVL12:
 566              	.LBB43:
 567              	.LBB44:
 568              	.LBB45:
 569              	.LBB46:
 570              		.loc 2 264 0
 571 0024 2023     		movs	r3, #32
 572              	@ 264 "../os/common/ext/CMSIS/include/cmsis_gcc.h" 1
 573 0026 83F31188 		MSR basepri, r3
 574              	@ 0 "" 2
 575              		.thumb
 576              	.LBE46:
 577              	.LBE45:
 578              	.LBE44:
 579              	.LBE43:
 580              		.loc 1 173 0
 581 002a 6846     		mov	r0, sp
 582              	.LVL13:
 583 002c FFF7FEFF 		bl	chThdCreateSuspendedI
 584              	.LVL14:
 585              		.loc 1 174 0
 586 0030 0223     		movs	r3, #2
 587 0032 80F82130 		strb	r3, [r0, #33]
 588              		.loc 1 175 0
 589 0036 0564     		str	r5, [r0, #64]
 590              		.loc 1 176 0
 591 0038 0021     		movs	r1, #0
 592              		.loc 1 173 0
 593 003a 0446     		mov	r4, r0
 594              	.LVL15:
 595              		.loc 1 176 0
 596 003c FFF7FEFF 		bl	chSchWakeupS
 597              	.LVL16:
 598              	.LBB47:
 599              	.LBB48:
 600              	.LBB49:
 601              	.LBB50:
 602              	.LBB51:
 603              		.loc 2 264 0
 604 0040 0023     		movs	r3, #0
 605              	@ 264 "../os/common/ext/CMSIS/include/cmsis_gcc.h" 1
 606 0042 83F31188 		MSR basepri, r3
 607              	@ 0 "" 2
 608              		.thumb
 609              	.LBE51:
 610              	.LBE50:
 611              	.LBE49:
 612              	.LBE48:
 613              	.LBE47:
 614              		.loc 1 179 0
 615 0046 2046     		mov	r0, r4
 616              	.LVL17:
 617              	.L6:
 618              		.loc 1 180 0
 619 0048 07B0     		add	sp, sp, #28
 620              		@ sp needed
 621 004a F0BD     		pop	{r4, r5, r6, r7, pc}
ARM GAS  /tmp/ccq7hRlA.s 			page 36


 622              		.cfi_endproc
 623              	.LFE189:
 624              		.size	chThdCreateFromMemoryPool, .-chThdCreateFromMemoryPool
 625 004c AFF30080 		.text
 626              	.Letext0:
 627              		.file 3 "/usr/lib/gcc/arm-none-eabi/4.8.2/include/stddef.h"
 628              		.file 4 "/usr/include/newlib/machine/_default_types.h"
 629              		.file 5 "/usr/include/newlib/stdint.h"
 630              		.file 6 "../os/common/ports/ARMCMx/compilers/GCC/chtypes.h"
 631              		.file 7 "../os/rt/include/chsystypes.h"
 632              		.file 8 "../os/rt/include/chschd.h"
 633              		.file 9 "../os/common/ports/ARMCMx/chcore.h"
 634              		.file 10 "../os/common/ports/ARMCMx/chcore_v7m.h"
 635              		.file 11 "../os/rt/include/chsem.h"
 636              		.file 12 "../os/rt/include/chmtx.h"
 637              		.file 13 "../os/rt/include/chthreads.h"
 638              		.file 14 "../os/common/oslib/include/chmemcore.h"
 639              		.file 15 "../os/common/oslib/include/chheap.h"
 640              		.file 16 "../os/common/oslib/include/chmempools.h"
 641              		.file 17 "../os/rt/include/chsys.h"
 642              		.file 18 "../os/common/ext/CMSIS/include/core_cm3.h"
 643              		.section	.debug_info,"",%progbits
 644              	.Ldebug_info0:
 645 0000 860B0000 		.4byte	0xb86
 646 0004 0400     		.2byte	0x4
 647 0006 00000000 		.4byte	.Ldebug_abbrev0
 648 000a 04       		.byte	0x4
 649 000b 01       		.uleb128 0x1
 650 000c FE020000 		.4byte	.LASF124
 651 0010 01       		.byte	0x1
 652 0011 A3000000 		.4byte	.LASF125
 653 0015 76040000 		.4byte	.LASF126
 654 0019 00000000 		.4byte	.Ldebug_ranges0+0
 655 001d 00000000 		.4byte	0
 656 0021 00000000 		.4byte	.Ldebug_line0
 657 0025 02       		.uleb128 0x2
 658 0026 04       		.byte	0x4
 659 0027 05       		.byte	0x5
 660 0028 696E7400 		.ascii	"int\000"
 661 002c 03       		.uleb128 0x3
 662 002d FA010000 		.4byte	.LASF2
 663 0031 03       		.byte	0x3
 664 0032 D4       		.byte	0xd4
 665 0033 37000000 		.4byte	0x37
 666 0037 04       		.uleb128 0x4
 667 0038 04       		.byte	0x4
 668 0039 07       		.byte	0x7
 669 003a 56000000 		.4byte	.LASF0
 670 003e 04       		.uleb128 0x4
 671 003f 01       		.byte	0x1
 672 0040 06       		.byte	0x6
 673 0041 A3050000 		.4byte	.LASF1
 674 0045 03       		.uleb128 0x3
 675 0046 AC040000 		.4byte	.LASF3
 676 004a 04       		.byte	0x4
 677 004b 1C       		.byte	0x1c
 678 004c 50000000 		.4byte	0x50
ARM GAS  /tmp/ccq7hRlA.s 			page 37


 679 0050 04       		.uleb128 0x4
 680 0051 01       		.byte	0x1
 681 0052 08       		.byte	0x8
 682 0053 2F050000 		.4byte	.LASF4
 683 0057 04       		.uleb128 0x4
 684 0058 02       		.byte	0x2
 685 0059 05       		.byte	0x5
 686 005a 05040000 		.4byte	.LASF5
 687 005e 03       		.uleb128 0x3
 688 005f 88010000 		.4byte	.LASF6
 689 0063 04       		.byte	0x4
 690 0064 26       		.byte	0x26
 691 0065 69000000 		.4byte	0x69
 692 0069 04       		.uleb128 0x4
 693 006a 02       		.byte	0x2
 694 006b 07       		.byte	0x7
 695 006c B5050000 		.4byte	.LASF7
 696 0070 03       		.uleb128 0x3
 697 0071 77000000 		.4byte	.LASF8
 698 0075 04       		.byte	0x4
 699 0076 37       		.byte	0x37
 700 0077 7B000000 		.4byte	0x7b
 701 007b 04       		.uleb128 0x4
 702 007c 04       		.byte	0x4
 703 007d 05       		.byte	0x5
 704 007e 1B040000 		.4byte	.LASF9
 705 0082 03       		.uleb128 0x3
 706 0083 3D050000 		.4byte	.LASF10
 707 0087 04       		.byte	0x4
 708 0088 38       		.byte	0x38
 709 0089 8D000000 		.4byte	0x8d
 710 008d 04       		.uleb128 0x4
 711 008e 04       		.byte	0x4
 712 008f 07       		.byte	0x7
 713 0090 D9040000 		.4byte	.LASF11
 714 0094 04       		.uleb128 0x4
 715 0095 08       		.byte	0x8
 716 0096 05       		.byte	0x5
 717 0097 C7020000 		.4byte	.LASF12
 718 009b 03       		.uleb128 0x3
 719 009c 28020000 		.4byte	.LASF13
 720 00a0 04       		.byte	0x4
 721 00a1 4E       		.byte	0x4e
 722 00a2 A6000000 		.4byte	0xa6
 723 00a6 04       		.uleb128 0x4
 724 00a7 08       		.byte	0x8
 725 00a8 07       		.byte	0x7
 726 00a9 71010000 		.4byte	.LASF14
 727 00ad 03       		.uleb128 0x3
 728 00ae 92020000 		.4byte	.LASF15
 729 00b2 05       		.byte	0x5
 730 00b3 2A       		.byte	0x2a
 731 00b4 45000000 		.4byte	0x45
 732 00b8 03       		.uleb128 0x3
 733 00b9 E9030000 		.4byte	.LASF16
 734 00bd 05       		.byte	0x5
 735 00be 36       		.byte	0x36
ARM GAS  /tmp/ccq7hRlA.s 			page 38


 736 00bf 5E000000 		.4byte	0x5e
 737 00c3 03       		.uleb128 0x3
 738 00c4 FE040000 		.4byte	.LASF17
 739 00c8 05       		.byte	0x5
 740 00c9 41       		.byte	0x41
 741 00ca 70000000 		.4byte	0x70
 742 00ce 03       		.uleb128 0x3
 743 00cf 12010000 		.4byte	.LASF18
 744 00d3 05       		.byte	0x5
 745 00d4 42       		.byte	0x42
 746 00d5 82000000 		.4byte	0x82
 747 00d9 03       		.uleb128 0x3
 748 00da 67040000 		.4byte	.LASF19
 749 00de 05       		.byte	0x5
 750 00df 4E       		.byte	0x4e
 751 00e0 9B000000 		.4byte	0x9b
 752 00e4 03       		.uleb128 0x3
 753 00e5 D6030000 		.4byte	.LASF20
 754 00e9 06       		.byte	0x6
 755 00ea 3C       		.byte	0x3c
 756 00eb AD000000 		.4byte	0xad
 757 00ef 03       		.uleb128 0x3
 758 00f0 89020000 		.4byte	.LASF21
 759 00f4 06       		.byte	0x6
 760 00f5 3D       		.byte	0x3d
 761 00f6 AD000000 		.4byte	0xad
 762 00fa 03       		.uleb128 0x3
 763 00fb D1040000 		.4byte	.LASF22
 764 00ff 06       		.byte	0x6
 765 0100 3E       		.byte	0x3e
 766 0101 AD000000 		.4byte	0xad
 767 0105 03       		.uleb128 0x3
 768 0106 50010000 		.4byte	.LASF23
 769 010a 06       		.byte	0x6
 770 010b 40       		.byte	0x40
 771 010c CE000000 		.4byte	0xce
 772 0110 03       		.uleb128 0x3
 773 0111 D5020000 		.4byte	.LASF24
 774 0115 06       		.byte	0x6
 775 0116 41       		.byte	0x41
 776 0117 C3000000 		.4byte	0xc3
 777 011b 03       		.uleb128 0x3
 778 011c 23010000 		.4byte	.LASF25
 779 0120 06       		.byte	0x6
 780 0121 43       		.byte	0x43
 781 0122 CE000000 		.4byte	0xce
 782 0126 03       		.uleb128 0x3
 783 0127 93010000 		.4byte	.LASF26
 784 012b 06       		.byte	0x6
 785 012c 45       		.byte	0x45
 786 012d C3000000 		.4byte	0xc3
 787 0131 03       		.uleb128 0x3
 788 0132 3A000000 		.4byte	.LASF27
 789 0136 07       		.byte	0x7
 790 0137 35       		.byte	0x35
 791 0138 B8000000 		.4byte	0xb8
 792 013c 03       		.uleb128 0x3
ARM GAS  /tmp/ccq7hRlA.s 			page 39


 793 013d E5010000 		.4byte	.LASF28
 794 0141 07       		.byte	0x7
 795 0142 3F       		.byte	0x3f
 796 0143 47010000 		.4byte	0x147
 797 0147 05       		.uleb128 0x5
 798 0148 A3020000 		.4byte	.LASF46
 799 014c 44       		.byte	0x44
 800 014d 08       		.byte	0x8
 801 014e 9A       		.byte	0x9a
 802 014f 25020000 		.4byte	0x225
 803 0153 06       		.uleb128 0x6
 804 0154 F8040000 		.4byte	.LASF29
 805 0158 08       		.byte	0x8
 806 0159 9B       		.byte	0x9b
 807 015a 5A020000 		.4byte	0x25a
 808 015e 00       		.byte	0
 809 015f 06       		.uleb128 0x6
 810 0160 3D020000 		.4byte	.LASF30
 811 0164 08       		.byte	0x8
 812 0165 9C       		.byte	0x9c
 813 0166 05010000 		.4byte	0x105
 814 016a 08       		.byte	0x8
 815 016b 07       		.uleb128 0x7
 816 016c 63747800 		.ascii	"ctx\000"
 817 0170 08       		.byte	0x8
 818 0171 9D       		.byte	0x9d
 819 0172 46040000 		.4byte	0x446
 820 0176 0C       		.byte	0xc
 821 0177 06       		.uleb128 0x6
 822 0178 29050000 		.4byte	.LASF31
 823 017c 08       		.byte	0x8
 824 017d 9F       		.byte	0x9f
 825 017e 30020000 		.4byte	0x230
 826 0182 10       		.byte	0x10
 827 0183 06       		.uleb128 0x6
 828 0184 FB050000 		.4byte	.LASF32
 829 0188 08       		.byte	0x8
 830 0189 A0       		.byte	0xa0
 831 018a 30020000 		.4byte	0x230
 832 018e 14       		.byte	0x14
 833 018f 06       		.uleb128 0x6
 834 0190 C3040000 		.4byte	.LASF33
 835 0194 08       		.byte	0x8
 836 0195 A7       		.byte	0xa7
 837 0196 AB050000 		.4byte	0x5ab
 838 019a 18       		.byte	0x18
 839 019b 06       		.uleb128 0x6
 840 019c 68020000 		.4byte	.LASF34
 841 01a0 08       		.byte	0x8
 842 01a1 B0       		.byte	0xb0
 843 01a2 BD050000 		.4byte	0x5bd
 844 01a6 1C       		.byte	0x1c
 845 01a7 06       		.uleb128 0x6
 846 01a8 79050000 		.4byte	.LASF35
 847 01ac 08       		.byte	0x8
 848 01ad B5       		.byte	0xb5
 849 01ae EF000000 		.4byte	0xef
ARM GAS  /tmp/ccq7hRlA.s 			page 40


 850 01b2 20       		.byte	0x20
 851 01b3 06       		.uleb128 0x6
 852 01b4 34000000 		.4byte	.LASF36
 853 01b8 08       		.byte	0x8
 854 01b9 B9       		.byte	0xb9
 855 01ba E4000000 		.4byte	0xe4
 856 01be 21       		.byte	0x21
 857 01bf 06       		.uleb128 0x6
 858 01c0 81000000 		.4byte	.LASF37
 859 01c4 08       		.byte	0x8
 860 01c5 BE       		.byte	0xbe
 861 01c6 FA000000 		.4byte	0xfa
 862 01ca 22       		.byte	0x22
 863 01cb 08       		.uleb128 0x8
 864 01cc 7500     		.ascii	"u\000"
 865 01ce 08       		.byte	0x8
 866 01cf 0F01     		.2byte	0x10f
 867 01d1 E0040000 		.4byte	0x4e0
 868 01d5 24       		.byte	0x24
 869 01d6 09       		.uleb128 0x9
 870 01d7 48050000 		.4byte	.LASF38
 871 01db 08       		.byte	0x8
 872 01dc 1401     		.2byte	0x114
 873 01de 36020000 		.4byte	0x236
 874 01e2 28       		.byte	0x28
 875 01e3 09       		.uleb128 0x9
 876 01e4 9A020000 		.4byte	.LASF39
 877 01e8 08       		.byte	0x8
 878 01e9 1A01     		.2byte	0x11a
 879 01eb 5A020000 		.4byte	0x25a
 880 01ef 2C       		.byte	0x2c
 881 01f0 09       		.uleb128 0x9
 882 01f1 4D000000 		.4byte	.LASF40
 883 01f5 08       		.byte	0x8
 884 01f6 2001     		.2byte	0x120
 885 01f8 1B010000 		.4byte	0x11b
 886 01fc 34       		.byte	0x34
 887 01fd 09       		.uleb128 0x9
 888 01fe C1010000 		.4byte	.LASF41
 889 0202 08       		.byte	0x8
 890 0203 2701     		.2byte	0x127
 891 0205 A5050000 		.4byte	0x5a5
 892 0209 38       		.byte	0x38
 893 020a 09       		.uleb128 0x9
 894 020b 44000000 		.4byte	.LASF42
 895 020f 08       		.byte	0x8
 896 0210 2B01     		.2byte	0x12b
 897 0212 05010000 		.4byte	0x105
 898 0216 3C       		.byte	0x3c
 899 0217 09       		.uleb128 0x9
 900 0218 18060000 		.4byte	.LASF43
 901 021c 08       		.byte	0x8
 902 021d 3201     		.2byte	0x132
 903 021f 0D030000 		.4byte	0x30d
 904 0223 40       		.byte	0x40
 905 0224 00       		.byte	0
 906 0225 03       		.uleb128 0x3
ARM GAS  /tmp/ccq7hRlA.s 			page 41


 907 0226 55020000 		.4byte	.LASF44
 908 022a 07       		.byte	0x7
 909 022b 44       		.byte	0x44
 910 022c 30020000 		.4byte	0x230
 911 0230 0A       		.uleb128 0xa
 912 0231 04       		.byte	0x4
 913 0232 3C010000 		.4byte	0x13c
 914 0236 03       		.uleb128 0x3
 915 0237 68000000 		.4byte	.LASF45
 916 023b 07       		.byte	0x7
 917 023c 49       		.byte	0x49
 918 023d 41020000 		.4byte	0x241
 919 0241 05       		.uleb128 0x5
 920 0242 00000000 		.4byte	.LASF47
 921 0246 04       		.byte	0x4
 922 0247 08       		.byte	0x8
 923 0248 88       		.byte	0x88
 924 0249 5A020000 		.4byte	0x25a
 925 024d 06       		.uleb128 0x6
 926 024e 63000000 		.4byte	.LASF48
 927 0252 08       		.byte	0x8
 928 0253 89       		.byte	0x89
 929 0254 30020000 		.4byte	0x230
 930 0258 00       		.byte	0
 931 0259 00       		.byte	0
 932 025a 03       		.uleb128 0x3
 933 025b AB010000 		.4byte	.LASF49
 934 025f 07       		.byte	0x7
 935 0260 50       		.byte	0x50
 936 0261 65020000 		.4byte	0x265
 937 0265 05       		.uleb128 0x5
 938 0266 E8000000 		.4byte	.LASF50
 939 026a 08       		.byte	0x8
 940 026b 08       		.byte	0x8
 941 026c 8F       		.byte	0x8f
 942 026d 8A020000 		.4byte	0x28a
 943 0271 06       		.uleb128 0x6
 944 0272 63000000 		.4byte	.LASF48
 945 0276 08       		.byte	0x8
 946 0277 90       		.byte	0x90
 947 0278 30020000 		.4byte	0x230
 948 027c 00       		.byte	0
 949 027d 06       		.uleb128 0x6
 950 027e E3000000 		.4byte	.LASF51
 951 0282 08       		.byte	0x8
 952 0283 91       		.byte	0x91
 953 0284 30020000 		.4byte	0x230
 954 0288 04       		.byte	0x4
 955 0289 00       		.byte	0
 956 028a 03       		.uleb128 0x3
 957 028b EB040000 		.4byte	.LASF52
 958 028f 07       		.byte	0x7
 959 0290 57       		.byte	0x57
 960 0291 95020000 		.4byte	0x295
 961 0295 0B       		.uleb128 0xb
 962 0296 C9000000 		.4byte	.LASF53
 963 029a 1C       		.byte	0x1c
ARM GAS  /tmp/ccq7hRlA.s 			page 42


 964 029b 08       		.byte	0x8
 965 029c 6A01     		.2byte	0x16a
 966 029e F1020000 		.4byte	0x2f1
 967 02a2 09       		.uleb128 0x9
 968 02a3 F8040000 		.4byte	.LASF29
 969 02a7 08       		.byte	0x8
 970 02a8 6B01     		.2byte	0x16b
 971 02aa 5A020000 		.4byte	0x25a
 972 02ae 00       		.byte	0
 973 02af 09       		.uleb128 0x9
 974 02b0 3D020000 		.4byte	.LASF30
 975 02b4 08       		.byte	0x8
 976 02b5 6C01     		.2byte	0x16c
 977 02b7 05010000 		.4byte	0x105
 978 02bb 08       		.byte	0x8
 979 02bc 08       		.uleb128 0x8
 980 02bd 63747800 		.ascii	"ctx\000"
 981 02c1 08       		.byte	0x8
 982 02c2 6E01     		.2byte	0x16e
 983 02c4 46040000 		.4byte	0x446
 984 02c8 0C       		.byte	0xc
 985 02c9 09       		.uleb128 0x9
 986 02ca 29050000 		.4byte	.LASF31
 987 02ce 08       		.byte	0x8
 988 02cf 7101     		.2byte	0x171
 989 02d1 30020000 		.4byte	0x230
 990 02d5 10       		.byte	0x10
 991 02d6 09       		.uleb128 0x9
 992 02d7 FB050000 		.4byte	.LASF32
 993 02db 08       		.byte	0x8
 994 02dc 7201     		.2byte	0x172
 995 02de 30020000 		.4byte	0x230
 996 02e2 14       		.byte	0x14
 997 02e3 09       		.uleb128 0x9
 998 02e4 D3050000 		.4byte	.LASF54
 999 02e8 08       		.byte	0x8
 1000 02e9 7501     		.2byte	0x175
 1001 02eb 30020000 		.4byte	0x230
 1002 02ef 18       		.byte	0x18
 1003 02f0 00       		.byte	0
 1004 02f1 03       		.uleb128 0x3
 1005 02f2 F9000000 		.4byte	.LASF55
 1006 02f6 07       		.byte	0x7
 1007 02f7 5C       		.byte	0x5c
 1008 02f8 FC020000 		.4byte	0x2fc
 1009 02fc 0A       		.uleb128 0xa
 1010 02fd 04       		.byte	0x4
 1011 02fe 02030000 		.4byte	0x302
 1012 0302 0C       		.uleb128 0xc
 1013 0303 0D030000 		.4byte	0x30d
 1014 0307 0D       		.uleb128 0xd
 1015 0308 0D030000 		.4byte	0x30d
 1016 030c 00       		.byte	0
 1017 030d 0E       		.uleb128 0xe
 1018 030e 04       		.byte	0x4
 1019 030f 03       		.uleb128 0x3
 1020 0310 DB020000 		.4byte	.LASF56
ARM GAS  /tmp/ccq7hRlA.s 			page 43


 1021 0314 07       		.byte	0x7
 1022 0315 61       		.byte	0x61
 1023 0316 1A030000 		.4byte	0x31a
 1024 031a 0B       		.uleb128 0xb
 1025 031b 58010000 		.4byte	.LASF57
 1026 031f 14       		.byte	0x14
 1027 0320 08       		.byte	0x8
 1028 0321 4501     		.2byte	0x145
 1029 0323 69030000 		.4byte	0x369
 1030 0327 09       		.uleb128 0x9
 1031 0328 63000000 		.4byte	.LASF48
 1032 032c 08       		.byte	0x8
 1033 032d 4601     		.2byte	0x146
 1034 032f C3050000 		.4byte	0x5c3
 1035 0333 00       		.byte	0
 1036 0334 09       		.uleb128 0x9
 1037 0335 E3000000 		.4byte	.LASF51
 1038 0339 08       		.byte	0x8
 1039 033a 4701     		.2byte	0x147
 1040 033c C3050000 		.4byte	0x5c3
 1041 0340 04       		.byte	0x4
 1042 0341 09       		.uleb128 0x9
 1043 0342 AF050000 		.4byte	.LASF58
 1044 0346 08       		.byte	0x8
 1045 0347 4801     		.2byte	0x148
 1046 0349 31010000 		.4byte	0x131
 1047 034d 08       		.byte	0x8
 1048 034e 09       		.uleb128 0x9
 1049 034f D7000000 		.4byte	.LASF59
 1050 0353 08       		.byte	0x8
 1051 0354 4901     		.2byte	0x149
 1052 0356 F1020000 		.4byte	0x2f1
 1053 035a 0C       		.byte	0xc
 1054 035b 08       		.uleb128 0x8
 1055 035c 70617200 		.ascii	"par\000"
 1056 0360 08       		.byte	0x8
 1057 0361 4B01     		.2byte	0x14b
 1058 0363 0D030000 		.4byte	0x30d
 1059 0367 10       		.byte	0x10
 1060 0368 00       		.byte	0
 1061 0369 03       		.uleb128 0x3
 1062 036a 56050000 		.4byte	.LASF60
 1063 036e 07       		.byte	0x7
 1064 036f 66       		.byte	0x66
 1065 0370 74030000 		.4byte	0x374
 1066 0374 0B       		.uleb128 0xb
 1067 0375 C9010000 		.4byte	.LASF61
 1068 0379 0C       		.byte	0xc
 1069 037a 08       		.byte	0x8
 1070 037b 5501     		.2byte	0x155
 1071 037d B6030000 		.4byte	0x3b6
 1072 0381 09       		.uleb128 0x9
 1073 0382 63000000 		.4byte	.LASF48
 1074 0386 08       		.byte	0x8
 1075 0387 5601     		.2byte	0x156
 1076 0389 C3050000 		.4byte	0x5c3
 1077 038d 00       		.byte	0
ARM GAS  /tmp/ccq7hRlA.s 			page 44


 1078 038e 09       		.uleb128 0x9
 1079 038f E3000000 		.4byte	.LASF51
 1080 0393 08       		.byte	0x8
 1081 0394 5801     		.2byte	0x158
 1082 0396 C3050000 		.4byte	0x5c3
 1083 039a 04       		.byte	0x4
 1084 039b 09       		.uleb128 0x9
 1085 039c AF050000 		.4byte	.LASF58
 1086 03a0 08       		.byte	0x8
 1087 03a1 5A01     		.2byte	0x15a
 1088 03a3 31010000 		.4byte	0x131
 1089 03a7 08       		.byte	0x8
 1090 03a8 09       		.uleb128 0x9
 1091 03a9 5E040000 		.4byte	.LASF62
 1092 03ad 08       		.byte	0x8
 1093 03ae 6201     		.2byte	0x162
 1094 03b0 31010000 		.4byte	0x131
 1095 03b4 0A       		.byte	0xa
 1096 03b5 00       		.byte	0
 1097 03b6 03       		.uleb128 0x3
 1098 03b7 B3020000 		.4byte	.LASF63
 1099 03bb 07       		.byte	0x7
 1100 03bc 6B       		.byte	0x6b
 1101 03bd C1030000 		.4byte	0x3c1
 1102 03c1 0B       		.uleb128 0xb
 1103 03c2 02010000 		.4byte	.LASF64
 1104 03c6 04       		.byte	0x4
 1105 03c7 08       		.byte	0x8
 1106 03c8 7C01     		.2byte	0x17c
 1107 03ca DC030000 		.4byte	0x3dc
 1108 03ce 09       		.uleb128 0x9
 1109 03cf CC030000 		.4byte	.LASF65
 1110 03d3 08       		.byte	0x8
 1111 03d4 8401     		.2byte	0x184
 1112 03d6 C9050000 		.4byte	0x5c9
 1113 03da 00       		.byte	0
 1114 03db 00       		.byte	0
 1115 03dc 03       		.uleb128 0x3
 1116 03dd 8B050000 		.4byte	.LASF66
 1117 03e1 07       		.byte	0x7
 1118 03e2 70       		.byte	0x70
 1119 03e3 E7030000 		.4byte	0x3e7
 1120 03e7 0B       		.uleb128 0xb
 1121 03e8 3D040000 		.4byte	.LASF67
 1122 03ec 70       		.byte	0x70
 1123 03ed 08       		.byte	0x8
 1124 03ee 9C01     		.2byte	0x19c
 1125 03f0 29040000 		.4byte	0x429
 1126 03f4 09       		.uleb128 0x9
 1127 03f5 70040000 		.4byte	.LASF68
 1128 03f9 08       		.byte	0x8
 1129 03fa A001     		.2byte	0x1a0
 1130 03fc 8A020000 		.4byte	0x28a
 1131 0400 00       		.byte	0
 1132 0401 09       		.uleb128 0x9
 1133 0402 9C000000 		.4byte	.LASF69
 1134 0406 08       		.byte	0x8
ARM GAS  /tmp/ccq7hRlA.s 			page 45


 1135 0407 A401     		.2byte	0x1a4
 1136 0409 69030000 		.4byte	0x369
 1137 040d 1C       		.byte	0x1c
 1138 040e 08       		.uleb128 0x8
 1139 040f 64626700 		.ascii	"dbg\000"
 1140 0413 08       		.byte	0x8
 1141 0414 A801     		.2byte	0x1a8
 1142 0416 B6030000 		.4byte	0x3b6
 1143 041a 28       		.byte	0x28
 1144 041b 09       		.uleb128 0x9
 1145 041c DE030000 		.4byte	.LASF70
 1146 0420 08       		.byte	0x8
 1147 0421 AC01     		.2byte	0x1ac
 1148 0423 3C010000 		.4byte	0x13c
 1149 0427 2C       		.byte	0x2c
 1150 0428 00       		.byte	0
 1151 0429 04       		.uleb128 0x4
 1152 042a 04       		.byte	0x4
 1153 042b 07       		.byte	0x7
 1154 042c C8040000 		.4byte	.LASF71
 1155 0430 03       		.uleb128 0x3
 1156 0431 2B000000 		.4byte	.LASF72
 1157 0435 09       		.byte	0x9
 1158 0436 65       		.byte	0x65
 1159 0437 0D030000 		.4byte	0x30d
 1160 043b 03       		.uleb128 0x3
 1161 043c C8050000 		.4byte	.LASF73
 1162 0440 09       		.byte	0x9
 1163 0441 6D       		.byte	0x6d
 1164 0442 D9000000 		.4byte	0xd9
 1165 0446 05       		.uleb128 0x5
 1166 0447 BC000000 		.4byte	.LASF74
 1167 044b 04       		.byte	0x4
 1168 044c 09       		.byte	0x9
 1169 044d 89       		.byte	0x89
 1170 044e 5E040000 		.4byte	0x45e
 1171 0452 07       		.uleb128 0x7
 1172 0453 737000   		.ascii	"sp\000"
 1173 0456 09       		.byte	0x9
 1174 0457 8A       		.byte	0x8a
 1175 0458 DA040000 		.4byte	0x4da
 1176 045c 00       		.byte	0
 1177 045d 00       		.byte	0
 1178 045e 0B       		.uleb128 0xb
 1179 045f 24040000 		.4byte	.LASF75
 1180 0463 24       		.byte	0x24
 1181 0464 0A       		.byte	0xa
 1182 0465 5901     		.2byte	0x159
 1183 0467 DA040000 		.4byte	0x4da
 1184 046b 08       		.uleb128 0x8
 1185 046c 723400   		.ascii	"r4\000"
 1186 046f 0A       		.byte	0xa
 1187 0470 6C01     		.2byte	0x16c
 1188 0472 30040000 		.4byte	0x430
 1189 0476 00       		.byte	0
 1190 0477 08       		.uleb128 0x8
 1191 0478 723500   		.ascii	"r5\000"
ARM GAS  /tmp/ccq7hRlA.s 			page 46


 1192 047b 0A       		.byte	0xa
 1193 047c 6D01     		.2byte	0x16d
 1194 047e 30040000 		.4byte	0x430
 1195 0482 04       		.byte	0x4
 1196 0483 08       		.uleb128 0x8
 1197 0484 723600   		.ascii	"r6\000"
 1198 0487 0A       		.byte	0xa
 1199 0488 6E01     		.2byte	0x16e
 1200 048a 30040000 		.4byte	0x430
 1201 048e 08       		.byte	0x8
 1202 048f 08       		.uleb128 0x8
 1203 0490 723700   		.ascii	"r7\000"
 1204 0493 0A       		.byte	0xa
 1205 0494 6F01     		.2byte	0x16f
 1206 0496 30040000 		.4byte	0x430
 1207 049a 0C       		.byte	0xc
 1208 049b 08       		.uleb128 0x8
 1209 049c 723800   		.ascii	"r8\000"
 1210 049f 0A       		.byte	0xa
 1211 04a0 7001     		.2byte	0x170
 1212 04a2 30040000 		.4byte	0x430
 1213 04a6 10       		.byte	0x10
 1214 04a7 08       		.uleb128 0x8
 1215 04a8 723900   		.ascii	"r9\000"
 1216 04ab 0A       		.byte	0xa
 1217 04ac 7101     		.2byte	0x171
 1218 04ae 30040000 		.4byte	0x430
 1219 04b2 14       		.byte	0x14
 1220 04b3 08       		.uleb128 0x8
 1221 04b4 72313000 		.ascii	"r10\000"
 1222 04b8 0A       		.byte	0xa
 1223 04b9 7201     		.2byte	0x172
 1224 04bb 30040000 		.4byte	0x430
 1225 04bf 18       		.byte	0x18
 1226 04c0 08       		.uleb128 0x8
 1227 04c1 72313100 		.ascii	"r11\000"
 1228 04c5 0A       		.byte	0xa
 1229 04c6 7301     		.2byte	0x173
 1230 04c8 30040000 		.4byte	0x430
 1231 04cc 1C       		.byte	0x1c
 1232 04cd 08       		.uleb128 0x8
 1233 04ce 6C7200   		.ascii	"lr\000"
 1234 04d1 0A       		.byte	0xa
 1235 04d2 7401     		.2byte	0x174
 1236 04d4 30040000 		.4byte	0x430
 1237 04d8 20       		.byte	0x20
 1238 04d9 00       		.byte	0
 1239 04da 0A       		.uleb128 0xa
 1240 04db 04       		.byte	0x4
 1241 04dc 5E040000 		.4byte	0x45e
 1242 04e0 0F       		.uleb128 0xf
 1243 04e1 04       		.byte	0x4
 1244 04e2 08       		.byte	0x8
 1245 04e3 D2       		.byte	0xd2
 1246 04e4 43050000 		.4byte	0x543
 1247 04e8 10       		.uleb128 0x10
 1248 04e9 01020000 		.4byte	.LASF76
ARM GAS  /tmp/ccq7hRlA.s 			page 47


 1249 04ed 08       		.byte	0x8
 1250 04ee D9       		.byte	0xd9
 1251 04ef 10010000 		.4byte	0x110
 1252 04f3 10       		.uleb128 0x10
 1253 04f4 01060000 		.4byte	.LASF77
 1254 04f8 08       		.byte	0x8
 1255 04f9 E0       		.byte	0xe0
 1256 04fa 10010000 		.4byte	0x110
 1257 04fe 10       		.uleb128 0x10
 1258 04ff 8B000000 		.4byte	.LASF78
 1259 0503 08       		.byte	0x8
 1260 0504 E7       		.byte	0xe7
 1261 0505 0D030000 		.4byte	0x30d
 1262 0509 10       		.uleb128 0x10
 1263 050a 97050000 		.4byte	.LASF79
 1264 050e 08       		.byte	0x8
 1265 050f EE       		.byte	0xee
 1266 0510 43050000 		.4byte	0x543
 1267 0514 10       		.uleb128 0x10
 1268 0515 1B010000 		.4byte	.LASF80
 1269 0519 08       		.byte	0x8
 1270 051a F3       		.byte	0xf3
 1271 051b 10010000 		.4byte	0x110
 1272 051f 10       		.uleb128 0x10
 1273 0520 06050000 		.4byte	.LASF81
 1274 0524 08       		.byte	0x8
 1275 0525 FC       		.byte	0xfc
 1276 0526 6E050000 		.4byte	0x56e
 1277 052a 11       		.uleb128 0x11
 1278 052b 10000000 		.4byte	.LASF82
 1279 052f 08       		.byte	0x8
 1280 0530 0501     		.2byte	0x105
 1281 0532 A5050000 		.4byte	0x5a5
 1282 0536 11       		.uleb128 0x11
 1283 0537 DC000000 		.4byte	.LASF83
 1284 053b 08       		.byte	0x8
 1285 053c 0D01     		.2byte	0x10d
 1286 053e 1B010000 		.4byte	0x11b
 1287 0542 00       		.byte	0
 1288 0543 0A       		.uleb128 0xa
 1289 0544 04       		.byte	0x4
 1290 0545 25020000 		.4byte	0x225
 1291 0549 05       		.uleb128 0x5
 1292 054a 43010000 		.4byte	.LASF84
 1293 054e 0C       		.byte	0xc
 1294 054f 0B       		.byte	0xb
 1295 0550 34       		.byte	0x34
 1296 0551 6E050000 		.4byte	0x56e
 1297 0555 06       		.uleb128 0x6
 1298 0556 F8040000 		.4byte	.LASF29
 1299 055a 0B       		.byte	0xb
 1300 055b 35       		.byte	0x35
 1301 055c 5A020000 		.4byte	0x25a
 1302 0560 00       		.byte	0
 1303 0561 07       		.uleb128 0x7
 1304 0562 636E7400 		.ascii	"cnt\000"
 1305 0566 0B       		.byte	0xb
ARM GAS  /tmp/ccq7hRlA.s 			page 48


 1306 0567 37       		.byte	0x37
 1307 0568 26010000 		.4byte	0x126
 1308 056c 08       		.byte	0x8
 1309 056d 00       		.byte	0
 1310 056e 0A       		.uleb128 0xa
 1311 056f 04       		.byte	0x4
 1312 0570 49050000 		.4byte	0x549
 1313 0574 05       		.uleb128 0x5
 1314 0575 1A020000 		.4byte	.LASF85
 1315 0579 10       		.byte	0x10
 1316 057a 0C       		.byte	0xc
 1317 057b 39       		.byte	0x39
 1318 057c A5050000 		.4byte	0x5a5
 1319 0580 06       		.uleb128 0x6
 1320 0581 F8040000 		.4byte	.LASF29
 1321 0585 0C       		.byte	0xc
 1322 0586 3A       		.byte	0x3a
 1323 0587 5A020000 		.4byte	0x25a
 1324 058b 00       		.byte	0
 1325 058c 06       		.uleb128 0x6
 1326 058d A5010000 		.4byte	.LASF86
 1327 0591 0C       		.byte	0xc
 1328 0592 3C       		.byte	0x3c
 1329 0593 30020000 		.4byte	0x230
 1330 0597 08       		.byte	0x8
 1331 0598 06       		.uleb128 0x6
 1332 0599 63000000 		.4byte	.LASF48
 1333 059d 0C       		.byte	0xc
 1334 059e 3E       		.byte	0x3e
 1335 059f 40060000 		.4byte	0x640
 1336 05a3 0C       		.byte	0xc
 1337 05a4 00       		.byte	0
 1338 05a5 0A       		.uleb128 0xa
 1339 05a6 04       		.byte	0x4
 1340 05a7 74050000 		.4byte	0x574
 1341 05ab 0A       		.uleb128 0xa
 1342 05ac 04       		.byte	0x4
 1343 05ad B1050000 		.4byte	0x5b1
 1344 05b1 12       		.uleb128 0x12
 1345 05b2 B6050000 		.4byte	0x5b6
 1346 05b6 04       		.uleb128 0x4
 1347 05b7 01       		.byte	0x1
 1348 05b8 08       		.byte	0x8
 1349 05b9 50020000 		.4byte	.LASF87
 1350 05bd 0A       		.uleb128 0xa
 1351 05be 04       		.byte	0x4
 1352 05bf 3B040000 		.4byte	0x43b
 1353 05c3 0A       		.uleb128 0xa
 1354 05c4 04       		.byte	0x4
 1355 05c5 0F030000 		.4byte	0x30f
 1356 05c9 13       		.uleb128 0x13
 1357 05ca AB050000 		.4byte	0x5ab
 1358 05ce 03       		.uleb128 0x3
 1359 05cf 69010000 		.4byte	.LASF88
 1360 05d3 0D       		.byte	0xd
 1361 05d4 40       		.byte	0x40
 1362 05d5 FC020000 		.4byte	0x2fc
ARM GAS  /tmp/ccq7hRlA.s 			page 49


 1363 05d9 14       		.uleb128 0x14
 1364 05da 18       		.byte	0x18
 1365 05db 0D       		.byte	0xd
 1366 05dc 45       		.byte	0x45
 1367 05dd 2A060000 		.4byte	0x62a
 1368 05e1 06       		.uleb128 0x6
 1369 05e2 C3040000 		.4byte	.LASF33
 1370 05e6 0D       		.byte	0xd
 1371 05e7 49       		.byte	0x49
 1372 05e8 AB050000 		.4byte	0x5ab
 1373 05ec 00       		.byte	0
 1374 05ed 06       		.uleb128 0x6
 1375 05ee 25000000 		.4byte	.LASF89
 1376 05f2 0D       		.byte	0xd
 1377 05f3 4D       		.byte	0x4d
 1378 05f4 BD050000 		.4byte	0x5bd
 1379 05f8 04       		.byte	0x4
 1380 05f9 06       		.uleb128 0x6
 1381 05fa C2020000 		.4byte	.LASF90
 1382 05fe 0D       		.byte	0xd
 1383 05ff 51       		.byte	0x51
 1384 0600 BD050000 		.4byte	0x5bd
 1385 0604 08       		.byte	0x8
 1386 0605 06       		.uleb128 0x6
 1387 0606 3D020000 		.4byte	.LASF30
 1388 060a 0D       		.byte	0xd
 1389 060b 55       		.byte	0x55
 1390 060c 05010000 		.4byte	0x105
 1391 0610 0C       		.byte	0xc
 1392 0611 06       		.uleb128 0x6
 1393 0612 50050000 		.4byte	.LASF91
 1394 0616 0D       		.byte	0xd
 1395 0617 59       		.byte	0x59
 1396 0618 CE050000 		.4byte	0x5ce
 1397 061c 10       		.byte	0x10
 1398 061d 07       		.uleb128 0x7
 1399 061e 61726700 		.ascii	"arg\000"
 1400 0622 0D       		.byte	0xd
 1401 0623 5D       		.byte	0x5d
 1402 0624 0D030000 		.4byte	0x30d
 1403 0628 14       		.byte	0x14
 1404 0629 00       		.byte	0
 1405 062a 03       		.uleb128 0x3
 1406 062b 2F010000 		.4byte	.LASF92
 1407 062f 0D       		.byte	0xd
 1408 0630 5E       		.byte	0x5e
 1409 0631 D9050000 		.4byte	0x5d9
 1410 0635 03       		.uleb128 0x3
 1411 0636 21050000 		.4byte	.LASF93
 1412 063a 0C       		.byte	0xc
 1413 063b 34       		.byte	0x34
 1414 063c 74050000 		.4byte	0x574
 1415 0640 0A       		.uleb128 0xa
 1416 0641 04       		.byte	0x4
 1417 0642 35060000 		.4byte	0x635
 1418 0646 04       		.uleb128 0x4
 1419 0647 01       		.byte	0x1
ARM GAS  /tmp/ccq7hRlA.s 			page 50


 1420 0648 02       		.byte	0x2
 1421 0649 14020000 		.4byte	.LASF94
 1422 064d 03       		.uleb128 0x3
 1423 064e B6040000 		.4byte	.LASF95
 1424 0652 0E       		.byte	0xe
 1425 0653 47       		.byte	0x47
 1426 0654 58060000 		.4byte	0x658
 1427 0658 0A       		.uleb128 0xa
 1428 0659 04       		.byte	0x4
 1429 065a 5E060000 		.4byte	0x65e
 1430 065e 15       		.uleb128 0x15
 1431 065f 0D030000 		.4byte	0x30d
 1432 0663 72060000 		.4byte	0x672
 1433 0667 0D       		.uleb128 0xd
 1434 0668 2C000000 		.4byte	0x2c
 1435 066c 0D       		.uleb128 0xd
 1436 066d 37000000 		.4byte	0x37
 1437 0671 00       		.byte	0
 1438 0672 03       		.uleb128 0x3
 1439 0673 E7050000 		.4byte	.LASF96
 1440 0677 0E       		.byte	0xe
 1441 0678 4C       		.byte	0x4c
 1442 0679 7D060000 		.4byte	0x67d
 1443 067d 0A       		.uleb128 0xa
 1444 067e 04       		.byte	0x4
 1445 067f 83060000 		.4byte	0x683
 1446 0683 15       		.uleb128 0x15
 1447 0684 0D030000 		.4byte	0x30d
 1448 0688 9C060000 		.4byte	0x69c
 1449 068c 0D       		.uleb128 0xd
 1450 068d 2C000000 		.4byte	0x2c
 1451 0691 0D       		.uleb128 0xd
 1452 0692 37000000 		.4byte	0x37
 1453 0696 0D       		.uleb128 0xd
 1454 0697 2C000000 		.4byte	0x2c
 1455 069b 00       		.byte	0
 1456 069c 03       		.uleb128 0x3
 1457 069d A8030000 		.4byte	.LASF97
 1458 06a1 0F       		.byte	0xf
 1459 06a2 48       		.byte	0x48
 1460 06a3 A7060000 		.4byte	0x6a7
 1461 06a7 05       		.uleb128 0x5
 1462 06a8 0F040000 		.4byte	.LASF98
 1463 06ac 20       		.byte	0x20
 1464 06ad 0F       		.byte	0xf
 1465 06ae 61       		.byte	0x61
 1466 06af D8060000 		.4byte	0x6d8
 1467 06b3 06       		.uleb128 0x6
 1468 06b4 55040000 		.4byte	.LASF99
 1469 06b8 0F       		.byte	0xf
 1470 06b9 62       		.byte	0x62
 1471 06ba 72060000 		.4byte	0x672
 1472 06be 00       		.byte	0
 1473 06bf 06       		.uleb128 0x6
 1474 06c0 A1030000 		.4byte	.LASF100
 1475 06c4 0F       		.byte	0xf
 1476 06c5 64       		.byte	0x64
ARM GAS  /tmp/ccq7hRlA.s 			page 51


 1477 06c6 D8060000 		.4byte	0x6d8
 1478 06ca 08       		.byte	0x8
 1479 06cb 07       		.uleb128 0x7
 1480 06cc 6D747800 		.ascii	"mtx\000"
 1481 06d0 0F       		.byte	0xf
 1482 06d1 66       		.byte	0x66
 1483 06d2 35060000 		.4byte	0x635
 1484 06d6 10       		.byte	0x10
 1485 06d7 00       		.byte	0
 1486 06d8 03       		.uleb128 0x3
 1487 06d9 0A060000 		.4byte	.LASF101
 1488 06dd 0F       		.byte	0xf
 1489 06de 4D       		.byte	0x4d
 1490 06df E3060000 		.4byte	0x6e3
 1491 06e3 16       		.uleb128 0x16
 1492 06e4 EE010000 		.4byte	.LASF127
 1493 06e8 08       		.byte	0x8
 1494 06e9 0F       		.byte	0xf
 1495 06ea 52       		.byte	0x52
 1496 06eb 11070000 		.4byte	0x711
 1497 06ef 10       		.uleb128 0x10
 1498 06f0 F5050000 		.4byte	.LASF102
 1499 06f4 0F       		.byte	0xf
 1500 06f5 53       		.byte	0x53
 1501 06f6 3B040000 		.4byte	0x43b
 1502 06fa 10       		.uleb128 0x10
 1503 06fb 23020000 		.4byte	.LASF103
 1504 06ff 0F       		.byte	0xf
 1505 0700 57       		.byte	0x57
 1506 0701 11070000 		.4byte	0x711
 1507 0705 10       		.uleb128 0x10
 1508 0706 E0010000 		.4byte	.LASF104
 1509 070a 0F       		.byte	0xf
 1510 070b 5B       		.byte	0x5b
 1511 070c 38070000 		.4byte	0x738
 1512 0710 00       		.byte	0
 1513 0711 14       		.uleb128 0x14
 1514 0712 08       		.byte	0x8
 1515 0713 0F       		.byte	0xf
 1516 0714 54       		.byte	0x54
 1517 0715 32070000 		.4byte	0x732
 1518 0719 06       		.uleb128 0x6
 1519 071a 63000000 		.4byte	.LASF48
 1520 071e 0F       		.byte	0xf
 1521 071f 55       		.byte	0x55
 1522 0720 32070000 		.4byte	0x732
 1523 0724 00       		.byte	0
 1524 0725 06       		.uleb128 0x6
 1525 0726 AD020000 		.4byte	.LASF105
 1526 072a 0F       		.byte	0xf
 1527 072b 56       		.byte	0x56
 1528 072c 2C000000 		.4byte	0x2c
 1529 0730 04       		.byte	0x4
 1530 0731 00       		.byte	0
 1531 0732 0A       		.uleb128 0xa
 1532 0733 04       		.byte	0x4
 1533 0734 D8060000 		.4byte	0x6d8
ARM GAS  /tmp/ccq7hRlA.s 			page 52


 1534 0738 14       		.uleb128 0x14
 1535 0739 08       		.byte	0x8
 1536 073a 0F       		.byte	0xf
 1537 073b 58       		.byte	0x58
 1538 073c 59070000 		.4byte	0x759
 1539 0740 06       		.uleb128 0x6
 1540 0741 86000000 		.4byte	.LASF106
 1541 0745 0F       		.byte	0xf
 1542 0746 59       		.byte	0x59
 1543 0747 59070000 		.4byte	0x759
 1544 074b 00       		.byte	0
 1545 074c 06       		.uleb128 0x6
 1546 074d EB020000 		.4byte	.LASF107
 1547 0751 0F       		.byte	0xf
 1548 0752 5A       		.byte	0x5a
 1549 0753 2C000000 		.4byte	0x2c
 1550 0757 04       		.byte	0x4
 1551 0758 00       		.byte	0
 1552 0759 0A       		.uleb128 0xa
 1553 075a 04       		.byte	0x4
 1554 075b 9C060000 		.4byte	0x69c
 1555 075f 05       		.uleb128 0x5
 1556 0760 7F050000 		.4byte	.LASF108
 1557 0764 04       		.byte	0x4
 1558 0765 10       		.byte	0x10
 1559 0766 38       		.byte	0x38
 1560 0767 78070000 		.4byte	0x778
 1561 076b 06       		.uleb128 0x6
 1562 076c 63000000 		.4byte	.LASF48
 1563 0770 10       		.byte	0x10
 1564 0771 39       		.byte	0x39
 1565 0772 78070000 		.4byte	0x778
 1566 0776 00       		.byte	0
 1567 0777 00       		.byte	0
 1568 0778 0A       		.uleb128 0xa
 1569 0779 04       		.byte	0x4
 1570 077a 5F070000 		.4byte	0x75f
 1571 077e 14       		.uleb128 0x14
 1572 077f 0C       		.byte	0xc
 1573 0780 10       		.byte	0x10
 1574 0781 40       		.byte	0x40
 1575 0782 AB070000 		.4byte	0x7ab
 1576 0786 06       		.uleb128 0x6
 1577 0787 63000000 		.4byte	.LASF48
 1578 078b 10       		.byte	0x10
 1579 078c 41       		.byte	0x41
 1580 078d 78070000 		.4byte	0x778
 1581 0791 00       		.byte	0
 1582 0792 06       		.uleb128 0x6
 1583 0793 08020000 		.4byte	.LASF109
 1584 0797 10       		.byte	0x10
 1585 0798 42       		.byte	0x42
 1586 0799 2C000000 		.4byte	0x2c
 1587 079d 04       		.byte	0x4
 1588 079e 06       		.uleb128 0x6
 1589 079f 55040000 		.4byte	.LASF99
 1590 07a3 10       		.byte	0x10
ARM GAS  /tmp/ccq7hRlA.s 			page 53


 1591 07a4 44       		.byte	0x44
 1592 07a5 4D060000 		.4byte	0x64d
 1593 07a9 08       		.byte	0x8
 1594 07aa 00       		.byte	0
 1595 07ab 03       		.uleb128 0x3
 1596 07ac 17000000 		.4byte	.LASF110
 1597 07b0 10       		.byte	0x10
 1598 07b1 46       		.byte	0x46
 1599 07b2 7E070000 		.4byte	0x77e
 1600 07b6 17       		.uleb128 0x17
 1601 07b7 47040000 		.4byte	.LASF114
 1602 07bb 02       		.byte	0x2
 1603 07bc 0601     		.2byte	0x106
 1604 07be 03       		.byte	0x3
 1605 07bf D0070000 		.4byte	0x7d0
 1606 07c3 18       		.uleb128 0x18
 1607 07c4 BB010000 		.4byte	.LASF128
 1608 07c8 02       		.byte	0x2
 1609 07c9 0601     		.2byte	0x106
 1610 07cb CE000000 		.4byte	0xce
 1611 07cf 00       		.byte	0
 1612 07d0 19       		.uleb128 0x19
 1613 07d1 92000000 		.4byte	.LASF111
 1614 07d5 0A       		.byte	0xa
 1615 07d6 5202     		.2byte	0x252
 1616 07d8 03       		.byte	0x3
 1617 07d9 19       		.uleb128 0x19
 1618 07da DB050000 		.4byte	.LASF112
 1619 07de 0A       		.byte	0xa
 1620 07df 6A02     		.2byte	0x26a
 1621 07e1 03       		.byte	0x3
 1622 07e2 19       		.uleb128 0x19
 1623 07e3 33020000 		.4byte	.LASF113
 1624 07e7 11       		.byte	0x11
 1625 07e8 7601     		.2byte	0x176
 1626 07ea 03       		.byte	0x3
 1627 07eb 17       		.uleb128 0x17
 1628 07ec 99010000 		.4byte	.LASF115
 1629 07f0 11       		.byte	0x11
 1630 07f1 8201     		.2byte	0x182
 1631 07f3 03       		.byte	0x3
 1632 07f4 06080000 		.4byte	0x806
 1633 07f8 1A       		.uleb128 0x1a
 1634 07f9 F0020000 		.4byte	.LASF129
 1635 07fd 16080000 		.4byte	0x816
 1636 0801 99010000 		.4byte	.LASF115
 1637 0805 00       		.byte	0
 1638 0806 1B       		.uleb128 0x1b
 1639 0807 B6050000 		.4byte	0x5b6
 1640 080b 16080000 		.4byte	0x816
 1641 080f 1C       		.uleb128 0x1c
 1642 0810 29040000 		.4byte	0x429
 1643 0814 0B       		.byte	0xb
 1644 0815 00       		.byte	0
 1645 0816 12       		.uleb128 0x12
 1646 0817 06080000 		.4byte	0x806
 1647 081b 1D       		.uleb128 0x1d
ARM GAS  /tmp/ccq7hRlA.s 			page 54


 1648 081c 0D050000 		.4byte	.LASF117
 1649 0820 01       		.byte	0x1
 1650 0821 52       		.byte	0x52
 1651 0822 30020000 		.4byte	0x230
 1652 0826 00000000 		.4byte	.LFB188
 1653 082a 4A000000 		.4byte	.LFE188-.LFB188
 1654 082e 01       		.uleb128 0x1
 1655 082f 9C       		.byte	0x9c
 1656 0830 8C090000 		.4byte	0x98c
 1657 0834 1E       		.uleb128 0x1e
 1658 0835 9D050000 		.4byte	.LASF116
 1659 0839 01       		.byte	0x1
 1660 083a 52       		.byte	0x52
 1661 083b 59070000 		.4byte	0x759
 1662 083f 00000000 		.4byte	.LLST0
 1663 0843 1E       		.uleb128 0x1e
 1664 0844 EB020000 		.4byte	.LASF107
 1665 0848 01       		.byte	0x1
 1666 0849 52       		.byte	0x52
 1667 084a 2C000000 		.4byte	0x2c
 1668 084e 21000000 		.4byte	.LLST1
 1669 0852 1E       		.uleb128 0x1e
 1670 0853 C3040000 		.4byte	.LASF33
 1671 0857 01       		.byte	0x1
 1672 0858 53       		.byte	0x53
 1673 0859 AB050000 		.4byte	0x5ab
 1674 085d 4D000000 		.4byte	.LLST2
 1675 0861 1E       		.uleb128 0x1e
 1676 0862 3D020000 		.4byte	.LASF30
 1677 0866 01       		.byte	0x1
 1678 0867 53       		.byte	0x53
 1679 0868 05010000 		.4byte	0x105
 1680 086c 79000000 		.4byte	.LLST3
 1681 0870 1F       		.uleb128 0x1f
 1682 0871 706600   		.ascii	"pf\000"
 1683 0874 01       		.byte	0x1
 1684 0875 54       		.byte	0x54
 1685 0876 CE050000 		.4byte	0x5ce
 1686 087a 02       		.uleb128 0x2
 1687 087b 91       		.byte	0x91
 1688 087c 00       		.sleb128 0
 1689 087d 1F       		.uleb128 0x1f
 1690 087e 61726700 		.ascii	"arg\000"
 1691 0882 01       		.byte	0x1
 1692 0883 54       		.byte	0x54
 1693 0884 0D030000 		.4byte	0x30d
 1694 0888 02       		.uleb128 0x2
 1695 0889 91       		.byte	0x91
 1696 088a 04       		.sleb128 4
 1697 088b 20       		.uleb128 0x20
 1698 088c 747000   		.ascii	"tp\000"
 1699 088f 01       		.byte	0x1
 1700 0890 55       		.byte	0x55
 1701 0891 30020000 		.4byte	0x230
 1702 0895 97000000 		.4byte	.LLST4
 1703 0899 20       		.uleb128 0x20
 1704 089a 77737000 		.ascii	"wsp\000"
ARM GAS  /tmp/ccq7hRlA.s 			page 55


 1705 089e 01       		.byte	0x1
 1706 089f 56       		.byte	0x56
 1707 08a0 0D030000 		.4byte	0x30d
 1708 08a4 B5000000 		.4byte	.LLST5
 1709 08a8 21       		.uleb128 0x21
 1710 08a9 746400   		.ascii	"td\000"
 1711 08ac 01       		.byte	0x1
 1712 08ad 5D       		.byte	0x5d
 1713 08ae 2A060000 		.4byte	0x62a
 1714 08b2 02       		.uleb128 0x2
 1715 08b3 91       		.byte	0x91
 1716 08b4 58       		.sleb128 -40
 1717 08b5 22       		.uleb128 0x22
 1718 08b6 E2070000 		.4byte	0x7e2
 1719 08ba 24000000 		.4byte	.LBB34
 1720 08be 06000000 		.4byte	.LBE34-.LBB34
 1721 08c2 01       		.byte	0x1
 1722 08c3 6C       		.byte	0x6c
 1723 08c4 F4080000 		.4byte	0x8f4
 1724 08c8 23       		.uleb128 0x23
 1725 08c9 D0070000 		.4byte	0x7d0
 1726 08cd 24000000 		.4byte	.LBB35
 1727 08d1 06000000 		.4byte	.LBE35-.LBB35
 1728 08d5 11       		.byte	0x11
 1729 08d6 7801     		.2byte	0x178
 1730 08d8 23       		.uleb128 0x23
 1731 08d9 B6070000 		.4byte	0x7b6
 1732 08dd 24000000 		.4byte	.LBB36
 1733 08e1 06000000 		.4byte	.LBE36-.LBB36
 1734 08e5 0A       		.byte	0xa
 1735 08e6 5A02     		.2byte	0x25a
 1736 08e8 24       		.uleb128 0x24
 1737 08e9 C3070000 		.4byte	0x7c3
 1738 08ed D4000000 		.4byte	.LLST6
 1739 08f1 00       		.byte	0
 1740 08f2 00       		.byte	0
 1741 08f3 00       		.byte	0
 1742 08f4 22       		.uleb128 0x22
 1743 08f5 EB070000 		.4byte	0x7eb
 1744 08f9 3E000000 		.4byte	.LBB38
 1745 08fd 06000000 		.4byte	.LBE38-.LBB38
 1746 0901 01       		.byte	0x1
 1747 0902 70       		.byte	0x70
 1748 0903 42090000 		.4byte	0x942
 1749 0907 25       		.uleb128 0x25
 1750 0908 3E000000 		.4byte	.LBB39
 1751 090c 06000000 		.4byte	.LBE39-.LBB39
 1752 0910 26       		.uleb128 0x26
 1753 0911 F8070000 		.4byte	0x7f8
 1754 0915 23       		.uleb128 0x23
 1755 0916 D9070000 		.4byte	0x7d9
 1756 091a 3E000000 		.4byte	.LBB40
 1757 091e 06000000 		.4byte	.LBE40-.LBB40
 1758 0922 11       		.byte	0x11
 1759 0923 8F01     		.2byte	0x18f
 1760 0925 23       		.uleb128 0x23
 1761 0926 B6070000 		.4byte	0x7b6
ARM GAS  /tmp/ccq7hRlA.s 			page 56


 1762 092a 3E000000 		.4byte	.LBB41
 1763 092e 06000000 		.4byte	.LBE41-.LBB41
 1764 0932 0A       		.byte	0xa
 1765 0933 6D02     		.2byte	0x26d
 1766 0935 24       		.uleb128 0x24
 1767 0936 C3070000 		.4byte	0x7c3
 1768 093a E9000000 		.4byte	.LLST7
 1769 093e 00       		.byte	0
 1770 093f 00       		.byte	0
 1771 0940 00       		.byte	0
 1772 0941 00       		.byte	0
 1773 0942 27       		.uleb128 0x27
 1774 0943 10000000 		.4byte	.LVL2
 1775 0947 220B0000 		.4byte	0xb22
 1776 094b 62090000 		.4byte	0x962
 1777 094f 28       		.uleb128 0x28
 1778 0950 01       		.uleb128 0x1
 1779 0951 52       		.byte	0x52
 1780 0952 01       		.uleb128 0x1
 1781 0953 38       		.byte	0x38
 1782 0954 28       		.uleb128 0x28
 1783 0955 01       		.uleb128 0x1
 1784 0956 51       		.byte	0x51
 1785 0957 02       		.uleb128 0x2
 1786 0958 75       		.byte	0x75
 1787 0959 00       		.sleb128 0
 1788 095a 28       		.uleb128 0x28
 1789 095b 01       		.uleb128 0x1
 1790 095c 50       		.byte	0x50
 1791 095d 03       		.uleb128 0x3
 1792 095e F3       		.byte	0xf3
 1793 095f 01       		.uleb128 0x1
 1794 0960 50       		.byte	0x50
 1795 0961 00       		.byte	0
 1796 0962 27       		.uleb128 0x27
 1797 0963 30000000 		.4byte	.LVL6
 1798 0967 410B0000 		.4byte	0xb41
 1799 096b 76090000 		.4byte	0x976
 1800 096f 28       		.uleb128 0x28
 1801 0970 01       		.uleb128 0x1
 1802 0971 50       		.byte	0x50
 1803 0972 02       		.uleb128 0x2
 1804 0973 7D       		.byte	0x7d
 1805 0974 00       		.sleb128 0
 1806 0975 00       		.byte	0
 1807 0976 29       		.uleb128 0x29
 1808 0977 3E000000 		.4byte	.LVL8
 1809 097b 610B0000 		.4byte	0xb61
 1810 097f 28       		.uleb128 0x28
 1811 0980 01       		.uleb128 0x1
 1812 0981 51       		.byte	0x51
 1813 0982 01       		.uleb128 0x1
 1814 0983 30       		.byte	0x30
 1815 0984 28       		.uleb128 0x28
 1816 0985 01       		.uleb128 0x1
 1817 0986 50       		.byte	0x50
 1818 0987 02       		.uleb128 0x2
ARM GAS  /tmp/ccq7hRlA.s 			page 57


 1819 0988 74       		.byte	0x74
 1820 0989 00       		.sleb128 0
 1821 098a 00       		.byte	0
 1822 098b 00       		.byte	0
 1823 098c 1D       		.uleb128 0x1d
 1824 098d 6F020000 		.4byte	.LASF118
 1825 0991 01       		.byte	0x1
 1826 0992 91       		.byte	0x91
 1827 0993 30020000 		.4byte	0x230
 1828 0997 00000000 		.4byte	.LFB189
 1829 099b 4C000000 		.4byte	.LFE189-.LFB189
 1830 099f 01       		.uleb128 0x1
 1831 09a0 9C       		.byte	0x9c
 1832 09a1 EB0A0000 		.4byte	0xaeb
 1833 09a5 2A       		.uleb128 0x2a
 1834 09a6 6D7000   		.ascii	"mp\000"
 1835 09a9 01       		.byte	0x1
 1836 09aa 91       		.byte	0x91
 1837 09ab EB0A0000 		.4byte	0xaeb
 1838 09af FD000000 		.4byte	.LLST8
 1839 09b3 1E       		.uleb128 0x1e
 1840 09b4 C3040000 		.4byte	.LASF33
 1841 09b8 01       		.byte	0x1
 1842 09b9 91       		.byte	0x91
 1843 09ba AB050000 		.4byte	0x5ab
 1844 09be 1B010000 		.4byte	.LLST9
 1845 09c2 1E       		.uleb128 0x1e
 1846 09c3 3D020000 		.4byte	.LASF30
 1847 09c7 01       		.byte	0x1
 1848 09c8 92       		.byte	0x92
 1849 09c9 05010000 		.4byte	0x105
 1850 09cd 39010000 		.4byte	.LLST10
 1851 09d1 2A       		.uleb128 0x2a
 1852 09d2 706600   		.ascii	"pf\000"
 1853 09d5 01       		.byte	0x1
 1854 09d6 92       		.byte	0x92
 1855 09d7 CE050000 		.4byte	0x5ce
 1856 09db 57010000 		.4byte	.LLST11
 1857 09df 1F       		.uleb128 0x1f
 1858 09e0 61726700 		.ascii	"arg\000"
 1859 09e4 01       		.byte	0x1
 1860 09e5 92       		.byte	0x92
 1861 09e6 0D030000 		.4byte	0x30d
 1862 09ea 02       		.uleb128 0x2
 1863 09eb 91       		.byte	0x91
 1864 09ec 00       		.sleb128 0
 1865 09ed 20       		.uleb128 0x20
 1866 09ee 747000   		.ascii	"tp\000"
 1867 09f1 01       		.byte	0x1
 1868 09f2 93       		.byte	0x93
 1869 09f3 30020000 		.4byte	0x230
 1870 09f7 83010000 		.4byte	.LLST12
 1871 09fb 20       		.uleb128 0x20
 1872 09fc 77737000 		.ascii	"wsp\000"
 1873 0a00 01       		.byte	0x1
 1874 0a01 94       		.byte	0x94
 1875 0a02 0D030000 		.4byte	0x30d
ARM GAS  /tmp/ccq7hRlA.s 			page 58


 1876 0a06 A1010000 		.4byte	.LLST13
 1877 0a0a 2B       		.uleb128 0x2b
 1878 0a0b 42020000 		.4byte	.LASF130
 1879 0a0f 010B0000 		.4byte	0xb01
 1880 0a13 21       		.uleb128 0x21
 1881 0a14 746400   		.ascii	"td\000"
 1882 0a17 01       		.byte	0x1
 1883 0a18 9D       		.byte	0x9d
 1884 0a19 2A060000 		.4byte	0x62a
 1885 0a1d 02       		.uleb128 0x2
 1886 0a1e 91       		.byte	0x91
 1887 0a1f 50       		.sleb128 -48
 1888 0a20 22       		.uleb128 0x22
 1889 0a21 E2070000 		.4byte	0x7e2
 1890 0a25 24000000 		.4byte	.LBB43
 1891 0a29 06000000 		.4byte	.LBE43-.LBB43
 1892 0a2d 01       		.byte	0x1
 1893 0a2e AC       		.byte	0xac
 1894 0a2f 5F0A0000 		.4byte	0xa5f
 1895 0a33 23       		.uleb128 0x23
 1896 0a34 D0070000 		.4byte	0x7d0
 1897 0a38 24000000 		.4byte	.LBB44
 1898 0a3c 06000000 		.4byte	.LBE44-.LBB44
 1899 0a40 11       		.byte	0x11
 1900 0a41 7801     		.2byte	0x178
 1901 0a43 23       		.uleb128 0x23
 1902 0a44 B6070000 		.4byte	0x7b6
 1903 0a48 24000000 		.4byte	.LBB45
 1904 0a4c 06000000 		.4byte	.LBE45-.LBB45
 1905 0a50 0A       		.byte	0xa
 1906 0a51 5A02     		.2byte	0x25a
 1907 0a53 24       		.uleb128 0x24
 1908 0a54 C3070000 		.4byte	0x7c3
 1909 0a58 C0010000 		.4byte	.LLST14
 1910 0a5c 00       		.byte	0
 1911 0a5d 00       		.byte	0
 1912 0a5e 00       		.byte	0
 1913 0a5f 22       		.uleb128 0x22
 1914 0a60 EB070000 		.4byte	0x7eb
 1915 0a64 40000000 		.4byte	.LBB47
 1916 0a68 06000000 		.4byte	.LBE47-.LBB47
 1917 0a6c 01       		.byte	0x1
 1918 0a6d B1       		.byte	0xb1
 1919 0a6e AD0A0000 		.4byte	0xaad
 1920 0a72 25       		.uleb128 0x25
 1921 0a73 40000000 		.4byte	.LBB48
 1922 0a77 06000000 		.4byte	.LBE48-.LBB48
 1923 0a7b 26       		.uleb128 0x26
 1924 0a7c F8070000 		.4byte	0x7f8
 1925 0a80 23       		.uleb128 0x23
 1926 0a81 D9070000 		.4byte	0x7d9
 1927 0a85 40000000 		.4byte	.LBB49
 1928 0a89 06000000 		.4byte	.LBE49-.LBB49
 1929 0a8d 11       		.byte	0x11
 1930 0a8e 8F01     		.2byte	0x18f
 1931 0a90 23       		.uleb128 0x23
 1932 0a91 B6070000 		.4byte	0x7b6
ARM GAS  /tmp/ccq7hRlA.s 			page 59


 1933 0a95 40000000 		.4byte	.LBB50
 1934 0a99 06000000 		.4byte	.LBE50-.LBB50
 1935 0a9d 0A       		.byte	0xa
 1936 0a9e 6D02     		.2byte	0x26d
 1937 0aa0 24       		.uleb128 0x24
 1938 0aa1 C3070000 		.4byte	0x7c3
 1939 0aa5 D5010000 		.4byte	.LLST15
 1940 0aa9 00       		.byte	0
 1941 0aaa 00       		.byte	0
 1942 0aab 00       		.byte	0
 1943 0aac 00       		.byte	0
 1944 0aad 27       		.uleb128 0x27
 1945 0aae 10000000 		.4byte	.LVL11
 1946 0ab2 780B0000 		.4byte	0xb78
 1947 0ab6 C10A0000 		.4byte	0xac1
 1948 0aba 28       		.uleb128 0x28
 1949 0abb 01       		.uleb128 0x1
 1950 0abc 50       		.byte	0x50
 1951 0abd 02       		.uleb128 0x2
 1952 0abe 75       		.byte	0x75
 1953 0abf 00       		.sleb128 0
 1954 0ac0 00       		.byte	0
 1955 0ac1 27       		.uleb128 0x27
 1956 0ac2 30000000 		.4byte	.LVL14
 1957 0ac6 410B0000 		.4byte	0xb41
 1958 0aca D50A0000 		.4byte	0xad5
 1959 0ace 28       		.uleb128 0x28
 1960 0acf 01       		.uleb128 0x1
 1961 0ad0 50       		.byte	0x50
 1962 0ad1 02       		.uleb128 0x2
 1963 0ad2 7D       		.byte	0x7d
 1964 0ad3 00       		.sleb128 0
 1965 0ad4 00       		.byte	0
 1966 0ad5 29       		.uleb128 0x29
 1967 0ad6 40000000 		.4byte	.LVL16
 1968 0ada 610B0000 		.4byte	0xb61
 1969 0ade 28       		.uleb128 0x28
 1970 0adf 01       		.uleb128 0x1
 1971 0ae0 51       		.byte	0x51
 1972 0ae1 01       		.uleb128 0x1
 1973 0ae2 30       		.byte	0x30
 1974 0ae3 28       		.uleb128 0x28
 1975 0ae4 01       		.uleb128 0x1
 1976 0ae5 50       		.byte	0x50
 1977 0ae6 02       		.uleb128 0x2
 1978 0ae7 74       		.byte	0x74
 1979 0ae8 00       		.sleb128 0
 1980 0ae9 00       		.byte	0
 1981 0aea 00       		.byte	0
 1982 0aeb 0A       		.uleb128 0xa
 1983 0aec 04       		.byte	0x4
 1984 0aed AB070000 		.4byte	0x7ab
 1985 0af1 1B       		.uleb128 0x1b
 1986 0af2 B6050000 		.4byte	0x5b6
 1987 0af6 010B0000 		.4byte	0xb01
 1988 0afa 1C       		.uleb128 0x1c
 1989 0afb 29040000 		.4byte	0x429
ARM GAS  /tmp/ccq7hRlA.s 			page 60


 1990 0aff 19       		.byte	0x19
 1991 0b00 00       		.byte	0
 1992 0b01 12       		.uleb128 0x12
 1993 0b02 F10A0000 		.4byte	0xaf1
 1994 0b06 2C       		.uleb128 0x2c
 1995 0b07 30040000 		.4byte	.LASF119
 1996 0b0b 12       		.byte	0x12
 1997 0b0c 9606     		.2byte	0x696
 1998 0b0e 120B0000 		.4byte	0xb12
 1999 0b12 13       		.uleb128 0x13
 2000 0b13 C3000000 		.4byte	0xc3
 2001 0b17 2D       		.uleb128 0x2d
 2002 0b18 636800   		.ascii	"ch\000"
 2003 0b1b 08       		.byte	0x8
 2004 0b1c D201     		.2byte	0x1d2
 2005 0b1e DC030000 		.4byte	0x3dc
 2006 0b22 2E       		.uleb128 0x2e
 2007 0b23 F2030000 		.4byte	.LASF120
 2008 0b27 0F       		.byte	0xf
 2009 0b28 80       		.byte	0x80
 2010 0b29 0D030000 		.4byte	0x30d
 2011 0b2d 410B0000 		.4byte	0xb41
 2012 0b31 0D       		.uleb128 0xd
 2013 0b32 59070000 		.4byte	0x759
 2014 0b36 0D       		.uleb128 0xd
 2015 0b37 2C000000 		.4byte	0x2c
 2016 0b3b 0D       		.uleb128 0xd
 2017 0b3c 37000000 		.4byte	0x37
 2018 0b40 00       		.byte	0
 2019 0b41 2E       		.uleb128 0x2e
 2020 0b42 B6030000 		.4byte	.LASF121
 2021 0b46 0D       		.byte	0xd
 2022 0b47 EF       		.byte	0xef
 2023 0b48 30020000 		.4byte	0x230
 2024 0b4c 560B0000 		.4byte	0xb56
 2025 0b50 0D       		.uleb128 0xd
 2026 0b51 560B0000 		.4byte	0xb56
 2027 0b55 00       		.byte	0
 2028 0b56 0A       		.uleb128 0xa
 2029 0b57 04       		.byte	0x4
 2030 0b58 5C0B0000 		.4byte	0xb5c
 2031 0b5c 12       		.uleb128 0x12
 2032 0b5d 2A060000 		.4byte	0x62a
 2033 0b61 2F       		.uleb128 0x2f
 2034 0b62 6C050000 		.4byte	.LASF122
 2035 0b66 08       		.byte	0x8
 2036 0b67 E001     		.2byte	0x1e0
 2037 0b69 780B0000 		.4byte	0xb78
 2038 0b6d 0D       		.uleb128 0xd
 2039 0b6e 30020000 		.4byte	0x230
 2040 0b72 0D       		.uleb128 0xd
 2041 0b73 10010000 		.4byte	0x110
 2042 0b77 00       		.byte	0
 2043 0b78 30       		.uleb128 0x30
 2044 0b79 A0040000 		.4byte	.LASF123
 2045 0b7d 10       		.byte	0x10
 2046 0b7e 94       		.byte	0x94
ARM GAS  /tmp/ccq7hRlA.s 			page 61


 2047 0b7f 0D030000 		.4byte	0x30d
 2048 0b83 0D       		.uleb128 0xd
 2049 0b84 EB0A0000 		.4byte	0xaeb
 2050 0b88 00       		.byte	0
 2051 0b89 00       		.byte	0
 2052              		.section	.debug_abbrev,"",%progbits
 2053              	.Ldebug_abbrev0:
 2054 0000 01       		.uleb128 0x1
 2055 0001 11       		.uleb128 0x11
 2056 0002 01       		.byte	0x1
 2057 0003 25       		.uleb128 0x25
 2058 0004 0E       		.uleb128 0xe
 2059 0005 13       		.uleb128 0x13
 2060 0006 0B       		.uleb128 0xb
 2061 0007 03       		.uleb128 0x3
 2062 0008 0E       		.uleb128 0xe
 2063 0009 1B       		.uleb128 0x1b
 2064 000a 0E       		.uleb128 0xe
 2065 000b 55       		.uleb128 0x55
 2066 000c 17       		.uleb128 0x17
 2067 000d 11       		.uleb128 0x11
 2068 000e 01       		.uleb128 0x1
 2069 000f 10       		.uleb128 0x10
 2070 0010 17       		.uleb128 0x17
 2071 0011 00       		.byte	0
 2072 0012 00       		.byte	0
 2073 0013 02       		.uleb128 0x2
 2074 0014 24       		.uleb128 0x24
 2075 0015 00       		.byte	0
 2076 0016 0B       		.uleb128 0xb
 2077 0017 0B       		.uleb128 0xb
 2078 0018 3E       		.uleb128 0x3e
 2079 0019 0B       		.uleb128 0xb
 2080 001a 03       		.uleb128 0x3
 2081 001b 08       		.uleb128 0x8
 2082 001c 00       		.byte	0
 2083 001d 00       		.byte	0
 2084 001e 03       		.uleb128 0x3
 2085 001f 16       		.uleb128 0x16
 2086 0020 00       		.byte	0
 2087 0021 03       		.uleb128 0x3
 2088 0022 0E       		.uleb128 0xe
 2089 0023 3A       		.uleb128 0x3a
 2090 0024 0B       		.uleb128 0xb
 2091 0025 3B       		.uleb128 0x3b
 2092 0026 0B       		.uleb128 0xb
 2093 0027 49       		.uleb128 0x49
 2094 0028 13       		.uleb128 0x13
 2095 0029 00       		.byte	0
 2096 002a 00       		.byte	0
 2097 002b 04       		.uleb128 0x4
 2098 002c 24       		.uleb128 0x24
 2099 002d 00       		.byte	0
 2100 002e 0B       		.uleb128 0xb
 2101 002f 0B       		.uleb128 0xb
 2102 0030 3E       		.uleb128 0x3e
 2103 0031 0B       		.uleb128 0xb
ARM GAS  /tmp/ccq7hRlA.s 			page 62


 2104 0032 03       		.uleb128 0x3
 2105 0033 0E       		.uleb128 0xe
 2106 0034 00       		.byte	0
 2107 0035 00       		.byte	0
 2108 0036 05       		.uleb128 0x5
 2109 0037 13       		.uleb128 0x13
 2110 0038 01       		.byte	0x1
 2111 0039 03       		.uleb128 0x3
 2112 003a 0E       		.uleb128 0xe
 2113 003b 0B       		.uleb128 0xb
 2114 003c 0B       		.uleb128 0xb
 2115 003d 3A       		.uleb128 0x3a
 2116 003e 0B       		.uleb128 0xb
 2117 003f 3B       		.uleb128 0x3b
 2118 0040 0B       		.uleb128 0xb
 2119 0041 01       		.uleb128 0x1
 2120 0042 13       		.uleb128 0x13
 2121 0043 00       		.byte	0
 2122 0044 00       		.byte	0
 2123 0045 06       		.uleb128 0x6
 2124 0046 0D       		.uleb128 0xd
 2125 0047 00       		.byte	0
 2126 0048 03       		.uleb128 0x3
 2127 0049 0E       		.uleb128 0xe
 2128 004a 3A       		.uleb128 0x3a
 2129 004b 0B       		.uleb128 0xb
 2130 004c 3B       		.uleb128 0x3b
 2131 004d 0B       		.uleb128 0xb
 2132 004e 49       		.uleb128 0x49
 2133 004f 13       		.uleb128 0x13
 2134 0050 38       		.uleb128 0x38
 2135 0051 0B       		.uleb128 0xb
 2136 0052 00       		.byte	0
 2137 0053 00       		.byte	0
 2138 0054 07       		.uleb128 0x7
 2139 0055 0D       		.uleb128 0xd
 2140 0056 00       		.byte	0
 2141 0057 03       		.uleb128 0x3
 2142 0058 08       		.uleb128 0x8
 2143 0059 3A       		.uleb128 0x3a
 2144 005a 0B       		.uleb128 0xb
 2145 005b 3B       		.uleb128 0x3b
 2146 005c 0B       		.uleb128 0xb
 2147 005d 49       		.uleb128 0x49
 2148 005e 13       		.uleb128 0x13
 2149 005f 38       		.uleb128 0x38
 2150 0060 0B       		.uleb128 0xb
 2151 0061 00       		.byte	0
 2152 0062 00       		.byte	0
 2153 0063 08       		.uleb128 0x8
 2154 0064 0D       		.uleb128 0xd
 2155 0065 00       		.byte	0
 2156 0066 03       		.uleb128 0x3
 2157 0067 08       		.uleb128 0x8
 2158 0068 3A       		.uleb128 0x3a
 2159 0069 0B       		.uleb128 0xb
 2160 006a 3B       		.uleb128 0x3b
ARM GAS  /tmp/ccq7hRlA.s 			page 63


 2161 006b 05       		.uleb128 0x5
 2162 006c 49       		.uleb128 0x49
 2163 006d 13       		.uleb128 0x13
 2164 006e 38       		.uleb128 0x38
 2165 006f 0B       		.uleb128 0xb
 2166 0070 00       		.byte	0
 2167 0071 00       		.byte	0
 2168 0072 09       		.uleb128 0x9
 2169 0073 0D       		.uleb128 0xd
 2170 0074 00       		.byte	0
 2171 0075 03       		.uleb128 0x3
 2172 0076 0E       		.uleb128 0xe
 2173 0077 3A       		.uleb128 0x3a
 2174 0078 0B       		.uleb128 0xb
 2175 0079 3B       		.uleb128 0x3b
 2176 007a 05       		.uleb128 0x5
 2177 007b 49       		.uleb128 0x49
 2178 007c 13       		.uleb128 0x13
 2179 007d 38       		.uleb128 0x38
 2180 007e 0B       		.uleb128 0xb
 2181 007f 00       		.byte	0
 2182 0080 00       		.byte	0
 2183 0081 0A       		.uleb128 0xa
 2184 0082 0F       		.uleb128 0xf
 2185 0083 00       		.byte	0
 2186 0084 0B       		.uleb128 0xb
 2187 0085 0B       		.uleb128 0xb
 2188 0086 49       		.uleb128 0x49
 2189 0087 13       		.uleb128 0x13
 2190 0088 00       		.byte	0
 2191 0089 00       		.byte	0
 2192 008a 0B       		.uleb128 0xb
 2193 008b 13       		.uleb128 0x13
 2194 008c 01       		.byte	0x1
 2195 008d 03       		.uleb128 0x3
 2196 008e 0E       		.uleb128 0xe
 2197 008f 0B       		.uleb128 0xb
 2198 0090 0B       		.uleb128 0xb
 2199 0091 3A       		.uleb128 0x3a
 2200 0092 0B       		.uleb128 0xb
 2201 0093 3B       		.uleb128 0x3b
 2202 0094 05       		.uleb128 0x5
 2203 0095 01       		.uleb128 0x1
 2204 0096 13       		.uleb128 0x13
 2205 0097 00       		.byte	0
 2206 0098 00       		.byte	0
 2207 0099 0C       		.uleb128 0xc
 2208 009a 15       		.uleb128 0x15
 2209 009b 01       		.byte	0x1
 2210 009c 27       		.uleb128 0x27
 2211 009d 19       		.uleb128 0x19
 2212 009e 01       		.uleb128 0x1
 2213 009f 13       		.uleb128 0x13
 2214 00a0 00       		.byte	0
 2215 00a1 00       		.byte	0
 2216 00a2 0D       		.uleb128 0xd
 2217 00a3 05       		.uleb128 0x5
ARM GAS  /tmp/ccq7hRlA.s 			page 64


 2218 00a4 00       		.byte	0
 2219 00a5 49       		.uleb128 0x49
 2220 00a6 13       		.uleb128 0x13
 2221 00a7 00       		.byte	0
 2222 00a8 00       		.byte	0
 2223 00a9 0E       		.uleb128 0xe
 2224 00aa 0F       		.uleb128 0xf
 2225 00ab 00       		.byte	0
 2226 00ac 0B       		.uleb128 0xb
 2227 00ad 0B       		.uleb128 0xb
 2228 00ae 00       		.byte	0
 2229 00af 00       		.byte	0
 2230 00b0 0F       		.uleb128 0xf
 2231 00b1 17       		.uleb128 0x17
 2232 00b2 01       		.byte	0x1
 2233 00b3 0B       		.uleb128 0xb
 2234 00b4 0B       		.uleb128 0xb
 2235 00b5 3A       		.uleb128 0x3a
 2236 00b6 0B       		.uleb128 0xb
 2237 00b7 3B       		.uleb128 0x3b
 2238 00b8 0B       		.uleb128 0xb
 2239 00b9 01       		.uleb128 0x1
 2240 00ba 13       		.uleb128 0x13
 2241 00bb 00       		.byte	0
 2242 00bc 00       		.byte	0
 2243 00bd 10       		.uleb128 0x10
 2244 00be 0D       		.uleb128 0xd
 2245 00bf 00       		.byte	0
 2246 00c0 03       		.uleb128 0x3
 2247 00c1 0E       		.uleb128 0xe
 2248 00c2 3A       		.uleb128 0x3a
 2249 00c3 0B       		.uleb128 0xb
 2250 00c4 3B       		.uleb128 0x3b
 2251 00c5 0B       		.uleb128 0xb
 2252 00c6 49       		.uleb128 0x49
 2253 00c7 13       		.uleb128 0x13
 2254 00c8 00       		.byte	0
 2255 00c9 00       		.byte	0
 2256 00ca 11       		.uleb128 0x11
 2257 00cb 0D       		.uleb128 0xd
 2258 00cc 00       		.byte	0
 2259 00cd 03       		.uleb128 0x3
 2260 00ce 0E       		.uleb128 0xe
 2261 00cf 3A       		.uleb128 0x3a
 2262 00d0 0B       		.uleb128 0xb
 2263 00d1 3B       		.uleb128 0x3b
 2264 00d2 05       		.uleb128 0x5
 2265 00d3 49       		.uleb128 0x49
 2266 00d4 13       		.uleb128 0x13
 2267 00d5 00       		.byte	0
 2268 00d6 00       		.byte	0
 2269 00d7 12       		.uleb128 0x12
 2270 00d8 26       		.uleb128 0x26
 2271 00d9 00       		.byte	0
 2272 00da 49       		.uleb128 0x49
 2273 00db 13       		.uleb128 0x13
 2274 00dc 00       		.byte	0
ARM GAS  /tmp/ccq7hRlA.s 			page 65


 2275 00dd 00       		.byte	0
 2276 00de 13       		.uleb128 0x13
 2277 00df 35       		.uleb128 0x35
 2278 00e0 00       		.byte	0
 2279 00e1 49       		.uleb128 0x49
 2280 00e2 13       		.uleb128 0x13
 2281 00e3 00       		.byte	0
 2282 00e4 00       		.byte	0
 2283 00e5 14       		.uleb128 0x14
 2284 00e6 13       		.uleb128 0x13
 2285 00e7 01       		.byte	0x1
 2286 00e8 0B       		.uleb128 0xb
 2287 00e9 0B       		.uleb128 0xb
 2288 00ea 3A       		.uleb128 0x3a
 2289 00eb 0B       		.uleb128 0xb
 2290 00ec 3B       		.uleb128 0x3b
 2291 00ed 0B       		.uleb128 0xb
 2292 00ee 01       		.uleb128 0x1
 2293 00ef 13       		.uleb128 0x13
 2294 00f0 00       		.byte	0
 2295 00f1 00       		.byte	0
 2296 00f2 15       		.uleb128 0x15
 2297 00f3 15       		.uleb128 0x15
 2298 00f4 01       		.byte	0x1
 2299 00f5 27       		.uleb128 0x27
 2300 00f6 19       		.uleb128 0x19
 2301 00f7 49       		.uleb128 0x49
 2302 00f8 13       		.uleb128 0x13
 2303 00f9 01       		.uleb128 0x1
 2304 00fa 13       		.uleb128 0x13
 2305 00fb 00       		.byte	0
 2306 00fc 00       		.byte	0
 2307 00fd 16       		.uleb128 0x16
 2308 00fe 17       		.uleb128 0x17
 2309 00ff 01       		.byte	0x1
 2310 0100 03       		.uleb128 0x3
 2311 0101 0E       		.uleb128 0xe
 2312 0102 0B       		.uleb128 0xb
 2313 0103 0B       		.uleb128 0xb
 2314 0104 3A       		.uleb128 0x3a
 2315 0105 0B       		.uleb128 0xb
 2316 0106 3B       		.uleb128 0x3b
 2317 0107 0B       		.uleb128 0xb
 2318 0108 01       		.uleb128 0x1
 2319 0109 13       		.uleb128 0x13
 2320 010a 00       		.byte	0
 2321 010b 00       		.byte	0
 2322 010c 17       		.uleb128 0x17
 2323 010d 2E       		.uleb128 0x2e
 2324 010e 01       		.byte	0x1
 2325 010f 03       		.uleb128 0x3
 2326 0110 0E       		.uleb128 0xe
 2327 0111 3A       		.uleb128 0x3a
 2328 0112 0B       		.uleb128 0xb
 2329 0113 3B       		.uleb128 0x3b
 2330 0114 05       		.uleb128 0x5
 2331 0115 27       		.uleb128 0x27
ARM GAS  /tmp/ccq7hRlA.s 			page 66


 2332 0116 19       		.uleb128 0x19
 2333 0117 20       		.uleb128 0x20
 2334 0118 0B       		.uleb128 0xb
 2335 0119 01       		.uleb128 0x1
 2336 011a 13       		.uleb128 0x13
 2337 011b 00       		.byte	0
 2338 011c 00       		.byte	0
 2339 011d 18       		.uleb128 0x18
 2340 011e 05       		.uleb128 0x5
 2341 011f 00       		.byte	0
 2342 0120 03       		.uleb128 0x3
 2343 0121 0E       		.uleb128 0xe
 2344 0122 3A       		.uleb128 0x3a
 2345 0123 0B       		.uleb128 0xb
 2346 0124 3B       		.uleb128 0x3b
 2347 0125 05       		.uleb128 0x5
 2348 0126 49       		.uleb128 0x49
 2349 0127 13       		.uleb128 0x13
 2350 0128 00       		.byte	0
 2351 0129 00       		.byte	0
 2352 012a 19       		.uleb128 0x19
 2353 012b 2E       		.uleb128 0x2e
 2354 012c 00       		.byte	0
 2355 012d 03       		.uleb128 0x3
 2356 012e 0E       		.uleb128 0xe
 2357 012f 3A       		.uleb128 0x3a
 2358 0130 0B       		.uleb128 0xb
 2359 0131 3B       		.uleb128 0x3b
 2360 0132 05       		.uleb128 0x5
 2361 0133 27       		.uleb128 0x27
 2362 0134 19       		.uleb128 0x19
 2363 0135 20       		.uleb128 0x20
 2364 0136 0B       		.uleb128 0xb
 2365 0137 00       		.byte	0
 2366 0138 00       		.byte	0
 2367 0139 1A       		.uleb128 0x1a
 2368 013a 34       		.uleb128 0x34
 2369 013b 00       		.byte	0
 2370 013c 03       		.uleb128 0x3
 2371 013d 0E       		.uleb128 0xe
 2372 013e 49       		.uleb128 0x49
 2373 013f 13       		.uleb128 0x13
 2374 0140 34       		.uleb128 0x34
 2375 0141 19       		.uleb128 0x19
 2376 0142 1C       		.uleb128 0x1c
 2377 0143 0E       		.uleb128 0xe
 2378 0144 00       		.byte	0
 2379 0145 00       		.byte	0
 2380 0146 1B       		.uleb128 0x1b
 2381 0147 01       		.uleb128 0x1
 2382 0148 01       		.byte	0x1
 2383 0149 49       		.uleb128 0x49
 2384 014a 13       		.uleb128 0x13
 2385 014b 01       		.uleb128 0x1
 2386 014c 13       		.uleb128 0x13
 2387 014d 00       		.byte	0
 2388 014e 00       		.byte	0
ARM GAS  /tmp/ccq7hRlA.s 			page 67


 2389 014f 1C       		.uleb128 0x1c
 2390 0150 21       		.uleb128 0x21
 2391 0151 00       		.byte	0
 2392 0152 49       		.uleb128 0x49
 2393 0153 13       		.uleb128 0x13
 2394 0154 2F       		.uleb128 0x2f
 2395 0155 0B       		.uleb128 0xb
 2396 0156 00       		.byte	0
 2397 0157 00       		.byte	0
 2398 0158 1D       		.uleb128 0x1d
 2399 0159 2E       		.uleb128 0x2e
 2400 015a 01       		.byte	0x1
 2401 015b 3F       		.uleb128 0x3f
 2402 015c 19       		.uleb128 0x19
 2403 015d 03       		.uleb128 0x3
 2404 015e 0E       		.uleb128 0xe
 2405 015f 3A       		.uleb128 0x3a
 2406 0160 0B       		.uleb128 0xb
 2407 0161 3B       		.uleb128 0x3b
 2408 0162 0B       		.uleb128 0xb
 2409 0163 27       		.uleb128 0x27
 2410 0164 19       		.uleb128 0x19
 2411 0165 49       		.uleb128 0x49
 2412 0166 13       		.uleb128 0x13
 2413 0167 11       		.uleb128 0x11
 2414 0168 01       		.uleb128 0x1
 2415 0169 12       		.uleb128 0x12
 2416 016a 06       		.uleb128 0x6
 2417 016b 40       		.uleb128 0x40
 2418 016c 18       		.uleb128 0x18
 2419 016d 9742     		.uleb128 0x2117
 2420 016f 19       		.uleb128 0x19
 2421 0170 01       		.uleb128 0x1
 2422 0171 13       		.uleb128 0x13
 2423 0172 00       		.byte	0
 2424 0173 00       		.byte	0
 2425 0174 1E       		.uleb128 0x1e
 2426 0175 05       		.uleb128 0x5
 2427 0176 00       		.byte	0
 2428 0177 03       		.uleb128 0x3
 2429 0178 0E       		.uleb128 0xe
 2430 0179 3A       		.uleb128 0x3a
 2431 017a 0B       		.uleb128 0xb
 2432 017b 3B       		.uleb128 0x3b
 2433 017c 0B       		.uleb128 0xb
 2434 017d 49       		.uleb128 0x49
 2435 017e 13       		.uleb128 0x13
 2436 017f 02       		.uleb128 0x2
 2437 0180 17       		.uleb128 0x17
 2438 0181 00       		.byte	0
 2439 0182 00       		.byte	0
 2440 0183 1F       		.uleb128 0x1f
 2441 0184 05       		.uleb128 0x5
 2442 0185 00       		.byte	0
 2443 0186 03       		.uleb128 0x3
 2444 0187 08       		.uleb128 0x8
 2445 0188 3A       		.uleb128 0x3a
ARM GAS  /tmp/ccq7hRlA.s 			page 68


 2446 0189 0B       		.uleb128 0xb
 2447 018a 3B       		.uleb128 0x3b
 2448 018b 0B       		.uleb128 0xb
 2449 018c 49       		.uleb128 0x49
 2450 018d 13       		.uleb128 0x13
 2451 018e 02       		.uleb128 0x2
 2452 018f 18       		.uleb128 0x18
 2453 0190 00       		.byte	0
 2454 0191 00       		.byte	0
 2455 0192 20       		.uleb128 0x20
 2456 0193 34       		.uleb128 0x34
 2457 0194 00       		.byte	0
 2458 0195 03       		.uleb128 0x3
 2459 0196 08       		.uleb128 0x8
 2460 0197 3A       		.uleb128 0x3a
 2461 0198 0B       		.uleb128 0xb
 2462 0199 3B       		.uleb128 0x3b
 2463 019a 0B       		.uleb128 0xb
 2464 019b 49       		.uleb128 0x49
 2465 019c 13       		.uleb128 0x13
 2466 019d 02       		.uleb128 0x2
 2467 019e 17       		.uleb128 0x17
 2468 019f 00       		.byte	0
 2469 01a0 00       		.byte	0
 2470 01a1 21       		.uleb128 0x21
 2471 01a2 34       		.uleb128 0x34
 2472 01a3 00       		.byte	0
 2473 01a4 03       		.uleb128 0x3
 2474 01a5 08       		.uleb128 0x8
 2475 01a6 3A       		.uleb128 0x3a
 2476 01a7 0B       		.uleb128 0xb
 2477 01a8 3B       		.uleb128 0x3b
 2478 01a9 0B       		.uleb128 0xb
 2479 01aa 49       		.uleb128 0x49
 2480 01ab 13       		.uleb128 0x13
 2481 01ac 02       		.uleb128 0x2
 2482 01ad 18       		.uleb128 0x18
 2483 01ae 00       		.byte	0
 2484 01af 00       		.byte	0
 2485 01b0 22       		.uleb128 0x22
 2486 01b1 1D       		.uleb128 0x1d
 2487 01b2 01       		.byte	0x1
 2488 01b3 31       		.uleb128 0x31
 2489 01b4 13       		.uleb128 0x13
 2490 01b5 11       		.uleb128 0x11
 2491 01b6 01       		.uleb128 0x1
 2492 01b7 12       		.uleb128 0x12
 2493 01b8 06       		.uleb128 0x6
 2494 01b9 58       		.uleb128 0x58
 2495 01ba 0B       		.uleb128 0xb
 2496 01bb 59       		.uleb128 0x59
 2497 01bc 0B       		.uleb128 0xb
 2498 01bd 01       		.uleb128 0x1
 2499 01be 13       		.uleb128 0x13
 2500 01bf 00       		.byte	0
 2501 01c0 00       		.byte	0
 2502 01c1 23       		.uleb128 0x23
ARM GAS  /tmp/ccq7hRlA.s 			page 69


 2503 01c2 1D       		.uleb128 0x1d
 2504 01c3 01       		.byte	0x1
 2505 01c4 31       		.uleb128 0x31
 2506 01c5 13       		.uleb128 0x13
 2507 01c6 11       		.uleb128 0x11
 2508 01c7 01       		.uleb128 0x1
 2509 01c8 12       		.uleb128 0x12
 2510 01c9 06       		.uleb128 0x6
 2511 01ca 58       		.uleb128 0x58
 2512 01cb 0B       		.uleb128 0xb
 2513 01cc 59       		.uleb128 0x59
 2514 01cd 05       		.uleb128 0x5
 2515 01ce 00       		.byte	0
 2516 01cf 00       		.byte	0
 2517 01d0 24       		.uleb128 0x24
 2518 01d1 05       		.uleb128 0x5
 2519 01d2 00       		.byte	0
 2520 01d3 31       		.uleb128 0x31
 2521 01d4 13       		.uleb128 0x13
 2522 01d5 02       		.uleb128 0x2
 2523 01d6 17       		.uleb128 0x17
 2524 01d7 00       		.byte	0
 2525 01d8 00       		.byte	0
 2526 01d9 25       		.uleb128 0x25
 2527 01da 0B       		.uleb128 0xb
 2528 01db 01       		.byte	0x1
 2529 01dc 11       		.uleb128 0x11
 2530 01dd 01       		.uleb128 0x1
 2531 01de 12       		.uleb128 0x12
 2532 01df 06       		.uleb128 0x6
 2533 01e0 00       		.byte	0
 2534 01e1 00       		.byte	0
 2535 01e2 26       		.uleb128 0x26
 2536 01e3 34       		.uleb128 0x34
 2537 01e4 00       		.byte	0
 2538 01e5 31       		.uleb128 0x31
 2539 01e6 13       		.uleb128 0x13
 2540 01e7 00       		.byte	0
 2541 01e8 00       		.byte	0
 2542 01e9 27       		.uleb128 0x27
 2543 01ea 898201   		.uleb128 0x4109
 2544 01ed 01       		.byte	0x1
 2545 01ee 11       		.uleb128 0x11
 2546 01ef 01       		.uleb128 0x1
 2547 01f0 31       		.uleb128 0x31
 2548 01f1 13       		.uleb128 0x13
 2549 01f2 01       		.uleb128 0x1
 2550 01f3 13       		.uleb128 0x13
 2551 01f4 00       		.byte	0
 2552 01f5 00       		.byte	0
 2553 01f6 28       		.uleb128 0x28
 2554 01f7 8A8201   		.uleb128 0x410a
 2555 01fa 00       		.byte	0
 2556 01fb 02       		.uleb128 0x2
 2557 01fc 18       		.uleb128 0x18
 2558 01fd 9142     		.uleb128 0x2111
 2559 01ff 18       		.uleb128 0x18
ARM GAS  /tmp/ccq7hRlA.s 			page 70


 2560 0200 00       		.byte	0
 2561 0201 00       		.byte	0
 2562 0202 29       		.uleb128 0x29
 2563 0203 898201   		.uleb128 0x4109
 2564 0206 01       		.byte	0x1
 2565 0207 11       		.uleb128 0x11
 2566 0208 01       		.uleb128 0x1
 2567 0209 31       		.uleb128 0x31
 2568 020a 13       		.uleb128 0x13
 2569 020b 00       		.byte	0
 2570 020c 00       		.byte	0
 2571 020d 2A       		.uleb128 0x2a
 2572 020e 05       		.uleb128 0x5
 2573 020f 00       		.byte	0
 2574 0210 03       		.uleb128 0x3
 2575 0211 08       		.uleb128 0x8
 2576 0212 3A       		.uleb128 0x3a
 2577 0213 0B       		.uleb128 0xb
 2578 0214 3B       		.uleb128 0x3b
 2579 0215 0B       		.uleb128 0xb
 2580 0216 49       		.uleb128 0x49
 2581 0217 13       		.uleb128 0x13
 2582 0218 02       		.uleb128 0x2
 2583 0219 17       		.uleb128 0x17
 2584 021a 00       		.byte	0
 2585 021b 00       		.byte	0
 2586 021c 2B       		.uleb128 0x2b
 2587 021d 34       		.uleb128 0x34
 2588 021e 00       		.byte	0
 2589 021f 03       		.uleb128 0x3
 2590 0220 0E       		.uleb128 0xe
 2591 0221 49       		.uleb128 0x49
 2592 0222 13       		.uleb128 0x13
 2593 0223 34       		.uleb128 0x34
 2594 0224 19       		.uleb128 0x19
 2595 0225 00       		.byte	0
 2596 0226 00       		.byte	0
 2597 0227 2C       		.uleb128 0x2c
 2598 0228 34       		.uleb128 0x34
 2599 0229 00       		.byte	0
 2600 022a 03       		.uleb128 0x3
 2601 022b 0E       		.uleb128 0xe
 2602 022c 3A       		.uleb128 0x3a
 2603 022d 0B       		.uleb128 0xb
 2604 022e 3B       		.uleb128 0x3b
 2605 022f 05       		.uleb128 0x5
 2606 0230 49       		.uleb128 0x49
 2607 0231 13       		.uleb128 0x13
 2608 0232 3F       		.uleb128 0x3f
 2609 0233 19       		.uleb128 0x19
 2610 0234 3C       		.uleb128 0x3c
 2611 0235 19       		.uleb128 0x19
 2612 0236 00       		.byte	0
 2613 0237 00       		.byte	0
 2614 0238 2D       		.uleb128 0x2d
 2615 0239 34       		.uleb128 0x34
 2616 023a 00       		.byte	0
ARM GAS  /tmp/ccq7hRlA.s 			page 71


 2617 023b 03       		.uleb128 0x3
 2618 023c 08       		.uleb128 0x8
 2619 023d 3A       		.uleb128 0x3a
 2620 023e 0B       		.uleb128 0xb
 2621 023f 3B       		.uleb128 0x3b
 2622 0240 05       		.uleb128 0x5
 2623 0241 49       		.uleb128 0x49
 2624 0242 13       		.uleb128 0x13
 2625 0243 3F       		.uleb128 0x3f
 2626 0244 19       		.uleb128 0x19
 2627 0245 3C       		.uleb128 0x3c
 2628 0246 19       		.uleb128 0x19
 2629 0247 00       		.byte	0
 2630 0248 00       		.byte	0
 2631 0249 2E       		.uleb128 0x2e
 2632 024a 2E       		.uleb128 0x2e
 2633 024b 01       		.byte	0x1
 2634 024c 3F       		.uleb128 0x3f
 2635 024d 19       		.uleb128 0x19
 2636 024e 03       		.uleb128 0x3
 2637 024f 0E       		.uleb128 0xe
 2638 0250 3A       		.uleb128 0x3a
 2639 0251 0B       		.uleb128 0xb
 2640 0252 3B       		.uleb128 0x3b
 2641 0253 0B       		.uleb128 0xb
 2642 0254 27       		.uleb128 0x27
 2643 0255 19       		.uleb128 0x19
 2644 0256 49       		.uleb128 0x49
 2645 0257 13       		.uleb128 0x13
 2646 0258 3C       		.uleb128 0x3c
 2647 0259 19       		.uleb128 0x19
 2648 025a 01       		.uleb128 0x1
 2649 025b 13       		.uleb128 0x13
 2650 025c 00       		.byte	0
 2651 025d 00       		.byte	0
 2652 025e 2F       		.uleb128 0x2f
 2653 025f 2E       		.uleb128 0x2e
 2654 0260 01       		.byte	0x1
 2655 0261 3F       		.uleb128 0x3f
 2656 0262 19       		.uleb128 0x19
 2657 0263 03       		.uleb128 0x3
 2658 0264 0E       		.uleb128 0xe
 2659 0265 3A       		.uleb128 0x3a
 2660 0266 0B       		.uleb128 0xb
 2661 0267 3B       		.uleb128 0x3b
 2662 0268 05       		.uleb128 0x5
 2663 0269 27       		.uleb128 0x27
 2664 026a 19       		.uleb128 0x19
 2665 026b 3C       		.uleb128 0x3c
 2666 026c 19       		.uleb128 0x19
 2667 026d 01       		.uleb128 0x1
 2668 026e 13       		.uleb128 0x13
 2669 026f 00       		.byte	0
 2670 0270 00       		.byte	0
 2671 0271 30       		.uleb128 0x30
 2672 0272 2E       		.uleb128 0x2e
 2673 0273 01       		.byte	0x1
ARM GAS  /tmp/ccq7hRlA.s 			page 72


 2674 0274 3F       		.uleb128 0x3f
 2675 0275 19       		.uleb128 0x19
 2676 0276 03       		.uleb128 0x3
 2677 0277 0E       		.uleb128 0xe
 2678 0278 3A       		.uleb128 0x3a
 2679 0279 0B       		.uleb128 0xb
 2680 027a 3B       		.uleb128 0x3b
 2681 027b 0B       		.uleb128 0xb
 2682 027c 27       		.uleb128 0x27
 2683 027d 19       		.uleb128 0x19
 2684 027e 49       		.uleb128 0x49
 2685 027f 13       		.uleb128 0x13
 2686 0280 3C       		.uleb128 0x3c
 2687 0281 19       		.uleb128 0x19
 2688 0282 00       		.byte	0
 2689 0283 00       		.byte	0
 2690 0284 00       		.byte	0
 2691              		.section	.debug_loc,"",%progbits
 2692              	.Ldebug_loc0:
 2693              	.LLST0:
 2694 0000 00000000 		.4byte	.LVL0
 2695 0004 0F000000 		.4byte	.LVL2-1
 2696 0008 0100     		.2byte	0x1
 2697 000a 50       		.byte	0x50
 2698 000b 0F000000 		.4byte	.LVL2-1
 2699 000f 4A000000 		.4byte	.LFE188
 2700 0013 0400     		.2byte	0x4
 2701 0015 F3       		.byte	0xf3
 2702 0016 01       		.uleb128 0x1
 2703 0017 50       		.byte	0x50
 2704 0018 9F       		.byte	0x9f
 2705 0019 00000000 		.4byte	0
 2706 001d 00000000 		.4byte	0
 2707              	.LLST1:
 2708 0021 00000000 		.4byte	.LVL0
 2709 0025 0F000000 		.4byte	.LVL2-1
 2710 0029 0100     		.2byte	0x1
 2711 002b 51       		.byte	0x51
 2712 002c 0F000000 		.4byte	.LVL2-1
 2713 0030 16000000 		.4byte	.LVL3
 2714 0034 0100     		.2byte	0x1
 2715 0036 55       		.byte	0x55
 2716 0037 16000000 		.4byte	.LVL3
 2717 003b 4A000000 		.4byte	.LFE188
 2718 003f 0400     		.2byte	0x4
 2719 0041 F3       		.byte	0xf3
 2720 0042 01       		.uleb128 0x1
 2721 0043 51       		.byte	0x51
 2722 0044 9F       		.byte	0x9f
 2723 0045 00000000 		.4byte	0
 2724 0049 00000000 		.4byte	0
 2725              	.LLST2:
 2726 004d 00000000 		.4byte	.LVL0
 2727 0051 08000000 		.4byte	.LVL1
 2728 0055 0100     		.2byte	0x1
 2729 0057 52       		.byte	0x52
 2730 0058 08000000 		.4byte	.LVL1
ARM GAS  /tmp/ccq7hRlA.s 			page 73


 2731 005c 3A000000 		.4byte	.LVL7
 2732 0060 0100     		.2byte	0x1
 2733 0062 54       		.byte	0x54
 2734 0063 3A000000 		.4byte	.LVL7
 2735 0067 4A000000 		.4byte	.LFE188
 2736 006b 0400     		.2byte	0x4
 2737 006d F3       		.byte	0xf3
 2738 006e 01       		.uleb128 0x1
 2739 006f 52       		.byte	0x52
 2740 0070 9F       		.byte	0x9f
 2741 0071 00000000 		.4byte	0
 2742 0075 00000000 		.4byte	0
 2743              	.LLST3:
 2744 0079 00000000 		.4byte	.LVL0
 2745 007d 0F000000 		.4byte	.LVL2-1
 2746 0081 0100     		.2byte	0x1
 2747 0083 53       		.byte	0x53
 2748 0084 0F000000 		.4byte	.LVL2-1
 2749 0088 4A000000 		.4byte	.LFE188
 2750 008c 0100     		.2byte	0x1
 2751 008e 56       		.byte	0x56
 2752 008f 00000000 		.4byte	0
 2753 0093 00000000 		.4byte	0
 2754              	.LLST4:
 2755 0097 3A000000 		.4byte	.LVL7
 2756 009b 3D000000 		.4byte	.LVL8-1
 2757 009f 0100     		.2byte	0x1
 2758 00a1 50       		.byte	0x50
 2759 00a2 3D000000 		.4byte	.LVL8-1
 2760 00a6 46000000 		.4byte	.LVL9
 2761 00aa 0100     		.2byte	0x1
 2762 00ac 54       		.byte	0x54
 2763 00ad 00000000 		.4byte	0
 2764 00b1 00000000 		.4byte	0
 2765              	.LLST5:
 2766 00b5 10000000 		.4byte	.LVL2
 2767 00b9 2C000000 		.4byte	.LVL5
 2768 00bd 0100     		.2byte	0x1
 2769 00bf 50       		.byte	0x50
 2770 00c0 2C000000 		.4byte	.LVL5
 2771 00c4 2F000000 		.4byte	.LVL6-1
 2772 00c8 0200     		.2byte	0x2
 2773 00ca 91       		.byte	0x91
 2774 00cb 5C       		.sleb128 -36
 2775 00cc 00000000 		.4byte	0
 2776 00d0 00000000 		.4byte	0
 2777              	.LLST6:
 2778 00d4 1E000000 		.4byte	.LVL4
 2779 00d8 46000000 		.4byte	.LVL9
 2780 00dc 0300     		.2byte	0x3
 2781 00de 08       		.byte	0x8
 2782 00df 20       		.byte	0x20
 2783 00e0 9F       		.byte	0x9f
 2784 00e1 00000000 		.4byte	0
 2785 00e5 00000000 		.4byte	0
 2786              	.LLST7:
 2787 00e9 3E000000 		.4byte	.LVL8
ARM GAS  /tmp/ccq7hRlA.s 			page 74


 2788 00ed 46000000 		.4byte	.LVL9
 2789 00f1 0200     		.2byte	0x2
 2790 00f3 30       		.byte	0x30
 2791 00f4 9F       		.byte	0x9f
 2792 00f5 00000000 		.4byte	0
 2793 00f9 00000000 		.4byte	0
 2794              	.LLST8:
 2795 00fd 00000000 		.4byte	.LVL10
 2796 0101 0F000000 		.4byte	.LVL11-1
 2797 0105 0100     		.2byte	0x1
 2798 0107 50       		.byte	0x50
 2799 0108 0F000000 		.4byte	.LVL11-1
 2800 010c 4C000000 		.4byte	.LFE189
 2801 0110 0100     		.2byte	0x1
 2802 0112 55       		.byte	0x55
 2803 0113 00000000 		.4byte	0
 2804 0117 00000000 		.4byte	0
 2805              	.LLST9:
 2806 011b 00000000 		.4byte	.LVL10
 2807 011f 0F000000 		.4byte	.LVL11-1
 2808 0123 0100     		.2byte	0x1
 2809 0125 51       		.byte	0x51
 2810 0126 0F000000 		.4byte	.LVL11-1
 2811 012a 4C000000 		.4byte	.LFE189
 2812 012e 0100     		.2byte	0x1
 2813 0130 57       		.byte	0x57
 2814 0131 00000000 		.4byte	0
 2815 0135 00000000 		.4byte	0
 2816              	.LLST10:
 2817 0139 00000000 		.4byte	.LVL10
 2818 013d 0F000000 		.4byte	.LVL11-1
 2819 0141 0100     		.2byte	0x1
 2820 0143 52       		.byte	0x52
 2821 0144 0F000000 		.4byte	.LVL11-1
 2822 0148 4C000000 		.4byte	.LFE189
 2823 014c 0100     		.2byte	0x1
 2824 014e 56       		.byte	0x56
 2825 014f 00000000 		.4byte	0
 2826 0153 00000000 		.4byte	0
 2827              	.LLST11:
 2828 0157 00000000 		.4byte	.LVL10
 2829 015b 0F000000 		.4byte	.LVL11-1
 2830 015f 0100     		.2byte	0x1
 2831 0161 53       		.byte	0x53
 2832 0162 0F000000 		.4byte	.LVL11-1
 2833 0166 3C000000 		.4byte	.LVL15
 2834 016a 0100     		.2byte	0x1
 2835 016c 54       		.byte	0x54
 2836 016d 3C000000 		.4byte	.LVL15
 2837 0171 4C000000 		.4byte	.LFE189
 2838 0175 0400     		.2byte	0x4
 2839 0177 F3       		.byte	0xf3
 2840 0178 01       		.uleb128 0x1
 2841 0179 53       		.byte	0x53
 2842 017a 9F       		.byte	0x9f
 2843 017b 00000000 		.4byte	0
 2844 017f 00000000 		.4byte	0
ARM GAS  /tmp/ccq7hRlA.s 			page 75


 2845              	.LLST12:
 2846 0183 3C000000 		.4byte	.LVL15
 2847 0187 3F000000 		.4byte	.LVL16-1
 2848 018b 0100     		.2byte	0x1
 2849 018d 50       		.byte	0x50
 2850 018e 3F000000 		.4byte	.LVL16-1
 2851 0192 48000000 		.4byte	.LVL17
 2852 0196 0100     		.2byte	0x1
 2853 0198 54       		.byte	0x54
 2854 0199 00000000 		.4byte	0
 2855 019d 00000000 		.4byte	0
 2856              	.LLST13:
 2857 01a1 10000000 		.4byte	.LVL11
 2858 01a5 2C000000 		.4byte	.LVL13
 2859 01a9 0100     		.2byte	0x1
 2860 01ab 50       		.byte	0x50
 2861 01ac 2C000000 		.4byte	.LVL13
 2862 01b0 2F000000 		.4byte	.LVL14-1
 2863 01b4 0200     		.2byte	0x2
 2864 01b6 91       		.byte	0x91
 2865 01b7 54       		.sleb128 -44
 2866 01b8 00000000 		.4byte	0
 2867 01bc 00000000 		.4byte	0
 2868              	.LLST14:
 2869 01c0 24000000 		.4byte	.LVL12
 2870 01c4 48000000 		.4byte	.LVL17
 2871 01c8 0300     		.2byte	0x3
 2872 01ca 08       		.byte	0x8
 2873 01cb 20       		.byte	0x20
 2874 01cc 9F       		.byte	0x9f
 2875 01cd 00000000 		.4byte	0
 2876 01d1 00000000 		.4byte	0
 2877              	.LLST15:
 2878 01d5 40000000 		.4byte	.LVL16
 2879 01d9 48000000 		.4byte	.LVL17
 2880 01dd 0200     		.2byte	0x2
 2881 01df 30       		.byte	0x30
 2882 01e0 9F       		.byte	0x9f
 2883 01e1 00000000 		.4byte	0
 2884 01e5 00000000 		.4byte	0
 2885              		.section	.debug_aranges,"",%progbits
 2886 0000 24000000 		.4byte	0x24
 2887 0004 0200     		.2byte	0x2
 2888 0006 00000000 		.4byte	.Ldebug_info0
 2889 000a 04       		.byte	0x4
 2890 000b 00       		.byte	0
 2891 000c 0000     		.2byte	0
 2892 000e 0000     		.2byte	0
 2893 0010 00000000 		.4byte	.LFB188
 2894 0014 4A000000 		.4byte	.LFE188-.LFB188
 2895 0018 00000000 		.4byte	.LFB189
 2896 001c 4C000000 		.4byte	.LFE189-.LFB189
 2897 0020 00000000 		.4byte	0
 2898 0024 00000000 		.4byte	0
 2899              		.section	.debug_ranges,"",%progbits
 2900              	.Ldebug_ranges0:
 2901 0000 00000000 		.4byte	.LFB188
ARM GAS  /tmp/ccq7hRlA.s 			page 76


 2902 0004 4A000000 		.4byte	.LFE188
 2903 0008 00000000 		.4byte	.LFB189
 2904 000c 4C000000 		.4byte	.LFE189
 2905 0010 00000000 		.4byte	0
 2906 0014 00000000 		.4byte	0
 2907              		.section	.debug_line,"",%progbits
 2908              	.Ldebug_line0:
 2909 0000 6D020000 		.section	.debug_str,"MS",%progbits,1
 2909      0200FE01 
 2909      00000201 
 2909      FB0E0D00 
 2909      01010101 
 2910              	.LASF47:
 2911 0000 63685F74 		.ascii	"ch_threads_list\000"
 2911      68726561 
 2911      64735F6C 
 2911      69737400 
 2912              	.LASF82:
 2913 0010 77746D74 		.ascii	"wtmtxp\000"
 2913      787000
 2914              	.LASF110:
 2915 0017 6D656D6F 		.ascii	"memory_pool_t\000"
 2915      72795F70 
 2915      6F6F6C5F 
 2915      7400
 2916              	.LASF89:
 2917 0025 77626173 		.ascii	"wbase\000"
 2917      6500
 2918              	.LASF72:
 2919 002b 72656761 		.ascii	"regarm_t\000"
 2919      726D5F74 
 2919      00
 2920              	.LASF36:
 2921 0034 666C6167 		.ascii	"flags\000"
 2921      7300
 2922              	.LASF27:
 2923 003a 73797374 		.ascii	"systime_t\000"
 2923      696D655F 
 2923      7400
 2924              	.LASF42:
 2925 0044 7265616C 		.ascii	"realprio\000"
 2925      7072696F 
 2925      00
 2926              	.LASF40:
 2927 004d 6570656E 		.ascii	"epending\000"
 2927      64696E67 
 2927      00
 2928              	.LASF0:
 2929 0056 756E7369 		.ascii	"unsigned int\000"
 2929      676E6564 
 2929      20696E74 
 2929      00
 2930              	.LASF48:
 2931 0063 6E657874 		.ascii	"next\000"
 2931      00
 2932              	.LASF45:
 2933 0068 74687265 		.ascii	"threads_list_t\000"
ARM GAS  /tmp/ccq7hRlA.s 			page 77


 2933      6164735F 
 2933      6C697374 
 2933      5F7400
 2934              	.LASF8:
 2935 0077 5F5F696E 		.ascii	"__int32_t\000"
 2935      7433325F 
 2935      7400
 2936              	.LASF37:
 2937 0081 72656673 		.ascii	"refs\000"
 2937      00
 2938              	.LASF106:
 2939 0086 68656170 		.ascii	"heap\000"
 2939      00
 2940              	.LASF78:
 2941 008b 77746F62 		.ascii	"wtobjp\000"
 2941      6A7000
 2942              	.LASF111:
 2943 0092 706F7274 		.ascii	"port_lock\000"
 2943      5F6C6F63 
 2943      6B00
 2944              	.LASF69:
 2945 009c 76746C69 		.ascii	"vtlist\000"
 2945      737400
 2946              	.LASF125:
 2947 00a3 2E2E2F6F 		.ascii	"../os/rt/src/chdynamic.c\000"
 2947      732F7274 
 2947      2F737263 
 2947      2F636864 
 2947      796E616D 
 2948              	.LASF74:
 2949 00bc 706F7274 		.ascii	"port_context\000"
 2949      5F636F6E 
 2949      74657874 
 2949      00
 2950              	.LASF53:
 2951 00c9 63685F72 		.ascii	"ch_ready_list\000"
 2951      65616479 
 2951      5F6C6973 
 2951      7400
 2952              	.LASF59:
 2953 00d7 66756E63 		.ascii	"func\000"
 2953      00
 2954              	.LASF83:
 2955 00dc 65776D61 		.ascii	"ewmask\000"
 2955      736B00
 2956              	.LASF51:
 2957 00e3 70726576 		.ascii	"prev\000"
 2957      00
 2958              	.LASF50:
 2959 00e8 63685F74 		.ascii	"ch_threads_queue\000"
 2959      68726561 
 2959      64735F71 
 2959      75657565 
 2959      00
 2960              	.LASF55:
 2961 00f9 76746675 		.ascii	"vtfunc_t\000"
 2961      6E635F74 
ARM GAS  /tmp/ccq7hRlA.s 			page 78


 2961      00
 2962              	.LASF64:
 2963 0102 63685F73 		.ascii	"ch_system_debug\000"
 2963      79737465 
 2963      6D5F6465 
 2963      62756700 
 2964              	.LASF18:
 2965 0112 75696E74 		.ascii	"uint32_t\000"
 2965      33325F74 
 2965      00
 2966              	.LASF80:
 2967 011b 73656E74 		.ascii	"sentmsg\000"
 2967      6D736700 
 2968              	.LASF25:
 2969 0123 6576656E 		.ascii	"eventmask_t\000"
 2969      746D6173 
 2969      6B5F7400 
 2970              	.LASF92:
 2971 012f 74687265 		.ascii	"thread_descriptor_t\000"
 2971      61645F64 
 2971      65736372 
 2971      6970746F 
 2971      725F7400 
 2972              	.LASF84:
 2973 0143 63685F73 		.ascii	"ch_semaphore\000"
 2973      656D6170 
 2973      686F7265 
 2973      00
 2974              	.LASF23:
 2975 0150 74707269 		.ascii	"tprio_t\000"
 2975      6F5F7400 
 2976              	.LASF57:
 2977 0158 63685F76 		.ascii	"ch_virtual_timer\000"
 2977      69727475 
 2977      616C5F74 
 2977      696D6572 
 2977      00
 2978              	.LASF88:
 2979 0169 7466756E 		.ascii	"tfunc_t\000"
 2979      635F7400 
 2980              	.LASF14:
 2981 0171 6C6F6E67 		.ascii	"long long unsigned int\000"
 2981      206C6F6E 
 2981      6720756E 
 2981      7369676E 
 2981      65642069 
 2982              	.LASF6:
 2983 0188 5F5F7569 		.ascii	"__uint16_t\000"
 2983      6E743136 
 2983      5F7400
 2984              	.LASF26:
 2985 0193 636E745F 		.ascii	"cnt_t\000"
 2985      7400
 2986              	.LASF115:
 2987 0199 63685379 		.ascii	"chSysUnlock\000"
 2987      73556E6C 
 2987      6F636B00 
ARM GAS  /tmp/ccq7hRlA.s 			page 79


 2988              	.LASF86:
 2989 01a5 6F776E65 		.ascii	"owner\000"
 2989      7200
 2990              	.LASF49:
 2991 01ab 74687265 		.ascii	"threads_queue_t\000"
 2991      6164735F 
 2991      71756575 
 2991      655F7400 
 2992              	.LASF128:
 2993 01bb 76616C75 		.ascii	"value\000"
 2993      6500
 2994              	.LASF41:
 2995 01c1 6D74786C 		.ascii	"mtxlist\000"
 2995      69737400 
 2996              	.LASF61:
 2997 01c9 63685F76 		.ascii	"ch_virtual_timers_list\000"
 2997      69727475 
 2997      616C5F74 
 2997      696D6572 
 2997      735F6C69 
 2998              	.LASF104:
 2999 01e0 75736564 		.ascii	"used\000"
 2999      00
 3000              	.LASF28:
 3001 01e5 74687265 		.ascii	"thread_t\000"
 3001      61645F74 
 3001      00
 3002              	.LASF127:
 3003 01ee 68656170 		.ascii	"heap_header\000"
 3003      5F686561 
 3003      64657200 
 3004              	.LASF2:
 3005 01fa 73697A65 		.ascii	"size_t\000"
 3005      5F7400
 3006              	.LASF76:
 3007 0201 7264796D 		.ascii	"rdymsg\000"
 3007      736700
 3008              	.LASF109:
 3009 0208 6F626A65 		.ascii	"object_size\000"
 3009      63745F73 
 3009      697A6500 
 3010              	.LASF94:
 3011 0214 5F426F6F 		.ascii	"_Bool\000"
 3011      6C00
 3012              	.LASF85:
 3013 021a 63685F6D 		.ascii	"ch_mutex\000"
 3013      75746578 
 3013      00
 3014              	.LASF103:
 3015 0223 66726565 		.ascii	"free\000"
 3015      00
 3016              	.LASF13:
 3017 0228 5F5F7569 		.ascii	"__uint64_t\000"
 3017      6E743634 
 3017      5F7400
 3018              	.LASF113:
 3019 0233 63685379 		.ascii	"chSysLock\000"
ARM GAS  /tmp/ccq7hRlA.s 			page 80


 3019      734C6F63 
 3019      6B00
 3020              	.LASF30:
 3021 023d 7072696F 		.ascii	"prio\000"
 3021      00
 3022              	.LASF130:
 3023 0242 5F5F6675 		.ascii	"__func__.5943\000"
 3023      6E635F5F 
 3023      2E353934 
 3023      3300
 3024              	.LASF87:
 3025 0250 63686172 		.ascii	"char\000"
 3025      00
 3026              	.LASF44:
 3027 0255 74687265 		.ascii	"thread_reference_t\000"
 3027      61645F72 
 3027      65666572 
 3027      656E6365 
 3027      5F7400
 3028              	.LASF34:
 3029 0268 77616261 		.ascii	"wabase\000"
 3029      736500
 3030              	.LASF118:
 3031 026f 63685468 		.ascii	"chThdCreateFromMemoryPool\000"
 3031      64437265 
 3031      61746546 
 3031      726F6D4D 
 3031      656D6F72 
 3032              	.LASF21:
 3033 0289 74737461 		.ascii	"tstate_t\000"
 3033      74655F74 
 3033      00
 3034              	.LASF15:
 3035 0292 75696E74 		.ascii	"uint8_t\000"
 3035      385F7400 
 3036              	.LASF39:
 3037 029a 6D736771 		.ascii	"msgqueue\000"
 3037      75657565 
 3037      00
 3038              	.LASF46:
 3039 02a3 63685F74 		.ascii	"ch_thread\000"
 3039      68726561 
 3039      6400
 3040              	.LASF105:
 3041 02ad 70616765 		.ascii	"pages\000"
 3041      7300
 3042              	.LASF63:
 3043 02b3 73797374 		.ascii	"system_debug_t\000"
 3043      656D5F64 
 3043      65627567 
 3043      5F7400
 3044              	.LASF90:
 3045 02c2 77656E64 		.ascii	"wend\000"
 3045      00
 3046              	.LASF12:
 3047 02c7 6C6F6E67 		.ascii	"long long int\000"
 3047      206C6F6E 
ARM GAS  /tmp/ccq7hRlA.s 			page 81


 3047      6720696E 
 3047      7400
 3048              	.LASF24:
 3049 02d5 6D73675F 		.ascii	"msg_t\000"
 3049      7400
 3050              	.LASF56:
 3051 02db 76697274 		.ascii	"virtual_timer_t\000"
 3051      75616C5F 
 3051      74696D65 
 3051      725F7400 
 3052              	.LASF107:
 3053 02eb 73697A65 		.ascii	"size\000"
 3053      00
 3054              	.LASF129:
 3055 02f0 5F5F6675 		.ascii	"__func__.5198\000"
 3055      6E635F5F 
 3055      2E353139 
 3055      3800
 3056              	.LASF124:
 3057 02fe 474E5520 		.ascii	"GNU C 4.8.2 -mcpu=cortex-m3 -mno-thumb-interwork -m"
 3057      4320342E 
 3057      382E3220 
 3057      2D6D6370 
 3057      753D636F 
 3058 0331 7468756D 		.ascii	"thumb -ggdb -O2 -fomit-frame-pointer -falign-functi"
 3058      62202D67 
 3058      67646220 
 3058      2D4F3220 
 3058      2D666F6D 
 3059 0364 6F6E733D 		.ascii	"ons=16 -ffunction-sections -fdata-sections -fno-com"
 3059      3136202D 
 3059      6666756E 
 3059      6374696F 
 3059      6E2D7365 
 3060 0397 6D6F6E20 		.ascii	"mon -flto\000"
 3060      2D666C74 
 3060      6F00
 3061              	.LASF100:
 3062 03a1 68656164 		.ascii	"header\000"
 3062      657200
 3063              	.LASF97:
 3064 03a8 6D656D6F 		.ascii	"memory_heap_t\000"
 3064      72795F68 
 3064      6561705F 
 3064      7400
 3065              	.LASF121:
 3066 03b6 63685468 		.ascii	"chThdCreateSuspendedI\000"
 3066      64437265 
 3066      61746553 
 3066      75737065 
 3066      6E646564 
 3067              	.LASF65:
 3068 03cc 70616E69 		.ascii	"panic_msg\000"
 3068      635F6D73 
 3068      6700
 3069              	.LASF20:
 3070 03d6 746D6F64 		.ascii	"tmode_t\000"
ARM GAS  /tmp/ccq7hRlA.s 			page 82


 3070      655F7400 
 3071              	.LASF70:
 3072 03de 6D61696E 		.ascii	"mainthread\000"
 3072      74687265 
 3072      616400
 3073              	.LASF16:
 3074 03e9 75696E74 		.ascii	"uint16_t\000"
 3074      31365F74 
 3074      00
 3075              	.LASF120:
 3076 03f2 63684865 		.ascii	"chHeapAllocAligned\000"
 3076      6170416C 
 3076      6C6F6341 
 3076      6C69676E 
 3076      656400
 3077              	.LASF5:
 3078 0405 73686F72 		.ascii	"short int\000"
 3078      7420696E 
 3078      7400
 3079              	.LASF98:
 3080 040f 6D656D6F 		.ascii	"memory_heap\000"
 3080      72795F68 
 3080      65617000 
 3081              	.LASF9:
 3082 041b 6C6F6E67 		.ascii	"long int\000"
 3082      20696E74 
 3082      00
 3083              	.LASF75:
 3084 0424 706F7274 		.ascii	"port_intctx\000"
 3084      5F696E74 
 3084      63747800 
 3085              	.LASF119:
 3086 0430 49544D5F 		.ascii	"ITM_RxBuffer\000"
 3086      52784275 
 3086      66666572 
 3086      00
 3087              	.LASF67:
 3088 043d 63685F73 		.ascii	"ch_system\000"
 3088      79737465 
 3088      6D00
 3089              	.LASF114:
 3090 0447 5F5F7365 		.ascii	"__set_BASEPRI\000"
 3090      745F4241 
 3090      53455052 
 3090      4900
 3091              	.LASF99:
 3092 0455 70726F76 		.ascii	"provider\000"
 3092      69646572 
 3092      00
 3093              	.LASF62:
 3094 045e 6C617374 		.ascii	"lasttime\000"
 3094      74696D65 
 3094      00
 3095              	.LASF19:
 3096 0467 75696E74 		.ascii	"uint64_t\000"
 3096      36345F74 
 3096      00
ARM GAS  /tmp/ccq7hRlA.s 			page 83


 3097              	.LASF68:
 3098 0470 726C6973 		.ascii	"rlist\000"
 3098      7400
 3099              	.LASF126:
 3100 0476 2F686F6D 		.ascii	"/home/jerson/ChibiOS/rt_stm32f100rb_onion\000"
 3100      652F6A65 
 3100      72736F6E 
 3100      2F436869 
 3100      62694F53 
 3101              	.LASF123:
 3102 04a0 6368506F 		.ascii	"chPoolAlloc\000"
 3102      6F6C416C 
 3102      6C6F6300 
 3103              	.LASF3:
 3104 04ac 5F5F7569 		.ascii	"__uint8_t\000"
 3104      6E74385F 
 3104      7400
 3105              	.LASF95:
 3106 04b6 6D656D67 		.ascii	"memgetfunc_t\000"
 3106      65746675 
 3106      6E635F74 
 3106      00
 3107              	.LASF33:
 3108 04c3 6E616D65 		.ascii	"name\000"
 3108      00
 3109              	.LASF71:
 3110 04c8 73697A65 		.ascii	"sizetype\000"
 3110      74797065 
 3110      00
 3111              	.LASF22:
 3112 04d1 74726566 		.ascii	"trefs_t\000"
 3112      735F7400 
 3113              	.LASF11:
 3114 04d9 6C6F6E67 		.ascii	"long unsigned int\000"
 3114      20756E73 
 3114      69676E65 
 3114      6420696E 
 3114      7400
 3115              	.LASF52:
 3116 04eb 72656164 		.ascii	"ready_list_t\000"
 3116      795F6C69 
 3116      73745F74 
 3116      00
 3117              	.LASF29:
 3118 04f8 71756575 		.ascii	"queue\000"
 3118      6500
 3119              	.LASF17:
 3120 04fe 696E7433 		.ascii	"int32_t\000"
 3120      325F7400 
 3121              	.LASF81:
 3122 0506 77747365 		.ascii	"wtsemp\000"
 3122      6D7000
 3123              	.LASF117:
 3124 050d 63685468 		.ascii	"chThdCreateFromHeap\000"
 3124      64437265 
 3124      61746546 
 3124      726F6D48 
ARM GAS  /tmp/ccq7hRlA.s 			page 84


 3124      65617000 
 3125              	.LASF93:
 3126 0521 6D757465 		.ascii	"mutex_t\000"
 3126      785F7400 
 3127              	.LASF31:
 3128 0529 6E657765 		.ascii	"newer\000"
 3128      7200
 3129              	.LASF4:
 3130 052f 756E7369 		.ascii	"unsigned char\000"
 3130      676E6564 
 3130      20636861 
 3130      7200
 3131              	.LASF10:
 3132 053d 5F5F7569 		.ascii	"__uint32_t\000"
 3132      6E743332 
 3132      5F7400
 3133              	.LASF38:
 3134 0548 77616974 		.ascii	"waiting\000"
 3134      696E6700 
 3135              	.LASF91:
 3136 0550 66756E63 		.ascii	"funcp\000"
 3136      7000
 3137              	.LASF60:
 3138 0556 76697274 		.ascii	"virtual_timers_list_t\000"
 3138      75616C5F 
 3138      74696D65 
 3138      72735F6C 
 3138      6973745F 
 3139              	.LASF122:
 3140 056c 63685363 		.ascii	"chSchWakeupS\000"
 3140      6857616B 
 3140      65757053 
 3140      00
 3141              	.LASF35:
 3142 0579 73746174 		.ascii	"state\000"
 3142      6500
 3143              	.LASF108:
 3144 057f 706F6F6C 		.ascii	"pool_header\000"
 3144      5F686561 
 3144      64657200 
 3145              	.LASF66:
 3146 058b 63685F73 		.ascii	"ch_system_t\000"
 3146      79737465 
 3146      6D5F7400 
 3147              	.LASF79:
 3148 0597 77747472 		.ascii	"wttrp\000"
 3148      7000
 3149              	.LASF116:
 3150 059d 68656170 		.ascii	"heapp\000"
 3150      7000
 3151              	.LASF1:
 3152 05a3 7369676E 		.ascii	"signed char\000"
 3152      65642063 
 3152      68617200 
 3153              	.LASF58:
 3154 05af 64656C74 		.ascii	"delta\000"
 3154      6100
ARM GAS  /tmp/ccq7hRlA.s 			page 85


 3155              	.LASF7:
 3156 05b5 73686F72 		.ascii	"short unsigned int\000"
 3156      7420756E 
 3156      7369676E 
 3156      65642069 
 3156      6E7400
 3157              	.LASF73:
 3158 05c8 73746B61 		.ascii	"stkalign_t\000"
 3158      6C69676E 
 3158      5F7400
 3159              	.LASF54:
 3160 05d3 63757272 		.ascii	"current\000"
 3160      656E7400 
 3161              	.LASF112:
 3162 05db 706F7274 		.ascii	"port_unlock\000"
 3162      5F756E6C 
 3162      6F636B00 
 3163              	.LASF96:
 3164 05e7 6D656D67 		.ascii	"memgetfunc2_t\000"
 3164      65746675 
 3164      6E63325F 
 3164      7400
 3165              	.LASF102:
 3166 05f5 616C6967 		.ascii	"align\000"
 3166      6E00
 3167              	.LASF32:
 3168 05fb 6F6C6465 		.ascii	"older\000"
 3168      7200
 3169              	.LASF77:
 3170 0601 65786974 		.ascii	"exitcode\000"
 3170      636F6465 
 3170      00
 3171              	.LASF101:
 3172 060a 68656170 		.ascii	"heap_header_t\000"
 3172      5F686561 
 3172      6465725F 
 3172      7400
 3173              	.LASF43:
 3174 0618 6D706F6F 		.ascii	"mpool\000"
 3174      6C00
 3175              		.comm	__gnu_lto_v1,1,1
 3176              		.ident	"GCC: (4.8.2-14ubuntu1+6) 4.8.2"
ARM GAS  /tmp/ccq7hRlA.s 			page 86


DEFINED SYMBOLS
                            *ABS*:0000000000000000 chdynamic.c
     /tmp/ccq7hRlA.s:413    .text.chThdCreateFromHeap:0000000000000000 $t
     /tmp/ccq7hRlA.s:419    .text.chThdCreateFromHeap:0000000000000000 chThdCreateFromHeap
     /tmp/ccq7hRlA.s:520    .text.chThdCreateFromMemoryPool:0000000000000000 $t
     /tmp/ccq7hRlA.s:526    .text.chThdCreateFromMemoryPool:0000000000000000 chThdCreateFromMemoryPool
                            *COM*:0000000000000001 __gnu_lto_v1
                     .debug_frame:0000000000000010 $d

UNDEFINED SYMBOLS
chHeapAllocAligned
chThdCreateSuspendedI
chSchWakeupS
chPoolAlloc
