ARM GAS  /tmp/cckQgGRQ.s 			page 1


   1              		.syntax unified
   2              		.cpu cortex-m3
   3              		.fpu softvfp
   4              		.eabi_attribute 20, 1
   5              		.eabi_attribute 21, 1
   6              		.eabi_attribute 23, 3
   7              		.eabi_attribute 24, 1
   8              		.eabi_attribute 25, 1
   9              		.eabi_attribute 26, 1
  10              		.eabi_attribute 30, 2
  11              		.eabi_attribute 34, 1
  12              		.eabi_attribute 18, 4
  13              		.thumb
  14              		.file	"chheap.c"
  15              		.text
  16              	.Ltext0:
  17              		.section	.gnu.lto_.jmpfuncs.7674aba4c071e775,"",%progbits
  18 0000 789C6362 		.ascii	"x\234cb`b\300\006\212\2414+\003\003#S5\303\257\206\216"
  18      6062C006 
  18      8AA1342B 
  18      03032353 
  18      35C3AF86 
  19 0015 06814C46 		.ascii	"\006\201LF\006m\206U\015\015 \026c.#C\022#\\9#\343\203"
  19      066D8655 
  19      0D0D2016 
  19      632E2343 
  19      12235C39 
  20 002c FF50C018 		.ascii	"\377P\300\030\301\230\311\0104\224\231\235\221\245\001"
  20      C198C908 
  20      3494999D 
  20      91A501
  21 003b C8042962 		.ascii	"\310\004)ba\007\222\020\304\014R\316\004R\303\314\301"
  21      61079210 
  21      C40C52CE 
  21      0452C3CC 
  21      C1
  22 004c C0500FB4 		.ascii	"\300P\017\264\201\021\"\301\006U\303\000\000\371\033"
  22      811122C1 
  22      0655C300 
  22      00F91B
  23 005b 13AA     		.ascii	"\023\252"
  24              		.text
  25              		.section	.gnu.lto_.inline.7674aba4c071e775,"",%progbits
  26 0000 789C6362 		.ascii	"x\234cb`b\300\006Z\030!4+\003\003\207\000#\003\023\333"
  26      6062C006 
  26      5A182134 
  26      2B030387 
  26      00230313 
  27 0015 073D06B6 		.ascii	"\007=\006\266\005\362`\305L\334\014\014\214\014\314"
  27      05F260C5 
  27      4CDC0C0C 
  27      8C0CCC
  28 0024 0C3C228C 		.ascii	"\014<\"\214LL`u \202\231\265C\235\201{\205\033\023\003"
  28      4C4C6075 
  28      208299B5 
  28      439D817B 
  28      851B1303 
ARM GAS  /tmp/cckQgGRQ.s 			page 2


  29 0038 CB027916 		.ascii	"\313\002y\026\270\272\011~,\014\327\030v11\2623\244"
  29      B8BA097E 
  29      2C0CD718 
  29      763131B2 
  29      33A4
  30 004a 47306632 		.ascii	"G0f2\202e2`,\246\024\020\213\231\035\310J\205\261\300"
  30      82653260 
  30      2CA61410 
  30      8B991DC8 
  30      4A85B1C0 
  31 005e A681CD65 		.ascii	"\246\201\315e\004\021\254E\373>*@\354\006\032\354\000"
  31      0411AC45 
  31      FB3E2A40 
  31      EC061AEC 
  31      00
  32 006f 221A1819 		.ascii	"\"\032\030\031\204\246x60!Y\202J\261\013\003\3353\301"
  32      84A67836 
  32      30215982 
  32      4AB10B03 
  32      DD33C1
  33 0082 6F821FD0 		.ascii	"o\202\037\320\375\306\207\031\201\346\200]\350\323\265"
  33      FDC68719 
  33      81E6805D 
  33      E8D3B5
  34 0091 458441E0 		.ascii	"E\204A\340E\020\023\003\323\005~\026L\335l\014\222_"
  34      45101303 
  34      D3057E16 
  34      4CDD6C0C 
  34      925F
  35 00a3 191839B1 		.ascii	"\031\0309\2619\224\021\314b\005\261\322a,&\270\030\023"
  35      399411CC 
  35      6205B1D2 
  35      612C26B8 
  35      1813
  36 00b5 5C8C01EE 		.ascii	"\\\214\001\356n\260\0178\005\036\314\343\202;\276\001"
  36      6EB00F38 
  36      051ECCE3 
  36      823BBE01 
  37 00c5 42B23030 		.ascii	"B\26200\177\023\026``\274\304&\000\021\340``n\023u`"
  37      7F131660 
  37      60BCC426 
  37      0011E060 
  37      606E1375 
  38 00da 606C6277 		.ascii	"`lbw\300\342'\006\000\261\2422\262"
  38      C0E22706 
  38      00B1A232 
  38      B2
  39              		.text
  40              		.section	.gnu.lto_.pureconst.7674aba4c071e775,"",%progbits
  41 0000 789C6362 		.ascii	"x\234cb`b\340f\200\000V\006\011f)\026)V)6)\000\004?"
  41      6062E066 
  41      80005606 
  41      09662916 
  41      29562936 
  42 0018 00A7     		.ascii	"\000\247"
  43              		.text
  44              		.section	.gnu.lto__heap_init.7674aba4c071e775,"",%progbits
ARM GAS  /tmp/cckQgGRQ.s 			page 3


  45 0000 789CA591 		.ascii	"x\234\245\221\261K\303@\024\306\277wI\232X\027W\267"
  45      B14BC340 
  45      14C6BF77 
  45      499A5817 
  45      57B7
  46 0012 A29B8564 		.ascii	"\242\233\205dv\362\237\250\240cs\010=0F\354\340\340"
  46      76F29FA8 
  46      A0637308 
  46      3D3046EC 
  46      E0E0
  47 0024 D0AB7670 		.ascii	"\320\253vp\222:\011\012\202\253\203n\342Xp\320\305\212"
  47      923A090A 
  47      82AB836E 
  47      E25870D0 
  47      C58A
  48 0036 9B834356 		.ascii	"\233\203CV\007\347H\227\372\356\222\010\352\"\370 \367"
  48      07E74897 
  48      FAEE9208 
  48      EA22F820 
  48      F7
  49 0047 BE3CBEF7 		.ascii	"\276<\276\367\375.D@\340g\315\3633&`\201;9 1\034\003"
  49      FD2E4440 
  49      E067CDF3 
  49      33266081 
  49      3B392031 
  50 005d FD401019 		.ascii	"\375@\020\031\001BOPo\235\254\367Z\214\262\351\364\352"
  50      01424F50 
  50      6F9DACF7 
  50      5A8CB2E9 
  50      F4EA
  51 006f E6FEE495 		.ascii	"\346\376\344\225\316E\215'\036\006Z\017\033\200\264"
  51      CE458D27 
  51      1E065A0F 
  51      1B80B4
  52 007e 8E169F66 		.ascii	"\216\026\237fm\225\204\351\316#\366'\007\371\321r\233"
  52      6D9584E9 
  52      CE23F627 
  52      07F9D172 
  52      9B
  53 008f 2EC84313 		.ascii	".\310C\023\227\232kE\021\316p\332\327zN\021\355a\242"
  53      979A6B45 
  53      11CE70DA 
  53      D77A4E11 
  53      ED61A2
  54 00a2 0F8D1289 		.ascii	"\017\215\022\211\215X#\226\226\026\027P\024\016\275"
  54      8D582396 
  54      96161750 
  54      140EBD
  55 00b1 ABC89154 		.ascii	"\253\310\221T\3148\367\366%\037\271\337r}En\023K\212"
  55      CC38F7F6 
  55      251FB9DF 
  55      727D456E 
  55      134B8A
  56 00c4 3C7BD6FE 		.ascii	"<{\326\376\306\240\262W\357\016*\207[\221>\362\207_"
  56      C6A0B257 
  56      EF0E2A87 
  56      5B913EF2 
ARM GAS  /tmp/cckQgGRQ.s 			page 4


  56      875F
  57 00d6 24FFFF24 		.ascii	"$\377\377$\367\213\344\033\361\204A\366vW/@\325WsR "
  57      F78BE41B 
  57      F18441F6 
  57      76572F40 
  57      D5577352 
  58 00eb CB0D3309 		.ascii	"\313\0153\011\024\315\224\2278\346\305:Sbk\007\312E"
  58      14CD9497 
  58      38E6C53A 
  58      53626B07 
  58      CA45
  59 00fd 45B3C033 		.ascii	"E\263\3003\372\331\373b\025UT\213/\300\377\304d5\302"
  59      FAD9FB62 
  59      1555548B 
  59      2FC0FFC4 
  59      6435C2
  60 0110 304ABB91 		.ascii	"0J\273\221L\223$\335b\265\251\342\250\273##\331\351"
  60      4C9324DD 
  60      62B5A9E2 
  60      A8BB2323 
  60      D9E9
  61 0122 6CB4B743 		.ascii	"l\264\267C\211OJ\224u\324"
  61      894F4A94 
  61      75D4
  62              		.text
  63              		.section	.gnu.lto_chHeapObjectInit.7674aba4c071e775,"",%progbits
  64 0000 789C9552 		.ascii	"x\234\225R=K\003A\020\235\331\2733\2273~\264vAI\243"
  64      3D4B0341 
  64      109DD9BB 
  64      3397337E 
  64      B4764149 
  65 0015 90C3FFA2 		.ascii	"\220\303\377\242\240erH\262\340\231`:-\\\215\205\010"
  65      A0657248 
  65      B2E09960 
  65      3A2D5C8D 
  65      8508
  66 0027 429088A2 		.ascii	"B\220\210\242\215\261\210`@\333\224\261\021\024T\322"
  66      8DB18860 
  66      40DB94B1 
  66      111454D2 
  67 0037 992E3FC0 		.ascii	"\231.?\300B+C\012\317\331\275MD\215\202\003\373f\357"
  67      422B430A 
  67      CFD9BD4D 
  67      448D8203 
  67      FB66EF
  68 004a 66E6CDDB 		.ascii	"f\346\315\333a\0300\370n\023t\236\351w\202<\032\200"
  68      611830F8 
  68      6E13749E 
  68      E977823C 
  68      1A80
  69 005c ACF400B0 		.ascii	"\254\364\000\260i3Dy\001\204\015\206\033\213\250r\257"
  69      69334479 
  69      01840D86 
  69      1B8BA872 
  69      AF
  70 006d 58A31D04 		.ascii	"X\243\035\004\227\345\273\233k\254%F\021}\004\203\000"
  70      97E5BB9B 
ARM GAS  /tmp/cckQgGRQ.s 			page 5


  70      6BAC2546 
  70      117D0483 
  70      00
  71 007e 6D021605 		.ascii	"m\002\026\005\216\340H\210\021\310\012\013\266\205("
  71      8EE04888 
  71      11C80A0B 
  71      B68528
  72 008d C527A122 		.ascii	"\305'\241\"\304~\343p\367`B\234n\225\304{\020 G\306"
  72      C47EE370 
  72      F760429C 
  72      6E95C47B 
  72      102047C6 
  73 00a1 600AC143 		.ascii	"`\012\301CX\240\017#\256\234i~\025\347\223\"\231B6G"
  73      58A00F23 
  73      AE9C697E 
  73      15E79322 
  73      99423647 
  74 00b5 2815CD23 		.ascii	"(\025\315#\223\336\270\005\226\302\012Z\220\3023\234"
  74      93DEB805 
  74      96C20A5A 
  74      90C2339C 
  75 00c5 848C6C78 		.ascii	"\204\214lx\017[\365z\265\245\0033p!\310f9Z'pL\354C\031"
  75      0F5BF57A 
  75      B5A50333 
  75      7021C866 
  75      395A2770 
  76 00dd 34649788 		.ascii	"4d\227\210\342N\207oR}-y\241\352\333\247j\323\370R\035"
  76      E24E876F 
  76      527D2D79 
  76      A1EADBA7 
  76      6AD3F852 
  77 00f2 21A13330 		.ascii	"!\24130\315\321V\030\035\314\204\3323\355\015\345\373"
  77      CDD15618 
  77      1DCC84DA 
  77      33ED0DE5 
  77      FB
  78 0103 9A3AD5D6 		.ascii	"\232:\325\326\017V\347\377\254f_\257\243\365\326\217"
  78      0F56E7FF 
  78      AC665FAF 
  78      A3F5D68F 
  79 0113 CE5FF117 		.ascii	"\316_\361\027\275!g\224D\310\0126Pa?r\017\305\235\342"
  79      BD216794 
  79      44C80A36 
  79      50613F72 
  79      0FC59DE2 
  80 0127 5BD90DB9 		.ascii	"[\331\015\2712\262\314V\215:A\020\214\205\011{\305\252"
  80      32B2CC56 
  80      8D3A4110 
  80      8C85097B 
  80      C5AA
  81 0139 D18B3B94 		.ascii	"\321\213;\224\242\342\266\036\334K\344\227\007\376-"
  81      A2E2B61E 
  81      DC4BE497 
  81      07FE2D
  82 0148 C3D48372 		.ascii	"\303\324\203r\024K\267\030\224\247{-b\353\260Fk\244"
  82      144BB718 
  82      94A77B2D 
ARM GAS  /tmp/cckQgGRQ.s 			page 6


  82      62EBB046 
  82      6BA4
  83 015a 090B1C87 		.ascii	"\011\013\034\207\007O\311\372\\\227G\330n\350z\200u"
  83      074FC9FA 
  83      5C9747D8 
  83      6EE87A80 
  83      75
  84 016b E88A1D31 		.ascii	"\350\212\0351\3161\346\351I\022'\307\021\200&l\266k"
  84      CE31E6E9 
  84      491227C7 
  84      1180266C 
  84      B66B
  85 017d 895E5E68 		.ascii	"\211^^hs\224Ck%u\305\223I7Wp\275\234\357\347V\350\266"
  85      7394436B 
  85      2575C593 
  85      49375770 
  85      BD9CEFE7 
  86 0194 CCD36E61 		.ascii	"\314\323na\325s\275lv)\225Oz\300\262\371\017io\246\016"
  86      D573BD6C 
  86      7629954F 
  86      7AC0B2F9 
  86      0F696FA6 
  87              		.text
  88              		.section	.gnu.lto_chHeapAllocAligned.7674aba4c071e775,"",%progbits
  89 0000 789C9D57 		.ascii	"x\234\235WklTE\024\236\231{\357\276\037\355\366E\245"
  89      6B6C5445 
  89      149E997B 
  89      EFBE1FED 
  89      F645A5
  90 0013 402DF286 		.ascii	"@-\362\206\226RQ\2046\274\214\011\001Cb \301\177\226"
  90      96525184 
  90      36BC8C09 
  90      01436220 
  90      C17F96
  91 0026 0A65132A 		.ascii	"\012e\023*U\376\311\217n\273\215\274\224\020\003A\024"
  91      55FEC98F 
  91      6EBB8DBC 
  91      94100341 
  91      14
  92 0037 B04609A2 		.ascii	"\260F\011\2421<\324X\203\204]\202JA\201\232\020\241"
  92      313CD458 
  92      83845D82 
  92      4A41819A 
  92      10A1
  93 0049 41252A90 		.ascii	"A%*\220P\322@0\202\304\270\236sf\346\356\355v\335\256"
  93      50D24030 
  93      82C4B89E 
  93      7366E6EE 
  93      ED76DDAE 
  94 005d EC8F7367 		.ascii	"\354\217sg\316{\276s\346\261\202\011\226\371+\343\214"
  94      CE7BBE73 
  94      E6B18209 
  94      96F92BE3 
  94      8C
  95 006e AD8830F6 		.ascii	"\255\2100\366\034\214y\031\343b\3739\306\332=B\030W"
  95      1C8C7919 
  95      E362FB39 
ARM GAS  /tmp/cckQgGRQ.s 			page 7


  95      C6DA3D42 
  95      1857
  96 0080 FC2CE633 		.ascii	"\374,\3463?;\311X,`pS\362Mam\232\000|\027\322\200\305"
  96      3F3BC958 
  96      2C607053 
  96      F24D616D 
  96      9A007C17 
  97 0097 5D92EDE2 		.ascii	"]\222\355\342\245r\340\026\036\222\027\222\334#\274"
  97      A572E016 
  97      1E921792 
  97      DC23BC
  98 00a6 270D9C9D 		.ascii	"'\015\234\235;\203^\274\302G\302 \011}\302O\263\000"
  98      3B835EBC 
  98      C247C220 
  98      097DC24F 
  98      B300
  99 00b8 CDFC3C20 		.ascii	"\315\374< =\004x\201\034\004E\350v\011\310\303]\263"
  99      3D047881 
  99      1C0445E8 
  99      7609C8C3 
  99      5DB3
 100 00ca 401ED2EC 		.ascii	"@\036\322\354\260\036\024\360\0229(\224\301\347\227"
 100      B01E14F0 
 100      12392894 
 100      C1E797
 101 00d9 0A37C5F1 		.ascii	"\0127\305\361E0h \"\212\276\241i\311\031\234\026\211"
 101      45306820 
 101      228ABEA1 
 101      69C9199C 
 101      1689
 102 00eb E20BDFD1 		.ascii	"\342\013\337\3214\301aZ\254\255K8\307\001\343\254M\030"
 102      34C1615A 
 102      ACAD4B38 
 102      C701E3AC 
 102      4D18
 103 00fd A6E5727B 		.ascii	"\246\345r{\274>\177 \030\012\027\024\226F\212\212Kx"
 103      BC3E7F20 
 103      180A1714 
 103      96468A8A 
 103      4B78
 104 010f DBF31C81 		.ascii	"\333\363\034\201\362V\261\367b\261\355W\277\376\255"
 104      F256B1F7 
 104      62B1ED57 
 104      BFFEAD
 105 011e D7DABD23 		.ascii	"\327\332\275#\321\331\025\373;\225\342<\312\001\324"
 105      D1D915FB 
 105      3B95E23C 
 105      CA01D4
 106 012d B19C3571 		.ascii	"\261\2345q\266\002&\274\222>\302\034\214\262\264\215"
 106      B60226BC 
 106      923EC21C 
 106      8CB2B48D 
 107 013d 1DFD30E6 		.ascii	"\035\3750\346%;\203\314&\346g\2268qnW\371\226\256\216"
 107      253B83CC 
 107      26E66796 
 107      38716E57 
 107      F996AE8E 
ARM GAS  /tmp/cckQgGRQ.s 			page 8


 108 0151 EDB17F20 		.ascii	"\355\261\177 \"YV\347i\371\345\371=\031\226\217\347"
 108      225956E7 
 108      69F9E5F9 
 108      3D19968F 
 108      E7
 109 0162 65F966E2 		.ascii	"e\371f\342\335\255;\313ciKC\260\247\362\263\214\375"
 109      DDAD3BCB 
 109      63694B43 
 109      B0A7F2B3 
 109      8CFD
 110 0174 F5E2E958 		.ascii	"\365\342\351Xg\"\225\232KV\365y\306;\262\365\015g<S"
 110      6722959A 
 110      4B56F579 
 110      C63BB2F5 
 110      0D673C53 
 111 0188 B079795A 		.ascii	"\260yyZ^\334\2667#\323g\362\264<|>\260\275}S,\225j\003"
 111      5EDCB637 
 111      23D367F2 
 111      B43C7C3E 
 111      B0BD7D53 
 112 01a0 B3467E98 		.ascii	"\263F~\230\213a\354\016\211\304\325T\352\326\345?^\277"
 112      8B61EC0E 
 112      89C4D554 
 112      EAD6E53F 
 112      5EBF
 113 01b2 C5CF88E7 		.ascii	"\305\317\210\3478kAH[87X#?\310\253\230\251\276\026\213"
 113      386B4148 
 113      5B383758 
 113      233FC8AB 
 113      98A9BE16 
 114 01c7 72CBCB41 		.ascii	"r\313\313A\354\003\302\375@D\000x\256 \222\020h}\002"
 114      EC03C2FD 
 114      40440078 
 114      AE209210 
 114      687D02
 115 01da 5A6198B8 		.ascii	"Za\230\270#\312\244\010&F\261\232\224\340\244\024u\313"
 115      23CAA408 
 115      2646B19A 
 115      94E0A414 
 115      75CB
 116 01ec 908C4052 		.ascii	"\220\214@R\216\344\021$#\201\210\012\245:\0129\243\221"
 116      8EE41124 
 116      2381880A 
 116      A53A0A39 
 116      A391
 117 01fe 33064925 		.ascii	"3\006I%Z>\012\262\367@V\005\337\367\341;\026\230\354"
 117      5A3E0AB2 
 117      F7405605 
 117      DFF7E13B 
 117      1698EC
 118 0211 3124E390 		.ascii	"1$\343\220\214G2\001\311D4\236\004Z\373Ak2r\246 \231"
 118      8C473201 
 118      C944349E 
 118      045AFB41 
 118      6B3272A6 
 119 0227 8A641ACA 		.ascii	"\212d\032\312j\320\347t$\265\240u\010\264f \273\016"
 119      6AD0E774 
ARM GAS  /tmp/cckQgGRQ.s 			page 9


 119      24B5A075 
 119      08B46620 
 119      BB0E
 120 0239 C94C0C35 		.ascii	"\311L\0145\013\311lT\230\203\244\036\264\216\200V\003"
 120      0BC96C54 
 120      9883A41E 
 120      B48E8056 
 120      03
 121 024a B2E7C2E4 		.ascii	"\262\347\302\344\000L\346\241\273\371H\026 Y\210\306"
 121      004CE6A1 
 121      BBF94816 
 121      205988C6 
 122 025a 8B10A1C5 		.ascii	"\213\020\241\305@<Kp\372,\222\245\240\3771\350\303\317"
 122      403C4B70 
 122      FA2C92A5 
 122      A0FF31E8 
 122      C3CF
 123 026c 629DD0BF 		.ascii	"b\235\320\277\225r\211\272%\317\356\312(\364\242\341"
 123      957289BA 
 123      25CFEECA 
 123      28F4A2E1 
 124 027c 0A2DFD49 		.ascii	"\012-\375I\264[\240J\250\016\277e@w[l9\024|\267e\234"
 124      B45BA04A 
 124      A80EBF65 
 124      40775B6C 
 124      39147CB7 
 125 0292 66A76E24 		.ascii	"f\247n$\217m\205\0168\312-\326\314\275\350\311\353t"
 125      8F6D850E 
 125      38CA2DD6 
 125      CCBDE8C9 
 125      EB74
 126 02a4 B31C4C7F 		.ascii	"\263\034L\177gF\017\353\270\372\3635\227\324\203\332"
 126      67460FEB 
 126      B8FAF335 
 126      97D483DA 
 127 02b4 6E600F62 		.ascii	"n`\017b\233b\2619\240\335\302M\207\266\211nA\333\303"
 127      9B62B139 
 127      A0DDC24D 
 127      87B6896E 
 127      41DBC3
 128 02c7 50AD9943 		.ascii	"P\255\231C\270\323\254\363z\362b:\210\017\203\270\334"
 128      B8D3ACF3 
 128      7AF2623A 
 128      880F83B8 
 128      DC
 129 02d8 B6D165C6 		.ascii	"\266\321e\306!\262\340\322g\342\370\331\220\355\325"
 129      21B2E0D2 
 129      67E2F8D9 
 129      90EDD5
 130 02e7 E836D0A9 		.ascii	"\3506\320\251\305\276\023\350\264\253\337\322\031pr"
 130      C5BE13E8 
 130      B4ABDFD2 
 130      197072
 131 02f6 E2B1E3BA 		.ascii	"\342\261\343\272\234q\301\037\034\367\337\263\370\246"
 131      9C71C11F 
 131      1CF7DFB3 
 131      F8A6
ARM GAS  /tmp/cckQgGRQ.s 			page 10


 132 0304 F8F1321D 		.ascii	"\370\3612\0356\320\314\375hdbd\220\035\263\023\012\202"
 132      36D0CCFD 
 132      68646264 
 132      901DB313 
 132      0A82
 133 0316 9024F753 		.ascii	"\220$\367S\251TXJ\337\210\257\326\342\020h\220\030\243"
 133      A954584A 
 133      DF88AFD6 
 133      E2106890 
 133      18A3
 134 0328 F53021F9 		.ascii	"\3650!\371\022Y\220\242z\307\203x\377.\333_x\003{\025"
 134      125990A2 
 134      7AC78378 
 134      FF2EDB5F 
 134      78037B15 
 135 033c DA7B0A9B 		.ascii	"\332{\012\233\034\345\276w\330\333`\353o\226\031KlW"
 135      1CE5BE77 
 135      D8DB60EB 
 135      6F96194B 
 135      6C57
 136 034e 7207C2E7 		.ascii	"r\007\302\347\231)\015\231B\265 \312\003M\\\252\200"
 136      99290D99 
 136      42B520CA 
 136      034D5CAA 
 136      80
 137 035f B3280FAA 		.ascii	"\263(\017\252\020\367v\271t\210\010\252\302\257\026"
 137      10F776B9 
 137      748808AA 
 137      C2AF16
 138 036e 9A610AFB 		.ascii	"\232a\012\373\010\207\015Q\036\312\036\314\021\015\020"
 138      08870D51 
 138      1ECA1ECC 
 138      110D10
 139 037d 4AB8F402 		.ascii	"J\270\364\002\016\322\002\"\262\006\002\012cjT\255\257"
 139      0ED20222 
 139      B206020A 
 139      636A54AD 
 139      AF
 140 038e 7E5A8BA8 		.ascii	"~Z\213\250\272\031\\+T\374\315\033m\263O\311\254\210"
 140      BA195C2B 
 140      54FCCD1B 
 140      6DB34FC9 
 140      AC88
 141 03a0 60DA1AFF 		.ascii	"`\332\032\377tO\275N\252\004\270\324\212\036\302\260"
 141      744FBD4E 
 141      AA04B8D4 
 141      8A1EC2B0 
 142 03b0 63C046A4 		.ascii	"c\300F\244\024\204\262 6\253\214\270\"\203;\002\004"
 142      1484B220 
 142      36AB8CB8 
 142      22833B02 
 142      04
 143 03c1 9443CA2E 		.ascii	"\224C\312.E\307A[Z\256\015\322\265{\204l\312U\265\377"
 143      45C7415B 
 143      5AAE0DD2 
 143      B57B846C 
 143      CA55B5FF 
ARM GAS  /tmp/cckQgGRQ.s 			page 11


 144 03d5 B1F92341 		.ascii	"\261\371#AD\271\244k\3321\220\256i\005h\014*\346\307"
 144      44B9A46B 
 144      DA3190AE 
 144      6905680C 
 144      2AE6C7
 145 03e8 B4A80AD2 		.ascii	"\264\250\012\322\353\273\364[Rh\315QTF\223hX\342\033"
 145      EBBBF45B 
 145      5268CD51 
 145      54469368 
 145      58E21B
 146 03fb 52EB3414 		.ascii	"R\3534\024\276B}\015\005\362\240\025\215\006\027\224"
 146      BE427D0D 
 146      05F2A015 
 146      8D061794 
 147 040b 0897922D 		.ascii	"\010\227\222-\266d\014\010\035p\305\323;\244\022\002"
 147      B6640C08 
 147      1D70C5D3 
 147      3BA41202 
 148 041b 801CB7CE 		.ascii	"\200\034\267\316\251\353\355\265\016v\205sgz\330\201"
 148      A9EBEDB5 
 148      0E768573 
 148      677AD881 
 149 042b 7106ADEB 		.ascii	"q\006\255\353\246\235\356\243\2522\016\360\253h\255"
 149      A69DEEA3 
 149      AA320EF0 
 149      AB68AD
 150 043a 1060B3CD 		.ascii	"\020`\263\315\032K\212U\031\212\217Q\314A\331\217\003"
 150      1A4B8A55 
 150      198A8F51 
 150      CC41D98F 
 150      03
 151 044b 2EE6C810 		.ascii	".\346\310\020F\372\361\266\014\225\361\344n\034q\367"
 151      46FAF1B6 
 151      0C95F1E4 
 151      6E1C71F7 
 152 045b D9DC0920 		.ascii	"\331\334\011  \303!\2750\021\204t(\334h\337\340\340"
 152      20C321BD 
 152      30118474 
 152      28DC68DF 
 152      E0E0
 153 046d 859C2BF3 		.ascii	"\205\234+\363\262\0379\036N\327\222\237o\013j\245\242"
 153      B21F391E 
 153      4ED7929F 
 153      6F0B6AA5 
 153      A2
 154 047e 8CE5FB58 		.ascii	"\214\345\373X\277\354\315}\033}\352\320T\307e\367\271"
 154      BFECCD7D 
 154      1B7DEAD0 
 154      54C765F7 
 154      B9
 155 048f F4ED06D7 		.ascii	"\364\355\006\327\351\222\341\316J<-\345\016\204\301"
 155      E992E1CE 
 155      4A3C2DE5 
 155      0E84C1
 156 049e 49EA8489 		.ascii	"I\352\204\211\224u\177<\265\247\246\221')\376$\205c"
 156      94757F3C 
 156      B5A7A691 
ARM GAS  /tmp/cckQgGRQ.s 			page 12


 156      2729FE24 
 156      8563
 157 04b0 47BFA159 		.ascii	"G\277\241Y\223u_o\266YSHq\262\015\207\344N\005A&\034"
 157      93755F6F 
 157      B6595348 
 157      71B20D87 
 157      E44E0541 
 158 04c6 52320D84 		.ascii	"R2\015\204\304\3529\354\227<\265\237\353\376W\327\201"
 158      C4EA39EC 
 158      973CB59F 
 158      EBFE57D7 
 158      81
 159 04d7 236A976B 		.ascii	"#j\227k\311\336m!\355;D\353H#\346gO\030\264O\276\330"
 159      C9DE6D21 
 159      ED3B44EB 
 159      4823E667 
 159      4F18B44F 
 160 04ed DB605F33 		.ascii	"\333`_3\207\350\332\221&\344\250\006\0143;\366[\362"
 160      87E8DA91 
 160      26E4A806 
 160      0C333BF6 
 160      5BF2
 161 04ff 371D8483 		.ascii	"7\035\204\203:6\376\252\026\325\322\236\232\256\366"
 161      3A36FEAA 
 161      16D5D29E 
 161      9AAEF6
 162 050e D4B7B4A7 		.ascii	"\324\267\264\247\016\021\222\265\022\240\370\261\275"
 162      0E1192B5 
 162      12A0F8B1 
 162      BD
 163 051b 8BB4F20C 		.ascii	"\213\264\362\014]qJ\346\246\320\374:\020\321I\353\330"
 163      5D714AE6 
 163      A6D0FC3A 
 163      10D149EB 
 163      D8
 164 052c FD3DB7FD 		.ascii	"\375=\267\375R\254`yr(,\265\271`\251\223[\272{ i/c&"
 164      52AC6079 
 164      72282CB5 
 164      B960A993 
 164      5BBA7B20 
 165 0544 D91BF980 		.ascii	"\331\033\371\200\253\033\005\023\2710$\221L\027Y\023"
 165      AB1B0513 
 165      B9302491 
 165      4C175913 
 166 0554 31552233 		.ascii	"1U\"3\245\227K\003w\304p~r\244Bx\312j\006t\377\037\337"
 166      A5974B03 
 166      77C4707E 
 166      72A44278 
 166      CA6A0674 
 167 056b E896E5D3 		.ascii	"\350\226\345\323gs\205V\011\242\012]\362;\302\216\353"
 167      67738556 
 167      09A20A5D 
 167      F23BC28E 
 167      EB
 168 057c 6C94B329 		.ascii	"l\224\263)Bl4\036\"}o\335M\332{t\326\303#t4\347\312"
 168      426C341E 
 168      227D6FDD 
ARM GAS  /tmp/cckQgGRQ.s 			page 13


 168      4DDA7B74 
 168      D6C32374 
 169 0593 8C5C2B9B 		.ascii	"\214\\+\233\245S\012\2037\331\250\375\373\352\355F="
 169      A5530A83 
 169      37D9A8FD 
 169      FBEAED46 
 169      3D
 170 05a4 A21AF5A8 		.ascii	"\242\032\365\250n\324\331Y\032\265\217\362\237\003\302"
 170      6ED4D959 
 170      1AB58FF2 
 170      9F03C2
 171 05b3 218D2A45 		.ascii	"!\215*E\365t\220\314Q\215\332G\250\035!\324\352e\247"
 171      F57490CC 
 171      518DDA47 
 171      A81D21D4 
 171      EA65A7
 172 05c6 DCFF3369 		.ascii	"\334\3773i\373ixx\034\372r\342P\237\013\207\006u[\335"
 172      FB697878 
 172      1CFA72E2 
 172      509F0B87 
 172      06755BDD 
 173 05da DDF7944E 		.ascii	"\335\367\224Nd\256J\217\016\032\311\232Gg\370\\\373"
 173      64AE4A8F 
 173      0E1AC99A 
 173      4767F85C 
 173      FB
 174 05eb 3496DCF9 		.ascii	"4\226\334\371tf\317\263\217\037\311]\000\202\314\343"
 174      7466CFB3 
 174      8F1FC95D 
 174      0082CCE3 
 175 05fb 474A1682 		.ascii	"GJ\026\2020\275\317\372r\356\263\254I\353}\266Pz\351"
 175      30BDCFFA 
 175      72EEB3AC 
 175      49EB7DB6 
 175      507AE9
 176 060e BE77470C 		.ascii	"\276wG\014\267\370\234MP\257\233\240\000\357\000\371"
 176      B7F89C4D 
 176      50AF9BA0 
 176      00EF00F9 
 177 061e A2D37D6D 		.ascii	"\242\323}mR\214\263\227\036\364\212A\215\026\326\271"
 177      528CB397 
 177      1EF48A41 
 177      8D16D6B9 
 178 062e 16D8314C 		.ascii	"\026\3301Lg\014K}]*\206_\372\271\237\305\2177\037?n"
 178      670C4B7D 
 178      5D2A865F 
 178      FAB99FC5 
 178      8F371F3F 
 179 0643 E587E3EB 		.ascii	"\345\207\343\353\255\263k\300\235\355\001'\224\222~"
 179      ADB36BC0 
 179      9DED0127 
 179      94927E
 180 0652 C041135E 		.ascii	"\300A\023^\033\2437\330\"\345Y\310\027\354ef\302\256"
 180      1BA337D8 
 180      22E559C8 
 180      17EC6566 
 180      C2AE
ARM GAS  /tmp/cckQgGRQ.s 			page 14


 181 0664 0D5CB9D7 		.ascii	"\015\\\271\327\012\335\025\332s\347\005\370\204\011"
 181      0ADD15DA 
 181      73E705F8 
 181      8409
 182 0672 854276EF 		.ascii	"\205Bv\35743P\243\030x\356\337\333\200zHR\312\340\317"
 182      343350A3 
 182      1878EEDF 
 182      DB807A48 
 182      52CAE0CF 
 183 0686 3BD700C9 		.ascii	";\327\000\311\267\234\241\336/'z\271}kfm\341\034%\240"
 183      B79CA1DE 
 183      2F277AB9 
 183      7D6B666D 
 183      E11C25A0 
 184 069a BBF9567B 		.ascii	"\273\371V{\235\355 \255\252r5\232yq!\274\261#\256+\277"
 184      9DED20AD 
 184      AA72359A 
 184      797121BC 
 184      B123AE2B 
 185 06af 8CC05422 		.ascii	"\214\300T\"\354\244a\000\022W\267D\363A\002\022|\377"
 185      ECA46100 
 185      1257B744 
 185      F3410212 
 185      7CFF
 186 06c1 573BC1C5 		.ascii	"W;\301\305\224Za\366\247\253\307\231\222\375\022X\214"
 186      945A61F6 
 186      A7ABC799 
 186      92FD1258 
 186      8C
 187 06d2 2A85CCF1 		.ascii	"*\205\314\361[\016\257\236O\014yf\234\370`\266V\\\242"
 187      5B0EAF9E 
 187      4F0C7966 
 187      9CF860B6 
 187      565CA2
 188 06e5 4E0873C8 		.ascii	"N\010s\310\343\353Y\020\332\217\372\363\354\265D\271"
 188      E3EB5910 
 188      DA8FFAF3 
 188      ECB544B9 
 189 06f5 962C05FF 		.ascii	"\226,\005\377Lj\010\365\034\216\342#y\310cq\251L+\371"
 189      4C6A08F5 
 189      1C8EE223 
 189      79C86371 
 189      A94C2BF9 
 190 0709 F99B01DB 		.ascii	"\371\233\001\3336\003+L\254\230\3557\350\230~\247g\320"
 190      36032B4C 
 190      AC98ED37 
 190      E8987EA7 
 190      67D0
 191 071b 13FA69B6 		.ascii	"\023\372i\266\020t\225\215z\246\332\207\033\266\347"
 191      1074958D 
 191      7AA6DA87 
 191      1BB6E7
 192 072a 5B077E18 		.ascii	"[\007~\030\266=e@\375\306\315\336\242\350\253;\213\257"
 192      B63D6540 
 192      FDC6CDDE 
 192      A2E8AB3B 
 192      8BAF
ARM GAS  /tmp/cckQgGRQ.s 			page 15


 193 073c CC2DF39F 		.ascii	"\314-\363\237\276\034\333F.\251\004\377l\365\262v\017"
 193      BE1CDB46 
 193      2EA904FF 
 193      6CF5B276 
 193      0F
 194 074d 722DD914 		.ascii	"r-\331\024\0264u\301\016h\317\245\305\235;\251\206 "
 194      163475C1 
 194      0E68CFA5 
 194      C59D3BA9 
 194      8620
 195 075f 28BAB233 		.ascii	"(\272\2623\250\206\3707c\031\244\263\333\302v\250\254"
 195      A886F837 
 195      6319A4B3 
 195      DBC276A8 
 195      AC
 196 0770 AEAE59B7 		.ascii	"\256\256Y\267\276\246i]K\313\272\227`\2646\272\262f"
 196      BEA6695D 
 196      4BCBBA97 
 196      60B436BA 
 196      B266
 197 0782 FD2B4D35 		.ascii	"\375+M5Mk\326\254jl\255nb\346\232\326\352Z\253\021\350"
 197      4D6BD6AC 
 197      6A6CAD6E 
 197      62E69AD6 
 197      EA5AAB11 
 198 0797 0CA275E6 		.ascii	"\014\242u\346\352\326\352\307\305\313\255\006\314\254"
 198      EAD6EAC7 
 198      C5CBAD06 
 198      CCAC
 199 07a5 D6C6E655 		.ascii	"\326\306\346U\353\305\352V\261\246\325\265\222&\377"
 199      EBC5EA56 
 199      B1A6D5B5 
 199      9226FF
 200 07b4 023F6221 		.ascii	"\002?b!\211"
 200      89
 201              		.text
 202              		.section	.gnu.lto_chHeapFree.7674aba4c071e775,"",%progbits
 203 0000 789C9D55 		.ascii	"x\234\235U]h\034U\024>\347\316\314\316\257\351B\233"
 203      5D681C55 
 203      143EE7CE 
 203      CCCEAFE9 
 203      429B
 204 0012 261B42B3 		.ascii	"&\033B\263\371!eS\311\"R|\022\237}o@\037\223U\222\245"
 204      F9216553 
 204      C922527C 
 204      129F7D6F 
 204      401F9355 
 205 0028 C6A4F6CD 		.ascii	"\306\244\366\315<t\262\033!X\204`P\243QI\220V\360E\024"
 205      3C74B21B 
 205      21588460 
 205      50A35149 
 205      9056F045 
 206 003d 690B8176 		.ascii	"i\013\201v\023|h\202m\265yIS\3054\242\305W\025\015K"
 206      137C6882 
 206      6DB57949 
 206      53C534A2 
 206      C557150D 
ARM GAS  /tmp/cckQgGRQ.s 			page 16


 207 0052 713CF767 		.ascii	"q<\367gfg\327i\272\311\300\234\373s\356\375\316\271"
 207      6667D769 
 207      BAC9C09C 
 207      FB73EEFD 
 207      CEB9
 208 0064 DFFDEEBD 		.ascii	"\337\375\356\275\014\0304~K\364O9\000\203T\342S\200"
 208      0C18347E 
 208      4BF44F39 
 208      008354E2 
 208      5380
 209 0076 6CEE36C0 		.ascii	"l\3566\300\264\305P\223\025\215\031?\272\340;\3727k"
 209      B4C55093 
 209      158D193F 
 209      BAE03BFA 
 209      376B
 210 0088 00BEA733 		.ascii	"\000\276\2473c\366$5]n=\203\231k\032\265R\2677\2703"
 210      63F62435 
 210      5D6E3D83 
 210      996B1AB5 
 210      52B737B8 
 211 009d A59AAE6C 		.ascii	"\245\232\256l\232\314\022Sm9\325B[B\332\314\021\375"
 211      9ACC1253 
 211      6D39D542 
 211      5B42DACC 
 211      11FD
 212 00af 9EEC77D0 		.ascii	"\236\354w\320\223\375\256\214\271jy\210\274\002\010"
 212      93FDAE8C 
 212      B96A7988 
 212      BC0208
 213 00be 1798A61B 		.ascii	"\027\230\246\033)\323\262\035\327\303\013/#\317X\353"
 213      29D3B21D 
 213      D7C30B2F 
 213      23CF58EB 
 214 00ce 8165DF7F 		.ascii	"\201e\337\177w\347\255\257\357\262\017\375\312\314\222"
 214      77E7ADAF 
 214      EFB20FFD 
 214      CACC92
 215 00dd FF280810 		.ascii	"\377(\010\020\213H\253\353E( \274D\015\314\212\202\351"
 215      8B48ABEB 
 215      452820BC 
 215      440DCC8A 
 215      82E9
 216 00ef F5CB9573 		.ascii	"\365\313\225s\375\237_\271\351\317T\202\340\0051\253"
 216      FD9F5FB9 
 216      E9CF5482 
 216      E00531AB 
 217 00ff BFB95995 		.ascii	"\277\271Y\225\371\371\3672\376Ri\316\377\227\002\026"
 217      F9F9F732 
 217      FE5269CE 
 217      FF970216 
 218 010f 5163907B 		.ascii	"Qc\220{\322\314/Ye'\010\036}\360\373\203O\261u\000a"
 218      D2CC2F59 
 218      6527081E 
 218      7DF0FB83 
 218      4FB17500 
 219 0124 1897B107 		.ascii	"\030\227\261\007t\034G0\250\361\0315L*/Qi)\247\015E"
 219      741C4730 
ARM GAS  /tmp/cckQgGRQ.s 			page 17


 219      A8F11935 
 219      4C2A2F51 
 219      6929A70D 
 220 0139 D41D6E5C 		.ascii	"\324\035n\\n<nZ\310\030i2p\2247\217\221a\255\334\034"
 220      6E3C6E5A 
 220      C8186932 
 220      7094378F 
 220      9161ADDC 
 221 014e E77D6DDC 		.ascii	"\347}m\334\264sG\206\233\016n:y\337\011^\353\342\343"
 221      B4734786 
 221      9B0E6E3A 
 221      79DF095E 
 221      EBE2E3
 222 0161 B2DC74F3 		.ascii	"\262\334t\363\276\036\336\327\313M\0377\375\274/\247"
 222      BE1EDED7 
 222      CB4D1F37 
 222      FDBC2FA7 
 223 0171 42D367C0 		.ascii	"B\323g\300\214\357\317ee[&(\323\033Gb\277 v\340\014"
 223      8CEFCF65 
 223      655B2628 
 223      D31B4762 
 223      BF2076E0 
 224 0186 D9AA0643 		.ascii	"\331\252\006C\310\250\320nA\371by\345rj\030?G\003F\321"
 224      C8A8D06E 
 224      41F96279 
 224      E5726A18 
 224      3F470346 
 225 019b 18455D50 		.ascii	"\030E]P\261\027\004\301\021\032\276\016L\372$\034\215"
 225      B11704C1 
 225      111ABE0E 
 225      4CFA241C 
 225      8D
 226 01ac 00B805A5 		.ascii	"\000\270\005\245\355\205+\033\030N2O\301\027>}\317\021"
 226      ED852B1B 
 226      184E324F 
 226      C1173E7D 
 226      CF11
 227 01be ADA760A0 		.ascii	"\255\247`\240\210\251E\370\210@L\005\006!\030\214\240"
 227      88A945F8 
 227      88404C05 
 227      0621188C 
 227      A0
 228 01cf 64760455 		.ascii	"dv\004U\205\360K\225L\030\341\222\210`\212\010\325\362"
 228      85F04B95 
 228      4C18E192 
 228      88608A08 
 228      D5F2
 229 01e1 C35A5AD6 		.ascii	"\303ZZ\326\024Ty\204g\010L\005{\236\360e\030\213\246"
 229      14547984 
 229      67084C05 
 229      7B9EF065 
 229      188BA6
 230 01f4 F0309A82 		.ascii	"\3600\232\202\216\235\023\216\236\012\321\227\005\272"
 230      8E9D138E 
 230      9E0AD197 
 230      05BA
 231 0202 A5F2BFBA 		.ascii	"\245\362\277\272\301Bt[$m7\233\272\246\300\211\273Y"
ARM GAS  /tmp/cckQgGRQ.s 			page 18


 231      C142745B 
 231      246D379B 
 231      BAA6C089 
 231      BB59
 232 0214 2DC47008 		.ascii	"-\304p\010\206O\260M\351Y\211<.9\205'\204\"\357;\345"
 232      864FB04D 
 232      E959893C 
 232      2E398527 
 232      8422EF3B 
 233 0229 7F2E9F0D 		.ascii	"\177.\237\015\007x4F\014\260\204\263\264\276p\265\252"
 233      07783446 
 233      0CB084B3 
 233      B4BE70B5 
 233      AA
 234 023a B8556B35 		.ascii	"\270Uk5\303\354\234\307g\247\253\354\014Q\022\252bq"
 234      C3EC9CC7 
 234      67A7ABEC 
 234      0C5112AA 
 234      6271
 235 024c F96418A7 		.ascii	"\371d\030\247e\012\336$%\012 7\231\272T\215\272;\240"
 235      650ADE24 
 235      250A2037 
 235      99BA548D 
 235      BA3BA0
 236 025f CB8974C5 		.ascii	"\313\211t\305\020\371\263~\272\210^A\355\033\201\025"
 236      10F9B37E 
 236      BA885E41 
 236      ED1B8115 
 237 026f E9C211DF 		.ascii	"\351\302\021\337\020\315\246\023\257\021\327\264\200"
 237      10CDA613 
 237      AF11D7B4 
 237      80
 238 027c 90661A77 		.ascii	"\220f\032w\023\276}\270z\177\336\013\343\243 _~\367"
 238      13BE7DB8 
 238      7A7FDE0B 
 238      E3A3205F 
 238      7EF7
 239 028e 805A39F7 		.ascii	"\200Z9\367\257\257x'\373x1\303qt\240KE\243i\277\255"
 239      AFAF7827 
 239      FB7831C3 
 239      7174A04B 
 239      45A369BF 
 240 02a3 DEDFEC8B 		.ascii	"\336\337\354\213I\022ki\015Q\337\337Ok|\013\267V\266"
 240      49126B69 
 240      0D51DFDF 
 240      4F6B7C0B 
 240      B756B6
 241 02b6 2309A6C5 		.ascii	"#\011\246\305\252\240\201$\024$A=A\246B\222\351m\346"
 241      AAA08124 
 241      1424413D 
 241      41A64292 
 241      E96DE6
 242 02c9 2388DAE0 		.ascii	"#\210\332\340(V\012\376\034\340\011\375\272\372\323"
 242      28560AFE 
 242      1CE009FD 
 242      BAFAD3
 243 02d8 66572CA1 		.ascii	"fW,\241t|\220)\017\022\355\333\365\273\254n\337\216"
ARM GAS  /tmp/cckQgGRQ.s 			page 19


 243      747C9029 
 243      0F12EDDB 
 243      F5BBAC6E 
 243      DF8E
 244 02ea FC3FA5C7 		.ascii	"\374?\245\307\356\233\251\210MK\015\\k\002k\237\345"
 244      EE9BA988 
 244      4D4B0D5C 
 244      6B026B9F 
 244      E5
 245 02fb 45E774EF 		.ascii	"E\347t\357z\215\244\2431\2357\255\244\006\235\037#\030"
 245      7A8DA4A3 
 245      319D37AD 
 245      A4069D1F 
 245      2318
 246 030d 7141A0F4 		.ascii	"qA\240\364\274\035yZ\311)<R\306\345\213\221\347\270"
 246      BC1D795A 
 246      C9293C52 
 246      C6E58B91 
 246      E7B8
 247 031f E0AC5526 		.ascii	"\340\254U&\364}K\330\335\226\270gO H\356\333\364\351"
 247      F47D4BD8 
 247      DD96B867 
 247      4F2048EE 
 247      DBF4E9
 248 0332 18765B7C 		.ascii	"\030v[|3,\370\016\204:\256\335X\213\022hO\\x[\022}\361"
 248      332CF80E 
 248      843AAEDD 
 248      588B1268 
 248      4F5C785B 
 249 0349 4597AF44 		.ascii	"E\227\257D\324eh\331\204\323@F\0079\304\311\225d\224"
 249      D46568D9 
 249      84D34046 
 249      0739C4C9 
 249      956494
 250 035c 5E8CEF58 		.ascii	"^\214\357XZDT\265\003\034\334\016\311\323\326\215?\242"
 250      5A4454B5 
 250      031CDC0E 
 250      C9D3D68D 
 250      3FA2
 251 036e 0BAA3391 		.ascii	"\013\2523\221\251\304\374\315(\377\322\372\234[\247"
 251      A9C4FCCD 
 251      28FFD2FA 
 251      9C5BA7
 252 037d A0670FA1 		.ascii	"\240g\017\241\306\316\220W[\211|{aw7b\345D\"\257\211"
 252      C6CE9057 
 252      5B897C7B 
 252      61773762 
 252      E54422AF 
 253 0392 B24C1453 		.ascii	"\262L\024S\027A$\213)K\316d1u\213\213$\333\250\203\356"
 253      1741248B 
 253      294BCE64 
 253      31758B8B 
 253      24DBA883 
 254 03a7 D12884C8 		.ascii	"\321(\204\310\327\011u\260\265[\323A\317\341\017@L\013"
 254      D70975B0 
 254      B55BD341 
 254      CFE10F40 
ARM GAS  /tmp/cckQgGRQ.s 			page 20


 254      4C0B
 255 03b9 BD94F528 		.ascii	"\275\224\365(\177p\353\326\322G\216\203ja\037\246\010"
 255      7F70EBD6 
 255      D2478E83 
 255      6A611FA6 
 255      08
 256 03ca 501DE0DD 		.ascii	"P\035\340\335\232\016\372\017wb\232\323\302\276\267"
 256      9A0EFA0F 
 256      77629AD3 
 256      C2BEB7
 257 03d9 497FC8AB 		.ascii	"I\177\310\253\013\357oHb\367~Y\213(\311)\330\323\007"
 257      0BEF6F48 
 257      62F77E59 
 257      8B28C929 
 257      D8D307
 258 03ec BC83F9FB 		.ascii	"\274\203\371\373\334^\377>\347\302H\036W\334\035\230"
 258      DC5EFF3E 
 258      E7C2481E 
 258      57DC1D98 
 259 03fc D9593C9B 		.ascii	"\331Y<\233\364\0201\225\231|\210~\200\351\245O\334p"
 259      F4103195 
 259      997C887E 
 259      80E9A54F 
 259      DC70
 260 040e 9CFCCED0 		.ascii	"\234\374\316\320\273Q\325\370\270\354\340`~\342|\276"
 260      BB51D5F8 
 260      B8ECE060 
 260      7EE27CBE 
 261 041e 30313E3E 		.ascii	"01>>\361:\325^+\216\344\317\277Q\310\027\306\306^\035"
 261      F13AD55E 
 261      2B8EE4CF 
 261      BF51C817 
 261      C6C65E1D 
 262 0432 9E1C2C00 		.ascii	"\236\034,\000;7\311\306&\015\336\232\374\017\224(N<"
 262      3B37C9C6 
 262      260DDE9A 
 262      FC0F9428 
 262      4E3C
 263              		.text
 264              		.section	.gnu.lto_chHeapStatus.7674aba4c071e775,"",%progbits
 265 0000 789C8D54 		.ascii	"x\234\215T\335kTG\024?g\346~\355\375\330M\224\004\002"
 265      DD6B5447 
 265      143F67E6 
 265      7EEDFDD8 
 265      4D940402 
 266 0014 3E0485B6 		.ascii	">\004\205\266T\310\"\005)H\361\2370\240\217\353V\326"
 266      54C82205 
 266      2948F19F 
 266      30A08FEB 
 266      56D6
 267 0026 0BAE894D 		.ascii	"\013\256\211M_\252\017N\262+\006\335Bh\037R?\036\"\253"
 267      5FAA0F4E 
 267      B22B06DD 
 267      42681F52 
 267      3F1E22AB 
 268 003a 04DB624A 		.ascii	"\004\333bJ\015(\304\320M)6b[\251P\332\215>,>h\301PE"
 268      0D28C4D0 
ARM GAS  /tmp/cckQgGRQ.s 			page 21


 268      4D293662 
 268      5BA950DA 
 268      8D3E2C3E 
 269 0052 50416CB7 		.ascii	"PAl\267gf\356\354GX\320\013\367\236\271\347\374~\347"
 269      6766EEEC 
 269      4758D00B 
 269      F79EB9E7 
 269      FC7EE7
 270 0065 63CE9961 		.ascii	"c\316\231a\300`\343s\221^\333\005\330E\022\323\200l"
 270      C060E373 
 270      915EDB05 
 270      D84512D3 
 270      806C
 271 0077 E6378049 		.ascii	"\3467\200I\2171~?\000\341[\213?\002\210\220\243\245"
 271      8F317E3F 
 271      00E15B8B 
 271      3F028890 
 271      A3A5
 272 0089 F5167A7A 		.ascii	"\365\026zza3g\372]\002\270\362\033:\350j\265\253\355"
 272      613367FA 
 272      5D02B8F2 
 272      1B3AE86A 
 272      B5ABED
 273 009c 2B9EC7EC 		.ascii	"+\236\307\354\312\317D\365Se\227\000)\346+O~ \335\206"
 273      CACF44F5 
 273      53659700 
 273      29E62B4F 
 273      7E20DD86 
 274 00b0 3E061A1F 		.ascii	">\006\032\037\260\360\354M\251\217^HX\210\221\326G\210"
 274      B0F0EC4D 
 274      A98F5E48 
 274      588891D6 
 274      4788
 275 00c2 720108C7 		.ascii	"r\001\010\307\031\267l\307\365R~\020Fx|\037\312\254"
 275      19B76CC7 
 275      F5527E10 
 275      46787C1F 
 275      CAAC
 276 00d4 ADAD7041 		.ascii	"\255\255pA\210/\032'\236\335egD\255<'^7\233\2101R\205"
 276      882F1A27 
 276      9EDD6567 
 276      44AD3C27 
 276      5E379B88 
 277 00eb DB10F208 		.ascii	"\333\020\362\010{\351\007\207\225`Vw\311\232[\373r\366"
 277      7BE90787 
 277      95605677 
 277      C99A5BFB 
 277      72F6
 278 00fd F3213137 		.ascii	"\363!175#\376#j\214\234\301;o\307\024K\037\257\212r"
 278      3523FE23 
 278      6A8C9CC1 
 278      3B6FC714 
 278      4B1FAF8A 
 279 0112 ADD9DCAD 		.ascii	"\255\331\334\255X\357\275%\353^\027+\373&\326\002\253"
 279      58EFBD25 
 279      EB5E172B 
 279      FB26D602 
ARM GAS  /tmp/cckQgGRQ.s 			page 22


 279      AB
 280 0123 359ACDD7 		.ascii	"5\232\315\327\327\236W\356\343\337l\010\241(\213\313"
 280      D79E57EE 
 280      E3DF6C08 
 280      A1288BCB 
 281 0133 E105DC0A 		.ascii	"\341\005\334\012\234d\225\244E\362\022I\233\344<I'\221"
 281      9C6495A4 
 281      45F21249 
 281      9BE43C49 
 281      2791
 282 0145 2924B00F 		.ascii	")$\260\0171ZQ\302H\323\017d\022s_B\357O\350\233\010"
 282      315A51C2 
 282      48D30F64 
 282      12735F42 
 282      EF4FE89B 
 283 015a 8E9B0961 		.ascii	"\216\233\011a\017\320\212\015\312\225\034\013(\0131"
 283      0FD08A0D 
 283      CA951C0B 
 283      280B31
 284 0169 33AC1D68 		.ascii	"3\254\035h\206\306k/ \013\240g\017}\251\307\243\310"
 284      86C66B2F 
 284      200BA067 
 284      0F7DA9C7 
 284      A3C8
 285 017b 48F055F8 		.ascii	"H\360U\370\351\321\312\354,\317\341erR\300\224\254\315"
 285      E9D1CAEC 
 285      2CCFE165 
 285      7252C094 
 285      ACCD
 286 018d E92C6C14 		.ascii	"\351,l\0249\234D~\013\246\032\277<v4\216\322=\006\257"
 286      399C447E 
 286      0BA61ABF 
 286      3C76348E 
 286      D23D06AF 
 287 01a1 C4B410BB 		.ascii	"\304\264\020\273\010]$D\033mI\267\204\366@\302\012H"
 287      085D2444 
 287      1B6D49B7 
 287      84F640C2 
 287      0A48
 288 01b3 E17E85A9 		.ascii	"\341~\205\251W\245\037\256\264\202\370\307\340(\025"
 288      57A51FAE 
 288      B482F8C7 
 288      E02815
 289 01c2 BB1DDE8F 		.ascii	"\273\035\336\217\321=\007g)\244G\300v\350\375\330\221"
 289      D13D0767 
 289      29A447C0 
 289      76E8FDD8 
 289      91
 290 01d3 C01DB034 		.ascii	"\300\035\2604\021\222\240}1\246\362\250!\344,F\037@"
 290      1192A07D 
 290      31A6F2A8 
 290      21E42C46 
 290      1F40
 291 01e5 A6F7D7ED 		.ascii	"\246\367\327\355$=]\266t'I\3226W\017\214i~\203\251\261"
 291      243D5DB6 
 291      742749D2 
 291      36570F8C 
ARM GAS  /tmp/cckQgGRQ.s 			page 23


 291      697E83A9 
 292 01fa F60D1A5B 		.ascii	"\366\015\032[\265\323\246\262~r\3051YG2:=;\2505\333"
 292      B5D3A6B2 
 292      7E72C531 
 292      5947323A 
 292      3D3BA835 
 293 020f E16BB9FC 		.ascii	"\341k\271\374(\306\240w\376\035\005P\214Z+1\331\033"
 293      28C6A077 
 293      FE1D0550 
 293      8C5A2B31 
 293      D91B
 294 0221 7225F575 		.ascii	"r%\365u@\332o\206\272\250\332\231?\323\255\275\344\327"
 294      40DA6F86 
 294      BAA8DA99 
 294      3FD3ADBD 
 294      E4D7
 295 0233 B9DC4A1B 		.ascii	"\271\334J\033\350Lr\312c\355\372\313\007\230\3647\031"
 295      E84C72CA 
 295      63EDFACB 
 295      0798F437 
 295      19
 296 0244 CFEF8548 		.ascii	"\317\357\205H\251c\304\325|\356|\323|\002\230M\244\370"
 296      A963C4D5 
 296      7CEE7CD3 
 296      7C02984D 
 296      A4F8
 297 0256 9924FF7D 		.ascii	"\231$\377}\304U]\010u\025A\001\323\222\014I\025,\221"
 297      C4555D08 
 297      75154101 
 297      D3920C49 
 297      152C91
 298 0269 BCA3942D 		.ascii	"\274\243\224-9\274\252JYT\245d\344F\225\246K\325\005"
 298      39BCAA4A 
 298      5954A564 
 298      E44695A6 
 298      4BD505
 299 027c 471B0AD8 		.ascii	"G\033\012\330W@.\275pT\024f\010UE\350K\010\363\013["
 299      57402EBD 
 299      70541466 
 299      085545E8 
 299      4B08F30B 
 300 0291 0CA1BF80 		.ascii	"\014\241\277\200\226\362\324\001\276\244\300\375\000"
 300      96F2D401 
 300      BEA4C0FD 
 300      00
 301 029e 34A10F57 		.ascii	"4\241\017W\376\230\015\0158S\350\234\317Q\372\271\271"
 301      FE980D0D 
 301      3853E89C 
 301      CF51FAB9 
 301      B9
 302 02af 4D4DE7E3 		.ascii	"MM\347\343\333\256!\317\233\3244\304U\373\250g\322\030"
 302      DBAE21CF 
 302      9BD434C4 
 302      55FBA867 
 302      D218
 303 02c1 6DDDFC7F 		.ascii	"m\335\374\177N;\206\244[\223\326\255\261)\212M\375\311"
 303      4E3B86A4 
ARM GAS  /tmp/cckQgGRQ.s 			page 24


 303      5B93D6AD 
 303      B1298A4D 
 303      FDC9
 304 02d3 3837963F 		.ascii	"87\226?\223><\240\013n\203\017G\371P\012\235\256\325"
 304      933E3CA0 
 304      0B6E830F 
 304      47F9500A 
 304      9DAED5
 305 02e6 56E86279 		.ascii	"V\350by[\241\33535Wk_\275\274\213f\256\322\252\003\260"
 305      5BA1DD33 
 305      35576B5F 
 305      BDBC8B66 
 305      AED2AA03 
 306 02fb A10FAC57 		.ascii	"\241\017\254W\037LOW\241\274>\371A\313A\033\012:{F#"
 306      1F4C4F57 
 306      A1BC3EF9 
 306      41CB411B 
 306      0A3A7B46 
 307 0310 66DD581A 		.ascii	"f\335X\032\"\233\273\276\234\253\003O\246\332\372vi"
 307      229BBBBE 
 307      9CAB034F 
 307      A6DAFA76 
 307      69
 308 0321 805AE056 		.ascii	"\200Z\340V\226\207\352`\031ee)\246\255v\317/\037\251"
 308      9687EA60 
 308      19656529 
 308      A6AD76CF 
 308      2F1FA9
 309 0334 836394E7 		.ascii	"\203c\224\347\245\322vQ\026\237\322WEy}\345y\373\252"
 309      A5D27651 
 309      169FD257 
 309      45797DE5 
 309      79FBAA
 310 0347 D8249151 		.ascii	"\330$\221Q\367U\341\303\2776\015l\351T\351\311\302\210"
 310      F755E1C3 
 310      BF360D6C 
 310      E954E9C9 
 310      C288
 311 0359 016EA68D 		.ascii	"\001n\246\215Q\363\340\351Su\353;W\233\250\330I\232"
 311      51F3E0E9 
 311      5375EB3B 
 311      579BA8D8 
 311      499A
 312 036b C2804C5D 		.ascii	"\302\200L]\356\210b\034\006\255\310\315v\344\201\036"
 312      EE88621C 
 312      06ADC8CD 
 312      76E4811E 
 313 037b 9143B8EC 		.ascii	"\221C\270\354\350\310\325\305\017\015p\220z\324\025"
 313      E8C8D5C5 
 313      0F0D7090 
 313      7AD415
 314 038a F969AFC8 		.ascii	"\371i\257\310\003\235\221\007\215\303HF\276\003\345"
 314      039D9107 
 314      8DC34846 
 314      BE03E5
 315 0399 C6A962AF 		.ascii	"\306\251b\257\353\207u]?\277\303\344\\%2a\223\343\262"
 315      EB87755D 
ARM GAS  /tmp/cckQgGRQ.s 			page 25


 315      3FBFC3E4 
 315      5C253261 
 315      93E3B2
 316 03ac 876E81B2 		.ascii	"\207n\201\262+\201\303##\331\261\211l~\254X\034;L\253"
 316      2B81C323 
 316      23D9B189 
 316      6C7EAC58 
 316      1C3B4CAB 
 317 03c0 43F1FEEC 		.ascii	"C\361\376\354\304'\371l\376\340\301\003\271\361\221"
 317      C427F96C 
 317      FEE0C103 
 317      B9F191
 318 03cf 3CB023E3 		.ascii	"<\260#\343x\330\371t<W80\341\034R\302V\337\377\0013"
 318      78D8F974 
 318      3C573830 
 318      E11C52C2 
 318      56DFFF01 
 319 03e4 E4A88B   		.ascii	"\344\250\213"
 320              		.text
 321              		.section	.gnu.lto_.symbol_nodes.7674aba4c071e775,"",%progbits
 322 0000 789C4D8C 		.ascii	"x\234M\214;\016\302@\020C\355\235\335|N\221kq\233\001"
 322      3B0EC240 
 322      1043ED9D 
 322      DD7C4E91 
 322      6B719B01 
 323 0014 45024A44 		.ascii	"E\002JDCG\223\206\202#\360\217\240\244\246A\012J\001"
 323      43479386 
 323      8223F08F 
 323      A0A4A641 
 323      0A4A01
 324 0027 8274F488 		.ascii	"\202t\364\210\005\"\222i\236\236\307\262\201\301\031"
 324      05229269 
 324      9E9EC7B2 
 324      81C119
 325 0036 F5992515 		.ascii	"\365\231%\025\030\035\001\325\351\220nAX\025\356\250"
 325      181D01D5 
 325      E9906E41 
 325      5815EEA8 
 326 0046 FCA5DD1E 		.ascii	"\374\245\335\036\315\212j\232\216YS\245\245\033\252"
 326      CD8A6A9A 
 326      8E5953A5 
 326      A51BAA
 327 0055 6DE996EA 		.ascii	"m\351\226\352\032eN\015\352\245.y\240\206\215\355\251"
 327      1A654E0D 
 327      EAA52E79 
 327      A0868DED 
 327      A9
 328 0066 D1DF0421 		.ascii	"\321\337\004!\312\342E\221\020Y\277J\304\306(\277\214"
 328      CAE24591 
 328      1059BF4A 
 328      C4C628BF 
 328      8C
 329 0077 905D4F9D 		.ascii	"\220]O\235\017\363{1\027k\361|\334f\".F:\360\005\347"
 329      0FF37B31 
 329      176BF17C 
 329      DC66222E 
 329      463AF005 
ARM GAS  /tmp/cckQgGRQ.s 			page 26


 330 008c 1F13CFC0 		.ascii	"\037\023\317\300\373\305\017\004\021\322q\225\340\015"
 330      FBC50F04 
 330      11D27195 
 330      E00D
 331 009a A76B450E 		.ascii	"\247kE\016"
 332              		.text
 333              		.section	.gnu.lto_.refs.7674aba4c071e775,"",%progbits
 334 0000 789C6362 		.ascii	"x\234cb`b\020e\200\000V\006FF&&F \000\022,@\314\306"
 334      60621065 
 334      80005606 
 334      46462626 
 334      46200012 
 335 0018 C4C80000 		.ascii	"\304\310\000\000\004\212\000>"
 335      048A003E 
 336              		.text
 337              		.section	.gnu.lto_.decls.7674aba4c071e775,"",%progbits
 338 0000 789CBD5A 		.ascii	"x\234\275Z\017p\024\325\031\177o\367\356r\227DD\030"
 338      0F7014D5 
 338      197F6FF7 
 338      EE729744 
 338      4418
 339 0012 1DB05063 		.ascii	"\035\260Pc\253\325\361\017AD\305\316Tt\350T\234\251"
 339      ABD5F10F 
 339      4144C5CE 
 339      5474E854 
 339      9CA9
 340 0024 B553C7A9 		.ascii	"\265S\307\251\316\350\234\313e\223\234$w\327\273\015"
 340      CEE89CCB 
 340      65939C24 
 340      77D7BB0D 
 341 0034 019C299B 		.ascii	"\001\234)\233\003\022@41\010A\014\030\020\242\330F\015"
 341      03124034 
 341      3108410C 
 341      1810A2D8 
 341      460D
 342 0046 1001A5B0 		.ascii	"\020\001\245\260\012\2044A\023\202\362GD\316\012v*\305"
 342      0A843441 
 342      1382F247 
 342      44CE0A76 
 342      2AC5
 343 0058 81227FA4 		.ascii	"\201\"\177\244\350\365{ow\357v\337\355^\366\202v'o\377"
 343      E8F57B6F 
 343      77EF76DF 
 343      ED5EF682 
 343      76276FFF 
 344 006c BEEFF7BE 		.ascii	"\276\357\367\276\357\367}\357}\357\275\013\2078t\013"
 344      EFF77DEF 
 344      7DEFBD0B 
 344      8738740B 
 345 007c 8F50128E 		.ascii	"\217P\022\216\366b\204\036s#\344A\010\335\203\324\353"
 345      F662841E 
 345      7323E441 
 345      08DD83D4 
 345      EB
 346 008d 4A28ABA0 		.ascii	"J(\253\240<\206\021\202O\350q\270\316\207\002\177\250"
 346      3C861182 
 346      4FE871B8 
ARM GAS  /tmp/cckQgGRQ.s 			page 27


 346      CE87027F 
 346      A8
 347 009e 0E4E3EB8 		.ascii	"\016N>\270.\200\353sP\032\2404Ci\205\322\006e3\224\277"
 347      2E80EB73 
 347      501AA034 
 347      436985D2 
 347      06653394 
 348 00b3 41D9A6D5 		.ascii	"A\331\246\325\177\217\234\014\007\221+\204k\011\\\237"
 348      7F8F9C0C 
 348      07912B84 
 348      6B095C9F 
 349 00c3 C02AF654 		.ascii	"\300*\366T(3\241TC\011a\265\335\3558\255\307;X\325+"
 349      2833A154 
 349      430961B5 
 349      DDED38AD 
 349      C73B58D5 
 350 00d8 00D74A28 		.ascii	"\000\327J(\323\240\314\200\3624V\365\341\015\372l\266"
 350      D3A0CC80 
 350      F23456F5 
 350      E10DFA6C 
 350      B6
 351 00e9 6997E839 		.ascii	"i\227\3509\004\251\366\020\334\231\3323\253\213Q\007"
 351      04A9F610 
 351      DC99DA33 
 351      AB8B5107 
 352 00f9 D236D163 		.ascii	"\3226\321c\240\3669\015\237\264\355\202\373\245p]\002"
 352      A0F6390D 
 352      9FB4ED82 
 352      FBA5705D 
 352      02
 353 010a 6519941D 		.ascii	"e\031\224\035\214\036\204\253\341H\255\247\267?Sko\242"
 353      8C1E84AB 
 353      E148ADA7 
 353      B73F536B 
 353      6FA2
 354 011c 41BFA99A 		.ascii	"A\277\251\232>D\207'pZ\217\220\246\343,\254\352-j\376"
 354      3E448727 
 354      705A8F90 
 354      A6E32CAC 
 354      EA2D6AFE 
 355 0130 A833E8F6 		.ascii	"\2503\350\366\264\246\337\237\241\314\206R\203U\335"
 355      B4A6DF9F 
 355      A1CC8652 
 355      8355DD
 356 013f 79ADFD6D 		.ascii	"y\255\375m\232\217H[\253\340\272\032\312+P\272q&o\255"
 356      9A8F485B 
 356      ABE0BA1A 
 356      CA2B50BA 
 356      71266FAD 
 357 0153 1A4F46BE 		.ascii	"\032OF\276\036\307i=gi:=\241\331P\315\360\346E\252\036"
 357      1EC7693D 
 357      67693A3D 
 357      A1D950CD 
 357      F0E645AA 
 358 0168 359A7EB3 		.ascii	"5\232~\263\015:\326iz\362Z;\272^\204\317\327\341\332"
 358      0D3AD669 
 358      7AF25A3B 
ARM GAS  /tmp/cckQgGRQ.s 			page 28


 358      BA5E84CF 
 358      D7E1DA
 359 017b CBE8D266 		.ascii	"\313\350\322f\241\313cZ\234\350qj\307\327|Mg+\236x\015"
 359      A1CB635A 
 359      9CE8716A 
 359      C7D77C4D 
 359      672B9E78 
 360 0190 5B6F9FF8 		.ascii	"[o\237\370f=\\7@y\333\202\223\002\264@\226\343rK\255"
 360      663D5C37 
 360      4079DB82 
 360      9302B440 
 360      96E3724B 
 361 01a5 3CB96BC8 		.ascii	"<\271k\3100\364\274\014GQ\027h\364(\026\360\020\037"
 361      30F4BC0C 
 361      47511768 
 361      F42816F0 
 361      101F
 362 01b7 9231BD2B 		.ascii	"\2221\275+\364\241\241P\373z\264Z\226\033\022s\017\215"
 362      F4A1A150 
 362      FB7AB45A 
 362      961B1273 
 362      0F8D
 363 01c9 925D025E 		.ascii	"\222]\002^\205\207\201}\2430\272\011\255\005\261\006"
 363      8587817D 
 363      A330BA09 
 363      AD05B106 
 364 01d9 001A8E32 		.ascii	"\000\032\2162\217\001Q9t3F\002n\0058\001\257\3017\251"
 364      8F015139 
 364      74334602 
 364      6E053801 
 364      AFC137A9 
 365 01ed CDC8CA69 		.ascii	"\315\310\312i\241H}\213\264\367\026\307\265\250\205"
 365      A1487D8B 
 365      B4F716C7 
 365      B5A885
 366 01fc 543D73CC 		.ascii	"T=s\314'7\026Z\264t\257\336\2207\255\376\301\225\317"
 366      2737165A 
 366      B474AFDE 
 366      9037ADFE 
 366      C195CF
 367 020f 3E20CB5E 		.ascii	"> \313^\001\277N\015x\030\233\3405\220\226{\355P8\022"
 367      01BF4E0D 
 367      78189BE0 
 367      3590967B 
 367      ED503812 
 368 0223 80026E63 		.ascii	"\200\002nc\324M\034\334\325\033\3075\262\214\325o\003"
 368      D44D1CDC 
 368      D51BC735 
 368      B28CD56F 
 368      03
 369 0234 291D57F6 		.ascii	")\035W\366,X>Rny\037\017\344\203\026\227\336\374\257"
 369      2C583E52 
 369      6E791F0F 
 369      E4831697 
 369      DEFCAF
 370 0247 D3461CF8 		.ascii	"\323F\034\370\216\007v\326Q\013\352\261\245\011\366"
 370      8E0776D6 
ARM GAS  /tmp/cckQgGRQ.s 			page 29


 370      510BEAB1 
 370      A509F6
 371 0256 181CF46B 		.ascii	"\030\034\364k\"\322\221aC\335a\335\206\016G\304\237"
 371      22D29161 
 371      43DD61DD 
 371      860E47C4 
 371      9F
 372 0267 EB6EC6C4 		.ascii	"\353n\306\304\006\235\314U)\\+\352\264[\365\320*\230"
 372      069DCC55 
 372      295C2BEA 
 372      B45BF5D0 
 372      2A98
 373 0279 3939DF5D 		.ascii	"99\337]\330 \370\320\2744!\251\212E\272\270+\315B\373"
 373      D820F8D0 
 373      BC3421A9 
 373      8A45BAB8 
 373      2BCD42FB 
 374 028d 333BF6E0 		.ascii	"3;\366\340\331T\337w\261\017\332?\304P\341\034\252\251"
 374      D954DF77 
 374      B10FDA3F 
 374      C450E11C 
 374      AAA9
 375 029f 7EE77B38 		.ascii	"~\347{8N\241\266R\250\032n\260P\035\215[\356\246\001"
 375      4EA1B652 
 375      A81A6EB0 
 375      501D8D5B 
 375      EEA601
 376 02b2 F61E05DA 		.ascii	"\366\036\005\332\304\000\0118/ev\352Y\257@\320\350g"
 376      C4000938 
 376      2F6576EA 
 376      59AF40D0 
 376      E867
 377 02c4 ED8624B6 		.ascii	"\355\206$\266\313\321\217\\\235C\3339\306o&\273\014"
 377      CBD18F5C 
 377      9D43DB39 
 377      C66F26BB 
 377      0C
 378 02d5 2EB4F49B 		.ascii	".\264\364\233\2348\260\3533\356EY\231\303\353\335\307"
 378      9C38B0EB 
 378      33EE4559 
 378      99C3EBDD 
 378      C7
 379 02e6 63C71187 		.ascii	"c\307\021\207\272h[\235l\354\035\332\267[\217\275NG"
 379      BA685B9D 
 379      6CEC1DDA 
 379      B75B8FBD 
 379      4E47
 380 02f8 FDA7A3BB 		.ascii	"\375\247\243\273\311Y\377\341\364\366\257\243\355\177"
 380      C959FFE1 
 380      F4F6AFA3 
 380      ED7F
 381 0306 4BDBEF61 		.ascii	"K\333\357a\333\177\351\223O\347j\355\3678j\177\363\376"
 381      DB7FE993 
 381      4FE76AED 
 381      F7386A7F 
 381      F3FE
 382 0318 1732DB17 		.ascii	"\0272\333\027\360=Wf\213\215C\373\276<\245\265\322\013"
ARM GAS  /tmp/cckQgGRQ.s 			page 30


 382      F03D5766 
 382      8B8D43FB 
 382      BE3CA5B5 
 382      D20B
 383 032a 921C6AE3 		.ascii	"\222\034j\343\331\350\230X`\366\037<\033*p\350m^\327"
 383      D9E89858 
 383      60F61F3C 
 383      1B2A70E8 
 383      6D5ED7
 384 033d 3F8BAF90 		.ascii	"?\213\257\220\235\257\342`\350\327\213q\343l\271k\254"
 384      9DAFE260 
 384      E8D78B71 
 384      E36CB96B 
 384      AC
 385 034e AEC3E69C 		.ascii	"\256\303\346\234\021\213LLl\331\017\275V\007\333\342"
 385      118B4C4C 
 385      6CD90FBD 
 385      5607DBE2 
 386 035e 04CC3694 		.ascii	"\004\3146\224\342\312V#\330\266\234\301\314\232\365"
 386      E2CA5623 
 386      D8B69CC1 
 386      CC9AF5
 387 036d 19C1DE77 		.ascii	"\031\301\336w\0026\324^\263~#\330\316\234\301\314\232"
 387      0236D45E 
 387      B37E23D8 
 387      CE9CC1CC 
 387      9A
 388 037e 7D6404EB 		.ascii	"}d\004\353r\0026\302^\263}F\260\3359\203\2315;`\004"
 388      720236C2 
 388      5EB37D46 
 388      B0DD3983 
 388      99353B60 
 389 0393 EB730256 		.ascii	"\353s\002Vd\241Y\352\260\222#a\335\215Sq\316\241\275"
 389      64A159EA 
 389      B0922361 
 389      DD8D5371 
 389      CEA1BD
 390 03a6 BC3E26E4 		.ascii	"\274>&\344\030\323(\215\261\217\317u\0143\331\015\011"
 390      18D3288D 
 390      B18FCF75 
 390      0C33D90D 
 390      09
 391 03b7 FCC82ABC 		.ascii	"\374\310*\274H\355\027\355\324\370O\234 f\011\230\206"
 391      48ED17ED 
 391      D4F84F9C 
 391      20660998 
 391      86
 392 03c8 1ECAA40A 		.ascii	"\036\312\244\012\226\310\031\314\354\226\025\004\314"
 392      96C819CC 
 392      EC961504 
 392      CC
 393 03d5 34D66819 		.ascii	"4\326h\031)\261F\031\2614=\334yu,2\325S\3076\230\232"
 393      29B14619 
 393      B1343DDC 
 393      79752C32 
 393      D553C736 
 394 03eb 71A9CAF2 		.ascii	"q\251\312\362\210\021\326u\005\374o|=\234O`_J\013\365"
ARM GAS  /tmp/cckQgGRQ.s 			page 31


 394      8811D675 
 394      05FC6F7C 
 394      3D9C4F60 
 394      5F4A0BF5 
 395 03ff 5EBF4BD2 		.ascii	"^\277K\322\031\355\227<3\211\324\217\201D\355\"\341"
 395      19ED973C 
 395      3389D48F 
 395      8144ED22 
 395      E1
 396 0410 2B63241C 		.ascii	"+c$\034wBS\226\256\320gG\223R+\317\3035\355\243\262"
 396      77425396 
 396      AED06747 
 396      93522BCF 
 396      C335EDA3 
 397 0425 CE0D0FED 		.ascii	"\316\015\017\355\373z\2456\013\370\017M\336'y\313Y\200"
 397      FB7AA536 
 397      0BF80F4D 
 397      DE2779CB 
 397      5980
 398 0437 23B0A6FA 		.ascii	"#\260\246\372^}Jq\206\202\375w\360`-\035\375t\322}\236"
 398      5E7D4A71 
 398      8682FD77 
 398      F0602D1D 
 398      FD74D27D 
 399 044c 02CD71B1 		.ascii	"\002\315q\261I\303\307L)|\346\244\357\363\245o\222\372"
 399      49C3C74C 
 399      297CE6A4 
 399      EFF3A56F 
 399      92FA
 400 045e 6176E38F 		.ascii	"av\343\217*c\347\372SF\327\327\273ru\275\251\207\300"
 400      2A63E7FA 
 400      5346D7D7 
 400      BB7275BD 
 400      A987C0
 401 0471 24E42CD7 		.ascii	"$\344,\327$+5\274!\326\263v\014\230@\366l\375\025\235"
 401      242B35BC 
 401      21D6B376 
 401      0C9840F6 
 401      6CFD159D 
 402 0485 AA7D4779 		.ascii	"\252}Gy]\342\262t\220\003\240\246\372\266\233)\020\351"
 402      5DE2B274 
 402      9003A0A6 
 402      FAB69B29 
 402      10E9
 403 0497 691C7A79 		.ascii	"i\034zy\320@\035\215+&P\240\331\024\350\325\014Oc\306"
 403      D0401D8D 
 403      2B2650A0 
 403      D914E8D5 
 403      0C4F63C6 
 404 04ab D3D8EC81 		.ascii	"\323\330\354\201T\257\323:\335\217U\227C\355\254\273"
 404      54AFD33A 
 404      DD8F5597 
 404      43EDACBB 
 405 04bb 4CE66449 		.ascii	"L\346dI\015\251\361\366b#>\035\227\227\216\315\301_"
 405      0DA9F1F6 
 405      62233E1D 
 405      97978ECD 
ARM GAS  /tmp/cckQgGRQ.s 			page 32


 405      C15F
 406 04cd CF68FE9A 		.ascii	"\317h\376\232G\331\331\230\301\016\241?73\266\345l\206"
 406      47D9D998 
 406      C10EA13F 
 406      3733B6E5 
 406      6C86
 407 04df D76C465D 		.ascii	"\327lF]r\020flS\315x\226\232\261\363\0070\343\203\234"
 407      7210666C 
 407      53CD7896 
 407      9AB1F307 
 407      30E3839C 
 408 04f3 CD186A30 		.ascii	"\315\030j0\203.__P\263\337p\324\230}\012O\364i\344\206"
 408      832E5F5F 
 408      50B3DF70 
 408      D4987D0A 
 408      4FF469E4 
 409 0508 9B57EB1F 		.ascii	"\233W\353\037\177\210\213\324\327\003\257\032O\177\330"
 409      7F888BD4 
 409      D703AF1A 
 409      4F7FD8
 410 0517 4C67CE94 		.ascii	"Lg\316\2240\331\321B\257'\265\320[L)\353\267\352`N\240"
 410      30D9D142 
 410      AF27B5D0 
 410      5B4C29EB 
 410      B7EA604E 
 411 052c 5A9A7AAF 		.ascii	"Z\232z\257$\003\351R\012s`\2600\211\216\376\215j?}\211"
 411      2403E952 
 411      0A7360B0 
 411      30898EFE 
 411      8D6A3F7D 
 412 0541 0225325C 		.ascii	"\002%2\\\350a<\3501{\020\036IK\347\351\0009K{C\036\362"
 412      E8613CE8 
 412      317B101E 
 412      494BE7E9 
 412      00394B7B 
 413 0558 D0FF5D8E 		.ascii	"\320\377]\216C_Q\365\211\367r\234\177\351\321Swt\221"
 413      435F51F5 
 413      89F7729C 
 413      7FE9D153 
 413      777491
 414 056b 3E77521D 		.ascii	">wR\035t\352\222\020\343\312\313\365\352\356\010]\377"
 414      74EA9210 
 414      E3CACBF5 
 414      EAEE085D 
 414      FF
 415 057c 70E8C225 		.ascii	"p\350\302%\302m\351e\247\005\314\262m\235M\332\3217"
 415      C26DE965 
 415      A705CCB2 
 415      6D9D4DDA 
 415      D137
 416 058e 8DDA17DE 		.ascii	"\215\332\027\336B\335\275\206#\352\324\270Yw\267cf\331"
 416      42DDBD86 
 416      23EAD4B8 
 416      5977B763 
 416      66D9
 417 05a0 465E18AA 		.ascii	"F^\030\252\330u\244\325\234!\003\276\340\276D7\354:"
 417      D875A4D5 
ARM GAS  /tmp/cckQgGRQ.s 			page 33


 417      9C2103BE 
 417      E0BE4437 
 417      EC3A
 418 05b2 C3B861D9 		.ascii	"\303\270a\331%!\306\225o\353\235mR=\251c\025RCV\321"
 418      2521C695 
 418      6FEB9D6D 
 418      523DA963 
 418      15524356 
 419 05c7 66DB3866 		.ascii	"f\3338f\215\275\355x\242V\233\021\221o\003\217\024\207"
 419      8DBDED78 
 419      A2569B11 
 419      916F038F 
 419      1487
 420 05d9 E8C69EBA 		.ascii	"\350\306\236\272\273$\340\315\230\323P\255&J\003\322"
 420      BB24E0CD 
 420      98D350AD 
 420      264A03D2 
 421 05e9 A37C2676 		.ascii	"\243|&v\215\315e\314\351\324\307\234u\224\313\277g8"
 421      8DCD65CC 
 421      E9D4C79C 
 421      7594CBBF 
 421      6738
 422 05fb 7D293B4C 		.ascii	"});L\347\324\351zS$9]\260\260\207]P\375\325\030T{/-"
 422      E7D4E97A 
 422      5324395D 
 422      B0B0875D 
 422      50FDD518 
 423 0613 0420A83A 		.ascii	"\004 \250:W\253A\305t\231V\233.C4\330d\324\340\223K"
 423      57AB41C5 
 423      7499569B 
 423      2E4334D8 
 423      64D4E093 
 424 0628 0CC277FB 		.ascii	"\014\302w\373\015\371\302\331\306`\317\316\324\306 "
 424      0DF9C2D9 
 424      C660CFCE 
 424      D4C620
 425 0637 F5DDE719 		.ascii	"\365\335\347\031\276\333\312N\244\234\354\223\235\030"
 425      BEDBCA4E 
 425      A49CEC93 
 425      9D18
 426 0645 AC25A983 		.ascii	"\254%\251\203C\337\270\035Ls\213\314\3765D1\214\265"
 426      43DFB81D 
 426      4C738BCC 
 426      FE354431 
 426      8CB5
 427 0657 FBB44C3D 		.ascii	"\373\264L=\340f\233>x\035[8Y\335\220\344\310&\355Y\206"
 427      E0669B3E 
 427      781D5B38 
 427      59DD90E4 
 427      C826ED59 
 428 066c 0B077B76 		.ascii	"\013\007{vs=Dd\007\333\237\017\326\245\366\354v8\350"
 428      733D4464 
 428      07DB9F0F 
 428      D6A5F6EC 
 428      7638E8
 429 067f CF7165FD 		.ascii	"\317qe\375\002}TW\027\305\213S\270\203\345\323\344\302"
 429      027D5457 
ARM GAS  /tmp/cckQgGRQ.s 			page 34


 429      17C58B53 
 429      B883E5D3 
 429      E4C2
 430 0691 B48202EE 		.ascii	"\264\202\002\356\344\310bv\027w\255\221\373e\036\007"
 430      E4C86276 
 430      1777AD91 
 430      FB651E07 
 431 06a1 DCDF6817 		.ascii	"\334\337h\027\211\262r\246\237\331\357f\361\254F$\023"
 431      89B272A6 
 431      9FD9EF66 
 431      F1AC4624 
 431      13
 432 06b2 9ED19771 		.ascii	"\236\321\227q\245a/\335!Pc\364/N\224\033k\017\366\362"
 432      A5612FDD 
 432      215063F4 
 432      2F4E941B 
 432      6B0FF6F2 
 433 06c6 229DDC4D 		.ascii	"\"\235\334M4Imp\2027\301\316\330\270\262qo\263\206\247"
 433      34496D70 
 433      8237C1CE 
 433      D8B8B271 
 433      6FB386A7 
 434 06da 6EAE6FC9 		.ascii	"n\256o\311\031\317\254\337\307\213L)}\247\023\270{\035"
 434      19CFACDF 
 434      C78B4C29 
 434      7DA713B8 
 434      7B1D
 435 06ec FB3EFD63 		.ascii	"\373>\375c\206\2007\322\215\214M\370Z8\277C\317;\351"
 435      868037D2 
 435      8D8C4DF8 
 435      5A38BF43 
 435      CF3BE9
 436 06ff F9183DFF 		.ascii	"\371\030=\377\223\236\377E\317'\351\371\"=\327q\344"
 436      939EFF45 
 436      CF27E9F9 
 436      223DD771 
 436      E4
 437 0710 BC909E9F 		.ascii	"\274\220\236\237\247g\205\236\273\351y7=\177H\317}\364"
 437      A767859E 
 437      BBE97937 
 437      3D7F48CF 
 437      7DF4
 438 0722 DC6F8C2D 		.ascii	"\334o\214-\273\201\220\231\006\010\270\213\243Il\260"
 438      BB819099 
 438      0608B88B 
 438      A3496CB0 
 439 0732 DBB74A7F 		.ascii	"\333\267J\177\267aS\251\307\203s\004+\312\306a\233\201"
 439      B76153A9 
 439      C7837304 
 439      2BCAC661 
 439      9B81
 440 0744 C3372987 		.ascii	"\3037)\207oQf>2Z\252\347\341\326\354QooBb\316\021\203"
 440      6F51663E 
 440      325AAAE7 
 440      E1D6EC51 
 440      6F6F4262 
 441 075b 097D1E8C 		.ascii	"\011}\036\214\354sI\226,\250\361qQ$\263\235\225\224"
ARM GAS  /tmp/cckQgGRQ.s 			page 35


 441      EC734996 
 441      2CA8F171 
 441      5124B39D 
 441      9594
 442 076d 6695DB5C 		.ascii	"f\225\333\\\260\262\322\321j\240\3435J\307ZJ\307>\352"
 442      B0B2D2D1 
 442      6AA0E335 
 442      4AC75A4A 
 442      C73EEA
 443 0780 FE034EDC 		.ascii	"\376\003N\334\2772=-t\236\275\016\237M\374\362MY\036"
 443      BF323D2D 
 443      749EBD0E 
 443      9F4DFCF2 
 443      4D591E
 444 0793 2AE08374 		.ascii	"*\340\203t`\230\237\307&/7\223\273\334\346\334\345\366"
 444      60989FC7 
 444      262F3793 
 444      BBDCE6DC 
 444      E5F6
 445 07a5 A56FB4DC 		.ascii	"\245o\264\334e9\201\233\367EzoFN\375LR\224\326d\317"
 445      6539819B 
 445      F7457A6F 
 445      464EFD4C 
 445      5294D664 
 446 07ba 0565E416 		.ascii	"\005e\344\026\252\311a\232::\362,SG\026 \016m\2472\011"
 446      AAC9619A 
 446      3A3AF22C 
 446      53471620 
 446      0E6DA732 
 447 07cf 26       		.ascii	"&"
 448 07d0 77288BEA 		.ascii	"w(\213\352\012\311:,\341(o,\336\325\2349\015\275\012"
 448      0AC93A2C 
 448      E1286F2C 
 448      DED59C39 
 448      0DBD0A
 449 07e3 2DD6A672 		.ascii	"-\326\246r2\226\350\240b\347\205c\334U\364\216\247?"
 449      3296E8A0 
 449      62E78563 
 449      DC55F48E 
 449      A73F
 450 07f5 C82395D7 		.ascii	"\310#\225\327\324\203J\246\351\033\275y\204\317\352"
 450      D4834AA6 
 450      E91BBD79 
 450      84CFEA
 451 0804 5E8DA26D 		.ascii	"^\215\242m\337'F\256\245\024\035\245\243\3569\206\""
 451      DF2746AE 
 451      A5141DA5 
 451      A3EE3986 
 451      22
 452 0815 66D24454 		.ascii	"f\322DT\261S\3638W`\303D\3067H\311^\235\326\301\255"
 452      B153F338 
 452      5760C344 
 452      C63748C9 
 452      5E9DD6C1 
 453 082a 15F65C48 		.ascii	"\025\366\\H\214\332\274A\226\333\237\324\026\374\212"
 453      8CDABC41 
 453      96DB9FD4 
ARM GAS  /tmp/cckQgGRQ.s 			page 36


 453      16FC8A
 454 0839 C7E84553 		.ascii	"\307\350ES\227VMU\336\355\034M\\\3665L\1778\364\234"
 454      97564D55 
 454      DEED1C4D 
 454      5CF6354C 
 454      7F38F49C 
 455 084d D76CE7C0 		.ascii	"\327l\347\300(\034j\2462\2472\366\016:\311\217\331\247"
 455      281C6AA6 
 455      32A732F6 
 455      0E3AC98F 
 455      D9A7
 456 085f 1CEC1DC4 		.ascii	"\034\354\035\304\225\375\265\365W\313-\013G\350\033"
 456      95FDB5F5 
 456      57CB2D0B 
 456      47E81B
 457 086e B4AFA520 		.ascii	"\264\257\245 \007\267&8\322\231\237\376\327\001\373"
 457      07B72638 
 457      D2999FFE 
 457      D701FB
 458 087d 5FFD8962 		.ascii	"_\375\211b\347\330\020>\330I\366<\3169\212\340C\265"
 458      E7D8103E 
 458      D849F63C 
 458      CE398AE0 
 458      43B5
 459 088f 160B2995 		.ascii	"\026\013)\225K\273p\270\220\236C\353C\333\271A\272;"
 459      4BBB70B8 
 459      909E43EB 
 459      43DBB941 
 459      BA3B
 460 08a1 AE1CEED4 		.ascii	"\256\034\356\324\223\271:\246\274Ay\313\005\257\210"
 460      93B93AA6 
 460      BC4179CB 
 460      05AF88
 461 08b0 310C2618 		.ascii	"1\014&\030\227\310\3759\347\334'Y\356OQ\356\223\216"
 461      97C8FD39 
 461      E7DC2759 
 461      EE4F51EE 
 461      938E
 462 08c2 B83F5DAB 		.ascii	"\270?]\253O<>\245]t3\325;9h.\3170\\n\315\031/\223\313"
 462      4F3C3EA5 
 462      5D7433D5 
 462      3B39682E 
 462      CF305C6E 
 463 08db ED83E5D2 		.ascii	"\355\203\345\322\3520\3661\001\237\2463\341oh\322:K"
 463      EA30F631 
 463      019FA633 
 463      E16F68D2 
 463      3A4B
 464 08ed CFDF9B67 		.ascii	"\317\337\233g\305]\354Pb\325\266\375\257\377J\363\375"
 464      C55DEC50 
 464      62D5B6FD 
 464      AFFF4AF3 
 464      FD
 465 08fe 249DABFF 		.ascii	"$\235\253\377\017\324\313b\231\377\331\307p\353\314"
 465      0FD4CB62 
 465      99FFD9C7 
 465      70EBCC
ARM GAS  /tmp/cckQgGRQ.s 			page 37


 466 090d 9084614A 		.ascii	"\220\204aJ\377\017j\310\027\324\204\023\364\\\307;\310"
 466      FF0F6AC8 
 466      17D48413 
 466      F45CC73B 
 466      C8
 467 091e C19FA6FB 		.ascii	"\301\237\246\373\021\323\373\210\373\354\244\346\363"
 467      11D3FB88 
 467      FBECA4E6 
 467      F3
 468 092b 29A96BD0 		.ascii	")\251k\320\012\271%\221\330\337zp\364\022Xw\311'IFe"
 468      0AB92591 
 468      D8DF7A70 
 468      F4125877 
 468      C9274946 
 469 0940 B28FCDCF 		.ascii	"\262\217\315\317\376\004\351\031\376*\355N\317(\260"
 469      FE04E919 
 469      FE2AED4E 
 469      CF28B0
 470 094f 0864464F 		.ascii	"\010dFO\204~\201\326\020<\3715\231\247h\244\376\002"
 470      847E81D6 
 470      103CF935 
 470      99A768A4 
 470      FE02
 471 0961 FE1A331B 		.ascii	"\376\0323\033\013y\316\370\202(\226 )\350\374\350\027"
 471      0B79CEF8 
 471      82289620 
 471      29E8FCE8 
 471      17
 472 0972 D7C973E6 		.ascii	"\327\311s\346\313\337'ga5\307p(\231\321\204\212Q\237"
 472      CBDF2767 
 472      6135C770 
 472      2899D184 
 472      8A519F
 473 0985 89418DDB 		.ascii	"\211A\215\333s\343`\214{\236gR+a;\365\240\376/C\326"
 473      73E3608C 
 473      7B9E6752 
 473      2B613BF5 
 473      A0FE2F43 
 474 099a D40A59C1 		.ascii	"\324\012Y\301gV\364:\364\212,7\312\313\305\311z\207"
 474      6756F43A 
 474      F48A2C37 
 474      CACBC5C9 
 474      7A87
 475 09ac 6DA3351A 		.ascii	"m\2435\032\200\015+54\017kb\373\211\030]`\254\037@j"
 475      800D2B35 
 475      340F6B62 
 475      FB89185D 
 475      60AC1F40 
 476 09c1 625A2849 		.ascii	"bZ(I\204\210v\002\236\303sY\2454\0334w=+\317\035\212"
 476      84887602 
 476      9EC37359 
 476      A5341B34 
 476      773D2BCF 
 477 09d7 53FE6A60 		.ascii	"S\376j`\375\265\330\302_'\225\345==\030\032\275\230"
 477      FDB5D8C2 
 477      5F2795E5 
 477      3D3D181A 
ARM GAS  /tmp/cckQgGRQ.s 			page 38


 477      BD98
 478 09e9 4CF22CD3 		.ascii	"L\362,\323Y&1\313\2632\255\251\305Lj\030\2467Z3\275"
 478      592631CB 
 478      B332ADA9 
 478      C54C6A18 
 478      A6375A33 
 479 09fe 5E675AC0 		.ascii	"^gZ\300M\324\372fGL\037aI\263\027\243\332\351~\355,"
 479      4DD4FA66 
 479      474C1F61 
 479      49B317A3 
 479      DAE97EED 
 480 0a13 6CC0DA94 		.ascii	"l\300\332\224\365\014\227]\316\235\346:.\277Y;w\250"
 480      F50C975D 
 480      CE9DE63A 
 480      2EBF593B 
 480      77A8
 481 0a25 4B8B297B 		.ascii	"K\213){!\215\255\225VQ\256$\033m\231\317\022\343\257"
 481      218DAD95 
 481      5651AE24 
 481      1B6D99CF 
 481      12E3AF
 482 0a38 B2CCD37F 		.ascii	"\262\314\323\177\31111\333m\315\354\221\022=\030?\246"
 482      C93131DB 
 482      6DCDEC91 
 482      123D183F 
 482      A6
 483 0a49 155AB306 		.ascii	"\025Z\263\006\243MT\265\262Q\265\326\332\266%\013!+"
 483      A34D54B5 
 483      B251B5D6 
 483      DAB6250B 
 483      212B
 484 0a5b C5956472 		.ascii	"\305\225dr\"k[\266q\356\215\254a\245\215\202\3543c\375"
 484      226B5BB6 
 484      71EE8DAC 
 484      61A58D82 
 484      EC3363FD 
 485 0a6f 7E6BEB5F 		.ascii	"~k\353_d\343\252\315y\017&\015q\350(\005\266\027\243"
 485      64E3AACD 
 485      790F260D 
 485      71E82805 
 485      B617A3
 486 0a82 EA68624D 		.ascii	"\352hbMj\\\251\202\307\235\010\246\"\253\375\350\357"
 486      6A5CA982 
 486      C79D08A6 
 486      22ABFDE8 
 486      EF
 487 0a93 27EB5DC8 		.ascii	"'\353]\310^J#l\235\345\030\274\343t\027\236\227sd\275"
 487      5E4A236C 
 487      9DE518BC 
 487      E374179E 
 487      977364BD 
 488 0aa7 C392AFAE 		.ascii	"\303\222\257\256cM\344~\343\263\036\307\267X\351\241"
 488      634DE47E 
 488      E3B31EC7 
 488      B758E9A1 
 489 0ab7 BCBD6BA1 		.ascii	"\274\275k\241\214\033j\022\311\3445*<\207\346\344[\003"
 489      8C1B6A12 
ARM GAS  /tmp/cckQgGRQ.s 			page 39


 489      C9E4352A 
 489      3C87E6E4 
 489      5B03
 490 0ac9 6CB50458 		.ascii	"l\265\004X\221\011\320`\003\240\230\001~\206V\312J\037"
 490      9109D060 
 490      03A09801 
 490      7E8656CA 
 490      4A1F
 491 0adb 6492CF7F 		.ascii	"d\222\317\177\362F\034\026\026@A\022''\352k\307e)\024"
 491      F2461C16 
 491      16404112 
 491      2727EA6B 
 491      C7652914 
 492 0aef CB852201 		.ascii	"\313\205\"\001|?\015\310dj\242\210\035\211\333\323\231"
 492      7C3F0DC8 
 492      646AA288 
 492      1D89DBD3 
 492      99
 493 0b00 9AA8D0D7 		.ascii	"\232\250\320\327\247\274\324=_\306r\255\\C\222\331\025"
 493      A7BCD43D 
 493      5FC672AD 
 493      5C4392D9 
 493      15
 494 0b11 A881AE51 		.ascii	"\250\201\256Q\227\002\314q\234\352\010\363R\363\222"
 494      9702CC71 
 494      9CEA08F3 
 494      52F392
 495 0b20 2BA8A8B1 		.ascii	"+\250\250\261\332\011\373j\002\356\344\325;\323/\011"
 495      DA09FB6A 
 495      02EEE4D5 
 495      3BD32F09 
 496 0b30 B4869D82 		.ascii	"\264\206\235\202\273\370\364\277\305\024\372\0203\013"
 496      BBF8F4BF 
 496      C514FA10 
 496      330B
 497 0b3e 424C2DF2 		.ascii	"BL-\362\253\177>\223\271X-8\364V>\326\344\310\215f\367"
 497      AB7F3E93 
 497      B9582D38 
 497      F4563ED6 
 497      E4C88D66 
 498 0b53 861ED9FB 		.ascii	"\206\036\331\373\226<ON&g\331X\2754\0054<\233\325l5"
 498      963C4F4E 
 498      2667D958 
 498      BD340534 
 498      3C9BD56C 
 499 0b68 01EFCED9 		.ascii	"\001\357\316\331\352\017l\254\036f\262Z\257E\2268l\022"
 499      EA0F6CAC 
 499      1E66B25A 
 499      AF459638 
 499      6C12
 500 0b7a 61B58099 		.ascii	"a\265\200\231\266\225\325K\366\016d\365\243:NA6\243"
 500      B695D54B 
 500      F60E64F5 
 500      A33A4E41 
 500      36A3
 501 0b8c 995A02DE 		.ascii	"\231Z\002\336\223\263\315\37566\347\233l\356gm6\244"
 501      93B3CDFD 
ARM GAS  /tmp/cckQgGRQ.s 			page 40


 501      3636E79B 
 501      6CEE676D 
 501      36A4
 502 0b9e 0546090E 		.ascii	"\005F\011\016\3556\231\214F\216\031S\034\216\025G\245"
 502      ED36998C 
 502      468E1953 
 502      1C8E1547 
 502      A5
 503 0baf E2602850 		.ascii	"\342`(PQU\"\026\007\312+\245\351c\312Q^e\225$N\367K"
 503      51552216 
 503      07CA2BA5 
 503      E963CA51 
 503      5E659524 
 504 0bc6 9EFB7FF7 		.ascii	"\236\373\177\367H\321$\344\015\224\373\351\233\237Z"
 504      48D124E4 
 504      0D94FBE9 
 504      9B9F5A
 505 0bd5 48C466C4 		.ascii	"H\304f\304\244\031\0211\006b\227K\345QQ(\211\371\377"
 505      A4191131 
 505      0662974B 
 505      E5515128 
 505      89F9FF
 506 0be8 54255689 		.ascii	"T%V\211~i(\310\231^]m%\037(/\001Y\257Z\321/\371RBn*"
 506      7E6928C8 
 506      995E5D6D 
 506      251F282F 
 506      0159AF5A 
 507 0c03 334E9509 		.ascii	"3N\225\011\204++\303\241\342H8*\305\212\357\373\303"
 507      842B2BC3 
 507      A1E24838 
 507      2AC58AEF 
 507      FBC3
 508 0c15 83931E9C 		.ascii	"\203\223\036\234N\336E\202\025b4V|\377\244I\000\245"
 508      4EDE4582 
 508      15623456 
 508      7CFFA449 
 508      00A5
 509 0c27 EB912745 		.ascii	"\353\221'E\242\301\260_\032]\\\025\213\246\232\012\211"
 509      A2C1B05F 
 509      1A5D5C15 
 509      8BA69A0A 
 509      89
 510 0c38 D515C129 		.ascii	"\325\025\301)\3051\251$\030\222H\213Up\275}\234_\272"
 510      C531A924 
 510      1892488B 
 510      5570BD7D 
 510      9C5FBA
 511 0c4b D5AA5AA5 		.ascii	"\325\252Z\245\020(\017\206\304b\177\211X*TUH~\035<\337"
 511      10280F86 
 511      C4627F89 
 511      582A5455 
 511      487E1D3C 
 512 0c60 EFD7055D 		.ascii	"\357\327\005]\244\231B\242\222?\020\016\001?\322\317"
 512      A49942A2 
 512      923F100E 
 512      013FD2CF 
 513 0c70 B3285B1E 		.ascii	"\263([\036\010GE\000(\240\002\000\021\220\246\3370P"
ARM GAS  /tmp/cckQgGRQ.s 			page 41


 513      08474500 
 513      28A00200 
 513      1190A6DF 
 513      3050
 514 0c82 7DFFB4BB 		.ascii	"}\377\264\273*\211\256Q\261L\210V\372%.:\236\213\336"
 514      2A89AE51 
 514      B14C8856 
 514      FA252E3A 
 514      9E8BDE
 515 0c95 C145EFE4 		.ascii	"\301E\357\344\242wq\321\011\\\364n>z\333X(\267q\025"
 515      A27771D1 
 515      095CF46E 
 515      3E7ADB58 
 515      28B77115 
 516 0ca9 512E16E1 		.ascii	"Q.\026\341\001\324\015&\210Qw\270\242D\214\272\002\345"
 516      01D40D26 
 516      885177B8 
 516      A2448CBA 
 516      02E5
 517 0cbb 42D41512 		.ascii	"B\324\025\022*\305\374\2304U\250\010\226\205\374\022"
 517      2AC5FC98 
 517      3455A808 
 517      9685FC12 
 518 0ccb B5FCCEF1 		.ascii	"\265\374\316\361~I\263\205\334z\252\205)BL\364J1I\220"
 518      7E49B385 
 518      DC7AAA85 
 518      29424CF4 
 518      4A314990 
 519 0cdf C07779E4 		.ascii	"\300wy\344\303\004p\207Z\005\356\334\364K\236T\031."
 519      C3047087 
 519      5A05EEDC 
 519      F44B9E54 
 519      192E
 520 0cf1 81EFEED2 		.ascii	"\201\357\356\322\012\241,\226'E\305\322\0300A.\356\312"
 520      0AA12C96 
 520      2745C5D2 
 520      1830412E 
 520      EECA
 521 0d03 5819086A 		.ascii	"X\031\010j\344\200\240v\347\211\226\314\200O^qzP\012"
 521      E480A076 
 521      E78996CC 
 521      804F5E71 
 521      7A500A
 522 0d16 80B0A75A 		.ascii	"\200\260\247Z\012Oy*2L\3638\210\212Q1\024 \240\325\222"
 522      0A4F792A 
 522      324CF338 
 522      888A5131 
 522      1420A0D5 
 523 0d2b 148DE4C5 		.ascii	"\024\215\344\305\304\220\004\002\205\020\0111\261R\210"
 523      C4900402 
 523      85100931 
 523      B15288
 524 0d3a 94031156 		.ascii	"\224\003\021V\301\012\037\201\033w \004\336\341\341"
 524      C10A1F81 
 524      1B772004 
 524      DEE1E1
 525 0d49 0CC0F02A 		.ascii	"\014\300\360*\002\027\010\343H\2018\215\340\010\261"
ARM GAS  /tmp/cckQgGRQ.s 			page 42


 525      021708E3 
 525      4881388D 
 525      E008B1
 526 0d58 A9A08258 		.ascii	"\251\240\202XMnp\325\020=\036+\2021\220\272\334\020"
 526      4D6E70D5 
 526      103D1E2B 
 526      823190BA 
 526      DC10
 527 0d6a A1E48D2B 		.ascii	"\241\344\215+\004N\314\253\026\202R0T\346\005\035h\010"
 527      044ECCAB 
 527      16825230 
 527      54E6051D 
 527      6808
 528 0d7c 7AC58818 		.ascii	"z\305\210\030\202\250)\313\003\\R\015\334!T\020\347"
 528      82A829CB 
 528      035C520D 
 528      DC215410 
 528      E7
 529 0d8d BB2B23E1 		.ascii	"\273+#\341p\005\304\2018\315\035\256\016\211\321q4\226"
 529      7005C481 
 529      38CD1DAE 
 529      0E89D171 
 529      3496
 530 0d9f 48009505 		.ascii	"H\000\225\005\002\305\340\262[C\341\220x\253(L\011\026"
 530      02C5E0B2 
 530      5B43E190 
 530      78AB284C 
 530      0916
 531 0db1 8F1F3361 		.ascii	"\217\0373a\314\270\224\372\020\207\020Z\240\277'\026"
 531      CCB894FA 
 531      1087105A 
 531      A0BF2716 
 532 0dc1 9C09B65F 		.ascii	"\234\011\266_g\012\205p\214`\244M-\027\205\010\324\275"
 532      670A8570 
 532      8C60A44D 
 532      2D178508 
 532      D4BD
 533 0dd3 AC52AC0C 		.ascii	"\254R\254\014Gg\370\311\243_*0<\335\220U\034*j\321G"
 533      4767F8C9 
 533      A35F2A30 
 533      3CDD9055 
 533      1C2A6AD1 
 534 0de8 10CA44A9 		.ascii	"\020\312D\251\264*\024\000\327x#\321\360\264 \304\311"
 534      B42A1400 
 534      D77823D1 
 534      F0B420C4 
 534      C9
 535 0df9 6514114E 		.ascii	"e\024\021Np\017\300\206'7\015\032wD(\023c\256\322\250"
 535      700FC086 
 535      27370D1A 
 535      77442813 
 535      63AED2A8 
 536 0e0d 28BAC847 		.ascii	"(\272\310G\027Q\332U\025\023K<j5\036\250)\262\320!\026"
 536      1751DA55 
 536      15134B3C 
 536      6A351EA8 
 536      29B2D021 
ARM GAS  /tmp/cckQgGRQ.s 			page 43


 537 0e22 0DE8EA07 		.ascii	"\015\350\352\007\240\357P\340`((\215\012\224O\002\215"
 537      A0EF50E0 
 537      6028288D 
 537      0A944F02 
 537      8D
 538 0e33 EEABA808 		.ascii	"\356\253\250\010\007\356#-\210%\177\014J\345\017\225"
 538      07EE232D 
 538      88257F0C 
 538      4AE50F95 
 539 0e43 96C64432 		.ascii	"\226\306D2pL\206\212\017MyJ\014H\017@m7\221\213\360"
 539      704C868A 
 539      0F4D794A 
 539      0C480F40 
 539      6D37918B 
 540 0e58 53AA4A87 		.ascii	"S\252J\207\251\237\214r\371\352\253\337\200n8R\250>"
 540      A99F8C72 
 540      F9EAABDF 
 540      806E3852 
 540      A83E
 541 0e6a 3C0CB15A 		.ascii	"<\014\261Z\025\363Ha\011\034\345\255\020\242\240\275"
 541      15F34861 
 541      091CE5AD 
 541      10A2A0BD 
 542 0e7a 1401773F 		.ascii	"\024\001w?(MO\303\026\320\347GB\2005\325G\357\177\013"
 542      284D4FC3 
 542      16D0E747 
 542      428035D5 
 542      47EF7F0B 
 543 0e8e 77857A97 		.ascii	"w\205z\227'\215z\375~\302\225\337\177\231~3\346\216"
 543      278D7AFD 
 543      7EC295DF 
 543      7F997E33 
 543      E68E
 544 0ea0 BB6FBFDD 		.ascii	"\273o\277\335\3704\336\364t\307\235\377\003Z<\344Y"
 544      F834DEF4 
 544      74C79DFF 
 544      035A3CE4 
 544      59
 545              		.text
 546              		.section	.gnu.lto_.symtab.7674aba4c071e775,"",%progbits
 547 0000 5F686561 		.ascii	"_heap_init\000\000\000\000\000\000\000\000\000\000\000"
 547      705F696E 
 547      69740000 
 547      00000000 
 547      00000000 
 548 0015 008A0100 		.ascii	"\000\212\001\000\000chHeapObjectInit\000\000\000\000"
 548      00636848 
 548      6561704F 
 548      626A6563 
 548      74496E69 
 549 002e 00000000 		.ascii	"\000\000\000\000\000\000\000\000\220\001\000\000chH"
 549      00000000 
 549      90010000 
 549      636848
 550 003d 65617041 		.ascii	"eapAllocAligned\000\000\000\000\000\000\000\000\000"
 550      6C6C6F63 
 550      416C6967 
ARM GAS  /tmp/cckQgGRQ.s 			page 44


 550      6E656400 
 550      00000000 
 551 0055 0000009C 		.ascii	"\000\000\000\234\001\000\000chHeapFree\000\000\000\000"
 551      01000063 
 551      68486561 
 551      70467265 
 551      65000000 
 552 006a 00000000 		.ascii	"\000\000\000\000\000\000\000\000\246\001\000\000chH"
 552      00000000 
 552      A6010000 
 552      636848
 553 0079 65617053 		.ascii	"eapStatus\000\000\000\000\000\000\000\000\000\000\000"
 553      74617475 
 553      73000000 
 553      00000000 
 553      00000000 
 554 008d 00AD0100 		.ascii	"\000\255\001\000\000chCoreAllocAlignedWithOffset\000"
 554      00636843 
 554      6F726541 
 554      6C6C6F63 
 554      416C6967 
 555 00af 00020000 		.ascii	"\000\002\000\000\000\000\000\000\000\000\000\216\001"
 555      00000000 
 555      0000008E 
 555      01
 556 00bc 00006368 		.ascii	"\000\000chMtxObjectInit\000\000\002\000\000\000\000"
 556      4D74784F 
 556      626A6563 
 556      74496E69 
 556      74000002 
 557 00d4 00000000 		.ascii	"\000\000\000\000\000\271\001\000\000chMtxUnlock\000"
 557      00B90100 
 557      0063684D 
 557      7478556E 
 557      6C6F636B 
 558 00e9 00020000 		.ascii	"\000\002\000\000\000\000\000\000\000\000\000\275\001"
 558      00000000 
 558      000000BD 
 558      01
 559 00f6 00006368 		.ascii	"\000\000chMtxLock\000\000\002\000\000\000\000\000\000"
 559      4D74784C 
 559      6F636B00 
 559      00020000 
 559      00000000 
 560 010a 000000BF 		.ascii	"\000\000\000\277\001\000\000"
 560      010000
 561              		.text
 562              		.section	.gnu.lto_.opts,"",%progbits
 563 0000 272D6D63 		.ascii	"'-mcpu=cortex-m3' '-mno-thumb-interwork' '-mthumb' "
 563      70753D63 
 563      6F727465 
 563      782D6D33 
 563      2720272D 
 564 0033 272D6767 		.ascii	"'-ggdb' '-O2' '-fomit-frame-pointer' '-falign-funct"
 564      64622720 
 564      272D4F32 
 564      2720272D 
ARM GAS  /tmp/cckQgGRQ.s 			page 45


 564      666F6D69 
 565 0066 696F6E73 		.ascii	"ions=16' '-ffunction-sections' '-fdata-sections' '-"
 565      3D313627 
 565      20272D66 
 565      66756E63 
 565      74696F6E 
 566 0099 666E6F2D 		.ascii	"fno-common' '-flto'\000"
 566      636F6D6D 
 566      6F6E2720 
 566      272D666C 
 566      746F2700 
 567              		.text
 568              		.cfi_sections	.debug_frame
 569              		.section	.text._heap_init,"ax",%progbits
 570              		.align	2
 571              		.p2align 4,,15
 572              		.global	_heap_init
 573              		.thumb
 574              		.thumb_func
 575              		.type	_heap_init, %function
 576              	_heap_init:
 577              	.LFB188:
 578              		.file 1 "../os/common/oslib/src/chheap.c"
 579              		.loc 1 107 0
 580              		.cfi_startproc
 581              		@ args = 0, pretend = 0, frame = 0
 582              		@ frame_needed = 0, uses_anonymous_args = 0
 583              		@ link register save eliminated.
 584              		.loc 1 109 0
 585 0000 40F20003 		movw	r3, #:lower16:.LANCHOR0
 586 0004 C0F20003 		movt	r3, #:upper16:.LANCHOR0
 587 0008 40F20002 		movw	r2, #:lower16:chCoreAllocAlignedWithOffset
 588              		.loc 1 110 0
 589 000c 0021     		movs	r1, #0
 590              		.loc 1 109 0
 591 000e C0F20002 		movt	r2, #:upper16:chCoreAllocAlignedWithOffset
 592              		.loc 1 113 0
 593 0012 03F11000 		add	r0, r3, #16
 594              		.loc 1 109 0
 595 0016 1A60     		str	r2, [r3]
 596              		.loc 1 110 0
 597 0018 9960     		str	r1, [r3, #8]
 598              		.loc 1 111 0
 599 001a D960     		str	r1, [r3, #12]
 600              		.loc 1 113 0
 601 001c FFF7FEBF 		b	chMtxObjectInit
 602              	.LVL0:
 603              		.cfi_endproc
 604              	.LFE188:
 605              		.size	_heap_init, .-_heap_init
 606              		.section	.text.chHeapObjectInit,"ax",%progbits
 607              		.align	2
 608              		.p2align 4,,15
 609              		.global	chHeapObjectInit
 610              		.thumb
 611              		.thumb_func
 612              		.type	chHeapObjectInit, %function
ARM GAS  /tmp/cckQgGRQ.s 			page 46


 613              	chHeapObjectInit:
 614              	.LFB189:
 615              		.loc 1 130 0
 616              		.cfi_startproc
 617              		@ args = 0, pretend = 0, frame = 0
 618              		@ frame_needed = 0, uses_anonymous_args = 0
 619              		@ link register save eliminated.
 620              	.LVL1:
 621              		.loc 1 141 0
 622 0000 083A     		subs	r2, r2, #8
 623              	.LVL2:
 624              		.loc 1 137 0
 625 0002 0023     		movs	r3, #0
 626              		.loc 1 141 0
 627 0004 D208     		lsrs	r2, r2, #3
 628              	.LVL3:
 629              		.loc 1 138 0
 630 0006 8160     		str	r1, [r0, #8]
 631              		.loc 1 137 0
 632 0008 0360     		str	r3, [r0]
 633              		.loc 1 139 0
 634 000a C360     		str	r3, [r0, #12]
 635              		.loc 1 143 0
 636 000c 1030     		adds	r0, r0, #16
 637              	.LVL4:
 638              		.loc 1 141 0
 639 000e 4A60     		str	r2, [r1, #4]
 640              		.loc 1 140 0
 641 0010 0B60     		str	r3, [r1]
 642              		.loc 1 143 0
 643 0012 FFF7FEBF 		b	chMtxObjectInit
 644              	.LVL5:
 645              		.cfi_endproc
 646              	.LFE189:
 647              		.size	chHeapObjectInit, .-chHeapObjectInit
 648 0016 00BFAFF3 		.section	.text.chHeapAllocAligned,"ax",%progbits
 648      0080AFF3 
 648      0080
 649              		.align	2
 650              		.p2align 4,,15
 651              		.global	chHeapAllocAligned
 652              		.thumb
 653              		.thumb_func
 654              		.type	chHeapAllocAligned, %function
 655              	chHeapAllocAligned:
 656              	.LFB190:
 657              		.loc 1 166 0
 658              		.cfi_startproc
 659              		@ args = 0, pretend = 0, frame = 8
 660              		@ frame_needed = 0, uses_anonymous_args = 0
 661              	.LVL6:
 662 0000 2DE9F04F 		push	{r4, r5, r6, r7, r8, r9, r10, fp, lr}
 663              		.cfi_def_cfa_offset 36
 664              		.cfi_offset 4, -36
 665              		.cfi_offset 5, -32
 666              		.cfi_offset 6, -28
 667              		.cfi_offset 7, -24
ARM GAS  /tmp/cckQgGRQ.s 			page 47


 668              		.cfi_offset 8, -20
 669              		.cfi_offset 9, -16
 670              		.cfi_offset 10, -12
 671              		.cfi_offset 11, -8
 672              		.cfi_offset 14, -4
 673              		.loc 1 174 0
 674 0004 40F20009 		movw	r9, #:lower16:.LANCHOR0
 675 0008 C0F20009 		movt	r9, #:upper16:.LANCHOR0
 676 000c 0028     		cmp	r0, #0
 677 000e 18BF     		it	ne
 678 0010 8146     		movne	r9, r0
 679              	.LVL7:
 680              		.loc 1 166 0
 681 0012 83B0     		sub	sp, sp, #12
 682              		.cfi_def_cfa_offset 48
 683              		.loc 1 186 0
 684 0014 09F11003 		add	r3, r9, #16
 685              		.loc 1 166 0
 686 0018 0191     		str	r1, [sp, #4]
 687              		.loc 1 179 0
 688 001a 072A     		cmp	r2, #7
 689 001c 8CBF     		ite	hi
 690 001e 9046     		movhi	r8, r2
 691 0020 4FF00808 		movls	r8, #8
 692              	.LVL8:
 693              		.loc 1 183 0
 694 0024 0731     		adds	r1, r1, #7
 695              	.LVL9:
 696              		.loc 1 186 0
 697 0026 1846     		mov	r0, r3
 698 0028 0093     		str	r3, [sp]
 699              		.loc 1 183 0
 700 002a 4FEAD10B 		lsr	fp, r1, #3
 701              	.LVL10:
 702              		.loc 1 189 0
 703 002e 09F10807 		add	r7, r9, #8
 704              		.loc 1 186 0
 705 0032 FFF7FEFF 		bl	chMtxLock
 706              	.LVL11:
 707              		.loc 1 196 0
 708 0036 C8F1000C 		rsb	ip, r8, #0
 709              		.loc 1 190 0
 710 003a 0DE0     		b	.L6
 711              	.LVL12:
 712              	.L13:
 713              		.loc 1 198 0
 714 003c 5A68     		ldr	r2, [r3, #4]
 715 003e 511C     		adds	r1, r2, #1
 716 0040 C900     		lsls	r1, r1, #3
 717 0042 A1F10800 		sub	r0, r1, #8
 718 0046 1944     		add	r1, r1, r3
 719 0048 0544     		add	r5, r5, r0
 720 004a 8C42     		cmp	r4, r1
 721 004c 4FEAE505 		asr	r5, r5, #3
 722 0050 01D2     		bcs	.L7
 723              		.loc 1 198 0 is_stmt 0 discriminator 1
 724 0052 AB45     		cmp	fp, r5
ARM GAS  /tmp/cckQgGRQ.s 			page 48


 725 0054 22D9     		bls	.L19
 726              	.L7:
 727 0056 1F46     		mov	r7, r3
 728              	.LVL13:
 729              	.L6:
 730              		.loc 1 190 0 is_stmt 1 discriminator 1
 731 0058 3B68     		ldr	r3, [r7]
 732              	.LVL14:
 733              		.loc 1 196 0 discriminator 1
 734 005a DE1D     		adds	r6, r3, #7
 735 005c 4644     		add	r6, r6, r8
 736 005e 0CEA0606 		and	r6, ip, r6
 737 0062 A6F10804 		sub	r4, r6, #8
 738              	.LVL15:
 739              		.loc 1 198 0 discriminator 1
 740 0066 1D1B     		subs	r5, r3, r4
 741              		.loc 1 196 0 discriminator 1
 742 0068 03F1080A 		add	r10, r3, #8
 743              		.loc 1 190 0 discriminator 1
 744 006c 002B     		cmp	r3, #0
 745 006e E5D1     		bne	.L13
 746              		.loc 1 258 0
 747 0070 0098     		ldr	r0, [sp]
 748 0072 FFF7FEFF 		bl	chMtxUnlock
 749              	.LVL16:
 750              		.loc 1 262 0
 751 0076 D9F80030 		ldr	r3, [r9]
 752 007a 002B     		cmp	r3, #0
 753 007c 47D0     		beq	.L16
 754              		.loc 1 263 0
 755 007e 0BF10100 		add	r0, fp, #1
 756 0082 C000     		lsls	r0, r0, #3
 757 0084 4146     		mov	r1, r8
 758 0086 0822     		movs	r2, #8
 759 0088 9847     		blx	r3
 760              	.LVL17:
 761              		.loc 1 266 0
 762 008a 20B1     		cbz	r0, .L12
 763              	.LVL18:
 764              		.loc 1 269 0
 765 008c 019B     		ldr	r3, [sp, #4]
 766              		.loc 1 268 0
 767 008e 40F8089C 		str	r9, [r0, #-8]
 768              		.loc 1 269 0
 769 0092 40F8043C 		str	r3, [r0, #-4]
 770              	.LVL19:
 771              	.L12:
 772              		.loc 1 278 0
 773 0096 03B0     		add	sp, sp, #12
 774              		@ sp needed
 775 0098 BDE8F08F 		pop	{r4, r5, r6, r7, r8, r9, r10, fp, pc}
 776              	.LVL20:
 777              	.L19:
 778              		.loc 1 202 0
 779 009c 9C42     		cmp	r4, r3
 780 009e AE46     		mov	lr, r5
 781 00a0 19D8     		bhi	.L20
ARM GAS  /tmp/cckQgGRQ.s 			page 49


 782              		.loc 1 226 0
 783 00a2 9345     		cmp	fp, r2
 784 00a4 2FD0     		beq	.L21
 785              	.LBB2:
 786              		.loc 1 234 0
 787 00a6 0BF10101 		add	r1, fp, #1
 788              	.LVL21:
 789              		.loc 1 235 0
 790 00aa 1A68     		ldr	r2, [r3]
 791              		.loc 1 236 0
 792 00ac A0EBC100 		sub	r0, r0, r1, lsl #3
 793 00b0 C510     		asrs	r5, r0, #3
 794 00b2 03EBC100 		add	r0, r3, r1, lsl #3
 795              	.LVL22:
 796              		.loc 1 235 0
 797 00b6 43F83120 		str	r2, [r3, r1, lsl #3]
 798              		.loc 1 237 0
 799 00ba 1C46     		mov	r4, r3
 800              	.LVL23:
 801              		.loc 1 236 0
 802 00bc 4560     		str	r5, [r0, #4]
 803              		.loc 1 237 0
 804 00be 3860     		str	r0, [r7]
 805              	.LVL24:
 806              	.L10:
 807              	.LBE2:
 808              		.loc 1 242 0
 809 00c0 019B     		ldr	r3, [sp, #4]
 810              		.loc 1 246 0
 811 00c2 0098     		ldr	r0, [sp]
 812              		.loc 1 242 0
 813 00c4 6360     		str	r3, [r4, #4]
 814              		.loc 1 243 0
 815 00c6 C4F80090 		str	r9, [r4]
 816              		.loc 1 246 0
 817 00ca FFF7FEFF 		bl	chMtxUnlock
 818              	.LVL25:
 819              		.loc 1 249 0
 820 00ce 5046     		mov	r0, r10
 821              		.loc 1 278 0
 822 00d0 03B0     		add	sp, sp, #12
 823              		@ sp needed
 824 00d2 BDE8F08F 		pop	{r4, r5, r6, r7, r8, r9, r10, fp, pc}
 825              	.LVL26:
 826              	.L20:
 827              	.LBB3:
 828              		.loc 1 208 0
 829 00d6 AB45     		cmp	fp, r5
 830              		.loc 1 207 0
 831 00d8 CAEB0402 		rsb	r2, r10, r4
 832 00dc 4FEAE202 		asr	r2, r2, #3
 833              	.LBB4:
 834              		.loc 1 217 0
 835 00e0 3EBF     		ittt	cc
 836 00e2 1D68     		ldrcc	r5, [r3]
 837              	.LVL27:
 838              		.loc 1 213 0
ARM GAS  /tmp/cckQgGRQ.s 			page 50


 839 00e4 0BF10100 		addcc	r0, fp, #1
 840              		.loc 1 214 0
 841 00e8 6FEA0B01 		mvncc	r1, fp
 842              	.LBE4:
 843              		.loc 1 207 0
 844 00ec 5A60     		str	r2, [r3, #4]
 845              	.LBB5:
 846              		.loc 1 214 0
 847 00ee 3DBF     		ittte	cc
 848 00f0 7144     		addcc	r1, r1, lr
 849              		.loc 1 213 0
 850 00f2 04EBC002 		addcc	r2, r4, r0, lsl #3
 851              	.LVL28:
 852              		.loc 1 214 0
 853 00f6 5160     		strcc	r1, [r2, #4]
 854 00f8 B246     		movcs	r10, r6
 855              		.loc 1 217 0
 856 00fa 3EBF     		ittt	cc
 857 00fc 44F83050 		strcc	r5, [r4, r0, lsl #3]
 858 0100 B246     		movcc	r10, r6
 859              		.loc 1 218 0
 860 0102 1A60     		strcc	r2, [r3]
 861 0104 DCE7     		b	.L10
 862              	.LVL29:
 863              	.L21:
 864              	.LBE5:
 865              	.LBE3:
 866              		.loc 1 228 0
 867 0106 1A68     		ldr	r2, [r3]
 868 0108 1C46     		mov	r4, r3
 869              	.LVL30:
 870 010a 3A60     		str	r2, [r7]
 871 010c D8E7     		b	.L10
 872              	.LVL31:
 873              	.L16:
 874              		.loc 1 277 0
 875 010e 1846     		mov	r0, r3
 876 0110 C1E7     		b	.L12
 877              		.cfi_endproc
 878              	.LFE190:
 879              		.size	chHeapAllocAligned, .-chHeapAllocAligned
 880 0112 00BFAFF3 		.section	.text.chHeapFree,"ax",%progbits
 880      0080AFF3 
 880      0080AFF3 
 880      0080
 881              		.align	2
 882              		.p2align 4,,15
 883              		.global	chHeapFree
 884              		.thumb
 885              		.thumb_func
 886              		.type	chHeapFree, %function
 887              	chHeapFree:
 888              	.LFB191:
 889              		.loc 1 287 0
 890              		.cfi_startproc
 891              		@ args = 0, pretend = 0, frame = 0
 892              		@ frame_needed = 0, uses_anonymous_args = 0
ARM GAS  /tmp/cckQgGRQ.s 			page 51


 893              	.LVL32:
 894 0000 F8B5     		push	{r3, r4, r5, r6, r7, lr}
 895              		.cfi_def_cfa_offset 24
 896              		.cfi_offset 3, -24
 897              		.cfi_offset 4, -20
 898              		.cfi_offset 5, -16
 899              		.cfi_offset 6, -12
 900              		.cfi_offset 7, -8
 901              		.cfi_offset 14, -4
 902              		.loc 1 300 0
 903 0002 50F8043C 		ldr	r3, [r0, #-4]
 904              		.loc 1 296 0
 905 0006 50F8084C 		ldr	r4, [r0, #-8]
 906              		.loc 1 300 0
 907 000a 0733     		adds	r3, r3, #7
 908              		.loc 1 301 0
 909 000c DB08     		lsrs	r3, r3, #3
 910              		.loc 1 304 0
 911 000e 04F11006 		add	r6, r4, #16
 912              		.loc 1 300 0
 913 0012 40F8043C 		str	r3, [r0, #-4]
 914              		.loc 1 287 0
 915 0016 0546     		mov	r5, r0
 916              		.loc 1 297 0
 917 0018 0834     		adds	r4, r4, #8
 918              		.loc 1 304 0
 919 001a 3046     		mov	r0, r6
 920              	.LVL33:
 921 001c FFF7FEFF 		bl	chMtxLock
 922              	.LVL34:
 923              		.loc 1 294 0
 924 0020 A5F10801 		sub	r1, r5, #8
 925              	.LVL35:
 926              		.loc 1 297 0
 927 0024 2346     		mov	r3, r4
 928              	.LVL36:
 929              	.L29:
 930              		.loc 1 309 0
 931 0026 A342     		cmp	r3, r4
 932 0028 04D0     		beq	.L23
 933              	.L34:
 934              		.loc 1 309 0 is_stmt 0 discriminator 2
 935 002a 8B42     		cmp	r3, r1
 936 002c 02D3     		bcc	.L23
 937 002e 1B68     		ldr	r3, [r3]
 938              	.LVL37:
 939              		.loc 1 309 0
 940 0030 A342     		cmp	r3, r4
 941 0032 FAD1     		bne	.L34
 942              	.L23:
 943              		.loc 1 310 0 is_stmt 1 discriminator 1
 944 0034 1A68     		ldr	r2, [r3]
 945              		.loc 1 309 0 discriminator 1
 946 0036 1AB1     		cbz	r2, .L25
 947              		.loc 1 310 0
 948 0038 9142     		cmp	r1, r2
 949 003a 01D3     		bcc	.L25
ARM GAS  /tmp/cckQgGRQ.s 			page 52


 950 003c 1346     		mov	r3, r2
 951              	.LVL38:
 952              		.loc 1 328 0
 953 003e F2E7     		b	.L29
 954              	.LVL39:
 955              	.L25:
 956              		.loc 1 315 0
 957 0040 55F8040C 		ldr	r0, [r5, #-4]
 958              		.loc 1 312 0
 959 0044 45F8082C 		str	r2, [r5, #-8]
 960              		.loc 1 313 0
 961 0048 1960     		str	r1, [r3]
 962              		.loc 1 315 0
 963 004a 421C     		adds	r2, r0, #1
 964 004c 55F8087C 		ldr	r7, [r5, #-8]
 965 0050 01EBC204 		add	r4, r1, r2, lsl #3
 966              	.LVL40:
 967 0054 BC42     		cmp	r4, r7
 968 0056 0AD0     		beq	.L35
 969              		.loc 1 320 0
 970 0058 5A68     		ldr	r2, [r3, #4]
 971 005a 501C     		adds	r0, r2, #1
 972 005c 03EBC000 		add	r0, r3, r0, lsl #3
 973 0060 8142     		cmp	r1, r0
 974 0062 13D0     		beq	.L36
 975              	.L28:
 976              		.loc 1 331 0
 977 0064 3046     		mov	r0, r6
 978              		.loc 1 334 0
 979 0066 BDE8F840 		pop	{r3, r4, r5, r6, r7, lr}
 980              	.LVL41:
 981              		.loc 1 331 0
 982 006a FFF7FEBF 		b	chMtxUnlock
 983              	.LVL42:
 984              	.L35:
 985              		.loc 1 317 0
 986 006e 6468     		ldr	r4, [r4, #4]
 987              		.loc 1 318 0
 988 0070 51F83220 		ldr	r2, [r1, r2, lsl #3]
 989              		.loc 1 317 0
 990 0074 2044     		add	r0, r0, r4
 991 0076 0130     		adds	r0, r0, #1
 992 0078 45F8040C 		str	r0, [r5, #-4]
 993              		.loc 1 318 0
 994 007c 45F8082C 		str	r2, [r5, #-8]
 995              		.loc 1 320 0
 996 0080 5A68     		ldr	r2, [r3, #4]
 997 0082 501C     		adds	r0, r2, #1
 998 0084 03EBC000 		add	r0, r3, r0, lsl #3
 999 0088 8142     		cmp	r1, r0
 1000 008a EBD1     		bne	.L28
 1001              	.L36:
 1002              		.loc 1 322 0
 1003 008c 55F8040C 		ldr	r0, [r5, #-4]
 1004              		.loc 1 323 0
 1005 0090 55F8081C 		ldr	r1, [r5, #-8]
 1006              	.LVL43:
ARM GAS  /tmp/cckQgGRQ.s 			page 53


 1007              		.loc 1 322 0
 1008 0094 0244     		add	r2, r2, r0
 1009 0096 0132     		adds	r2, r2, #1
 1010              		.loc 1 323 0
 1011 0098 83E80600 		stmia	r3, {r1, r2}
 1012              		.loc 1 331 0
 1013 009c 3046     		mov	r0, r6
 1014              		.loc 1 334 0
 1015 009e BDE8F840 		pop	{r3, r4, r5, r6, r7, lr}
 1016              	.LVL44:
 1017              		.loc 1 331 0
 1018 00a2 FFF7FEBF 		b	chMtxUnlock
 1019              	.LVL45:
 1020              		.cfi_endproc
 1021              	.LFE191:
 1022              		.size	chHeapFree, .-chHeapFree
 1023 00a6 00BFAFF3 		.section	.text.chHeapStatus,"ax",%progbits
 1023      0080AFF3 
 1023      0080
 1024              		.align	2
 1025              		.p2align 4,,15
 1026              		.global	chHeapStatus
 1027              		.thumb
 1028              		.thumb_func
 1029              		.type	chHeapStatus, %function
 1030              	chHeapStatus:
 1031              	.LFB192:
 1032              		.loc 1 351 0
 1033              		.cfi_startproc
 1034              		@ args = 0, pretend = 0, frame = 0
 1035              		@ frame_needed = 0, uses_anonymous_args = 0
 1036              	.LVL46:
 1037              		.loc 1 356 0
 1038 0000 40F20003 		movw	r3, #:lower16:.LANCHOR0
 1039 0004 C0F20003 		movt	r3, #:upper16:.LANCHOR0
 1040              		.loc 1 351 0
 1041 0008 2DE9F047 		push	{r4, r5, r6, r7, r8, r9, r10, lr}
 1042              		.cfi_def_cfa_offset 32
 1043              		.cfi_offset 4, -32
 1044              		.cfi_offset 5, -28
 1045              		.cfi_offset 6, -24
 1046              		.cfi_offset 7, -20
 1047              		.cfi_offset 8, -16
 1048              		.cfi_offset 9, -12
 1049              		.cfi_offset 10, -8
 1050              		.cfi_offset 14, -4
 1051              		.loc 1 356 0
 1052 000c 0028     		cmp	r0, #0
 1053 000e 14BF     		ite	ne
 1054 0010 0446     		movne	r4, r0
 1055 0012 1C46     		moveq	r4, r3
 1056              	.LVL47:
 1057              		.loc 1 359 0
 1058 0014 04F11008 		add	r8, r4, #16
 1059 0018 4046     		mov	r0, r8
 1060              		.loc 1 351 0
 1061 001a 8A46     		mov	r10, r1
ARM GAS  /tmp/cckQgGRQ.s 			page 54


 1062 001c 9146     		mov	r9, r2
 1063              		.loc 1 359 0
 1064 001e FFF7FEFF 		bl	chMtxLock
 1065              	.LVL48:
 1066              		.loc 1 364 0
 1067 0022 A368     		ldr	r3, [r4, #8]
 1068 0024 E3B1     		cbz	r3, .L44
 1069              		.loc 1 361 0
 1070 0026 0025     		movs	r5, #0
 1071              		.loc 1 360 0
 1072 0028 2F46     		mov	r7, r5
 1073              		.loc 1 362 0
 1074 002a 2E46     		mov	r6, r5
 1075              	.LVL49:
 1076              	.L40:
 1077              		.loc 1 364 0
 1078 002c 18CB     		ldmia	r3, {r3, r4}
 1079              	.LBB6:
 1080              		.loc 1 368 0
 1081 002e 0136     		adds	r6, r6, #1
 1082              	.LVL50:
 1083              		.loc 1 369 0
 1084 0030 2744     		add	r7, r7, r4
 1085              	.LVL51:
 1086 0032 A542     		cmp	r5, r4
 1087 0034 38BF     		it	cc
 1088 0036 2546     		movcc	r5, r4
 1089              	.LVL52:
 1090              	.LBE6:
 1091              		.loc 1 364 0
 1092 0038 002B     		cmp	r3, #0
 1093 003a F7D1     		bne	.L40
 1094              	.LVL53:
 1095              	.L39:
 1096              		.loc 1 378 0
 1097 003c BAF1000F 		cmp	r10, #0
 1098 0040 02D0     		beq	.L41
 1099              		.loc 1 379 0
 1100 0042 FF00     		lsls	r7, r7, #3
 1101 0044 CAF80070 		str	r7, [r10]
 1102              	.L41:
 1103              		.loc 1 383 0
 1104 0048 B9F1000F 		cmp	r9, #0
 1105 004c 02D0     		beq	.L42
 1106              		.loc 1 384 0
 1107 004e ED00     		lsls	r5, r5, #3
 1108 0050 C9F80050 		str	r5, [r9]
 1109              	.L42:
 1110              		.loc 1 386 0
 1111 0054 4046     		mov	r0, r8
 1112 0056 FFF7FEFF 		bl	chMtxUnlock
 1113              	.LVL54:
 1114              		.loc 1 389 0
 1115 005a 3046     		mov	r0, r6
 1116 005c BDE8F087 		pop	{r4, r5, r6, r7, r8, r9, r10, pc}
 1117              	.LVL55:
 1118              	.L44:
ARM GAS  /tmp/cckQgGRQ.s 			page 55


 1119              		.loc 1 361 0
 1120 0060 1D46     		mov	r5, r3
 1121              		.loc 1 360 0
 1122 0062 1F46     		mov	r7, r3
 1123              		.loc 1 362 0
 1124 0064 1E46     		mov	r6, r3
 1125 0066 E9E7     		b	.L39
 1126              		.cfi_endproc
 1127              	.LFE192:
 1128              		.size	chHeapStatus, .-chHeapStatus
 1129 0068 AFF30080 		.section	.bss.default_heap,"aw",%nobits
 1129      AFF30080 
 1130              		.align	3
 1131              		.set	.LANCHOR0,. + 0
 1132              		.type	default_heap, %object
 1133              		.size	default_heap, 32
 1134              	default_heap:
 1135 0000 00000000 		.space	32
 1135      00000000 
 1135      00000000 
 1135      00000000 
 1135      00000000 
 1136              		.text
 1137              	.Letext0:
 1138              		.file 2 "/usr/lib/gcc/arm-none-eabi/4.8.2/include/stddef.h"
 1139              		.file 3 "/usr/include/newlib/machine/_default_types.h"
 1140              		.file 4 "/usr/include/newlib/stdint.h"
 1141              		.file 5 "../os/common/ports/ARMCMx/compilers/GCC/chtypes.h"
 1142              		.file 6 "../os/rt/include/chsystypes.h"
 1143              		.file 7 "../os/rt/include/chschd.h"
 1144              		.file 8 "../os/common/ports/ARMCMx/chcore.h"
 1145              		.file 9 "../os/common/ports/ARMCMx/chcore_v7m.h"
 1146              		.file 10 "../os/rt/include/chsem.h"
 1147              		.file 11 "../os/rt/include/chmtx.h"
 1148              		.file 12 "../os/common/oslib/include/chmemcore.h"
 1149              		.file 13 "../os/common/oslib/include/chheap.h"
 1150              		.file 14 "../os/common/ext/CMSIS/include/core_cm3.h"