ARM GAS  /tmp/ccLjLudm.s 			page 1


   1              		.syntax unified
   2              		.cpu cortex-m3
   3              		.fpu softvfp
   4              		.eabi_attribute 20, 1
   5              		.eabi_attribute 21, 1
   6              		.eabi_attribute 23, 3
   7              		.eabi_attribute 24, 1
   8              		.eabi_attribute 25, 1
   9              		.eabi_attribute 26, 1
  10              		.eabi_attribute 30, 2
  11              		.eabi_attribute 34, 1
  12              		.eabi_attribute 18, 4
  13              		.thumb
  14              		.file	"chmsg.c"
  15              		.text
  16              	.Ltext0:
  17              		.section	.gnu.lto_.jmpfuncs.d6cfd8af3b1c5fd5,"",%progbits
  18 0000 789C6362 		.ascii	"x\234cb`b\300\0064\24143\0033#S\004c&#\003\017\003\003"
  18      6062C006 
  18      34A13433 
  18      03332353 
  18      04632623 
  19 0018 23035035 		.ascii	"#\003P5\224\313\007\224cf\002)``,\003*\004\0009\234"
  19      94CB0794 
  19      63660229 
  19      60602C03 
  19      2A040039 
  20 002d 025F     		.ascii	"\002_"
  21              		.text
  22              		.section	.gnu.lto_.inline.d6cfd8af3b1c5fd5,"",%progbits
  23 0000 789C6362 		.ascii	"x\234cb`b\300\006\342\24043\003\203\210\014##\003#\220"
  23      6062C006 
  23      E2A03433 
  23      0383880C 
  23      23230323 
  24 0015 CD247E63 		.ascii	"\315$~c3#\003\347\0153\260\026&n\006\240(\230\234\340"
  24      332303E7 
  24      0D33B016 
  24      266E06A0 
  24      28989CE0 
  25 0029 C7C420C8 		.ascii	"\307\304 \310\017\344H\034\330\315\310\300\266@\036"
  25      0FE4481C 
  25      D8CDC8C0 
  25      B6401E
  26 0038 49013303 		.ascii	"I\0013\003\207\000P\206e\201<\\\202\231\007(9\301o\202"
  26      87005086 
  26      65813C5C 
  26      82990728 
  26      39C16F82 
  27 004c 1F0300E2 		.ascii	"\037\003\000\342\275\012T"
  27      BD0A54
  28              		.text
  29              		.section	.gnu.lto_.pureconst.d6cfd8af3b1c5fd5,"",%progbits
  30 0000 789C6362 		.ascii	"x\234cb`b`g\200\000f\006+&+f+\000\002\361\000\302"
  30      60626067 
  30      80006606 
  30      2B262B66 
ARM GAS  /tmp/ccLjLudm.s 			page 2


  30      2B0002F1 
  31              		.text
  32              		.section	.gnu.lto_chMsgSend.d6cfd8af3b1c5fd5,"",%progbits
  33 0000 789C9D54 		.ascii	"x\234\235T_h\024G\030\377\276\235\275\354y\311ecK\245"
  33      5F681447 
  33      18FFBE9D 
  33      BDEC79C9 
  33      65634BA5 
  34 0014 119B1E85 		.ascii	"\021\233\036\205\242\030\311\332\366\241\372b+\372R"
  34      A218C9DA 
  34      F6A1FA62 
  34      2BFA52
  35 0023 4A5E8CD2 		.ascii	"J^\214\322\366I6\343\221,\270\336y{\212\326\007\347"
  35      F64936E3 
  35      912CB8DE 
  35      797B8AD6 
  35      07E7
  36 0035 92145AAA 		.ascii	"\222\024Z\2524\344)\376\243\015\226bK!P(\264\225\312"
  36      34E429FE 
  36      A30D9662 
  36      4B215028 
  36      B495CA
  37 0048 95969018 		.ascii	"\225\226\220\030\022\025\037\324 z\024\332\246/\375"
  37      12151FD4 
  37      207A14DA 
  37      A62FFD
  38 0057 9717AB81 		.ascii	"\227\027\253\201\35373\273\233\273\323\232\340\036\267"
  38      EB3733BB 
  38      9BBBD39A 
  38      E01EB7
  39 0066 F3EDCC7C 		.ascii	"\363\355\314|\277\371\315\357\233\371\031`@\343\363"
  39      BFF9CDEF 
  39      9BF91960 
  39      40E3F3
  40 0075 32FD6F36 		.ascii	"2\375o6\001\314P\213\011@cx\026\240\2244\0146a\203H"
  40      01CC508B 
  40      09406378 
  40      16A09434 
  40      0C366183 
  41 008a 9997B781 		.ascii	"\231\227\267\201hah\352n\023Q\006\200p\334`&\036\177"
  41      686168EA 
  41      6E135106 
  41      8070DC60 
  41      261E7F
  42 009d 072506BE 		.ascii	"\007%\006\276\000cB\214T\336\373c\036O\211\362\320'"
  42      0063428C 
  42      54DEFB63 
  42      1E4F89F2 
  42      D027
  43 00af 62B15A45 		.ascii	"b\261ZE\364\220\326{\026\201#\274M\037\230Q\215a\326"
  43      F490D67B 
  43      168123BC 
  43      4D1F9851 
  43      8D61D6
  44 00c2 131837CA 		.ascii	"\023\0307\312\225ju\361\353\371\237\257\340\3525\014"
  44      956A75F1 
  44      EBF99FAF 
ARM GAS  /tmp/ccLjLudm.s 			page 3


  44      E0EA350C 
  45 00d2 5C1C23BC 		.ascii	"\\\034#\274\004\372\010\026\2750\011\036\262\024\275"
  45      04FA0816 
  45      BD30091E 
  45      B214BD
  46 00e1 CC34509F 		.ascii	"\3144P\237M\221LK\300\220\020\303\031=\333G\332\030"
  46      4D914C4B 
  46      C09010C3 
  46      193DDB47 
  46      DA18
  47 00f3 57FDBBE9 		.ascii	"W\375\273\351-)\356\241.j\331\014\014\314\215\022/\027"
  47      2D29EEA1 
  47      2E6AD90C 
  47      0CCC8D12 
  47      2F17
  48 0105 CFD3F6FA 		.ascii	"\317\323\366\372\220u\302\027\202\236\267\010\246\023"
  48      9075C217 
  48      829EB708 
  48      A613
  49 0113 367A9838 		.ascii	"6z\2308\003\247KB\264y\330t\014\356\213\367ed\371\310"
  49      03A74B42 
  49      B479D874 
  49      0CEE8BF7 
  49      6564F9C8 
  50 0127 084BD2B5 		.ascii	"\010K\322\265\024\311^\204\260\015\003\230\202\201\362"
  50      14C95E84 
  50      B00D0398 
  50      8281F2
  51 0136 731A5473 		.ascii	"s\032Ts\350\223)\324\233\004\010\345\370\367\302\314"
  51      E89329D4 
  51      9B0408E5 
  51      F8F7C2CC 
  52 0146 0F383228 		.ascii	"\01782(&\305P\231\364x\336\303\244\001;\227\323C\366"
  52      26C55099 
  52      F478DEC3 
  52      A4013B97 
  52      D343F6
  53 0159 253314CC 		.ascii	"%3\024\314\302\300\337\247\007?[\033\3564\332ry\341"
  53      C2C0DFA7 
  53      073F5B1B 
  53      EE34DA72 
  53      79E1
  54 016b DA19B6C1 		.ascii	"\332\031\266\301\305\013\264f\334w\361\243{\315\353"
  54      C50BB466 
  54      DC77F1A3 
  54      7BCDEB
  55 017a E2AF0FEE 		.ascii	"\342\257\017\356\020K\315\215\243\\\317\240?S\225\242"
  55      104BCD8D 
  55      A35CCFA0 
  55      3F5395A2 
  56 018a DF308524 		.ascii	"\3370\205$\027\323\207\241\003\306\360\234\030}\335"
  56      17D387A1 
  56      03C6F09C 
  56      187DDD
  57 0199 C35575AB 		.ascii	"\303Uu\253/\215\177\032\216\2474?\022t\372\233?\257"
  57      2F8D7F1A 
  57      8EA7343F 
ARM GAS  /tmp/ccLjLudm.s 			page 4


  57      1274FA9B 
  57      3FAF
  58 01ab 1A1A3F54 		.ascii	"\032\032?T\363\025\017\233\3030\355a\013IJ8i\222D\342"
  58      F3150F9B 
  58      C330ED61 
  58      0B494A38 
  58      699244E2 
  59 01bf 45D21961 		.ascii	"E\322\031a\253\230\220^\011\005v\177\360\301I\026U'"
  59      AB98905E 
  59      0905767F 
  59      F0C14916 
  59      5527
  60 01d1 790CDEF5 		.ascii	"y\014\336\365d\215\2500\2551\212U\213R#\327\024\204"
  60      648DA830 
  60      AD318A55 
  60      8B5223D7 
  60      1484
  61 01e3 2CB4E0E5 		.ascii	",\264\340\345\273\023\323(FD\351\257j\325V\207\357K"
  61      BB13D328 
  61      4644E9AF 
  61      6AD55687 
  61      EF4B
  62 01f5 5C4EEDA8 		.ascii	"\\N\355\250j\225K\3741P\314\200\361\025@%\265:\213\337"
  62      6A954BFC 
  62      3150CC80 
  62      F1154025 
  62      B53A8BDF 
  63 0209 DD3AFBA3 		.ascii	"\335:\373\243\335X\266\017\357\276\344\342E*\232\213"
  63      DD58B60F 
  63      EFBEE4E2 
  63      452A9A8B 
  64 0219 DFAAD245 		.ascii	"\337\252\322E\005R0Z\274\312\215\351_\332\327\251\223"
  64      0552305A 
  64      BCCA8DE9 
  64      5FDAD7A9 
  64      93
  65 022a A9B46CD6 		.ascii	"\251\264l\326*\350\343\331(gBB\\\222M/6\305q\304bnt"
  65      2AE8E3D9 
  65      28674242 
  65      5C924D2F 
  65      36C571C4 
  66 0241 E1C49B2E 		.ascii	"\341\304\233.~\257d\265\225\240\020C\265\206\232\262"
  66      7EAF64B5 
  66      95A01043 
  66      B5869AB2 
  67 0251 4D1ACA8A 		.ascii	"M\032\312\212\323U\356\324U[g\2064\266>\001#\253\206"
  67      D355EED4 
  67      555B6786 
  67      34B63E01 
  67      23AB86
  68 0264 911D9E9A 		.ascii	"\221\035\236\232\205\023\333\352p\017.\341\3664\340"
  68      8513DBEA 
  68      700F2EE1 
  68      F634E0
  69 0273 DA2BD929 		.ascii	"\332+\331)\323\2707\033q\323+\333k\0040w{\361d{t\002"
  69      D3B8371B 
  69      71D32BDB 
ARM GAS  /tmp/ccLjLudm.s 			page 5


  69      6B043077 
  69      7BF1647B 
  70 0289 534A2AFB 		.ascii	"SJ*\373\321g/\031\226z\022~\372\255\224\216S\344\024"
  70      D1672F19 
  70      967A127E 
  70      FAAD948E 
  70      53E414
  71 029c B3B5E628 		.ascii	"\263\265\346(\354!\344\011\233]\201\241\312\344\371"
  71      EC21E409 
  71      9B5D81A1 
  71      CAE4F9
  72 02ab D07A0062 		.ascii	"\320z\000b{i\343Zj\312\265<\\\035\345\230\312\260d\322"
  72      7B69E35A 
  72      6ACAB53C 
  72      5C1DE598 
  72      CAB064D2 
  73 02bf E5C1D443 		.ascii	"\345\301\324CIOq\271\367\360\212\232-d\203Ok\366\367"
  73      494F71B9 
  73      F7F08A9A 
  73      2D64834F 
  73      6BF6F7
  74 02d2 FED91231 		.ascii	"\376\331\0221I\207\002\274\266t\035\267.{\035W\305\267"
  74      498702BC 
  74      B6741DB7 
  74      2E7B1D57 
  74      C5B7
  75 02e4 69A06C69 		.ascii	"i\240li$\362Y\002k\264\263\371\331F;s\361s\345-\313"
  75      24F25902 
  75      6BB4B3F9 
  75      D9463B73 
  75      F173E52D 
  76 02f9 FA990CFE 		.ascii	"\372\231\014\376\327\317~?'\375\354z\275\237}\234\356"
  76      D7CF7E3F 
  76      27FDEC7A 
  76      BD9F7D9C 
  76      EE
  77 030a 884D7EC9 		.ascii	"\210M~\311\330~\25516\345\314\234\260\037\3666\027\307"
  77      D87EAD31 
  77      36E5CC9C 
  77      B01FF636 
  77      17C7
  78 031c 2988578E 		.ascii	")\210W\216\274\314\305\257\260C\263\272\006\245\312"
  78      BCCCC5AF 
  78      B043B3BA 
  78      06A5CA
  79 032b 2C8F75D3 		.ascii	",\217u\323\235\273\351\216S\011\344\334g\272\272\234"
  79      9DBBE98E 
  79      5309E4DC 
  79      67BABA9C 
  80 033b 5CE0148A 		.ascii	"\\\340\024\212NP\340\016\357\367\203\276.\016\214\027"
  80      4E50E00E 
  80      EFF783BE 
  80      2E0E8C17 
  81 034b F3EBF508 		.ascii	"\363\353\365\010\317\371~\356\200\223\317\025\212\201"
  81      CFF97EEE 
  81      8093CF15 
  81      8A81
ARM GAS  /tmp/ccLjLudm.s 			page 6


  82 0359 B37D57F7 		.ascii	"\263}W\367\216\356#4\215\347\012\331\275\207_\365\273"
  82      8EEE2334 
  82      8DE70AD9 
  82      BD875FF5 
  82      BB
  83 036a FA2171D8 		.ascii	"\372!q\330\335\177(\333Y7;{\244\350\354\350\356y\243"
  83      DD7F28DB 
  83      59373B7B 
  83      A4E8ECE8 
  83      EE79A3
  84 037d C7F10EF0 		.ascii	"\307\361\016\360\375\207\366e\035\356\007^\260\267\217"
  84      FD87F665 
  84      1DEE075E 
  84      B0B78F
  85 038c 73CA688F 		.ascii	"s\312h\217\327\214G\373\203\243\001\215\264u\367\354"
  85      D78C47FB 
  85      83A3018D 
  85      B475F7EC 
  86 039c CAF4BA41 		.ascii	"\312\364\272A6_\3606e^\334\014F\001,?\353\347\012G\301"
  86      365FF036 
  86      655EDC0C 
  86      46012C3F 
  86      EBE70A47 
  87 03b1 28E659F1 		.ascii	"(\346Y\361`~\355\243\222y\377>\312\376\017\362\274\322"
  87      607EEDA3 
  87      9279FF3E 
  87      CAFE0FF2 
  87      BCD2
  88 03c3 7A       		.ascii	"z"
  89              		.text
  90              		.section	.gnu.lto_chMsgWait.d6cfd8af3b1c5fd5,"",%progbits
  91 0000 789C9D55 		.ascii	"x\234\235U]h\024W\024>\347\316\354N\222\375Q*\005#m"
  91      5D681457 
  91      143EE7CE 
  91      EC4E92FD 
  91      512A0523 
  92 0015 BA08A5C5 		.ascii	"\272\010\245\305hF\360A\362f\311S\301\274\030\305\366"
  92      6846F041 
  92      F266C953 
  92      C1BC18C5 
  92      F6
  93 0026 4926E3B2 		.ascii	"I&\343\262;\340\272qg\0255\017\336\374\010Z\265F\237"
  93      3BE0BA71 
  93      6715350F 
  93      DEFC085A 
  93      B5469F
  94 0039 D4101A9B 		.ascii	"\324\020\032\233\266\024\013m\251m\365\241\245[\232"
  94      B6140B6D 
  94      A96DF5A1 
  94      A55B9A
  95 0048 6A2418C9 		.ascii	"j$\030\311\203\340\317\203\253\2456\202\245\372 \011"
  95      83E0CF83 
  95      ABA53682 
  95      A5FA2009 
  96 0058 12B33DF7 		.ascii	"\022\263=\367\336\231\331\314\022M\360.3\367\314\375"
  96      DE99D9CC 
  96      124DF02E 
ARM GAS  /tmp/ccLjLudm.s 			page 7


  96      33F7CCFD 
  97 0068 F9CE77BE 		.ascii	"\371\316w\276{\356Y\006\014j\333\006zV\033\000\177Q"
  97      7BEE5906 
  97      0C6ADB06 
  97      7A561B00 
  97      7F51
  98 007a 8F114036 		.ascii	"\217\021@60\001\320S\307\230\366\314\000\336\240\017"
  98      3001D053 
  98      C798F6CC 
  98      00DEA00F 
  99 008a 5E01E071 		.ascii	"^\001\340q\015u5\256#\012\003\020\0161M\307C\037\243"
  99      0D7535AE 
  99      230A0310 
  99      0E314DC7 
  99      431FA3
 100 009d 00C1D570 		.ascii	"\000\301\325p\236\363\323\345\303sSx\226\227\372\207"
 100      9EF3D3E5 
 100      C3735378 
 100      9697FA87 
 101 00ad F96CA582 		.ascii	"\371l\245\202\350 9\\\211`#|D\037\230\222\035\323\303"
 101      E820395C 
 101      8960237C 
 101      441F9892 
 101      1DD3C3
 102 00c0 0CBE63A5 		.ascii	"\014\276c\245r\2452\373\353\343\373\307\360\215\025"
 102      72A532FB 
 102      EBE3FBC7 
 102      F08D15
 103 00cf 3AD0AEA8 		.ascii	":\320\256\250x\031\364\322b\302\212\013+\001\026\236"
 103      7819F4D2 
 103      62C28A0B 
 103      2B01169E 
 104 00df 27474931 		.ascii	"'GI1B-\002\375\234\017\244\324 \010\037\324\266\322"
 104      422D02FD 
 104      9C0FA4D4 
 104      20081FD4 
 104      B6D2
 105 00f1 5BF0DB86 		.ascii	"[\360\333\206L\364\3325\350\255\243\370\024\273\351"
 105      4CF4DA35 
 105      E8ADA3F8 
 105      14BBE9
 106 0100 AFAFFF8E 		.ascii	"\257\257\377\216\247\373\370\030\357/\021\275w\034\324"
 106      A7FBF818 
 106      EF2F11BD 
 106      771CD4
 107 010f 19B42D46 		.ascii	"\031\264-FO\214\351)2&\240\367\351\331\276\257Vy\216"
 107      4F8CE929 
 107      3226A0F7 
 107      E9D9BEAF 
 107      56798E
 108 0122 7D06A5FF 		.ascii	"}\006\245\377&\007\265\367-\374B\322\360\306.\235\234"
 108      2607B5F7 
 108      2DFC42D2 
 108      F0C62E9D 
 108      9C
 109 0133 89BD157C 		.ascii	"\211\275\025|\035}A\264,\034!}m\024\376\030=\232\024"
 109      1D7D41B4 
ARM GAS  /tmp/ccLjLudm.s 			page 8


 109      2C1C217D 
 109      6D14FE18 
 109      3D9A14
 110 0146 8E7E27C9 		.ascii	"\216~'\311\244s\321\324\3414\3010\016\3613\233\034Z"
 110      A473D1D4 
 110      E134C130 
 110      0EF1339B 
 110      1C5A
 111 0158 3CDF7B75 		.ascii	"<\337{u~\304\233\217*~\327\241\367\316\314\334\014S"
 111      7EC49B8F 
 111      2A7ED7A1 
 111      F7CECCDC 
 111      0C53
 112 016a F819D49B 		.ascii	"\370\031\324\233a\015)\324\014\0278\265=\016\032\203"
 112      610D29D4 
 112      0C1738B5 
 112      3D0E1A83 
 113 017a 70AE87F3 		.ascii	"p\256\207\363\345\016\326u\303s~DX\3659\364\321\353"
 113      E50ED675 
 113      C3737E44 
 113      58F539F4 
 113      D1EB
 114 018c 254A2782 		.ascii	"%J'\202\327{\006\220t%S\201*\375J\367\256\236h\344\303"
 114      D77B0690 
 114      74255381 
 114      2AFD4AF7 
 114      AE9E68E4 
 115 01a1 BD037C8E 		.ascii	"\275\003|\216\324#\027\026~.#y\225z\304GQ\234\375\371"
 115      D4231716 
 115      7E2E2379 
 115      957AC447 
 115      519CFDF9 
 116 01b5 F6B983B5 		.ascii	"\366\271\203\265\322\215\277x\032\261\360\242T\316\327"
 116      D28DBF78 
 116      1AB1F0A2 
 116      54CED7
 117 01c4 4757DB62 		.ascii	"GW\333b*\200\362\245\361\233\223\250U\003\332\356`C"
 117      2A80F2A5 
 117      F19B93A8 
 117      5503DAEE 
 117      6043
 118 01d6 10508CE0 		.ascii	"\020P\214\340\205W\237;\0230?\011\345:\205\276\236-"
 118      85579F3B 
 118      13303F09 
 118      E53A85BE 
 118      9E2D
 119 01e8 093CEFBB 		.ascii	"\011<\357\273\240Y\370\243\224(\336\015\007)\243<\304"
 119      A059F8A3 
 119      9428DE0D 
 119      0729A33C 
 119      C4
 120 01f9 BBB834C8 		.ascii	"\273\2704\310\000m\014F\377\271\377\367\334z_q\332\022"
 120      006D0C46 
 120      FFB9FFF7 
 120      DC7A5F71 
 120      DA12
 121 020b AF46BC8D 		.ascii	"\257F\274\215<?3\264\033\320_\236\375\243A\255\001\010"
ARM GAS  /tmp/ccLjLudm.s 			page 9


 121      3C3F33B4 
 121      1BD05F9E 
 121      FDA341AD 
 121      0108
 122 021d 948FDB0A 		.ascii	"\224\217\333\012D\252\225\020\311\234\364\367\3512e"
 122      44AA9510 
 122      C99CF4F7 
 122      E93265
 123 022c 8558B72A 		.ascii	"\205X\267*\2674\037=\352\237\347\232\327>J\031\376C"
 123      B7341F3D 
 123      EA9FE79A 
 123      D73E4A19 
 123      FE43
 124 023e F4118D50 		.ascii	"\364\021\215P\370\247\274\360Q\306\036\255\211\335o"
 124      F8A7BCF0 
 124      51C61EAD 
 124      89DD6F
 125 024d 221B5A5F 		.ascii	"\"\033Z_\225\015\032\203?q\261\273D\276U6\374\362pr"
 125      950D1A83 
 125      3F71B1BB 
 125      44BE5536 
 125      FCF27072 
 126 0261 68C4F0D2 		.ascii	"h\304\360\322A\001\362\0378\257\227\205C[bn\005it\254"
 126      4101F21F 
 126      38AF9785 
 126      435B626E 
 126      056974AC 
 127 0275 6259381A 		.ascii	"bY8\032\312\242\250r\227\360\262\350\342\247\3776\256"
 127      CAA2A872 
 127      97F0B2E8 
 127      E2A7FF36 
 127      AE
 128 0286 23D840BF 		.ascii	"#\330@\277\006/Tm\255\012Uf\313\230:\032\021\353\333"
 128      062F546D 
 128      AD0A5566 
 128      CB983A1A 
 128      11EBDB
 129 0299 165EA12F 		.ascii	"\026^\241/\013\257\022,\341(\332g\246\217oV\023\031"
 129      0BAF122C 
 129      E128DA67 
 129      A68F6F56 
 129      1319
 130 02ab 4C86EE59 		.ascii	"L\206\356YwM\016%\346\353\250\007\340aG\004y\355\373"
 130      774D0E25 
 130      E6EBA807 
 130      E0614704 
 130      79EDFB
 131 02be A402F470 		.ascii	"\244\002\364p\022K#\231\021YC\333\307/O\037o\015\001"
 131      124B2399 
 131      115943DB 
 131      C72F4F1F 
 131      6F0D01
 132 02d1 6CAF726A 		.ascii	"l\257rj\255\341\224|\031\247\310<\\C\306\377\344\301"
 132      ADE1947C 
 132      19A7C83C 
 132      5C43C6FF 
 132      E4C1
ARM GAS  /tmp/ccLjLudm.s 			page 10


 133 02e3 6F2B9594 		.ascii	"o+\225\224~}\225\356.\317T\246\2744\362|\304\034\\\026"
 133      7E7D95EE 
 133      2ECF54A6 
 133      BC34F27C 
 133      C41C5C16 
 134 02f7 244F28E8 		.ascii	"$O(\350h5\313\023J\324y\225xj\242\266\022[\370\345\242"
 134      6835CB13 
 134      4AD47995 
 134      786AA2B6 
 134      125BF8E5 
 135 030c 072E8BA1 		.ascii	"\007.\213\2410^Z\212\037\015\211R|3\\\212?K4\005\177"
 135      305E5A8A 
 135      1F0D8952 
 135      7C335C8A 
 135      3F4B3405 
 136 0321 17D59A3C 		.ascii	"\027\325\232<\312\252\331b\010P\033\353\026(\313\026"
 136      CAAAD962 
 136      08501BEB 
 136      1628CB16 
 137 0331 7E4346E0 		.ascii	"~CF\340\331/\303\026~\213M\212\325$\364\224?I\373\227"
 137      D92FC316 
 137      7E8B4D8A 
 137      D524F494 
 137      3F49FB97 
 138 0345 2BA106B7 		.ascii	"+\241\006\267\322]\240\333,\326\276\331\322b\346]\263"
 138      D25DA0DB 
 138      2CD6BED9 
 138      D262E65D 
 138      B3
 139 0356 5034DD82 		.ascii	"P4\335\202m\332\331\234\233i\261\201\025\273\336S\023"
 139      6DDAD99C 
 139      9B69B181 
 139      15BBDE53 
 139      13
 140 0367 763E97CB 		.ascii	"v>\227\313\3576\273\362\205\242k~\260\245\275\255}?"
 140      EF36BBF2 
 140      85A26B7E 
 140      B0A5BDAD 
 140      7D3F
 141 0379 ADB2F385 		.ascii	"\255\262\363\205\364\216}\033s-Y\210\354\263v\355M7"
 141      F48E7D1B 
 141      732D5988 
 141      ECB376ED 
 141      4D37
 142 038b 8756A7F7 		.ascii	"\207V\247\367\027\315\266\366\216\017;Lg\267\275k\357"
 142      17CDB6F6 
 142      8E0F3B4C 
 142      67B7BD6B 
 142      EF
 143 039c CEB469E7 		.ascii	"\316\264i\347\\\307\335\221\261m\332\321\030\270\014"
 143      5CC7DD91 
 143      B16DDAD1 
 143      18B80C
 144 03ab 66B3EE01 		.ascii	"f\263\356\001\227f\226\267wlIuZn\272\253\340\254M\275"
 144      976696B7 
 144      776C4975 
 144      5A6EBAAB 
ARM GAS  /tmp/ccLjLudm.s 			page 11


 144      E0AC4DBD 
 145 03bf BB1E5801 		.ascii	"\273\036X\001\214\\:\227/\034Xp\227 \233\005\255\270"
 145      8C5C3A97 
 145      2F1C5870 
 145      97209B05 
 145      ADB8
 146 03d1 A76BD542 		.ascii	"\247k\325B\230vv'M\377\017\307\230\366G"
 146      98767627 
 146      4DFF0FC7 
 146      98F647
 147              		.text
 148              		.section	.gnu.lto_chMsgRelease.d6cfd8af3b1c5fd5,"",%progbits
 149 0000 789C8D52 		.ascii	"x\234\215RAh\023Q\020\235\371\333m\242\"\366\342\241"
 149      41681351 
 149      109DF9DB 
 149      6DA222F6 
 149      E2A1
 150 0012 22712914 		.ascii	"\"q)\024\005%\353\315k\245'\017\2714\025\364T\326\357"
 150      0525EBCD 
 150      6BA5270F 
 150      B93415F4 
 150      54D6EF
 151 0025 922C74BB 		.ascii	"\222,t\273a7--\036\372\223V\320\"\032r\022$\330*J\265"
 151      61372D2D 
 151      1EFA9356 
 151      D0221A72 
 151      1224D82A 
 152 003b B685E259 		.ascii	"\266\205\342Y\343\255\245\030)\250'\301\200\027\275"
 152      E3ADA518 
 152      29A827C1 
 152      8017BD
 153 004a 35B7A2C2 		.ascii	"5\267\242\302:\1777Y\223P\332.\374\377gg\346\317{3\357"
 153      3A7F3759 
 153      9350DA2E 
 153      FCFF6767 
 153      E6CF7B33 
 154 005f 3360D0FD 		.ascii	"3`\320\375\365\323R\024\200M:Q\001d\245\032@!\316\020"
 154      F5D35214 
 154      804D3A51 
 154      0164A51A 
 154      4021CE10 
 155 0073 A50108B3 		.ascii	"\245\001\010\263\014gob\220\273\316\252u\337_{\267\260"
 155      0C676F62 
 155      90BBCEAA 
 155      75DF5F7B 
 155      B7B0
 156 0085 F60D5FB3 		.ascii	"\366\015_\263\343\012\332\010=\264\311\250\012\363B"
 156      E30ADA08 
 156      3DB4C9A8 
 156      0AF342
 157 0094 94341B09 		.ascii	"\2244\033\011\202\007\351\243\264\313\032\327\311E\247"
 157      8207E9A3 
 157      B4CB1AD7 
 157      C945A7
 158 00a3 B205C538 		.ascii	"\262\005\3058\300\000,\011Q\2567\226?~\300\362\234\330"
 158      C0002C09 
 158      51AE3796 
ARM GAS  /tmp/ccLjLudm.s 			page 12


 158      3F7EC0F2 
 158      9CD8
 159 00b5 14F355DF 		.ascii	"\024\363U\337\307s\026\022\267!\224Wo\240\205\250\005"
 159      C7731612 
 159      B7219457 
 159      6FA085A8 
 159      05
 160 00c6 07EBE924 		.ascii	"\007\353\351$+}\240\221Q\203b\343\341\334\3133M\324"
 160      2B7DA091 
 160      518362E3 
 160      E1DCCB33 
 160      4DD4
 161 00d8 167CF5C7 		.ascii	"\026|\365\307\316\023\345\202\201\317p \242T]y\264w"
 161      CE13E582 
 161      81CF7020 
 161      A2545D79 
 161      B477
 162 00ea E26CF4B7 		.ascii	"\342l\364\267\365\231\010\032\270\204*aI<FK\201\240"
 162      F599081A 
 162      B8842A61 
 162      493C464B 
 162      81A0
 163 00fc 55840764 		.ascii	"U\204\007dR\\\011\007\225\200\012V\304\343!+L\210\320"
 163      525C0907 
 163      95800A56 
 163      C4E3212B 
 163      4C88D0
 164 010f FFC7179B 		.ascii	"\377\307\027\233\361&\317\366\026\253\357\027\266Q\224"
 164      F126CFF6 
 164      16ABEF17 
 164      B65194
 165 011e 4561D7F7 		.ascii	"Ea\327\367OY\2502X\306\303\372\313H\240\266\"%\261!"
 165      4F59A832 
 165      58C6C3FA 
 165      CB48A0B6 
 165      2225B121 
 166 0132 C4B145F1 		.ascii	"\304\261E\361\327\367\025\013{\031\254\034\241\0049"
 166      D7F7150B 
 166      7B19AC1C 
 166      A10439
 167 0141 3EC1DDDD 		.ascii	">\301\335\335\357/\376\354a\367|\266\277\024U\003\327"
 167      EF2FFEEC 
 167      61F77CB6 
 167      BF145503 
 167      D7
 168 0152 693C06AE 		.ascii	"i<\006\256\006Cj\215\242Y\346\016\374\026\367D\237\205"
 168      06436A8D 
 168      A259E60E 
 168      FC16F744 
 168      9F85
 169 0164 318E94B9 		.ascii	"1\216\224\271A\261\220\027\325\2650\336\331b\275\361"
 169      41B19017 
 169      D5B530DE 
 169      D962BDF1 
 170 0174 B3D6ADA2 		.ascii	"\263\326\255\242\201\317\203\221\036*#\034$\343\257"
 170      81CF8391 
 170      1E2A231C 
ARM GAS  /tmp/ccLjLudm.s 			page 13


 170      24E3AF
 171 0183 8A94F16D 		.ascii	"\212\224\361m\247\214OO&\242w\026\271\357\177m\323\263"
 171      A78C4F4F 
 171      26A27716 
 171      B9EF7F6D 
 171      D3B3
 172 0195 5716E518 		.ascii	"W\026\345\030\333GR\003_\221\021!\267$4\360\015&B\317"
 172      DB475203 
 172      5F911121 
 172      B72434F0 
 172      0D2642CF 
 173 01a9 0E14EAAB 		.ascii	"\016\024\352\253\203a\251\3267J\363\246\267+SO'\223"
 173      8361A9D6 
 173      374AF3A6 
 173      B72B534F 
 173      2793
 174 01bb BAE3E96E 		.ascii	"\272\343\351n^\367\\\256\363\254\355e\222\034\316\207"
 174      5EF75CAE 
 174      F3ACED65 
 174      921CCE87 
 175 01cb 5EEED8B6 		.ascii	"^\356\330\2663\241\347\0347\357\351WGR\303\251iJ\341"
 175      33A1E71C 
 175      37EFE957 
 175      4752C3A9 
 175      694AE1
 176 01de 8E6B8E4D 		.ascii	"\216k\216M]\261\223YP\247\214\361I\363bG\2669\235\327"
 176      5DB19359 
 176      50A78CF1 
 176      49F36247 
 176      B6399DD7 
 177 01f2 8753E96B 		.ascii	"\207S\351ki\335\232\340\343\223\267M\235\333\236\345"
 177      69DD9AE0 
 177      E393B74D 
 177      9DDB9EE5 
 178 0202 8D6538A7 		.ascii	"\215e8\247\033\375\021^\024\315z3\036E\372R\351\021"
 178      1BFD115E 
 178      14CD7A33 
 178      1E45FA52 
 178      E911
 179 0214 ED96E199 		.ascii	"\355\226\341\2319\327\272\244\015^\006\346B\3146m\307"
 179      39D7BAA4 
 179      0D5E06E6 
 179      42CC366D 
 179      C7
 180 0225 9D0196CF 		.ascii	"\235\001\226\317)\304l\277\313\222p\026\376\001\015"
 180      29C46CBF 
 180      CB927016 
 180      FE010D
 181 0234 49F231   		.ascii	"I\3621"
 182              		.text
 183              		.section	.gnu.lto_.symbol_nodes.d6cfd8af3b1c5fd5,"",%progbits
 184 0000 789C45C8 		.ascii	"x\234E\310\273\015\2000\020\203a\373.\241d\005F=$\032"
 184      BB0D8030 
 184      108361FB 
 184      2EA16405 
 184      463D241A 
 185 0014 44C5046C 		.ascii	"D\305\004lA\307\263@\351\330\001\3212\003\"\022\210"
ARM GAS  /tmp/ccLjLudm.s 			page 14


 185      41C7B340 
 185      E9D801D1 
 185      32032212 
 185      88
 186 0025 B8FA3F0B 		.ascii	"\270\372?\013\004\206o20v\273\003f]M?3\026d\2441\275"
 186      04866F32 
 186      3076BB03 
 186      665D4D3F 
 186      331664A4 
 187 003b 32D12491 		.ascii	"2\321$\221+M_\226%\271\320\\\322F\363\277\024\036g\010"
 187      2B4D5F96 
 187      25B9D05C 
 187      D246F3BF 
 187      141E6708 
 188 004f AA70A89A 		.ascii	"\252p\250\232\253Pq8\373\\5Cu\334\304\003p%%9"
 188      AB507138 
 188      FB5C3543 
 188      75DCC403 
 188      70252539 
 189              		.text
 190              		.section	.gnu.lto_.refs.d6cfd8af3b1c5fd5,"",%progbits
 191 0000 789C6362 		.ascii	"x\234cb`b\340f\200\000F bb\002R\214\014\000\001s\000"
 191      6062E066 
 191      80004620 
 191      62620252 
 191      8C0C0001 
 192 0016 18       		.ascii	"\030"
 193              		.text
 194              		.section	.gnu.lto_.decls.d6cfd8af3b1c5fd5,"",%progbits
 195 0000 789CBD5A 		.ascii	"x\234\275Z{tT\325\271?\373\234If&\011\017mu\301\255"
 195      7B7454D5 
 195      B93FFB9C 
 195      49662609 
 195      0F6D75C1 
 196 0015 6DE3AD7D 		.ascii	"m\343\255},{/A\333*v\255V-\367.a\265v\261`\271\332\277"
 196      2C7B2F41 
 196      DB2A76AD 
 196      562DF72E 
 196      61B576B1 
 197 002d 3A1E2687 		.ascii	":\036&\207$\327y9s\222\220\373\217'\001\022D\224@@@"
 197      24D77939 
 197      739290FB 
 197      8F270112 
 197      44944040 
 198 0042 10C2C362 		.ascii	"\020\302\303b\025ATHy4\214\266\201\000\201\204H\210"
 198      15415448 
 198      79348CB6 
 198      81008184 
 198      4888
 199 0054 4281B182 		.ascii	"B\201\261\202\326\313C\"\017\301\032\322o\177\3471\347"
 199      D6CB4322 
 199      0FC11AD2 
 199      6F7FE731 
 199      E7
 200 0065 EC3967E6 		.ascii	"\3549g\346L\250\367\254\265\367\3549\263\277\337\376"
 200      4CA8F7AC 
 200      B5F7EC39 
ARM GAS  /tmp/ccLjLudm.s 			page 15


 200      B3BFDFFE 
 201 0075 DEFB353C 		.ascii	"\336\3735<\307sw\361\0347\004O\315O9\356o\005\034\347"
 201      C77377F1 
 201      1C37044F 
 201      CD4F39EE 
 201      6F051CE7 
 202 0089 E138EEE7 		.ascii	"\3418\356\347P\210V\350S\010e\015\224 \274\250\200\022"
 202      508856E8 
 202      5308650D 
 202      9420BCA8 
 202      8012
 203 009b 85928052 		.ascii	"\205\222\200RK\324>uzG\355\241}\277\016e\023\224\221"
 203      4BD43E75 
 203      7A47EDA1 
 203      7DBF0E65 
 203      139491
 204 00ae 504AA074 		.ascii	"PJ\240tj}\353\241\372_(\373\240t\300\367\375\360\331"
 204      6A7DEBA1 
 204      FA5F28FB 
 204      A074C0F7 
 204      FDF0D9
 205 00c1 05651DB4 		.ascii	"\005e\035\264\307\302\347f\370\334\006\305\003\355C"
 205      C7C2E766 
 205      F8DC06C5 
 205      03ED43
 206 00d0 506428DD 		.ascii	"Pd(\335PbP\212\340\275\002\237\363\241\214\201\362}"
 206      5062508A 
 206      E0BD029F 
 206      F3A18C81 
 206      F27D
 207 00e2 2853A16C 		.ascii	"(S\241l\205\367\273\240\264C\021\340\3737\240\3705>"
 207      85F7BBA0 
 207      B44311E0 
 207      FB37A0F8 
 207      353E
 208 00f4 7AA07D04 		.ascii	"z\240}\004J?\224\224\3067\345\377\023(\347\210*\357"
 208      4A3F9494 
 208      C637E5FF 
 208      1328E788 
 208      2AEF
 209 0106 E3F0F93B 		.ascii	"\343\360\371;(\237\222LY\250\314\243md1\363n\226\211"
 209      289F924C 
 209      59A8CCA3 
 209      6D6431F3 
 209      6E9689
 210 0119 F24E65E8 		.ascii	"\362Ne\350\326\344\245|SY\274&\336)\317\224\337\255"
 210      D6E4A57C 
 210      5359BC26 
 210      DE29CF94 
 210      DFAD
 211 012b 269EFDDA 		.ascii	"&\236\375\332Xf~\257h\274\3360\361k\247\357\012\215"
 211      58667EAF 
 211      68BCDE30 
 211      F16BA7EF 
 211      0A8D
 212 013d BEC3C4A3 		.ascii	"\276\303\304\243\316\033\345\233\352\326\003v\256\324"
 212      CE1BE59B 
ARM GAS  /tmp/ccLjLudm.s 			page 16


 212      EAD60376 
 212      AED4
 213 014b E87C1A8D 		.ascii	"\350|\032\215y\254\002^\265\247>\216\000}B\360\031\246"
 213      79AC025E 
 213      B5A73E8E 
 213      007D42F0 
 213      19A6
 214 015d 7AE7ADE3 		.ascii	"z\347\255\343}\233[\245\264\246Rg\316\376q\254\322\332"
 214      7D9B5BA5 
 214      B4A65267 
 214      CEFE71AC 
 214      D2DA
 215 016f 901C1A7A 		.ascii	"\220\034\032z\220\273\235[\242\300\323\332\250(D\366"
 215      90BB9D5B 
 215      A2C0D3DA 
 215      A82844F6 
 216 017f 7373B52F 		.ascii	"ss\265/\223:\201\237\337\022\221\214\364s\245\330(\361"
 216      933A819F 
 216      DF12918C 
 216      F473A5D8 
 216      28F1
 217 0191 A3CABFCB 		.ascii	"\243\312\277\313\255W\224\346\324\300\372\371?S\024"
 217      AD5794E6 
 217      D4C0FAF9 
 217      3F5314
 218 01a0 9F48D611 		.ascii	"\237H\326\021?8\343/\011w7\367\007 mV\224\265w3R\342"
 218      3F38E32F 
 218      097737F7 
 218      07206D56 
 218      94B57733 
 219 01b6 E31ABA75 		.ascii	"\343\032\272u`\317m\212G$\033\020\270\206p\"\371=\271"
 219      60CF6D8A 
 219      47241B10 
 219      B8867022 
 219      F93DB9
 220 01c9 3B5F94D4 		.ascii	";_\224\324\340\336\266\011\310\340+\210\263\221X\201"
 220      E0DEB609 
 220      C8E02B88 
 220      B3915881 
 221 01d9 4452E837 		.ascii	"DR\3507\263\207\337\365\016\024\015\276\322\221\256"
 221      B387DFF5 
 221      0E140DBE 
 221      D291AE
 222 01e8 D110234F 		.ascii	"\321\020#Oio\350\027/\367\377Ng'&\205XKn\307\226\300"
 222      696FE817 
 222      2FF7FF4E 
 222      67272685 
 222      584B6EC7 
 223 01fe A19D8BB9 		.ascii	"\241\235\213\271y\212\322\240)\347Vn!\305+5\251\251"
 223      798AD2A0 
 223      29E7566E 
 223      21C52B35 
 223      A9A9
 224 0210 D5A303FC 		.ascii	"\325\243\003\374WZO'\016\354\376)\352i3\271\025`\372"
 224      575A4F27 
 224      0EECFE29 
 224      EA6933B9 
ARM GAS  /tmp/ccLjLudm.s 			page 17


 224      1560FA
 225 0223 183DE584 		.ascii	"\030=\345\204\341\271\223H\362\006\220\253\204\010\254"
 225      E1B99348 
 225      F20690AB 
 225      8408AC
 226 0232 A4B62C38 		.ascii	"\244\266,8\321@\352\301\253\324\3378\013\254\345\271"
 226      D140EAC1 
 226      ABD4DF38 
 226      0BACE5B9 
 227 0242 936B0582 		.ascii	"\223k\005\202\344\347\373W\022\245\365\035b3\344C\372"
 227      E4E7FB57 
 227      12A5F51D 
 227      6233E443 
 227      FA
 228 0253 883E13E3 		.ascii	"\210>\023\343\317\034YHf#\3766d}\026o\313z\353CN@<\327"
 228      CF1C5948 
 228      6623FE36 
 228      647D166F 
 228      CB7AEB43 
 229 026b 8224DB33 		.ascii	"\202$\3333X\357\356\326Y\337\356\202\365\206\344\341"
 229      58EFEED6 
 229      59DFEE82 
 229      F586E4E1 
 230 027b 792F8EA5 		.ascii	"y/\216\245\254\213d\023)\006\334\365\006\256\235\351"
 230      AC8B6413 
 230      2906DCF5 
 230      06AE9DE9 
 231 028b B4A6FA68 		.ascii	"\264\246\372h\035\254x\275\373K\232E\035\354\017y\203"
 231      1DAC78BD 
 231      FB4B9A45 
 231      1DEC0F79 
 231      83
 232 029c 95DAB1AA 		.ascii	"\225\332\261\252\373]ZZ\221\354$\337\205z\027\271\023"
 232      FB5D5A5A 
 232      91EC24DF 
 232      857A17B9 
 232      13
 233 02ad EA76A88D 		.ascii	"\352v\250\215\207\3476\361\272U\355T\227[\204\353\373"
 233      87E736F1 
 233      BA55ED54 
 233      975B84EB 
 233      FB
 234 02be 57A24A30 		.ascii	"W\242J0b\033\\\245\224V-\245\274\203\021\373\026o\023"
 234      621B5CA5 
 234      94562DA5 
 234      BC8311FB 
 234      166F13
 235 02d1 FAEE801A 		.ascii	"\372\356\200\032;\336&\015h\276\016\204\3325l\250\301"
 235      3BDE260D 
 235      68BE0E84 
 235      DA356CA8 
 235      C1
 236 02e2 A65D0F20 		.ascii	"\246]\017 O\235\010\324\301\263Y\304\313d\021\2575\252"
 236      4F9D08D4 
 236      C1B359C4 
 236      CB6411AF 
 236      35AA
ARM GAS  /tmp/ccLjLudm.s 			page 18


 237 02f4 F167AD41 		.ascii	"\361g\255A\203y\024\367\025w\347\271\036\326pv\356\342"
 237      837914F7 
 237      1577E7B9 
 237      1ED67076 
 237      EEE2
 238 0306 73329C92 		.ascii	"s2\234\222z\275\373$\277\\I\316\026\364\370)t\322\021"
 238      7ABDFB24 
 238      BF5C49CE 
 238      16F4F829 
 238      74D211
 239 0319 640B1CEB 		.ascii	"d\013\034\353 \033?K\372\273\364\3709\350*~\266\356"
 239      201B3F4B 
 239      FABBF4F8 
 239      39E82A7E 
 239      B6EE
 240 032b 5F8ACE92 		.ascii	"_\212\316\2223\203\361\372\370w\341\370\215\002\035"
 240      3383F1FA 
 240      F877E1F8 
 240      8D021D
 241 033a BF971DBF 		.ascii	"\277\227\035\277\357\330_\347h\343\367\272\032\177{"
 241      EFD85FE7 
 241      68E3F7BA 
 241      1A7F7B
 242 0349 FFE2CCF1 		.ascii	"\377\342\314\361E\362\363\333\262\371\306\222\376\217"
 242      45F2F3DB 
 242      B2F9C692 
 242      FE8F
 243 0357 06B4518E 		.ascii	"\006\264Q\216b\240\356\020X\357x\260\330j?\370n\352"
 243      62A0EE10 
 243      58EF78B0 
 243      D86A3FF8 
 243      6EEA
 244 0369 C0737F36 		.ascii	"\300s\1776\370\037V\236\000A/,!\213f)\235\343u\036\366"
 244      F81F569E 
 244      00412F2C 
 244      218B6629 
 244      9DE3751E 
 245 037e E48D586A 		.ascii	"\344\215Xj\321\304\256~\314<*\330>7`\216\256\324\220"
 245      D1C4AE7E 
 245      CC3C2AD8 
 245      3E37608E 
 245      AED490
 246 0391 6C378375 		.ascii	"l7\203u\345\015f\345\254\307\014\326\355\006l\2643g"
 246      E50D66E5 
 246      ACC70CD6 
 246      ED066CB4 
 246      3367
 247 03a3 BD66B0DE 		.ascii	"\275f\260\336\274\301\254\234\0351\203\365\271\001\033"
 247      BCC1AC9C 
 247      1D3183F5 
 247      B9011B
 248 03b2 E3CCD951 		.ascii	"\343\314\331Q3\330\373y\203Y9{\317\014v\302\015X\251"
 248      33D8FB79 
 248      8359397B 
 248      CF0C76C2 
 248      0D58A9
 249 03c5 0D67C6E3 		.ascii	"\015g\306\343\264\0169L\014?\347\271\224\240\347\204"
ARM GAS  /tmp/ccLjLudm.s 			page 19


 249      B40E394C 
 249      0C3FE7B9 
 249      94A0E784 
 250 03d5 3C7D9A4B 		.ascii	"<}\232Kc|(\344\233\303,r\303\004~j-iQ\343B\235D?v\203"
 250      637C28E4 
 250      9BC32C72 
 250      C3047E6A 
 250      2D6951E3 
 251 03ef 98C5619A 		.ascii	"\230\305a\232\017\230f\344\363y\203Y\315\262\212\202"
 251      0F9866E4 
 251      F3798359 
 251      CDB28A82 
 252 03ff 59728D36 		.ascii	"Yr\2156#\245^J\216Y\226Nw>\035\213.\250\325\334\006"
 252      23A55E4A 
 252      8E59964E 
 252      773E1D8B 
 252      2EA8D5DC 
 253 0414 EB6BDEE8 		.ascii	"\353k\336\350\254\214\031c\337W$\227pf\277L\374\006"
 253      AC8C1963 
 253      DF572497 
 253      7066BF4C 
 253      FC06
 254 0426 176A5B6F 		.ascii	"\027j[o\015\021\252\347K\202\335R\035\001\262\223:y"
 254      0D11AAE7 
 254      4B82DD52 
 254      1D01B293 
 254      3A79
 255 0438 C280D913 		.ascii	"\302\200\331\023\256\271QS\226P\350qRS\262Q\231K\352"
 255      AEB95153 
 255      9650E871 
 255      5253B251 
 255      994BEA
 256 044b B7DC9175 		.ascii	"\267\334\221u}\270\244\377\302\032m\025p\035'\357A\301"
 256      7DB8A4FF 
 256      C21A6D15 
 256      701D27EF 
 256      41C1
 257 045d 7615E00A 		.ascii	"v\025\340\012l\240\261[_R|\211`s=\303\006k\035\334{"
 257      6CA0B15B 
 257      5F527C89 
 257      60733DC3 
 257      066B1DDC 
 258 0472 07DDE00C 		.ascii	"\007\335\340\014!\320B\017;i\370\231%\205\337:\351\373"
 258      21D0420F 
 258      3B69F899 
 258      2585DF3A 
 258      E9FB
 259 0484 FDE9C690 		.ascii	"\375\351\306\220\376X\315\370\225\3228\231\376\232\331"
 259      FE58CDF8 
 259      95D23899 
 259      FE9AD9
 260 0493 F42B3DF9 		.ascii	"\364+=\371\232\336\022!\260\010\271\312/U\222\365\202"
 260      9ADE1221 
 260      B008B9CA 
 260      2F5592F5 
 260      82
 261 04a4 C9D7B306 		.ascii	"\311\327\263\006\006\230\350\362Y\001\227j\263y\252"
ARM GAS  /tmp/ccLjLudm.s 			page 20


 261      0698E8F2 
 261      5901976A 
 261      B379AA
 262 04b3 D775F606 		.ascii	"\327u\366\006r\003\324\370\332\017\021\250\011\2016"
 262      7203D4F8 
 262      DA0F11A8 
 262      098136
 263 04c2 0E1B68B0 		.ascii	"\016\033h\260i\225\272\005\235\207@oeX\2320\226&V\013"
 263      6995BA05 
 263      9D87406F 
 263      65589A30 
 263      9626560B 
 264 04d6 1851A705 		.ascii	"\030Q\247\005\335W\325\227\347\332YsY\304\31125\030"
 264      DD57D597 
 264      E7DA5973 
 264      59C4C932 
 264      3518
 265 04e8 F9F6CB45 		.ascii	"\371\366\313E\344R\203\262l|\036j\276\250\331k\001j"
 265      E45283B2 
 265      6C7C1E6A 
 265      BEA8D96B 
 265      016A
 266 04fa E72F19DA 		.ascii	"\347/\031\332\241\352\317O\214\256\274\305\360Y\305"
 266      A1EACF4F 
 266      8CAEBCC5 
 266      F059C5
 267 0509 583094BF 		.ascii	"X0\224\277\030\32741\026\243\030\275\377\0021\216\345"
 267      18D73431 
 267      16A318BD 
 267      FF02318E 
 267      E5
 268 051a 2DC66893 		.ascii	"-\306h\223\030\270}]\254\316~_\343\026e_\302S~\226\363"
 268      18B87D5D 
 268      ACCE7E5F 
 268      E316655F 
 268      C2537E96 
 269 052f 5FB32C9F 		.ascii	"_\263,\237\223}\207H\251\372:\367\246\375\322\241\225"
 269      937D8748 
 269      A9FA3AF7 
 269      A6FDD2A1 
 269      95
 270 0540 DACE573D 		.ascii	"\332\316W=\010:\205\274S\332\341\254h\225ds7\316\263"
 270      083A85BC 
 270      53DAE1AC 
 270      68956473 
 270      37CEB3
 271 0553 2AD84737 		.ascii	"*\330G7\005\326\220\\\275@\337\226?H\247\355Oo\022n"
 271      05D6905C 
 271      BD40DF96 
 271      3F48A7ED 
 271      4F6F126E 
 272 0567 57373B1F 		.ascii	"W7;\0371\373\205\315\016\371\3168\261\330\243O\"\353"
 272      31FB85CD 
 272      0EF9CE38 
 272      B1D8A34F 
 272      22EB
 273 0579 78CAD0D5 		.ascii	"x\312\320\325\014g\331D\230\035\003}a\352\342d\303\265"
ARM GAS  /tmp/ccLjLudm.s 			page 21


 273      0C67D944 
 273      981D037D 
 273      61EAE264 
 273      C3B5
 274 058b BC29F93E 		.ascii	"\274)\371>]pS6\000\377\271\322\242\257\236TC,\270)\304"
 274      5D705336 
 274      00FFB9D2 
 274      A2AF9E54 
 274      432CB829 
 275 05a0 86E475CD 		.ascii	"\206\344u\315\020\271\366w\217\353X%(\310R\034\366U"
 275      10B9F677 
 275      8FEB5825 
 275      28C8521C 
 275      F655
 276 05b2 9ED9DE2D 		.ascii	"\236\331\336-?\233j\324\364H\177\313\355\244\307\317"
 276      3F9B6AD4 
 276      F4487FCB 
 276      EDA4C7CF 
 277 05c2 F8954525 		.ascii	"\370\225E%\3529\221H\222\204\327P\355\346\350\334.z"
 277      EA399148 
 277      9284D750 
 277      EDE6E8DC 
 277      2E7A
 278 05d4 52EA1C9F 		.ascii	"R\352\034\237\307A\351[\332\251\306\353\230\037\332"
 278      C741E95B 
 278      DAA9C6EB 
 278      981FDA
 279 05e3 0B58936F 		.ascii	"\013X\223o`g\201<\016\006!m\032*r\273Rf\037'\227z\305"
 279      6067813C 
 279      0E06216D 
 279      1A2A72BB 
 279      52661F27 
 280 05fa EC529D37 		.ascii	"\354R\2357\347\000\340R{\326\253.\225\313\005\024b^"
 280      E700E052 
 280      7BD6AB2E 
 280      95CB0514 
 280      625E
 281 060c 40C34E0F 		.ascii	"@\303N\017Gnc}`\340Bg\223\266\371ns\345\003Wl|\240m"
 281      476E637D 
 281      60E04267 
 281      93B6F96E 
 281      73E50357 
 282 0624 983E000E 		.ascii	"\230>\000\016\375\311>\202p\352\206\3403\203\311<\255"
 282      FDC93E82 
 282      70EA86E0 
 282      3383C93C 
 282      AD
 283 0635 A0C17D29 		.ascii	"\240\301})\345\253\030\325\273\222\357\237\241\251z"
 283      E5AB18D5 
 283      BB92EF9F 
 283      A1A97A
 284 0644 374FCF3F 		.ascii	"7O\317?\257e\270\226\252\031\223k\245\325(\222\355<"
 284      AF65B896 
 284      AA19936B 
 284      A5D52892 
 284      ED3C
 285 0656 DD21ECE0 		.ascii	"\335!\354\340\351\331\337N\254\377\304\233N\000\235"
ARM GAS  /tmp/ccLjLudm.s 			page 22


 285      E9D9DF4E 
 285      ACFFC49B 
 285      4E009D
 286 0665 DCA23DED 		.ascii	"\334\242=\355\026@\301\252\321\355>-\3470\333\314\336"
 286      1640C1AA 
 286      D1ED3E2D 
 286      E730DBCC 
 286      DE
 287 0676 A714DE9C 		.ascii	"\247\024\336\234\367\275\336}\310\203GZy\234!n\324\302"
 287      F7BDDE7D 
 287      C883475A 
 287      799C216E 
 287      D4C2
 288 0688 F62F18B6 		.ascii	"\366/\030\266M\205\254n;\330\260us6\3272\\A\214\207"
 288      4D85AC6E 
 288      3BD8B075 
 288      7336D732 
 288      5C418C87 
 289 069c E75E2874 		.ascii	"\347^(t\261\264.\265\321\271\236\335\027\034\325V\007"
 289      B1B42EB5 
 289      D1B99EDD 
 289      171CD556 
 289      07
 290 06ad 390FF88C 		.ascii	"9\017\370\214+\202\256z\355\244}?z\332JF\033.N\012_"
 290      2B82AE7A 
 290      EDA47D3F 
 290      7ADA4A46 
 290      1B2E4E0A 
 291 06c2 4592836C 		.ascii	"E\222\203l\030oY\220>)t\021\306\015\3117-'\355\272\007"
 291      186F5990 
 291      3E297411 
 291      C60DC937 
 291      2D27EDBA 
 292 06d7 1ECCEE81 		.ascii	"\036\314\356\201Y5j1\342AS\200tc\200\364\230\203\202"
 292      59356A31 
 292      E2415380 
 292      746380F4 
 292      988382
 293 06ea E776BAD1 		.ascii	"\347v\272\321\376\017\234\\\021\322P\257z\311\241_Z"
 293      FE0F9C5C 
 293      11D250AF 
 293      7AC9A15F 
 293      5A
 294 06fb FC99C5B3 		.ascii	"\374\231\305\263KD\026<\2635\033\222\315\357\342zI\365"
 294      4B44163C 
 294      B3351B92 
 294      CDEFE27A 
 294      49F5
 295 070d D22E37CC 		.ascii	"\322.7\314\215w\006[\335\242+w\033\256O\372\334\340"
 295      8D77065B 
 295      DDA22B77 
 295      1BAE4FFA 
 295      DCE0
 296 071f 4D7012B6 		.ascii	"Mp\022\266!\331\366\256\2768T\217\364O\344\215g\345"
 296      21D9F6AE 
 296      BE38548F 
 296      F44FE48D 
ARM GAS  /tmp/ccLjLudm.s 			page 23


 296      67E5
 297 0731 AFAFC5B2 		.ascii	"\257\257\305\262\236\373\310\015\334C\256m\237\276\301"
 297      9EFBC80D 
 297      DC43AE6D 
 297      9FBEC1
 298 0740 12C95B78 		.ascii	"\022\311[x|\262\025/F\336\306\272\013\353sX_\300\372"
 298      7CB2152F 
 298      46DEC6BA 
 298      0BEB7358 
 298      5FC0FA
 299 0753 22D69F63 		.ascii	"\"\326\237c=\013\023\350sX\267`\275\014\353}X\367b}"
 299      3D0B13E8 
 299      7358B760 
 299      BD0CEB7D 
 299      58F7627D 
 300 0767 04EBA358 		.ascii	"\004\353\243X\277\207\36517\011\227Y\001jw}\352\312"
 300      BF87F531 
 300      37099759 
 300      016A777D 
 300      EACA
 301 0779 0C1B8F09 		.ascii	"\014\033\217\011&\377<\307\204\346]\334:EY\224:s\366"
 301      26FF3CC7 
 301      84E65DDC 
 301      3A455994 
 301      3A73F6
 302 078c 3D0132A0 		.ascii	"=\0012\240G\237\260\256b\2675\344\333\266\303j\353P"
 302      479FB0AE 
 302      62B735E4 
 302      DBB6C36A 
 302      EB50
 303 079e A46D5656 		.ascii	"\244mVVH\223\364u\340\365\034d\032O\337\343^\242\371"
 303      4893F475 
 303      E0F51C64 
 303      1A4FDFE3 
 303      5EA2F9
 304 07b1 6073E39C 		.ascii	"`s\343\234\321\036\375\2453\231&\347\011\336rY\255^"
 304      D11EFDA5 
 304      339926E7 
 304      09DE7259 
 304      AD5E
 305 07c3 55274FED 		.ascii	"U'O\355}\326\376\252Z\345\321Ii"
 305      7DD6FEAA 
 305      5AE5D149 
 305      69
 306 07d0 A7F9DB39 		.ascii	"\247\371\3339\253vxn\220Q\215\306g\203\362\306\313\212"
 306      AB76786E 
 306      90518DC6 
 306      6783F2C6 
 306      CB8A
 307 07e2 5F5F7A8B 		.ascii	"__z\213\344C>+\233gl\331\334=\357\000\254\007\224/\207"
 307      E4433E2B 
 307      9B676CD9 
 307      DC3DEF00 
 307      AC07942F 
 308 07f7 8604964D 		.ascii	"\206\004\226M\207K\004\212\365w\336r\177\253\362\220"
 308      874B048A 
 308      F577DE72 
ARM GAS  /tmp/ccLjLudm.s 			page 24


 308      7FABF290 
 309 0807 C3C04D5E 		.ascii	"\303\300M^;\003+\377(\237\244\273\312)\236\246\304\217"
 309      3B032BFF 
 309      289FA4BB 
 309      CA299EA6 
 309      C48F
 310 0819 1DC4B0DA 		.ascii	"\035\304\260\332v\265n[\221|\220\203\314j\333g\2259"
 310      76B56E5B 
 310      917C9083 
 310      CC6ADB67 
 310      9539
 311 082b A3090AC7 		.ascii	"\243\011\012\307iT\226X:\233\251\245T3d\373SMd\341\254"
 311      69549658 
 311      3A9BA9A5 
 311      543364FB 
 311      534D64E1 
 312 0840 D64EE522 		.ascii	"\326N\345\"\235\020\335+\352\"\253(z\306\303(f\261\227"
 312      9D10DD2B 
 312      EA22AB28 
 312      7AC6C328 
 312      66B197
 313 0853 35AFDAF5 		.ascii	"5\257\332\3653;V\222\327O>7VY\223\267_]\266\263\030"
 313      333B5692 
 313      D74F3E37 
 313      565993B7 
 313      5F5DB6B3 
 314 0868 C3C85A07 		.ascii	"\303\310Z\007F\256\3322\262p\365|\203\021\325#xn\223"
 314      46AEDA32 
 314      B270F57C 
 314      8311D523 
 314      786E93
 315 087b 03C2352B 		.ascii	"\003\3025+\302\277sk(B\337\252\347\011 (\312\015\330"
 315      C2BF736B 
 315      2842DFAA 
 315      E7092028 
 315      CA0DD8
 316 088e 20D82D1C 		.ascii	" \330-\034\275\272\0241\316\264\027\275\274\206\314"
 316      BDBA1431 
 316      CEB417BD 
 316      BC86CC
 317 089d C289F70B 		.ascii	"\302\211\367\013\234\323wzm\347tg \236\333\213$\203"
 317      9CD3777A 
 317      6DE77467 
 317      209EDB8B 
 317      2483
 318 08af 9973FAC9 		.ascii	"\231s\372\311FmN\037t\2654_x\334\361\342?e,z\3570\361"
 318      466D4E1F 
 318      74B5345F 
 318      78DCF1E2 
 318      3F652C7A 
 319 08c6 7EA0FF03 		.ascii	"~\240\377\003\215\367z\201\362~87\357V \236;\211$\364"
 319      8DF77A81 
 319      F27E3837 
 319      EF56209E 
 319      3B8924F4 
 320 08da 9293E1FD 		.ascii	"\222\223\341\375\274~sH\177\313\315{[\277y>\3277\026"
 320      BC7E7348 
ARM GAS  /tmp/ccLjLudm.s 			page 25


 320      7FCBCD7B 
 320      5BBF793E 
 320      D73716
 321 08ed 9476781B 		.ascii	"\224vx\033\213?\25276\357`H\036`\301\362\332V(\372e"
 321      8B3FAA37 
 321      36EF6048 
 321      1E60C1F2 
 321      DA5628FA 
 322 0902 9E7A3F7B 		.ascii	"\236z?{6o\260R\013g\357.\265\256\274\316\273\301\313"
 322      366FB052 
 322      0B67EF2E 
 322      B5AEBCCE 
 322      BBC1CB
 323 0915 72A3A2DD 		.ascii	"r\243\242\335\232\251`\237\346\015fe\356X\277\351z\346"
 323      9AA9609F 
 323      E60D6665 
 323      EE58BFE9 
 323      7AE6
 324 0927 9C61DB2C 		.ascii	"\234a\333,`v\367\016v\217\331ID\322(\320uA\223@g\357"
 324      6076F70E 
 324      768FD949 
 324      44D228D0 
 324      75419340 
 325 093d B9583F8D 		.ascii	"\271X?\215\365<\254\237\301z\276`Y1^6\242\304\326\025"
 325      F53CAC9F 
 325      C17ABE60 
 325      59315E36 
 325      A2C4D615 
 326 0951 73B98492 		.ascii	"s\271\204\222\\\356\034\036\226\363\022#\262?\256's"
 326      5CEE1C1E 
 326      96F31223 
 326      B23FAE27 
 326      73
 327 0962 D0859B31 		.ascii	"\320\205\2331:\276\310\035\035\314\271K\263\217R\264"
 327      3ABEC81D 
 327      1DCCB94B 
 327      B38F52B4 
 328 0972 640447F7 		.ascii	"d\004G\367Q=8Z\\\004GC\362\304\363\356\216}Z\015\215"
 328      513D385A 
 328      5C044743 
 328      F2C4F3EE 
 328      8E7D5A0D 
 329 0987 7CDD24C7 		.ascii	"|\335$\307\201\323\372\377{\226\241\034\033|\271\377"
 329      81D3FAFF 
 329      7B96A11C 
 329      1B7CB9FF 
 330 0997 9A6401E2 		.ascii	"\232d\001\342\2716$Y\221)\310\036]\220\025\256\004y"
 330      B9362459 
 330      9129C81E 
 330      5D9015AE 
 330      0479
 331 09a9 F179DDF7 		.ascii	"\361y\335\367\227\012\351]\307\212\354\036\346h\322"
 331      970AE95D 
 331      C78AEC1E 
 331      E668D2
 332 09b8 86E4AAA3 		.ascii	"\206\344\252\243\350\256*\330\356\274\301\254\276\277"
 332      E8AE2AD8 
ARM GAS  /tmp/ccLjLudm.s 			page 26


 332      EEBCC1AC 
 332      BEBF
 333 09c6 E5E8CA31 		.ascii	"\345\350\3121J\353\333\372?m\224F\345\007/\247U2ZG\340"
 333      4AEBDBFA 
 333      3F6D9446 
 333      E5072FA7 
 333      55325A47 
 334 09db CDAADD76 		.ascii	"\315\252\335v7nn\327\010\364}'\243X\367@\003\215m\377"
 334      376E6ED7 
 334      08F47D27 
 334      A358F740 
 334      038D6DFF 
 335 09ef 8140EB11 		.ascii	"\201@\353\021\250w\330@\203M\033\324\377\331l@\240\343"
 335      A877D840 
 335      834D1BD4 
 335      FFD96C40 
 335      A0E3
 336 0a01 0C904804 		.ascii	"\014\220H\004f\267-Xw\333\202?\335\240k\260\257\260"
 336      66B72D58 
 336      77DB823F 
 336      DDA06BB0 
 336      AFB0
 337 0a13 33EC3B0C 		.ascii	"3\354;\014\257\262\223(WZ\246\307\021]\005x\034a\211"
 337      AFB29328 
 337      575AA6C7 
 337      115D0578 
 337      1C6189
 338 0a26 0BF7ABA1 		.ascii	"\013\367\253\241\327\004f\021\362 \263\006\311\266\227"
 338      D7046611 
 338      F220B306 
 338      C9B697
 339 0a35 7FE664BD 		.ascii	"\177\346d\275vv\272Q\300d\311\250\2329\322\246c9\361"
 339      7676BA51 
 339      C064C9A8 
 339      9A39D2A6 
 339      6339F1
 340 0a48 B1452876 		.ascii	"\261E(v\210\234\214\337x\356\012\253\264\374\246\037"
 340      889C8CDF 
 340      78EE0AAB 
 340      B4FCA61F 
 341 0a58 88D9832F 		.ascii	"\210\331\203/\351\207\322\270\373\373\302\015\240\335"
 341      E987D2B8 
 341      FBFBC20D 
 341      A0DD
 342 0a66 FC63F798 		.ascii	"\374c\367\230\223\204H^\304,\277\012\263\371j\254[\261"
 342      9384485E 
 342      C42CBF0A 
 342      B3F96AAC 
 342      5BB1
 343 0a78 7E15EB37 		.ascii	"~\025\3537\005\027\2736\032\332\006\266\232.Z\206\235"
 343      0517BB36 
 343      1ADA06B6 
 343      9A2E5A86 
 343      9D
 344 0a89 2E2E66A6 		.ascii	"..f\246\213|\300,\212L^\321\322\205\032\375\"yE`\360"
 344      8B7CC02C 
 344      8A4C5ED1 
ARM GAS  /tmp/ccLjLudm.s 			page 27


 344      D2851AFD 
 344      22794560 
 345 0a9e F2F3E6E4 		.ascii	"\362\363\346\344\342\245%=\217\353\251\344\2061s\270"
 345      E2A5253D 
 345      8FEBA9E4 
 345      863173B8 
 346 0aae 051B9DCD 		.ascii	"\005\033\235\315(-&\243,A\243<\217&\330\212\3656\254"
 346      282D26A3 
 346      2C41A33C 
 346      8F26D88A 
 346      F536AC
 347 0ac1 DBACD36D 		.ascii	"\333\254\323m\223\237\231n-s\233\335\344oV\217\222|"
 347      939F996E 
 347      2D739BDD 
 347      E46F568F 
 347      927C
 348 0ad3 FD38E8DA 		.ascii	"\3758\350\332\375\311\330y\375dl'\316Q\317\371\363>"
 348      FDC9D879 
 348      FD646C27 
 348      CE51CFF9 
 348      F33E
 349 0ae5 197B1149 		.ascii	"\031{\021I\3323W\2427\3649\252=\367\0345{Vr\371\013"
 349      DA3357A2 
 349      37F439AA 
 349      3DF71C35 
 349      7B5672F9 
 350 0afa BF4F4FB6 		.ascii	"\277OO\266\263\214\000\376\014\346\005''\265\374[\343"
 350      B38C00FE 
 350      0CE60527 
 350      27B5FC5B 
 350      E3
 351 0b0b 35838F3C 		.ascii	"5\203\217<\235\324\336t\355&\323%\321to[\015\325\306"
 351      9DD4DE74 
 351      ED26D325 
 351      D1746F5B 
 351      0DD5C6
 352 0b1e 1A2ACF93 		.ascii	"\032*\317\223\264\355\307\365\225\267\372\317\345\235"
 352      B4EDC7F5 
 352      95B7FACF 
 352      E59D
 353 0b2c 2C5EABE5 		.ascii	",^\253\345\177\312v\200\245\331\004\0304\035\005\016"
 353      7FCA7680 
 353      A5D90418 
 353      341D050E 
 354 0b3c E151A082 		.ascii	"\341Q\240\202\376\266\000\353\035XwXE\332cX\337v\307"
 354      FEB600EB 
 354      1D587758 
 354      45DA6358 
 354      DF76C7
 355 0b4f 4451F70A 		.ascii	"DQ\367\012\306\026\216\311\264\333\034\316\261(Ug:\233"
 355      C6168EC9 
 355      B4DB1CCE 
 355      B1285567 
 355      3A9B
 356 0b61 30545F38 		.ascii	"0T_8\350\217R\355KS\335\3025\243\037>\264l\244\372'"
 356      E88F52ED 
 356      4B53DDC2 
ARM GAS  /tmp/ccLjLudm.s 			page 28


 356      35A31F3E 
 356      B46CA4FA 
 357 0b76 1EBBF0A4 		.ascii	"\036\273\360\2444\373\205[\260e\271\340\302\036N\243"
 357      34FB855B 
 357      B065B9E0 
 357      C21E4EA3 
 358 0b86 1C10D27F 		.ascii	"\034\020\322\177\024*\361\247\033\304:t)3\362\004\275"
 358      142AF1A7 
 358      1BC43A74 
 358      2933F204 
 358      BD
 359 0b97 9F57C3E9 		.ascii	"\237W\303\351\312{\344\203\016#\027\332\253\212\356"
 359      CA7BE483 
 359      0E2317DA 
 359      AB8AEE
 360 0ba6 DD9DA00E 		.ascii	"\335\235\240\0169*\370b\026\252\3564\025\335\315'/\246"
 360      392AF862 
 360      16AAEE34 
 360      15DDCD27 
 360      2FA6
 361 0bb8 DEDC34F0 		.ascii	"\336\3344\360\273\215o(\312\323\260\031\177\252~6q?"
 361      BB8D6F28 
 361      CAD3B019 
 361      7FAA7E36 
 361      713F
 362 0bca A91F1632 		.ascii	"\251\037\0262O\254>d\262\211q\372\242\274\254\010\306"
 362      4FAC3E64 
 362      B28971FA 
 362      A2BCAC08 
 362      C6
 363 0bdb E14B8FC0 		.ascii	"\341K\217\300\034\276\364\012\031\007\015\300\332\221"
 363      1CBEF40A 
 363      19070DC0 
 363      DA91
 364 0be9 17FAC6D2 		.ascii	"\027\372\306\322U\20724\364\324\235\352x<w\336\325\010"
 364      55873234 
 364      F4D49DEA 
 364      783C77DE 
 364      D508
 365 0bfb 47D811FA 		.ascii	"G\330\021\372lG8\265y`\322\365\264\360w\272\027\376"
 365      6C4738B5 
 365      7960D2F5 
 365      B4F077BA 
 365      17FE
 366 0c0d 3D7645D3 		.ascii	"=vE\323A2\316w\326\025\231Y\305\236<\267\245Hs3\355"
 366      4132CE77 
 366      D6159959 
 366      C59E3CB7 
 366      A5487333 
 367 0c22 18ECF09E 		.ascii	"\030\354\360\236\222f\242\377\355{7R\364\013N'Z\035"
 367      9266A2FF 
 367      ED7B3752 
 367      F40B4E27 
 367      5A1D
 368 0c34 9613AD4B 		.ascii	"\226\023\255K\365S\306\030\022\367\263\022\037\263\225"
 368      F553C618 
 368      12F7B312 
ARM GAS  /tmp/ccLjLudm.s 			page 29


 368      1FB395
 369 0c43 784BF7E9 		.ascii	"xK\367\351\261\3033\367\007\254\304\226\243?-\336\031"
 369      B1C333F7 
 369      07ACC496 
 369      A33F2DDE 
 369      19
 370 0c54 0D741459 		.ascii	"\015t\024Y\215\245\311\334&1G\177)G\211\323G\177\213"
 370      8DA5C9DC 
 370      2631477F 
 370      294789D3 
 370      477F8B
 371 0c67 9485AAAA 		.ascii	"\224\205\252\252:q\025\330\213\320\316\204\032C\232"
 371      3A7115D8 
 371      8BD0CE84 
 371      1A439A
 372 0c76 AADE574C 		.ascii	"\252\336WL\252J\261\252:m\253\25276\035\256\314p\277"
 372      AA4AB1AA 
 372      3A6DABAA 
 372      37361DAE 
 372      CC70BF
 373 0c89 A3456EDC 		.ascii	"\243En\334\357\023v\204\377sp\360\363\231\016\3767W"
 373      EF137684 
 373      FF7370F0 
 373      F3990EFE 
 373      3757
 374 0c9b 239C6347 		.ascii	"#\234cG8/d\234\264\365\364\244:.,#sSJ3\236\264\231\363"
 374      382F649C 
 374      B4F5F4A4 
 374      3A2E2C23 
 374      73534A33 
 375 0cb3 9A69929D 		.ascii	"\232i\222\235\242+\256\010)\035\262\037\323\013\246"
 375      A22BAE08 
 375      291DB21F 
 375      D30BA6
 376 0cc2 E2BCB3DF 		.ascii	"\342\274\263\337g\016\331\317</\247{\201*.\0241\207"
 376      670ED9CF 
 376      3C2FA77B 
 376      812A2E14 
 376      3187
 377 0cd4 F70C133C 		.ascii	"\367\014\023<\367\271\026M\"\241\015M\255+v\\7\373\370"
 377      F7B9164D 
 377      22A10D4D 
 377      AD2B765C 
 377      37FBF8
 378 0ce7 C3161FF7 		.ascii	"\303\026\037\367qM\370?\2519J=y\322\230W\035\376\267"
 378      714DF83F 
 378      A9394A3D 
 378      79D29857 
 378      1DFEB7
 379 0cfa 2A92CF05 		.ascii	"*\222\317\005\037\014\263\272\330\361_\247\264\203."
 379      1F0CB3BA 
 379      D8F15FA7 
 379      B4832E
 380 0d09 94DAD65B 		.ascii	"\224\332\326[Y\376yx\325.\226\230\330y\251\3306v\376"
 380      59FE7978 
 380      D52E9698 
 380      D879A9D8 
ARM GAS  /tmp/ccLjLudm.s 			page 30


 380      3676FE
 381 0d1c C4C6CE95 		.ascii	"\304\306\316\225\354\261c\334\031\274\377W\032\002*"
 381      ECB163DC 
 381      19BCFF57 
 381      1A022A
 382 0d2b 8B162A8B 		.ascii	"\213\026*\213\354\032\203\377pH\036\347\306nwN\036\331"
 382      EC1A83FF 
 382      70481EE7 
 382      C66E774E 
 382      1ED9
 383 0d3d 8EA18758 		.ascii	"\216\241\207X\211;\205\014\211\267\332K|\235J\254v\377"
 383      893B850C 
 383      89B7DA4B 
 383      7C9D4AAC 
 383      76FF
 384 0d4f 1857FE37 		.ascii	"\030W\3767\\\005}\203r\351\364\224I\351[\022'*\215\301"
 384      5C057D83 
 384      72E9F494 
 384      49E95B12 
 384      272A8DC1 
 385 0d63 7A8F4562 		.ascii	"z\217EbfN\375{\2269u\266\207\235SW\354\330\367-s\222"
 385      664EFD7B 
 385      963975B6 
 385      879D5357 
 385      ECD8F72D 
 386 0d79 D54FC9F7 		.ascii	"\325O\311\367\332\013\270\2355\351\034\217\233\233\220"
 386      DA0BB89D 
 386      35E91C8F 
 386      9B9B90
 387 0d88 13EC4D88 		.ascii	"\023\354M\2103\231\365&\304\222\014)\221\305\241\033"
 387      3399F526 
 387      C4920C29 
 387      91C5A11B 
 388 0d98 3DB689E4 		.ascii	"=\266\211\344\225\3459\023I\245>\350\010\244tH$L/\221"
 388      95E53913 
 388      49A53EE8 
 388      08A47448 
 388      244C2F91 
 389 0dac CCF7E49B 		.ascii	"\314\367\344\233H\236\365\330'\222\022\213 z/h^\022"
 389      489EF5D8 
 389      2792128B 
 389      207A2F68 
 389      5E12
 390 0dbe 989B2286 		.ascii	"\230\233\"\206\011\236\353+6'\022\356\266q\343\312\242"
 390      099EEB2B 
 390      362712EE 
 390      B671E3CA 
 390      A2
 391 0dcf 89B2B85C 		.ascii	"\211\262\270\\\226\210\007\313\202\225\341D\305\270"
 391      968807CB 
 391      8295E144 
 391      C5B8
 392 0ddd 2077AFFA 		.ascii	" w\257\3726\030\015\207\243\221\262X4.'\312\036\236"
 392      36180D87 
 392      A391B258 
 392      342E27CA 
 392      1E9E
ARM GAS  /tmp/ccLjLudm.s 			page 31


 393 0def FAE8C447 		.ascii	"\372\350\304Gg\322w\261\252\220\024O\224=2q\"\020\310"
 393      67D277B1 
 393      AA90144F 
 393      943D3271 
 393      2210C8
 394 0e02 75312931 		.ascii	"u1)1\256\222+\000\312\200\\\370\310\257\037+\235\310"
 394      AE922B00 
 394      CA805CF8 
 394      C8AF1F2B 
 394      9DC8
 395 0e14 7DB3AC3A 		.ascii	"}\263\254:\021/\253\212\004C\325\345RYD\252\015UM/K"
 395      112FAB8A 
 395      0443D5E5 
 395      525944AA 
 395      0D554D2F 
 396 0e29 C8E55511 		.ascii	"\310\345U\021\031\272z\341\343G\367\006\344\377\264"
 396      19BA7AE1 
 396      E347F706 
 396      E4FFB4
 397 0e38 EB151683 		.ascii	"\353\025\026\203\225U\021\251,P.\315\020\253Cr@\037"
 397      955511A9 
 397      2C502ECD 
 397      10AB4372 
 397      401F
 398 0e4a C01F0868 		.ascii	"\300\037\010ht\3372x\326i\203\225\211\272\204\336\321"
 398      74DF3278 
 398      D6698395 
 398      89BA84DE 
 398      D1
 399 0e5b 2757C625 		.ascii	"'W\306%\261< \373\203\225\001\265\375ov\024\301\312"
 399      B13C20FB 
 399      839501B5 
 399      FD6F7614 
 399      C1CA
 400 0e6d 72E83D4A 		.ascii	"r\350=J\355\221\010<Y-UK\001y\264A\244\275\362D\244"
 400      ED91083C 
 400      592D554B 
 400      0179B441 
 400      A4BDF244 
 401 0e82 99B22716 		.ascii	"\231\262'\026\227j\012\360\273W\216\305\253\242\001"
 401      976A0AF0 
 401      BB578EC5 
 401      ABA201
 402 0e91 D957ADB1 		.ascii	"\331W\255\261S\024\010\350M\017\375\251\204\352+\020"
 402      531408E8 
 402      4D0FFDA9 
 402      84EA2B10 
 403 0ea1 8C466420 		.ascii	"\214Fd \374N\026MV\006\243q\011X(F\002\200\010\3123"
 403      FC4E164D 
 403      5606A371 
 403      09582846 
 403      028008CA 
 404 0eb6 BF9FAB7F 		.ascii	"\277\237\253\177\240\346\3760\0252.U\210\361p@\346\343"
 404      A0E6FE30 
 404      15322E55 
 404      88F17040 
 404      E6E3
ARM GAS  /tmp/ccLjLudm.s 			page 32


 405 0ec8 3FE6E33F 		.ascii	"?\346\343?\341\343\367\361\361\373\371\370\004>\376"
 405      E1E3F7F1 
 405      F1FBF9F8 
 405      043EFE
 406 0ed7 8010BF67 		.ascii	"\200\020\277g<\224{\370P\234O\304\004\000-\000\335J"
 406      3C947BF8 
 406      509C4FC4 
 406      04002D00 
 406      DD4A
 407 0ee9 F18268A8 		.ascii	"\361\202h\250\\\212{\202\225b\334\023\021\303RQB~B\014"
 407      5C8A7B82 
 407      9562DC13 
 407      11C35251 
 407      427E420C 
 408 0efd 55554434 		.ascii	"UUD4Y\356\373\261!\013m\026\326\212\323\305\204\344"
 408      59EEFBB1 
 408      210B6D16 
 408      D68AD3C5 
 408      84E4
 409 0f0f 9313B228 		.ascii	"\223\023\262(\203b\274\364\207\011\240U\265\013\264"
 409      8362BCF4 
 409      8709A055 
 409      B50BB4
 410 0f1e 0AF017AF 		.ascii	"\012\360\027\257\034\216\226\303\357\0053BbE\302+\307"
 410      1C8E96C3 
 410      EF053342 
 410      6245C22B 
 410      C7
 411 0f2f A51909D0 		.ascii	"\245\031\011\320\004\375(\214\227\327\201[\370\244\231"
 411      04FD288C 
 411      97D7815B 
 411      F8A499
 412 0f3e 5572103A 		.ascii	"Ur\020:\025\326\312\321\351\377\023\273U3\020t\221\342"
 412      15D6CAD1 
 412      E9FF13BB 
 412      55331074 
 412      91E2
 413 0f50 52244889 		.ascii	"R$H\211ke9\036\363&\244\210\014\004%`\203\204\024\026"
 413      6B65391E 
 413      F326A488 
 413      0C042560 
 413      83841416 
 414 0f64 639520F0 		.ascii	"c\225 \360X;\333IT\007\005\301\010\270\207\0005\000"
 414      583BDB49 
 414      540705C1 
 414      08B88700 
 414      3500
 415 0f76 C3AB980F 		.ascii	"\303\253\230\017\350\302\325\240v;\232\260<\223\322"
 415      E8C2D5A0 
 415      763B9AB0 
 415      3C93D2
 416 0f85 446B2352 		.ascii	"Dk#R\334\213\275\250\2142\274\216\025K5t`1\361\004\274"
 416      DC8BBDA8 
 416      8C32BC8E 
 416      154B3574 
 416      6031F104 
 417 0f9a 926A6983 		.ascii	"\222ji\203T\217"
ARM GAS  /tmp/ccLjLudm.s 			page 33


 417      548F
 418 0fa0 D4BD2054 		.ascii	"\324\275 T\225\200aF\231\374\202\276\361\326\212UrU"
 418      95806146 
 418      99FC82BE 
 418      F1D68A55 
 418      7255
 419 0fb2 A4C207FC 		.ascii	"\244\302\007\374\242_\370\244\230\024\001\017\257\360"
 419      A25FF8A4 
 419      9814010F 
 419      AFF0
 420 0fc0 0224ED01 		.ascii	"\002$\355\001&\022C\324!\012\302\261h4\004\336\370h"
 420      261243D4 
 420      210AC2B1 
 420      683404DE 
 420      F868
 421 0fd2 A2621AF4 		.ascii	"\242b\032\364\341\345\230\000T\352\213\337\000L\011"
 421      E1E59800 
 421      54EA8BDF 
 421      004C09
 422 0fe1 B6A64A21 		.ascii	"\266\246J!\011\024>\"X9-X\371HtZH\222b\323\212\361\333"
 422      09143E22 
 422      58392D58 
 422      F948745A 
 422      489262D3 
 423 0ff8 5418B66E 		.ascii	"T\030\266nr\011\266\177"
 423      7209B67F 
 424 1000 233E2155 		.ascii	"#>!U\343\017\001\352\364RXut\265]B\031\254\323X\006"
 424      E30F01EA 
 424      F4525875 
 424      74B55D42 
 424      19ACD358 
 425 1015 A440FABB 		.ascii	"\244@\372\2737X\035\007m\313\005q\372\355\266\232\252"
 425      37581D07 
 425      6DCB0571 
 425      FAEDB69A 
 425      AA
 426 1026 B85C2D86 		.ascii	"\270\\-\206\002rU\030\202Y\243\270\035(l~\030ey\247"
 426      02725518 
 426      8259A3B8 
 426      1D286C7E 
 426      186579A7 
 427 103a C688E595 		.ascii	"\306\210\345\225\237\216\016\015\315\223\356\271\317"
 427      9F8E0E0D 
 427      CD93EEB9 
 427      CF
 428 1047 F024DA2C 		.ascii	"\360$\332,(\227B\262\350\253\221gTG\202\340\032\364"
 428      289742B2 
 428      E8AB9167 
 428      544782E0 
 428      1AF4
 429 1059 43888971 		.ascii	"C\210\211q_HL\310\224\254\260F\246\303\214\324\344)"
 429      5F484CC8 
 429      94ACB046 
 429      A6C38CD4 
 429      E429
 430 106b 97A65757 		.ascii	"\227\246WW\250\0327\277\361\307\304HU0\000\232\023\312"
 430      A81A37BF 
ARM GAS  /tmp/ccLjLudm.s 			page 34


 430      F1C7C448 
 430      5530009A 
 430      13CA
 431 107d A7571485 		.ascii	"\247W\024\205E\200G\203\360\301J['\251\303\264\001J"
 431      45804783 
 431      F0C14A5B 
 431      27A9C3B4 
 431      014A
 432 108f AB4BFC2A 		.ascii	"\253K\374*\032|\302\217a\026\202\326\017-A\006QZ6\361"
 432      1A7CC28F 
 432      611682D6 
 432      0F2D4106 
 432      515A36F1 
 433 10a3 D16993A7 		.ascii	"\321i\223\247\245i\303\211\252D\240\"\030\004\372\021"
 433      A569C389 
 433      AA44A022 
 433      1804FA11 
 434 10b3 01704539 		.ascii	"\001pE9\360\213\207\247\375\367\224\251\223G\210\241"
 434      F08B87A7 
 434      FDF794A9 
 434      934788A1 
 435 10c3 5AB12E01 		.ascii	"Z\261.\001\301\032\202$UP#\206\252\245\0225sTE\022R"
 435      C11A8224 
 435      55502386 
 435      AAA51235 
 435      73544512 
 436 10d8 5C16E427 		.ascii	"\\\026\344'c\3058\344c\021:\224\032\333\325\330\366"
 436      63C538E4 
 436      63113A94 
 436      1ADBD5D8 
 436      F6
 437 10e9 0502A881 		.ascii	"\005\002\250\201\300\010\2751\356'\017\334;\301\326"
 437      C008BD31 
 437      EE270FDC 
 437      3BC1D6
 438 10f8 59210D83 		.ascii	"Y!\015\203\263\006~\001\2163\012\275crb\212\352^\223"
 438      B3067E01 
 438      8E330ABD 
 438      6372628A 
 438      EA5E93
 439 110b 6F51C79B 		.ascii	"oQ\307\233Q5#\012\346\015Gk\250\313\244\375g\232\031"
 439      5135230A 
 439      E60D476B 
 439      A8CBA4FD 
 439      679A19
 440 111e FD47F7FF 		.ascii	"\375G\367\377\023\324\374\037\203"
 440      13D4FC1F 
 440      83
 441              		.text
 442              		.section	.gnu.lto_.symtab.d6cfd8af3b1c5fd5,"",%progbits
 443 0000 63684D73 		.ascii	"chMsgSend\000\000\000\000\000\000\000\000\000\000\000"
 443      6753656E 
 443      64000000 
 443      00000000 
 443      00000000 
 444 0014 00A10000 		.ascii	"\000\241\000\000\000chMsgWait\000\000\000\000\000\000"
 444      0063684D 
ARM GAS  /tmp/ccLjLudm.s 			page 35


 444      73675761 
 444      69740000 
 444      00000000 
 445 0028 00000000 		.ascii	"\000\000\000\000\000\000c\001\000\000chMsgRelease\000"
 445      00006301 
 445      00006368 
 445      4D736752 
 445      656C6561 
 446 003f 00000000 		.ascii	"\000\000\000\000\000\000\000\000\000\000\000g\001\000"
 446      00000000 
 446      00000067 
 446      0100
 447 004d 00636800 		.ascii	"\000ch\000\000\002\000\000\000\000\000\000\000\000\000"
 447      00020000 
 447      00000000 
 447      000000
 448 005c 79010000 		.ascii	"y\001\000\000chSchGoSleepS\000\000\002\000\000\000\000"
 448      63685363 
 448      68476F53 
 448      6C656570 
 448      53000002 
 449 0074 00000000 		.ascii	"\000\000\000\000\000o\001\000\000chSchReadyI\000\000"
 449      006F0100 
 449      00636853 
 449      63685265 
 449      61647949 
 450 008a 02000000 		.ascii	"\002\000\000\000\000\000\000\000\000\000s\001\000\000"
 450      00000000 
 450      00007301 
 450      0000
 451 0098 63685363 		.ascii	"chSchWakeupS\000\000\002\000\000\000\000\000\000\000"
 451      6857616B 
 451      65757053 
 451      00000200 
 451      00000000 
 452 00ae 00007701 		.ascii	"\000\000w\001\000\000"
 452      0000
 453              		.text
 454              		.section	.gnu.lto_.opts,"",%progbits
 455 0000 272D6D63 		.ascii	"'-mcpu=cortex-m3' '-mno-thumb-interwork' '-mthumb' "
 455      70753D63 
 455      6F727465 
 455      782D6D33 
 455      2720272D 
 456 0033 272D6767 		.ascii	"'-ggdb' '-O2' '-fomit-frame-pointer' '-falign-funct"
 456      64622720 
 456      272D4F32 
 456      2720272D 
 456      666F6D69 
 457 0066 696F6E73 		.ascii	"ions=16' '-ffunction-sections' '-fdata-sections' '-"
 457      3D313627 
 457      20272D66 
 457      66756E63 
 457      74696F6E 
 458 0099 666E6F2D 		.ascii	"fno-common' '-flto'\000"
 458      636F6D6D 
 458      6F6E2720 
ARM GAS  /tmp/ccLjLudm.s 			page 36


 458      272D666C 
 458      746F2700 
 459              		.text
 460              		.cfi_sections	.debug_frame
 461              		.section	.text.chMsgSend,"ax",%progbits
 462              		.align	2
 463              		.p2align 4,,15
 464              		.global	chMsgSend
 465              		.thumb
 466              		.thumb_func
 467              		.type	chMsgSend, %function
 468              	chMsgSend:
 469              	.LFB188:
 470              		.file 1 "../os/rt/src/chmsg.c"
 471              		.loc 1 87 0
 472              		.cfi_startproc
 473              		@ args = 0, pretend = 0, frame = 0
 474              		@ frame_needed = 0, uses_anonymous_args = 0
 475              	.LVL0:
 476              		.loc 1 88 0
 477 0000 40F20003 		movw	r3, #:lower16:ch
 478 0004 C0F20003 		movt	r3, #:upper16:ch
 479              		.loc 1 87 0
 480 0008 10B5     		push	{r4, lr}
 481              		.cfi_def_cfa_offset 8
 482              		.cfi_offset 4, -8
 483              		.cfi_offset 14, -4
 484              		.loc 1 88 0
 485 000a 9C69     		ldr	r4, [r3, #24]
 486              	.LVL1:
 487              	.LBB52:
 488              	.LBB53:
 489              	.LBB54:
 490              	.LBB55:
 491              		.file 2 "../os/common/ext/CMSIS/include/cmsis_gcc.h"
 492              		.loc 2 264 0
 493 000c 2023     		movs	r3, #32
 494              	@ 264 "../os/common/ext/CMSIS/include/cmsis_gcc.h" 1
 495 000e 83F31188 		MSR basepri, r3
 496              	@ 0 "" 2
 497              		.thumb
 498              	.LBE55:
 499              	.LBE54:
 500              	.LBE53:
 501              	.LBE52:
 502              		.loc 1 93 0
 503 0012 6162     		str	r1, [r4, #36]
 504              	.LVL2:
 505              		.loc 1 95 0
 506 0014 90F82020 		ldrb	r2, [r0, #32]	@ zero_extendqisi2
 507              	.LBB56:
 508              	.LBB57:
 509              		.file 3 "../os/rt/include/chschd.h"
 510              		.loc 3 612 0
 511 0018 036B     		ldr	r3, [r0, #48]
 512              	.LBE57:
 513              	.LBE56:
ARM GAS  /tmp/ccLjLudm.s 			page 37


 514              		.loc 1 94 0
 515 001a 00F12C01 		add	r1, r0, #44
 516              	.LVL3:
 517              		.loc 1 95 0
 518 001e 0E2A     		cmp	r2, #14
 519              	.LBB59:
 520              	.LBB58:
 521              		.loc 3 612 0
 522 0020 84E80A00 		stmia	r4, {r1, r3}
 523              		.loc 3 613 0
 524 0024 1C60     		str	r4, [r3]
 525              		.loc 3 614 0
 526 0026 0463     		str	r4, [r0, #48]
 527              	.LVL4:
 528              	.LBE58:
 529              	.LBE59:
 530              		.loc 1 95 0
 531 0028 07D0     		beq	.L4
 532              	.LVL5:
 533              	.L2:
 534              		.loc 1 98 0
 535 002a 0C20     		movs	r0, #12
 536 002c FFF7FEFF 		bl	chSchGoSleepS
 537              	.LVL6:
 538              		.loc 1 99 0
 539 0030 606A     		ldr	r0, [r4, #36]
 540              	.LVL7:
 541              	.LBB60:
 542              	.LBB61:
 543              	.LBB62:
 544              	.LBB63:
 545              	.LBB64:
 546              		.loc 2 264 0
 547 0032 0023     		movs	r3, #0
 548              	@ 264 "../os/common/ext/CMSIS/include/cmsis_gcc.h" 1
 549 0034 83F31188 		MSR basepri, r3
 550              	@ 0 "" 2
 551              		.thumb
 552              	.LBE64:
 553              	.LBE63:
 554              	.LBE62:
 555              	.LBE61:
 556              	.LBE60:
 557              		.loc 1 103 0
 558 0038 10BD     		pop	{r4, pc}
 559              	.LVL8:
 560              	.L4:
 561              		.loc 1 96 0
 562 003a FFF7FEFF 		bl	chSchReadyI
 563              	.LVL9:
 564 003e F4E7     		b	.L2
 565              		.cfi_endproc
 566              	.LFE188:
 567              		.size	chMsgSend, .-chMsgSend
 568              		.section	.text.chMsgWait,"ax",%progbits
 569              		.align	2
 570              		.p2align 4,,15
ARM GAS  /tmp/ccLjLudm.s 			page 38


 571              		.global	chMsgWait
 572              		.thumb
 573              		.thumb_func
 574              		.type	chMsgWait, %function
 575              	chMsgWait:
 576              	.LFB189:
 577              		.loc 1 119 0
 578              		.cfi_startproc
 579              		@ args = 0, pretend = 0, frame = 0
 580              		@ frame_needed = 0, uses_anonymous_args = 0
 581              	.LVL10:
 582 0000 10B5     		push	{r4, lr}
 583              		.cfi_def_cfa_offset 8
 584              		.cfi_offset 4, -8
 585              		.cfi_offset 14, -4
 586              	.LBB65:
 587              	.LBB66:
 588              	.LBB67:
 589              	.LBB68:
 590              		.loc 2 264 0
 591 0002 2023     		movs	r3, #32
 592              	@ 264 "../os/common/ext/CMSIS/include/cmsis_gcc.h" 1
 593 0004 83F31188 		MSR basepri, r3
 594              	@ 0 "" 2
 595              		.thumb
 596              	.LBE68:
 597              	.LBE67:
 598              	.LBE66:
 599              	.LBE65:
 600              		.loc 1 123 0
 601 0008 40F20004 		movw	r4, #:lower16:ch
 602 000c C0F20004 		movt	r4, #:upper16:ch
 603 0010 A269     		ldr	r2, [r4, #24]
 604              	.LVL11:
 605              	.LBB69:
 606              	.LBB70:
 607              		.file 4 "../os/rt/include/chmsg.h"
 608              		.loc 4 83 0
 609 0012 1346     		mov	r3, r2
 610 0014 53F82C0F 		ldr	r0, [r3, #44]!
 611              	.LBE70:
 612              	.LBE69:
 613              		.loc 1 123 0
 614 0018 9842     		cmp	r0, r3
 615 001a 09D0     		beq	.L7
 616              	.LVL12:
 617              	.L6:
 618              	.LBB71:
 619              	.LBB72:
 620              		.loc 3 620 0
 621 001c 0168     		ldr	r1, [r0]
 622              	.LBE72:
 623              	.LBE71:
 624              		.loc 1 127 0
 625 001e 0D24     		movs	r4, #13
 626              	.LBB74:
 627              	.LBB73:
ARM GAS  /tmp/ccLjLudm.s 			page 39


 628              		.loc 3 620 0
 629 0020 D162     		str	r1, [r2, #44]
 630              		.loc 3 621 0
 631 0022 4B60     		str	r3, [r1, #4]
 632              	.LBE73:
 633              	.LBE74:
 634              	.LBB75:
 635              	.LBB76:
 636              	.LBB77:
 637              	.LBB78:
 638              	.LBB79:
 639              		.loc 2 264 0
 640 0024 0022     		movs	r2, #0
 641              	.LBE79:
 642              	.LBE78:
 643              	.LBE77:
 644              	.LBE76:
 645              	.LBE75:
 646              		.loc 1 127 0
 647 0026 80F82040 		strb	r4, [r0, #32]
 648              	.LVL13:
 649              	.LBB84:
 650              	.LBB83:
 651              	.LBB82:
 652              	.LBB81:
 653              	.LBB80:
 654              		.loc 2 264 0
 655              	@ 264 "../os/common/ext/CMSIS/include/cmsis_gcc.h" 1
 656 002a 82F31188 		MSR basepri, r2
 657              	@ 0 "" 2
 658              		.thumb
 659              	.LBE80:
 660              	.LBE81:
 661              	.LBE82:
 662              	.LBE83:
 663              	.LBE84:
 664              		.loc 1 131 0
 665 002e 10BD     		pop	{r4, pc}
 666              	.LVL14:
 667              	.L7:
 668              		.loc 1 124 0
 669 0030 0E20     		movs	r0, #14
 670 0032 FFF7FEFF 		bl	chSchGoSleepS
 671              	.LVL15:
 672 0036 A269     		ldr	r2, [r4, #24]
 673 0038 D06A     		ldr	r0, [r2, #44]
 674 003a 02F12C03 		add	r3, r2, #44
 675 003e EDE7     		b	.L6
 676              		.cfi_endproc
 677              	.LFE189:
 678              		.size	chMsgWait, .-chMsgWait
 679              		.section	.text.chMsgRelease,"ax",%progbits
 680              		.align	2
 681              		.p2align 4,,15
 682              		.global	chMsgRelease
 683              		.thumb
 684              		.thumb_func
ARM GAS  /tmp/ccLjLudm.s 			page 40


 685              		.type	chMsgRelease, %function
 686              	chMsgRelease:
 687              	.LFB190:
 688              		.loc 1 143 0
 689              		.cfi_startproc
 690              		@ args = 0, pretend = 0, frame = 0
 691              		@ frame_needed = 0, uses_anonymous_args = 0
 692              	.LVL16:
 693 0000 08B5     		push	{r3, lr}
 694              		.cfi_def_cfa_offset 8
 695              		.cfi_offset 3, -8
 696              		.cfi_offset 14, -4
 697              	.LBB85:
 698              	.LBB86:
 699              	.LBB87:
 700              	.LBB88:
 701              		.loc 2 264 0
 702 0002 2023     		movs	r3, #32
 703              	@ 264 "../os/common/ext/CMSIS/include/cmsis_gcc.h" 1
 704 0004 83F31188 		MSR basepri, r3
 705              	@ 0 "" 2
 706              	.LVL17:
 707              		.thumb
 708              	.LBE88:
 709              	.LBE87:
 710              	.LBE86:
 711              	.LBE85:
 712              	.LBB89:
 713              	.LBB90:
 714              		.loc 4 117 0
 715 0008 FFF7FEFF 		bl	chSchWakeupS
 716              	.LVL18:
 717              	.LBE90:
 718              	.LBE89:
 719              	.LBB91:
 720              	.LBB92:
 721              	.LBB93:
 722              	.LBB94:
 723              	.LBB95:
 724              		.loc 2 264 0
 725 000c 0023     		movs	r3, #0
 726              	@ 264 "../os/common/ext/CMSIS/include/cmsis_gcc.h" 1
 727 000e 83F31188 		MSR basepri, r3
 728              	@ 0 "" 2
 729              		.thumb
 730 0012 08BD     		pop	{r3, pc}
 731              	.LBE95:
 732              	.LBE94:
 733              	.LBE93:
 734              	.LBE92:
 735              	.LBE91:
 736              		.cfi_endproc
 737              	.LFE190:
 738              		.size	chMsgRelease, .-chMsgRelease
 739 0014 AFF30080 		.text
 739      AFF30080 
 739      AFF30080 
ARM GAS  /tmp/ccLjLudm.s 			page 41


 740              	.Letext0:
 741              		.file 5 "/usr/include/newlib/machine/_default_types.h"
 742              		.file 6 "/usr/include/newlib/stdint.h"
 743              		.file 7 "../os/common/ports/ARMCMx/compilers/GCC/chtypes.h"
 744              		.file 8 "../os/rt/include/chsystypes.h"
 745              		.file 9 "../os/common/ports/ARMCMx/chcore.h"
 746              		.file 10 "../os/common/ports/ARMCMx/chcore_v7m.h"
 747              		.file 11 "../os/rt/include/chsem.h"
 748              		.file 12 "../os/rt/include/chmtx.h"
 749              		.file 13 "../os/rt/include/chsys.h"
 750              		.file 14 "../os/common/ext/CMSIS/include/core_cm3.h"
 751              		.section	.debug_info,"",%progbits
 752              	.Ldebug_info0:
 753 0000 650A0000 		.4byte	0xa65
 754 0004 0400     		.2byte	0x4
 755 0006 00000000 		.4byte	.Ldebug_abbrev0
 756 000a 04       		.byte	0x4
 757 000b 01       		.uleb128 0x1
 758 000c AC020000 		.4byte	.LASF105
 759 0010 01       		.byte	0x1
 760 0011 D1040000 		.4byte	.LASF106
 761 0015 D1030000 		.4byte	.LASF107
 762 0019 48000000 		.4byte	.Ldebug_ranges0+0x48
 763 001d 00000000 		.4byte	0
 764 0021 00000000 		.4byte	.Ldebug_line0
 765 0025 02       		.uleb128 0x2
 766 0026 04       		.byte	0x4
 767 0027 05       		.byte	0x5
 768 0028 696E7400 		.ascii	"int\000"
 769 002c 03       		.uleb128 0x3
 770 002d 04       		.byte	0x4
 771 002e 07       		.byte	0x7
 772 002f 42000000 		.4byte	.LASF0
 773 0033 03       		.uleb128 0x3
 774 0034 01       		.byte	0x1
 775 0035 06       		.byte	0x6
 776 0036 F8040000 		.4byte	.LASF1
 777 003a 04       		.uleb128 0x4
 778 003b FB030000 		.4byte	.LASF4
 779 003f 05       		.byte	0x5
 780 0040 1C       		.byte	0x1c
 781 0041 45000000 		.4byte	0x45
 782 0045 03       		.uleb128 0x3
 783 0046 01       		.byte	0x1
 784 0047 08       		.byte	0x8
 785 0048 6B040000 		.4byte	.LASF2
 786 004c 03       		.uleb128 0x3
 787 004d 02       		.byte	0x2
 788 004e 05       		.byte	0x5
 789 004f 75030000 		.4byte	.LASF3
 790 0053 04       		.uleb128 0x4
 791 0054 5D010000 		.4byte	.LASF5
 792 0058 05       		.byte	0x5
 793 0059 26       		.byte	0x26
 794 005a 5E000000 		.4byte	0x5e
 795 005e 03       		.uleb128 0x3
 796 005f 02       		.byte	0x2
ARM GAS  /tmp/ccLjLudm.s 			page 42


 797 0060 07       		.byte	0x7
 798 0061 0A050000 		.4byte	.LASF6
 799 0065 04       		.uleb128 0x4
 800 0066 63000000 		.4byte	.LASF7
 801 006a 05       		.byte	0x5
 802 006b 37       		.byte	0x37
 803 006c 70000000 		.4byte	0x70
 804 0070 03       		.uleb128 0x3
 805 0071 04       		.byte	0x4
 806 0072 05       		.byte	0x5
 807 0073 7F030000 		.4byte	.LASF8
 808 0077 04       		.uleb128 0x4
 809 0078 79040000 		.4byte	.LASF9
 810 007c 05       		.byte	0x5
 811 007d 38       		.byte	0x38
 812 007e 82000000 		.4byte	0x82
 813 0082 03       		.uleb128 0x3
 814 0083 04       		.byte	0x4
 815 0084 07       		.byte	0x7
 816 0085 29040000 		.4byte	.LASF10
 817 0089 03       		.uleb128 0x3
 818 008a 08       		.byte	0x8
 819 008b 05       		.byte	0x5
 820 008c 5E020000 		.4byte	.LASF11
 821 0090 04       		.uleb128 0x4
 822 0091 E2010000 		.4byte	.LASF12
 823 0095 05       		.byte	0x5
 824 0096 4E       		.byte	0x4e
 825 0097 9B000000 		.4byte	0x9b
 826 009b 03       		.uleb128 0x3
 827 009c 08       		.byte	0x8
 828 009d 07       		.byte	0x7
 829 009e 46010000 		.4byte	.LASF13
 830 00a2 04       		.uleb128 0x4
 831 00a3 34020000 		.4byte	.LASF14
 832 00a7 06       		.byte	0x6
 833 00a8 2A       		.byte	0x2a
 834 00a9 3A000000 		.4byte	0x3a
 835 00ad 04       		.uleb128 0x4
 836 00ae 6C030000 		.4byte	.LASF15
 837 00b2 06       		.byte	0x6
 838 00b3 36       		.byte	0x36
 839 00b4 53000000 		.4byte	0x53
 840 00b8 04       		.uleb128 0x4
 841 00b9 4E040000 		.4byte	.LASF16
 842 00bd 06       		.byte	0x6
 843 00be 41       		.byte	0x41
 844 00bf 65000000 		.4byte	0x65
 845 00c3 04       		.uleb128 0x4
 846 00c4 03010000 		.4byte	.LASF17
 847 00c8 06       		.byte	0x6
 848 00c9 42       		.byte	0x42
 849 00ca 77000000 		.4byte	0x77
 850 00ce 04       		.uleb128 0x4
 851 00cf C2030000 		.4byte	.LASF18
 852 00d3 06       		.byte	0x6
 853 00d4 4E       		.byte	0x4e
ARM GAS  /tmp/ccLjLudm.s 			page 43


 854 00d5 90000000 		.4byte	0x90
 855 00d9 04       		.uleb128 0x4
 856 00da 59030000 		.4byte	.LASF19
 857 00de 07       		.byte	0x7
 858 00df 3C       		.byte	0x3c
 859 00e0 A2000000 		.4byte	0xa2
 860 00e4 04       		.uleb128 0x4
 861 00e5 2B020000 		.4byte	.LASF20
 862 00e9 07       		.byte	0x7
 863 00ea 3D       		.byte	0x3d
 864 00eb A2000000 		.4byte	0xa2
 865 00ef 04       		.uleb128 0x4
 866 00f0 21040000 		.4byte	.LASF21
 867 00f4 07       		.byte	0x7
 868 00f5 3E       		.byte	0x3e
 869 00f6 A2000000 		.4byte	0xa2
 870 00fa 04       		.uleb128 0x4
 871 00fb 2D010000 		.4byte	.LASF22
 872 00ff 07       		.byte	0x7
 873 0100 40       		.byte	0x40
 874 0101 C3000000 		.4byte	0xc3
 875 0105 04       		.uleb128 0x4
 876 0106 6C020000 		.4byte	.LASF23
 877 010a 07       		.byte	0x7
 878 010b 41       		.byte	0x41
 879 010c B8000000 		.4byte	0xb8
 880 0110 04       		.uleb128 0x4
 881 0111 14010000 		.4byte	.LASF24
 882 0115 07       		.byte	0x7
 883 0116 43       		.byte	0x43
 884 0117 C3000000 		.4byte	0xc3
 885 011b 04       		.uleb128 0x4
 886 011c 68010000 		.4byte	.LASF25
 887 0120 07       		.byte	0x7
 888 0121 45       		.byte	0x45
 889 0122 B8000000 		.4byte	0xb8
 890 0126 04       		.uleb128 0x4
 891 0127 26000000 		.4byte	.LASF26
 892 012b 08       		.byte	0x8
 893 012c 35       		.byte	0x35
 894 012d AD000000 		.4byte	0xad
 895 0131 04       		.uleb128 0x4
 896 0132 C3010000 		.4byte	.LASF27
 897 0136 08       		.byte	0x8
 898 0137 3F       		.byte	0x3f
 899 0138 3C010000 		.4byte	0x13c
 900 013c 05       		.uleb128 0x5
 901 013d 45020000 		.4byte	.LASF45
 902 0141 44       		.byte	0x44
 903 0142 03       		.byte	0x3
 904 0143 9A       		.byte	0x9a
 905 0144 1A020000 		.4byte	0x21a
 906 0148 06       		.uleb128 0x6
 907 0149 48040000 		.4byte	.LASF28
 908 014d 03       		.byte	0x3
 909 014e 9B       		.byte	0x9b
 910 014f 4F020000 		.4byte	0x24f
ARM GAS  /tmp/ccLjLudm.s 			page 44


 911 0153 00       		.byte	0
 912 0154 06       		.uleb128 0x6
 913 0155 07020000 		.4byte	.LASF29
 914 0159 03       		.byte	0x3
 915 015a 9C       		.byte	0x9c
 916 015b FA000000 		.4byte	0xfa
 917 015f 08       		.byte	0x8
 918 0160 07       		.uleb128 0x7
 919 0161 63747800 		.ascii	"ctx\000"
 920 0165 03       		.byte	0x3
 921 0166 9D       		.byte	0x9d
 922 0167 3B040000 		.4byte	0x43b
 923 016b 0C       		.byte	0xc
 924 016c 06       		.uleb128 0x6
 925 016d 65040000 		.4byte	.LASF30
 926 0171 03       		.byte	0x3
 927 0172 9F       		.byte	0x9f
 928 0173 25020000 		.4byte	0x225
 929 0177 10       		.byte	0x10
 930 0178 06       		.uleb128 0x6
 931 0179 49050000 		.4byte	.LASF31
 932 017d 03       		.byte	0x3
 933 017e A0       		.byte	0xa0
 934 017f 25020000 		.4byte	0x225
 935 0183 14       		.byte	0x14
 936 0184 06       		.uleb128 0x6
 937 0185 05040000 		.4byte	.LASF32
 938 0189 03       		.byte	0x3
 939 018a A7       		.byte	0xa7
 940 018b A0050000 		.4byte	0x5a0
 941 018f 18       		.byte	0x18
 942 0190 06       		.uleb128 0x6
 943 0191 24020000 		.4byte	.LASF33
 944 0195 03       		.byte	0x3
 945 0196 B0       		.byte	0xb0
 946 0197 B2050000 		.4byte	0x5b2
 947 019b 1C       		.byte	0x1c
 948 019c 06       		.uleb128 0x6
 949 019d CB040000 		.4byte	.LASF34
 950 01a1 03       		.byte	0x3
 951 01a2 B5       		.byte	0xb5
 952 01a3 E4000000 		.4byte	0xe4
 953 01a7 20       		.byte	0x20
 954 01a8 06       		.uleb128 0x6
 955 01a9 20000000 		.4byte	.LASF35
 956 01ad 03       		.byte	0x3
 957 01ae B9       		.byte	0xb9
 958 01af D9000000 		.4byte	0xd9
 959 01b3 21       		.byte	0x21
 960 01b4 06       		.uleb128 0x6
 961 01b5 6D000000 		.4byte	.LASF36
 962 01b9 03       		.byte	0x3
 963 01ba BE       		.byte	0xbe
 964 01bb EF000000 		.4byte	0xef
 965 01bf 22       		.byte	0x22
 966 01c0 08       		.uleb128 0x8
 967 01c1 7500     		.ascii	"u\000"
ARM GAS  /tmp/ccLjLudm.s 			page 45


 968 01c3 03       		.byte	0x3
 969 01c4 0F01     		.2byte	0x10f
 970 01c6 D5040000 		.4byte	0x4d5
 971 01ca 24       		.byte	0x24
 972 01cb 09       		.uleb128 0x9
 973 01cc 84040000 		.4byte	.LASF37
 974 01d0 03       		.byte	0x3
 975 01d1 1401     		.2byte	0x114
 976 01d3 2B020000 		.4byte	0x22b
 977 01d7 28       		.byte	0x28
 978 01d8 09       		.uleb128 0x9
 979 01d9 3C020000 		.4byte	.LASF38
 980 01dd 03       		.byte	0x3
 981 01de 1A01     		.2byte	0x11a
 982 01e0 4F020000 		.4byte	0x24f
 983 01e4 2C       		.byte	0x2c
 984 01e5 09       		.uleb128 0x9
 985 01e6 39000000 		.4byte	.LASF39
 986 01ea 03       		.byte	0x3
 987 01eb 2001     		.2byte	0x120
 988 01ed 10010000 		.4byte	0x110
 989 01f1 34       		.byte	0x34
 990 01f2 09       		.uleb128 0x9
 991 01f3 A4010000 		.4byte	.LASF40
 992 01f7 03       		.byte	0x3
 993 01f8 2701     		.2byte	0x127
 994 01fa 9A050000 		.4byte	0x59a
 995 01fe 38       		.byte	0x38
 996 01ff 09       		.uleb128 0x9
 997 0200 30000000 		.4byte	.LASF41
 998 0204 03       		.byte	0x3
 999 0205 2B01     		.2byte	0x12b
 1000 0207 FA000000 		.4byte	0xfa
 1001 020b 3C       		.byte	0x3c
 1002 020c 09       		.uleb128 0x9
 1003 020d 58050000 		.4byte	.LASF42
 1004 0211 03       		.byte	0x3
 1005 0212 3201     		.2byte	0x132
 1006 0214 02030000 		.4byte	0x302
 1007 0218 40       		.byte	0x40
 1008 0219 00       		.byte	0
 1009 021a 04       		.uleb128 0x4
 1010 021b 11020000 		.4byte	.LASF43
 1011 021f 08       		.byte	0x8
 1012 0220 44       		.byte	0x44
 1013 0221 25020000 		.4byte	0x225
 1014 0225 0A       		.uleb128 0xa
 1015 0226 04       		.byte	0x4
 1016 0227 31010000 		.4byte	0x131
 1017 022b 04       		.uleb128 0x4
 1018 022c 54000000 		.4byte	.LASF44
 1019 0230 08       		.byte	0x8
 1020 0231 49       		.byte	0x49
 1021 0232 36020000 		.4byte	0x236
 1022 0236 05       		.uleb128 0x5
 1023 0237 00000000 		.4byte	.LASF46
 1024 023b 04       		.byte	0x4
ARM GAS  /tmp/ccLjLudm.s 			page 46


 1025 023c 03       		.byte	0x3
 1026 023d 88       		.byte	0x88
 1027 023e 4F020000 		.4byte	0x24f
 1028 0242 06       		.uleb128 0x6
 1029 0243 4F000000 		.4byte	.LASF47
 1030 0247 03       		.byte	0x3
 1031 0248 89       		.byte	0x89
 1032 0249 25020000 		.4byte	0x225
 1033 024d 00       		.byte	0
 1034 024e 00       		.byte	0
 1035 024f 04       		.uleb128 0x4
 1036 0250 8E010000 		.4byte	.LASF48
 1037 0254 08       		.byte	0x8
 1038 0255 50       		.byte	0x50
 1039 0256 5A020000 		.4byte	0x25a
 1040 025a 05       		.uleb128 0x5
 1041 025b C0000000 		.4byte	.LASF49
 1042 025f 08       		.byte	0x8
 1043 0260 03       		.byte	0x3
 1044 0261 8F       		.byte	0x8f
 1045 0262 7F020000 		.4byte	0x27f
 1046 0266 06       		.uleb128 0x6
 1047 0267 4F000000 		.4byte	.LASF47
 1048 026b 03       		.byte	0x3
 1049 026c 90       		.byte	0x90
 1050 026d 25020000 		.4byte	0x225
 1051 0271 00       		.byte	0
 1052 0272 06       		.uleb128 0x6
 1053 0273 BB000000 		.4byte	.LASF50
 1054 0277 03       		.byte	0x3
 1055 0278 91       		.byte	0x91
 1056 0279 25020000 		.4byte	0x225
 1057 027d 04       		.byte	0x4
 1058 027e 00       		.byte	0
 1059 027f 04       		.uleb128 0x4
 1060 0280 3B040000 		.4byte	.LASF51
 1061 0284 08       		.byte	0x8
 1062 0285 57       		.byte	0x57
 1063 0286 8A020000 		.4byte	0x28a
 1064 028a 0B       		.uleb128 0xb
 1065 028b A1000000 		.4byte	.LASF52
 1066 028f 1C       		.byte	0x1c
 1067 0290 03       		.byte	0x3
 1068 0291 6A01     		.2byte	0x16a
 1069 0293 E6020000 		.4byte	0x2e6
 1070 0297 09       		.uleb128 0x9
 1071 0298 48040000 		.4byte	.LASF28
 1072 029c 03       		.byte	0x3
 1073 029d 6B01     		.2byte	0x16b
 1074 029f 4F020000 		.4byte	0x24f
 1075 02a3 00       		.byte	0
 1076 02a4 09       		.uleb128 0x9
 1077 02a5 07020000 		.4byte	.LASF29
 1078 02a9 03       		.byte	0x3
 1079 02aa 6C01     		.2byte	0x16c
 1080 02ac FA000000 		.4byte	0xfa
 1081 02b0 08       		.byte	0x8
ARM GAS  /tmp/ccLjLudm.s 			page 47


 1082 02b1 08       		.uleb128 0x8
 1083 02b2 63747800 		.ascii	"ctx\000"
 1084 02b6 03       		.byte	0x3
 1085 02b7 6E01     		.2byte	0x16e
 1086 02b9 3B040000 		.4byte	0x43b
 1087 02bd 0C       		.byte	0xc
 1088 02be 09       		.uleb128 0x9
 1089 02bf 65040000 		.4byte	.LASF30
 1090 02c3 03       		.byte	0x3
 1091 02c4 7101     		.2byte	0x171
 1092 02c6 25020000 		.4byte	0x225
 1093 02ca 10       		.byte	0x10
 1094 02cb 09       		.uleb128 0x9
 1095 02cc 49050000 		.4byte	.LASF31
 1096 02d0 03       		.byte	0x3
 1097 02d1 7201     		.2byte	0x172
 1098 02d3 25020000 		.4byte	0x225
 1099 02d7 14       		.byte	0x14
 1100 02d8 09       		.uleb128 0x9
 1101 02d9 35050000 		.4byte	.LASF53
 1102 02dd 03       		.byte	0x3
 1103 02de 7501     		.2byte	0x175
 1104 02e0 25020000 		.4byte	0x225
 1105 02e4 18       		.byte	0x18
 1106 02e5 00       		.byte	0
 1107 02e6 04       		.uleb128 0x4
 1108 02e7 D1000000 		.4byte	.LASF54
 1109 02eb 08       		.byte	0x8
 1110 02ec 5C       		.byte	0x5c
 1111 02ed F1020000 		.4byte	0x2f1
 1112 02f1 0A       		.uleb128 0xa
 1113 02f2 04       		.byte	0x4
 1114 02f3 F7020000 		.4byte	0x2f7
 1115 02f7 0C       		.uleb128 0xc
 1116 02f8 02030000 		.4byte	0x302
 1117 02fc 0D       		.uleb128 0xd
 1118 02fd 02030000 		.4byte	0x302
 1119 0301 00       		.byte	0
 1120 0302 0E       		.uleb128 0xe
 1121 0303 04       		.byte	0x4
 1122 0304 04       		.uleb128 0x4
 1123 0305 7C020000 		.4byte	.LASF55
 1124 0309 08       		.byte	0x8
 1125 030a 61       		.byte	0x61
 1126 030b 0F030000 		.4byte	0x30f
 1127 030f 0B       		.uleb128 0xb
 1128 0310 35010000 		.4byte	.LASF56
 1129 0314 14       		.byte	0x14
 1130 0315 03       		.byte	0x3
 1131 0316 4501     		.2byte	0x145
 1132 0318 5E030000 		.4byte	0x35e
 1133 031c 09       		.uleb128 0x9
 1134 031d 4F000000 		.4byte	.LASF47
 1135 0321 03       		.byte	0x3
 1136 0322 4601     		.2byte	0x146
 1137 0324 B8050000 		.4byte	0x5b8
 1138 0328 00       		.byte	0
ARM GAS  /tmp/ccLjLudm.s 			page 48


 1139 0329 09       		.uleb128 0x9
 1140 032a BB000000 		.4byte	.LASF50
 1141 032e 03       		.byte	0x3
 1142 032f 4701     		.2byte	0x147
 1143 0331 B8050000 		.4byte	0x5b8
 1144 0335 04       		.byte	0x4
 1145 0336 09       		.uleb128 0x9
 1146 0337 04050000 		.4byte	.LASF57
 1147 033b 03       		.byte	0x3
 1148 033c 4801     		.2byte	0x148
 1149 033e 26010000 		.4byte	0x126
 1150 0342 08       		.byte	0x8
 1151 0343 09       		.uleb128 0x9
 1152 0344 AF000000 		.4byte	.LASF58
 1153 0348 03       		.byte	0x3
 1154 0349 4901     		.2byte	0x149
 1155 034b E6020000 		.4byte	0x2e6
 1156 034f 0C       		.byte	0xc
 1157 0350 08       		.uleb128 0x8
 1158 0351 70617200 		.ascii	"par\000"
 1159 0355 03       		.byte	0x3
 1160 0356 4B01     		.2byte	0x14b
 1161 0358 02030000 		.4byte	0x302
 1162 035c 10       		.byte	0x10
 1163 035d 00       		.byte	0
 1164 035e 04       		.uleb128 0x4
 1165 035f 8C040000 		.4byte	.LASF59
 1166 0363 08       		.byte	0x8
 1167 0364 66       		.byte	0x66
 1168 0365 69030000 		.4byte	0x369
 1169 0369 0B       		.uleb128 0xb
 1170 036a AC010000 		.4byte	.LASF60
 1171 036e 0C       		.byte	0xc
 1172 036f 03       		.byte	0x3
 1173 0370 5501     		.2byte	0x155
 1174 0372 AB030000 		.4byte	0x3ab
 1175 0376 09       		.uleb128 0x9
 1176 0377 4F000000 		.4byte	.LASF47
 1177 037b 03       		.byte	0x3
 1178 037c 5601     		.2byte	0x156
 1179 037e B8050000 		.4byte	0x5b8
 1180 0382 00       		.byte	0
 1181 0383 09       		.uleb128 0x9
 1182 0384 BB000000 		.4byte	.LASF50
 1183 0388 03       		.byte	0x3
 1184 0389 5801     		.2byte	0x158
 1185 038b B8050000 		.4byte	0x5b8
 1186 038f 04       		.byte	0x4
 1187 0390 09       		.uleb128 0x9
 1188 0391 04050000 		.4byte	.LASF57
 1189 0395 03       		.byte	0x3
 1190 0396 5A01     		.2byte	0x15a
 1191 0398 26010000 		.4byte	0x126
 1192 039c 08       		.byte	0x8
 1193 039d 09       		.uleb128 0x9
 1194 039e B9030000 		.4byte	.LASF61
 1195 03a2 03       		.byte	0x3
ARM GAS  /tmp/ccLjLudm.s 			page 49


 1196 03a3 6201     		.2byte	0x162
 1197 03a5 26010000 		.4byte	0x126
 1198 03a9 0A       		.byte	0xa
 1199 03aa 00       		.byte	0
 1200 03ab 04       		.uleb128 0x4
 1201 03ac 4F020000 		.4byte	.LASF62
 1202 03b0 08       		.byte	0x8
 1203 03b1 6B       		.byte	0x6b
 1204 03b2 B6030000 		.4byte	0x3b6
 1205 03b6 0B       		.uleb128 0xb
 1206 03b7 F3000000 		.4byte	.LASF63
 1207 03bb 04       		.byte	0x4
 1208 03bc 03       		.byte	0x3
 1209 03bd 7C01     		.2byte	0x17c
 1210 03bf D1030000 		.4byte	0x3d1
 1211 03c3 09       		.uleb128 0x9
 1212 03c4 4F030000 		.4byte	.LASF64
 1213 03c8 03       		.byte	0x3
 1214 03c9 8401     		.2byte	0x184
 1215 03cb BE050000 		.4byte	0x5be
 1216 03cf 00       		.byte	0
 1217 03d0 00       		.byte	0
 1218 03d1 04       		.uleb128 0x4
 1219 03d2 E6040000 		.4byte	.LASF65
 1220 03d6 08       		.byte	0x8
 1221 03d7 70       		.byte	0x70
 1222 03d8 DC030000 		.4byte	0x3dc
 1223 03dc 0B       		.uleb128 0xb
 1224 03dd A1030000 		.4byte	.LASF66
 1225 03e1 70       		.byte	0x70
 1226 03e2 03       		.byte	0x3
 1227 03e3 9C01     		.2byte	0x19c
 1228 03e5 1E040000 		.4byte	0x41e
 1229 03e9 09       		.uleb128 0x9
 1230 03ea CB030000 		.4byte	.LASF67
 1231 03ee 03       		.byte	0x3
 1232 03ef A001     		.2byte	0x1a0
 1233 03f1 7F020000 		.4byte	0x27f
 1234 03f5 00       		.byte	0
 1235 03f6 09       		.uleb128 0x9
 1236 03f7 8D000000 		.4byte	.LASF68
 1237 03fb 03       		.byte	0x3
 1238 03fc A401     		.2byte	0x1a4
 1239 03fe 5E030000 		.4byte	0x35e
 1240 0402 1C       		.byte	0x1c
 1241 0403 08       		.uleb128 0x8
 1242 0404 64626700 		.ascii	"dbg\000"
 1243 0408 03       		.byte	0x3
 1244 0409 A801     		.2byte	0x1a8
 1245 040b AB030000 		.4byte	0x3ab
 1246 040f 28       		.byte	0x28
 1247 0410 09       		.uleb128 0x9
 1248 0411 61030000 		.4byte	.LASF69
 1249 0415 03       		.byte	0x3
 1250 0416 AC01     		.2byte	0x1ac
 1251 0418 31010000 		.4byte	0x131
 1252 041c 2C       		.byte	0x2c
ARM GAS  /tmp/ccLjLudm.s 			page 50


 1253 041d 00       		.byte	0
 1254 041e 03       		.uleb128 0x3
 1255 041f 04       		.byte	0x4
 1256 0420 07       		.byte	0x7
 1257 0421 18040000 		.4byte	.LASF70
 1258 0425 04       		.uleb128 0x4
 1259 0426 17000000 		.4byte	.LASF71
 1260 042a 09       		.byte	0x9
 1261 042b 65       		.byte	0x65
 1262 042c 02030000 		.4byte	0x302
 1263 0430 04       		.uleb128 0x4
 1264 0431 2A050000 		.4byte	.LASF72
 1265 0435 09       		.byte	0x9
 1266 0436 6D       		.byte	0x6d
 1267 0437 CE000000 		.4byte	0xce
 1268 043b 05       		.uleb128 0x5
 1269 043c 94000000 		.4byte	.LASF73
 1270 0440 04       		.byte	0x4
 1271 0441 09       		.byte	0x9
 1272 0442 89       		.byte	0x89
 1273 0443 53040000 		.4byte	0x453
 1274 0447 07       		.uleb128 0x7
 1275 0448 737000   		.ascii	"sp\000"
 1276 044b 09       		.byte	0x9
 1277 044c 8A       		.byte	0x8a
 1278 044d CF040000 		.4byte	0x4cf
 1279 0451 00       		.byte	0
 1280 0452 00       		.byte	0
 1281 0453 0B       		.uleb128 0xb
 1282 0454 88030000 		.4byte	.LASF74
 1283 0458 24       		.byte	0x24
 1284 0459 0A       		.byte	0xa
 1285 045a 5901     		.2byte	0x159
 1286 045c CF040000 		.4byte	0x4cf
 1287 0460 08       		.uleb128 0x8
 1288 0461 723400   		.ascii	"r4\000"
 1289 0464 0A       		.byte	0xa
 1290 0465 6C01     		.2byte	0x16c
 1291 0467 25040000 		.4byte	0x425
 1292 046b 00       		.byte	0
 1293 046c 08       		.uleb128 0x8
 1294 046d 723500   		.ascii	"r5\000"
 1295 0470 0A       		.byte	0xa
 1296 0471 6D01     		.2byte	0x16d
 1297 0473 25040000 		.4byte	0x425
 1298 0477 04       		.byte	0x4
 1299 0478 08       		.uleb128 0x8
 1300 0479 723600   		.ascii	"r6\000"
 1301 047c 0A       		.byte	0xa
 1302 047d 6E01     		.2byte	0x16e
 1303 047f 25040000 		.4byte	0x425
 1304 0483 08       		.byte	0x8
 1305 0484 08       		.uleb128 0x8
 1306 0485 723700   		.ascii	"r7\000"
 1307 0488 0A       		.byte	0xa
 1308 0489 6F01     		.2byte	0x16f
 1309 048b 25040000 		.4byte	0x425
ARM GAS  /tmp/ccLjLudm.s 			page 51


 1310 048f 0C       		.byte	0xc
 1311 0490 08       		.uleb128 0x8
 1312 0491 723800   		.ascii	"r8\000"
 1313 0494 0A       		.byte	0xa
 1314 0495 7001     		.2byte	0x170
 1315 0497 25040000 		.4byte	0x425
 1316 049b 10       		.byte	0x10
 1317 049c 08       		.uleb128 0x8
 1318 049d 723900   		.ascii	"r9\000"
 1319 04a0 0A       		.byte	0xa
 1320 04a1 7101     		.2byte	0x171
 1321 04a3 25040000 		.4byte	0x425
 1322 04a7 14       		.byte	0x14
 1323 04a8 08       		.uleb128 0x8
 1324 04a9 72313000 		.ascii	"r10\000"
 1325 04ad 0A       		.byte	0xa
 1326 04ae 7201     		.2byte	0x172
 1327 04b0 25040000 		.4byte	0x425
 1328 04b4 18       		.byte	0x18
 1329 04b5 08       		.uleb128 0x8
 1330 04b6 72313100 		.ascii	"r11\000"
 1331 04ba 0A       		.byte	0xa
 1332 04bb 7301     		.2byte	0x173
 1333 04bd 25040000 		.4byte	0x425
 1334 04c1 1C       		.byte	0x1c
 1335 04c2 08       		.uleb128 0x8
 1336 04c3 6C7200   		.ascii	"lr\000"
 1337 04c6 0A       		.byte	0xa
 1338 04c7 7401     		.2byte	0x174
 1339 04c9 25040000 		.4byte	0x425
 1340 04cd 20       		.byte	0x20
 1341 04ce 00       		.byte	0
 1342 04cf 0A       		.uleb128 0xa
 1343 04d0 04       		.byte	0x4
 1344 04d1 53040000 		.4byte	0x453
 1345 04d5 0F       		.uleb128 0xf
 1346 04d6 04       		.byte	0x4
 1347 04d7 03       		.byte	0x3
 1348 04d8 D2       		.byte	0xd2
 1349 04d9 38050000 		.4byte	0x538
 1350 04dd 10       		.uleb128 0x10
 1351 04de CC010000 		.4byte	.LASF75
 1352 04e2 03       		.byte	0x3
 1353 04e3 D9       		.byte	0xd9
 1354 04e4 05010000 		.4byte	0x105
 1355 04e8 10       		.uleb128 0x10
 1356 04e9 4F050000 		.4byte	.LASF76
 1357 04ed 03       		.byte	0x3
 1358 04ee E0       		.byte	0xe0
 1359 04ef 05010000 		.4byte	0x105
 1360 04f3 10       		.uleb128 0x10
 1361 04f4 7C000000 		.4byte	.LASF77
 1362 04f8 03       		.byte	0x3
 1363 04f9 E7       		.byte	0xe7
 1364 04fa 02030000 		.4byte	0x302
 1365 04fe 10       		.uleb128 0x10
 1366 04ff F2040000 		.4byte	.LASF78
ARM GAS  /tmp/ccLjLudm.s 			page 52


 1367 0503 03       		.byte	0x3
 1368 0504 EE       		.byte	0xee
 1369 0505 38050000 		.4byte	0x538
 1370 0509 10       		.uleb128 0x10
 1371 050a 0C010000 		.4byte	.LASF79
 1372 050e 03       		.byte	0x3
 1373 050f F3       		.byte	0xf3
 1374 0510 05010000 		.4byte	0x105
 1375 0514 10       		.uleb128 0x10
 1376 0515 56040000 		.4byte	.LASF80
 1377 0519 03       		.byte	0x3
 1378 051a FC       		.byte	0xfc
 1379 051b 63050000 		.4byte	0x563
 1380 051f 11       		.uleb128 0x11
 1381 0520 10000000 		.4byte	.LASF81
 1382 0524 03       		.byte	0x3
 1383 0525 0501     		.2byte	0x105
 1384 0527 9A050000 		.4byte	0x59a
 1385 052b 11       		.uleb128 0x11
 1386 052c B4000000 		.4byte	.LASF82
 1387 0530 03       		.byte	0x3
 1388 0531 0D01     		.2byte	0x10d
 1389 0533 10010000 		.4byte	0x110
 1390 0537 00       		.byte	0
 1391 0538 0A       		.uleb128 0xa
 1392 0539 04       		.byte	0x4
 1393 053a 1A020000 		.4byte	0x21a
 1394 053e 05       		.uleb128 0x5
 1395 053f 20010000 		.4byte	.LASF83
 1396 0543 0C       		.byte	0xc
 1397 0544 0B       		.byte	0xb
 1398 0545 34       		.byte	0x34
 1399 0546 63050000 		.4byte	0x563
 1400 054a 06       		.uleb128 0x6
 1401 054b 48040000 		.4byte	.LASF28
 1402 054f 0B       		.byte	0xb
 1403 0550 35       		.byte	0x35
 1404 0551 4F020000 		.4byte	0x24f
 1405 0555 00       		.byte	0
 1406 0556 07       		.uleb128 0x7
 1407 0557 636E7400 		.ascii	"cnt\000"
 1408 055b 0B       		.byte	0xb
 1409 055c 37       		.byte	0x37
 1410 055d 1B010000 		.4byte	0x11b
 1411 0561 08       		.byte	0x8
 1412 0562 00       		.byte	0
 1413 0563 0A       		.uleb128 0xa
 1414 0564 04       		.byte	0x4
 1415 0565 3E050000 		.4byte	0x53e
 1416 0569 05       		.uleb128 0x5
 1417 056a D9010000 		.4byte	.LASF84
 1418 056e 10       		.byte	0x10
 1419 056f 0C       		.byte	0xc
 1420 0570 39       		.byte	0x39
 1421 0571 9A050000 		.4byte	0x59a
 1422 0575 06       		.uleb128 0x6
 1423 0576 48040000 		.4byte	.LASF28
ARM GAS  /tmp/ccLjLudm.s 			page 53


 1424 057a 0C       		.byte	0xc
 1425 057b 3A       		.byte	0x3a
 1426 057c 4F020000 		.4byte	0x24f
 1427 0580 00       		.byte	0
 1428 0581 06       		.uleb128 0x6
 1429 0582 88010000 		.4byte	.LASF85
 1430 0586 0C       		.byte	0xc
 1431 0587 3C       		.byte	0x3c
 1432 0588 25020000 		.4byte	0x225
 1433 058c 08       		.byte	0x8
 1434 058d 06       		.uleb128 0x6
 1435 058e 4F000000 		.4byte	.LASF47
 1436 0592 0C       		.byte	0xc
 1437 0593 3E       		.byte	0x3e
 1438 0594 CE050000 		.4byte	0x5ce
 1439 0598 0C       		.byte	0xc
 1440 0599 00       		.byte	0
 1441 059a 0A       		.uleb128 0xa
 1442 059b 04       		.byte	0x4
 1443 059c 69050000 		.4byte	0x569
 1444 05a0 0A       		.uleb128 0xa
 1445 05a1 04       		.byte	0x4
 1446 05a2 A6050000 		.4byte	0x5a6
 1447 05a6 12       		.uleb128 0x12
 1448 05a7 AB050000 		.4byte	0x5ab
 1449 05ab 03       		.uleb128 0x3
 1450 05ac 01       		.byte	0x1
 1451 05ad 08       		.byte	0x8
 1452 05ae 0C020000 		.4byte	.LASF86
 1453 05b2 0A       		.uleb128 0xa
 1454 05b3 04       		.byte	0x4
 1455 05b4 30040000 		.4byte	0x430
 1456 05b8 0A       		.uleb128 0xa
 1457 05b9 04       		.byte	0x4
 1458 05ba 04030000 		.4byte	0x304
 1459 05be 13       		.uleb128 0x13
 1460 05bf A0050000 		.4byte	0x5a0
 1461 05c3 04       		.uleb128 0x4
 1462 05c4 5D040000 		.4byte	.LASF87
 1463 05c8 0C       		.byte	0xc
 1464 05c9 34       		.byte	0x34
 1465 05ca 69050000 		.4byte	0x569
 1466 05ce 0A       		.uleb128 0xa
 1467 05cf 04       		.byte	0x4
 1468 05d0 C3050000 		.4byte	0x5c3
 1469 05d4 03       		.uleb128 0x3
 1470 05d5 01       		.byte	0x1
 1471 05d6 02       		.byte	0x2
 1472 05d7 D3010000 		.4byte	.LASF88
 1473 05db 14       		.uleb128 0x14
 1474 05dc AB030000 		.4byte	.LASF92
 1475 05e0 02       		.byte	0x2
 1476 05e1 0601     		.2byte	0x106
 1477 05e3 03       		.byte	0x3
 1478 05e4 F5050000 		.4byte	0x5f5
 1479 05e8 15       		.uleb128 0x15
 1480 05e9 9E010000 		.4byte	.LASF94
ARM GAS  /tmp/ccLjLudm.s 			page 54


 1481 05ed 02       		.byte	0x2
 1482 05ee 0601     		.2byte	0x106
 1483 05f0 C3000000 		.4byte	0xc3
 1484 05f4 00       		.byte	0
 1485 05f5 16       		.uleb128 0x16
 1486 05f6 83000000 		.4byte	.LASF89
 1487 05fa 0A       		.byte	0xa
 1488 05fb 5202     		.2byte	0x252
 1489 05fd 03       		.byte	0x3
 1490 05fe 16       		.uleb128 0x16
 1491 05ff 3D050000 		.4byte	.LASF90
 1492 0603 0A       		.byte	0xa
 1493 0604 6A02     		.2byte	0x26a
 1494 0606 03       		.byte	0x3
 1495 0607 16       		.uleb128 0x16
 1496 0608 ED010000 		.4byte	.LASF91
 1497 060c 0D       		.byte	0xd
 1498 060d 7601     		.2byte	0x176
 1499 060f 03       		.byte	0x3
 1500 0610 14       		.uleb128 0x14
 1501 0611 1D050000 		.4byte	.LASF93
 1502 0615 03       		.byte	0x3
 1503 0616 6102     		.2byte	0x261
 1504 0618 03       		.byte	0x3
 1505 0619 35060000 		.4byte	0x635
 1506 061d 17       		.uleb128 0x17
 1507 061e 747000   		.ascii	"tp\000"
 1508 0621 03       		.byte	0x3
 1509 0622 6102     		.2byte	0x261
 1510 0624 25020000 		.4byte	0x225
 1511 0628 17       		.uleb128 0x17
 1512 0629 74717000 		.ascii	"tqp\000"
 1513 062d 03       		.byte	0x3
 1514 062e 6102     		.2byte	0x261
 1515 0630 35060000 		.4byte	0x635
 1516 0634 00       		.byte	0
 1517 0635 0A       		.uleb128 0xa
 1518 0636 04       		.byte	0x4
 1519 0637 4F020000 		.4byte	0x24f
 1520 063b 14       		.uleb128 0x14
 1521 063c 7C010000 		.4byte	.LASF95
 1522 0640 0D       		.byte	0xd
 1523 0641 8201     		.2byte	0x182
 1524 0643 03       		.byte	0x3
 1525 0644 56060000 		.4byte	0x656
 1526 0648 18       		.uleb128 0x18
 1527 0649 9E020000 		.4byte	.LASF98
 1528 064d 66060000 		.4byte	0x666
 1529 0651 7C010000 		.4byte	.LASF95
 1530 0655 00       		.byte	0
 1531 0656 19       		.uleb128 0x19
 1532 0657 AB050000 		.4byte	0x5ab
 1533 065b 66060000 		.4byte	0x666
 1534 065f 1A       		.uleb128 0x1a
 1535 0660 1E040000 		.4byte	0x41e
 1536 0664 0B       		.byte	0xb
 1537 0665 00       		.byte	0
ARM GAS  /tmp/ccLjLudm.s 			page 55


 1538 0666 12       		.uleb128 0x12
 1539 0667 56060000 		.4byte	0x656
 1540 066b 1B       		.uleb128 0x1b
 1541 066c F7010000 		.4byte	.LASF96
 1542 0670 04       		.byte	0x4
 1543 0671 4F       		.byte	0x4f
 1544 0672 D4050000 		.4byte	0x5d4
 1545 0676 03       		.byte	0x3
 1546 0677 86060000 		.4byte	0x686
 1547 067b 1C       		.uleb128 0x1c
 1548 067c 747000   		.ascii	"tp\000"
 1549 067f 04       		.byte	0x4
 1550 0680 4F       		.byte	0x4f
 1551 0681 25020000 		.4byte	0x225
 1552 0685 00       		.byte	0
 1553 0686 1D       		.uleb128 0x1d
 1554 0687 8C020000 		.4byte	.LASF97
 1555 068b 03       		.byte	0x3
 1556 068c 6902     		.2byte	0x269
 1557 068e 25020000 		.4byte	0x225
 1558 0692 03       		.byte	0x3
 1559 0693 AF060000 		.4byte	0x6af
 1560 0697 17       		.uleb128 0x17
 1561 0698 74717000 		.ascii	"tqp\000"
 1562 069c 03       		.byte	0x3
 1563 069d 6902     		.2byte	0x269
 1564 069f 35060000 		.4byte	0x635
 1565 06a3 1E       		.uleb128 0x1e
 1566 06a4 747000   		.ascii	"tp\000"
 1567 06a7 03       		.byte	0x3
 1568 06a8 6A02     		.2byte	0x26a
 1569 06aa 25020000 		.4byte	0x225
 1570 06ae 00       		.byte	0
 1571 06af 1F       		.uleb128 0x1f
 1572 06b0 A2040000 		.4byte	.LASF99
 1573 06b4 04       		.byte	0x4
 1574 06b5 71       		.byte	0x71
 1575 06b6 03       		.byte	0x3
 1576 06b7 D1060000 		.4byte	0x6d1
 1577 06bb 1C       		.uleb128 0x1c
 1578 06bc 747000   		.ascii	"tp\000"
 1579 06bf 04       		.byte	0x4
 1580 06c0 71       		.byte	0x71
 1581 06c1 25020000 		.4byte	0x225
 1582 06c5 1C       		.uleb128 0x1c
 1583 06c6 6D736700 		.ascii	"msg\000"
 1584 06ca 04       		.byte	0x4
 1585 06cb 71       		.byte	0x71
 1586 06cc 05010000 		.4byte	0x105
 1587 06d0 00       		.byte	0
 1588 06d1 20       		.uleb128 0x20
 1589 06d2 72000000 		.4byte	.LASF100
 1590 06d6 01       		.byte	0x1
 1591 06d7 57       		.byte	0x57
 1592 06d8 05010000 		.4byte	0x105
 1593 06dc 00000000 		.4byte	.LFB188
 1594 06e0 40000000 		.4byte	.LFE188-.LFB188
ARM GAS  /tmp/ccLjLudm.s 			page 56


 1595 06e4 01       		.uleb128 0x1
 1596 06e5 9C       		.byte	0x9c
 1597 06e6 E8070000 		.4byte	0x7e8
 1598 06ea 21       		.uleb128 0x21
 1599 06eb 747000   		.ascii	"tp\000"
 1600 06ee 01       		.byte	0x1
 1601 06ef 57       		.byte	0x57
 1602 06f0 25020000 		.4byte	0x225
 1603 06f4 00000000 		.4byte	.LLST0
 1604 06f8 21       		.uleb128 0x21
 1605 06f9 6D736700 		.ascii	"msg\000"
 1606 06fd 01       		.byte	0x1
 1607 06fe 57       		.byte	0x57
 1608 06ff 05010000 		.4byte	0x105
 1609 0703 3A000000 		.4byte	.LLST1
 1610 0707 22       		.uleb128 0x22
 1611 0708 63747000 		.ascii	"ctp\000"
 1612 070c 01       		.byte	0x1
 1613 070d 58       		.byte	0x58
 1614 070e 25020000 		.4byte	0x225
 1615 0712 01       		.uleb128 0x1
 1616 0713 54       		.byte	0x54
 1617 0714 23       		.uleb128 0x23
 1618 0715 6E010000 		.4byte	.LASF102
 1619 0719 F8070000 		.4byte	0x7f8
 1620 071d 24       		.uleb128 0x24
 1621 071e 07060000 		.4byte	0x607
 1622 0722 0C000000 		.4byte	.LBB52
 1623 0726 06000000 		.4byte	.LBE52-.LBB52
 1624 072a 01       		.byte	0x1
 1625 072b 5C       		.byte	0x5c
 1626 072c 59070000 		.4byte	0x759
 1627 0730 25       		.uleb128 0x25
 1628 0731 F5050000 		.4byte	0x5f5
 1629 0735 0C000000 		.4byte	.LBB53
 1630 0739 06000000 		.4byte	.LBE53-.LBB53
 1631 073d 0D       		.byte	0xd
 1632 073e 7801     		.2byte	0x178
 1633 0740 25       		.uleb128 0x25
 1634 0741 DB050000 		.4byte	0x5db
 1635 0745 0C000000 		.4byte	.LBB54
 1636 0749 06000000 		.4byte	.LBE54-.LBB54
 1637 074d 0A       		.byte	0xa
 1638 074e 5A02     		.2byte	0x25a
 1639 0750 26       		.uleb128 0x26
 1640 0751 E8050000 		.4byte	0x5e8
 1641 0755 20       		.byte	0x20
 1642 0756 00       		.byte	0
 1643 0757 00       		.byte	0
 1644 0758 00       		.byte	0
 1645 0759 27       		.uleb128 0x27
 1646 075a 10060000 		.4byte	0x610
 1647 075e 18000000 		.4byte	.LBB56
 1648 0762 00000000 		.4byte	.Ldebug_ranges0+0
 1649 0766 01       		.byte	0x1
 1650 0767 5E       		.byte	0x5e
 1651 0768 7D070000 		.4byte	0x77d
ARM GAS  /tmp/ccLjLudm.s 			page 57


 1652 076c 28       		.uleb128 0x28
 1653 076d 28060000 		.4byte	0x628
 1654 0771 80000000 		.4byte	.LLST2
 1655 0775 29       		.uleb128 0x29
 1656 0776 1D060000 		.4byte	0x61d
 1657 077a 01       		.uleb128 0x1
 1658 077b 54       		.byte	0x54
 1659 077c 00       		.byte	0
 1660 077d 24       		.uleb128 0x24
 1661 077e 3B060000 		.4byte	0x63b
 1662 0782 32000000 		.4byte	.LBB60
 1663 0786 06000000 		.4byte	.LBE60-.LBB60
 1664 078a 01       		.byte	0x1
 1665 078b 64       		.byte	0x64
 1666 078c CB070000 		.4byte	0x7cb
 1667 0790 2A       		.uleb128 0x2a
 1668 0791 32000000 		.4byte	.LBB61
 1669 0795 06000000 		.4byte	.LBE61-.LBB61
 1670 0799 2B       		.uleb128 0x2b
 1671 079a 48060000 		.4byte	0x648
 1672 079e 25       		.uleb128 0x25
 1673 079f FE050000 		.4byte	0x5fe
 1674 07a3 32000000 		.4byte	.LBB62
 1675 07a7 06000000 		.4byte	.LBE62-.LBB62
 1676 07ab 0D       		.byte	0xd
 1677 07ac 8F01     		.2byte	0x18f
 1678 07ae 25       		.uleb128 0x25
 1679 07af DB050000 		.4byte	0x5db
 1680 07b3 32000000 		.4byte	.LBB63
 1681 07b7 06000000 		.4byte	.LBE63-.LBB63
 1682 07bb 0A       		.byte	0xa
 1683 07bc 6D02     		.2byte	0x26d
 1684 07be 28       		.uleb128 0x28
 1685 07bf E8050000 		.4byte	0x5e8
 1686 07c3 CB000000 		.4byte	.LLST3
 1687 07c7 00       		.byte	0
 1688 07c8 00       		.byte	0
 1689 07c9 00       		.byte	0
 1690 07ca 00       		.byte	0
 1691 07cb 2C       		.uleb128 0x2c
 1692 07cc 30000000 		.4byte	.LVL6
 1693 07d0 2D0A0000 		.4byte	0xa2d
 1694 07d4 DE070000 		.4byte	0x7de
 1695 07d8 2D       		.uleb128 0x2d
 1696 07d9 01       		.uleb128 0x1
 1697 07da 50       		.byte	0x50
 1698 07db 01       		.uleb128 0x1
 1699 07dc 3C       		.byte	0x3c
 1700 07dd 00       		.byte	0
 1701 07de 2E       		.uleb128 0x2e
 1702 07df 3E000000 		.4byte	.LVL9
 1703 07e3 3F0A0000 		.4byte	0xa3f
 1704 07e7 00       		.byte	0
 1705 07e8 19       		.uleb128 0x19
 1706 07e9 AB050000 		.4byte	0x5ab
 1707 07ed F8070000 		.4byte	0x7f8
 1708 07f1 1A       		.uleb128 0x1a
ARM GAS  /tmp/ccLjLudm.s 			page 58


 1709 07f2 1E040000 		.4byte	0x41e
 1710 07f6 09       		.byte	0x9
 1711 07f7 00       		.byte	0
 1712 07f8 12       		.uleb128 0x12
 1713 07f9 E8070000 		.4byte	0x7e8
 1714 07fd 20       		.uleb128 0x20
 1715 07fe 72020000 		.4byte	.LASF101
 1716 0802 01       		.byte	0x1
 1717 0803 77       		.byte	0x77
 1718 0804 25020000 		.4byte	0x225
 1719 0808 00000000 		.4byte	.LFB189
 1720 080c 40000000 		.4byte	.LFE189-.LFB189
 1721 0810 01       		.uleb128 0x1
 1722 0811 9C       		.byte	0x9c
 1723 0812 FF080000 		.4byte	0x8ff
 1724 0816 2F       		.uleb128 0x2f
 1725 0817 747000   		.ascii	"tp\000"
 1726 081a 01       		.byte	0x1
 1727 081b 78       		.byte	0x78
 1728 081c 25020000 		.4byte	0x225
 1729 0820 24       		.uleb128 0x24
 1730 0821 07060000 		.4byte	0x607
 1731 0825 02000000 		.4byte	.LBB65
 1732 0829 06000000 		.4byte	.LBE65-.LBB65
 1733 082d 01       		.byte	0x1
 1734 082e 7A       		.byte	0x7a
 1735 082f 5C080000 		.4byte	0x85c
 1736 0833 25       		.uleb128 0x25
 1737 0834 F5050000 		.4byte	0x5f5
 1738 0838 02000000 		.4byte	.LBB66
 1739 083c 06000000 		.4byte	.LBE66-.LBB66
 1740 0840 0D       		.byte	0xd
 1741 0841 7801     		.2byte	0x178
 1742 0843 25       		.uleb128 0x25
 1743 0844 DB050000 		.4byte	0x5db
 1744 0848 02000000 		.4byte	.LBB67
 1745 084c 06000000 		.4byte	.LBE67-.LBB67
 1746 0850 0A       		.byte	0xa
 1747 0851 5A02     		.2byte	0x25a
 1748 0853 26       		.uleb128 0x26
 1749 0854 E8050000 		.4byte	0x5e8
 1750 0858 20       		.byte	0x20
 1751 0859 00       		.byte	0
 1752 085a 00       		.byte	0
 1753 085b 00       		.byte	0
 1754 085c 24       		.uleb128 0x24
 1755 085d 6B060000 		.4byte	0x66b
 1756 0861 12000000 		.4byte	.LBB69
 1757 0865 06000000 		.4byte	.LBE69-.LBB69
 1758 0869 01       		.byte	0x1
 1759 086a 7B       		.byte	0x7b
 1760 086b 79080000 		.4byte	0x879
 1761 086f 28       		.uleb128 0x28
 1762 0870 7B060000 		.4byte	0x67b
 1763 0874 DF000000 		.4byte	.LLST4
 1764 0878 00       		.byte	0
 1765 0879 27       		.uleb128 0x27
ARM GAS  /tmp/ccLjLudm.s 			page 59


 1766 087a 86060000 		.4byte	0x686
 1767 087e 1C000000 		.4byte	.LBB71
 1768 0882 18000000 		.4byte	.Ldebug_ranges0+0x18
 1769 0886 01       		.byte	0x1
 1770 0887 7E       		.byte	0x7e
 1771 0888 A5080000 		.4byte	0x8a5
 1772 088c 28       		.uleb128 0x28
 1773 088d 97060000 		.4byte	0x697
 1774 0891 FD000000 		.4byte	.LLST5
 1775 0895 30       		.uleb128 0x30
 1776 0896 18000000 		.4byte	.Ldebug_ranges0+0x18
 1777 089a 31       		.uleb128 0x31
 1778 089b A3060000 		.4byte	0x6a3
 1779 089f 10010000 		.4byte	.LLST6
 1780 08a3 00       		.byte	0
 1781 08a4 00       		.byte	0
 1782 08a5 27       		.uleb128 0x27
 1783 08a6 3B060000 		.4byte	0x63b
 1784 08aa 24000000 		.4byte	.LBB75
 1785 08ae 30000000 		.4byte	.Ldebug_ranges0+0x30
 1786 08b2 01       		.byte	0x1
 1787 08b3 80       		.byte	0x80
 1788 08b4 EF080000 		.4byte	0x8ef
 1789 08b8 30       		.uleb128 0x30
 1790 08b9 30000000 		.4byte	.Ldebug_ranges0+0x30
 1791 08bd 2B       		.uleb128 0x2b
 1792 08be 48060000 		.4byte	0x648
 1793 08c2 32       		.uleb128 0x32
 1794 08c3 FE050000 		.4byte	0x5fe
 1795 08c7 24000000 		.4byte	.LBB77
 1796 08cb 30000000 		.4byte	.Ldebug_ranges0+0x30
 1797 08cf 0D       		.byte	0xd
 1798 08d0 8F01     		.2byte	0x18f
 1799 08d2 32       		.uleb128 0x32
 1800 08d3 DB050000 		.4byte	0x5db
 1801 08d7 24000000 		.4byte	.LBB78
 1802 08db 30000000 		.4byte	.Ldebug_ranges0+0x30
 1803 08df 0A       		.byte	0xa
 1804 08e0 6D02     		.2byte	0x26d
 1805 08e2 28       		.uleb128 0x28
 1806 08e3 E8050000 		.4byte	0x5e8
 1807 08e7 23010000 		.4byte	.LLST7
 1808 08eb 00       		.byte	0
 1809 08ec 00       		.byte	0
 1810 08ed 00       		.byte	0
 1811 08ee 00       		.byte	0
 1812 08ef 33       		.uleb128 0x33
 1813 08f0 36000000 		.4byte	.LVL15
 1814 08f4 2D0A0000 		.4byte	0xa2d
 1815 08f8 2D       		.uleb128 0x2d
 1816 08f9 01       		.uleb128 0x1
 1817 08fa 50       		.byte	0x50
 1818 08fb 01       		.uleb128 0x1
 1819 08fc 3E       		.byte	0x3e
 1820 08fd 00       		.byte	0
 1821 08fe 00       		.byte	0
 1822 08ff 34       		.uleb128 0x34
ARM GAS  /tmp/ccLjLudm.s 			page 60


 1823 0900 DA000000 		.4byte	.LASF108
 1824 0904 01       		.byte	0x1
 1825 0905 8F       		.byte	0x8f
 1826 0906 00000000 		.4byte	.LFB190
 1827 090a 14000000 		.4byte	.LFE190-.LFB190
 1828 090e 01       		.uleb128 0x1
 1829 090f 9C       		.byte	0x9c
 1830 0910 FC090000 		.4byte	0x9fc
 1831 0914 21       		.uleb128 0x21
 1832 0915 747000   		.ascii	"tp\000"
 1833 0918 01       		.byte	0x1
 1834 0919 8F       		.byte	0x8f
 1835 091a 25020000 		.4byte	0x225
 1836 091e 37010000 		.4byte	.LLST8
 1837 0922 21       		.uleb128 0x21
 1838 0923 6D736700 		.ascii	"msg\000"
 1839 0927 01       		.byte	0x1
 1840 0928 8F       		.byte	0x8f
 1841 0929 05010000 		.4byte	0x105
 1842 092d 58010000 		.4byte	.LLST9
 1843 0931 23       		.uleb128 0x23
 1844 0932 B0040000 		.4byte	.LASF103
 1845 0936 0C0A0000 		.4byte	0xa0c
 1846 093a 24       		.uleb128 0x24
 1847 093b 07060000 		.4byte	0x607
 1848 093f 02000000 		.4byte	.LBB85
 1849 0943 06000000 		.4byte	.LBE85-.LBB85
 1850 0947 01       		.byte	0x1
 1851 0948 91       		.byte	0x91
 1852 0949 76090000 		.4byte	0x976
 1853 094d 25       		.uleb128 0x25
 1854 094e F5050000 		.4byte	0x5f5
 1855 0952 02000000 		.4byte	.LBB86
 1856 0956 06000000 		.4byte	.LBE86-.LBB86
 1857 095a 0D       		.byte	0xd
 1858 095b 7801     		.2byte	0x178
 1859 095d 25       		.uleb128 0x25
 1860 095e DB050000 		.4byte	0x5db
 1861 0962 02000000 		.4byte	.LBB87
 1862 0966 06000000 		.4byte	.LBE87-.LBB87
 1863 096a 0A       		.byte	0xa
 1864 096b 5A02     		.2byte	0x25a
 1865 096d 26       		.uleb128 0x26
 1866 096e E8050000 		.4byte	0x5e8
 1867 0972 20       		.byte	0x20
 1868 0973 00       		.byte	0
 1869 0974 00       		.byte	0
 1870 0975 00       		.byte	0
 1871 0976 24       		.uleb128 0x24
 1872 0977 AF060000 		.4byte	0x6af
 1873 097b 08000000 		.4byte	.LBB89
 1874 097f 04000000 		.4byte	.LBE89-.LBB89
 1875 0983 01       		.byte	0x1
 1876 0984 93       		.byte	0x93
 1877 0985 B4090000 		.4byte	0x9b4
 1878 0989 28       		.uleb128 0x28
 1879 098a C5060000 		.4byte	0x6c5
ARM GAS  /tmp/ccLjLudm.s 			page 61


 1880 098e 79010000 		.4byte	.LLST10
 1881 0992 28       		.uleb128 0x28
 1882 0993 BB060000 		.4byte	0x6bb
 1883 0997 9A010000 		.4byte	.LLST11
 1884 099b 33       		.uleb128 0x33
 1885 099c 0C000000 		.4byte	.LVL18
 1886 09a0 550A0000 		.4byte	0xa55
 1887 09a4 2D       		.uleb128 0x2d
 1888 09a5 01       		.uleb128 0x1
 1889 09a6 51       		.byte	0x51
 1890 09a7 03       		.uleb128 0x3
 1891 09a8 F3       		.byte	0xf3
 1892 09a9 01       		.uleb128 0x1
 1893 09aa 51       		.byte	0x51
 1894 09ab 2D       		.uleb128 0x2d
 1895 09ac 01       		.uleb128 0x1
 1896 09ad 50       		.byte	0x50
 1897 09ae 03       		.uleb128 0x3
 1898 09af F3       		.byte	0xf3
 1899 09b0 01       		.uleb128 0x1
 1900 09b1 50       		.byte	0x50
 1901 09b2 00       		.byte	0
 1902 09b3 00       		.byte	0
 1903 09b4 35       		.uleb128 0x35
 1904 09b5 3B060000 		.4byte	0x63b
 1905 09b9 0C000000 		.4byte	.LBB91
 1906 09bd 08000000 		.4byte	.LBE91-.LBB91
 1907 09c1 01       		.byte	0x1
 1908 09c2 94       		.byte	0x94
 1909 09c3 2A       		.uleb128 0x2a
 1910 09c4 0C000000 		.4byte	.LBB92
 1911 09c8 08000000 		.4byte	.LBE92-.LBB92
 1912 09cc 2B       		.uleb128 0x2b
 1913 09cd 48060000 		.4byte	0x648
 1914 09d1 25       		.uleb128 0x25
 1915 09d2 FE050000 		.4byte	0x5fe
 1916 09d6 0C000000 		.4byte	.LBB93
 1917 09da 08000000 		.4byte	.LBE93-.LBB93
 1918 09de 0D       		.byte	0xd
 1919 09df 8F01     		.2byte	0x18f
 1920 09e1 25       		.uleb128 0x25
 1921 09e2 DB050000 		.4byte	0x5db
 1922 09e6 0C000000 		.4byte	.LBB94
 1923 09ea 08000000 		.4byte	.LBE94-.LBB94
 1924 09ee 0A       		.byte	0xa
 1925 09ef 6D02     		.2byte	0x26d
 1926 09f1 26       		.uleb128 0x26
 1927 09f2 E8050000 		.4byte	0x5e8
 1928 09f6 00       		.byte	0
 1929 09f7 00       		.byte	0
 1930 09f8 00       		.byte	0
 1931 09f9 00       		.byte	0
 1932 09fa 00       		.byte	0
 1933 09fb 00       		.byte	0
 1934 09fc 19       		.uleb128 0x19
 1935 09fd AB050000 		.4byte	0x5ab
 1936 0a01 0C0A0000 		.4byte	0xa0c
ARM GAS  /tmp/ccLjLudm.s 			page 62


 1937 0a05 1A       		.uleb128 0x1a
 1938 0a06 1E040000 		.4byte	0x41e
 1939 0a0a 0C       		.byte	0xc
 1940 0a0b 00       		.byte	0
 1941 0a0c 12       		.uleb128 0x12
 1942 0a0d FC090000 		.4byte	0x9fc
 1943 0a11 36       		.uleb128 0x36
 1944 0a12 94030000 		.4byte	.LASF104
 1945 0a16 0E       		.byte	0xe
 1946 0a17 9606     		.2byte	0x696
 1947 0a19 1D0A0000 		.4byte	0xa1d
 1948 0a1d 13       		.uleb128 0x13
 1949 0a1e B8000000 		.4byte	0xb8
 1950 0a22 37       		.uleb128 0x37
 1951 0a23 636800   		.ascii	"ch\000"
 1952 0a26 03       		.byte	0x3
 1953 0a27 D201     		.2byte	0x1d2
 1954 0a29 D1030000 		.4byte	0x3d1
 1955 0a2d 38       		.uleb128 0x38
 1956 0a2e 0A040000 		.4byte	.LASF109
 1957 0a32 03       		.byte	0x3
 1958 0a33 DE01     		.2byte	0x1de
 1959 0a35 3F0A0000 		.4byte	0xa3f
 1960 0a39 0D       		.uleb128 0xd
 1961 0a3a E4000000 		.4byte	0xe4
 1962 0a3e 00       		.byte	0
 1963 0a3f 39       		.uleb128 0x39
 1964 0a40 E7000000 		.4byte	.LASF110
 1965 0a44 03       		.byte	0x3
 1966 0a45 DC01     		.2byte	0x1dc
 1967 0a47 25020000 		.4byte	0x225
 1968 0a4b 550A0000 		.4byte	0xa55
 1969 0a4f 0D       		.uleb128 0xd
 1970 0a50 25020000 		.4byte	0x225
 1971 0a54 00       		.byte	0
 1972 0a55 3A       		.uleb128 0x3a
 1973 0a56 BE040000 		.4byte	.LASF111
 1974 0a5a 03       		.byte	0x3
 1975 0a5b E001     		.2byte	0x1e0
 1976 0a5d 0D       		.uleb128 0xd
 1977 0a5e 25020000 		.4byte	0x225
 1978 0a62 0D       		.uleb128 0xd
 1979 0a63 05010000 		.4byte	0x105
 1980 0a67 00       		.byte	0
 1981 0a68 00       		.byte	0
 1982              		.section	.debug_abbrev,"",%progbits
 1983              	.Ldebug_abbrev0:
 1984 0000 01       		.uleb128 0x1
 1985 0001 11       		.uleb128 0x11
 1986 0002 01       		.byte	0x1
 1987 0003 25       		.uleb128 0x25
 1988 0004 0E       		.uleb128 0xe
 1989 0005 13       		.uleb128 0x13
 1990 0006 0B       		.uleb128 0xb
 1991 0007 03       		.uleb128 0x3
 1992 0008 0E       		.uleb128 0xe
 1993 0009 1B       		.uleb128 0x1b
ARM GAS  /tmp/ccLjLudm.s 			page 63


 1994 000a 0E       		.uleb128 0xe
 1995 000b 55       		.uleb128 0x55
 1996 000c 17       		.uleb128 0x17
 1997 000d 11       		.uleb128 0x11
 1998 000e 01       		.uleb128 0x1
 1999 000f 10       		.uleb128 0x10
 2000 0010 17       		.uleb128 0x17
 2001 0011 00       		.byte	0
 2002 0012 00       		.byte	0
 2003 0013 02       		.uleb128 0x2
 2004 0014 24       		.uleb128 0x24
 2005 0015 00       		.byte	0
 2006 0016 0B       		.uleb128 0xb
 2007 0017 0B       		.uleb128 0xb
 2008 0018 3E       		.uleb128 0x3e
 2009 0019 0B       		.uleb128 0xb
 2010 001a 03       		.uleb128 0x3
 2011 001b 08       		.uleb128 0x8
 2012 001c 00       		.byte	0
 2013 001d 00       		.byte	0
 2014 001e 03       		.uleb128 0x3
 2015 001f 24       		.uleb128 0x24
 2016 0020 00       		.byte	0
 2017 0021 0B       		.uleb128 0xb
 2018 0022 0B       		.uleb128 0xb
 2019 0023 3E       		.uleb128 0x3e
 2020 0024 0B       		.uleb128 0xb
 2021 0025 03       		.uleb128 0x3
 2022 0026 0E       		.uleb128 0xe
 2023 0027 00       		.byte	0
 2024 0028 00       		.byte	0
 2025 0029 04       		.uleb128 0x4
 2026 002a 16       		.uleb128 0x16
 2027 002b 00       		.byte	0
 2028 002c 03       		.uleb128 0x3
 2029 002d 0E       		.uleb128 0xe
 2030 002e 3A       		.uleb128 0x3a
 2031 002f 0B       		.uleb128 0xb
 2032 0030 3B       		.uleb128 0x3b
 2033 0031 0B       		.uleb128 0xb
 2034 0032 49       		.uleb128 0x49
 2035 0033 13       		.uleb128 0x13
 2036 0034 00       		.byte	0
 2037 0035 00       		.byte	0
 2038 0036 05       		.uleb128 0x5
 2039 0037 13       		.uleb128 0x13
 2040 0038 01       		.byte	0x1
 2041 0039 03       		.uleb128 0x3
 2042 003a 0E       		.uleb128 0xe
 2043 003b 0B       		.uleb128 0xb
 2044 003c 0B       		.uleb128 0xb
 2045 003d 3A       		.uleb128 0x3a
 2046 003e 0B       		.uleb128 0xb
 2047 003f 3B       		.uleb128 0x3b
 2048 0040 0B       		.uleb128 0xb
 2049 0041 01       		.uleb128 0x1
 2050 0042 13       		.uleb128 0x13
ARM GAS  /tmp/ccLjLudm.s 			page 64


 2051 0043 00       		.byte	0
 2052 0044 00       		.byte	0
 2053 0045 06       		.uleb128 0x6
 2054 0046 0D       		.uleb128 0xd
 2055 0047 00       		.byte	0
 2056 0048 03       		.uleb128 0x3
 2057 0049 0E       		.uleb128 0xe
 2058 004a 3A       		.uleb128 0x3a
 2059 004b 0B       		.uleb128 0xb
 2060 004c 3B       		.uleb128 0x3b
 2061 004d 0B       		.uleb128 0xb
 2062 004e 49       		.uleb128 0x49
 2063 004f 13       		.uleb128 0x13
 2064 0050 38       		.uleb128 0x38
 2065 0051 0B       		.uleb128 0xb
 2066 0052 00       		.byte	0
 2067 0053 00       		.byte	0
 2068 0054 07       		.uleb128 0x7
 2069 0055 0D       		.uleb128 0xd
 2070 0056 00       		.byte	0
 2071 0057 03       		.uleb128 0x3
 2072 0058 08       		.uleb128 0x8
 2073 0059 3A       		.uleb128 0x3a
 2074 005a 0B       		.uleb128 0xb
 2075 005b 3B       		.uleb128 0x3b
 2076 005c 0B       		.uleb128 0xb
 2077 005d 49       		.uleb128 0x49
 2078 005e 13       		.uleb128 0x13
 2079 005f 38       		.uleb128 0x38
 2080 0060 0B       		.uleb128 0xb
 2081 0061 00       		.byte	0
 2082 0062 00       		.byte	0
 2083 0063 08       		.uleb128 0x8
 2084 0064 0D       		.uleb128 0xd
 2085 0065 00       		.byte	0
 2086 0066 03       		.uleb128 0x3
 2087 0067 08       		.uleb128 0x8
 2088 0068 3A       		.uleb128 0x3a
 2089 0069 0B       		.uleb128 0xb
 2090 006a 3B       		.uleb128 0x3b
 2091 006b 05       		.uleb128 0x5
 2092 006c 49       		.uleb128 0x49
 2093 006d 13       		.uleb128 0x13
 2094 006e 38       		.uleb128 0x38
 2095 006f 0B       		.uleb128 0xb
 2096 0070 00       		.byte	0
 2097 0071 00       		.byte	0
 2098 0072 09       		.uleb128 0x9
 2099 0073 0D       		.uleb128 0xd
 2100 0074 00       		.byte	0
 2101 0075 03       		.uleb128 0x3
 2102 0076 0E       		.uleb128 0xe
 2103 0077 3A       		.uleb128 0x3a
 2104 0078 0B       		.uleb128 0xb
 2105 0079 3B       		.uleb128 0x3b
 2106 007a 05       		.uleb128 0x5
 2107 007b 49       		.uleb128 0x49
ARM GAS  /tmp/ccLjLudm.s 			page 65


 2108 007c 13       		.uleb128 0x13
 2109 007d 38       		.uleb128 0x38
 2110 007e 0B       		.uleb128 0xb
 2111 007f 00       		.byte	0
 2112 0080 00       		.byte	0
 2113 0081 0A       		.uleb128 0xa
 2114 0082 0F       		.uleb128 0xf
 2115 0083 00       		.byte	0
 2116 0084 0B       		.uleb128 0xb
 2117 0085 0B       		.uleb128 0xb
 2118 0086 49       		.uleb128 0x49
 2119 0087 13       		.uleb128 0x13
 2120 0088 00       		.byte	0
 2121 0089 00       		.byte	0
 2122 008a 0B       		.uleb128 0xb
 2123 008b 13       		.uleb128 0x13
 2124 008c 01       		.byte	0x1
 2125 008d 03       		.uleb128 0x3
 2126 008e 0E       		.uleb128 0xe
 2127 008f 0B       		.uleb128 0xb
 2128 0090 0B       		.uleb128 0xb
 2129 0091 3A       		.uleb128 0x3a
 2130 0092 0B       		.uleb128 0xb
 2131 0093 3B       		.uleb128 0x3b
 2132 0094 05       		.uleb128 0x5
 2133 0095 01       		.uleb128 0x1
 2134 0096 13       		.uleb128 0x13
 2135 0097 00       		.byte	0
 2136 0098 00       		.byte	0
 2137 0099 0C       		.uleb128 0xc
 2138 009a 15       		.uleb128 0x15
 2139 009b 01       		.byte	0x1
 2140 009c 27       		.uleb128 0x27
 2141 009d 19       		.uleb128 0x19
 2142 009e 01       		.uleb128 0x1
 2143 009f 13       		.uleb128 0x13
 2144 00a0 00       		.byte	0
 2145 00a1 00       		.byte	0
 2146 00a2 0D       		.uleb128 0xd
 2147 00a3 05       		.uleb128 0x5
 2148 00a4 00       		.byte	0
 2149 00a5 49       		.uleb128 0x49
 2150 00a6 13       		.uleb128 0x13
 2151 00a7 00       		.byte	0
 2152 00a8 00       		.byte	0
 2153 00a9 0E       		.uleb128 0xe
 2154 00aa 0F       		.uleb128 0xf
 2155 00ab 00       		.byte	0
 2156 00ac 0B       		.uleb128 0xb
 2157 00ad 0B       		.uleb128 0xb
 2158 00ae 00       		.byte	0
 2159 00af 00       		.byte	0
 2160 00b0 0F       		.uleb128 0xf
 2161 00b1 17       		.uleb128 0x17
 2162 00b2 01       		.byte	0x1
 2163 00b3 0B       		.uleb128 0xb
 2164 00b4 0B       		.uleb128 0xb
ARM GAS  /tmp/ccLjLudm.s 			page 66


 2165 00b5 3A       		.uleb128 0x3a
 2166 00b6 0B       		.uleb128 0xb
 2167 00b7 3B       		.uleb128 0x3b
 2168 00b8 0B       		.uleb128 0xb
 2169 00b9 01       		.uleb128 0x1
 2170 00ba 13       		.uleb128 0x13
 2171 00bb 00       		.byte	0
 2172 00bc 00       		.byte	0
 2173 00bd 10       		.uleb128 0x10
 2174 00be 0D       		.uleb128 0xd
 2175 00bf 00       		.byte	0
 2176 00c0 03       		.uleb128 0x3
 2177 00c1 0E       		.uleb128 0xe
 2178 00c2 3A       		.uleb128 0x3a
 2179 00c3 0B       		.uleb128 0xb
 2180 00c4 3B       		.uleb128 0x3b
 2181 00c5 0B       		.uleb128 0xb
 2182 00c6 49       		.uleb128 0x49
 2183 00c7 13       		.uleb128 0x13
 2184 00c8 00       		.byte	0
 2185 00c9 00       		.byte	0
 2186 00ca 11       		.uleb128 0x11
 2187 00cb 0D       		.uleb128 0xd
 2188 00cc 00       		.byte	0
 2189 00cd 03       		.uleb128 0x3
 2190 00ce 0E       		.uleb128 0xe
 2191 00cf 3A       		.uleb128 0x3a
 2192 00d0 0B       		.uleb128 0xb
 2193 00d1 3B       		.uleb128 0x3b
 2194 00d2 05       		.uleb128 0x5
 2195 00d3 49       		.uleb128 0x49
 2196 00d4 13       		.uleb128 0x13
 2197 00d5 00       		.byte	0
 2198 00d6 00       		.byte	0
 2199 00d7 12       		.uleb128 0x12
 2200 00d8 26       		.uleb128 0x26
 2201 00d9 00       		.byte	0
 2202 00da 49       		.uleb128 0x49
 2203 00db 13       		.uleb128 0x13
 2204 00dc 00       		.byte	0
 2205 00dd 00       		.byte	0
 2206 00de 13       		.uleb128 0x13
 2207 00df 35       		.uleb128 0x35
 2208 00e0 00       		.byte	0
 2209 00e1 49       		.uleb128 0x49
 2210 00e2 13       		.uleb128 0x13
 2211 00e3 00       		.byte	0
 2212 00e4 00       		.byte	0
 2213 00e5 14       		.uleb128 0x14
 2214 00e6 2E       		.uleb128 0x2e
 2215 00e7 01       		.byte	0x1
 2216 00e8 03       		.uleb128 0x3
 2217 00e9 0E       		.uleb128 0xe
 2218 00ea 3A       		.uleb128 0x3a
 2219 00eb 0B       		.uleb128 0xb
 2220 00ec 3B       		.uleb128 0x3b
 2221 00ed 05       		.uleb128 0x5
ARM GAS  /tmp/ccLjLudm.s 			page 67


 2222 00ee 27       		.uleb128 0x27
 2223 00ef 19       		.uleb128 0x19
 2224 00f0 20       		.uleb128 0x20
 2225 00f1 0B       		.uleb128 0xb
 2226 00f2 01       		.uleb128 0x1
 2227 00f3 13       		.uleb128 0x13
 2228 00f4 00       		.byte	0
 2229 00f5 00       		.byte	0
 2230 00f6 15       		.uleb128 0x15
 2231 00f7 05       		.uleb128 0x5
 2232 00f8 00       		.byte	0
 2233 00f9 03       		.uleb128 0x3
 2234 00fa 0E       		.uleb128 0xe
 2235 00fb 3A       		.uleb128 0x3a
 2236 00fc 0B       		.uleb128 0xb
 2237 00fd 3B       		.uleb128 0x3b
 2238 00fe 05       		.uleb128 0x5
 2239 00ff 49       		.uleb128 0x49
 2240 0100 13       		.uleb128 0x13
 2241 0101 00       		.byte	0
 2242 0102 00       		.byte	0
 2243 0103 16       		.uleb128 0x16
 2244 0104 2E       		.uleb128 0x2e
 2245 0105 00       		.byte	0
 2246 0106 03       		.uleb128 0x3
 2247 0107 0E       		.uleb128 0xe
 2248 0108 3A       		.uleb128 0x3a
 2249 0109 0B       		.uleb128 0xb
 2250 010a 3B       		.uleb128 0x3b
 2251 010b 05       		.uleb128 0x5
 2252 010c 27       		.uleb128 0x27
 2253 010d 19       		.uleb128 0x19
 2254 010e 20       		.uleb128 0x20
 2255 010f 0B       		.uleb128 0xb
 2256 0110 00       		.byte	0
 2257 0111 00       		.byte	0
 2258 0112 17       		.uleb128 0x17
 2259 0113 05       		.uleb128 0x5
 2260 0114 00       		.byte	0
 2261 0115 03       		.uleb128 0x3
 2262 0116 08       		.uleb128 0x8
 2263 0117 3A       		.uleb128 0x3a
 2264 0118 0B       		.uleb128 0xb
 2265 0119 3B       		.uleb128 0x3b
 2266 011a 05       		.uleb128 0x5
 2267 011b 49       		.uleb128 0x49
 2268 011c 13       		.uleb128 0x13
 2269 011d 00       		.byte	0
 2270 011e 00       		.byte	0
 2271 011f 18       		.uleb128 0x18
 2272 0120 34       		.uleb128 0x34
 2273 0121 00       		.byte	0
 2274 0122 03       		.uleb128 0x3
 2275 0123 0E       		.uleb128 0xe
 2276 0124 49       		.uleb128 0x49
 2277 0125 13       		.uleb128 0x13
 2278 0126 34       		.uleb128 0x34
ARM GAS  /tmp/ccLjLudm.s 			page 68


 2279 0127 19       		.uleb128 0x19
 2280 0128 1C       		.uleb128 0x1c
 2281 0129 0E       		.uleb128 0xe
 2282 012a 00       		.byte	0
 2283 012b 00       		.byte	0
 2284 012c 19       		.uleb128 0x19
 2285 012d 01       		.uleb128 0x1
 2286 012e 01       		.byte	0x1
 2287 012f 49       		.uleb128 0x49
 2288 0130 13       		.uleb128 0x13
 2289 0131 01       		.uleb128 0x1
 2290 0132 13       		.uleb128 0x13
 2291 0133 00       		.byte	0
 2292 0134 00       		.byte	0
 2293 0135 1A       		.uleb128 0x1a
 2294 0136 21       		.uleb128 0x21
 2295 0137 00       		.byte	0
 2296 0138 49       		.uleb128 0x49
 2297 0139 13       		.uleb128 0x13
 2298 013a 2F       		.uleb128 0x2f
 2299 013b 0B       		.uleb128 0xb
 2300 013c 00       		.byte	0
 2301 013d 00       		.byte	0
 2302 013e 1B       		.uleb128 0x1b
 2303 013f 2E       		.uleb128 0x2e
 2304 0140 01       		.byte	0x1
 2305 0141 03       		.uleb128 0x3
 2306 0142 0E       		.uleb128 0xe
 2307 0143 3A       		.uleb128 0x3a
 2308 0144 0B       		.uleb128 0xb
 2309 0145 3B       		.uleb128 0x3b
 2310 0146 0B       		.uleb128 0xb
 2311 0147 27       		.uleb128 0x27
 2312 0148 19       		.uleb128 0x19
 2313 0149 49       		.uleb128 0x49
 2314 014a 13       		.uleb128 0x13
 2315 014b 20       		.uleb128 0x20
 2316 014c 0B       		.uleb128 0xb
 2317 014d 01       		.uleb128 0x1
 2318 014e 13       		.uleb128 0x13
 2319 014f 00       		.byte	0
 2320 0150 00       		.byte	0
 2321 0151 1C       		.uleb128 0x1c
 2322 0152 05       		.uleb128 0x5
 2323 0153 00       		.byte	0
 2324 0154 03       		.uleb128 0x3
 2325 0155 08       		.uleb128 0x8
 2326 0156 3A       		.uleb128 0x3a
 2327 0157 0B       		.uleb128 0xb
 2328 0158 3B       		.uleb128 0x3b
 2329 0159 0B       		.uleb128 0xb
 2330 015a 49       		.uleb128 0x49
 2331 015b 13       		.uleb128 0x13
 2332 015c 00       		.byte	0
 2333 015d 00       		.byte	0
 2334 015e 1D       		.uleb128 0x1d
 2335 015f 2E       		.uleb128 0x2e
ARM GAS  /tmp/ccLjLudm.s 			page 69


 2336 0160 01       		.byte	0x1
 2337 0161 03       		.uleb128 0x3
 2338 0162 0E       		.uleb128 0xe
 2339 0163 3A       		.uleb128 0x3a
 2340 0164 0B       		.uleb128 0xb
 2341 0165 3B       		.uleb128 0x3b
 2342 0166 05       		.uleb128 0x5
 2343 0167 27       		.uleb128 0x27
 2344 0168 19       		.uleb128 0x19
 2345 0169 49       		.uleb128 0x49
 2346 016a 13       		.uleb128 0x13
 2347 016b 20       		.uleb128 0x20
 2348 016c 0B       		.uleb128 0xb
 2349 016d 01       		.uleb128 0x1
 2350 016e 13       		.uleb128 0x13
 2351 016f 00       		.byte	0
 2352 0170 00       		.byte	0
 2353 0171 1E       		.uleb128 0x1e
 2354 0172 34       		.uleb128 0x34
 2355 0173 00       		.byte	0
 2356 0174 03       		.uleb128 0x3
 2357 0175 08       		.uleb128 0x8
 2358 0176 3A       		.uleb128 0x3a
 2359 0177 0B       		.uleb128 0xb
 2360 0178 3B       		.uleb128 0x3b
 2361 0179 05       		.uleb128 0x5
 2362 017a 49       		.uleb128 0x49
 2363 017b 13       		.uleb128 0x13
 2364 017c 00       		.byte	0
 2365 017d 00       		.byte	0
 2366 017e 1F       		.uleb128 0x1f
 2367 017f 2E       		.uleb128 0x2e
 2368 0180 01       		.byte	0x1
 2369 0181 03       		.uleb128 0x3
 2370 0182 0E       		.uleb128 0xe
 2371 0183 3A       		.uleb128 0x3a
 2372 0184 0B       		.uleb128 0xb
 2373 0185 3B       		.uleb128 0x3b
 2374 0186 0B       		.uleb128 0xb
 2375 0187 27       		.uleb128 0x27
 2376 0188 19       		.uleb128 0x19
 2377 0189 20       		.uleb128 0x20
 2378 018a 0B       		.uleb128 0xb
 2379 018b 01       		.uleb128 0x1
 2380 018c 13       		.uleb128 0x13
 2381 018d 00       		.byte	0
 2382 018e 00       		.byte	0
 2383 018f 20       		.uleb128 0x20
 2384 0190 2E       		.uleb128 0x2e
 2385 0191 01       		.byte	0x1
 2386 0192 3F       		.uleb128 0x3f
 2387 0193 19       		.uleb128 0x19
 2388 0194 03       		.uleb128 0x3
 2389 0195 0E       		.uleb128 0xe
 2390 0196 3A       		.uleb128 0x3a
 2391 0197 0B       		.uleb128 0xb
 2392 0198 3B       		.uleb128 0x3b
ARM GAS  /tmp/ccLjLudm.s 			page 70


 2393 0199 0B       		.uleb128 0xb
 2394 019a 27       		.uleb128 0x27
 2395 019b 19       		.uleb128 0x19
 2396 019c 49       		.uleb128 0x49
 2397 019d 13       		.uleb128 0x13
 2398 019e 11       		.uleb128 0x11
 2399 019f 01       		.uleb128 0x1
 2400 01a0 12       		.uleb128 0x12
 2401 01a1 06       		.uleb128 0x6
 2402 01a2 40       		.uleb128 0x40
 2403 01a3 18       		.uleb128 0x18
 2404 01a4 9742     		.uleb128 0x2117
 2405 01a6 19       		.uleb128 0x19
 2406 01a7 01       		.uleb128 0x1
 2407 01a8 13       		.uleb128 0x13
 2408 01a9 00       		.byte	0
 2409 01aa 00       		.byte	0
 2410 01ab 21       		.uleb128 0x21
 2411 01ac 05       		.uleb128 0x5
 2412 01ad 00       		.byte	0
 2413 01ae 03       		.uleb128 0x3
 2414 01af 08       		.uleb128 0x8
 2415 01b0 3A       		.uleb128 0x3a
 2416 01b1 0B       		.uleb128 0xb
 2417 01b2 3B       		.uleb128 0x3b
 2418 01b3 0B       		.uleb128 0xb
 2419 01b4 49       		.uleb128 0x49
 2420 01b5 13       		.uleb128 0x13
 2421 01b6 02       		.uleb128 0x2
 2422 01b7 17       		.uleb128 0x17
 2423 01b8 00       		.byte	0
 2424 01b9 00       		.byte	0
 2425 01ba 22       		.uleb128 0x22
 2426 01bb 34       		.uleb128 0x34
 2427 01bc 00       		.byte	0
 2428 01bd 03       		.uleb128 0x3
 2429 01be 08       		.uleb128 0x8
 2430 01bf 3A       		.uleb128 0x3a
 2431 01c0 0B       		.uleb128 0xb
 2432 01c1 3B       		.uleb128 0x3b
 2433 01c2 0B       		.uleb128 0xb
 2434 01c3 49       		.uleb128 0x49
 2435 01c4 13       		.uleb128 0x13
 2436 01c5 02       		.uleb128 0x2
 2437 01c6 18       		.uleb128 0x18
 2438 01c7 00       		.byte	0
 2439 01c8 00       		.byte	0
 2440 01c9 23       		.uleb128 0x23
 2441 01ca 34       		.uleb128 0x34
 2442 01cb 00       		.byte	0
 2443 01cc 03       		.uleb128 0x3
 2444 01cd 0E       		.uleb128 0xe
 2445 01ce 49       		.uleb128 0x49
 2446 01cf 13       		.uleb128 0x13
 2447 01d0 34       		.uleb128 0x34
 2448 01d1 19       		.uleb128 0x19
 2449 01d2 00       		.byte	0
ARM GAS  /tmp/ccLjLudm.s 			page 71


 2450 01d3 00       		.byte	0
 2451 01d4 24       		.uleb128 0x24
 2452 01d5 1D       		.uleb128 0x1d
 2453 01d6 01       		.byte	0x1
 2454 01d7 31       		.uleb128 0x31
 2455 01d8 13       		.uleb128 0x13
 2456 01d9 11       		.uleb128 0x11
 2457 01da 01       		.uleb128 0x1
 2458 01db 12       		.uleb128 0x12
 2459 01dc 06       		.uleb128 0x6
 2460 01dd 58       		.uleb128 0x58
 2461 01de 0B       		.uleb128 0xb
 2462 01df 59       		.uleb128 0x59
 2463 01e0 0B       		.uleb128 0xb
 2464 01e1 01       		.uleb128 0x1
 2465 01e2 13       		.uleb128 0x13
 2466 01e3 00       		.byte	0
 2467 01e4 00       		.byte	0
 2468 01e5 25       		.uleb128 0x25
 2469 01e6 1D       		.uleb128 0x1d
 2470 01e7 01       		.byte	0x1
 2471 01e8 31       		.uleb128 0x31
 2472 01e9 13       		.uleb128 0x13
 2473 01ea 11       		.uleb128 0x11
 2474 01eb 01       		.uleb128 0x1
 2475 01ec 12       		.uleb128 0x12
 2476 01ed 06       		.uleb128 0x6
 2477 01ee 58       		.uleb128 0x58
 2478 01ef 0B       		.uleb128 0xb
 2479 01f0 59       		.uleb128 0x59
 2480 01f1 05       		.uleb128 0x5
 2481 01f2 00       		.byte	0
 2482 01f3 00       		.byte	0
 2483 01f4 26       		.uleb128 0x26
 2484 01f5 05       		.uleb128 0x5
 2485 01f6 00       		.byte	0
 2486 01f7 31       		.uleb128 0x31
 2487 01f8 13       		.uleb128 0x13
 2488 01f9 1C       		.uleb128 0x1c
 2489 01fa 0B       		.uleb128 0xb
 2490 01fb 00       		.byte	0
 2491 01fc 00       		.byte	0
 2492 01fd 27       		.uleb128 0x27
 2493 01fe 1D       		.uleb128 0x1d
 2494 01ff 01       		.byte	0x1
 2495 0200 31       		.uleb128 0x31
 2496 0201 13       		.uleb128 0x13
 2497 0202 52       		.uleb128 0x52
 2498 0203 01       		.uleb128 0x1
 2499 0204 55       		.uleb128 0x55
 2500 0205 17       		.uleb128 0x17
 2501 0206 58       		.uleb128 0x58
 2502 0207 0B       		.uleb128 0xb
 2503 0208 59       		.uleb128 0x59
 2504 0209 0B       		.uleb128 0xb
 2505 020a 01       		.uleb128 0x1
 2506 020b 13       		.uleb128 0x13
ARM GAS  /tmp/ccLjLudm.s 			page 72


 2507 020c 00       		.byte	0
 2508 020d 00       		.byte	0
 2509 020e 28       		.uleb128 0x28
 2510 020f 05       		.uleb128 0x5
 2511 0210 00       		.byte	0
 2512 0211 31       		.uleb128 0x31
 2513 0212 13       		.uleb128 0x13
 2514 0213 02       		.uleb128 0x2
 2515 0214 17       		.uleb128 0x17
 2516 0215 00       		.byte	0
 2517 0216 00       		.byte	0
 2518 0217 29       		.uleb128 0x29
 2519 0218 05       		.uleb128 0x5
 2520 0219 00       		.byte	0
 2521 021a 31       		.uleb128 0x31
 2522 021b 13       		.uleb128 0x13
 2523 021c 02       		.uleb128 0x2
 2524 021d 18       		.uleb128 0x18
 2525 021e 00       		.byte	0
 2526 021f 00       		.byte	0
 2527 0220 2A       		.uleb128 0x2a
 2528 0221 0B       		.uleb128 0xb
 2529 0222 01       		.byte	0x1
 2530 0223 11       		.uleb128 0x11
 2531 0224 01       		.uleb128 0x1
 2532 0225 12       		.uleb128 0x12
 2533 0226 06       		.uleb128 0x6
 2534 0227 00       		.byte	0
 2535 0228 00       		.byte	0
 2536 0229 2B       		.uleb128 0x2b
 2537 022a 34       		.uleb128 0x34
 2538 022b 00       		.byte	0
 2539 022c 31       		.uleb128 0x31
 2540 022d 13       		.uleb128 0x13
 2541 022e 00       		.byte	0
 2542 022f 00       		.byte	0
 2543 0230 2C       		.uleb128 0x2c
 2544 0231 898201   		.uleb128 0x4109
 2545 0234 01       		.byte	0x1
 2546 0235 11       		.uleb128 0x11
 2547 0236 01       		.uleb128 0x1
 2548 0237 31       		.uleb128 0x31
 2549 0238 13       		.uleb128 0x13
 2550 0239 01       		.uleb128 0x1
 2551 023a 13       		.uleb128 0x13
 2552 023b 00       		.byte	0
 2553 023c 00       		.byte	0
 2554 023d 2D       		.uleb128 0x2d
 2555 023e 8A8201   		.uleb128 0x410a
 2556 0241 00       		.byte	0
 2557 0242 02       		.uleb128 0x2
 2558 0243 18       		.uleb128 0x18
 2559 0244 9142     		.uleb128 0x2111
 2560 0246 18       		.uleb128 0x18
 2561 0247 00       		.byte	0
 2562 0248 00       		.byte	0
 2563 0249 2E       		.uleb128 0x2e
ARM GAS  /tmp/ccLjLudm.s 			page 73


 2564 024a 898201   		.uleb128 0x4109
 2565 024d 00       		.byte	0
 2566 024e 11       		.uleb128 0x11
 2567 024f 01       		.uleb128 0x1
 2568 0250 31       		.uleb128 0x31
 2569 0251 13       		.uleb128 0x13
 2570 0252 00       		.byte	0
 2571 0253 00       		.byte	0
 2572 0254 2F       		.uleb128 0x2f
 2573 0255 34       		.uleb128 0x34
 2574 0256 00       		.byte	0
 2575 0257 03       		.uleb128 0x3
 2576 0258 08       		.uleb128 0x8
 2577 0259 3A       		.uleb128 0x3a
 2578 025a 0B       		.uleb128 0xb
 2579 025b 3B       		.uleb128 0x3b
 2580 025c 0B       		.uleb128 0xb
 2581 025d 49       		.uleb128 0x49
 2582 025e 13       		.uleb128 0x13
 2583 025f 00       		.byte	0
 2584 0260 00       		.byte	0
 2585 0261 30       		.uleb128 0x30
 2586 0262 0B       		.uleb128 0xb
 2587 0263 01       		.byte	0x1
 2588 0264 55       		.uleb128 0x55
 2589 0265 17       		.uleb128 0x17
 2590 0266 00       		.byte	0
 2591 0267 00       		.byte	0
 2592 0268 31       		.uleb128 0x31
 2593 0269 34       		.uleb128 0x34
 2594 026a 00       		.byte	0
 2595 026b 31       		.uleb128 0x31
 2596 026c 13       		.uleb128 0x13
 2597 026d 02       		.uleb128 0x2
 2598 026e 17       		.uleb128 0x17
 2599 026f 00       		.byte	0
 2600 0270 00       		.byte	0
 2601 0271 32       		.uleb128 0x32
 2602 0272 1D       		.uleb128 0x1d
 2603 0273 01       		.byte	0x1
 2604 0274 31       		.uleb128 0x31
 2605 0275 13       		.uleb128 0x13
 2606 0276 52       		.uleb128 0x52
 2607 0277 01       		.uleb128 0x1
 2608 0278 55       		.uleb128 0x55
 2609 0279 17       		.uleb128 0x17
 2610 027a 58       		.uleb128 0x58
 2611 027b 0B       		.uleb128 0xb
 2612 027c 59       		.uleb128 0x59
 2613 027d 05       		.uleb128 0x5
 2614 027e 00       		.byte	0
 2615 027f 00       		.byte	0
 2616 0280 33       		.uleb128 0x33
 2617 0281 898201   		.uleb128 0x4109
 2618 0284 01       		.byte	0x1
 2619 0285 11       		.uleb128 0x11
 2620 0286 01       		.uleb128 0x1
ARM GAS  /tmp/ccLjLudm.s 			page 74


 2621 0287 31       		.uleb128 0x31
 2622 0288 13       		.uleb128 0x13
 2623 0289 00       		.byte	0
 2624 028a 00       		.byte	0
 2625 028b 34       		.uleb128 0x34
 2626 028c 2E       		.uleb128 0x2e
 2627 028d 01       		.byte	0x1
 2628 028e 3F       		.uleb128 0x3f
 2629 028f 19       		.uleb128 0x19
 2630 0290 03       		.uleb128 0x3
 2631 0291 0E       		.uleb128 0xe
 2632 0292 3A       		.uleb128 0x3a
 2633 0293 0B       		.uleb128 0xb
 2634 0294 3B       		.uleb128 0x3b
 2635 0295 0B       		.uleb128 0xb
 2636 0296 27       		.uleb128 0x27
 2637 0297 19       		.uleb128 0x19
 2638 0298 11       		.uleb128 0x11
 2639 0299 01       		.uleb128 0x1
 2640 029a 12       		.uleb128 0x12
 2641 029b 06       		.uleb128 0x6
 2642 029c 40       		.uleb128 0x40
 2643 029d 18       		.uleb128 0x18
 2644 029e 9742     		.uleb128 0x2117
 2645 02a0 19       		.uleb128 0x19
 2646 02a1 01       		.uleb128 0x1
 2647 02a2 13       		.uleb128 0x13
 2648 02a3 00       		.byte	0
 2649 02a4 00       		.byte	0
 2650 02a5 35       		.uleb128 0x35
 2651 02a6 1D       		.uleb128 0x1d
 2652 02a7 01       		.byte	0x1
 2653 02a8 31       		.uleb128 0x31
 2654 02a9 13       		.uleb128 0x13
 2655 02aa 11       		.uleb128 0x11
 2656 02ab 01       		.uleb128 0x1
 2657 02ac 12       		.uleb128 0x12
 2658 02ad 06       		.uleb128 0x6
 2659 02ae 58       		.uleb128 0x58
 2660 02af 0B       		.uleb128 0xb
 2661 02b0 59       		.uleb128 0x59
 2662 02b1 0B       		.uleb128 0xb
 2663 02b2 00       		.byte	0
 2664 02b3 00       		.byte	0
 2665 02b4 36       		.uleb128 0x36
 2666 02b5 34       		.uleb128 0x34
 2667 02b6 00       		.byte	0
 2668 02b7 03       		.uleb128 0x3
 2669 02b8 0E       		.uleb128 0xe
 2670 02b9 3A       		.uleb128 0x3a
 2671 02ba 0B       		.uleb128 0xb
 2672 02bb 3B       		.uleb128 0x3b
 2673 02bc 05       		.uleb128 0x5
 2674 02bd 49       		.uleb128 0x49
 2675 02be 13       		.uleb128 0x13
 2676 02bf 3F       		.uleb128 0x3f
 2677 02c0 19       		.uleb128 0x19
ARM GAS  /tmp/ccLjLudm.s 			page 75


 2678 02c1 3C       		.uleb128 0x3c
 2679 02c2 19       		.uleb128 0x19
 2680 02c3 00       		.byte	0
 2681 02c4 00       		.byte	0
 2682 02c5 37       		.uleb128 0x37
 2683 02c6 34       		.uleb128 0x34
 2684 02c7 00       		.byte	0
 2685 02c8 03       		.uleb128 0x3
 2686 02c9 08       		.uleb128 0x8
 2687 02ca 3A       		.uleb128 0x3a
 2688 02cb 0B       		.uleb128 0xb
 2689 02cc 3B       		.uleb128 0x3b
 2690 02cd 05       		.uleb128 0x5
 2691 02ce 49       		.uleb128 0x49
 2692 02cf 13       		.uleb128 0x13
 2693 02d0 3F       		.uleb128 0x3f
 2694 02d1 19       		.uleb128 0x19
 2695 02d2 3C       		.uleb128 0x3c
 2696 02d3 19       		.uleb128 0x19
 2697 02d4 00       		.byte	0
 2698 02d5 00       		.byte	0
 2699 02d6 38       		.uleb128 0x38
 2700 02d7 2E       		.uleb128 0x2e
 2701 02d8 01       		.byte	0x1
 2702 02d9 3F       		.uleb128 0x3f
 2703 02da 19       		.uleb128 0x19
 2704 02db 03       		.uleb128 0x3
 2705 02dc 0E       		.uleb128 0xe
 2706 02dd 3A       		.uleb128 0x3a
 2707 02de 0B       		.uleb128 0xb
 2708 02df 3B       		.uleb128 0x3b
 2709 02e0 05       		.uleb128 0x5
 2710 02e1 27       		.uleb128 0x27
 2711 02e2 19       		.uleb128 0x19
 2712 02e3 3C       		.uleb128 0x3c
 2713 02e4 19       		.uleb128 0x19
 2714 02e5 01       		.uleb128 0x1
 2715 02e6 13       		.uleb128 0x13
 2716 02e7 00       		.byte	0
 2717 02e8 00       		.byte	0
 2718 02e9 39       		.uleb128 0x39
 2719 02ea 2E       		.uleb128 0x2e
 2720 02eb 01       		.byte	0x1
 2721 02ec 3F       		.uleb128 0x3f
 2722 02ed 19       		.uleb128 0x19
 2723 02ee 03       		.uleb128 0x3
 2724 02ef 0E       		.uleb128 0xe
 2725 02f0 3A       		.uleb128 0x3a
 2726 02f1 0B       		.uleb128 0xb
 2727 02f2 3B       		.uleb128 0x3b
 2728 02f3 05       		.uleb128 0x5
 2729 02f4 27       		.uleb128 0x27
 2730 02f5 19       		.uleb128 0x19
 2731 02f6 49       		.uleb128 0x49
 2732 02f7 13       		.uleb128 0x13
 2733 02f8 3C       		.uleb128 0x3c
 2734 02f9 19       		.uleb128 0x19
ARM GAS  /tmp/ccLjLudm.s 			page 76


 2735 02fa 01       		.uleb128 0x1
 2736 02fb 13       		.uleb128 0x13
 2737 02fc 00       		.byte	0
 2738 02fd 00       		.byte	0
 2739 02fe 3A       		.uleb128 0x3a
 2740 02ff 2E       		.uleb128 0x2e
 2741 0300 01       		.byte	0x1
 2742 0301 3F       		.uleb128 0x3f
 2743 0302 19       		.uleb128 0x19
 2744 0303 03       		.uleb128 0x3
 2745 0304 0E       		.uleb128 0xe
 2746 0305 3A       		.uleb128 0x3a
 2747 0306 0B       		.uleb128 0xb
 2748 0307 3B       		.uleb128 0x3b
 2749 0308 05       		.uleb128 0x5
 2750 0309 27       		.uleb128 0x27
 2751 030a 19       		.uleb128 0x19
 2752 030b 3C       		.uleb128 0x3c
 2753 030c 19       		.uleb128 0x19
 2754 030d 00       		.byte	0
 2755 030e 00       		.byte	0
 2756 030f 00       		.byte	0
 2757              		.section	.debug_loc,"",%progbits
 2758              	.Ldebug_loc0:
 2759              	.LLST0:
 2760 0000 00000000 		.4byte	.LVL0
 2761 0004 2A000000 		.4byte	.LVL5
 2762 0008 0100     		.2byte	0x1
 2763 000a 50       		.byte	0x50
 2764 000b 2A000000 		.4byte	.LVL5
 2765 000f 3A000000 		.4byte	.LVL8
 2766 0013 0400     		.2byte	0x4
 2767 0015 F3       		.byte	0xf3
 2768 0016 01       		.uleb128 0x1
 2769 0017 50       		.byte	0x50
 2770 0018 9F       		.byte	0x9f
 2771 0019 3A000000 		.4byte	.LVL8
 2772 001d 3D000000 		.4byte	.LVL9-1
 2773 0021 0100     		.2byte	0x1
 2774 0023 50       		.byte	0x50
 2775 0024 3D000000 		.4byte	.LVL9-1
 2776 0028 40000000 		.4byte	.LFE188
 2777 002c 0400     		.2byte	0x4
 2778 002e F3       		.byte	0xf3
 2779 002f 01       		.uleb128 0x1
 2780 0030 50       		.byte	0x50
 2781 0031 9F       		.byte	0x9f
 2782 0032 00000000 		.4byte	0
 2783 0036 00000000 		.4byte	0
 2784              	.LLST1:
 2785 003a 00000000 		.4byte	.LVL0
 2786 003e 1E000000 		.4byte	.LVL3
 2787 0042 0100     		.2byte	0x1
 2788 0044 51       		.byte	0x51
 2789 0045 1E000000 		.4byte	.LVL3
 2790 0049 28000000 		.4byte	.LVL4
 2791 004d 0200     		.2byte	0x2
ARM GAS  /tmp/ccLjLudm.s 			page 77


 2792 004f 74       		.byte	0x74
 2793 0050 24       		.sleb128 36
 2794 0051 28000000 		.4byte	.LVL4
 2795 0055 32000000 		.4byte	.LVL7
 2796 0059 0400     		.2byte	0x4
 2797 005b F3       		.byte	0xf3
 2798 005c 01       		.uleb128 0x1
 2799 005d 51       		.byte	0x51
 2800 005e 9F       		.byte	0x9f
 2801 005f 32000000 		.4byte	.LVL7
 2802 0063 3A000000 		.4byte	.LVL8
 2803 0067 0100     		.2byte	0x1
 2804 0069 50       		.byte	0x50
 2805 006a 3A000000 		.4byte	.LVL8
 2806 006e 40000000 		.4byte	.LFE188
 2807 0072 0400     		.2byte	0x4
 2808 0074 F3       		.byte	0xf3
 2809 0075 01       		.uleb128 0x1
 2810 0076 51       		.byte	0x51
 2811 0077 9F       		.byte	0x9f
 2812 0078 00000000 		.4byte	0
 2813 007c 00000000 		.4byte	0
 2814              	.LLST2:
 2815 0080 14000000 		.4byte	.LVL2
 2816 0084 1E000000 		.4byte	.LVL3
 2817 0088 0300     		.2byte	0x3
 2818 008a 70       		.byte	0x70
 2819 008b 2C       		.sleb128 44
 2820 008c 9F       		.byte	0x9f
 2821 008d 1E000000 		.4byte	.LVL3
 2822 0091 2A000000 		.4byte	.LVL5
 2823 0095 0100     		.2byte	0x1
 2824 0097 51       		.byte	0x51
 2825 0098 2A000000 		.4byte	.LVL5
 2826 009c 3A000000 		.4byte	.LVL8
 2827 00a0 0600     		.2byte	0x6
 2828 00a2 F3       		.byte	0xf3
 2829 00a3 01       		.uleb128 0x1
 2830 00a4 50       		.byte	0x50
 2831 00a5 23       		.byte	0x23
 2832 00a6 2C       		.uleb128 0x2c
 2833 00a7 9F       		.byte	0x9f
 2834 00a8 3A000000 		.4byte	.LVL8
 2835 00ac 3D000000 		.4byte	.LVL9-1
 2836 00b0 0100     		.2byte	0x1
 2837 00b2 51       		.byte	0x51
 2838 00b3 3D000000 		.4byte	.LVL9-1
 2839 00b7 40000000 		.4byte	.LFE188
 2840 00bb 0600     		.2byte	0x6
 2841 00bd F3       		.byte	0xf3
 2842 00be 01       		.uleb128 0x1
 2843 00bf 50       		.byte	0x50
 2844 00c0 23       		.byte	0x23
 2845 00c1 2C       		.uleb128 0x2c
 2846 00c2 9F       		.byte	0x9f
 2847 00c3 00000000 		.4byte	0
 2848 00c7 00000000 		.4byte	0
ARM GAS  /tmp/ccLjLudm.s 			page 78


 2849              	.LLST3:
 2850 00cb 32000000 		.4byte	.LVL7
 2851 00cf 3A000000 		.4byte	.LVL8
 2852 00d3 0200     		.2byte	0x2
 2853 00d5 30       		.byte	0x30
 2854 00d6 9F       		.byte	0x9f
 2855 00d7 00000000 		.4byte	0
 2856 00db 00000000 		.4byte	0
 2857              	.LLST4:
 2858 00df 12000000 		.4byte	.LVL11
 2859 00e3 1C000000 		.4byte	.LVL12
 2860 00e7 0100     		.2byte	0x1
 2861 00e9 52       		.byte	0x52
 2862 00ea 30000000 		.4byte	.LVL14
 2863 00ee 35000000 		.4byte	.LVL15-1
 2864 00f2 0100     		.2byte	0x1
 2865 00f4 52       		.byte	0x52
 2866 00f5 00000000 		.4byte	0
 2867 00f9 00000000 		.4byte	0
 2868              	.LLST5:
 2869 00fd 1C000000 		.4byte	.LVL12
 2870 0101 30000000 		.4byte	.LVL14
 2871 0105 0100     		.2byte	0x1
 2872 0107 53       		.byte	0x53
 2873 0108 00000000 		.4byte	0
 2874 010c 00000000 		.4byte	0
 2875              	.LLST6:
 2876 0110 1C000000 		.4byte	.LVL12
 2877 0114 30000000 		.4byte	.LVL14
 2878 0118 0100     		.2byte	0x1
 2879 011a 50       		.byte	0x50
 2880 011b 00000000 		.4byte	0
 2881 011f 00000000 		.4byte	0
 2882              	.LLST7:
 2883 0123 2A000000 		.4byte	.LVL13
 2884 0127 30000000 		.4byte	.LVL14
 2885 012b 0200     		.2byte	0x2
 2886 012d 30       		.byte	0x30
 2887 012e 9F       		.byte	0x9f
 2888 012f 00000000 		.4byte	0
 2889 0133 00000000 		.4byte	0
 2890              	.LLST8:
 2891 0137 00000000 		.4byte	.LVL16
 2892 013b 0B000000 		.4byte	.LVL18-1
 2893 013f 0100     		.2byte	0x1
 2894 0141 50       		.byte	0x50
 2895 0142 0B000000 		.4byte	.LVL18-1
 2896 0146 14000000 		.4byte	.LFE190
 2897 014a 0400     		.2byte	0x4
 2898 014c F3       		.byte	0xf3
 2899 014d 01       		.uleb128 0x1
 2900 014e 50       		.byte	0x50
 2901 014f 9F       		.byte	0x9f
 2902 0150 00000000 		.4byte	0
 2903 0154 00000000 		.4byte	0
 2904              	.LLST9:
 2905 0158 00000000 		.4byte	.LVL16
ARM GAS  /tmp/ccLjLudm.s 			page 79


 2906 015c 0B000000 		.4byte	.LVL18-1
 2907 0160 0100     		.2byte	0x1
 2908 0162 51       		.byte	0x51
 2909 0163 0B000000 		.4byte	.LVL18-1
 2910 0167 14000000 		.4byte	.LFE190
 2911 016b 0400     		.2byte	0x4
 2912 016d F3       		.byte	0xf3
 2913 016e 01       		.uleb128 0x1
 2914 016f 51       		.byte	0x51
 2915 0170 9F       		.byte	0x9f
 2916 0171 00000000 		.4byte	0
 2917 0175 00000000 		.4byte	0
 2918              	.LLST10:
 2919 0179 08000000 		.4byte	.LVL17
 2920 017d 0B000000 		.4byte	.LVL18-1
 2921 0181 0100     		.2byte	0x1
 2922 0183 51       		.byte	0x51
 2923 0184 0B000000 		.4byte	.LVL18-1
 2924 0188 14000000 		.4byte	.LFE190
 2925 018c 0400     		.2byte	0x4
 2926 018e F3       		.byte	0xf3
 2927 018f 01       		.uleb128 0x1
 2928 0190 51       		.byte	0x51
 2929 0191 9F       		.byte	0x9f
 2930 0192 00000000 		.4byte	0
 2931 0196 00000000 		.4byte	0
 2932              	.LLST11:
 2933 019a 08000000 		.4byte	.LVL17
 2934 019e 0B000000 		.4byte	.LVL18-1
 2935 01a2 0100     		.2byte	0x1
 2936 01a4 50       		.byte	0x50
 2937 01a5 0B000000 		.4byte	.LVL18-1
 2938 01a9 14000000 		.4byte	.LFE190
 2939 01ad 0400     		.2byte	0x4
 2940 01af F3       		.byte	0xf3
 2941 01b0 01       		.uleb128 0x1
 2942 01b1 50       		.byte	0x50
 2943 01b2 9F       		.byte	0x9f
 2944 01b3 00000000 		.4byte	0
 2945 01b7 00000000 		.4byte	0
 2946              		.section	.debug_aranges,"",%progbits
 2947 0000 2C000000 		.4byte	0x2c
 2948 0004 0200     		.2byte	0x2
 2949 0006 00000000 		.4byte	.Ldebug_info0
 2950 000a 04       		.byte	0x4
 2951 000b 00       		.byte	0
 2952 000c 0000     		.2byte	0
 2953 000e 0000     		.2byte	0
 2954 0010 00000000 		.4byte	.LFB188
 2955 0014 40000000 		.4byte	.LFE188-.LFB188
 2956 0018 00000000 		.4byte	.LFB189
 2957 001c 40000000 		.4byte	.LFE189-.LFB189
 2958 0020 00000000 		.4byte	.LFB190
 2959 0024 14000000 		.4byte	.LFE190-.LFB190
 2960 0028 00000000 		.4byte	0
 2961 002c 00000000 		.4byte	0
 2962              		.section	.debug_ranges,"",%progbits
ARM GAS  /tmp/ccLjLudm.s 			page 80


 2963              	.Ldebug_ranges0:
 2964 0000 18000000 		.4byte	.LBB56
 2965 0004 1A000000 		.4byte	.LBE56
 2966 0008 20000000 		.4byte	.LBB59
 2967 000c 28000000 		.4byte	.LBE59
 2968 0010 00000000 		.4byte	0
 2969 0014 00000000 		.4byte	0
 2970 0018 1C000000 		.4byte	.LBB71
 2971 001c 1E000000 		.4byte	.LBE71
 2972 0020 20000000 		.4byte	.LBB74
 2973 0024 24000000 		.4byte	.LBE74
 2974 0028 00000000 		.4byte	0
 2975 002c 00000000 		.4byte	0
 2976 0030 24000000 		.4byte	.LBB75
 2977 0034 26000000 		.4byte	.LBE75
 2978 0038 2A000000 		.4byte	.LBB84
 2979 003c 2E000000 		.4byte	.LBE84
 2980 0040 00000000 		.4byte	0
 2981 0044 00000000 		.4byte	0
 2982 0048 00000000 		.4byte	.LFB188
 2983 004c 40000000 		.4byte	.LFE188
 2984 0050 00000000 		.4byte	.LFB189
 2985 0054 40000000 		.4byte	.LFE189
 2986 0058 00000000 		.4byte	.LFB190
 2987 005c 14000000 		.4byte	.LFE190
 2988 0060 00000000 		.4byte	0
 2989 0064 00000000 		.4byte	0
 2990              		.section	.debug_line,"",%progbits
 2991              	.Ldebug_line0:
 2992 0000 43020000 		.section	.debug_str,"MS",%progbits,1
 2992      02007B01 
 2992      00000201 
 2992      FB0E0D00 
 2992      01010101 
 2993              	.LASF46:
 2994 0000 63685F74 		.ascii	"ch_threads_list\000"
 2994      68726561 
 2994      64735F6C 
 2994      69737400 
 2995              	.LASF81:
 2996 0010 77746D74 		.ascii	"wtmtxp\000"
 2996      787000
 2997              	.LASF71:
 2998 0017 72656761 		.ascii	"regarm_t\000"
 2998      726D5F74 
 2998      00
 2999              	.LASF35:
 3000 0020 666C6167 		.ascii	"flags\000"
 3000      7300
 3001              	.LASF26:
 3002 0026 73797374 		.ascii	"systime_t\000"
 3002      696D655F 
 3002      7400
 3003              	.LASF41:
 3004 0030 7265616C 		.ascii	"realprio\000"
 3004      7072696F 
 3004      00
ARM GAS  /tmp/ccLjLudm.s 			page 81


 3005              	.LASF39:
 3006 0039 6570656E 		.ascii	"epending\000"
 3006      64696E67 
 3006      00
 3007              	.LASF0:
 3008 0042 756E7369 		.ascii	"unsigned int\000"
 3008      676E6564 
 3008      20696E74 
 3008      00
 3009              	.LASF47:
 3010 004f 6E657874 		.ascii	"next\000"
 3010      00
 3011              	.LASF44:
 3012 0054 74687265 		.ascii	"threads_list_t\000"
 3012      6164735F 
 3012      6C697374 
 3012      5F7400
 3013              	.LASF7:
 3014 0063 5F5F696E 		.ascii	"__int32_t\000"
 3014      7433325F 
 3014      7400
 3015              	.LASF36:
 3016 006d 72656673 		.ascii	"refs\000"
 3016      00
 3017              	.LASF100:
 3018 0072 63684D73 		.ascii	"chMsgSend\000"
 3018      6753656E 
 3018      6400
 3019              	.LASF77:
 3020 007c 77746F62 		.ascii	"wtobjp\000"
 3020      6A7000
 3021              	.LASF89:
 3022 0083 706F7274 		.ascii	"port_lock\000"
 3022      5F6C6F63 
 3022      6B00
 3023              	.LASF68:
 3024 008d 76746C69 		.ascii	"vtlist\000"
 3024      737400
 3025              	.LASF73:
 3026 0094 706F7274 		.ascii	"port_context\000"
 3026      5F636F6E 
 3026      74657874 
 3026      00
 3027              	.LASF52:
 3028 00a1 63685F72 		.ascii	"ch_ready_list\000"
 3028      65616479 
 3028      5F6C6973 
 3028      7400
 3029              	.LASF58:
 3030 00af 66756E63 		.ascii	"func\000"
 3030      00
 3031              	.LASF82:
 3032 00b4 65776D61 		.ascii	"ewmask\000"
 3032      736B00
 3033              	.LASF50:
 3034 00bb 70726576 		.ascii	"prev\000"
 3034      00
ARM GAS  /tmp/ccLjLudm.s 			page 82


 3035              	.LASF49:
 3036 00c0 63685F74 		.ascii	"ch_threads_queue\000"
 3036      68726561 
 3036      64735F71 
 3036      75657565 
 3036      00
 3037              	.LASF54:
 3038 00d1 76746675 		.ascii	"vtfunc_t\000"
 3038      6E635F74 
 3038      00
 3039              	.LASF108:
 3040 00da 63684D73 		.ascii	"chMsgRelease\000"
 3040      6752656C 
 3040      65617365 
 3040      00
 3041              	.LASF110:
 3042 00e7 63685363 		.ascii	"chSchReadyI\000"
 3042      68526561 
 3042      64794900 
 3043              	.LASF63:
 3044 00f3 63685F73 		.ascii	"ch_system_debug\000"
 3044      79737465 
 3044      6D5F6465 
 3044      62756700 
 3045              	.LASF17:
 3046 0103 75696E74 		.ascii	"uint32_t\000"
 3046      33325F74 
 3046      00
 3047              	.LASF79:
 3048 010c 73656E74 		.ascii	"sentmsg\000"
 3048      6D736700 
 3049              	.LASF24:
 3050 0114 6576656E 		.ascii	"eventmask_t\000"
 3050      746D6173 
 3050      6B5F7400 
 3051              	.LASF83:
 3052 0120 63685F73 		.ascii	"ch_semaphore\000"
 3052      656D6170 
 3052      686F7265 
 3052      00
 3053              	.LASF22:
 3054 012d 74707269 		.ascii	"tprio_t\000"
 3054      6F5F7400 
 3055              	.LASF56:
 3056 0135 63685F76 		.ascii	"ch_virtual_timer\000"
 3056      69727475 
 3056      616C5F74 
 3056      696D6572 
 3056      00
 3057              	.LASF13:
 3058 0146 6C6F6E67 		.ascii	"long long unsigned int\000"
 3058      206C6F6E 
 3058      6720756E 
 3058      7369676E 
 3058      65642069 
 3059              	.LASF5:
 3060 015d 5F5F7569 		.ascii	"__uint16_t\000"
ARM GAS  /tmp/ccLjLudm.s 			page 83


 3060      6E743136 
 3060      5F7400
 3061              	.LASF25:
 3062 0168 636E745F 		.ascii	"cnt_t\000"
 3062      7400
 3063              	.LASF102:
 3064 016e 5F5F6675 		.ascii	"__func__.5928\000"
 3064      6E635F5F 
 3064      2E353932 
 3064      3800
 3065              	.LASF95:
 3066 017c 63685379 		.ascii	"chSysUnlock\000"
 3066      73556E6C 
 3066      6F636B00 
 3067              	.LASF85:
 3068 0188 6F776E65 		.ascii	"owner\000"
 3068      7200
 3069              	.LASF48:
 3070 018e 74687265 		.ascii	"threads_queue_t\000"
 3070      6164735F 
 3070      71756575 
 3070      655F7400 
 3071              	.LASF94:
 3072 019e 76616C75 		.ascii	"value\000"
 3072      6500
 3073              	.LASF40:
 3074 01a4 6D74786C 		.ascii	"mtxlist\000"
 3074      69737400 
 3075              	.LASF60:
 3076 01ac 63685F76 		.ascii	"ch_virtual_timers_list\000"
 3076      69727475 
 3076      616C5F74 
 3076      696D6572 
 3076      735F6C69 
 3077              	.LASF27:
 3078 01c3 74687265 		.ascii	"thread_t\000"
 3078      61645F74 
 3078      00
 3079              	.LASF75:
 3080 01cc 7264796D 		.ascii	"rdymsg\000"
 3080      736700
 3081              	.LASF88:
 3082 01d3 5F426F6F 		.ascii	"_Bool\000"
 3082      6C00
 3083              	.LASF84:
 3084 01d9 63685F6D 		.ascii	"ch_mutex\000"
 3084      75746578 
 3084      00
 3085              	.LASF12:
 3086 01e2 5F5F7569 		.ascii	"__uint64_t\000"
 3086      6E743634 
 3086      5F7400
 3087              	.LASF91:
 3088 01ed 63685379 		.ascii	"chSysLock\000"
 3088      734C6F63 
 3088      6B00
 3089              	.LASF96:
ARM GAS  /tmp/ccLjLudm.s 			page 84


 3090 01f7 63684D73 		.ascii	"chMsgIsPendingI\000"
 3090      67497350 
 3090      656E6469 
 3090      6E674900 
 3091              	.LASF29:
 3092 0207 7072696F 		.ascii	"prio\000"
 3092      00
 3093              	.LASF86:
 3094 020c 63686172 		.ascii	"char\000"
 3094      00
 3095              	.LASF43:
 3096 0211 74687265 		.ascii	"thread_reference_t\000"
 3096      61645F72 
 3096      65666572 
 3096      656E6365 
 3096      5F7400
 3097              	.LASF33:
 3098 0224 77616261 		.ascii	"wabase\000"
 3098      736500
 3099              	.LASF20:
 3100 022b 74737461 		.ascii	"tstate_t\000"
 3100      74655F74 
 3100      00
 3101              	.LASF14:
 3102 0234 75696E74 		.ascii	"uint8_t\000"
 3102      385F7400 
 3103              	.LASF38:
 3104 023c 6D736771 		.ascii	"msgqueue\000"
 3104      75657565 
 3104      00
 3105              	.LASF45:
 3106 0245 63685F74 		.ascii	"ch_thread\000"
 3106      68726561 
 3106      6400
 3107              	.LASF62:
 3108 024f 73797374 		.ascii	"system_debug_t\000"
 3108      656D5F64 
 3108      65627567 
 3108      5F7400
 3109              	.LASF11:
 3110 025e 6C6F6E67 		.ascii	"long long int\000"
 3110      206C6F6E 
 3110      6720696E 
 3110      7400
 3111              	.LASF23:
 3112 026c 6D73675F 		.ascii	"msg_t\000"
 3112      7400
 3113              	.LASF101:
 3114 0272 63684D73 		.ascii	"chMsgWait\000"
 3114      67576169 
 3114      7400
 3115              	.LASF55:
 3116 027c 76697274 		.ascii	"virtual_timer_t\000"
 3116      75616C5F 
 3116      74696D65 
 3116      725F7400 
 3117              	.LASF97:
ARM GAS  /tmp/ccLjLudm.s 			page 85


 3118 028c 71756575 		.ascii	"queue_fifo_remove\000"
 3118      655F6669 
 3118      666F5F72 
 3118      656D6F76 
 3118      6500
 3119              	.LASF98:
 3120 029e 5F5F6675 		.ascii	"__func__.5198\000"
 3120      6E635F5F 
 3120      2E353139 
 3120      3800
 3121              	.LASF105:
 3122 02ac 474E5520 		.ascii	"GNU C 4.8.2 -mcpu=cortex-m3 -mno-thumb-interwork -m"
 3122      4320342E 
 3122      382E3220 
 3122      2D6D6370 
 3122      753D636F 
 3123 02df 7468756D 		.ascii	"thumb -ggdb -O2 -fomit-frame-pointer -falign-functi"
 3123      62202D67 
 3123      67646220 
 3123      2D4F3220 
 3123      2D666F6D 
 3124 0312 6F6E733D 		.ascii	"ons=16 -ffunction-sections -fdata-sections -fno-com"
 3124      3136202D 
 3124      6666756E 
 3124      6374696F 
 3124      6E2D7365 
 3125 0345 6D6F6E20 		.ascii	"mon -flto\000"
 3125      2D666C74 
 3125      6F00
 3126              	.LASF64:
 3127 034f 70616E69 		.ascii	"panic_msg\000"
 3127      635F6D73 
 3127      6700
 3128              	.LASF19:
 3129 0359 746D6F64 		.ascii	"tmode_t\000"
 3129      655F7400 
 3130              	.LASF69:
 3131 0361 6D61696E 		.ascii	"mainthread\000"
 3131      74687265 
 3131      616400
 3132              	.LASF15:
 3133 036c 75696E74 		.ascii	"uint16_t\000"
 3133      31365F74 
 3133      00
 3134              	.LASF3:
 3135 0375 73686F72 		.ascii	"short int\000"
 3135      7420696E 
 3135      7400
 3136              	.LASF8:
 3137 037f 6C6F6E67 		.ascii	"long int\000"
 3137      20696E74 
 3137      00
 3138              	.LASF74:
 3139 0388 706F7274 		.ascii	"port_intctx\000"
 3139      5F696E74 
 3139      63747800 
 3140              	.LASF104:
ARM GAS  /tmp/ccLjLudm.s 			page 86


 3141 0394 49544D5F 		.ascii	"ITM_RxBuffer\000"
 3141      52784275 
 3141      66666572 
 3141      00
 3142              	.LASF66:
 3143 03a1 63685F73 		.ascii	"ch_system\000"
 3143      79737465 
 3143      6D00
 3144              	.LASF92:
 3145 03ab 5F5F7365 		.ascii	"__set_BASEPRI\000"
 3145      745F4241 
 3145      53455052 
 3145      4900
 3146              	.LASF61:
 3147 03b9 6C617374 		.ascii	"lasttime\000"
 3147      74696D65 
 3147      00
 3148              	.LASF18:
 3149 03c2 75696E74 		.ascii	"uint64_t\000"
 3149      36345F74 
 3149      00
 3150              	.LASF67:
 3151 03cb 726C6973 		.ascii	"rlist\000"
 3151      7400
 3152              	.LASF107:
 3153 03d1 2F686F6D 		.ascii	"/home/jerson/ChibiOS/rt_stm32f100rb_onion\000"
 3153      652F6A65 
 3153      72736F6E 
 3153      2F436869 
 3153      62694F53 
 3154              	.LASF4:
 3155 03fb 5F5F7569 		.ascii	"__uint8_t\000"
 3155      6E74385F 
 3155      7400
 3156              	.LASF32:
 3157 0405 6E616D65 		.ascii	"name\000"
 3157      00
 3158              	.LASF109:
 3159 040a 63685363 		.ascii	"chSchGoSleepS\000"
 3159      68476F53 
 3159      6C656570 
 3159      5300
 3160              	.LASF70:
 3161 0418 73697A65 		.ascii	"sizetype\000"
 3161      74797065 
 3161      00
 3162              	.LASF21:
 3163 0421 74726566 		.ascii	"trefs_t\000"
 3163      735F7400 
 3164              	.LASF10:
 3165 0429 6C6F6E67 		.ascii	"long unsigned int\000"
 3165      20756E73 
 3165      69676E65 
 3165      6420696E 
 3165      7400
 3166              	.LASF51:
 3167 043b 72656164 		.ascii	"ready_list_t\000"
ARM GAS  /tmp/ccLjLudm.s 			page 87


 3167      795F6C69 
 3167      73745F74 
 3167      00
 3168              	.LASF28:
 3169 0448 71756575 		.ascii	"queue\000"
 3169      6500
 3170              	.LASF16:
 3171 044e 696E7433 		.ascii	"int32_t\000"
 3171      325F7400 
 3172              	.LASF80:
 3173 0456 77747365 		.ascii	"wtsemp\000"
 3173      6D7000
 3174              	.LASF87:
 3175 045d 6D757465 		.ascii	"mutex_t\000"
 3175      785F7400 
 3176              	.LASF30:
 3177 0465 6E657765 		.ascii	"newer\000"
 3177      7200
 3178              	.LASF2:
 3179 046b 756E7369 		.ascii	"unsigned char\000"
 3179      676E6564 
 3179      20636861 
 3179      7200
 3180              	.LASF9:
 3181 0479 5F5F7569 		.ascii	"__uint32_t\000"
 3181      6E743332 
 3181      5F7400
 3182              	.LASF37:
 3183 0484 77616974 		.ascii	"waiting\000"
 3183      696E6700 
 3184              	.LASF59:
 3185 048c 76697274 		.ascii	"virtual_timers_list_t\000"
 3185      75616C5F 
 3185      74696D65 
 3185      72735F6C 
 3185      6973745F 
 3186              	.LASF99:
 3187 04a2 63684D73 		.ascii	"chMsgReleaseS\000"
 3187      6752656C 
 3187      65617365 
 3187      5300
 3188              	.LASF103:
 3189 04b0 5F5F6675 		.ascii	"__func__.5937\000"
 3189      6E635F5F 
 3189      2E353933 
 3189      3700
 3190              	.LASF111:
 3191 04be 63685363 		.ascii	"chSchWakeupS\000"
 3191      6857616B 
 3191      65757053 
 3191      00
 3192              	.LASF34:
 3193 04cb 73746174 		.ascii	"state\000"
 3193      6500
 3194              	.LASF106:
 3195 04d1 2E2E2F6F 		.ascii	"../os/rt/src/chmsg.c\000"
 3195      732F7274 
ARM GAS  /tmp/ccLjLudm.s 			page 88


 3195      2F737263 
 3195      2F63686D 
 3195      73672E63 
 3196              	.LASF65:
 3197 04e6 63685F73 		.ascii	"ch_system_t\000"
 3197      79737465 
 3197      6D5F7400 
 3198              	.LASF78:
 3199 04f2 77747472 		.ascii	"wttrp\000"
 3199      7000
 3200              	.LASF1:
 3201 04f8 7369676E 		.ascii	"signed char\000"
 3201      65642063 
 3201      68617200 
 3202              	.LASF57:
 3203 0504 64656C74 		.ascii	"delta\000"
 3203      6100
 3204              	.LASF6:
 3205 050a 73686F72 		.ascii	"short unsigned int\000"
 3205      7420756E 
 3205      7369676E 
 3205      65642069 
 3205      6E7400
 3206              	.LASF93:
 3207 051d 71756575 		.ascii	"queue_insert\000"
 3207      655F696E 
 3207      73657274 
 3207      00
 3208              	.LASF72:
 3209 052a 73746B61 		.ascii	"stkalign_t\000"
 3209      6C69676E 
 3209      5F7400
 3210              	.LASF53:
 3211 0535 63757272 		.ascii	"current\000"
 3211      656E7400 
 3212              	.LASF90:
 3213 053d 706F7274 		.ascii	"port_unlock\000"
 3213      5F756E6C 
 3213      6F636B00 
 3214              	.LASF31:
 3215 0549 6F6C6465 		.ascii	"older\000"
 3215      7200
 3216              	.LASF76:
 3217 054f 65786974 		.ascii	"exitcode\000"
 3217      636F6465 
 3217      00
 3218              	.LASF42:
 3219 0558 6D706F6F 		.ascii	"mpool\000"
 3219      6C00
 3220              		.comm	__gnu_lto_v1,1,1
 3221              		.ident	"GCC: (4.8.2-14ubuntu1+6) 4.8.2"
ARM GAS  /tmp/ccLjLudm.s 			page 89


DEFINED SYMBOLS
                            *ABS*:0000000000000000 chmsg.c
     /tmp/ccLjLudm.s:462    .text.chMsgSend:0000000000000000 $t
     /tmp/ccLjLudm.s:468    .text.chMsgSend:0000000000000000 chMsgSend
     /tmp/ccLjLudm.s:569    .text.chMsgWait:0000000000000000 $t
     /tmp/ccLjLudm.s:575    .text.chMsgWait:0000000000000000 chMsgWait
     /tmp/ccLjLudm.s:680    .text.chMsgRelease:0000000000000000 $t
     /tmp/ccLjLudm.s:686    .text.chMsgRelease:0000000000000000 chMsgRelease
                            *COM*:0000000000000001 __gnu_lto_v1
                     .debug_frame:0000000000000010 $d

UNDEFINED SYMBOLS
ch
chSchGoSleepS
chSchReadyI
chSchWakeupS
