ARM GAS  /tmp/cc4E3sam.s 			page 1


   1              		.syntax unified
   2              		.cpu cortex-m3
   3              		.fpu softvfp
   4              		.eabi_attribute 20, 1
   5              		.eabi_attribute 21, 1
   6              		.eabi_attribute 23, 3
   7              		.eabi_attribute 24, 1
   8              		.eabi_attribute 25, 1
   9              		.eabi_attribute 26, 1
  10              		.eabi_attribute 30, 2
  11              		.eabi_attribute 34, 1
  12              		.eabi_attribute 18, 4
  13              		.thumb
  14              		.file	"chregistry.c"
  15              		.text
  16              	.Ltext0:
  17              		.section	.gnu.lto_.jmpfuncs.41839cbf16ae42af,"",%progbits
  18 0000 789C6362 		.ascii	"x\234cb`b\300\006\224\2404+\003\003\023##\003\0033\210"
  18      6062C006 
  18      94A0342B 
  18      03031323 
  18      23030333 
  19 0015 002A6506 		.ascii	"\000*e\006\212\22510\260\200\270\254 \202\001\000\017"
  19      8A953130 
  19      B080B8AC 
  19      20820100 
  19      0F
  20 0026 B600BD   		.ascii	"\266\000\275"
  21              		.text
  22              		.section	.gnu.lto_.inline.41839cbf16ae42af,"",%progbits
  23 0000 789C6362 		.ascii	"x\234cb`b\300\006z\2404+\003\003'\007#\003\023\317\203"
  23      6062C006 
  23      7AA0342B 
  23      03032707 
  23      230313CF 
  24 0015 5806B605 		.ascii	"X\006\266\005\362`\305L\014\274\242@!\376\005%\014\354"
  24      F260C54C 
  24      0CBCA240 
  24      21FE0525 
  24      0CEC
  25 0027 1DEA1021 		.ascii	"\035\352\020!n\006\006\306\011~\314\014\242\327\230"
  25      6E0606C6 
  25      097ECC0C 
  25      A2D798
  26 0036 80526287 		.ascii	"\200Rb\207\216\262\303\2253\3630\202\344Xx\201\022\023"
  26      8EB2C395 
  26      33F33082 
  26      E4587881 
  26      1213
  27 0048 FC3EB0B1 		.ascii	"\374>\260\2610\010lg\004\262E\376LfCW\304\312 x\210"
  27      30086C67 
  27      04B245FE 
  27      4C664357 
  27      C4CA2078 
  28 005d 1187010C 		.ascii	"\021\207\001\014\000r-\024A"
  28      00722D14 
  28      41
ARM GAS  /tmp/cc4E3sam.s 			page 2


  29              		.text
  30              		.section	.gnu.lto_.pureconst.41839cbf16ae42af,"",%progbits
  31 0000 789C6362 		.ascii	"x\234cb`b\340f\200\000V\006+&+f+\026+V+\000\007]\001"
  31      6062E066 
  31      80005606 
  31      2B262B66 
  31      2B162B56 
  32 0019 45       		.ascii	"E"
  33              		.text
  34              		.section	.gnu.lto_chRegFirstThread.41839cbf16ae42af,"",%progbits
  35 0000 789C8552 		.ascii	"x\234\205RMh\023A\024~o6i\323\004\241xk\321\030\004"
  35      4D681341 
  35      147E6F36 
  35      69D304A1 
  35      786BD118 
  36 0015 F12792D5 		.ascii	"\361'\222\325\203xUz\261\207\034l*\350\305\262]\227"
  36      8378557A 
  36      B1871C6C 
  36      2AE8C5B2 
  36      5D97
  37 0027 64A19B0D 		.ascii	"d\241\233\015\273ii\360\320\311\317\241\236\254\305"
  37      BB6969F0 
  37      D0C9CFA1 
  37      9EACC5
  38 0036 43B5542D 		.ascii	"C\265T-\2615U\260G\257\361f\301D\352I<\005\301C\325"
  38      B13555B0 
  38      47AFF166 
  38      C144EA49 
  38      3C05C143 
  39 004b 8B371121 		.ascii	"\2137\021!\276\331?\233\034\314,;\363v\336\233\357\373"
  39      BED93F9B 
  39      1CCC2C3B 
  39      F376DE9B 
  39      EFFB
  40 005d F67DC380 		.ascii	"\366}\303\200A\377\030\243\367\266\004\260K+J\200l\245"
  40      41FF18A3 
  40      F7B604B0 
  40      4B2B4A80 
  40      6CA5
  41 006f 0D508E30 		.ascii	"\015P\2160D\021\000\302\022\303\245[(J\361$lr\276\332"
  41      441100C2 
  41      12C3A55B 
  41      284AF124 
  41      6C72BEDA 
  42 0083 F95A3FC0 		.ascii	"\371Z?\300G\274Y{\306\377t\273\210:\022\354q\004\025"
  42      47BC597B 
  42      C6FF74BB 
  42      883A12EC 
  42      710415
  43 0096 E1267D60 		.ascii	"\341&}`\302YX\250\227g\2275;\335\356\217\375\306\227"
  43      C25958A8 
  43      97679735 
  43      3BDDEE8F 
  43      FDC697
  44 00a9 1D3C1A95 		.ascii	"\035<\032\225@\301M\302\013\201\216RXLT\022\206\032"
  44      40C14DC2 
  44      0B818E52 
ARM GAS  /tmp/cc4E3sam.s 			page 3


  44      584C5412 
  44      861A
  45 00bb E72B0937 		.ascii	"\347+\0117\003\002\217\3064\315B\311\015db\225\366\240"
  45      03028FC6 
  45      34CD42C9 
  45      0D646295 
  45      F6A0
  46 00cd 1201F094 		.ascii	"\022\001\360\224<\330i\275\305\325*\177\307kM\222rB"
  46      3CD869BD 
  46      C5D52A7F 
  46      C76B4D92 
  46      7242
  47 00df C710836B 		.ascii	"\307\020\203k\203\244\210\275P\202\2026T~>\251n\217"
  47      83A488BD 
  47      50828236 
  47      547E3EA9 
  47      6E8F
  48 00f1 7BC4BE82 		.ascii	"{\304\276\202f\375\343\272tF\301\347\216\014o\357\373"
  48      66FDE3BA 
  48      7446C1E7 
  48      8E0C6FEF 
  48      FB
  49 0102 FD5FB163 		.ascii	"\375_\261c\301\327\336{\352\244\202u\014\023\227\340"
  49      C1D7DE7B 
  49      EAA48275 
  49      0C1397E0 
  50 0112 63F44A4E 		.ascii	"c\364JN\223\350yH!\345%\267\335q\330\302\015\276vE\247"
  50      93E87948 
  50      21E525B7 
  50      DD71D8C2 
  50      0DBE7645 
  51 0127 E2C3ECFF 		.ascii	"\342\303\354\377\362\015/?\344\352kA\345\363\247\355"
  51      F20D2F3F 
  51      E4EA6B41 
  51      E5F3A7ED 
  52 0137 8B2E7C16 		.ascii	"\213.|\026\245$\274\3444\256S\243\275\360\222\216\303"
  52      A524BCE4 
  52      34AE53A3 
  52      BDF0928E 
  52      C3
  53 0148 EBF0B8CC 		.ascii	"\353\360\270\314\371\250\216\221\273\360\233/\213h\304"
  53      F9A88E91 
  53      BBF09B2F 
  53      8B68C4
  54 0157 409F61C4 		.ascii	"@\237a\304A\232E\360V/\000j_s\310Ev\373\234\025\262"
  54      419A45F0 
  54      562F006A 
  54      5F73C845 
  54      76FB9C15 
  55 016c 05E3DA8B 		.ascii	"\005\343\332\213\263>c(\011\347t\214\022\003!\305\250"
  55      B33E6328 
  55      09E7748C 
  55      120321C5 
  55      A8
  56 017d 4220FA48 		.ascii	"B \372H\376\025jAu\271\232\367\217\204\351\224\250\212"
  56      FE156A41 
  56      75B99AF7 
ARM GAS  /tmp/cc4E3sam.s 			page 4


  56      8F84E994 
  56      A88A
  57 018f A2FB0393 		.ascii	"\242\373\003\223n\302\323\033\033\200\226\025\255\351"
  57      6EC2D31B 
  57      1B809615 
  57      ADE9
  58 019d 75F6A0DD 		.ascii	"u\366\240\335\357\254\202[N\233\007Z\013\377\263\366"
  58      EFAC825B 
  58      4E9B075A 
  58      0BFFB3F6 
  59 01ad DB86B0F6 		.ascii	"\333\206\260\366M\257\265O\217\304\203\353\027l\337"
  59      4DAFB54F 
  59      8FC483EB 
  59      176CDF
  60 01bc FB70C863 		.ascii	"\373p\310c\007Tu\302~\233\025|EA\300\354\333\252\340"
  60      075475C2 
  60      7E9B157C 
  60      4541C0EC 
  60      DBAAE0
  61 01cf 6B8CBBAA 		.ascii	"k\214\273\252\366\241\334ih\201\237\356\3464yB\027Z"
  61      F6A1DC69 
  61      68819FEE 
  61      E6347942 
  61      175A
  62 01e1 D48EA752 		.ascii	"\324\216\247R\262i\313VQ\266-UVs\226\226\325\355\242"
  62      B269CB56 
  62      51B62D55 
  62      56739696 
  62      D5EDA2
  63 01f4 554AA9C0 		.ascii	"UJ\251\300\212\205\323nV5\015\303\314\313\005\323*\332"
  63      8A85D36E 
  63      56350DC3 
  63      CCCB05D3 
  63      2ADA
  64 0206 F2D5A9F4 		.ascii	"\362\325\251\364Dz\221JU\323\322f\026.\033\251\034\204"
  64      447A914A 
  64      55D3D266 
  64      162E1BA9 
  64      1C84
  65 0218 1794B979 		.ascii	"\027\224\271y-\331S\255-\026\345\211tf2#\353yun\376"
  65      2DD953AD 
  65      2D16E589 
  65      74663223 
  65      EB79756E 
  66 022d 8E26AB86 		.ascii	"\216&\253\206\255\3333YU\245\023c\001o\220\315\331%"
  66      ADDB3359 
  66      55A51363 
  66      016F90CD 
  66      D925
  67 023f 9B32A3E9 		.ascii	"\2332\243\351\314TbV\261\265\202\245\237O\234\272\000"
  67      CC546256 
  67      B1B582A5 
  67      9F4F9CBA 
  67      00
  68 0250 CC826143 		.ascii	"\314\202aC3L\253\004\177\001\031\\\371\254"
  68      334CAB04 
  68      7F01195C 
ARM GAS  /tmp/cc4E3sam.s 			page 5


  68      F9AC
  69              		.text
  70              		.section	.gnu.lto_chRegNextThread.41839cbf16ae42af,"",%progbits
  71 0000 789C8553 		.ascii	"x\234\205SMHTQ\024>\347\2767?\251\205\264K\314\206 "
  71      4D485451 
  71      143EE7BE 
  71      373FA985 
  71      B44BCC86 
  72 0015 8A8C7945 		.ascii	"\212\214yE\013iW\270r1\033M\250\225<\257\217\361\201"
  72      0B6957B8 
  72      72311B4D 
  72      A8953CAF 
  72      8FF181
  73 0028 CF91F746 		.ascii	"\317\221\367F\321\\xufa\264H\214 \0231\251\014+2Z\324"
  73      D15C7875 
  73      6661B448 
  73      8C201331 
  73      A90C2B32 
  74 003e 7684160A 		.ascii	"v\204\026\012i?\233\262\325\020\212Y\222\264\223\010"
  74      693F9BB2 
  74      D5108A59 
  74      92B49308 
  75 004e A673DF9F 		.ascii	"\246s\337\237\243\213\274\303{\367\276{\316\371\316"
  75      A38BBCC3 
  75      7BF7BE7B 
  75      CEF9CE
  76 005d 77BFFB0D 		.ascii	"w\277\373\015\003\006\373\307Ez~)\000/i\306\010 \033"
  76      0306FBC7 
  76      457A7E29 
  76      002F69C6 
  76      08201B
  77 0070 5B01188E 		.ascii	"[\001\030\2163\246\026\020D\205\362\341\035\200\250"
  77      33A61610 
  77      4485F2E1 
  77      1D80A8
  78 007f 5250F5F6 		.ascii	"RP\365\366UD\271\000\204!\246\2508t\035%\010\236\204"
  78      5544B900 
  78      8421A6A8 
  78      38741D25 
  78      089E84
  79 0092 1921C68B 		.ascii	"\031!\306\213\353\363\2338!\012\371\007\342o\251\204"
  79      EBF39B38 
  79      210AF907 
  79      E26FA984 
  80 00a2 6822353C 		.ascii	"h\"5<\216\300\021\256\321\007&\334\211\251{\031\314"
  80      8EC011AE 
  80      D10726DC 
  80      89A97B19 
  80      CC
  81 00b3 B342B154 		.ascii	"\263B\261T\332\372\274\366m\013\217\036A\320q\206\360"
  81      DAFABCF6 
  81      6D0B8F1E 
  81      41D07186 
  81      F0
  82 00c4 22682144 		.ascii	"\"h!D\375\217\030\230\250\304\345\213\362#\220\027b"
  82      FD8F1898 
  82      A8C4E58B 
ARM GAS  /tmp/cc4E3sam.s 			page 6


  82      F2239017 
  82      62
  83 00d5 2CE1452C 		.ascii	",\341E,$\002\334%q\225\336\222[+29+K0\022\007\360\231"
  83      2402DC25 
  83      7195DE92 
  83      5B2B3239 
  83      2B4B3012 
  84 00ec DD995B5E 		.ascii	"\335\231[^\300\361\234X\024\371\002Q;a\242\312\240\351"
  84      C0F19C58 
  84      14F90251 
  84      3B61A2CA 
  84      A0E9
  85 00fe 206A724F 		.ascii	" jrOM\320b\005F~O\347fk\374\336\001\211\302\223O\223"
  85      4DD06205 
  85      467E4FE7 
  85      666BFCDE 
  85      0189C293 
  86 0114 CA191D1F 		.ascii	"\312\031\035\037\021\223po\373\366Nem\370\265\264F\232"
  86      1193706F 
  86      FBF64E65 
  86      6DF8B5B4 
  86      469A
  87 0126 EBF890B4 		.ascii	"\353\370\220\264\345(\3731z\024W4\372\335\245%\305\025"
  87      E528FB31 
  87      7A145734 
  87      FADDA525 
  87      C515
  88 0138 EF62EA60 		.ascii	"\357b\352`\026\247\304\275\313&%\227w\337\215\317\371"
  88      16A7C4BD 
  88      CB262597 
  88      77DF8DCF 
  88      F9
  89 0149 F1A8C76F 		.ascii	"\361\250\307o\031F\276~yu\311\203Oc\264\036\236\012"
  89      1946BE7E 
  89      7975C983 
  89      4F63B41E 
  89      9E0A
  90 015b 1A0D24FC 		.ascii	"\032\015$\374$\334\247\362X\032#\022\306Ko\307\340`"
  90      24DCA7F2 
  90      581A2312 
  90      C64B6FC7 
  90      E060
  91 016d A44D21E6 		.ascii	"\244M!\346\225y:\246%\344\"\274\335X\230\270\245\204"
  91      95793AA6 
  91      25E422BC 
  91      DD5898B8 
  91      A584
  92 017f 7883F047 		.ascii	"x\203\360G\214\012\321kb\334\207\0364\361\220\205\254"
  92      8C0AD16B 
  92      62DC871E 
  92      34F19085 
  92      AC
  93 0190 1D43A8DD 		.ascii	"\035C\250\335\321J\207!\273(\222\325\316\353\005\014"
  93      D14A8721 
  93      BB2892D5 
  93      CEEB050C 
  94 01a0 6062F570 		.ascii	"`b\365p\326\304\212\220Q\264\234Q\340\310e\310\215\346"
ARM GAS  /tmp/cc4E3sam.s 			page 7


  94      D6C48A90 
  94      51B49C51 
  94      E0C865C8 
  94      8DE6
  95 01b2 6E042571 		.ascii	"n\004%q\252\222Y\025\350\235\262\311\013\370$.\034\200"
  95      AA925915 
  95      E89DB2C9 
  95      0BF8242E 
  95      1C80
  96 01c4 46F50123 		.ascii	"F\365\001#\265\314\012\301I\321=\177\23176W\366{C\307"
  96      B5CC0AC1 
  96      49D13D7F 
  96      99373657 
  96      F67B43C7 
  97 01d8 C7EE451D 		.ascii	"\307\356E\035h\016\370\2379~LIs\274\331k\216\351\303"
  97      680EF89F 
  97      397E4C49 
  97      73BCD96B 
  97      8EE9C3
  98 01eb 75A187C3 		.ascii	"u\241\207\303\355\233\333e.qA\271\273\334o\024\035\237"
  98      ED9BDB65 
  98      2E7141B9 
  98      BBDC6F14 
  98      1D9F
  99 01fd D122EC1C 		.ascii	"\321\"\354\034\030C\307\027X\347\261z\017\371\342\367"
  99      1843C717 
  99      58E7B17A 
  99      0FF9E2F7 
 100 020d 75FF6E01 		.ascii	"u\377n\001\274\033\2546\261\222\373\246!G\230X\005\360"
 100      BC1BAC36 
 100      B192FBA6 
 100      21479858 
 100      05F0
 101 021f 11868B3F 		.ascii	"\021\206\213?\215@pW\301U@_L\266\265\332A\322*\317W"
 101      8D407057 
 101      C155405F 
 101      4CB6B5DA 
 101      41D22ACF 
 102 0234 6BE51F0B 		.ascii	"k\345\037\013\245\212\262SM2\251e\034\315\316j\216\315"
 102      A58AB253 
 102      4D32A965 
 102      1CCDCE6A 
 102      8ECD
 103 0246 35DE691B 		.ascii	"5\336i\033i\323\311\332\003I\016Jw\266\347\264\027\346"
 103      69D3C9DA 
 103      03490E4A 
 103      77B6E7B4 
 103      17E6
 104 0258 19CBCA74 		.ascii	"\031\313\312tk=\031;\353hW\232S\215\251~\312\345\031"
 104      6B3D193B 
 104      EB68579A 
 104      538DA97E 
 104      CAE519
 105 026b DB68EB6B 		.ascii	"\333h\353k\260\222\235\020\351\323\273z\215\372=\331"
 105      B0929D10 
 105      E9D3BB7A 
 105      8DFA3DD9 
ARM GAS  /tmp/cc4E3sam.s 			page 8


 106 027b 467F566B 		.ascii	"F\177VkL\2654\265hf7\357\352\35504n9\246\323\226\346"
 106      4CB534B5 
 106      686637EF 
 106      EAED3034 
 106      6E39A6D3 
 107 0291 9C2A8E85 		.ascii	"\234*\216\205\215\303h\2473\340P\244:\325\322\234h\327"
 107      8DC368A7 
 107      33E050A4 
 107      3AD5D29C 
 107      68D7
 108 02a3 1DA3C736 		.ascii	"\035\243\3076\317%N\235\007fC\3142\254\214=\000\377"
 108      CF254E9D 
 108      076643CC 
 108      32AC8C3D 
 108      00FF
 109 02b5 00F80820 		.ascii	"\000\370\010 \363"
 109      F3
 110              		.text
 111              		.section	.gnu.lto_chRegFindThreadByName.41839cbf16ae42af,"",%progbits
 112 0000 789C8D54 		.ascii	"x\234\215T]H\024Q\024>\347\316\356\354\352\256f\365"
 112      5D481451 
 112      143EE7CE 
 112      EEECEAAE 
 112      66F5
 113 0012 9262B604 		.ascii	"\222b\266\004\321\217\341\344C\364Z\370$\344C\231PO"
 113      D18FE1E4 
 113      43F45AF8 
 113      24E44399 
 113      504F
 114 0024 314ECB38 		.ascii	"1N\3138\320\2702\263ER\340u5\250\027\023%\260T4\372"
 114      D0B832B3 
 114      4552E075 
 114      35A81713 
 114      25B05434 
 115 0039 233384DE 		.ascii	"#3\204\336\372y\330\"\310~\\\251\247\214\036\244\010"
 115      FA79D822 
 115      C87E5CA9 
 115      A78C1EA4 
 115      08
 116 004a 3184125F 		.ascii	"1\204\022_\"\";w\356\354\270Fdw\331\271\347\336s\316"
 116      22223B77 
 116      EEECB846 
 116      6477D9B9 
 116      E7DE73CE 
 117 005e 77BE7BCE 		.ascii	"w\276{\316\271\227\001\203?\307A\372w\206\001\336\322"
 117      B9970183 
 117      3FC741FA 
 117      778601DE 
 117      D2
 118 006f 8C1140D6 		.ascii	"\214\021@\326\233\243\215(CE\012\012\013?U\200\027\207"
 118      9BA38D28 
 118      43450A0A 
 118      0B3F5580 
 118      1787
 119 0081 722F0178 		.ascii	"r/\001x<\304TO(\366v\343\2524\3030\242\230\001\241\203"
 119      3CC4544F 
 119      28F676E3 
ARM GAS  /tmp/cc4E3sam.s 			page 9


 119      AA34C330 
 119      A29801A1 
 120 0096 2921358C 		.ascii	")!5\214\035\307P\240\343V\270\306y\337\354\347\217\363"
 120      1DC750A0 
 120      E356B8C6 
 120      79DFECE7 
 120      8FF3
 121 00a8 788567BB 		.ascii	"x\205g\273G\371\317\345eD\013\211\311f\004\003\341("
 121      47F9CFE5 
 121      65440B89 
 121      C9660403 
 121      E128
 122 00ba 2D30E14D 		.ascii	"-0\341M,\264\232\332\004\313\316./\217/\216\177\032"
 122      2CB49ADA 
 122      04CBCE2E 
 122      2F8F2F8E 
 122      7F1A
 123 00cc C18D1B10 		.ascii	"\301\215\033\020t\274Fx\014\310;B\037%\2126B\021I\241"
 123      74BC4678 
 123      0CC83B42 
 123      1F258A36 
 123      421149A1 
 124 00e0 98AF8BFB 		.ascii	"\230\257\213\373s\011m\206K\305\207`\302\320\315yoB"
 124      73096D86 
 124      4BC58760 
 124      C2D0CD79 
 124      6F42
 125 00f2 6A40C4A4 		.ascii	"j@\304\244q\204\276\337ThBF\223\362\0022Q\000\237k\377"
 125      7184BEDF 
 125      54684246 
 125      93F20232 
 125      51009F6B 
 126 0107 9DA927D8 		.ascii	"\235\251'\330\327\305'yw\226\310n\261PeP\277\026Y\261"
 126      D7C52779 
 126      7796C86E 
 126      B1506550 
 126      BF1659B1 
 127 011b A72648C8 		.ascii	"\247&H\310Afq\244\353V\205\0376\037?{\373\355\240\262"
 127      416671A4 
 127      EB56851F 
 127      361F3F7B 
 127      FBEDA0B2 
 128 012f 43C71B1E 		.ascii	"C\307\033\036\011\177\357\353\245\357\261\312`\365\342"
 128      097FEFEB 
 128      A5EFB1CA 
 128      60F5E2
 129 013e 350BD84A 		.ascii	"5\013\330J.\331\221\227=\345|4\323\313\177\021\023/"
 129      2ED99197 
 129      3DE57C34 
 129      D3CB7F11 
 129      132F
 130 0150 6B97712D 		.ascii	"k\227q-&y\014\376h(\002\224\220\353\224\005\003\275"
 130      26790CFE 
 130      68280294 
 130      90EB9405 
 130      03BD
 131 0162 531B745C 		.ascii	"S\033t\\\003\025\372{>H\277\001ZRXE\266F\025\334\301"
ARM GAS  /tmp/cc4E3sam.s 			page 10


 131      0315FA7B 
 131      3E48BF01 
 131      5A525845 
 131      B64615DC 
 132 0177 613EB0DF 		.ascii	"a>\260\337\242V(<\324\212~\334\327Ge\250)\310\274\177"
 132      A256283C 
 132      D48A7EDC 
 132      D74765A8 
 132      29C8BC7F 
 133 018b 77AB56C7 		.ascii	"w\253V\3071\212bb\274\032\3068\215C\304\325\027\367"
 133      318A6262 
 133      BC1AC638 
 133      8D43C4D5 
 133      17F7
 134 019d 5A583408 		.ascii	"ZX4\010W;9/\263\260\370,\374\340\027\204\024\263=J\""
 134      573B392F 
 134      B3B0F82C 
 134      FCE01784 
 134      14B33D4A 
 135 01b2 42CC436A 		.ascii	"B\314Cj\026K\035\357\211\2325\013\235/\003Pu\262\252"
 135      164B1DEF 
 135      899A350B 
 135      9D2F0350 
 135      75B2AA
 136 01c5 8CA0E35D 		.ascii	"\214\240\343]\312\037\305\221\221\007n\357\314G.\251"
 136      CA1FC591 
 136      91076EEF 
 136      CC472EA9 
 137 01d5 865D16C6 		.ascii	"\206]\026\306\203H%d$\300\301\007g\005\200S\320u\241"
 137      83482564 
 137      24C0C107 
 137      67058053 
 137      D075A1
 138 01e8 AB35EF59 		.ascii	"\2535\357YJ\316\3022\216\362<\365R\341\323\217\375\037"
 138      4ACEC232 
 138      8EF23CF5 
 138      52E1D38F 
 138      FD1F
 139 01fa 28C17844 		.ascii	"(\301xD\013\332h>\367g\033\351x\323+\300\232}\004\377"
 139      0BDA683E 
 139      F7671BE9 
 139      78D32BC0 
 139      9A7D04FF 
 140 020e EAA32FC3 		.ascii	"\352\243/\303\242\217\036\255\356\243\221\222\252\240"
 140      A28F1EAD 
 140      EEA39192 
 140      AAA0
 141 021c 7782ED8B 		.ascii	"w\202\355\213\323\036\3011\257\001\302\262\001\324\277"
 141      D31EC131 
 141      AF01C2B2 
 141      01D4BF
 142 022b 145FC709 		.ascii	"\024_\307\011\022\202\310\371b\353x\037\253$+:\331l"
 142      1282C8F9 
 142      62EB781F 
 142      AB242B3A 
 142      D96C
 143 023d CF1CCA66 		.ascii	"\317\034\312f\312\337$9\232\310\225\356\276\177\207"
ARM GAS  /tmp/cc4E3sam.s 			page 11


 143      CADF2439 
 143      9AC895EE 
 143      BE7F87
 144 024c A4CE14F5 		.ascii	"\244\316\024\365\243T><?1\264Y$'B)$x\205\024^\3766\255"
 144      A3543E3C 
 144      3F31B459 
 144      24274229 
 144      24788514 
 145 0264 C00ECC45 		.ascii	"\300\016\314E$\254\215\314\363[\225\305\231W\037\356"
 145      24AC8DCC 
 145      F35B95C5 
 145      99571FEE 
 146 0274 637F6116 		.ascii	"c\177a\026)\304\370\232Y\264Ei\246\341\374\267\314\322"
 146      29C4F89A 
 146      59B44569 
 146      A6E1FCB7 
 146      CCD2
 147 0286 39896E62 		.ascii	"9\211nbQ\320{\245\206loA\314\304\250\205\353\000&\341"
 147      51D07BA5 
 147      866C6F41 
 147      CCC4A885 
 147      EB0026E1 
 148 029a D95C676D 		.ascii	"\331\\gm`+@\0130g\000\251\364la\261\322\304\230\372"
 148      602B400B 
 148      306700A9 
 148      F46C61B1 
 148      D2C498FA 
 149 02ae 78E98438 		.ascii	"x\351\2048w\010\350)T\246!\224\367\212\005\021\312\014"
 149      7708E829 
 149      54A62194 
 149      F78A0511 
 149      CA0C
 150 02c0 FF8298E2 		.ascii	"\377\202\230\342\261[/\016\305\012\223g\212\246\237"
 150      B15B2F0E 
 150      C50A9367 
 150      8AA69F
 151 02cf 84EE8527 		.ascii	"\204\356\205'\017r\030\270\257\264\226?\216PAF\237\003"
 151      0F7218B8 
 151      AFB4963F 
 151      8E504146 
 151      9F03
 152 02e1 36919E9E 		.ascii	"6\221\236\236\2517\364\036\013H&)\211t)CK\225\276[h"
 152      A937F41E 
 152      0B482629 
 152      89742943 
 152      4B95BE5B 
 153 02f6 61292E5C 		.ascii	"a).\\\220L\205EEM\215\226r5'\255\271\216\241\031-N\322"
 153      904C8545 
 153      454D8D96 
 153      723527AD 
 153      B98EA119 
 154 030d B4DCB4D3 		.ascii	"\264\334\264\323^c\200b\244\333\266K\265\221\262\355"
 154      5E638062 
 154      A4DBB64B 
 154      B591B2ED 
 155 031d 54ABD696 		.ascii	"T\253\326\226r\322\256v\340pC]\303\031\2625RN\362\370"
 155      72D2AE76 
ARM GAS  /tmp/cc4E3sam.s 			page 12


 155      E070435D 
 155      C319B235 
 155      524EF2F8 
 156 0331 E97D764D 		.ascii	"\351}vM\013\204O\353'O%\253WY'\317\244\265\272\206\306"
 156      0B844FEB 
 156      274F25AB 
 156      575927CF 
 156      A4B5BA86 
 157 0346 FA46CD6A 		.ascii	"\372F\315j5N\236:\221\324\014\333\265\334\343\246a\220"
 157      354E9E3A 
 157      91D40CDB 
 157      B5DCE3A6 
 157      6190
 158 0358 47791038 		.ascii	"Gy\0208\320\266\270\355.iX\272\255\254\241\361p\242"
 158      D0B6B8ED 
 158      2E6958BA 
 158      ADACA1F1 
 158      70A2
 159 036a 5977936D 		.ascii	"Yw\223m\216\265;\261m\0170\007\"v\322N9\355P\365\027"
 159      8EB53BB1 
 159      6D0F3007 
 159      2276D24E 
 159      39ED50F5 
 160 037f C780750B 		.ascii	"\307\200u\013\374\006\237\234\211="
 160      FC069F9C 
 160      893D
 161              		.text
 162              		.section	.gnu.lto_chRegFindThreadByPointer.41839cbf16ae42af,"",%progbits
 163 0000 789C8D54 		.ascii	"x\234\215TMHTQ\024>\347\27673\316\217 \264R\314\206"
 163      4D485451 
 163      143EE7BE 
 163      3733CE8F 
 163      20B452CC 
 164 0015 20FA31E6 		.ascii	" \3721\346\325\"\332&\256\204\\\344\017\324J\236\317"
 164      D522DA26 
 164      AE845CE4 
 164      0FD44A9E 
 164      CF
 165 0026 617CE038 		.ascii	"a|\3408\362\336(J\013\257?\013\333\244\030\221\245\246"
 165      F2DE284A 
 165      0BAF3F0B 
 165      DBA41891 
 165      A5A6
 166 0038 52695A21 		.ascii	"RiZ!\324\262\315\030\205?\370C\255JZ\010-\304\020\254"
 166      D4B2CD18 
 166      853FF843 
 166      AD4A5A08 
 166      2DC410AC 
 167 004c 5559919D 		.ascii	"UY\221\235\373\356\233\347\017\221\335a\336=\367\236"
 167      FBEE9BE7 
 167      0F91DD61 
 167      DE3DF79E 
 168 005c F39DEFBB 		.ascii	"\363\235\357\273\367\236{\03108\330.\323\177V\005xA"
 168      F79E7B19 
 168      3038D82E 
 168      D37F5605 
 168      7841
ARM GAS  /tmp/cc4E3sam.s 			page 13


 169 006e 3D060059 		.ascii	"=\006\000Y\3372@G\016CE\032\012\363\275R\200\207\324"
 169      DF324047 
 169      0E43451A 
 169      0AF3BD52 
 169      8087D4
 170 0081 E505001E 		.ascii	"\345\005\000\036Q\231\3371B\316l\304/\303J|\210\242"
 170      5199DF31 
 170      42CE6CC4 
 170      2FC34A7C 
 170      88A2
 171 0093 078476A6 		.ascii	"\007\204v\246\250~\037\266_C\221\035\217\303\030\347"
 171      A87E1FB6 
 171      5F43911D 
 171      8FC318E7 
 172 00a3 FD6B6FB6 		.ascii	"\375ko\2666\360.\317t\217\362_;;\210&\222\222\243\010"
 172      36F02ECF 
 172      748FF25F 
 172      3B3B8826 
 172      9292A308 
 173 00b7 06C2551A 		.ascii	"\006\302U\032`\324\351\230\272_\3324\313\254\355\354"
 173      60D4E998 
 173      BA5FDA34 
 173      CBACEDEC 
 174 00c7 7CFCF6F8 		.ascii	"|\374\366\370\323*\036\311C\320q\214\3621 t\000\223"
 174      D32A1EC9 
 174      43D0718C 
 174      F2312074 
 174      0093
 175 00d9 08417726 		.ascii	"\010Aw&\344\366a\362(\021\361!\260\017\2729\357\213"
 175      E4F661F2 
 175      2811F121 
 175      B00FBA39 
 175      EF8B
 176 00eb 4A0F0826 		.ascii	"J\017\010&jU\364\375\342\207jd\324)\363\320\231\003"
 176      6A55F4FD 
 176      E2876A64 
 176      D429F3D0 
 176      9903
 177 00fd E02ABC35 		.ascii	"\340*\2745\2714\203\375]|\216wgH\3421\023U\006e\207"
 177      B93483FD 
 177      5D7C8E77 
 177      6748E231 
 177      13550665 
 178 0112 4914736A 		.ascii	"I\024sj\224\214e\350\374:\3225^\340\322f\3713\023\357"
 178      948C65E8 
 178      FC3AD235 
 178      5EE0D266 
 178      F93313EF 
 179 0126 0695533A 		.ascii	"\006\225S:>tD\270s[\275\337\303\205\336h~\221yj\245"
 179      3E7444B8 
 179      735BBDDF 
 179      C385DE68 
 179      7E91796A 
 180 013b 96CCC8C2 		.ascii	"\226\314\310\302\315|>\332\331\307\177\223\022g\257"
 180      CD7C3EDA 
 180      D9C77F93 
 180      1267AF
ARM GAS  /tmp/cc4E3sam.s 			page 14


 181 014a 6EE3614A 		.ascii	"n\343aJ\2629\370\304\375\000\320\206<@\037!\234U\033"
 181      B239F8C4 
 181      FD00D086 
 181      3C401F21 
 181      9C551B
 182 015d B45C8336 		.ascii	"\264\\\2036\305@\007\203\364\033\240!\321*\262 \212"
 182      C5400783 
 182      F41BA021 
 182      D12AB220 
 182      8A
 183 016e 601287F9 		.ascii	"`\022\207\371\300%\2230{\027\265\353\177\352\372\375"
 183      C0259330 
 183      7B17B5EB 
 183      7FEAFAFD 
 184 017e 926A093A 		.ascii	"\222j\011:W\337\217\237\327q\212\020\011\014\025\303"
 184      57DF8F9F 
 184      D7718A10 
 184      090C15C3 
 185 018e 14A77685 		.ascii	"\024\247v\205\264\272\346\005\023\003\203p\257\203\363"
 185      B4BAE605 
 185      13038370 
 185      AF83F3
 186 019d 3C1373AE 		.ascii	"<\023s\256\303\017\336#\254`\322\221$\030\202N\246Z"
 186      C30FDE23 
 186      AC60D291 
 186      2418824E 
 186      A65A
 187 01af 31D4F199 		.ascii	"1\324\361\231`\256\025>\327\006\240\323\311\370%\203"
 187      60AE153E 
 187      D706A0D3 
 187      C9F82583 
 188 01bf 8E4F68FF 		.ascii	"\216Oh\377\210G2\017L\234\3162\207\213\341\214\211!"
 188      8847320F 
 188      4C9CCE32 
 188      878BE18C 
 188      8921
 189 01d1 8F294C41 		.ascii	"\217)LA\"9\270\311\331\236\204K\320\325\323\325\230"
 189      2239B8C9 
 189      D99E844B 
 189      D0D5D3D5 
 189      98
 190 01e2 4546082C 		.ascii	"EF\010,\"C(\327S&\035\256\374\360\377%\2454\216\320"
 190      224328D7 
 190      53261DAE 
 190      FCF0FF25 
 190      A5348ED0 
 191 01f6 3D65B4B1 		.ascii	"=e\264\261|\260\214t|\344\034\300\241u\004\377\252\243"
 191      7CB08C74 
 191      7CE41CC0 
 191      A17504FF 
 191      AAA3
 192 0208 CFC3A28E 		.ascii	"\317\303\242\216^\356\257\243\221\334\"\257v\274\351"
 192      5EEEAFA3 
 192      91DC22AF 
 192      76BCE9
 193 0217 1B2B8EC0 		.ascii	"\033+\216\300)\247\000|\262\000\374\1779|\035\247\311"
 193      29A7007C 
ARM GAS  /tmp/cc4E3sam.s 			page 15


 193      B200FC7F 
 193      397C1DA7 
 193      C9
 194 0228 F098B387 		.ascii	"\360\230\263\207\255\343s,\222\252hek\363\353(\213)"
 194      ADE3732C 
 194      92AA6865 
 194      6BF3EB28 
 194      8B29
 195 023a 7B9364AB 		.ascii	"{\223d\253&(\335x\367\016I_B\234\337\034\274^\237\271"
 195      2628DD78 
 195      F70E495F 
 195      429CDF1C 
 195      BC5E9FB9 
 196 024e D31B9120 		.ascii	"\323\033\221 \232J\320\253\342\266\017@\243\020\033"
 196      9A4AD0AB 
 196      E2B60F40 
 196      A3101B
 197 025d DA2E4C60 		.ascii	"\332.L`\320\277\271]'\362\250@\017\212\262\002j\026"
 197      D0BFB95D 
 197      27F2A840 
 197      0F8AB202 
 197      6A16
 198 026f 11F4AA25 		.ascii	"\021\364\252%b\270\330\204x2r\205 \266WLB\024\321\034"
 198      62B8D884 
 198      78327285 
 198      20B6574C 
 198      4214D11C 
 199 0283 746FCE8C 		.ascii	"to\316\214\254\240\007\337=*\267U\321\362Gg\001\253"
 199      ACA007DF 
 199      3D2AB755 
 199      D1F24767 
 199      01AB
 200 0295 C94FD7FE 		.ascii	"\311O\327\376-\275j\"%\223\222\030%W\026\267\013]\230"
 200      2DBD6A22 
 200      25939218 
 200      255716B7 
 200      0B5D98
 201 02a8 3AF43322 		.ascii	":\3643\" H\241\"\242 \026\323R\266f\2455\33324\243\336"
 201      2048A122 
 201      A22016D3 
 201      52B666A5 
 201      35DB3234 
 202 02be 8A274C3B 		.ascii	"\212'L;m\265\305\014P\214t\323I\3516R\311d\252QkJYi"
 202      6DB5C50C 
 202      508C74D3 
 202      49E93652 
 202      C964AA51 
 203 02d6 5B2BA928 		.ascii	"[+\251(/-o\245X#e\305kZ.&c\365\340k\321\033\232\343"
 203      2F2D6FA5 
 203      582365C5 
 203      6B5A2E26 
 203      63F5E06B 
 204 02ee C5FBA2E3 		.ascii	"\305\373\242\343\255i\255\264\274\262\254R3\033\215"
 204      AD69ADB4 
 204      BCB2AC52 
 204      331B8D
 205 02fd 86E6BAB8 		.ascii	"\206\346\272\270f$m\323\256I\030\006!\362=b\317[o\267"
ARM GAS  /tmp/cc4E3sam.s 			page 16


 205      66246DD3 
 205      AE491806 
 205      21F23D62 
 205      CF5B6FB7 
 206 0311 D9E461E9 		.ascii	"\331\344a\351\246\274\362\312\212h\255n\307\233,\363"
 206      A6BCF2CA 
 206      8A68AD6E 
 206      C79B2CF3 
 207 0321 6CF4C439 		.ascii	"l\364\3049`\026\004\222\361d\312j\203?cXT\376"
 207      60160492 
 207      F164CA6A 
 207      833F6358 
 207      54FE
 208              		.text
 209              		.section	.gnu.lto_chRegFindThreadByWorkingArea.41839cbf16ae42af,"",%progbits
 210 0000 789C8D54 		.ascii	"x\234\215T]H\024Q\024>\347\316\316\356\266?e\320K\241"
 210      5D481451 
 210      143EE7CE 
 210      CEEEB63F 
 210      65D04BA1 
 211 0014 B604D18F 		.ascii	"\266\004\321\217\341\324C\364Z\364$dP&\324S\214\343"
 211      E1D443F4 
 211      5AF42464 
 211      5026D453 
 211      8CE3
 212 0026 B20E38AE 		.ascii	"\262\0168\256\314\254\222\364\320\315\037\260\227\322"
 212      CCAC92F4 
 212      D0CD1FB0 
 212      97D2
 213 0034 22D02CD6 		.ascii	"\"\320,\326\376\321\214 \350\245zX%H-\025{\252\236\214"
 213      FED18C20 
 213      E8A57A58 
 213      25482D15 
 213      7BAA9E8C 
 214 0048 083104EB 		.ascii	"\0101\004\353-*\334\316\235;;\272!\331\035f\356\271"
 214      2D2ADCCE 
 214      9D3B3BBA 
 214      21D91D66 
 214      EEB9
 215 005a F7FC7CDF 		.ascii	"\367\374|\337=\347\314e\300\340\357q\214\336\343*\300"
 215      3DE7CC65 
 215      C0E0EF71 
 215      8CDEE32A 
 215      C0
 216 006b 2CCD1802 		.ascii	",\315\030\002d=\323\000\027\303\014\025)(L\035S\200"
 216      643DD300 
 216      17C30C15 
 216      29284C1D 
 216      5380
 217 007d 4702D393 		.ascii	"G\002\323\223\000<\026`AW\210\270\273\261\2404;\242"
 217      003C1660 
 217      415788B8 
 217      BBB1A034 
 217      3BA2
 218 008f 228A1910 		.ascii	"\"\212\031\020.0%\020T\361\302\031\024\321q\007\334"
 218      2E302510 
 218      54F1C219 
ARM GAS  /tmp/cc4E3sam.s 			page 17


 218      14D17107 
 218      DC
 219 00a0 E6FCEADC 		.ascii	"\346\374\352\334\227\345\005\354\347\271\316A\376;\237"
 219      97E505EC 
 219      E7B9CE41 
 219      FE3B9F
 220 00af 47349198 		.ascii	"G4\221\230\224!\030\010\247i\201\011wb\201bjOXn.\237"
 220      94211808 
 220      A7698109 
 220      77628162 
 220      6A4F586E 
 221 00c5 1FC9CF7D 		.ascii	"\037\311\317}\276\202[6#\350x\233\3421 \357\020}\224"
 221      BE825B36 
 221      23E8789B 
 221      E23120EF 
 221      107D94
 222 00d8 305A0811 		.ascii	"0Z\010\021o;\352\3151\322\004\342\342C\021T\350\344"
 222      6F3BEACD 
 222      31D204E2 
 222      E2431154 
 222      E8E4
 223 00ea BC272135 		.ascii	"\274'!5 \340h\234\242\357\267 \324\"\243I\231\200\366"
 223      20E0689C 
 223      A2EFB720 
 223      D422A349 
 223      9980F6
 224 00fd 308047F3 		.ascii	"0\200G\363\332\320\324(^\355\340\343\2743G<\267\233"
 224      DAD0D428 
 224      5EEDE0E3 
 224      BC33473C 
 224      B79B
 225 010f A832A85A 		.ascii	"\2502\250Z\217\247\330S\023$LC\373\367l\307\203m\036"
 225      8FA7D853 
 225      13244C43 
 225      FBF76CC7 
 225      836D1E
 226 0122 6C013FF7 		.ascii	"l\001?\367\360\335\200\262[\307{.\011oo\351\312\217"
 226      F0DD80B2 
 226      5BC77B2E 
 226      096F6FE9 
 226      CA8F
 227 0134 68A9BF9A 		.ascii	"h\251\277\232x\313|\266\222K.;yy+\037l\357\341\313\304"
 227      78CB7CB6 
 227      924B2E3B 
 227      79792B1F 
 227      6CEFE1CB 
 228 0149 C44DD875 		.ascii	"\304M\330u\\\217I!\006\377\225\015\001%\344.\252\344"
 228      5C8F4921 
 228      06FF950D 
 228      0125E42E 
 228      AAE4
 229 015b E19EDAA0 		.ascii	"\341\236\332\240\343\032\250\320\353\372 =}\264$XEv"
 229      E31AA8D0 
 229      EBFA203D 
 229      7DB42458 
 229      4576
 230 016d 45390CE1 		.ascii	"E9\014\341-\336w\330\304`\321\241V\364#\236>$\241\246"
ARM GAS  /tmp/cc4E3sam.s 			page 18


 230      2DDE77D8 
 230      C460D1A1 
 230      56F4239E 
 230      3E24A1A6 
 231 0181 A0FDE3FB 		.ascii	"\240\375\343\373\007\007t\034&\224\024F+`\230\3238A"
 231      0707741C 
 231      26941446 
 231      2B6098D3 
 231      3841
 232 0193 5C3DF1A0 		.ascii	"\\=\361\240\211\341\001\270q\221\363\022\0237\234\207"
 232      89E101B8 
 232      7191F312 
 232      13379C87 
 233 01a3 9FBC5B48 		.ascii	"\237\274[H\021\313\245$\020\"n\244:\261\324\3611\305"
 233      11CBA524 
 233      10226EA4 
 233      3AB1D4F1 
 233      31C5
 234 01b5 21197D19 		.ascii	"!\031}\031\200\252\223\013J\004\035\037Q\376\010G\""
 234      80AA930B 
 234      4A041D1F 
 234      51FE0847 
 234      22
 235 01c6 F73DDC53 		.ascii	"\367=\334S@\216U\300^\023\243>R\214\214Dp\360\202\263"
 235      408E55C0 
 235      5E13A33E 
 235      528C8C44 
 235      70F082B3 
 236 01da 5501A7A0 		.ascii	"U\001\247\240\243\273\243\251\340\031'ga\031Ey\236*"
 236      A3BBA3A9 
 236      E0192767 
 236      61194579 
 236      9E2A
 237 01ec A9F0E847 		.ascii	"\251\360\350G\377/(\205q\211\256j\243\205\351\277\333"
 237      FF2F2885 
 237      7189AE6A 
 237      A385E9BF 
 237      DB
 238 01fd 48C7FB6E 		.ascii	"H\307\373n\001\326\355#\370W\037}\275%\372\350Eq\037"
 238      01D6ED23 
 238      F8571F7D 
 238      BD25FAE8 
 238      45711F
 239 0210 65E3E57E 		.ascii	"e\343\345~\357\370\333\227f\\\202\303n\003\250\262\001"
 239      EFF8DB97 
 239      665C82C3 
 239      6E03A8B2 
 239      01
 240 0221 826B145F 		.ascii	"\202k\024_\307'$\370\310\205b\353\370\024\313%+:\331"
 240      C72724F8 
 240      C88562EB 
 240      F814CB25 
 240      2B3AD9
 241 0234 DCF23CCA 		.ascii	"\334\362<\312f*\374Ir\324\222+\375\366\336?$u)Q?J\345"
 241      662AFC49 
 241      72D4922B 
 241      FDF6DE3F 
ARM GAS  /tmp/cc4E3sam.s 			page 19


 241      24752951 
 242 024b F3AEA56C 		.ascii	"\363\256\245l\231HN\210RH\341\025R\270\371+]\011\333"
 242      99484E88 
 242      5248E115 
 242      52B8F92B 
 242      5D09DB
 243 025e 3DB44986 		.ascii	"=\264I\206\265\220\271~EY\374\360\346\3553\274\266:"
 243      B590B97E 
 243      4559FCF0 
 243      E6ED33BC 
 243      B63A
 244 0270 8B0431B2 		.ascii	"\213\0041\262n\026-Q\232qx5\377\251\353\316\230G\233"
 244      6E162D51 
 244      9A717835 
 244      FFA9EBCE 
 244      98479B
 245 0283 58A4305C 		.ascii	"X\2440\\\260\370\000H\305d\213\371\322\024F\202/{\223"
 245      B0F80048 
 245      C5648BF9 
 245      D2144682 
 245      2F7B93
 246 0296 E22401A0 		.ascii	"\342$\001\240{M\231\201@\301#\342\367k\334\360Z>%n\256"
 246      7B4D9981 
 246      40C123E2 
 246      F76BDCF0 
 246      5A3E256E 
 247 02ab 8D82265B 		.ascii	"\215\202&[\235\216\224h\343q\350\\\034\355\177\347\003"
 247      9D8E9468 
 247      E371E85C 
 247      1CED7FE7 
 247      03
 248 02bc 46569AC5 		.ascii	"FV\232\305\033\247\250\000\203\257\001kIO\027\317,]"
 248      1BA7A800 
 248      83AF016B 
 248      494F17CF 
 248      2C5D
 249 02ce AE222493 		.ascii	"\256\"$\223\224D\002\224\233\275e\236[`\2617.\\\220"
 249      94440294 
 249      9BBD659E 
 249      5B60B137 
 249      2E5C90
 250 02e1 4C85C5B6 		.ascii	"L\205\305\266\312J-\355hvFslC3\032\354d\312t2v[\245"
 250      CA4A2DED 
 250      68764673 
 250      6C43331A 
 250      EC64CA74 
 251 02f9 018A9169 		.ascii	"\001\212\221i\336%\325F\332\262\322MZs\332\3168\332"
 251      DE25D546 
 251      DAB2D24D 
 251      5A73DACE 
 251      38DA
 252 030b 9193D547 		.ascii	"\221\223\325G\253\317\221\255\221\266\223g[\017Y\225"
 252      ABCF91AD 
 252      91B69367 
 252      5B0F5995 
 253 031b 0DA0B6EA 		.ascii	"\015\240\266\352\215-\311\212\"\353\344\271\214v\264"
 253      8D2DC98A 
ARM GAS  /tmp/cc4E3sam.s 			page 20


 253      22EBE4B9 
 253      8C76B4
 254 032a BAA6AA46 		.ascii	"\272\246\252F3\233\214\306\226\372\244fX\216\351\234"
 254      339B8CC6 
 254      96FAA466 
 254      588EE99C 
 255 033a 4D190679 		.ascii	"M\031\006yl\365\201}m\203\323\346\220\206e\232K\252"
 255      6CF5817D 
 255      6D83D3E6 
 255      9086659A 
 255      4BAA
 256 034c 6B4E26EA 		.ascii	"kN&\352t'\331l\233\373\022;\367\003\263!d%\255\264\335"
 256      7427D96C 
 256      9BFB123B 
 256      F703B321 
 256      6425ADB4 
 257 0361 06656B38 		.ascii	"\006ek8f\210\267^/\234\377\000\326\004~\243"
 257      6688B75E 
 257      2F9CFF00 
 257      D6047EA3 
 258              		.text
 259              		.section	.gnu.lto_.symbol_nodes.41839cbf16ae42af,"",%progbits
 260 0000 789C4D8C 		.ascii	"x\234M\214=\016Aa\024Dg\346\276\213]X\352\274(\020\225"
 260      3D0E4161 
 260      144467E6 
 260      BE8B5D58 
 260      EABC2810 
 261 0015 15686CC3 		.ascii	"\025hl\303?\241\323k\011\211\304\"\274\027\3027\325"
 261      3FA1D36B 
 261      0989C422 
 261      BC17C237 
 261      D5
 262 0026 39A71841 		.ascii	"9\247\030A\230\343;-i`z\006\354\331\230\271cC\320\212"
 262      98E33B2D 
 262      69607A06 
 262      ECD998B9 
 262      6343D08A 
 263 003a E6BF6A4D 		.ascii	"\346\277jM\253\320\015\035\205n\351\252\270X\220i\360"
 263      ABD00D1D 
 263      856EE9AA 
 263      B8589069 
 263      F0
 264 004b 40E7A7D6 		.ascii	"@\347\247\3265y\244;?\013uq\033\276\372\021=\354O\367"
 264      3579A43B 
 264      3F0B7571 
 264      1BBEFA11 
 264      3DEC4FF7 
 265 005f 67460883 		.ascii	"gF\010\203\311\343\222Q50j!\205k\013x\003\320Y27"
 265      C9E39251 
 265      35306A21 
 265      856B0B78 
 265      03D05932 
 266              		.text
 267              		.section	.gnu.lto_.refs.41839cbf16ae42af,"",%progbits
 268 0000 789C6362 		.ascii	"x\234cb`b\020e\200\000F bdbbdd\006\322,@\314\012\024"
 268      60621065 
 268      80004620 
ARM GAS  /tmp/cc4E3sam.s 			page 21


 268      62646262 
 268      646406D2 
 269 0019 0200040B 		.ascii	"\002\000\004\013\0004"
 269      0034
 270              		.text
 271              		.section	.gnu.lto_.decls.41839cbf16ae42af,"",%progbits
 272 0000 789CC55B 		.ascii	"x\234\305[{t\024U\232\257\252\356$\335Ix\0143z\342,"
 272      7B741455 
 272      9AAFAAEE 
 272      24DD4978 
 272      0C337AE2 
 273 0015 A341E7C1 		.ascii	"\243A\347\301\352,A\327e\230=\273\202\303\354\016\236"
 273      EA2C41D7 
 273      65983DBB 
 273      82C3EC0E 
 273      9E
 274 0026 337A3C3A 		.ascii	"3z<:\236\235\177\234\266\350\024I\217\235\356\236\352"
 274      9E9D7F9C 
 274      B6E81449 
 274      8F9DEE9E 
 274      EA
 275 0037 0A21FE33 		.ascii	"\012!\3763E\300\200\0101\004\220D\021\302Ka\320\221"
 275      45C08008 
 275      31049044 
 275      11C24B61 
 275      D091
 276 0049 F743105A 		.ascii	"\367C\020Z\220\030y?\004\226\247\255\003\262\312\030"
 276      9018793F 
 276      0496A7AD 
 276      03B2CA18 
 277 0059 60101582 		.ascii	"`\020\025\202d\277\373\325\255\352\272\325U\335Ua\334"
 277      64BFFBD5 
 277      ADEABAD5 
 277      55DD5561 
 277      DC
 278 006a AD93BA7D 		.ascii	"\255\223\272}\353\326\275\277\373=\357\375\356\275\025"
 278      EBD6BDBF 
 278      FB3DEFFD 
 278      EEBD15
 279 0079 8113B852 		.ascii	"\201\023\270R\037\307\365\300uc\004\307](\3448\370\343"
 279      1FC7F5C0 
 279      756304C7 
 279      5D28E438 
 279      F8E3
 280 008b 1EE03257 		.ascii	"\036\3402W\021\334\013\340~\222\347\270J\270\177\017"
 280      11DC0BE0 
 280      7E92E7B8 
 280      4AB87F0F 
 281 009b 770CEE5A 		.ascii	"w\014\356Z\270\353\341\026\340]#\374\036\3469\346\""
 281      B8EBE116 
 281      E05D23FC 
 281      1EE639E6 
 281      22
 282 00ac 6D4AE15E 		.ascii	"mJ\341^\004w_\232'U6\301]\010\215\002p7A\301d\270\213"
 282      04775F9A 
 282      275536C1 
 282      5D088D02 
ARM GAS  /tmp/cc4E3sam.s 			page 22


 282      703741C1 
 283 00c3 215F0CBF 		.ascii	"!_\014\277\213\341\035\220\303M\207\374\034\270\203"
 283      8BE11D90 
 283      C34D87FC 
 283      1CB883
 284 00d2 BC460FC1 		.ascii	"\274F\017\301*\201:\375\340\036\000\367?\300}\273\240"
 284      2A813AFD 
 284      E01E00F7 
 284      3FC07DBB 
 284      A0
 285 00e3 E1355AFA 		.ascii	"\3415Z\372%t\366\311\323/\351g\020\355\237\364{'\344"
 285      2574F6C9 
 285      D32FE967 
 285      10ED9FF4 
 285      7B27E4
 286 00f6 C7F15ADF 		.ascii	"\307\361Z\337\037\323\376I\337E\024\317\256\357ZZ_\204"
 286      1FD3FE49 
 286      DF4514CF 
 286      AEEF5A5A 
 286      5F84
 287 0108 DFBB846C 		.ascii	"\337\273\204l:\210\254\006X\3508\007\267\337\245\034"
 287      3A88AC06 
 287      58E83807 
 287      B7DFA51C 
 288 0118 FE11F2CF 		.ascii	"\376\021\362\317@\376n\370\375\035\237-\227 \355\303"
 288      40FE6EF8 
 288      FD1D9F2D 
 288      9720EDC3 
 289 0128 49364437 		.ascii	"I6D7O\322v\325\274F\337=\002K#\321e\337^\350\310\211"
 289      4FD276D5 
 289      BC46DF3D 
 289      024B23D1 
 289      65DF5EE8 
 290 013e A600C574 		.ascii	"\246\000\305t\242\351Ij/Q>[^\304\246\372Yh\351\372;"
 290      A2E9496A 
 290      2F513E5B 
 290      5EC4A6FA 
 290      5968E9FA 
 291 0153 D013CB43 		.ascii	"\320\023\313C\017i#Sz~j\221\317\035\334<5}1\275c\321"
 291      0F692353 
 291      7A7E6A91 
 291      CF1DDC3C 
 291      357D31BD 
 292 0169 31BE4D4D 		.ascii	"1\276MMMR{z\376\310\337\312\315V\341joTU^)\341\246\252"
 292      4D527B7A 
 292      FEC8DFCA 
 292      CD56E16A 
 292      6F54555E 
 293 0181 6A037918 		.ascii	"j\003y\030\335\331w\0007\203\274)\357\004\362\177\313"
 293      DDD97700 
 293      3783BC29 
 293      EF04F27F 
 293      CB
 294 0192 8B7CDF20 		.ascii	"\213|\337 \327\356\307\\i\220\373%\300\375\210[\254"
 294      D7EEC75C 
 294      6990FB25 
 294      C0FD885B 
ARM GAS  /tmp/cc4E3sam.s 			page 23


 294      AC
 295 01a3 AACDE9EE 		.ascii	"\252\315\351\356\353\207|\252\032\020\371\305\374\000"
 295      EB877CAA 
 295      1A10F9C5 
 295      FC00
 296 01b1 10C7BFF1 		.ascii	"\020\307\277\361\334\335\3342h\330\254\252\013\357\262"
 296      DCDDDC32 
 296      68D8ACAA 
 296      0BEFB2
 297 01c0 4805AFBC 		.ascii	"H\005\257\274\300\002\367k\036\014q)\340\211\374k\374"
 297      C002F76B 
 297      1E0C7129 
 297      E089FC6B 
 297      FC
 298 01d1 DD5A4F6A 		.ascii	"\335ZOj\372T\343\251\006~\002\020\252\275\343\350[\233"
 298      FA54E3A9 
 298      067E0210 
 298      AABDE3E8 
 298      5B9B
 299 01e3 6B10D70E 		.ascii	"k\020\327\016\015R_\355\234\313\253\355\333x\233\036"
 299      0D525FED 
 299      9CCBABED 
 299      DB789B1E 
 300 01f3 47EA1D06 		.ascii	"G\352\035\006L\234\264O\177\0109y\0359\371\003\317t"
 300      4C9CB44F 
 300      7F083979 
 300      1D39F903 
 300      CF74
 301 0205 4041DA47 		.ascii	"@A\332G:\241\010\334\004\2364y3\213\356\216}:\335o\272"
 301      3AA108DC 
 301      049E3479 
 301      338BEE8E 
 301      7D3ADD6F 
 302 021a A0BB2175 		.ascii	"\240\273!u`\352+\267\021\272E~\021_\002\270-\006.\355"
 302      60EA2BB7 
 302      11BA457E 
 302      115F02B8 
 302      2D062EED 
 303 022e B75CEF97 		.ascii	"\267\\\357\227\270\037\315j\027\255\300\342\035\334"
 303      B81FCD6A 
 303      17ADC0E2 
 303      1DDC
 304 023c 59DA2CEA 		.ascii	"Y\332,\352`s<\203\225\333\221\252]fnE~%\377#HW\361\203"
 304      60733C83 
 304      95DB91AA 
 304      5D666E45 
 304      7E25FF23 
 305 0254 205D03A9 		.ascii	" ]\003\251q\011\334\\^W\251\235\350\362\263pu\347\\"
 305      7109DC5C 
 305      5E57A99D 
 305      E8F2B370 
 305      75E75C
 306 0267 1449909B 		.ascii	"\024I\220\233\2221Q\316\226\005\252\315\331\317\277"
 306      923151CE 
 306      9605AACD 
 306      D9CFBF
 307 0276 7B809F88 		.ascii	"{\200\237\210R\337\000\315\004\030\322Y\205\272\207"
ARM GAS  /tmp/cc4E3sam.s 			page 24


 307      52DF00CD 
 307      0418D259 
 307      85BA87
 308 0285 EA6EDAF1 		.ascii	"\352n\332\361\016\337\200P\233\020\252\273\327Pm-\233"
 308      0EDF8050 
 308      9B10AABB 
 308      D7506D2D 
 308      9B
 309 0296 7F8E36B6 		.ascii	"\177\2166\266\005\201V\011,\220\310\027\031\234\033"
 309      05815609 
 309      2C90C817 
 309      199C1B
 310 02a5 CF7A0582 		.ascii	"\317z\005\202\206\257i\206\314s\375\270o\271\272\300"
 310      86AF6986 
 310      CC73FDB8 
 310      6FB9BAC0 
 311 02b5 BD2D5854 		.ascii	"\275-XTgg0\001'\325\251\351\223\035\247\0052\336\370"
 311      67673001 
 311      27D5A9E9 
 311      931DA705 
 311      32DEF8
 312 02c8 740F2A74 		.ascii	"t\017*t\222\221\300m\303\276\266[=h\353\221\335\272"
 312      9291C06D 
 312      C3BEB65B 
 312      3D68EB91 
 312      DDBA
 313 02da 076D77E5 		.ascii	"\007mw\345Akw\316As\311;\242\011z\377?\304\376/c\377"
 313      416B77CE 
 313      4173C93B 
 313      A2097AFF 
 313      3FC4FE2F 
 314 02f0 9DD6FE7B 		.ascii	"\235\326\376{\216\236|\226\366\337\351\252\377\215G"
 314      8E9E7C96 
 314      F6DFE9AA 
 314      FF8D47
 315 02ff 6765F72F 		.ascii	"ge\367/\362\017\334\222\3136\266\036\371\344\022\355"
 315      F20FDC92 
 315      CB36B61E 
 315      F9E412ED 
 316 030f 6537BAEA 		.ascii	"e7\272\352k>\253u\214(a\365\007\317\246\012\002\267"
 316      6B3EAB75 
 316      8C2861F5 
 316      07CFA60A 
 316      02B7
 317 0321 C2A7D3DF 		.ascii	"\302\247\323\337\253\221\002\030\355\232\315\267LT;"
 317      AB910218 
 317      ED9ACDB7 
 317      4C543B
 318 0330 87EA34AC 		.ascii	"\207\3524\254\366\214X\316Hb\363Q\034{4\260un\300\034"
 318      F68C58CE 
 318      4862F351 
 318      1C7B34B0 
 318      756EC01C 
 319 0344 4DA921B5 		.ascii	"M\251!\265\305\014\266\3213\030K\331~3\330f7`\375\235"
 319      C50CB6D1 
 319      33184BD9 
 319      7E33D866 
ARM GAS  /tmp/cc4E3sam.s 			page 25


 319      3760FD9D 
 320 0358 293B6806 		.ascii	");h\006\333\352\031\214\245\354\0033\33067`e\316\224"
 320      DBEA198C 
 320      A5EC0333 
 320      D8363760 
 320      65CE94
 321 036b 1D318375 		.ascii	"\0351\203ux\006c)\373o3\330N7`\3456\224\031\227];b\326"
 321      78066329 
 321      FB6F33D8 
 321      4E3760E5 
 321      36941997 
 322 0383 EFF1869D 		.ascii	"\357\361\206\235\013\334\036\237>&x\264i.\203\261\337"
 322      0BDC1E9F 
 322      3E2678B4 
 322      692E83B1 
 322      DF
 323 0394 E7750C63 		.ascii	"\347u\014c\370\206)\374\303\205\374L\315/\264i\364\003"
 323      F88629FC 
 323      C385FC4C 
 323      CD2FB469 
 323      F403
 324 03a6 3788390C 		.ascii	"7\2109\014\246y\227iN>\356\031\214U\313<\002\306\214"
 324      A6799769 
 324      4E3EEE19 
 324      8C55CB3C 
 324      02C68C
 325 03b9 3574464A 		.ascii	"5tFJ/I\225\265f\206\273\200\216E\3422ml\2030M0*\253"
 325      2F4995B5 
 325      6686BB80 
 325      8E45E232 
 325      6D6C8330 
 326 03d1 6565F675 		.ascii	"ee\366uE\376S\234\333?\343\203\006\025Z^\317\365`0\234"
 326      45FE539C 
 326      DB3FE383 
 326      06155A5E 
 326      CFF56030 
 327 03e6 F6D9457C 		.ascii	"\366\331E|\010\220\273\251\223%\2343[\302Y7b\312\341"
 327      0890BBA9 
 327      93259C33 
 327      5BC25937 
 327      62CAE1
 328 03f9 0AFB9DC4 		.ascii	"\012\373\235\304\224jT\247\360\023V\016\314\031\036"
 328      946A54A7 
 328      F013560E 
 328      CC191E
 329 0408 6E3DD2B5 		.ascii	"n=\322\265\200F\001\027p\362\376\314g\033\005\270\002"
 329      80460117 
 329      70F2FECC 
 329      671B05B8 
 329      02
 330 0419 EB6EDAA7 		.ascii	"\353n\332\247\207\024\177C\260+\275\007ko;8P\365\213"
 330      87147F43 
 330      B02BBD07 
 330      6B6F3B38 
 330      50F58B
 331 042c FC1504BA 		.ascii	"\374\025\004\272\2215i\004-!E\220\235\364\203\301L\246"
 331      91356904 
ARM GAS  /tmp/cc4E3sam.s 			page 26


 331      2D214590 
 331      9DF483C1 
 331      4CA6
 332 043e 47BF5835 		.ascii	"G\277X5~\253m\234T\337eV\375s~\257\252g<\004\202\220"
 332      7EAB6D9C 
 332      54DF6556 
 332      FD737EAF 
 332      AA673C04 
 333 0454 2F85396A 		.ascii	"/\2059jj\202\317d\3539\035\003\002\310][\376\035C\265"
 333      6A82CF64 
 333      EB391D03 
 333      02C85D5B 
 333      FE1D43B5 
 334 0468 6B28D766 		.ascii	"k(\327f\277\255\202\\\000u7\275q\017\002}\203@m\275"
 334      BFAD825C 
 334      007537BD 
 334      710F027D 
 334      83406DBD 
 335 047c 066A6B99 		.ascii	"\006jk\2317\034\201\210\313\012\334\002\277U\323\274"
 335      371C8188 
 335      CB0ADC02 
 335      BF55D3BC 
 336 048c 45D33CAB 		.ascii	"E\323<\253\001\303\353\250\323}[u\005n\271U]\014;9\246"
 336      01C3EBA8 
 336      D37D5B75 
 336      056EB955 
 336      5D0C3B39 
 337 04a1 0663BCBD 		.ascii	"\006c\274\275\336\302_nP[\207z\320\327\363T_\317\242"
 337      DEC25F6E 
 337      505B877A 
 337      D0D7F354 
 337      5FCFA2
 338 04b4 74566649 		.ascii	"tVfI\347\033\217\342\201\020\3033\033\001\226\215\306"
 338      E71B8FE2 
 338      8110C333 
 338      1B01968D 
 338      C6
 339 04c5 9E5EB0B1 		.ascii	"\236^\260\261Ucc*\262\261\365\357\300\306{\236\331\350"
 339      5563632A 
 339      B2B1F5EF 
 339      C0C67B9E 
 339      D9E8
 340 04d7 6F620317 		.ascii	"ob\003\027\260\263\264\331\357\273\\K\356\020\236\320"
 340      B0B3B4D9 
 340      EFBB5C4B 
 340      EE109ED0 
 341 04e7 F382F05D 		.ascii	"\363\202\360]&|N\035\336\313\227k\305\371\327\354\227"
 341      267C4E1D 
 341      DECB976B 
 341      C5F9D7EC 
 341      97
 342 04f8 F79A167A 		.ascii	"\367\232\026z\252\253\205\336.c\241\327\202\"\333m\347"
 342      AAAB85DE 
 342      2E63A1D7 
 342      8222DB6D 
 342      E7
 343 0509 606EA0DA 		.ascii	"`n\240\332\273\367\336B\006\322\331\010s\260\2670\351"
ARM GAS  /tmp/cc4E3sam.s 			page 27


 343      BBF7DE42 
 343      06D2D908 
 343      73B0B730 
 343      E9
 344 051a B683EB35 		.ascii	"\266\203\3535?mE\240\343Y*,\264h\260\220\325 <\222\236"
 344      3F6D45A0 
 344      E3592A2C 
 344      B468B090 
 344      D5203C92 
 345 052f BEC601F2 		.ascii	"\276\306\001\362\217\264\204<\024q\377\347\355\004\356"
 345      8FB4843C 
 345      1471FFE7 
 345      ED04EE
 346 053e 0C924FB4 		.ascii	"\014\222O\264\3471\376\322\255\247\361\314L=v\322\024"
 346      E731FED2 
 346      ADA7F1CC 
 346      4C3D76D2 
 346      14
 347 054f 74FEA610 		.ascii	"t\376\246\020\033R\363_\320\367GF\220\350\351\213\233"
 347      1B52F35F 
 347      D0F74746 
 347      90E8E98B 
 347      9B
 348 0560 84DBBCCF 		.ascii	"\204\333\274\317\032\026X\226m\213\035\246\035}|_1\355"
 348      1A165896 
 348      6D8B1DA6 
 348      1D7D7C5F 
 348      31ED
 349 0572 A7A8EE85 		.ascii	"\247\250\356\205\002!\247;K\335\213x\313\262\215\024"
 349      0221A73B 
 349      4BDD8B78 
 349      CBB28D14 
 350 0582 98AA3839 		.ascii	"\230\25289\322\002\3014\0036\025\334\244\032:\256X\324"
 350      D202C134 
 350      033615DC 
 350      A41A3AAE 
 350      58D4
 351 0594 30EBA610 		.ascii	"0\353\246\020\033RW\251\032\362-\262\237\322\261J\221"
 351      1B5257A9 
 351      1AF22DB2 
 351      9FD2B14A 
 351      91
 352 05a5 91B9D8ED 		.ascii	"\221\271\330\355\237\004\313\032{\365\371t#\215\210"
 352      9F04CB1A 
 352      7BF5F974 
 352      238D88
 353 05b4 C8BBFC23 		.ascii	"\310\273\374#\305\211\263A\265\245T\333\255\023\371"
 353      C589B341 
 353      B5A554DB 
 353      AD13F9
 354 05c3 75BC4051 		.ascii	"u\274@Q\355\002\245\274\342I\235\226:\207z\031s:\364"
 354      ED02A5BC 
 354      E2499D96 
 354      3A877A19 
 354      733AF4
 355 05d6 31E74D94 		.ascii	"1\347M\224\345\366\002\253\322\311 \302(\335\223\323"
 355      E5F602AB 
ARM GAS  /tmp/cc4E3sam.s 			page 28


 355      D2C920C2 
 355      28DD93D3 
 356 05e6 BD6F08C9 		.ascii	"\275o\010\311\355\202\305z9\031\3252\263Q\355\2719\023"
 356      ED82C57A 
 356      3919D532 
 356      B351EDB9 
 356      3913
 357 05f8 00A3EA58 		.ascii	"\000\243\352X\254\031U>#Py\363:\006\326O\330\363:\253"
 357      AC19553E 
 357      235079F3 
 357      3A06D64F 
 357      D8F33AAB 
 358 060c 15747775 		.ascii	"\025twuN\246{ \353\\Y\301\025\033+X\327K+\000\223\376"
 358      4EA67B20 
 358      EB5C59C1 
 358      151B2B58 
 358      D74B2B00 
 359 0622 F47D1EE1 		.ascii	"\364}\036\341\264u\331W\006\221\036\265@\341\256K^\005"
 359      B475D957 
 359      06911EB5 
 359      40E1AE4B 
 359      5E05
 360 0634 A3D957EA 		.ascii	"\243\331W\352\330Y2cn\021\310>\3647Y\246\245I\306dZ"
 360      D8593263 
 360      6E11C83E 
 360      F43759A6 
 360      A549C664 
 361 0649 19318AFC 		.ascii	"\0311\212\374\006\201,\3246\012d\023\366-L7\013\246"
 361      06812CD4 
 361      360A6413 
 361      F62D4C37 
 361      0BA6
 362 065b AD5827B3 		.ascii	"\255X'\263x;c\026\"\277\332*F\267\313\345\274\335\254"
 362      783B6316 
 362      22BFDA2A 
 362      46B7CBE5 
 362      BCDDAC
 363 066e 355BDFB3 		.ascii	"5[\337\263\2057g}';\366\372qg\321\303\256\360\256\035"
 363      8537677D 
 363      273BF6FA 
 363      7167D1C3 
 363      AEF0AE1D 
 364 0682 BAE36E47 		.ascii	"\272\343nG\307\235Vh\225\356&k|\345f\223\264\265\267"
 364      C79D5668 
 364      95EE266B 
 364      7CE56693 
 364      B4B5B7
 365 0695 AC1897C0 		.ascii	"\254\030\227\300\315/t\261\306)\267\221\2721\321\036"
 365      CD2F74B1 
 365      C629B791 
 365      BA31D11E 
 366 06a5 A1615ADE 		.ascii	"\241aZ\336\235V}\346:3m4\316\\\357\243\245-\260\310"
 366      9D567DE6 
 366      3A336D34 
 366      CE5CEFA3 
 366      A52DB0C8 
 367 06b9 C2C586ED 		.ascii	"\302\305\206\355\012l\262\333\352\306\247\032\215\015"
ARM GAS  /tmp/cc4E3sam.s 			page 29


 367      0A6CB2DB 
 367      EAC6A71A 
 367      8D0D
 368 06c7 DBDD2EDC 		.ascii	"\333\335.\334\270!\265\2329\362\320-pwn\013\314)OF\205"
 368      B821B59A 
 368      39F2D02D 
 368      70776E0B 
 368      CC294F46 
 369 06dc BB4D0EB2 		.ascii	"\273M\016\262\027\035d\237\331)\004.\345F\366\203\235"
 369      171D649F 
 369      D929042E 
 369      E546F683 
 369      9D
 370 06ed 4C1186A1 		.ascii	"L\021\206\241\203\332Q\223~x\324i\305\263\033\210\030"
 370      83DA5193 
 370      7E78D469 
 370      C5B31B88 
 370      18
 371 06fe 3CB32E1B 		.ascii	"<\263.\033R\315\207p{H\263\321\003n\210\033\352\014"
 371      52CD8770 
 371      7B48B3D1 
 371      036E881B 
 371      EA0C
 372 0710 367FA62E 		.ascii	"6\177\246.\334\265\030\241\034w\2037\334\211\331\206"
 372      DCB518A1 
 372      1C778337 
 372      DC89D986 
 373 0720 D4FA4373 		.ascii	"\324\372Cs)\236v\262\362\261g<\226\276\3033\231x\356"
 373      299E76B2 
 373      F2B1673C 
 373      96BEC333 
 373      9978EE
 374 0733 BC1BB891 		.ascii	"\274\033\270\221\256u\2379G\204\011\025w\261\226\343"
 374      AE759F39 
 374      47840915 
 374      77B196E3 
 375 0743 09D57A4C 		.ascii	"\011\325zL\267a\3721\246g0\375\004\323\3171\275\212"
 375      B761FA31 
 375      A66730FD 
 375      04D3CF31 
 375      BD8A
 376 0755 E9241C46 		.ascii	"\351$\034F\237\303\264\011\323NL\017`z\010\323\303\230"
 376      9FC3B409 
 376      D34E4C0F 
 376      607A08D3 
 376      C398
 377 0767 1EC5F498 		.ascii	"\036\305\364\230\233\001\327e\014\270\220\277\225\346"
 377      9B01D765 
 377      0CB890BF 
 377      95E6
 378 0775 9EF0E9C6 		.ascii	"\236\360\351\306z\311\342\247\034\367cn\011\031\020"
 378      7AC9E2A7 
 378      1CF7636E 
 378      091910
 379 0784 F1687756 		.ascii	"\361hwV\312\257\207\234\020B\362w8@\343\353\023\002"
 379      CAAF879C 
 379      1042F277 
ARM GAS  /tmp/cc4E3sam.s 			page 30


 379      3840E3EB 
 379      1302
 380 0796 7346AC9D 		.ascii	"sF\254\235\020\247\256\357,m\236\220\356\351\271\203"
 380      10A7AEEF 
 380      2C6D9E90 
 380      EEE9B983 
 381 07a6 391DD640 		.ascii	"9\035\326@\235\350<-ht\372\360H\334\340O'\032\351n("
 381      9DE83C2D 
 381      6874FAF0 
 381      48DCE04F 
 381      271AE96E 
 382 07bb 62E9FE21 		.ascii	"b\351\376!\267HU[\324\227\245\321\306I'\3268%\330\023"
 382      B748555B 
 382      D497A5D1 
 382      C64927D6 
 382      3825D813 
 383 07cf 6D       		.ascii	"m"
 384 07d0 44D21ABB 		.ascii	"D\322\032\273\352\3723\217\216\316\260\352\324\212\022"
 384      EAFA338F 
 384      8ECEB0EA 
 384      D48A12
 385 07df 98CE66B5 		.ascii	"\230\316f\265=\235\232\265\327;\253g\255\254\236\313"
 385      3D9D9AB5 
 385      D73BAB67 
 385      ADAC9ECB 
 386 07ef 6675B63D 		.ascii	"fu\266=\253\233\010\253Z\365\277\342\010w\306\221\325"
 386      AB9B08AB 
 386      5AF5BFE2 
 386      0877C691 
 386      D5
 387 0800 73395875 		.ascii	"s9XujE\011<g\313\3525\235UMY\002\267\334\236\306\267"
 387      6A45093C 
 387      67CBEA35 
 387      9D554D59 
 387      02B7DC9E 
 388 0816 7575805B 		.ascii	"uu\200[\010\204\306\317z\245\016\247V\224\306\363\266"
 388      0884C6CF 
 388      7AA50EA7 
 388      5694C6F3 
 388      B6
 389 0827 347EB1CF 		.ascii	"4~\261\317\273:.X\325\321\225\255\216w\355Y=FX\355B"
 389      BB3A2E58 
 389      D5D195AD 
 389      8E77ED59 
 389      3D4658ED 
 390 083c CBFB086B 		.ascii	"\313\373\010kt9\262\332\225\203U\247V\224\300K6N\326"
 390      7439B2DA 
 390      958355A7 
 390      5694C04B 
 390      364ED6
 391 084f 9C6EEB49 		.ascii	"\234n\353I\215h]\245NzN\275a\375\016\303\361\240\220"
 391      8D685DA5 
 391      4E7A4EBD 
 391      61FD0EC3 
 391      F1A090
 392 0862 A07DE9C6 		.ascii	"\240}\351\306\321\002\326\001B\253\372\265\015%+\322"
 392      D102D601 
ARM GAS  /tmp/cc4E3sam.s 			page 31


 392      42ABFAB5 
 392      0D252BD2 
 393 0872 5B177E14 		.ascii	"[\027~\024nS\267\221\017Bz\312\324\375+\254\304\370"
 393      6E53B791 
 393      0F427ACA 
 393      D4FD2BAC 
 393      C4F8
 394 0884 8336C460 		.ascii	"\2036\304`\367\002\367F\200\317\300_\263s\014\346\201"
 394      F702F746 
 394      80CFC05F 
 394      B3730CE6 
 394      81
 395 0895 E3ACA4AE 		.ascii	"\343\254\244\256eH\245\250\233\021\225>\274\253wA\237"
 395      6548A5A8 
 395      9B11953E 
 395      BCAB7741 
 395      9F
 396 08a6 DFCF7469 		.ascii	"\337\317tiw\335\311- \342=\325x\370=\276Em\357\204\311"
 396      77DDC92D 
 396      20E23DD5 
 396      78F83DBE 
 396      456DEF84 
 397 08bb 19165877 		.ascii	"\031\026Xw\330E\336E:;\011\316\364\021\310\013\377\212"
 397      D845DE45 
 397      3A3B09CE 
 397      F411C80B 
 397      FF8A
 398 08cd 21D1641F 		.ascii	"!\321d\037\231\307\367Z$\231\027\006fWl2\325\227\025"
 398      99C7F75A 
 398      24991706 
 398      66576C32 
 398      D59715
 399 08e0 129D6EA4 		.ascii	"\022\235n\244!\021y\227\177e3\343\204\343\327+ic\315"
 399      21117997 
 399      7F6533E3 
 399      84E3D72B 
 399      6963CD
 400 08f3 30D044F9 		.ascii	"0\320D\371\346\351\017 \345MH\371\231\374\224\26300"
 400      E6E90F20 
 400      E54D48F9 
 400      99FC94B3 
 400      3030
 401 0905 AF609319 		.ascii	"\257`\223\031\331\224\177\256\237~\317pE\371\372\243"
 401      D9947FAE 
 401      9F7ECF70 
 401      45F9FAA3 
 402 0915 E660485F 		.ascii	"\346`H_\225\221\266\275[\225m\320N\0357\340F\347;V0"
 402      9591B6BD 
 402      5B956DD0 
 402      4E1D37E0 
 402      46E73B56 
 403 092a 4F6B3255 		.ascii	"Ok2U?\220\326\2761\370\3103X9C\331\2419l\330\372\027"
 403      3F90D6BE 
 403      31F8C833 
 403      583943D9 
 403      A1396CD8 
 404 0940 3778394E 		.ascii	"7x9N\005\351\311\257\006v\3263\030K\334\361\243\246"
ARM GAS  /tmp/cc4E3sam.s 			page 32


 404      05E9C9AF 
 404      0676D633 
 404      184BDCF1 
 404      A3A6
 405 0952 23C61E43 		.ascii	"#\306\036C\2679\300\354\316\316\354.\263\221\210\374"
 405      B739C0EC 
 405      CECEEC2E 
 405      B39188FC 
 406 0962 4C1F09AA 		.ascii	"L\037\011\252f\371H\3503\033\323\0271\235\203i+\246"
 406      66F948E8 
 406      331BD317 
 406      319D8369 
 406      2BA6
 407 0974 6D3E26DC 		.ascii	"m>&\334\236\034\324}\304\326\024\363\231\204\232jsv"
 407      9E1CD47D 
 407      C4D614F3 
 407      99849A6A 
 407      7376
 408 0986 0E66BB49 		.ascii	"\016f\273I\367\215\015M\277E\337x\005}cz0\257oX6\255"
 408      F78D0D4D 
 408      BF45DF78 
 408      057D637A 
 408      30AF6F58 
 409 099c 16618BF6 		.ascii	"\026a\213\366,\327\3508\242\273F\273\013\327hH\235z"
 409      2CD7E838 
 409      A2BB46BB 
 409      0BD76848 
 409      9D7A
 410 09ae D1DD9E59 		.ascii	"\321\335\236Y\273!\217\357\231\270X\334\244}\240\266"
 410      BB218FEF 
 410      99B858DC 
 410      A47DA0B6 
 411 09be 04B9782B 		.ascii	"\004\271x+?\027,\214\300\355\304&K\263\331\350\320\331"
 411      3F172C8C 
 411      C0EDC426 
 411      4BB3D9E8 
 411      D0D9
 412 09d0 58EA8A8D 		.ascii	"X\352\212\215W^\324\355~\261/\263\\[\232\333\272\034"
 412      575ED4ED 
 412      7EB12FB3 
 412      5C5B9ADB 
 412      BA1C
 413 09e2 D5D9909A 		.ascii	"\325\331\220\232w\004MU\003[\353\031\214\265\373\225"
 413      77044D55 
 413      035BEB19 
 413      8CB5FB95 
 414 09f2 47E696A9 		.ascii	"G\346\226\251\355\357\350\337\212\251\215\352\340\245"
 414      EDEFE8DF 
 414      8AA98DEA 
 414      E0A5
 415 0a00 1991F4D7 		.ascii	"\031\221\364\327\021\004\223`\327\034\022P\260\177\366"
 415      11049360 
 415      D71C1250 
 415      B07FF6
 416 0a0f 91F21316 		.ascii	"\221\362\023\026\301z\000jZ\257m\005\257D\240\263\275"
 416      C17A006A 
 416      5AAF6D05 
ARM GAS  /tmp/cc4E3sam.s 			page 33


 416      AF44A0B3 
 416      BD
 417 0a20 066A6B79 		.ascii	"\006jkyM\373Nl\015\002uY\200D\336g\331\244\360\261\233"
 417      4DFB4E6C 
 417      0D027559 
 417      8044DE67 
 417      D9A4F0B1 
 418 0a35 14BE6026 		.ascii	"\024\276`&\323\323\343\343\276\305\312\002w\325\260"
 418      D3D3E3E3 
 418      BEC5CA02 
 418      77D5B0
 419 0a44 2A3B8EF2 		.ascii	"*;\216\362\015\311d\037gw\001\356\3430^\341>$z\313g"
 419      0DC9641F 
 419      677701EE 
 419      E3305EE1 
 419      3E247ACB 
 420 0a59 893B4658 		.ascii	"\211;FX\"\"\273\206\272\306.N\037\214\202\336\350\303"
 420      2222BB86 
 420      BAC62E4E 
 420      1F8C82DE 
 420      E8C3
 421 0a6b 61D22268 		.ascii	"a\322\"h\313I\000\351\311\211\212-\276\022\007\277\311"
 421      CB4900E9 
 421      C9898A2D 
 421      BE1207BF 
 421      C9
 422 0a7c 7A277053 		.ascii	"z'pS\212\371\3746\236\363\203\224=K\364\335|\\4Ow\003"
 422      8AF9FC36 
 422      9EF38394 
 422      3D4BF4DD 
 422      7C5C344F 
 423 0a92 6837F3D8 		.ascii	"h7\363\330]\346!\002\026\3158\276/\307q\374uL\337\300"
 423      5DE62102 
 423      16CD38BE 
 423      2FC771FC 
 423      754CDFC0 
 424 0aa6 7403A629 		.ascii	"t\003\246)\363\310\356$\033\342\330\006\2666X\264\367"
 424      F3C8EE24 
 424      1BE2D806 
 424      B63658B4 
 424      F7
 425 0ab7 7AB0B898 		.ascii	"z\260\270\230=Xx\001c\004\231\272B\007\013\315\367E"
 425      3D587801 
 425      630499BA 
 425      42070BCD 
 425      F745
 426 0ac9 7EBDCF82 		.ascii	"~\275\317\202\347\315\226S\263\346\224\356\177J\037"
 426      E7CD9653 
 426      B3E694EE 
 426      7F4A1F
 427 0ad8 486614F3 		.ascii	"Hf\024\363\036\301\372\347RJ\273I)\013Q)\213P\005\333"
 427      1EC1FAE7 
 427      524ABB49 
 427      290B5129 
 427      8B5005DB 
 428 0aec 30DD8EE9 		.ascii	"0\335\216\351\273\354D\373R\261e\242e\3465\273i\337"
 428      BBEC44FB 
ARM GAS  /tmp/cc4E3sam.s 			page 34


 428      52B165A2 
 428      65E635BB 
 428      69DF
 429 0afe 2C1E35B5 		.ascii	",\0365\265\342\004\310\332\365v\342_\233\264\355\304"
 429      E204C8DA 
 429      F576E25F 
 429      9BB4EDC4 
 430 0b0e 4E9C9F16 		.ascii	"N\234\237\026\024{\337N\304&\273\262#\320\033\372\374"
 430      147BDF4E 
 430      C426BBB2 
 430      23D01BFA 
 430      FC
 431 0b1f B42BFFFC 		.ascii	"\264+\377\3744ib\252\355\245W3\323\354D\303}\377\207"
 431      346962AA 
 431      EDA55733 
 431      D3EC44C3 
 431      7DFF87
 432 0b32 B75BCA68 		.ascii	"\267[\312h\302e\2764J\031tx4Q{\305\3552)n\017*n/\253"
 432      C265BE34 
 432      4A197478 
 432      34517BC5 
 432      ED32296E 
 433 0b4b A69D5635 		.ascii	"\246\235V5y\334~\334xB\217\270\265\257\360\367Z\361"
 433      79DC7EDC 
 433      78428FB8 
 433      B5AFF0F7 
 433      5AF1
 434 0b5d DA992FEC 		.ascii	"\332\231/\354\355\000\313s10\325\304\3004d`:Z\333\\"
 434      ED00CB73 
 434      3130D5C4 
 434      C0346460 
 434      3A5ADB5C 
 435 0b71 4CDFC3F4 		.ascii	"L\337\303\364 \313\3221C\373\266\353$\202\372\201\317"
 435      20CBD231 
 435      43FBB6EB 
 435      2482FA81 
 435      CF
 436 0b82 588E9255 		.ascii	"X\216\222U\333\212T\372\354gia\002\371\337\004\365:"
 436      DB8A54FA 
 436      EC676961 
 436      02F9DF04 
 436      F53A
 437 0b94 2CDAF4E8 		.ascii	",\332\364\350\016X\344M\363\345\012#\250!\303>\265\275"
 437      0E58E44D 
 437      F3E50A23 
 437      A821C33E 
 437      B5BD
 438 0ba6 ABEBAE96 		.ascii	"\253\353\256\226\221}}=\010r\254/\362G\201\201\274\325"
 438      917D7D3D 
 438      0872AC2F 
 438      F2478181 
 438      BCD5
 439 0bb8 48C56316 		.ascii	"H\305c\026;L\035\223\312\265R\027\247\223W\002jc\351"
 439      3B4C1D93 
 439      CAB55217 
 439      A7935702 
 439      6A63E9
ARM GAS  /tmp/cc4E3sam.s 			page 35


 440 0bcb 77B86664 		.ascii	"w\270fd`d\231\366\251\233\223\361\235\364}\007s\314"
 440      606499F6 
 440      A99B93F1 
 440      9DF47D07 
 440      73CC
 441 0bdd 0924D670 		.ascii	"\011$\326pjq\312\227\371\234\2564\230\311\350\223\236"
 441      6A71CA97 
 441      F99CAE34 
 441      98C9E893 
 441      9E
 442 0bee C075A302 		.ascii	"\300u\243\002\216\365z\230=\371d\353P\375\233\245\306"
 442      8EF57A98 
 442      3DF964EB 
 442      50FD9BA5 
 442      C6
 443 0bff 120B96DD 		.ascii	"\022\013\226\335\027$\014V9\203u\332\204\365\274g\254"
 443      17240C56 
 443      398375DA 
 443      84F5BC67 
 443      AC
 444 0c10 C10CD645 		.ascii	"\301\014\326Eq\351P=\300j\266b\331\015\260\014\326P"
 444      71E9503D 
 444      C06AB662 
 444      D90DB00C 
 444      D650
 445 0c22 06EB6F26 		.ascii	"\006\353o&\272Z\335\320\225c\344\377\302\204\325\356"
 445      BA5ADDD0 
 445      9563E4FF 
 445      C284D5EE 
 446 0c32 198BF970 		.ascii	"\031\213\371p(\365\245\011k\231g\254\376\014\326\327"
 446      28F5A509 
 446      6B9967AC 
 446      FE0CD6D7 
 447 0c42 26AC359E 		.ascii	"&\2545\236\261\312\030\254k&\254\267=c\2616q\335\204"
 447      B1CA18AC 
 447      6B26ACB7 
 447      3D63B136 
 447      71DD84
 448 0c55 B5C33316 		.ascii	"\265\3033\026k\0237LX\373<c\2616\321\334Q\262\342)\035"
 448      6B13374C 
 448      58FB3C63 
 448      B136D1DC 
 448      51B2E229 
 449 0c6a EC9867B0 		.ascii	"\354\230g\260\341\014X\213\031\354c7`9v\007f\231\301"
 449      E10C588B 
 449      19EC6337 
 449      60397607 
 449      6699C1
 450 0c7d 2E780663 		.ascii	".x\006cM\354E3\330U\317`\254\215\265\232\301&\226z\005"
 450      4DEC4533 
 450      D855CF60 
 450      AC8DB59A 
 450      C126967A 
 451 0c92 638DEC25 		.ascii	"c\215\354%3\3304\317`\254\225\3155\203\265z\006\033"
 451      33D834CF 
 451      60AC95CD 
 451      3583B57A 
ARM GAS  /tmp/cc4E3sam.s 			page 36


 451      061B
 452 0ca4 CCB1973E 		.ascii	"\314\261\227>\011\036\307I\360\004N|\037b\372\021\246"
 452      091EC749 
 452      F0044E7C 
 452      1F62FA11 
 452      A6
 453 0cb5 7FC1F42C 		.ascii	"\177\301\364,\246\3470\375\024\323\363\230~\216\351"
 453      A6E730FD 
 453      14D3F398 
 453      7E8EE9
 454 0cc4 054C2F61 		.ascii	"\005L/az\031\323+\230~\205\351UL\2731\375\006\323\036"
 454      7A19D32B 
 454      987E85E9 
 454      554CBB31 
 454      FD06D31E 
 455 0cd8 76625D50 		.ascii	"vb]Pj]\013j3\222\211\306\314\304\305\375\177Q\271\334"
 455      6A5D0B6A 
 455      339289C6 
 455      CCC4C5FD 
 455      7F51B9DC 
 456 0cec A0D2717A 		.ascii	"\240\322qzm\360\013\334\355\334\232\322WT\3152\357\347"
 456      6DF00BDC 
 456      EDDC9AD2 
 456      5754CD32 
 456      EFE7
 457 0cfe 56AB5352 		.ascii	"V\253SR\355\005\"\177\004\351'tke#\265\031\322p\012"
 457      ED05227F 
 457      04E92774 
 457      6B6523B5 
 457      19D2700A 
 458 0d12 9221D369 		.ascii	"\222!\323i\215^\304\033E\242^$\030E\021\275\310g\024"
 458      8D5EC41B 
 458      45A25E24 
 458      184511BD 
 458      C86714
 459 0d25 C5382A11 		.ascii	"\3058*\021R\200\347\375\232h\350\343\255TF\344\021\346"
 459      5280E7FD 
 459      9A68E8E3 
 459      AD5446E4 
 459      11E6
 460 0d37 99869154 		.ascii	"\231\206\221TZ\364\265\237\212\215>\012T~\364\361\227"
 460      5AF4B59F 
 460      8A8D3E0A 
 460      547EF4F1 
 460      97
 461 0d48 5490F431 		.ascii	"T\220\3641@%J\037K\251h\351c\177*c\372\370=*l\372XF"
 461      40254A1F 
 461      4BA968E9 
 461      637F2A63 
 461      FAF83D2A 
 462 0d60 A54E1F07 		.ascii	"\245N\037\007R\361\323\307r\252\007\372\250+\204>\336"
 462      52F1D3C7 
 462      72AA07FA 
 462      A82B843E 
 462      DE
 463 0d71 493563E2 		.ascii	"I5c\342\260\307\374\310qFp\322\332\227\211N\2309\224"
 463      B0C7FCC8 
ARM GAS  /tmp/cc4E3sam.s 			page 37


 463      714670D2 
 463      DA97894E 
 463      983994
 464 0d84 B46BF47B 		.ascii	"\264k\364{\215N&\373\355\243\023}\347\236v]n\351y\270"
 464      8D4E26FB 
 464      EDA3137D 
 464      E79E765D 
 464      6EE979B8 
 465 0d98 5EAF88E2 		.ascii	"^\257\210\342L\361\334\363s\016=\027\322\236-\013\372"
 465      4CF1DCF3 
 465      730E3D17 
 465      D29E2D0B 
 465      FA
 466 0da9 C90EE111 		.ascii	"\311\016\341\021\006\275~cE@NJR\027\323/\177r\351w\257"
 466      06BD7E63 
 466      45404E4A 
 466      5217D32F 
 466      7F72E977 
 467 0dbe AF52553C 		.ascii	"\257RU<\263\2310\311\303\251\3154\177\3661\356\207\026"
 467      B39930C9 
 467      C3A9CD34 
 467      7FF631EE 
 467      8716
 468 0dd0 47A6A74B 		.ascii	"G\246\247Kp-U}\210F\352?\357\277\203u\356\351\376\254"
 468      702D557D 
 468      8846EA3F 
 468      EFBF8375 
 468      EEE9FEAC 
 469 0de4 431C20ED 		.ascii	"C\034 \355\306\234\303\267\351\377\325;H\353O\340>u"
 469      C69CC3B7 
 469      E9FFD53B 
 469      48EB4FE0 
 469      3E75
 470 0df6 D5C30BD6 		.ascii	"\325\303\013\326\036\232m{8z\356\322\350\253\031\346"
 470      1E9A6D7B 
 470      387AEED2 
 470      E8AB19E6 
 471 0e06 07B9677E 		.ascii	"\007\271g~\246\337\262?\263\011w\362\231s\240\371}l"
 471      A6DFB23F 
 471      B30977F2 
 471      9973A0F9 
 471      7D6C
 472 0e18 CE81DEE8 		.ascii	"\316\201\336\350C\015\206\236\327\035\350(m\346\365"
 472      430D869E 
 472      D71DE828 
 472      6DE6F5
 473 0e27 7FC2DC84 		.ascii	"\177\302\334\204-Z\374N'v\364;\036\312\361\345\011\217"
 473      2D5AFC4E 
 473      2776F43B 
 473      1ECAF1E5 
 473      098F
 474 0e39 96191CB7 		.ascii	"\226\031\034\267X9\236m\313\361\313\237\034\2506\253"
 474      58399E6D 
 474      CBF1CB9F 
 474      1CA836AB 
 475 0e49 5B17EB3B 		.ascii	"[\027\353;}\334\210\365ek's\035\024\367y\266\342\366"
 475      7DDC88F5 
ARM GAS  /tmp/cc4E3sam.s 			page 38


 475      656B2773 
 475      1D14F779 
 475      B6E2F6
 476 0e5c B8EA619E 		.ascii	"\270\352a\236\265\207\371l\017\026[o\312a\353\0132\266"
 476      B587F96C 
 476      0F165B6F 
 476      CA61EB0B 
 476      32B6
 477 0e6e 6E6945CE 		.ascii	"niE\316\033\235Z-\314\264\"\013\270\375\373\323;\326"
 477      1B9D5A2D 
 477      CCB4220B 
 477      B8FDFBD3 
 477      3BD6
 478 0e80 2DE3A7A4 		.ascii	"-\343\247\244\325f\220X\017o\366r\323\322\233\375\342"
 478      D5669058 
 478      0F6FF672 
 478      D3D29BFD 
 478      E2
 479 0e91 CD7130B0 		.ascii	"\315q0\260V\023\371%\236G\203W\035F\003\363\377\301"
 479      5613F925 
 479      9E478357 
 479      1D4603F3 
 479      FFC1
 480 0ea3 666A9178 		.ascii	"fj\221x\257\217\345\003\004+\025\020\305Q\243\024y\362"
 480      AF8FE503 
 480      042B1510 
 480      C551A314 
 480      79F2
 481 0eb5 0FFB1669 		.ascii	"\017\373\026i]\313!\255e\2162>\235\243\325\2372\255"
 481      5DCB21AD 
 481      658E323E 
 481      9DA3D59F 
 481      32AD
 482 0ec7 7EC2BD4A 		.ascii	"~\302\275J\226\226\363\017vN \237\007Z>+\326\337\253"
 482      9696F30F 
 482      764E209F 
 482      075A3E2B 
 482      D6DFAB
 483 0eda ABDAFBDB 		.ascii	"\253\332\373\333\274\344\276?dHE<Y!+\025I9\\\021\256"
 483      BCE4BE3F 
 483      6448453C 
 483      59212B15 
 483      49395C11 
 484 0eef 96A5AA48 		.ascii	"\226\245\252HR\221\353\207\204\271\333\215W\221X8Z["
 484      5291EB87 
 484      84B9DB8D 
 484      57915838 
 484      5A5B
 485 0f01 29C1EB64 		.ascii	")\301\353d}R\251OH\311!\325\\@\201\312beH)\374\325#"
 485      7D52A94F 
 485      48C921D5 
 485      5C4081CA 
 485      62654829 
 486 0f18 4F948FE2 		.ascii	"O\224\217\342\202\341\352\220V\364}\273\206\341\352"
 486      82E1EA90 
 486      56F47DBB 
 486      86E1EA
ARM GAS  /tmp/cc4E3sam.s 			page 39


 487 0f27 4A68D44F 		.ascii	"Jh\324O\253\221\014\375\241V\252\225BJ\177\243\021-"
 487      AB910CFD 
 487      A156AA95 
 487      424A7FA3 
 487      112D
 488 0f39 F2C7A4F1 		.ascii	"\362\307\244\361\212?!K\343\012\360\371>\015+\034\257"
 488      8A3F214B 
 488      E30AF0F9 
 488      3E0D2B1C 
 488      AF
 489 0f4a A989C72A 		.ascii	"\251\211\307*\022qYIV<\370\330\303\243\036\036O\312"
 489      12715949 
 489      563CF8D8 
 489      C3A31E1E 
 489      4FCA
 490 0f5c 1291A824 		.ascii	"\022\221\250$'+~5j\024t\241\023V\244$\344H<\244\374"
 490      272B7E35 
 490      6A1474A1 
 490      1356A424 
 490      E4483CA4 
 491 0f71 A0A23629 		.ascii	"\240\2426)\033$\304\244\272hdLER\251\214\304\024B~-"
 491      1B24C4A4 
 491      BA68644C 
 491      4552A98C 
 491      C414427E 
 492 0f86 FCFEF37D 		.ascii	"\374\376\363}!\345\237\354\252\325\210\341\352HL\252"
 492      21E59FEC 
 492      AAD588E1 
 492      EA484CAA 
 493 0f96 08554A63 		.ascii	"\010UJc\305\332\250\022\322\301"
 493      C5DAA812 
 493      D2C1
 494 0fa0 8B4321BD 		.ascii	"\213C!\275\241\237tSJH\012\205\3431\005\350\276+\007"
 494      A19F7453 
 494      4A480A85 
 494      E33105E8 
 494      BE2B07
 495 0fb3 B1D5E1B8 		.ascii	"\261\325\341\270,\001@\0116\000\210\2602\376'\371\352"
 495      2C014009 
 495      360088B0 
 495      32FE27F9 
 495      EA
 496 0fc4 87C6FDAC 		.ascii	"\207\306\375\254\206\320\012Z\021\345\232\220\"\310"
 496      86D00A5A 
 496      11E59A90 
 496      22C8
 497 0fd2 F70BF2BF 		.ascii	"\367\013\362\277\010\3620A\376\231 \017\027\344\237"
 497      08F23041 
 497      FE99200F 
 497      17E49F
 498 0fe1 FBE47B87 		.ascii	"\373\344{\207\302}\257\020\225\205d\302\007\240\005"
 498      C27DAF10 
 498      958564C2 
 498      07A005
 499 0ff0 C0822417 		.ascii	"\300\202$\027\304\243\225\222\354\017W\213\262?&\326"
 499      C4A39592 
 499      EC0F578B 
ARM GAS  /tmp/cc4E3sam.s 			page 40


 499      B23F26D6 
 500 1000 48C549E5 		.ascii	"H\305I\345i1\032\251\212\205\024\344|\330\375!\205\362"
 500      69311AA9 
 500      8A8514E4 
 500      7CD8FD21 
 500      85F2
 501 1012 42B28575 		.ascii	"B\262\205u\342\0301)\005\224\244\"*\240\227\"\362bx"
 501      E2183129 
 501      0594A422 
 501      2AA09722 
 501      F26278
 502 1025 48096A55 		.ascii	"H\011jU W\200o\212\224\232x%\274/\030\033\025\253\222"
 502      2057806F 
 502      8A949A78 
 502      25BC2F18 
 502      1B15AB92 
 503 1039 458A2C8D 		.ascii	"E\212,\215M\202$\310OAM\262\012\032R\341@C\232+\224"
 503      4D8224C8 
 503      4F414DB2 
 503      0A1A52E1 
 503      40439A2B 
 504 104e 2BEBE155 		.ascii	"+\353\341U@\032\037Q\302\320\270\260N\211\217\371}b"
 504      401A1F51 
 504      C2D0B8B0 
 504      4E898FF9 
 504      7D62
 505 1060 00351F68 		.ascii	"\0005\037h*\311R,L@\353\024EN\024%\245\230\002\015J"
 505      2AC9522C 
 505      4C40EB14 
 505      454E1425 
 505      A598020D 
 506 1075 C1349252 		.ascii	"\3014\222R\215\230\250\006A\334fgR\022\221MA8\006\332"
 506      8D98A806 
 506      41DC6667 
 506      5212914D 
 506      413806DA 
 507 1089 F1410AC0 		.ascii	"\361A\012\300P\224\010@\273\232ZP\207]\233\032e<i\023"
 507      50940840 
 507      BB9A5A50 
 507      875D9B1A 
 507      653C6913 
 508 109d AF8B4972 		.ascii	"\257\213Ir\021\326\"\274+P\234(\221\306\221\216\305"
 508      11D622BC 
 508      2B509C28 
 508      91C6918E 
 508      C5
 509 10ae E4D35024 		.ascii	"\344\323P$\325\221\014_\333W7\316(xEH\351g2WRRT'F\224"
 509      D5910C5F 
 509      DB5737CE 
 509      28784548 
 509      E9673257 
 510 10c8 48AC2A00 		.ascii	"H\254*\000\364\242\271\006\244\204\024\003\013\253*"
 510      F4A2B906 
 510      A4841403 
 510      0BAB2A
 511 10d7 02485203 		.ascii	"\002HR\003T'F\211\241\024\324$\342\361(\330\373cR\325"
 511      54274689 
ARM GAS  /tmp/cc4E3sam.s 			page 41


 511      A114D424 
 511      E2F128D8 
 511      FB6352D5 
 512 10eb 7F46E4A4 		.ascii	"\177F\344\244\362\033\304\351\207\005\217\200\361h\317"
 512      F21BC4E9 
 512      87058F80 
 512      F168CF
 513 10fa 8292B885 		.ascii	"\202\222\270\205\326\211UjE\277\250\177\004\024X\226"
 513      D689556A 
 513      45BFA87F 
 513      04145896 
 514 110a 55FA681C 		.ascii	"U\372h\034$,\311\003\263^\374W\\~\032Hx\020\236\204"
 514      242CC903 
 514      B35EFC57 
 514      5C7E1A48 
 514      78109E84 
 515 111e 3AF10736 		.ascii	":\361\0076b\240<\200(@\312\277\251\256|L\212J\240~\007"
 515      62A03C80 
 515      2840CABF 
 515      A9AE7C4C 
 515      8A4AA07E 
 516 1133 8F91018C 		.ascii	"\217\221\001\214\370U,\036\213\325F\243\205P\022\256"
 516      F8552C1E 
 516      8BD546A3 
 516      855012AE 
 517 1143 49C023C0 		.ascii	"I\300#\300\304\353\374\320t\254?Q+K%Dc0@H`\251A#_J\272"
 517      C4EBFCD0 
 517      74AC3F51 
 517      2B4B2544 
 517      63304048 
 518 115e AAA702EC 		.ascii	"\252\247\002\354\003\305\231\347\242p\255\014\272W\012"
 518      03C599E7 
 518      A270AD0C 
 518      BA570A
 519 116d 64F274CB 		.ascii	"d\362t\313\270\210\254\324\212\321\220\022\251\001\257"
 519      B888ACD4 
 519      8AD19012 
 519      A901AF
 520 117c A62D6E85 		.ascii	"\246-n\205\0266/\3721e\332@\302\024\005I\357\220\241"
 520      16362FFA 
 520      3165DA40 
 520      C2140549 
 520      EF90A1
 521 118f F67EEF30 		.ascii	"\366~\3570\303\336I\266\240R\212*b`\2342\2666\026\006"
 521      C3DE49B6 
 521      A0528A2A 
 521      62609C32 
 521      B6361606 
 522 11a3 03263FBE 		.ascii	"\003&?\276\204(\007\242bR!\315\012\307)\244\233\276"
 522      842807A2 
 522      625221CD 
 522      0AC729A4 
 522      9BBE
 523 11b5 949F4A69 		.ascii	"\224\237JiLm\225\246\177sI0!\306\"\341\020h\337W9\246"
 523      4C6D95A6 
 523      7F734930 
 523      21C622E1 
ARM GAS  /tmp/cc4E3sam.s 			page 42


 523      1068DF57 
 524 11cb AAB84604 		.ascii	"\252\270F\004xM\215\341j\273\341\323\030]a \211T\002"
 524      784D8DE1 
 524      6ABBE1D3 
 524      185D6120 
 524      895402
 525 11de E791B111 		.ascii	"\347\221\261\021\360\322g$9\356OF\236\221\212\306\001"
 525      F0D26724 
 525      39EE4F46 
 525      9E918AC6 
 525      01
 526 11ef 7F9178AC 		.ascii	"\177\221x\254(\241\310\3449@H!\231b\2521R\026\037;6"
 526      28A1C8E4 
 526      39404821 
 526      9962AA31 
 526      52161F3B 
 527 1204 442CAA88 		.ascii	"D,\252\210d\300\341\203\344\027\235\036s\350\370X\211"
 527      64C0E183 
 527      E4179D1E 
 527      73E8F858 
 527      89
 528 1215 F87D29C9 		.ascii	"\370})\311\200\357G#5\021%\250=\200\037c\016}\030k\022"
 528      80EF4723 
 528      351125A8 
 528      3D801F63 
 528      0E7D186B 
 529 122a FF2DD170 		.ascii	"\377-\321p%p!\005\013I\337\240F\312:q+\314\366\037\""
 529      25702105 
 529      0B49DFA0 
 529      46CA3A71 
 529      2BCCF61F 
 530 123f C72B4545 		.ascii	"\307+EE\034\242\027\330\372f=1.h\375x}\362\327\361\360"
 530      1CA217D8 
 530      FA663D31 
 530      2E68FD78 
 530      7DF2D7F1 
 531 1254 D3411CF5 		.ascii	"\323A\034\365\242\220\273\207\031\363\300\356+F=\374"
 531      A290BB87 
 531      19F3C0EE 
 531      2B463DFC 
 532 1264 F8438F67 		.ascii	"\370C\217g\332\326$#\311PU8\014\355\373\204`\004PB\277"
 532      DAD62423 
 532      C9505538 
 532      0CEDFB84 
 532      60045042 
 533 1279 78F0F1FF 		.ascii	"x\360\361\377x\364\261\207\372\210\321:\261>\011\343"
 533      78F4B187 
 533      FA88D13A 
 533      B13E09E3 
 534 1289 4A1486E6 		.ascii	"J\024\206\346\202qb\264\226\230\034\364\360D\214 k#"
 534      827162B4 
 534      96981CF4 
 534      F0448C20 
 534      6B23
 535 129b 6B2DE603 		.ascii	"k-\346\003\241\020j6\324G\317\014\031v\337\260\373\377"
 535      A1106A36 
 535      D447CF0C 
ARM GAS  /tmp/cc4E3sam.s 			page 43


 535      1976DFB0 
 535      FBFF
 536 12ad 17A88D4C 		.ascii	"\027\250\215L\017"
 536      0F
 537              		.text
 538              		.section	.gnu.lto_.symtab.41839cbf16ae42af,"",%progbits
 539 0000 63685265 		.ascii	"chRegFirstThread\000\000\000\000\000\000\000\000\000"
 539      67466972 
 539      73745468 
 539      72656164 
 539      00000000 
 540 0019 000000A1 		.ascii	"\000\000\000\241\000\000\000chRegNextThread\000\000"
 540      00000063 
 540      68526567 
 540      4E657874 
 540      54687265 
 541 0031 00000000 		.ascii	"\000\000\000\000\000\000\000\000\000\000]\001\000\000"
 541      00000000 
 541      00005D01 
 541      0000
 542 003f 63685265 		.ascii	"chRegFindThreadByName\000\000\000\000\000\000\000\000"
 542      6746696E 
 542      64546872 
 542      65616442 
 542      794E616D 
 543 005c 00000000 		.ascii	"\000\000\000\000d\001\000\000chRegFindThreadByPoint"
 543      64010000 
 543      63685265 
 543      6746696E 
 543      64546872 
 544 007a 65720000 		.ascii	"er\000\000\000\000\000\000\000\000\000\000\000\000j"
 544      00000000 
 544      00000000 
 544      00006A
 545 0089 01000063 		.ascii	"\001\000\000chRegFindThreadByWorkingArea\000\000\000"
 545      68526567 
 545      46696E64 
 545      54687265 
 545      61644279 
 546 00ab 00000000 		.ascii	"\000\000\000\000\000\000\000\000\000n\001\000\000ch"
 546      00000000 
 546      006E0100 
 546      006368
 547 00ba 5F646562 		.ascii	"_debug\000\000\000\000\000\000\000\000\000\000\000\000"
 547      75670000 
 547      00000000 
 547      00000000 
 547      0000
 548 00cc D5010000 		.ascii	"\325\001\000\000ch\000\000\002\000\000\000\000\000\000"
 548      63680000 
 548      02000000 
 548      000000
 549 00db 00000086 		.ascii	"\000\000\000\206\001\000\000chThdRelease\000\000\002"
 549      01000063 
 549      68546864 
 549      52656C65 
 549      61736500 
ARM GAS  /tmp/cc4E3sam.s 			page 44


 550 00f1 00000000 		.ascii	"\000\000\000\000\000\000\000\000\000u\001\000\000"
 550      00000000 
 550      00750100 
 550      00
 551              		.text
 552              		.section	.gnu.lto_.opts,"",%progbits
 553 0000 272D6D63 		.ascii	"'-mcpu=cortex-m3' '-mno-thumb-interwork' '-mthumb' "
 553      70753D63 
 553      6F727465 
 553      782D6D33 
 553      2720272D 
 554 0033 272D6767 		.ascii	"'-ggdb' '-O2' '-fomit-frame-pointer' '-falign-funct"
 554      64622720 
 554      272D4F32 
 554      2720272D 
 554      666F6D69 
 555 0066 696F6E73 		.ascii	"ions=16' '-ffunction-sections' '-fdata-sections' '-"
 555      3D313627 
 555      20272D66 
 555      66756E63 
 555      74696F6E 
 556 0099 666E6F2D 		.ascii	"fno-common' '-flto'\000"
 556      636F6D6D 
 556      6F6E2720 
 556      272D666C 
 556      746F2700 
 557              		.text
 558              		.cfi_sections	.debug_frame
 559              		.section	.text.chRegFirstThread,"ax",%progbits
 560              		.align	2
 561              		.p2align 4,,15
 562              		.global	chRegFirstThread
 563              		.thumb
 564              		.thumb_func
 565              		.type	chRegFirstThread, %function
 566              	chRegFirstThread:
 567              	.LFB188:
 568              		.file 1 "../os/rt/src/chregistry.c"
 569              		.loc 1 134 0
 570              		.cfi_startproc
 571              		@ args = 0, pretend = 0, frame = 0
 572              		@ frame_needed = 0, uses_anonymous_args = 0
 573              		@ link register save eliminated.
 574              	.LVL0:
 575              	.LBB71:
 576              	.LBB72:
 577              	.LBB73:
 578              	.LBB74:
 579              		.file 2 "../os/common/ext/CMSIS/include/cmsis_gcc.h"
 580              		.loc 2 264 0
 581 0000 2023     		movs	r3, #32
 582              	@ 264 "../os/common/ext/CMSIS/include/cmsis_gcc.h" 1
 583 0002 83F31188 		MSR basepri, r3
 584              	@ 0 "" 2
 585              		.thumb
 586              	.LBE74:
 587              	.LBE73:
ARM GAS  /tmp/cc4E3sam.s 			page 45


 588              	.LBE72:
 589              	.LBE71:
 590              		.loc 1 138 0
 591 0006 40F20003 		movw	r3, #:lower16:ch
 592 000a C0F20003 		movt	r3, #:upper16:ch
 593 000e 1869     		ldr	r0, [r3, #16]
 594              	.LVL1:
 595              	.LBB75:
 596              	.LBB76:
 597              	.LBB77:
 598              	.LBB78:
 599              	.LBB79:
 600              		.loc 2 264 0
 601 0010 0023     		movs	r3, #0
 602              	.LBE79:
 603              	.LBE78:
 604              	.LBE77:
 605              	.LBE76:
 606              	.LBE75:
 607              		.loc 1 140 0
 608 0012 90F82220 		ldrb	r2, [r0, #34]	@ zero_extendqisi2
 609 0016 0132     		adds	r2, r2, #1
 610 0018 80F82220 		strb	r2, [r0, #34]
 611              	.LVL2:
 612              	.LBB84:
 613              	.LBB83:
 614              	.LBB82:
 615              	.LBB81:
 616              	.LBB80:
 617              		.loc 2 264 0
 618              	@ 264 "../os/common/ext/CMSIS/include/cmsis_gcc.h" 1
 619 001c 83F31188 		MSR basepri, r3
 620              	@ 0 "" 2
 621              		.thumb
 622              	.LBE80:
 623              	.LBE81:
 624              	.LBE82:
 625              	.LBE83:
 626              	.LBE84:
 627              		.loc 1 145 0
 628 0020 7047     		bx	lr
 629              		.cfi_endproc
 630              	.LFE188:
 631              		.size	chRegFirstThread, .-chRegFirstThread
 632 0022 00BFAFF3 		.section	.text.chRegNextThread,"ax",%progbits
 632      0080AFF3 
 632      0080AFF3 
 632      0080
 633              		.align	2
 634              		.p2align 4,,15
 635              		.global	chRegNextThread
 636              		.thumb
 637              		.thumb_func
 638              		.type	chRegNextThread, %function
 639              	chRegNextThread:
 640              	.LFB189:
 641              		.loc 1 158 0
ARM GAS  /tmp/cc4E3sam.s 			page 46


 642              		.cfi_startproc
 643              		@ args = 0, pretend = 0, frame = 0
 644              		@ frame_needed = 0, uses_anonymous_args = 0
 645              	.LVL3:
 646 0000 10B5     		push	{r4, lr}
 647              		.cfi_def_cfa_offset 8
 648              		.cfi_offset 4, -8
 649              		.cfi_offset 14, -4
 650              	.LBB85:
 651              	.LBB86:
 652              	.LBB87:
 653              	.LBB88:
 654              		.loc 2 264 0
 655 0002 2023     		movs	r3, #32
 656              	@ 264 "../os/common/ext/CMSIS/include/cmsis_gcc.h" 1
 657 0004 83F31188 		MSR basepri, r3
 658              	@ 0 "" 2
 659              		.thumb
 660              	.LBE88:
 661              	.LBE87:
 662              	.LBE86:
 663              	.LBE85:
 664              		.loc 1 164 0
 665 0008 40F20003 		movw	r3, #:lower16:ch
 666              		.loc 1 162 0
 667 000c 0469     		ldr	r4, [r0, #16]
 668              	.LVL4:
 669              		.loc 1 164 0
 670 000e C0F20003 		movt	r3, #:upper16:ch
 671 0012 9C42     		cmp	r4, r3
 672              		.loc 1 171 0
 673 0014 17BF     		itett	ne
 674 0016 94F82230 		ldrbne	r3, [r4, #34]	@ zero_extendqisi2
 675              		.loc 1 166 0
 676 001a 0024     		moveq	r4, #0
 677              	.LVL5:
 678              		.loc 1 171 0
 679 001c 0133     		addne	r3, r3, #1
 680 001e 84F82230 		strbne	r3, [r4, #34]
 681              	.LBB89:
 682              	.LBB90:
 683              	.LBB91:
 684              	.LBB92:
 685              	.LBB93:
 686              		.loc 2 264 0
 687 0022 0023     		movs	r3, #0
 688              	@ 264 "../os/common/ext/CMSIS/include/cmsis_gcc.h" 1
 689 0024 83F31188 		MSR basepri, r3
 690              	@ 0 "" 2
 691              		.thumb
 692              	.LBE93:
 693              	.LBE92:
 694              	.LBE91:
 695              	.LBE90:
 696              	.LBE89:
 697              		.loc 1 176 0
 698 0028 FFF7FEFF 		bl	chThdRelease
ARM GAS  /tmp/cc4E3sam.s 			page 47


 699              	.LVL6:
 700              		.loc 1 180 0
 701 002c 2046     		mov	r0, r4
 702 002e 10BD     		pop	{r4, pc}
 703              		.cfi_endproc
 704              	.LFE189:
 705              		.size	chRegNextThread, .-chRegNextThread
 706              		.section	.text.chRegFindThreadByName,"ax",%progbits
 707              		.align	2
 708              		.p2align 4,,15
 709              		.global	chRegFindThreadByName
 710              		.thumb
 711              		.thumb_func
 712              		.type	chRegFindThreadByName, %function
 713              	chRegFindThreadByName:
 714              	.LFB190:
 715              		.loc 1 194 0
 716              		.cfi_startproc
 717              		@ args = 0, pretend = 0, frame = 0
 718              		@ frame_needed = 0, uses_anonymous_args = 0
 719              	.LVL7:
 720 0000 38B5     		push	{r3, r4, r5, lr}
 721              		.cfi_def_cfa_offset 16
 722              		.cfi_offset 3, -16
 723              		.cfi_offset 4, -12
 724              		.cfi_offset 5, -8
 725              		.cfi_offset 14, -4
 726              		.loc 1 194 0
 727 0002 0546     		mov	r5, r0
 728              	.LBB94:
 729              	.LBB95:
 730              	.LBB96:
 731              	.LBB97:
 732              	.LBB98:
 733              	.LBB99:
 734              		.loc 2 264 0
 735 0004 2023     		movs	r3, #32
 736              	@ 264 "../os/common/ext/CMSIS/include/cmsis_gcc.h" 1
 737 0006 83F31188 		MSR basepri, r3
 738              	@ 0 "" 2
 739              		.thumb
 740              	.LBE99:
 741              	.LBE98:
 742              	.LBE97:
 743              	.LBE96:
 744              		.loc 1 138 0
 745 000a 40F20003 		movw	r3, #:lower16:ch
 746 000e C0F20003 		movt	r3, #:upper16:ch
 747 0012 1C69     		ldr	r4, [r3, #16]
 748              	.LVL8:
 749              	.LBB100:
 750              	.LBB101:
 751              	.LBB102:
 752              	.LBB103:
 753              	.LBB104:
 754              		.loc 2 264 0
 755 0014 0023     		movs	r3, #0
ARM GAS  /tmp/cc4E3sam.s 			page 48


 756              	.LBE104:
 757              	.LBE103:
 758              	.LBE102:
 759              	.LBE101:
 760              	.LBE100:
 761              		.loc 1 140 0
 762 0016 94F82220 		ldrb	r2, [r4, #34]	@ zero_extendqisi2
 763 001a 0132     		adds	r2, r2, #1
 764 001c 84F82220 		strb	r2, [r4, #34]
 765              	.LVL9:
 766              	.LBB109:
 767              	.LBB108:
 768              	.LBB107:
 769              	.LBB106:
 770              	.LBB105:
 771              		.loc 2 264 0
 772              	@ 264 "../os/common/ext/CMSIS/include/cmsis_gcc.h" 1
 773 0020 83F31188 		MSR basepri, r3
 774              	@ 0 "" 2
 775              		.thumb
 776 0024 04E0     		b	.L7
 777              	.LVL10:
 778              	.L13:
 779              	.LBE105:
 780              	.LBE106:
 781              	.LBE107:
 782              	.LBE108:
 783              	.LBE109:
 784              	.LBE95:
 785              	.LBE94:
 786              		.loc 1 203 0
 787 0026 2046     		mov	r0, r4
 788 0028 FFF7FEFF 		bl	chRegNextThread
 789              	.LVL11:
 790              		.loc 1 204 0
 791 002c 0446     		mov	r4, r0
 792              	.LVL12:
 793 002e 28B1     		cbz	r0, .L6
 794              	.LVL13:
 795              	.L7:
 796              		.loc 1 200 0
 797 0030 A069     		ldr	r0, [r4, #24]
 798 0032 2946     		mov	r1, r5
 799 0034 FFF7FEFF 		bl	strcmp
 800              	.LVL14:
 801 0038 0028     		cmp	r0, #0
 802 003a F4D1     		bne	.L13
 803              	.LVL15:
 804              	.L6:
 805              		.loc 1 207 0
 806 003c 2046     		mov	r0, r4
 807 003e 38BD     		pop	{r3, r4, r5, pc}
 808              		.cfi_endproc
 809              	.LFE190:
 810              		.size	chRegFindThreadByName, .-chRegFindThreadByName
 811              		.section	.text.chRegFindThreadByPointer,"ax",%progbits
 812              		.align	2
ARM GAS  /tmp/cc4E3sam.s 			page 49


 813              		.p2align 4,,15
 814              		.global	chRegFindThreadByPointer
 815              		.thumb
 816              		.thumb_func
 817              		.type	chRegFindThreadByPointer, %function
 818              	chRegFindThreadByPointer:
 819              	.LFB191:
 820              		.loc 1 221 0
 821              		.cfi_startproc
 822              		@ args = 0, pretend = 0, frame = 0
 823              		@ frame_needed = 0, uses_anonymous_args = 0
 824              	.LVL16:
 825 0000 10B5     		push	{r4, lr}
 826              		.cfi_def_cfa_offset 8
 827              		.cfi_offset 4, -8
 828              		.cfi_offset 14, -4
 829              	.LBB110:
 830              	.LBB111:
 831              	.LBB112:
 832              	.LBB113:
 833              	.LBB114:
 834              	.LBB115:
 835              		.loc 2 264 0
 836 0002 2023     		movs	r3, #32
 837              	.LBE115:
 838              	.LBE114:
 839              	.LBE113:
 840              	.LBE112:
 841              	.LBE111:
 842              	.LBE110:
 843              		.loc 1 221 0
 844 0004 0446     		mov	r4, r0
 845              	.LBB131:
 846              	.LBB130:
 847              	.LBB119:
 848              	.LBB118:
 849              	.LBB117:
 850              	.LBB116:
 851              		.loc 2 264 0
 852              	@ 264 "../os/common/ext/CMSIS/include/cmsis_gcc.h" 1
 853 0006 83F31188 		MSR basepri, r3
 854              	@ 0 "" 2
 855              		.thumb
 856              	.LBE116:
 857              	.LBE117:
 858              	.LBE118:
 859              	.LBE119:
 860              		.loc 1 138 0
 861 000a 40F20003 		movw	r3, #:lower16:ch
 862 000e C0F20003 		movt	r3, #:upper16:ch
 863 0012 1869     		ldr	r0, [r3, #16]
 864              	.LVL17:
 865              	.LBB120:
 866              	.LBB121:
 867              	.LBB122:
 868              	.LBB123:
 869              	.LBB124:
ARM GAS  /tmp/cc4E3sam.s 			page 50


 870              		.loc 2 264 0
 871 0014 0023     		movs	r3, #0
 872              	.LBE124:
 873              	.LBE123:
 874              	.LBE122:
 875              	.LBE121:
 876              	.LBE120:
 877              		.loc 1 140 0
 878 0016 90F82220 		ldrb	r2, [r0, #34]	@ zero_extendqisi2
 879 001a 0132     		adds	r2, r2, #1
 880 001c 80F82220 		strb	r2, [r0, #34]
 881              	.LVL18:
 882              	.LBB129:
 883              	.LBB128:
 884              	.LBB127:
 885              	.LBB126:
 886              	.LBB125:
 887              		.loc 2 264 0
 888              	@ 264 "../os/common/ext/CMSIS/include/cmsis_gcc.h" 1
 889 0020 83F31188 		MSR basepri, r3
 890              	@ 0 "" 2
 891              	.LVL19:
 892              		.thumb
 893              	.LBE125:
 894              	.LBE126:
 895              	.LBE127:
 896              	.LBE128:
 897              	.LBE129:
 898              	.LBE130:
 899              	.LBE131:
 900              		.loc 1 227 0
 901 0024 8442     		cmp	r4, r0
 902 0026 02D1     		bne	.L16
 903 0028 06E0     		b	.L19
 904              	.LVL20:
 905              	.L17:
 906 002a 8442     		cmp	r4, r0
 907 002c 04D0     		beq	.L19
 908              	.L16:
 909              		.loc 1 230 0
 910 002e FFF7FEFF 		bl	chRegNextThread
 911              	.LVL21:
 912              		.loc 1 231 0
 913 0032 0028     		cmp	r0, #0
 914 0034 F9D1     		bne	.L17
 915 0036 10BD     		pop	{r4, pc}
 916              	.LVL22:
 917              	.L19:
 918              		.loc 1 230 0
 919 0038 2046     		mov	r0, r4
 920              	.LVL23:
 921              		.loc 1 234 0
 922 003a 10BD     		pop	{r4, pc}
 923              		.cfi_endproc
 924              	.LFE191:
 925              		.size	chRegFindThreadByPointer, .-chRegFindThreadByPointer
 926 003c AFF30080 		.section	.text.chRegFindThreadByWorkingArea,"ax",%progbits
ARM GAS  /tmp/cc4E3sam.s 			page 51


 927              		.align	2
 928              		.p2align 4,,15
 929              		.global	chRegFindThreadByWorkingArea
 930              		.thumb
 931              		.thumb_func
 932              		.type	chRegFindThreadByWorkingArea, %function
 933              	chRegFindThreadByWorkingArea:
 934              	.LFB192:
 935              		.loc 1 250 0
 936              		.cfi_startproc
 937              		@ args = 0, pretend = 0, frame = 0
 938              		@ frame_needed = 0, uses_anonymous_args = 0
 939              	.LVL24:
 940 0000 10B5     		push	{r4, lr}
 941              		.cfi_def_cfa_offset 8
 942              		.cfi_offset 4, -8
 943              		.cfi_offset 14, -4
 944              	.LBB132:
 945              	.LBB133:
 946              	.LBB134:
 947              	.LBB135:
 948              	.LBB136:
 949              	.LBB137:
 950              		.loc 2 264 0
 951 0002 2023     		movs	r3, #32
 952              	.LBE137:
 953              	.LBE136:
 954              	.LBE135:
 955              	.LBE134:
 956              	.LBE133:
 957              	.LBE132:
 958              		.loc 1 250 0
 959 0004 0446     		mov	r4, r0
 960              	.LBB153:
 961              	.LBB152:
 962              	.LBB141:
 963              	.LBB140:
 964              	.LBB139:
 965              	.LBB138:
 966              		.loc 2 264 0
 967              	@ 264 "../os/common/ext/CMSIS/include/cmsis_gcc.h" 1
 968 0006 83F31188 		MSR basepri, r3
 969              	@ 0 "" 2
 970              		.thumb
 971              	.LBE138:
 972              	.LBE139:
 973              	.LBE140:
 974              	.LBE141:
 975              		.loc 1 138 0
 976 000a 40F20003 		movw	r3, #:lower16:ch
 977 000e C0F20003 		movt	r3, #:upper16:ch
 978 0012 1B69     		ldr	r3, [r3, #16]
 979              	.LVL25:
 980              	.LBB142:
 981              	.LBB143:
 982              	.LBB144:
 983              	.LBB145:
ARM GAS  /tmp/cc4E3sam.s 			page 52


 984              	.LBB146:
 985              		.loc 2 264 0
 986 0014 0022     		movs	r2, #0
 987              	.LBE146:
 988              	.LBE145:
 989              	.LBE144:
 990              	.LBE143:
 991              	.LBE142:
 992              		.loc 1 140 0
 993 0016 93F82210 		ldrb	r1, [r3, #34]	@ zero_extendqisi2
 994 001a 0131     		adds	r1, r1, #1
 995 001c 83F82210 		strb	r1, [r3, #34]
 996              	.LVL26:
 997              	.LBB151:
 998              	.LBB150:
 999              	.LBB149:
 1000              	.LBB148:
 1001              	.LBB147:
 1002              		.loc 2 264 0
 1003              	@ 264 "../os/common/ext/CMSIS/include/cmsis_gcc.h" 1
 1004 0020 82F31188 		MSR basepri, r2
 1005              	@ 0 "" 2
 1006              		.thumb
 1007 0024 03E0     		b	.L22
 1008              	.LVL27:
 1009              	.L26:
 1010              	.LBE147:
 1011              	.LBE148:
 1012              	.LBE149:
 1013              	.LBE150:
 1014              	.LBE151:
 1015              	.LBE152:
 1016              	.LBE153:
 1017              		.loc 1 259 0
 1018 0026 FFF7FEFF 		bl	chRegNextThread
 1019              	.LVL28:
 1020              		.loc 1 260 0
 1021 002a 0346     		mov	r3, r0
 1022 002c 18B1     		cbz	r0, .L21
 1023              	.LVL29:
 1024              	.L22:
 1025              		.loc 1 256 0
 1026 002e DA69     		ldr	r2, [r3, #28]
 1027              		.loc 1 259 0
 1028 0030 1846     		mov	r0, r3
 1029              		.loc 1 256 0
 1030 0032 A242     		cmp	r2, r4
 1031 0034 F7D1     		bne	.L26
 1032              	.LVL30:
 1033              	.L21:
 1034              		.loc 1 263 0
 1035 0036 1846     		mov	r0, r3
 1036              	.LVL31:
 1037 0038 10BD     		pop	{r4, pc}
 1038              		.cfi_endproc
 1039              	.LFE192:
 1040              		.size	chRegFindThreadByWorkingArea, .-chRegFindThreadByWorkingArea
ARM GAS  /tmp/cc4E3sam.s 			page 53


 1041              		.global	ch_debug
 1042 003a 00BFAFF3 		.section	.rodata.ch_debug,"a",%progbits
 1042      0080
 1043              		.align	2
 1044              		.type	ch_debug, %object
 1045              		.size	ch_debug, 22
 1046              	ch_debug:
 1047 0000 6D       		.byte	109
 1048 0001 61       		.byte	97
 1049 0002 69       		.byte	105
 1050 0003 6E       		.byte	110
 1051 0004 00       		.byte	0
 1052 0005 16       		.byte	22
 1053 0006 0220     		.short	8194
 1054 0008 04       		.byte	4
 1055 0009 02       		.byte	2
 1056 000a 44       		.byte	68
 1057 000b 08       		.byte	8
 1058 000c 0C       		.byte	12
 1059 000d 10       		.byte	16
 1060 000e 14       		.byte	20
 1061 000f 18       		.byte	24
 1062 0010 1C       		.byte	28
 1063 0011 20       		.byte	32
 1064 0012 21       		.byte	33
 1065 0013 22       		.byte	34
 1066 0014 00       		.byte	0
 1067 0015 00       		.byte	0
 1068 0016 0000     		.text
 1069              	.Letext0:
 1070              		.file 3 "/usr/lib/gcc/arm-none-eabi/4.8.2/include/stddef.h"
 1071              		.file 4 "/usr/include/newlib/machine/_default_types.h"
 1072              		.file 5 "/usr/include/newlib/stdint.h"
 1073              		.file 6 "../os/common/ports/ARMCMx/compilers/GCC/chtypes.h"
 1074              		.file 7 "../os/rt/include/chsystypes.h"
 1075              		.file 8 "../os/rt/include/chschd.h"
 1076              		.file 9 "../os/common/ports/ARMCMx/chcore.h"
 1077              		.file 10 "../os/common/ports/ARMCMx/chcore_v7m.h"
 1078              		.file 11 "../os/rt/include/chsem.h"
 1079              		.file 12 "../os/rt/include/chmtx.h"
 1080              		.file 13 "../os/rt/include/chregistry.h"
 1081              		.file 14 "../os/rt/include/chthreads.h"
 1082              		.file 15 "../os/rt/include/chsys.h"
 1083              		.file 16 "../os/common/ext/CMSIS/include/core_cm3.h"
 1084              		.file 17 "/usr/include/newlib/string.h"