ARM GAS  /tmp/ccMOFhog.s 			page 1


   1              		.syntax unified
   2              		.cpu cortex-m3
   3              		.fpu softvfp
   4              		.eabi_attribute 20, 1
   5              		.eabi_attribute 21, 1
   6              		.eabi_attribute 23, 3
   7              		.eabi_attribute 24, 1
   8              		.eabi_attribute 25, 1
   9              		.eabi_attribute 26, 1
  10              		.eabi_attribute 30, 2
  11              		.eabi_attribute 34, 1
  12              		.eabi_attribute 18, 4
  13              		.thumb
  14              		.file	"chvt.c"
  15              		.text
  16              	.Ltext0:
  17              		.section	.gnu.lto_.jmpfuncs.356fe6167eb47308,"",%progbits
  18 0000 789C6362 		.ascii	"x\234cb`b\300\006d\2404\013\003#\020\002\0251\363\003"
  18      6062C006 
  18      64A0340B 
  18      03231002 
  18      1531F303 
  19 0014 29206261 		.ascii	") badd\006\212\227\001\231\000\011|\000\275"
  19      6464068A 
  19      97019900 
  19      097C00BD 
  20              		.text
  21              		.section	.gnu.lto_.inline.356fe6167eb47308,"",%progbits
  22 0000 789C6362 		.ascii	"x\234cb`b\300\006\224\031\031\030D\2014\013\003\203"
  22      6062C006 
  22      94191918 
  22      4481340B 
  22      0383
  23 0012 9414230B 		.ascii	"\224\024#\013Cz5\303\257\206\216\206\007\213\277Yf2"
  23      437A35C3 
  23      AF868E86 
  23      078BBF59 
  23      6632
  24 0024 326833AC 		.ascii	"2h3\254j\000\002\323LF\306\\F\206$F\2706f\006\206\214"
  24      6A0002D3 
  24      4C46C65C 
  24      46862446 
  24      B8366606 
  25 003a 44C6858C 		.ascii	"D\306\205\214\325 \026#\003\214t`g\355Pg`\357Pgb`|\301"
  25      D5201623 
  25      038C7460 
  25      67ED5067 
  25      60EF5067 
  26 0052 2EC0C400 		.ascii	".\300\304\000\344\0120H}[\302\310\301\300\270\233]\201"
  26      E40A3048 
  26      7D5BC2C8 
  26      C1C0B89B 
  26      5D81
  27 0064 83094281 		.ascii	"\203\011B\201\214`\344\002Y\312\304\315\000\224\232"
  27      8C60E402 
  27      59CAC4CD 
  27      00949A
ARM GAS  /tmp/ccMOFhog.s 			page 2


  28 0073 E0C7C4C0 		.ascii	"\340\307\304\300\316\306\310\300\304q\300\216\201m\201"
  28      CEC6C8C0 
  28      C471C08E 
  28      816D81
  29 0082 3C13C40E 		.ascii	"<\023\304\016\243K\014\214\314\214)\021\214\231\214"
  29      A34B0C8C 
  29      CC8C2911 
  29      8C998C
  30 0091 4C40E319 		.ascii	"L@\343\031S\341,\220K\230\275\316\377\340`\340[\352"
  30      53E12C90 
  30      4B98BDCE 
  30      FFE060E0 
  30      5BEA
  31 00a3 C6C4C0B2 		.ascii	"\306\304\300\262@^\000\244\005h\032\3300\010\305\302"
  31      405E00A4 
  31      05681AD8 
  31      3008C5C2 
  32 00b3 2022C0C8 		.ascii	" \"\300\310\014v\230\002\262#9\304&Lfd\3408\242\003"
  32      0C769802 
  32      B22339C4 
  32      264C6664 
  32      E038A203 
  33 00c7 74CD2536 		.ascii	"t\315%6\026\010\011\"8\300L\240{.\261\0120\201I$C\031"
  33      16080922 
  33      38C04CA0 
  33      7B2EB10A 
  33      30814924 
  34 00dd 44F4F4F4 		.ascii	"D\364\364\364\363\213\365\213J\364\213\213\222\365\223"
  34      F38BF58B 
  34      4AF48B8B 
  34      92F593
  35 00ec 33CA4AF4 		.ascii	"3\312J\364\222\031\000\001d/\340"
  35      92190001 
  35      642FE0
  36              		.text
  37              		.section	.gnu.lto_.pureconst.356fe6167eb47308,"",%progbits
  38 0000 789C6362 		.ascii	"x\234cb`b\340d\200\000\026\006)&\011f)\026)\000\002"
  38      6062E064 
  38      80001606 
  38      29260966 
  38      29162900 
  39 0015 D80081   		.ascii	"\330\000\201"
  40              		.text
  41              		.section	.gnu.lto_chVTDoResetI.part.0.356fe6167eb47308,"",%progbits
  42 0000 789C9555 		.ascii	"x\234\225UMlTU\024>\347\375\27773\235j\374\251\013\215"
  42      4D6C5455 
  42      143EE7FD 
  42      BF37339D 
  42      6AFCA90B 
  43 0015 61A784BE 		.ascii	"a\247\204\276\2401\221\2251\272!\241\033\231&\272\261"
  43      A0319195 
  43      31BA21A1 
  43      1B9926BA 
  43      B1
  44 0026 8EAF93E9 		.ascii	"\216\257\223\351Kf:f:\242\211\013\3560\023\203`\322"
  44      4B663A66 
  44      3AA2890B 
ARM GAS  /tmp/ccMOFhog.s 			page 3


  44      EE301383 
  44      60D2
  45 0038 D20D0A56 		.ascii	"\322\015\012V\024+\376&F\027*\251\221\202\002\255\244"
  45      142BFE26 
  45      46172AA9 
  45      918202AD 
  45      A4
  46 0049 034D50B4 		.ascii	"\003MP\264q\321\205A\221`\232\340\206\212\214\347\334"
  46      71D18541 
  46      91609AE0 
  46      868A8CE7 
  46      DC
  47 005a F7338FD1 		.ascii	"\3673\217\321\006\274\311\273\347\334{\317\371\316w"
  47      06BCC9BB 
  47      E7DC7BCF 
  47      F9CE77
  48 0069 CEFD790A 		.ascii	"\316\375y\012(\320\335\312\364\275k\000\354'\211\016"
  48      28D0DDCA 
  48      F4BD6B00 
  48      EC27890E 
  49 0079 A03DD122 		.ascii	"\240=\321\"\305FEJEQ\017\253 \034\355\334w\000\"\255"
  49      C546454A 
  49      45510FAB 
  49      201CEDDC 
  49      770022AD 
  50 008d A2C5D375 		.ascii	"\242\305\323uKS\254\257\356\241y\375\254K\323\272b\274"
  50      4B53ACAF 
  50      EEA179FD 
  50      AC4BD3BA 
  50      62BC
  51 009f 7A3B8DCC 		.ascii	"z;\215\314\346&\032\031h\006Ffdm!\262\002\010\333mE"
  51      E6261A19 
  51      68064666 
  51      646D21B2 
  51      0208DB6D 
  52 00b4 D574C3B4 		.ascii	"\325t\303\264p\373S\310\341\2652\302:x[\210}\313\307"
  52      70FB53C8 
  52      E1B532C2 
  52      3A785B88 
  52      7DCBC7
  53 00c7 8F7CDAB7 		.ascii	"\217|\332\267\353\255\372\204\270\326n\243\317\253\036"
  53      EBADFA84 
  53      B8D66EA3 
  53      CFAB1E
  54 00d6 C293A461 		.ascii	"\302\223\244a\257\024J\027y\35169\373}ko\237H\270)p"
  54      AF144A17 
  54      79E93639 
  54      FB7D6B6F 
  54      9F48B829 
  55 00eb 27DE94A7 		.ascii	"'\336\224\247\230y\346}\321\234m\267\037\221^w\337\310"
  55      9879E67D 
  55      D19C6DB7 
  55      1F915E77 
  55      DFC8
  56 00fd EB13452C 		.ascii	"\353\023E,\267\333\257\277\347\334\201XFT\300GU\245"
  56      B7DBAFBF 
  56      E7DC8158 
ARM GAS  /tmp/ccMOFhog.s 			page 4


  56      4654C047 
  56      55A5
  57 010f 4ED3B8D3 		.ascii	"N\323\270\323\2713\250\323M\352\300\342\241\015y\234"
  57      B933A8D3 
  57      4DEAC0E2 
  57      A10D799C 
  58 011f C675E090 		.ascii	"\306u\340\220<H2\305\223\351p\220\341\001\301\352\320"
  58      3C4832C5 
  58      93E97090 
  58      E101C1EA 
  58      D0
  59 0130 1462E2DE 		.ascii	"\024b\342\336\3002X\222\231S\313Q\317\205\313\241\315"
  59      C0325892 
  59      9953CB51 
  59      CF85CBA1 
  59      CD
  60 0141 521DA4A0 		.ascii	"R\035\244\240,\027`\307\322k\227\257(y<\204:\024QY\017"
  60      2C1760C7 
  60      D26B97AF 
  60      28793C84 
  60      3A145159 
  61 0156 F71399FD 		.ascii	"\367\023\231\375\260\257.D\257\217F\021\2213P%\357g"
  61      B0AF2E44 
  61      AF8F4611 
  61      91335025 
  61      EF67
  62 0168 31CA80FC 		.ascii	"1\312\200\374\346\3178\201\327z\370PP\333DV\241\232"
  62      E6CF3881 
  62      D77AF850 
  62      50DB4456 
  62      A19A
  63 017a F2D18C21 		.ascii	"\362\321\214!\254\227`U\354d\315.#\027\202\361\354\020"
  63      AC976055 
  63      EC64CD2E 
  63      231782F1 
  63      EC10
  64 018c 0F431914 		.ascii	"\017C\031\024\250\310\222\240W\033_\274\371\360u\340"
  64      A8C892A0 
  64      571B5FBC 
  64      F9F075E0 
  65 019c 5BBB4829 		.ascii	"[\273H)IR\201\014\302\210\031ZpB\257E\322M\012\032\305"
  65      4952810C 
  65      C288195A 
  65      7042AF45 
  65      D24D0A1A 
  66 01b1 89A87FF9 		.ascii	"\211\250\177\371\343\345\013x\035~\306\307\324\232I"
  66      E3E50B78 
  66      1D7EC6C7 
  66      D49A49
  67 01c0 6B52F24C 		.ascii	"kR\362L\212\2259\370\366\327\243\237e\343\222\205\201"
  67      8A9539F8 
  67      F6D7A39F 
  67      65E39285 
  67      81
  68 01d1 B39DB80F 		.ascii	"\263\235\270\017\375G\330\250\015\022\354aU=\015\215"
  68      FD47D8A8 
  68      0D12EC61 
ARM GAS  /tmp/ccMOFhog.s 			page 5


  68      553D0D8D 
  69 01e1 95D60F2F 		.ascii	"\225\326\017/g\303=\2136ov\367\245wL\200\000\333\213"
  69      67C33D8B 
  69      366F76F7 
  69      A5774C80 
  69      00DB8B
  70 01f4 FCE30AA6 		.ascii	"\374\343\012\246=\244\255\372\234\326\250\371\230\211"
  70      3DA4ADFA 
  70      9CD6A8F9 
  70      9889
  71 0202 2035A05B 		.ascii	" 5\240[\025l\346\352\274\0321\013\267\203\374`\315\332"
  71      156CE6EA 
  71      BC1A310B 
  71      B783FC60 
  71      CDDA
  72 0214 E99DAA2C 		.ascii	"\351\235\252,\255\3049i\362\030\300\232\025\351x5v6"
  72      ADC43969 
  72      F218C09A 
  72      15E97835 
  72      7636
  73 0226 CE63E4A6 		.ascii	"\316c\344\246S\314\"\227\213\3206'\353{\023\024\212"
  73      53CC2297 
  73      8BD03627 
  73      EB7B1314 
  73      8A
  74 0237 2C17E0D8 		.ascii	",\027\340\330\322\033\277\377\366\301$v\327efi\312\210"
  74      D21BBFFF 
  74      F6C12476 
  74      D7656669 
  74      CA88
  75 0249 0757C6A7 		.ascii	"\007W\306\2472\361\340\324\325\206\335\251\230J\237"
  75      32F1E0D4 
  75      D586DDA9 
  75      984A9F
  76 0258 469F1E60 		.ascii	"F\237\036`\032\034\277Y_^<\321\232D\315\307\036f1\301"
  76      1A1CBF59 
  76      5F5E3CD1 
  76      9A44CDC7 
  76      1E6631C1 
  77 026c 2CB24CA1 		.ascii	",\262L\241\227wK\223[\333\033\2621\030\353H\340Oi\374"
  77      97774B93 
  77      5BDB1BB2 
  77      3118EB48 
  77      E04F69FC 
  78 0280 D1E8C9E3 		.ascii	"\321\350\311\343\3272;\263\310\213\\\250\237\1779\360"
  78      D7323BB3 
  78      C88B5CA8 
  78      9F7F39F0 
  79 0290 7494B315 		.ascii	"t\224\263\025\224*\334\371\003\370\277\217\276\331\251"
  79      942ADCF9 
  79      03F8BF8F 
  79      BED9A9
  80 029f E52B8D6A 		.ascii	"\345+\215j\004k\313x\026\300<\204\2273\270\326E\366"
  80      046BCB78 
  80      16C03C84 
  80      9733B8D6 
  80      45F6
ARM GAS  /tmp/ccMOFhog.s 			page 6


  81 02b1 9F83E6F9 		.ascii	"\237\203\346\371\243\177\215\253\211\272\333\311\023"
  81      A37F8DAB 
  81      89BADBC9 
  81      13
  82 02be A6C3C90D 		.ascii	"\246\303\311\015\252\304\373h\372\256\310\310\211\354"
  82      AAC4FB68 
  82      FAAEC8C8 
  82      89EC
  83 02cc 12880725 		.ascii	"\022\210\007%\242\023\"NM\306\210\0163\205\344\361\035"
  83      A213224E 
  83      4DC6880E 
  83      3385E4F1 
  83      1D
  84 02dd A4E40FA5 		.ascii	"\244\344\017\245\325y\330\261<~\301H\002\260\251\246"
  84      D579D8B1 
  84      3C7EC148 
  84      02B0A9A6 
  85 02ed C4662607 		.ascii	"\304f&\007'3\013\342\000\351\360\244\\\234v\243\000"
  85      27330BE2 
  85      00E9F0A4 
  85      5C9C76A3 
  85      00
  86 02fe 294A4EB2 		.ascii	")JN\262\341\2058lF.\244\023\034\303\247\371\357\335"
  86      E185386C 
  86      462EA413 
  86      1CC3A7F9 
  86      EFDD
  87 0310 DFA0D825 		.ascii	"\337\240\330%\352+\355vV\276\261{\361F\217l\221\257"
  87      EA2BED76 
  87      56BEB17B 
  87      F1468F6C 
  87      91AF
  88 0322 C76968AE 		.ascii	"\307ih\256\264\256\235\350\371\3275[\370S\317\343\234"
  88      B4AE9DE8 
  88      F9D7355B 
  88      F853CFE3 
  88      9C
  89 0333 7C21A3A3 		.ascii	"|!\243\243ct]\266[<4\363x*:J\364D\334\312\332O\220\246"
  89      63745DB6 
  89      5B3C34F3 
  89      782A3A4A 
  89      F444DCCA 
  90 034b FAE81FEF 		.ascii	"\372\350\037\357)\204\211\033W\367\2249qK\276\250\213"
  90      2984891B 
  90      57F79439 
  90      714BBEA8 
  90      8B
  91 035c F497EA90 		.ascii	"\364\227\352\220\310\021M\232ej\267\365\367\273\225"
  91      C8114D9A 
  91      656AB7F5 
  91      F7BB95
  92 036b 31B75A73 		.ascii	"1\267Zs\307\252\236\353\215l\253\365{\240\017\027J\265"
  92      C7AA9EEB 
  92      8D6CABF5 
  92      7BA00F17 
  92      4AB5
  93 037d BC355A79 		.ascii	"\2745ZyA*\367\0056^\245\\\256\214\272\317U\252\2651"
ARM GAS  /tmp/ccMOFhog.s 			page 7


  93      412AF705 
  93      365EA55C 
  93      AE8CBACF 
  93      55AAB531 
  94 0391 F7D12706 		.ascii	"\367\321'\006\036\033x\221\034\274J\2650T\363\313\205"
  94      1E1B7891 
  94      1CBC4AB5 
  94      3054F3CB 
  94      85
  95 03a2 6AFF086C 		.ascii	"j\377\010l\010,G\362\245\320lkn\340\301\007\334-[\036"
  95      082C47F2 
  95      A5D06C6B 
  95      6EE0C107 
  95      DC2D5B1E 
  96 03b6 77739B07 		.ascii	"ws\233\007\266m\344\225\241\261\332P\2514L\326}ql\177"
  96      B66DE495 
  96      A1B1DA50 
  96      A9344CD6 
  96      7D716C7F 
  97 03ca D42B3D3F 		.ascii	"\324+=?\\\010\342\217\200\306x\377\000\215T\301\305"
  97      5C08E28F 
  97      80C678FF 
  97      008D54C1 
  97      C5
  98              		.text
  99              		.section	.gnu.lto__vt_init.356fe6167eb47308,"",%progbits
 100 0000 789C6362 		.ascii	"x\234cb`b@\007\222 \014\024\026\003\322\214\314\014"
 100      60624007 
 100      92200C14 
 100      1603D28C 
 100      CC0C
 101 0012 8C4C13CE 		.ascii	"\214L\023\316104r012\202\030\014\214\014\365L\214\365"
 101      31303472 
 101      30313282 
 101      180C8C0C 
 101      F54C8CF5 
 102 0026 918C60B5 		.ascii	"\221\214`\265\353\231\016<\370\377\177\335\257\255\017"
 102      EB990E3C 
 102      F8FF7FDD 
 102      AFAD0F
 103 0035 FB1905D9 		.ascii	"\373\031\005\331\200\002\254\014-\015\015\023\024\030"
 103      8002AC0C 
 103      2D0D0D13 
 103      1418
 104 0043 1892C10A 		.ascii	"\030\222\301\012B\200$HW(#\023\210f>\313\320\364\253"
 104      42802448 
 104      57282313 
 104      88663ECB 
 104      D0F4AB
 105 0056 F9FF65A6 		.ascii	"\371\377e\246D\306\205\214\254\014\332\014\253\032\200"
 105      44C6858C 
 105      AC0CDA0C 
 105      AB1A80
 106 0065 C0329311 		.ascii	"\3002\223\021\306\344\316dd\234\3150\253\261\241A \223"
 106      C6E4CE64 
 106      649CCD30 
 106      ABB1A141 
ARM GAS  /tmp/ccMOFhog.s 			page 8


 106      2093
 107 0077 91A99AE1 		.ascii	"\221\251\232\341WC\007\210\305\234\0136-\202\021\310"
 107      57430788 
 107      C59C0B36 
 107      2D8211C8 
 108 0087 04DB9B04 		.ascii	"\004\333\233\004\261\036HC\030\020\225\015\363\201\012"
 108      B11E4843 
 108      1810950D 
 108      F3810A
 109 0096 58A0466D 		.ascii	"X\240Fm\005\262\031\201\372`J\301\000l\377\342\036-"
 109      05B21981 
 109      FA604AC1 
 109      006CFFE2 
 109      1E2D
 110 00a8 EAD9CF44 		.ascii	"\352\331\317D\252\375;v<\272\201\341\177V\262\355\207"
 110      AAFD3B76 
 110      3CBA81E1 
 110      7F56B2ED 
 110      87
 111 00b9 F041326C 		.ascii	"\360A2l\377\3773\303\254x\374\201\212V\260 \254\000"
 111      FFFF33C3 
 111      AC78FC81 
 111      8A56B020 
 111      AC00
 112 00cb 312E3234 		.ascii	"1.24>\350W\206\030\017\003!\300x\000\306/(0D\364\364"
 112      3EE85786 
 112      180F0321 
 112      C07800C6 
 112      2F283044 
 113 00e1 F4F38BF5 		.ascii	"\364\363\213\365\213J\364\213\213\222\365\2233\312J"
 113      8B4AF48B 
 113      8B92F593 
 113      33CA4A
 114 00f0 F4921900 		.ascii	"\364\222\031\000\202\263\211D"
 114      82B38944 
 115              		.text
 116              		.section	.gnu.lto_chVTDoSetI.356fe6167eb47308,"",%progbits
 117 0000 789CAD56 		.ascii	"x\234\255V\177h\324e\030\177\237\367\275\333\367~oI"
 117      7F68D465 
 117      187F9FF7 
 117      BDDBF77E 
 117      6F49
 118 0012 B64DA79B 		.ascii	"\266M\247\233C66m\347\232\243$\372#\352\037\241\375"
 118      4336366D 
 118      E79AA324 
 118      FA23EA1F 
 118      A1FD
 119 0024 514D28FA 		.ascii	"QM(\372C\256\333\270\035\334m\262]\026\024\370=w\224"
 119      43AEDBB8 
 119      1DDC6DB2 
 119      5D1614F8 
 119      3D7794
 120 0037 E6C82133 		.ascii	"\346\310!3V9P\206\0053T\022\3344\245i\202.I\247%\356"
 120      56395086 
 120      05335412 
 120      DC34A569 
 120      822E49A7 
ARM GAS  /tmp/ccMOFhog.s 			page 9


 121 004d 2CE20CB4 		.ascii	",\342\014\264\004\221\231\222\313d\327\363\376\372\336"
 121      04919992 
 121      CB64D7F3 
 121      FEFADE
 122 005c 6E773A95 		.ascii	"nw:\225\276p\317{\337\347}\236\317\363\363}\336/%\224"
 122      BE70CF7B 
 122      DFE77D9E 
 122      CFF3F37D 
 122      DE2F2594 
 123 0070 CC7EF6E0 		.ascii	"\314~\366\340/\344%\244\037W($@{\317\020\022wP\312z"
 123      2FE425A4 
 123      1F572824 
 123      407BCF10 
 123      127750CA 
 124 0085 E613D365 		.ascii	"\346\023\323eK\254\"\246\207\201M\262m\324~\210!\273"
 124      4BAC22A6 
 124      87814DB2 
 124      6DD47E88 
 124      21BB
 125 0097 E0E20F04 		.ascii	"\340\342\017\004\371v\360I~\00156U#\337\301\251\307"
 125      F976F049 
 125      7E013536 
 125      5523DFC1 
 125      A9C7
 126 00a9 0097643B 		.ascii	"\000\227d;\250\363\347\247\220\355:\362,\262\235\232"
 126      A8F3E7A7 
 126      90ED3AF2 
 126      2CB29D9A 
 127 00b9 ED020FFF 		.ascii	"\355\002\017\377\003n\271\036sx\250\273\347$\002\272"
 127      036EB91E 
 127      7378A8BB 
 127      E72402BA 
 128 00c9 BC090305 		.ascii	"\274\011\003\005\275\032\326\007\300\377\020 \033(\263"
 128      BD1AD607 
 128      C0FF1020 
 128      1B28B3
 129 00d8 D90B0C87 		.ascii	"\331\013\014\207\323\345\366x}\260\341M\340\316\323"
 129      D3E5F678 
 129      7DB0E14D 
 129      E0CED3
 130 00e7 4AB2CB34 		.ascii	"J\262\3134\267\245v\377\225\242\237\231\243\211\235"
 130      B7A576FF 
 130      95A29F99 
 130      A3899D
 131 00f6 E6BD741A 		.ascii	"\346\275t\032 \014\030h1\220 \2207\360\005*\304Bm\331"
 131      200C1868 
 131      31902090 
 131      37F0052A 
 131      C4426DD9 
 132 010a 914BDDD1 		.ascii	"\221K\335\321\355'?)1w\306{\315iT\015\003\243\2444\243"
 132      ED273F29 
 132      3177C67B 
 132      CD69540D 
 132      03A3A434 
 133 011f 59243567 		.ascii	"Y$5g\245m\037\035M\245\323=\207n\377~\035\346=\007$"
 133      A56D1F1D 
 133      4DA5D33D 
ARM GAS  /tmp/ccMOFhog.s 			page 10


 133      876EFF7E 
 133      1DE63D07 
 134 0134 CAED0560 		.ascii	"\312\355\005`\027T\022\206\353 \256\006D\001\034H\250"
 134      17541286 
 134      EB20AE06 
 134      44011C48 
 134      A8
 135 0145 0B09F322 		.ascii	"\013\011\363\"!>\202\216\315Gb+\346\244\204\223R%\277"
 135      213E828E 
 135      CD47622B 
 135      E6A48493 
 135      5225BF
 136 0158 005FEC0B 		.ascii	"\000_\354\0139)\343d\021'\213\271@\271\022\250P\006"
 136      3929E364 
 136      11278BB9 
 136      40B912A8 
 136      5006
 137 016a 96706625 		.ascii	"\226pf%'K9\251R\333\325j\273F\255\265\334\326r\265\271"
 137      274B39A9 
 137      52DBD56A 
 137      BB46ADB5 
 137      DCD672B5 
 138 017f 824BD673 		.ascii	"\202K\326s\262\022IA#\022\206a\330I\3024{+\244\202\224"
 138      B2124941 
 138      23128661 
 138      D849C234 
 138      7B2BA482 
 139 0194 8C022629 		.ascii	"\214\002&)(r\333\214t\257A\326\000\305\205\375H6\236"
 139      2872DB8C 
 139      74AF41D6 
 139      00C585FD 
 139      48369E
 140 01a7 9EBA9582 		.ascii	"\236\272\225\202\000\354\006;YF\206L|\274a0\276 \237"
 140      00EC063B 
 140      5946864C 
 140      7CBC6130 
 140      BE209F
 141 01ba 63861C21 		.ascii	"c\206\034!0x\246d~\336Vk\010\034\204p\315\376\277\377"
 141      3078A664 
 141      7EDE566B 
 141      081C8470 
 141      CDFEBFFF 
 142 01ce CCD174E6 		.ascii	"\314\321t\346\327\004\245\351\342\232\307/\335;{f\233"
 142      D704A5E9 
 142      E29AC72F 
 142      DD3B7B66 
 142      9B
 143 01df 5339AA3D 		.ascii	"S9\252=\036\275\323\363\013c\326\333\321\255\003^\353"
 143      1EBDD3F3 
 143      0B63D6DB 
 143      D1AD035E 
 143      EB
 144 01f0 65CB8D9B 		.ascii	"e\313\215\233\326N\205\254\260\271\3374\355\2423\230"
 144      D64E85AC 
 144      B0B9DF34 
 144      EDA23398 
 145 0200 286F2FCC 		.ascii	"(o/\314U_B\244\263\204\347\202\013S\3741\351\327J\036"
ARM GAS  /tmp/ccMOFhog.s 			page 11


 145      555F42A4 
 145      B384E782 
 145      0B53FC31 
 145      E9D74A1E 
 146 0214 41229E4A 		.ascii	"A\"\236J\337\356[\035\006\027\006\201\255S\024\0067"
 146      DFEE5B1D 
 146      06170681 
 146      AD531406 
 146      37
 147 0225 07F2F0D8 		.ascii	"\007\362\360\330l\002\323\243\342\241\034l\217\004\303"
 147      6C02D3A3 
 147      E2A11C6C 
 147      8F04C3
 148 0234 54DCE8F6 		.ascii	"T\334\350\366\005`\010_C\320\210`\204\214\221\215\223"
 148      0560085F 
 148      43D08860 
 148      848C918D 
 148      93
 149 0245 C7BFFD20 		.ascii	"\307\277\375 \000{\221\031\200}X\004\376\234\"\211\253"
 149      007B9119 
 149      807D5804 
 149      FE9C2289 
 149      AB
 150 0256 C7CE7DE4 		.ascii	"\307\316}\344\221\374\020x9&\203\031.\256A\217\246\201"
 150      91FC1078 
 150      39268319 
 150      2EAE418F 
 150      A681
 151 0268 A17EEADA 		.ascii	"\241~\352\332\240!\345\2422,\033\265dl\274x(\203\205"
 151      A021E5A2 
 151      322C1BB5 
 151      646CBC78 
 151      288385
 152 027b C0CD104F 		.ascii	"\300\315\020O/zqi\344\337S\206\206\366-#\265\230\177"
 152      2F7A7169 
 152      E4DF5386 
 152      86F62D23 
 152      B5987F
 153 028e 55990BA8 		.ascii	"U\231\013\250\357\345Q\231<*\337\373\344\256\271\211"
 153      EFE55199 
 153      3C2ADFFB 
 153      E4AEB989 
 154 029e FF2B8C8A 		.ascii	"\377+\214\212\0308|\241\012\215\251U\237\253S\344\304"
 154      18387CA1 
 154      0A8DA955 
 154      9FAB53E4 
 154      C4
 155 02af 1FF17A0B 		.ascii	"\037\361z\013V\252\232\015a(R\330\253\020\032a\264\346"
 155      56AA9A0D 
 155      612852D8 
 155      AB101A61 
 155      B4E6
 156 02c1 8C274900 		.ascii	"\214'I\000c\244\240\274g;\216\306\270\367vR\313;old"
 156      63A4A0BC 
 156      673B8EC6 
 156      B8F77652 
 156      CB3B6F6C 
ARM GAS  /tmp/ccMOFhog.s 			page 12


 157 02d6 7A9C495C 		.ascii	"z\234I\\\205\364*&C\375mxd\177\355\252\305\032esNLO"
 157      85F42A26 
 157      43FD6D78 
 157      647FEDAA 
 157      C51A6573 
 158 02ed D2D9E0E4 		.ascii	"\322\331\340\344\261\301m\012\334\220\340S\377+xA\026"
 158      B1C16D0A 
 158      DC90E053 
 158      FF2B7841 
 158      16
 159 02fe F8DDEE5B 		.ascii	"\370\335\356[[k\262\300\033\021<\377\2612\304\252J2"
 159      5B6BB2C0 
 159      1B113CFF 
 159      B132C4AA 
 159      4A32
 160 0310 00999A1C 		.ascii	"\000\231\232\034\200<E\021\340w\036\032\334\361\250"
 160      803C4511 
 160      E0771E1A 
 160      DCF1A8
 161 031f E0A727D2 		.ascii	"\340\247'\322\343t68\313\017\356T1\213\316\355\336\324"
 161      E3743638 
 161      CB0FEE54 
 161      318BCEED 
 161      DED4
 162 0331 FD55DF0B 		.ascii	"\375U\337\013\272\305\346#W\224q\214(45\323\323\037"
 162      BAC5E623 
 162      5794718C 
 162      283435D3 
 162      D31F
 163 0343 7E0FE6C7 		.ascii	"~\017\346\307f|2\235.\024g\276o\3163\217h\204\234%\211"
 163      667C329D 
 163      2E1467BE 
 163      6FCE338F 
 163      68849C25 
 164 0358 C981C1AB 		.ascii	"\311\201\301\253S0{\342\234>q\036\317\313Yq8\245\245"
 164      53307BE2 
 164      9C3E711E 
 164      CFCB5971 
 164      38A5A5
 165 036b A06E7BAB 		.ascii	"\240n{\253nO\004\301\036\200\363\262\275\020.\014\363"
 165      6E4F04C1 
 165      1E80F3B2 
 165      BD102E0C 
 165      F3
 166 037c F4292C20 		.ascii	"\364), \011q\012S[\257\200>\351|\350\342)\221\347q\352"
 166      09710A53 
 166      5BAF803E 
 166      E97CE8E2 
 166      2991E771 
 167 0391 CBCB4C47 		.ascii	"\313\313LGU,\316\243n\357\267\036\263\275E\2666w\267"
 167      552CCEA3 
 167      6EEFB71E 
 167      B3BD45B6 
 167      3677B7
 168 03a4 6BD41231 		.ascii	"k\324\0221p\212e\022-[\245b\003fdP\336\003\270\243\306"
 168      708A6512 
 168      2D5BA562 
ARM GAS  /tmp/ccMOFhog.s 			page 13


 168      03666450 
 168      DE03B8A3 
 169 03b9 D59DBE72 		.ascii	"\325\235\276r-\274 \303=\010\232\271P\237\243\033\026"
 169      2DBC20C3 
 169      3D089AB9 
 169      509FA31B 
 169      16
 170 03ca 6899B6B3 		.ascii	"h\231\266\263\331b-\022\202ebF\\\311\314\010D\\\224"
 170      D9622D12 
 170      82656246 
 170      5CC9CC08 
 170      445C94
 171 03dd 29C11AEC 		.ascii	")\301\032\354\322\343\214\211\37144F\265\320b\231\017"
 171      D2E38C89 
 171      F9343446 
 171      B5D06299 
 171      0F
 172 03ee AB3B7CB9 		.ascii	"\253;|\271\335\241\202]\257U\312Ed\213\363\204U.\363"
 172      DDA1825D 
 172      AF55CA45 
 172      648BF384 
 172      552EF3
 173 0401 3D313466 		.ascii	"=14fEP\221\231N$\277\021C\031\301\012\216\226f\327\257"
 173      45509199 
 173      4E24BF11 
 173      4319C10A 
 173      8E9666D7 
 174 0416 42BBEED0 		.ascii	"B\273\356\320\256\367\357\371\307r}\311\303\270\216"
 174      AEF7EFF9 
 174      C7727DC9 
 174      C3B88E
 175 0425 29B91A7F 		.ascii	")\271\032\177\336R\021I\316\244\304I\272\201\211\306"
 175      DE521149 
 175      CEA4C449 
 175      BA8189C6 
 176 0435 FF6EBB25 		.ascii	"\377n\273%T\211\031\026rs4~\000\306\305\335\365\340"
 176      54891916 
 176      7273347E 
 176      00C6C5DD 
 176      F5E0
 177 0447 C6AF148D 		.ascii	"\306\257\024\215?>0h\344\264\375\305o\260\355\177\313"
 177      3F3E3068 
 177      E4B4FDC5 
 177      6FB0ED7F 
 177      CB
 178 0458 6AFB82DC 		.ascii	"j\373\202\334\266G\231\224n\373\312\031m\357\342m\317"
 178      B6479994 
 178      6EFBCA19 
 178      6DEFE26D 
 178      CF
 179 0469 877B0D86 		.ascii	"\207{\015\206\356\270w\016\033\303\347\344I3\276\276"
 179      EEB8770E 
 179      1BC3E7E4 
 179      4933BEBE 
 180 0479 D09224CB 		.ascii	"\320\222$\3131\004\307\221\237\"\270pn\271\261\343\202"
 180      3104C791 
 180      9F22B870 
ARM GAS  /tmp/ccMOFhog.s 			page 14


 180      6EB9B1E3 
 180      82
 181 048a 98FA6E82 		.ascii	"\230\372n\202\037\203LTt\370\323\205\362*\016AU\010"
 181      1F834C54 
 181      74F8D385 
 181      F22A0E41 
 181      5508
 182 049c 580896AA 		.ascii	"X\010\226\252\230w\317\250i\225\252\351\201UZ\266:\337"
 182      9877CFA8 
 182      6995AAE9 
 182      81555AB6 
 182      3ADF
 183 04ae C8A2F72B 		.ascii	"\310\242\367+\251\241\341dI\253\265\373\036\202\037"
 183      A9A1E164 
 183      49ABB5FB 
 183      1E821F
 184 04bd 9F202F4F 		.ascii	"\237 /Om\213\011\025\301\220\322T\032\357?\220\004m"
 184      6D8B0915 
 184      C190D254 
 184      1AEF3F90 
 184      046D
 185 04cf 7DE9ACAA 		.ascii	"}\351\254\252\323\373T\375J\274\301R\011e&d\222\320"
 185      D3FB54FD 
 185      4ABCC152 
 185      09652664 
 185      92D0
 186 04e1 10D4B870 		.ascii	"\020\324\270p\262U\273\257'\313\222\004\303^\316_\253"
 186      B255BBAF 
 186      27CB9204 
 186      C35ECE5F 
 186      AB
 187 04f2 DCBF2623 		.ascii	"\334\277&#\3341/\317+\277\027'\016^\313\371\256z\340"
 187      DC312FCF 
 187      2BBF1727 
 187      0E5ECBF9 
 187      AE7AE0
 188 0505 0560F93B 		.ascii	"\005`\371;u\360\030\323\306k\345\007@~\177\035\326\001"
 188      75F018D3 
 188      C66BE507 
 188      407E7F1D 
 188      D601
 189 0517 DB38B6DF 		.ascii	"\3338\266\337xHc\016e\254V}\376\015'i\226f\326Q\253"
 189      7848630E 
 189      65AC567D 
 189      FE0D2769 
 189      9666D651 
 190 052c CDE7A6BA 		.ascii	"\315\347\246\272>G\206\223\331\001:\347pTk\216M\014"
 190      3E478693 
 190      D9013AE7 
 190      70546B8E 
 190      4D0C
 191 053e DFCC49CD 		.ascii	"\337\314I\315\0347\014S}t\370\262U\312\025R\271h\316"
 191      1C370C53 
 191      7D74F8B2 
 191      55CA1552 
 191      B968CE
 192 0551 72AA6927 		.ascii	"r\252i'\265\352QQ\303\255\236\351\304\\8\250*\224F\246"
ARM GAS  /tmp/ccMOFhog.s 			page 15


 192      B5EA5151 
 192      C3AD9EE9 
 192      C45C38A8 
 192      2A9446A6 
 193 0565 0EE7664C 		.ascii	"\016\347fL\337\010\356G\276\021\\b\025\337V\370\021"
 193      DF08EE47 
 193      BE115C62 
 193      15DF56F8 
 193      11
 194 0576 6C8D161F 		.ascii	"l\215\026\037\3776<G\342\251-\372V\322O3^\011{\015>"
 194      FF363C47 
 194      E2A92DFA 
 194      56D24F33 
 194      5E097B0D 
 195 058b 289EACAB 		.ascii	"(\236\254\253\363wt\371;c\376\256\316\240?\330\266>"
 195      F37774F9 
 195      3B63FEAE 
 195      CEA03FD8 
 195      B63E
 196 059d 561724B0 		.ascii	"V\027$\260\316\336\322\032\211\005\236\226\233m\201"
 196      CEDED21A 
 196      89059E96 
 196      9B6D81
 197 05ac 887F5D47 		.ascii	"\210\177]Gg\254\313\377zsS\3033\376W^y\331\337\274\272"
 197      67ACCBFF 
 197      7A7353C3 
 197      33FE575E 
 197      79D9DFBC 
 198 05c1 697D3DDF 		.ascii	"i}=\337Y\333\025[\033\211\264\324\265\221\032)\035\354"
 198      59DB155B 
 198      1B89B4D4 
 198      B5911A29 
 198      1DEC
 199 05d3 88463BDA 		.ascii	"\210F;\332\225\302\213\2575\275\324\364\036\342\006"
 199      95C28BAF 
 199      35BDD4F4 
 199      1EE206
 200 05e2 3B3A5BD7 		.ascii	";:[\327\306\302\321\326N\224,\261\214\206\333\203\221"
 200      C6C2D1D6 
 200      4E942CB1 
 200      8C86DB83 
 200      91
 201 05f3 775A5AA5 		.ascii	"wZZ\245\3416\302\332;\336\265q\251\377\000\266DA\313"
 201      E136C2DA 
 201      3BDEB571 
 201      A9FF00B6 
 201      4441CB
 202              		.text
 203              		.section	.gnu.lto_chVTDoResetI.356fe6167eb47308,"",%progbits
 204 0000 789CAD93 		.ascii	"x\234\255\223=h\024A\024\307\337{\263\263{\271=5\240"
 204      3D681441 
 204      14C7DF7B 
 204      B3B37BB9 
 204      3D35A0
 205 0013 A065106C 		.ascii	"\240e\020l\014\334!6ZHj\3012\007\332\031W\211\013\236"
 205      0CDC2136 
 205      5A486AC1 
ARM GAS  /tmp/ccMOFhog.s 			page 16


 205      3207DA19 
 205      57890B9E 
 206 0027 81E4D0C2 		.ascii	"\201\344\320\302\"s\346\212TrX\005mL'\"ja\021\273;+"
 206      2273E68A 
 206      54725805 
 206      6D4C2722 
 206      6A6111BB 
 207 003d 831AB510 		.ascii	"\203\032\265\020\202\004\024[5\326\006q}of\347\366\222"
 207      8204145B 
 207      35D60671 
 207      7D6F66E7 
 207      F692
 208 004f 1CA671E0 		.ascii	"\034\246q\340\336\233\331\333\337\377}\315\022\020\354"
 208      DE9BD9DB 
 208      DFFF7DCD 
 208      1210EC
 209 005e 5CE7F8F7 		.ascii	"\\\347\370\367C\001\034c\217\021 u\326\000Z%\"\365\374"
 209      43011C63 
 209      8F112075 
 209      D6005A25 
 209      22F5FC
 210 0071 258029EB 		.ascii	"%\200)\353\215\030LEQ\340\216\241=\006\030\272\327\264"
 210      8D184C45 
 210      51E08EA1 
 210      3D0618BA 
 210      D7B4
 211 0083 DB608828 		.ascii	"\333`\210(\036\020\346I\005:\304\371\013h\345\237R\367"
 211      1E10E649 
 211      053AC4F9 
 211      0B68E59F 
 211      52F7
 212 0095 4B963DF9 		.ascii	"K\226=\371\375\372\361\033\\\245\203\004)\202\302\006"
 212      FDFAF11B 
 212      5CA58304 
 212      2982C206 
 213 00a5 42203B2D 		.ascii	"B ;-&\022Sf\203\261\230\212\030&5\264\215\351\2145\020"
 213      26125366 
 213      83B1988A 
 213      182635B4 
 213      8DE98C35 
 214 00ba 8FC2B231 		.ascii	"\217\302\2621w\273\037\327\356\0341\017Z\035\363'\313"
 214      77BB1FD7 
 214      EE1C310F 
 214      5A1DF327 
 214      CB
 215 00cb 30452238 		.ascii	"0E\"8\214\220 \234\347\203\032\265.\330Q\237#\315\347"
 215      8C90209C 
 215      E7831AB5 
 215      2ED8519F 
 215      23CDE7
 216 00de 8B0F4DBB 		.ascii	"\213\017M\273\233e\023\226\032\333\213\002\371\237\327"
 216      9B651396 
 216      1ADB8B02 
 216      F99FD7
 217 00ed 245BA9AA 		.ascii	"$[\251\252\216$^\275\205\333\237\326\277\365h\012\227"
 217      8E245EBD 
 217      85DB9FD6 
ARM GAS  /tmp/ccMOFhog.s 			page 17


 217      BFF5680A 
 217      97
 218 00fe 51C334D2 		.ascii	"Q\3034\3228\034\347\324\307\341\221\341u2E}\037\356"
 218      381CE7D4 
 218      C7E191E1 
 218      7532457D 
 218      1FEE
 219 0110 B58C194D 		.ascii	"\265\214\031M1\274\005[fQvQ\003E^\342DV\373\222k\014"
 219      31BC055B 
 219      66517651 
 219      03455EE2 
 219      4456FB92 
 220 0126 FB7C03AF 		.ascii	"\373|\003\257\240\375\275\265\257\257:\215\252\310\244"
 220      A0FDBDB5 
 220      AFAF3A8D 
 220      AAC8A4
 221 0135 CE07EEBC 		.ascii	"\316\007\356\274\215\275\264\331C\377V\340bs@\026.1"
 221      8DBDB4D9 
 221      43FF56E0 
 221      62734016 
 221      2E31
 222 0147 2201BCB0 		.ascii	"\"\001\274\260\257G\240\367\373=\242\377\205\250\002"
 222      AF47A0F7 
 222      FB3DA2FF 
 222      85A802
 223 0156 597D163B 		.ascii	"Y}\026;$/\354\314 \024\354\206X\331\205Z\031\310/\372"
 223      242FECCC 
 223      2014EC86 
 223      58D9855A 
 223      19C82FFA 
 224 016a 1FC1A2DD 		.ascii	"\037\301\242\335Eq\006\226[Y\337\374\205\333\310\023"
 224      45710696 
 224      5B59DFFC 
 224      85DBC813 
 225 017a 298E0C0F 		.ascii	")\216\014\017\027X/OF|\273{[\375\266DnT2\277r.u\232"
 225      17582F4F 
 225      467CBB7B 
 225      5BFDB644 
 225      6E5432BF 
 226 0192 47C963F3 		.ascii	"G\311c\363\223\332\266\352,\367\342\224\273\013?{\312"
 226      93DAB6EA 
 226      2CF7E294 
 226      BB0B3F7B 
 226      CA
 227 01a3 ABE4280F 		.ascii	"\253\344(\017\234\206\247\257\007gr\300c\261m\023\015"
 227      9C86A7AF 
 227      076772C0 
 227      63B16D13 
 227      0D
 228 01b4 CFBB4016 		.ascii	"\317\273@\026\026\027\276\366[[\341hLZ\251\263\203-"
 228      1617BEF6 
 228      5B5BE168 
 228      4C5AA9B3 
 228      832D
 229 01c6 D82B38A3 		.ascii	"\330+8\243\276\006\015\033\261z\007\355\222\343\001"
 229      BE060D1B 
 229      B17A07ED 
ARM GAS  /tmp/ccMOFhog.s 			page 18


 229      92E301
 230 01d5 FAF7354E 		.ascii	"\372\3675N\362{\311\311\244\005\020\332/\340\003\177"
 230      F27BC9C9 
 230      A40510DA 
 230      2FE0037F 
 231 01e5 F2452B26 		.ascii	"\362E+&\371M~*\2039T\255\326f\346j\263\315\332\334l"
 231      F94D7E2A 
 231      833954AD 
 231      D666E66A 
 231      B3CDDADC 
 232 01fa 524BAEDE 		.ascii	"RK\256\336hV\023(]\237\271y\371\312\265\346\224\266"
 232      68561328 
 232      5D9FB979 
 232      F9CAB5E6 
 232      94B6
 233 020c F62FAFE3 		.ascii	"\366/\257\343\341\302"
 233      E1C2
 234              		.text
 235              		.section	.gnu.lto_.symbol_nodes.356fe6167eb47308,"",%progbits
 236 0000 789C4DC8 		.ascii	"x\234M\310\275\015\302P\030CQ\333_\336c\006\226`EG\242"
 236      BD0DC250 
 236      184351DB 
 236      5FDE6306 
 236      96604547 
 237 0015 20A2A2A1 		.ascii	" \242\242\241$EX\203\037A\220R\221&E\346`\003\220\210"
 237      24455883 
 237      1F419052 
 237      912645E6 
 237      60039088 
 238 0029 08AEEEB1 		.ascii	"\010\256\356\261 \3541M\035\015\354z\300>TLW~\012:\321"
 238      20EC314D 
 238      1D0DEC7A 
 238      C03E544C 
 238      577E0A3A 
 239 003e 9CDEBAA2 		.ascii	"\234\336\272\242\316\264\376x\241c&\037t\361eY\222w"
 239      CEB4FE78 
 239      A163261F 
 239      74F16559 
 239      9277
 240 0050 3ACDBAD1 		.ascii	":\315\272\321\371\247@\306\272\357\226\201\204\343K"
 240      F9A740C6 
 240      BAEF9681 
 240      84E34B
 241 005f 110BB4DB 		.ascii	"\021\013\264\333UDF;<\025\005\320lF\341\015\024S+B"
 241      5544463B 
 241      3C1505D0 
 241      6C46E10D 
 241      14532B42 
 242              		.text
 243              		.section	.gnu.lto_.refs.356fe6167eb47308,"",%progbits
 244 0000 789C6362 		.ascii	"x\234cb`b0f\200\000\026\006FF& d`dc\002\261 \230\221"
 244      60623066 
 244      80001606 
 244      46462620 
 244      64606463 
 245 0019 91939901 		.ascii	"\221\223\231\001\312\202\311\003i\026\220\030\003\000"
 245      CA82C903 
ARM GAS  /tmp/ccMOFhog.s 			page 19


 245      69169018 
 245      0300
 246 0027 152A0084 		.ascii	"\025*\000\204"
 247              		.text
 248              		.section	.gnu.lto_.decls.356fe6167eb47308,"",%progbits
 249 0000 789CBD5B 		.ascii	"x\234\275[{t\024E\272\357\352\236\311LHx,\250\207U\367"
 249      7B741445 
 249      BAEFEA9E 
 249      C94C4878 
 249      2CA88755 
 250 0015 12EF7577 		.ascii	"\022\357uwu\357.\001t]\374\343\012\336\340Q\317Y\366"
 250      75EF2E01 
 250      745DFCE3 
 250      0ADEE051 
 250      CF59F6
 251 0028 7A02BB87 		.ascii	"z\002\273\207s<{\306f\322&\271\233\307\354L'\300_6\011"
 251      733C7BC6 
 251      66D226B9 
 251      9BC7EC4C 
 251      27C05F36 
 252 003d 04915502 		.ascii	"\004\221U\002\341\021\010\304\200\200 (\006\005\014"
 252      E11108C4 
 252      80802028 
 252      06050C
 253 004c F298A864 		.ascii	"\362\230\250d\223\220\015\201@\242\311\022g\203p!(F"
 253      93900D81 
 253      40A2C912 
 253      67837021 
 253      2846
 254 005e BC3C5496 		.ascii	"\274<T\226\334\252\257\272g\252{\272g\272\203\336>\247"
 254      DCAAAFBA 
 254      67AA7BBA 
 254      67BA83DE 
 254      3EA7
 255 0070 2A35DD55 		.ascii	"*5\335U\277\357Y\365}U\335\3419\236{\227\347\270!|U"
 255      BFEF59F5 
 255      7D55DDE1 
 255      399E7B97 
 255      E7B8217C 
 256 0085 4CE3B8ED 		.ascii	"L\343\270\355)\034\347\3468\3561\\\004\\6\341\262\031"
 256      291CE7E6 
 256      38EE315C 
 256      045C36E1 
 256      B219
 257 0097 977DB820 		.ascii	"\227}\270 \\\332q\361\340\262\005\377\330\211\313n\\"
 257      5CDA71F1 
 257      E0B205FF 
 257      D889CB6E 
 257      5C
 258 00a8 0EE1F221 		.ascii	"\016\341\362!.GqiA\264\3371R1\027\351?N\305\031\205"
 258      2E477169 
 258      41B4DF31 
 258      523117E9 
 258      3F4EC519 
 259 00bd 4B3A2E6F 		.ascii	"K:.o\2504\010\336N\225N\033\356\327\201(\335F\\N\340"
 259      A83408DE 
 259      4E954E1B 
ARM GAS  /tmp/ccMOFhog.s 			page 20


 259      EED78128 
 259      DD465C4E 
 260 00d2 F62E5C4E 		.ascii	"\366.\\N\342\322\211K\012\346\325\203K\023n{\361\363"
 260      E2D2894B 
 260      0AE6D583 
 260      4B136E7B 
 260      F1F3
 261 00e4 7A95A71D 		.ascii	"z\225\247\035\270\274\203K\030\227\275\270\014\340\347"
 261      B8BC834B 
 261      1897BDB8 
 261      0CE0E7
 262 00f3 6D1CED43 		.ascii	"m\034\355Ch{y\312c\032\376;\032\227\261\270\334\311"
 262      687B79CA 
 262      631AFE3B 
 262      1A97B1B8 
 262      DCC9
 263 0105 539E090F 		.ascii	"S\236\011\017w\343\366v\024\3177\221\321\243\362j\344"
 263      77E3F676 
 263      14CF3791 
 263      D1A3F26A 
 263      E4
 264 0116 6F9FCABF 		.ascii	"o\237\312\277\233\341\241\225\310\316Q\332H\035o\246"
 264      9BE1A195 
 264      C8CE51DA 
 264      481D6FA6 
 265 0126 8FDDAA3E 		.ascii	"\217\335\252>\336`\364\241\341\271T\235LS\365B\364\300"
 265      DE60F4A1 
 265      E1B9549D 
 265      4C53F542 
 265      F4C0
 266 0138 CA6FE443 		.ascii	"\312o\344C\323G\032n7\253: \362k<\265\251|\325\253:"
 266      D3471A6E 
 266      37AB3A20 
 266      F26B3CB5 
 266      A97CD5AB 
 267 014d DAABF2E8 		.ascii	"\332\253\362\350U\371`u\222\301S\033j\272\301\356\300"
 267      55F96075 
 267      92C1531B 
 267      6ABAC1EE 
 267      C0
 268 015e EDC77FF7 		.ascii	"\355\307\177\367\341\362>.\015\270\334\317\307\313C"
 268      E1F23E2E 
 268      0DB8DCCF 
 268      C7CB43
 269 016d 7C602463 		.ascii	"|`$cS\326\316,\277\232<\204\357\0071\316V\225\006k\303"
 269      53D6CE2C 
 269      BF9A3C84 
 269      EF0731CE 
 269      5695066B 
 270 0182 7AC68EBC 		.ascii	"z\306\216\274\212\275E\265S#\242\2662\322O\343^R\224"
 270      8ABD45B5 
 270      5323A2B6 
 270      32D24FE3 
 270      5E5294
 271 0195 32A5AE42 		.ascii	"2\245\256By\252y\324Xn\205\202\257\214f\314\301\034"
 271      79AA79D4 
 271      586E8582 
ARM GAS  /tmp/ccMOFhog.s 			page 21


 271      AF8C66CC 
 271      C11C
 272 01a7 24A251A9 		.ascii	"$\242Q\251\334s\320HO\005\206~\312mQ\224\312\310\321"
 272      DC73D048 
 272      4F05867E 
 272      CA6D5194 
 272      CAC8D1
 273 01ba AFC36E45 		.ascii	"\257\303nE\361\212h3\032\213\011\335\207\270_p;\360"
 273      F18A6833 
 273      1A8B09DD 
 273      87B85F70 
 273      3BF0
 274 01cc B84A45E9 		.ascii	"\270JE\351\277\207\213\277\222\301\362\334c\210\023"
 274      BF878BBF 
 274      92C1F2DC 
 274      638813
 275 01db D1368C26 		.ascii	"\3216\214&\242\255\350\027\224\216\022\351m\352Z\214"
 275      A2ADE817 
 275      948E12E9 
 275      6DEA5A8C 
 276 01eb 162A0AA2 		.ascii	"\026*\012\242\3178\365\251\311u\037W\207\245\010\237"
 276      CF38F5A9 
 276      C9751F57 
 276      87A5089F 
 277 01fb 59B3F1C7 		.ascii	"Y\263\361\307J\335\007(\231PuH#\177GL\252\255W\232]"
 277      4ADD0728 
 277      99507548 
 277      237F474C 
 277      AAAD579A 
 278 0210 20D54E90 		.ascii	" \325N\220*\200t\344\222\242\360\234\202\310\220\267"
 278      2A8074E4 
 278      92A2F09C 
 278      82C890B7 
 279 0220 E2A568D2 		.ascii	"\342\245h\322\244x\313\226\024\033U)D\364\006\226\204"
 279      A478CB96 
 279      141B5529 
 279      44F40696 
 279      84
 280 0231 E7564471 		.ascii	"\347VDqU\302\031\032]\342\360j\223^j\007=^mWz\245\250"
 280      55C2191A 
 280      5DE2F06A 
 280      935E6A07 
 280      3D5E6D57 
 281 0248 81AD710C 		.ascii	"\201\255q\014\226\241\003\253\357\3320^\251kD\251\334"
 281      96A103AB 
 281      EFDA305E 
 281      A96B44A9 
 281      DC
 282 0259 8B44C54A 		.ascii	"\213D\305J\205\362\300\366\230J\306h\010<\243\327\232"
 282      85F2C0F6 
 282      984AC668 
 282      083CA3D7 
 282      9A
 283 026a 3B159788 		.ascii	";\025\227\210\366!r\267\006\351\325j\037\246f\331\376"
 283      F62172B7 
 283      06E9D56A 
 283      1FA666D9 
ARM GAS  /tmp/ccMOFhog.s 			page 22


 283      FE
 284 027b 5F82791A 		.ascii	"_\202y\032\000\350\303a\0035\274\362\372\243\000t\020"
 284      00E8C361 
 284      0335BCF2 
 284      FAA30074 
 284      10
 285 028c 80BE3500 		.ascii	"\200\2765\000\211H\210*0\372[\353@\320\340\261\332\030"
 285      8948882A 
 285      30FA5BEB 
 285      40D0E0B1 
 285      DA18
 286 029e 1A12B81F 		.ascii	"\032\022\270\037\2603\317-\346\015\346\322I\2446\275"
 286      B033CF2D 
 286      E60DE6D2 
 286      49A436BD 
 287 02ae 96B68FF4 		.ascii	"\226\266\217\3644\265\271\327)\341E\202nJ\334\305\255"
 287      34B5B9D7 
 287      29E14582 
 287      6E4ADCC5 
 287      AD
 288 02bf 26CE8C7F 		.ascii	"&\316\214\177(H\026\321cw\232:\003\341\360\003t\027"
 288      284816D1 
 288      63779A3A 
 288      03E1F003 
 288      7417
 289 02d1 B404A087 		.ascii	"\264\004\240\207oLK\303\325\357c\202\230\015T\025\275"
 289      6F4C4BC3 
 289      D5EF6382 
 289      980D5415 
 289      BD
 290 02e2 F8CB300F 		.ascii	"\370\3130\017\212n\004\317[\306\353\025\255\343\210"
 290      8A6E04CF 
 290      5BC6EB15 
 290      ADE388
 291 02f1 52B2E2A2 		.ascii	"R\262\342\242\011\245Y\314\232\270g<\267\312\25023\017"
 291      09A559CC 
 291      9AB8673C 
 291      B7CAA832 
 291      330F
 292 0303 F7EA9967 		.ascii	"\367\352\231gU\326\333\364\267\255\250\252\\i\236\004"
 292      55D6DBF4 
 292      B7ADA8AA 
 292      5C699E04 
 293 0313 D2F2DC3A 		.ascii	"\322\362\334:;\200cLl`v\261\013\204\210\336F?\305u="
 293      3B80634C 
 293      6C6076B1 
 293      0B8488DE 
 293      463FC575 
 294 0328 BA0FD7EF 		.ascii	"\272\017\327\357@\275\027\3520\324\315\270N\250h\002"
 294      40BD17EA 
 294      30D4CDB8 
 294      4EA86802 
 295 0338 47A67514 		.ascii	"G\246u\024{\017\342\325\205txK\305`l\251\020\321\273"
 295      7B0FE2D5 
 295      8574784B 
 295      C5606CA9 
 295      10D1BB
ARM GAS  /tmp/ccMOFhog.s 			page 23


 296 034b 8EC1748A 		.ascii	"\216\301t\212\014_U\227\012:\367Et\304\210\347\314\227"
 296      0C5F5597 
 296      0A3AF745 
 296      74C488E7 
 296      CC97
 297 035d C3ABD6A6 		.ascii	"\303\253\326\246w<\247-$\033y\344\020lL\"\243lc\214"
 297      773CA72D 
 297      241B79E4 
 297      106C4C22 
 297      A36C638C 
 298 0371 B21D8CB2 		.ascii	"\262\035\214\262\003L\320\012\3651\250\333\354\230c"
 298      034CD00A 
 298      F531A8DB 
 298      EC9863
 299 0380 53CC1CC0 		.ascii	"S\314\034\300\266\022\256~\226\250\224\206\312m\230"
 299      B612AE7E 
 299      96A89486 
 299      CA6D98
 300 038f 6B9348A2 		.ascii	"k\223H\242x4\230\000G\\\370M\020\256\303\020I\302\337"
 300      78349800 
 300      475CF84D 
 300      10AEC310 
 300      49C2DF
 301 03a2 AC4F272B 		.ascii	"\254O'+i\207\215(\242\204W\364n@$\212\230\220\213D\003"
 301      69878D28 
 301      A28457F4 
 301      6E40248A 
 301      98908B44 
 302 03b7 D7BD5C74 		.ascii	"\327\275\\t\266\236\2734(\300l=\005\234\356\347\223"
 302      B69EBB34 
 302      28C06C3D 
 302      059CEEE7 
 302      93
 303 03c8 C63F3D0C 		.ascii	"\306?=\014\317}\004C\272\343\342_\305\027Z\374\353\266"
 303      CF7D0443 
 303      BAE3E25F 
 303      C5175AFC 
 303      EBB6
 304 03da C5F9FE6E 		.ascii	"\305\371\376nK\316\247\263\226\325\226\231\0015n\367"
 304      4BCEA7B3 
 304      96D59699 
 304      01356EF7 
 305 03ea 02E327CD 		.ascii	"\002\343'\315\031\257\233n\005\303s\3750\244/>p\037"
 305      19AF9B6E 
 305      05C373FD 
 305      30A42F3E 
 305      701F
 306 03fc 2F5319EF 		.ascii	"/S\031\357\263\025\270O\274d3\375pi\364g\304\304\370"
 306      B315B84F 
 306      BC6433FD 
 306      7069F467 
 306      C4C4F8
 307 040f 6C022FA2 		.ascii	"l\002/\242\263 \302\327\311u\257\207\340\271\2330\344"
 307      B320C2D7 
 307      C975AF87 
 307      E0B99B30 
 307      E4
ARM GAS  /tmp/ccMOFhog.s 			page 24


 308 0420 7CBCEECF 		.ascii	"|\274\356\317h\"\234\267\245\373\353\255T\367\2326+"
 308      68229CB7 
 308      A5FBEBAD 
 308      54F79A36 
 308      2B
 309 0431 040DD74C 		.ascii	"\004\015\327Lu\311\027\224\033\255xAQc3\325G\302\220"
 309      75C91794 
 309      1BAD7841 
 309      516333D5 
 309      47C290
 310 0444 D1B0FEA3 		.ascii	"\321\260\376\243\023\250\034\370\375\034\246\371\021"
 310      13A81CF8 
 310      FD1CA6F9 
 310      11
 311 0451 C134CCDB 		.ascii	"\3014\314\333\200\252Yv\264\021\225\001\324\227\000"
 311      80AA5976 
 311      B4119501 
 311      D49700
 312 0460 F5D76143 		.ascii	"\365\327aC5\274r\220f\014W\000\250C0f\014\036C\306\340"
 312      35BC7290 
 312      660C5700 
 312      A8433066 
 312      0C1E43C6 
 313 0475 D1C7754F 		.ascii	"\321\307uOj\254A\366\213\243\271\037\270;\317\365\032"
 313      6AAC41F6 
 313      8BA3B91F 
 313      B83BCFF5 
 313      1A
 314 0486 ED963408 		.ascii	"\355\2264\010\352\374\000\347\015}<\344\015\332\364"
 314      EAFC00E7 
 314      0D7D3CE4 
 314      0DDAF4
 315 0495 49B1D211 		.ascii	"I\261\322\021\317E\200\326u\243\357\275\377i\233\346"
 315      CF4580D6 
 315      75A3EFBD 
 315      FF699BE6 
 316 04a5 7BD76D4D 		.ascii	"{\327mM\237\275\255k\355M\037^\243\177?\320_\341\"\364"
 316      9FBDAD6B 
 316      ED4D1F5E 
 316      A37F3FD0 
 316      5FE122F4 
 317 04b9 6F1AE97F 		.ascii	"o\032\351\177\327\337\374l\265\242\214\241\217\222\223"
 317      D7DFFC6C 
 317      B5A28CA1 
 317      8F9293
 318 04c8 6FE85E15 		.ascii	"o\350^\025O\33629R]\343\375O\317\177\245\012\251\360"
 318      4FDE3239 
 318      525DE3FD 
 318      4FCF7FA5 
 318      0AA9F0
 319 04db 245938EA 		.ascii	"$Y8\3522:\307\2644\226\230\232A1\371J{\224\375a\305"
 319      323AC7B4 
 319      3496989A 
 319      4131F94A 
 319      7B94FD61 
 320 04f0 6C2CE785 		.ascii	"l,\347\205?\356\330\243(KS4\036N8F\314\320i\342`7d\001"
 320      3FEED8A3 
ARM GAS  /tmp/ccMOFhog.s 			page 25


 320      284B5334 
 320      1E4E3846 
 320      CCD069E2 
 321 0508 14EC941D 		.ascii	"\024\354\224\035\260\004Q\3730\013\326\355\030L\317"
 321      B00451FB 
 321      300BD6ED 
 321      184CCF
 322 0517 59070BD6 		.ascii	"Y\007\013\326c\007\314,/S\301N\262`g\034\203\3519;\305"
 322      6307CC2C 
 322      2F53C14E 
 322      B260671C 
 322      83E9393B 
 323 052c 8245EC80 		.ascii	"\202E\354\200\215\267\346\254\213\005\373\3141\230\236"
 323      8DB7E6AC 
 323      8B05FBCC 
 323      31989E
 324 053b B38F59B0 		.ascii	"\263\217Y\260\013v\3002L8\213^V\211\317w\261\304\207"
 324      0B76C032 
 324      4C388B5E 
 324      5689CF77 
 324      B1C487
 325 054e E72EB9B4 		.ascii	"\347.\271\264%\301\241Os1\214\313.\247K\230Nn\034\276"
 325      25C1A14F 
 325      73318CCB 
 325      2EA74B98 
 325      4E6E1CBE 
 326 0562 3FDDACE5 		.ascii	"?\335\254\345\361\375\260\003\271b\0071\201\303T\036"
 326      F1FDB003 
 326      B9620731 
 326      81C3541E 
 327 0572 034D52B0 		.ascii	"\003MR\260\033\216\301\364f\251%`\272\265F\015H\221"
 327      1B8EC1F4 
 327      66A92560 
 327      BAB5460D 
 327      4891
 328 0584 ADE1F1D5 		.ascii	"\255\341\361\325\261\325\316\253a\221\203\033\272\264"
 328      B1D5CEAB 
 328      6191831B 
 328      BAB4
 329 0592 552A0A1F 		.ascii	"U*\012\037\355\254\214\037o\336WD\033y\222\310\326\362"
 329      EDAC8C1F 
 329      6FDE5744 
 329      1B7992C8 
 329      D6F2
 330 05a4 A9512E68 		.ascii	"\251Q.h[k\015!\242\347[.\303\221\220v%\033j\345\011"
 330      5B6B0D21 
 330      A2E75B2E 
 330      C3919076 
 330      251B6AE5 
 331 05b9 353CE309 		.ascii	"5<\343\011\345n\033jJ0\025:\254\324\024\256P^D\013\353"
 331      E56E1B6A 
 331      4A30153A 
 331      ACD414AE 
 331      505E440B 
 332 05ce EF4D981B 		.ascii	"\357M\230\033\276\377\351\345Mj\022\360\032Ob\367\213"
 332      BEFFE9E5 
 332      4D6A12F0 
ARM GAS  /tmp/ccMOFhog.s 			page 26


 332      1A4F62F7 
 332      8B
 333 05df 6ED324C0 		.ascii	"n\323$\300\026X\315\262\343ZF\261\015\300\252\206\017"
 333      1658CDB2 
 333      E35A46B1 
 333      0DC0AA86 
 333      0F
 334 05f0 56D7D07E 		.ascii	"V\327\320~/\311\345w\000\320\006\2671h\244\0322\212"
 334      2FC9E577 
 334      00D006B7 
 334      3168A41A 
 334      328A
 335 0602 547DCC4F 		.ascii	"T}\314OM\2155\206\264Ko\306\037t\214\225\3517\263\246"
 335      4D8D3586 
 335      B44B6FC6 
 335      1F748C95 
 335      E937B3A6 
 336 0616 7FDDB1E9 		.ascii	"\177\335\261\351u3\004\347 \327\370\265Jx\241\300\370"
 336      753304E7 
 336      20D7F8B5 
 336      4A78A1C0 
 336      F8
 337 0627 7AC28981 		.ascii	"z\302\211\2013\265\236\303\377\001\231\332[\240\327"
 337      33B59EC3 
 337      FF0199DA 
 337      5BA0D7
 338 0636 B7CC0D64 		.ascii	"\267\314\015d\003\250f\331\233\377\016@\365\000\264"
 338      03A866D9 
 338      9BFF0E40 
 338      F500B4
 339 0645 7FD8400D 		.ascii	"\177\330@\015\257\324N\005\240w\001\350H\234\245\221"
 339      AFD44E05 
 339      A07701E8 
 339      489CA591 
 340 0655 C1D2486F 		.ascii	"\301\322Ho\001\224\032k\304Y\353{\354\313s-Fs\351\304"
 340      01941A6B 
 340      C459EB7B 
 340      ECCB732D 
 340      4673E9C4 
 341 0669 49101AA2 		.ascii	"I\020\032\242\353\355\315\225\350\3532\245z\222\003"
 341      EBEDCD95 
 341      E8EB32A5 
 341      7A9203
 342 0678 EDAC57ED 		.ascii	"\355\254W\355\325\000\3329\036\247\235z\336\231zp\212"
 342      D500DA39 
 342      1EA79D7A 
 342      DE997A70 
 342      8A
 343 0689 E1580CAF 		.ascii	"\341X\014\257^\214\212\241a\210q\204\212q\030\3048\363"
 343      5E8C8AA1 
 343      61887184 
 343      8A7118C4 
 343      38F3
 344 069b 3D8871CE 		.ascii	"=\210q\316\261\030c\0301`\363\272\212F\277q\334\312"
 344      B1186318 
 344      3160F3BA 
 344      8A46BF71 
ARM GAS  /tmp/ccMOFhog.s 			page 27


 344      DCCA
 345 06ad C4193CE1 		.ascii	"\304\031<\341\347C~\234\376\254\341t;\312\240\267\223"
 345      E7437E9C 
 345      FEACE174 
 345      3BCAA0B7 
 345      93
 346 06be 6F1ABF6E 		.ascii	"o\032\277n\337\000\2313(L\261\265\243\352\211\356\363"
 346      DF009933 
 346      284CB1B5 
 346      A3EA89EE 
 346      F3
 347 06cf 9A406503 		.ascii	"\232@e\003f\023\314\016T]\31518^n\001\230\301\341\302"
 347      6613CC0E 
 347      545DCD31 
 347      385E6E01 
 347      98C1E1C2 
 348 06e3 441ADAF7 		.ascii	"D\032\332\367\323y\332\006@7\342L\230b\260`\212\336"
 348      D379DA06 
 348      4037E24C 
 348      9862B060 
 348      8ADE
 349 06f5 82F827A1 		.ascii	"\202\370'\241t\003\026\310\027\324;\344\207\207\373"
 349      740316C8 
 349      17D43BE4 
 349      8787FB
 350 0704 7F1FC773 		.ascii	"\177\037\307se)H5\252\303\374K\363\236\212\317\252\264"
 350      65294835 
 350      AAC3FC4B 
 350      F39E8ACF 
 350      AAB4
 351 0716 DC891A68 		.ascii	"\334\211\032h\351m!\226\205_]\256\275\324\2003\325\225"
 351      E96D2196 
 351      855F5DAE 
 351      BDD48033 
 351      D595
 352 0728 B70977F0 		.ascii	"\267\011w\360\2701-0l\333\316Z\204\035\355\320\350l"
 352      B8312D30 
 352      6CDBCE5A 
 352      841DEDD0 
 352      E86C
 353 073a 849E4D77 		.ascii	"\204\236MwAZ\274.\305h\356~d\330\266\365\353\317\231"
 353      415ABC2E 
 353      C568EE7E 
 353      64D8B6F5 
 353      EBCF99
 354 074d AD26D269 		.ascii	"\255&\322i6\002\356\272]34]5\230a\317m\352\355\233\345"
 354      3602EEBA 
 354      5D33345D 
 354      359861CF 
 354      6DEAED9B 
 355 0762 F68EA89E 		.ascii	"\366\216\250\236\323\260\350\373\271\003@\266\2177l"
 355      D3B0E8FB 
 355      B90340B6 
 355      8F376C
 356 0771 B15FBD16 		.ascii	"\261_\275\026\251P3\"\362,\371J\321{.UY\231N\017\227"
 356      A9503322 
 356      F22CF94A 
ARM GAS  /tmp/ccMOFhog.s 			page 28


 356      D17B2E55 
 356      59994E0F 
 357 0786 44340007 		.ascii	"D4\000\007\302d\244Y\242\224T=\341>\251y\222\2235\247"
 357      C264A459 
 357      A294543D 
 357      E13EA979 
 357      929335A7 
 358 079a 495B73CE 		.ascii	"I[s\316\202.\377\021g\364\026\3432\355h\322\375OTIv"
 358      822EFF11 
 358      67F416E3 
 358      32ED68D2 
 358      FD4F5449 
 359 07af 372CC6CB 		.ascii	"7,\306\313\312\251\316\260Nu\351\366\\\200\274\217\334"
 359      CAA9CEB0 
 359      4E75E9F6 
 359      5C80BC8F 
 359      DC
 360 07c0 429D2A99 		.ascii	"B\235*\231\023(\321\003\3361@\371\012P\0360"
 360      1328D103 
 360      DE3140F9 
 360      0A501E30 
 361 07d0 7AC1F5EB 		.ascii	"z\301\365\353\315K\3243\220\001[^p\325\304\013\006\206"
 361      CD4BD433 
 361      90015B5E 
 361      70D5C40B 
 361      0686
 362 07e2 E905D8A5 		.ascii	"\351\005\330\245/\266 \200\243\373\262\325\036\244\207"
 362      2FB62080 
 362      A3FBB2D5 
 362      1EA487
 363 07f1 B36B0515 		.ascii	"\263k\005\025\356\246\344T1\324\277\302\237\234#\021"
 363      EEA6E454 
 363      31D4BFC2 
 363      9F9C2311 
 364 0801 F30A4F8E 		.ascii	"\363\012O\216Mk<F\327\242\232a\\+\246F\021}\016\033"
 364      4D6B3C46 
 364      D7A29A61 
 364      5C2BA646 
 364      117D0E1B 
 365 0815 B52F78F2 		.ascii	"\265/x\362\226\3412\324\203\274\215w\015_\361q\257~"
 365      96E132D4 
 365      83BC8D77 
 365      0D5FF171 
 365      AF7E
 366 0827 9CC89D61 		.ascii	"\234\310\235a\323\373.\262\336\367\232\347\366\274\257"
 366      D3FB2EB2 
 366      DEF79AE7 
 366      F6BCAF
 367 0836 A7A9DD05 		.ascii	"\247\251\335\005\007\213\016\216_{\216j\023\367:L\334"
 367      078B0E8E 
 367      5F7B8E6A 
 367      13F73A4C 
 367      DC
 368 0847 37E2B4FB 		.ascii	"7\342\264\373\2451\213\266sF\272o\270\242D/\236;\344"
 368      A5318BB6 
 368      7346BA6F 
 368      B8A2442F 
ARM GAS  /tmp/ccMOFhog.s 			page 29


 368      9E3BE4
 369 085a B1B1C7C9 		.ascii	"\261\261\307\3110\321z4\320v\251iZ\322\203V\355u\372"
 369      30D17A34 
 369      D076A969 
 369      5AD28356 
 369      ED75FA
 370 086d F9307DDD 		.ascii	"\3710}\335\361O\360\264#\006]\3308\257m\207!\212\020"
 370      F14FF0B4 
 370      23065DD8 
 370      38AF6D87 
 370      218A10
 371 0880 F7AE207A 		.ascii	"\367\256 z^K\236%?0}\347%-\244\323\330H=\220\214\035"
 371      5E4B9E25 
 371      3F307DE7 
 371      252DA4D3 
 371      D8483D90 
 372 0896 AE3E7526 		.ascii	"\256>u&\2141(\2422\201L\220r\201\231\024<\327gG\367"
 372      8C3128A2 
 372      32814C90 
 372      72819914 
 372      3CD76747 
 373 08ab 0F58B922 		.ascii	"\017X\271\"^\206N\352\337u\2347\342\231-D:<\326\226"
 373      5E864EEA 
 373      DF759C37 
 373      E2992D44 
 373      3A3CD696 
 374 08bf 65E1CA4E 		.ascii	"e\341\312N8\036\242>\372\245\035\346&Y\203\275Z\245"
 374      381EA23E 
 374      FAA51DE6 
 374      265983BD 
 374      5AA5
 375 08d1 29F72264 		.ascii	")\367\"d(7\354\340M\265\022\266,\274\277s\203\212G_"
 375      2837ECE0 
 375      4DB512B6 
 375      2CBCBF73 
 375      838A475F 
 376 08e5 AC285EA7 		.ascii	"\254(^\247xz\376NW\351\362\271\245v\340\246\333\266"
 376      787AFE4E 
 376      57E9F2B9 
 376      A576E0A6 
 376      DBB6
 377 08f7 7DEC4596 		.ascii	"}\354E\226\210.\300\353\330\213\360\012\366\022\324"
 377      882EC0EB 
 377      D88BF00A 
 377      F612D4
 378 0906 D7A05E03 		.ascii	"\327\240^\003\013e5\324\353\241\336\004\365\233P\277"
 378      0B6535D4 
 378      EBA1DE04 
 378      F59B50BF 
 379 0916 07F521A8 		.ascii	"\007\365!\250?\200\372&\324\213\005R/\201z)\324\313"
 379      3F80FA26 
 379      D48B0552 
 379      2F817A29 
 379      D4CB
 380 0928 A07E59B0 		.ascii	"\240~Y\260\261\340\032r@\315\345\373\206\375\276\375"
 380      B1E01A72 
 380      40CDE5FB 
ARM GAS  /tmp/ccMOFhog.s 			page 30


 380      86FDBEFD 
 381 0938 646BF444 		.ascii	"dk\364DQ{\337\356\004,#\221\016\373\030\035F@\207\377"
 381      517BDFEE 
 381      042C2391 
 381      0EFB181D 
 381      464087FF 
 382 094c 00BD2D67 		.ascii	"\000\275-g%\325\302o\367\260\337\3605t\263\216%\242"
 382      25D5C26F 
 382      F7B0DFF0 
 382      3574B38E 
 382      25A2
 383 095e AB463C47 		.ascii	"\253F<G\361W\321^>\320\327I\253y\247`z/\355\\\253_\242"
 383      F157D15E 
 383      3ED0D749 
 383      AB79A760 
 383      7A2FED5C 
 384 0975 D6DAC14B 		.ascii	"\326\332\301Kp\002\254\236\362S\260u\216\301\364\314"
 384      7002AC9E 
 384      F253B075 
 384      8EC1F4CC 
 385 0985 F57433C7 		.ascii	"\365t3\307\311\313\275(9\230\3319\251\271\361\273\031"
 385      C9CBBD28 
 385      3998D939 
 385      A9B9F1BB 
 385      19
 386 0996 E37F02C6 		.ascii	"\343\177\002\306\357\001\343W\202\263\257\200z%\324"
 386      EF01E357 
 386      82B3AF80 
 386      7A25D4
 387 09a5 5550AFD2 		.ascii	"UP\257\322/\255k\275\332\007\010*1\375\273\376\004^"
 387      2FAD6BBD 
 387      DA07082A 
 387      31FDBBFE 
 387      045E
 388 09b7 21A2764C 		.ascii	"!\242vLH\265e}/\365\015\273\261\355\334\2650\215m\325"
 388      48B5657D 
 388      2FF50DBB 
 388      B1EDDCB5 
 388      308D6DD5 
 389 09cb 02599037 		.ascii	"\002Y\2207z\035\307\266]0\244&>\266\335\322\276A\250"
 389      7A1DC7B6 
 389      5D30A426 
 389      3EB6DDD2 
 389      BE41A8
 390 09de 491EDB16 		.ascii	"I\036\333\026\225\207\327\255\337\026\333'\225Gw\225"
 390      9587D7AD 
 390      DF16DB27 
 390      95477795 
 391 09ee 1BF0DA6E 		.ascii	"\033\360\332n\2658\350\216\275\017F\371\370^ba\015\023"
 391      B538E88E 
 391      BD0F46F9 
 391      F85E6261 
 391      0D13
 392 0a00 0B37422C 		.ascii	"\0137B,\254\325\033\254\311h0\207\261\260\241W\213\205"
 392      ACD51BAC 
 392      C9683087 
 392      B1B0A157 
ARM GAS  /tmp/ccMOFhog.s 			page 31


 392      8B85
 393 0a12 F4138456 		.ascii	"\364\023\204V#\236\376\203\203\004\3010z\251\267u;I"
 393      239EFE83 
 393      8304C130 
 393      7AA9B775 
 393      3B49
 394 0a24 333F56C7 		.ascii	"3?V\307M\340j\225\360`\244w\333W\231k\312\313\232\225"
 394      4DE06A95 
 394      F060A477 
 394      DB57996B 
 394      CACB9A95 
 395 0a38 4192A5D9 		.ascii	"A\222\245\331\377Pm\253`\370P\215~\303\304|\251\306"
 395      FF506DAB 
 395      60F8508D 
 395      7EC3C47C 
 395      A9C6
 396 0a4a 7303067F 		.ascii	"s\003\006\177\272\237{MQV*\353\244\247\264\257#oA\217"
 396      BA9F7B4D 
 396      51562AEB 
 396      A4A7B4AF 
 396      236F418F 
 397 0a5e 2DC20453 		.ascii	"-\302\004S:\321\217\255~\306m%oa^V\026\217A\300\025"
 397      3AD18FAD 
 397      7EC66D25 
 397      6F615E56 
 397      168F41C0 
 398 0a73 A78ED219 		.ascii	"\247\216\322\031\355u\201go\020\001\353\"\341o%*\233"
 398      ED758167 
 398      6F1001EB 
 398      22E16F25 
 398      2A9B
 399 0a85 7DD176A9 		.ascii	"}\321v\251\242\305\244\341\271\262Td\360a\340\011_\333"
 399      A2C5A4E1 
 399      B9B25464 
 399      F061E009 
 399      5FDB
 400 0a97 1521CAD2 		.ascii	"\025!\312\322N#Ko\306\263\024\031\014\337jJ\257\\\030"
 400      4E234B6F 
 400      C6B31419 
 400      0CDF6A4A 
 400      AF5C18
 401 0aaa 191A9A60 		.ascii	"\031\032\232`\237\247\267\315\324\035\375\261\217\246"
 401      9FA7B7CD 
 401      D41DFDB1 
 401      8FA6
 402 0ab8 E3D1DF8D 		.ascii	"\343\321\337\215Tm\354G\204:y@\244e\251\246\326Y\255"
 402      546DEC47 
 402      843A7940 
 402      A465A9A6 
 402      D659AD
 403 0acb 5947443B 		.ascii	"YGD;\004\262\340\356Nl\035uX\247\370\200\366\251\330"
 403      04B2E0EE 
 403      4E6C1D75 
 403      58A7F880 
 403      F6A9D8
 404 0ade 1A006686 		.ascii	"\032\000f\206\351>\025S\271\245\303\302+\226\220\200"
 404      E93E1553 
ARM GAS  /tmp/ccMOFhog.s 			page 32


 404      B9A5C3C2 
 404      2B969080 
 405 0aee C16BDF2C 		.ascii	"\301k\337,n0\0165Pld(\326\023F\341\345~\013J\314\347"
 405      6E300E35 
 405      506C6428 
 405      D61346E1 
 405      E57E0B4A 
 406 0b04 B4981329 		.ascii	"\264\230\023)\341\241\212\362:\244\244Dm\266\333h\263"
 406      E1A18AF2 
 406      3AA4A444 
 406      6DB6DB68 
 406      B3
 407 0b15 BDA636BB 		.ascii	"\275\2466\273y\214\332\354\325\351\366\215v\330\306"
 407      798CDAEC 
 407      D5E9F68D 
 407      76D8C6
 408 0b24 1C79CDDC 		.ascii	"\034y\315\334\012\353\214V8dk\216(\2069r\310(\\\330"
 408      0AEB8C56 
 408      38646B8E 
 408      28863972 
 408      C8285CD8 
 409 0b38 44B8CAC8 		.ascii	"D\270\312\310\211\235\215\367T\357Q\026-Un\015\275\200"
 409      899D8DF7 
 409      54EF5116 
 409      2D556E0D 
 409      BD80
 410 0b4a E80CE0B9 		.ascii	"\350\014\340\271\2668\237\247\030\037\231a\204\2574"
 410      B6389FA7 
 410      181F9961 
 410      84AF34
 411 0b59 FD45414E 		.ascii	"\375EAN\335\272\311\250!\372\345\242NC\037[\260\321"
 411      DDBAC9A8 
 411      21FAE5A2 
 411      4E431F5B 
 411      B0D1
 412 0b6b 6CCA465F 		.ascii	"l\312F_\214\015\012\317sg-\000Z\365\000\377\312m\"\272"
 412      8C0D0ACF 
 412      73672D00 
 412      5AF500FF 
 412      CA6D22BA 
 413 0b7f E8AD38FD 		.ascii	"\350\2558\375W\264R\251k&\2762\204&$\375|P;\341\374"
 413      57B452A9 
 413      6B26BE32 
 413      842624FD 
 413      7C503BE1 
 414 0b94 B6837ECF 		.ascii	"\266\203~\317\327\006\261t\320@T\373\214\220\241\337"
 414      D706B174 
 414      D04054FB 
 414      8C90A1DF 
 415 0ba4 C1E40C27 		.ascii	"\301\344\014'!g\350\204\234\241\035\352\265\220'l\326"
 415      2167E884 
 415      9CA11DEA 
 415      B590276C 
 415      D6
 416 0bb5 879D9B51 		.ascii	"\207\235\233QTSV\010\352\361\230T\206#\3326\213\350"
 416      54535608 
 416      EAF19854 
ARM GAS  /tmp/ccMOFhog.s 			page 33


 416      8623DA36 
 416      8BE8
 417 0bc7 08BC0869 		.ascii	"\010\274\010i\026\243\210/X\215:\021\033\005\307\013"
 417      16A3882F 
 417      588D3A11 
 417      1B05C70B 
 418 0bd7 E5098F17 		.ascii	"\345\011\217\027D4\010R&?+0\323y\212\006\365\\L\347"
 418      44340852 
 418      263F2B30 
 418      D3798A06 
 418      F55C4CE7 
 419 0beb 43BBBF2A 		.ascii	"C\273\277*\242\007\025\235\240\364]#\222~\310\247\307"
 419      A207159D 
 419      A0F45D23 
 419      927EC8A7 
 419      C7
 420 0bfc 214C7519 		.ascii	"!Lu\031\222\227pU/|\366\331e+qY\335\253\245\343'\005"
 420      92977055 
 420      2F7CF6D9 
 420      652B7159 
 420      DDABA5E3 
 421 0c12 B2C0BD07 		.ascii	"\262\300\275\007,t9ODT\2745\275\220\244R\260\203\216"
 421      2C74394F 
 421      4454BC35 
 421      BD90A452 
 421      B0838E
 422 0c25 C1327460 		.ascii	"\3012t`\325,X\330\016\230\325F\001\203\255g\301\216"
 422      D52C58D8 
 422      0E98D546 
 422      0183AD67 
 422      C18E
 423 0c37 3A06D373 		.ascii	":\006\323s\266\201\005k\265\003f\265K\300`\265,\330"
 423      B681056B 
 423      B50366B5 
 423      4BC060B5 
 423      2CD8
 424 0c49 DF1C83E9 		.ascii	"\337\034\203\3519{\233\005;a\007\314\352k\012\014\266"
 424      397B9B05 
 424      3B6107CC 
 424      EA6B0A0C 
 424      B6
 425 0c5a 8705EB76 		.ascii	"\207\005\353v\014\246\347\354]\026\354\214\035\260\014"
 425      0CA6E7EC 
 425      5D16EC8C 
 425      1DB00C
 426 0c69 6BCEF6B1 		.ascii	"k\316\366\261`\375\216\301\364\234\275\307\202\235\267"
 426      60FD8EC1 
 426      F49CBDC7 
 426      829DB7
 427 0c78 0366951A 		.ascii	"\003f\225\032c\260\003,\330\200c0=g\007Y\260\313v\300"
 427      63B0032C 
 427      D8806330 
 427      3D670759 
 427      B0CB76C0 
 428 0c8c 265971B6 		.ascii	"&Yq\2660|\370\331J\361G\\\245\272\244PTmYAz\327b\273"
 428      307CF8D9 
 428      4AF1475C 
ARM GAS  /tmp/ccMOFhog.s 			page 34


 428      A5BAA450 
 428      546D5941 
 429 0ca4 91C3528B 		.ascii	"\221\303R\213n\"\372_\341G\320\322\275W\201\036V\213"
 429      6E22FA5F 
 429      E147D0D2 
 429      BD57811E 
 429      568B
 430 0cb6 EE5521F6 		.ascii	"\356U!\366\221Pzj\254\301\376\263K\254\027y\215`\024"
 430      91507A6A 
 430      ACC1FEB3 
 430      4BAC1779 
 430      8D6014
 431 0cc9 5BCF8599 		.ascii	"[\317\205\231\334z%v\260J\274fG\211\323\255\301N\262"
 431      DC7A2576 
 431      B04ABC66 
 431      4789D3AD 
 431      C14EB2
 432 0cdc 60DFD901 		.ascii	"`\337\331\001{\312\332WN\261`C\216\301\364\234u\261"
 432      7BCADA57 
 432      4EB16043 
 432      8EC1F49C 
 432      75B1
 433 0cee 608BD26C 		.ascii	"`\213\322l\200=c\315\331\307,\330\022\307`,g\013\303"
 433      803D63CD 
 433      D9C72CD8 
 433      12C7602C 
 433      670BC3
 434 0d01 3D31C723 		.ascii	"=1\307#\337\325\353<Ow|\024u<\332\215\361<C7\021\225"
 434      DFD5EB3C 
 434      4F777C14 
 434      753CDA8D 
 434      F13C4337 
 435 0d17 BB9C3ADE 		.ascii	"\273\234:\336\"\227\271\343\261_\276\304za\261_6\212"
 435      2297B9E3 
 435      B15FBEC4 
 435      7A61B15F 
 435      368A
 436 0d29 6D76D435 		.ascii	"mv\3245\307D\207f\027\033\250E\324\015\233\362\217!"
 436      C7448766 
 436      171BA845 
 436      D40D9BF2 
 436      8F21
 437 0d3b 47EA81FA 		.ascii	"G\352\201\372\357P\367A\035\201\272\037\352\317\240"
 437      EF50F741 
 437      1D81BA1F 
 437      EACFA0
 438 0d4a 3E0FF505 		.ascii	">\017\365\005\250\007\240\376\034\352\313P\017B}\005"
 438      A807A0FE 
 438      1CEACB50 
 438      0F427D05 
 439 0d5a EAEB507F 		.ascii	"\352\353P\177\003\365wP\377\023\352!\250\027\272\230"
 439      03F57750 
 439      FF13EA21 
 439      A817BA98 
 440 0d6a 7CCC9029 		.ascii	"|\314\220)u&\310\257*\\V\371US\202\374jIl\224\272]?"
 440      7526C8AF 
 440      2A5C56F9 
ARM GAS  /tmp/ccMOFhog.s 			page 35


 440      555382FC 
 440      6A496C94 
 441 0d81 7DA0E5EE 		.ascii	"}\240\345\356]\344\343c\222\251/\\\204\264\\\375`\232"
 441      5DE4E363 
 441      92A92F5C 
 441      84B45CFD 
 441      609A
 442 0d93 9DFDE98B 		.ascii	"\235\375\351\213.\303v`\251+.\207&D\0167\34670D\014"
 442      2EC37660 
 442      A92B2E87 
 442      26440E37 
 442      E6373044 
 443 0da8 F9FC3E64 		.ascii	"\371\374>d\355#\177q\305\357\235/\231\363V\246\274\275"
 443      ED237F71 
 443      C5EF9D2F 
 443      99F356A6 
 443      BCBD
 444 0dba 5D716B9B 		.ascii	"]qk\233W\021-s\231o\030U\274\227MY=u\240\345'\344\365"
 444      57112D73 
 444      996F1855 
 444      BC974D59 
 444      3D75A0E5 
 445 0dd1 963234F4 		.ascii	"\22624\364\302}\224<\317\335\262Gpyb\202\225\346\004"
 445      C27D943C 
 445      CFDDB247 
 445      70796282 
 445      95E604
 446 0de4 FB3F7930 		.ascii	"\373?y0\216`8\335\026\301\225\211\011V\231\033\343\300"
 446      8E6038DD 
 446      16C19589 
 446      0956991B 
 446      E3C0
 447 0df6 C57BF416 		.ascii	"\305{\364\026\247\273\232N\003Mu\343\330\035\333\207"
 447      A7BB9A4E 
 447      034D75E3 
 447      D81DDB87 
 448 0e06 5F801EAB 		.ascii	"_\200\036\253-\210FO\015TG\371Dyf|\324QV\033\035e\215"
 448      2D88464F 
 448      0D5447F9 
 448      4479667C 
 448      D451561B 
 449 0e1d 2B6EAFD4 		.ascii	"+n\257\324\321\021\351\335\3262\265J)\253V\026\301V"
 449      D111E9DD 
 449      D632B54A 
 449      29AB5616 
 449      C156
 450 0e2f 490B7AD5 		.ascii	"I\013z\325\372\223\273<\215\354H\030\313\366\252\265"
 450      FA93BB3C 
 450      8DEC4818 
 450      CBF6AAB5 
 451 0e3f EC85111C 		.ascii	"\354\205\021\034/P\033-\026\250t\235(\033c\013\324\027"
 451      2F501B2D 
 451      16A8749D 
 451      281B630B 
 451      D417
 452 0e51 A021666B 		.ascii	"\240!fkm`\002G\273t\244\016\303\301%f\222o\306\233\231"
 452      6D600247 
ARM GAS  /tmp/ccMOFhog.s 			page 36


 452      BB74A40E 
 452      C3C12566 
 452      926FC69B 
 453 0e66 64D14853 		.ascii	"d\321HS\223\364j&\021Q\265\213\354\345\353\206c\222"
 453      93F46A26 
 453      1151B58B 
 453      ECE5EB86 
 453      6392
 454 0e78 3AA34936 		.ascii	":\243I6Y\230\344\342\275\311M2G#\233\226\310$\206^\""
 454      5998E4E2 
 454      BDC94D32 
 454      47239B96 
 454      C824865E 
 455 0e8d DAE6D824 		.ascii	"\332\346\330$\257[\230d\204N\024\255\027n\326\272\014"
 455      AF5B9864 
 455      844E14AD 
 455      176ED6BA 
 455      0C
 456 0e9e 67390626 		.ascii	"g9\006&x\256f$k\022\303j\2725\301j\272#\266\232r\377"
 456      78AE6624 
 456      6B12C36A 
 456      BA35C16A 
 456      BA23B69A 
 457 0eb4 32716266 		.ascii	"2qbfq(3(g\346\027\371\013Jr\244L\177^hAH^\020\220B\023"
 457      71283328 
 457      67E617F9 
 457      0B4A72A4 
 457      4C7F5E68 
 458 0ecf F3B83B4B 		.ascii	"\363\270;K\363\203r\211X\340\223\363\013\245`\310W\220"
 458      F3837289 
 458      58E093F3 
 458      0BA560C8 
 458      5790
 459 0ee1 1F927D72 		.ascii	"\037\222}r\312\223\277\373}F\026w\227?\317g\362\374"
 459      CA93BFFB 
 459      7D461677 
 459      973FCF67 
 459      F2FC
 460 0ef3 6E33487F 		.ascii	"n3H\177^\016\206\033\255\353\356\223\307\030\021\\E"
 460      5E0E861B 
 460      ADEBEE93 
 460      C718115C 
 460      45
 461 0f04 D27CD915 		.ascii	"\322|\331\025\010J\245\251\204\013|\313'\377$\263$\024"
 461      084AA5A9 
 461      840B7CCB 
 461      27FF24B3 
 461      2414
 462 0f16 8C621549 		.ascii	"\214b\025I\363\012\362\347f\206\344\234\374\"\031Cz"
 462      F30AF2E7 
 462      6686E49C 
 462      FC221943 
 462      7A
 463 0f27 4BF0DFC9 		.ascii	"K\360\337\311\217\370\344_\231u+\024\375y\371ER\246"
 463      8FF8E45F 
 463      99752B14 
 463      FD79F945 
ARM GAS  /tmp/ccMOFhog.s 			page 37


 463      52A6
 464 0f39 2F477A5E 		.ascii	"/Gz^,)\300\274\253\202\215\360\371\264\201\356\034\251"
 464      2C29C0BC 
 464      AB828DF0 
 464      F9B481EE 
 464      1CA9
 465 0f4b 4016BDA5 		.ascii	"@\026\275\245\362\363%E~\237\354\"\177\204\200\030\364"
 465      F2F32545 
 465      7E9FEC22 
 465      7F848018 
 465      F4
 466 0f5c 16882199 		.ascii	"\026\210!\231\260\220R*\023\271R1\263\204)\2510=(\211"
 466      B090522A 
 466      13B95231 
 466      B38429A9 
 466      303D2889 
 467 0f70 390B5465 		.ascii	"9\013Te\214\304\267c\277G\313y\344G\310\367\347\022"
 467      8CC4B763 
 467      BF47CB79 
 467      E447C8F7 
 467      E712
 468 0f82 A944A212 		.ascii	"\251D\242\022\352ny\351/\037\300\321\266\033\036L\241"
 468      EA6E79E9 
 468      2F1FC0D1 
 468      B61B1E4C 
 468      A1
 469 0f93 6AF31717 		.ascii	"j\363\027\027\026\026\027e\006\212\203r("
 469      16161765 
 469      068A8372 
 469      28
 470 0fa0 F3F1EC99 		.ascii	"\363\361\354\231Y3\347\223{\201\374\002\254\337\314"
 470      5933E793 
 470      7B81FC02 
 470      ACDFCC
 471 0faf 27B3B2B0 		.ascii	"'\263\262\26065!<r \230_\354\223A\007\017M\361\311\252"
 471      3635213C 
 471      7220985F 
 471      EC934107 
 471      0F4DF1C9 
 472 0fc4 54A4E922 		.ascii	"T\244\351\"\217\322\011\214\317_\\$c\265\376[\002\002"
 472      8FD2098C 
 472      CF5F5C24 
 472      63B5FE5B 
 472      0202
 473 0fd6 79FEE2A0 		.ascii	"y\376\342\240\204\021\323`\000\206\360\313\363\177\236"
 473      8411D360 
 473      0086F0CB 
 473      F37F9E
 474 0fe5 ACBFAFF4 		.ascii	"\254\277\257\3647\205\304\002A)W\014\026\372d>\3700"
 474      3785C402 
 474      4129570C 
 474      16FA643E 
 474      F830
 475 0ff7 1FFC351F 		.ascii	"\037\3745\037|\204\017\376\206"
 475      7C840FFE 
 475      86
 476 1000 0F4EE583 		.ascii	"\017N\345\203\217\012\301\311\223p\231\314\027\004\371"
ARM GAS  /tmp/ccMOFhog.s 			page 38


 476      8F0AC1C9 
 476      937099CC 
 476      1704F9
 477 100f 5040C0A0 		.ascii	"P@\300\240nl\030)\350..\310\301\306\366\347\211\330"
 477      6E6C1829 
 477      E82E2EC8 
 477      C1C6F6E7 
 477      89D8
 478 1021 E262A134 		.ascii	"\342b\2414\"$\377I,\310\317-Rey\344\341\250,\244\231"
 478      2224FF49 
 478      2CC8CF2D 
 478      526579E4 
 478      E1A82CA4 
 479 1036 324F9C2B 		.ascii	"2O\234+\206\260\352B\262(c\245z\310\203\251X\205\264"
 479      86B0EA42 
 479      B22863A5 
 479      7AC883A9 
 479      5885B4
 480 1049 0B6EB9E1 		.ascii	"\013n\271\341\211G.,\316\301\317\335\317\027\210\271"
 480      89472E2C 
 480      CEC1CFDD 
 480      CF1788B9 
 481 1059 218F1C94 		.ascii	"!\217\034\224\236\017aM\220?\356\302P.\036\250*\007"
 481      9E0F614D 
 481      903FEEC2 
 481      502E1EA8 
 481      2A07
 482 106b 0F545B29 		.ascii	"\017T[)\301\234\005\370\221W\232\237/\373\361\340\224"
 482      C19C05F8 
 482      91579A9F 
 482      2FFBF1E0 
 482      94
 483 107c 7972F1DC 		.ascii	"yr\361\334\377\016\214U\255\204\207JA\251\310O@\347"
 483      FF0E8C55 
 483      AD84874A 
 483      41A9C84F 
 483      40E7
 484 108e C97230E0 		.ascii	"\311r0\340\011IE2\036\220N\234A*\024\003yX\021?6\363"
 484      09494532 
 484      1E904E9C 
 484      412A1403 
 484      7958113F 
 485 10a4 7889E8C6 		.ascii	"x\211\350\306\355/\302.\"\340\032\003\343[\001/\036"
 485      ED2FC22E 
 485      22E01A03 
 485      E35B012F 
 485      1E
 486 10b5 575882CD 		.ascii	"WX\202\315a6\246P\236O\306\024\317+\222\202\036\350"
 486      6136A650 
 486      9E4FC614 
 486      CF2B9282 
 486      1EE8
 487 10c7 456497F1 		.ascii	"Ed\227\361\355@\232TJ\010\213\241?\341[\322<\322@%\243"
 487      ED409A54 
 487      4A088BA1 
 487      3FE15BD2 
 487      3CD24025 
ARM GAS  /tmp/ccMOFhog.s 			page 39


 488 10dc 34CFA29E 		.ascii	"4\317\242\2368\232\3615r\3073O\314\227\363\213r\275"
 488      389AF135 
 488      72C7334F 
 488      CC97F38B 
 488      72BD
 489 10ee 985FEA7B 		.ascii	"\230_\352{R@*\302\363&\327\203!I\017l:\261\2008\212"
 489      52402AC2 
 489      F326D783 
 489      21490F6C 
 489      3AB18038 
 490 1103 BB30505C 		.ascii	"\2730P\\\\\340\361\227\004\261\264\262;H\036\216\242"
 490      5CE0F197 
 490      04B1B4B2 
 490      3B481E8E 
 490      A2
 491 1114 CE8EA7CE 		.ascii	"\316\216\247\316\334\222\\\212\316\336I\015\210E\371"
 491      DC925C8A 
 491      CEDE490D 
 491      8845F9
 492 1123 7E1FC616 		.ascii	"~\037\306\026r\346\346\216(\024\261F\201\370\035Q\311"
 492      72E6E68E 
 492      2814B146 
 492      81F81D51 
 492      C9
 493 1134 42413F96 		.ascii	"BA?\226\252T\236\350\347\306\371\363\3760{Fq\266\024"
 493      AA549EE8 
 493      E7C6F9F3 
 493      FE307B46 
 493      71B614
 494 1147 92E4A727 		.ascii	"\222\344\247'\342\331%O\234$\224\312\001\257\257\224"
 494      E2D9254F 
 494      9C2494CA 
 494      01AFAF94 
 495 1157 F85BBE3C 		.ascii	"\370[\276<\202v\230\205\037\223\011).H\241\0232\235"
 495      82769885 
 495      1F930929 
 495      2E48A113 
 495      329D
 496 1169 1D780F85 		.ascii	"\035x\017\205\316\023\013\242Z\303m_\210,\004i!y\226"
 496      CE130BA2 
 496      5AC36D5F 
 496      882C0469 
 496      217996
 497 117c 5C1C78BC 		.ascii	"\\\034x\274\000\373\"\366'\014\004\315tr\033\223\203"
 497      00FB22F6 
 497      270C04CD 
 497      74721B93 
 497      83
 498 118d 1F693119 		.ascii	"\037i1\031d\336\237\367\313\030\034u\357Y\263g>4%\363"
 498      64DE9FF7 
 498      CB181C75 
 498      EF59B367 
 498      3E3425F3 
 499 11a1 B7BF9D91 		.ascii	"\267\277\235\2219\373\351\231\245\223\361*SH\234$\277"
 499      39FBE999 
 499      A593F12A 
 499      53489C24 
ARM GAS  /tmp/ccMOFhog.s 			page 40


 499      BF
 500 11b2 90E2AB3F 		.ascii	"\220\342\253?\260A\263\262'\3432\3055kfV\266k\306\323"
 500      B041B3B2 
 500      27E332C5 
 500      356B6656 
 500      B66BC6D3 
 501 11c6 4F64F3B3 		.ascii	"Od\363\263\262\205'\236\314vge\315\314\236\014\365\024"
 501      B285279E 
 501      CC766765 
 501      CDCC9E0C 
 501      F514
 502 11d8 5756D613 		.ascii	"WV\326\023\331B\326\357f\013\317\314\312\022\036\317"
 502      D942D6EF 
 502      660BCFCC 
 502      CA121ECF 
 503 11e8 CE16B2B3 		.ascii	"\316\026\262\263\360o<\340?g\314\316\026f\220\2213\037"
 503      F06F3CE0 
 503      3F67CCCE 
 503      16669091 
 503      331F
 504 11fa CFE6FF8B 		.ascii	"\317\346\377\213\216z\010\367\237\223\375`\322I\007"
 504      8E7A08F7 
 504      9F93FD60 
 504      D24907
 505 1209 EB24599A 		.ascii	"\353$Y\232a\252\322\2054\204\005\367\211D\302\361&n"
 505      61AAD285 
 505      348405F7 
 505      8944C2F1 
 505      266E
 506 121b 554AD433 		.ascii	"UJ\3243\226\350\361II\236\005\342\317\306\303\346\214"
 506      96E8F149 
 506      499E05E2 
 506      CFC6C3E6 
 506      8C
 507 122c 63107225 		.ascii	"c\020r%\332\372U2\225P}\373\012\012\310z>\226\266`\264"
 507      DAFA5532 
 507      95507DFB 
 507      0A0AC87A 
 507      3E96B660 
 508 1241 BFB8042F 		.ascii	"\277\270\004/3\301;X\266\360m\340\312E~{}>Xa}#\265\306"
 508      33C13B58 
 508      B6F06DE0 
 508      CA457E7B 
 508      7D3E5861 
 509 1259 C45F3FFA 		.ascii	"\304_?\372\360\224\273tr`K\321!l\247\207\036\376?\323"
 509      F094BB74 
 509      72604BD1 
 509      216CA787 
 509      1EFE3FD3 
 510 126d 203BB0   		.ascii	" ;\260"
 511              		.text
 512              		.section	.gnu.lto_.symtab.356fe6167eb47308,"",%progbits
 513 0000 5F76745F 		.ascii	"_vt_init\000\000\000\000\000\000\000\000\000\000\000"
 513      696E6974 
 513      00000000 
 513      00000000 
 513      000000
ARM GAS  /tmp/ccMOFhog.s 			page 41


 514 0013 00AB0100 		.ascii	"\000\253\001\000\000chVTDoSetI\000\000\000\000\000\000"
 514      00636856 
 514      54446F53 
 514      65744900 
 514      00000000 
 515 0028 00000000 		.ascii	"\000\000\000\000\000\000\257\001\000\000chVTDoReset"
 515      0000AF01 
 515      00006368 
 515      5654446F 
 515      52657365 
 516 003d 49000000 		.ascii	"I\000\000\000\000\000\000\000\000\000\000\000\000\275"
 516      00000000 
 516      00000000 
 516      00BD
 517 004b 01000063 		.ascii	"\001\000\000ch\000\000\002\000\000\000\000\000\000\000"
 517      68000002 
 517      00000000 
 517      000000
 518 005a 0000CB01 		.ascii	"\000\000\313\001\000\000stStopAlarm\000\000\002\000"
 518      00007374 
 518      53746F70 
 518      416C6172 
 518      6D000002 
 519 006f 00000000 		.ascii	"\000\000\000\000\000\000\000\000\303\001\000\000stS"
 519      00000000 
 519      C3010000 
 519      737453
 520 007e 6574416C 		.ascii	"etAlarm\000\000\002\000\000\000\000\000\000\000\000"
 520      61726D00 
 520      00020000 
 520      00000000 
 520      0000
 521 0090 00C50100 		.ascii	"\000\305\001\000\000stStartAlarm\000\000\002\000\000"
 521      00737453 
 521      74617274 
 521      416C6172 
 521      6D000002 
 522 00a6 00000000 		.ascii	"\000\000\000\000\000\000\000\311\001\000\000"
 522      000000C9 
 522      010000
 523              		.text
 524              		.section	.gnu.lto_.opts,"",%progbits
 525 0000 272D6D63 		.ascii	"'-mcpu=cortex-m3' '-mno-thumb-interwork' '-mthumb' "
 525      70753D63 
 525      6F727465 
 525      782D6D33 
 525      2720272D 
 526 0033 272D6767 		.ascii	"'-ggdb' '-O2' '-fomit-frame-pointer' '-falign-funct"
 526      64622720 
 526      272D4F32 
 526      2720272D 
 526      666F6D69 
 527 0066 696F6E73 		.ascii	"ions=16' '-ffunction-sections' '-fdata-sections' '-"
 527      3D313627 
 527      20272D66 
 527      66756E63 
 527      74696F6E 
ARM GAS  /tmp/ccMOFhog.s 			page 42


 528 0099 666E6F2D 		.ascii	"fno-common' '-flto'\000"
 528      636F6D6D 
 528      6F6E2720 
 528      272D666C 
 528      746F2700 
 529              		.text
 530              		.cfi_sections	.debug_frame
 531              		.section	.text._vt_init,"ax",%progbits
 532              		.align	2
 533              		.p2align 4,,15
 534              		.global	_vt_init
 535              		.thumb
 536              		.thumb_func
 537              		.type	_vt_init, %function
 538              	_vt_init:
 539              	.LFB188:
 540              		.file 1 "../os/rt/src/chvt.c"
 541              		.loc 1 61 0
 542              		.cfi_startproc
 543              		@ args = 0, pretend = 0, frame = 0
 544              		@ frame_needed = 0, uses_anonymous_args = 0
 545              		@ link register save eliminated.
 546              		.loc 1 63 0
 547 0000 40F20003 		movw	r3, #:lower16:ch
 548 0004 C0F20003 		movt	r3, #:upper16:ch
 549 0008 03F11C02 		add	r2, r3, #28
 550              		.loc 1 65 0
 551 000c 4FF6FF70 		movw	r0, #65535
 552              		.loc 1 69 0
 553 0010 0021     		movs	r1, #0
 554              		.loc 1 65 0
 555 0012 9884     		strh	r0, [r3, #36]	@ movhi
 556              		.loc 1 69 0
 557 0014 D984     		strh	r1, [r3, #38]	@ movhi
 558              		.loc 1 63 0
 559 0016 DA61     		str	r2, [r3, #28]
 560              		.loc 1 64 0
 561 0018 1A62     		str	r2, [r3, #32]
 562 001a 7047     		bx	lr
 563              		.cfi_endproc
 564              	.LFE188:
 565              		.size	_vt_init, .-_vt_init
 566 001c AFF30080 		.section	.text.chVTDoSetI,"ax",%progbits
 567              		.align	2
 568              		.p2align 4,,15
 569              		.global	chVTDoSetI
 570              		.thumb
 571              		.thumb_func
 572              		.type	chVTDoSetI, %function
 573              	chVTDoSetI:
 574              	.LFB189:
 575              		.loc 1 96 0
 576              		.cfi_startproc
 577              		@ args = 0, pretend = 0, frame = 0
 578              		@ frame_needed = 0, uses_anonymous_args = 0
 579              	.LVL0:
 580 0000 F8B5     		push	{r3, r4, r5, r6, r7, lr}
ARM GAS  /tmp/ccMOFhog.s 			page 43


 581              		.cfi_def_cfa_offset 24
 582              		.cfi_offset 3, -24
 583              		.cfi_offset 4, -20
 584              		.cfi_offset 5, -16
 585              		.cfi_offset 6, -12
 586              		.cfi_offset 7, -8
 587              		.cfi_offset 14, -4
 588              	.LBB35:
 589              		.loc 1 117 0
 590 0002 40F20007 		movw	r7, #:lower16:ch
 591 0006 C0F20007 		movt	r7, #:upper16:ch
 592 000a BC46     		mov	ip, r7
 593 000c 5CF81C4F 		ldr	r4, [ip, #28]!
 594              	.LBB36:
 595              	.LBB37:
 596              	.LBB38:
 597              	.LBB39:
 598              		.file 2 "../os/hal/ports/STM32/LLD/TIMv1/hal_st_lld.h"
 599              		.loc 2 141 0
 600 0010 4FF08045 		mov	r5, #1073741824
 601 0014 6D6A     		ldr	r5, [r5, #36]
 602              	.LBE39:
 603              	.LBE38:
 604              	.LBE37:
 605              	.LBE36:
 606              		.loc 1 113 0
 607 0016 0129     		cmp	r1, #1
 608 0018 98BF     		it	ls
 609 001a 0221     		movls	r1, #2
 610              	.LVL1:
 611              		.loc 1 117 0
 612 001c 6445     		cmp	r4, ip
 613              	.LBE35:
 614              		.loc 1 103 0
 615 001e 0361     		str	r3, [r0, #16]
 616              		.loc 1 96 0
 617 0020 0646     		mov	r6, r0
 618              		.loc 1 104 0
 619 0022 C260     		str	r2, [r0, #12]
 620              	.LBB50:
 621              	.LBB43:
 622              	.LBB42:
 623              	.LBB41:
 624              	.LBB40:
 625              		.loc 2 141 0
 626 0024 ABB2     		uxth	r3, r5
 627              	.LVL2:
 628              	.LBE40:
 629              	.LBE41:
 630              	.LBE42:
 631              	.LBE43:
 632              		.loc 1 117 0
 633 0026 27D0     		beq	.L14
 634              	.LVL3:
 635              		.loc 1 139 0
 636 0028 FA8C     		ldrh	r2, [r7, #38]
 637              	.LVL4:
ARM GAS  /tmp/ccMOFhog.s 			page 44


 638 002a 9B1A     		subs	r3, r3, r2
 639 002c CD18     		adds	r5, r1, r3
 640 002e ADB2     		uxth	r5, r5
 641              	.LVL5:
 642              		.loc 1 141 0
 643 0030 9D42     		cmp	r5, r3
 644              		.loc 1 145 0
 645 0032 2389     		ldrh	r3, [r4, #8]
 646              		.loc 1 141 0
 647 0034 15DB     		blt	.L15
 648              		.loc 1 148 0
 649 0036 9D42     		cmp	r5, r3
 650 0038 04D2     		bcs	.L12
 651 003a 17E0     		b	.L17
 652              	.LVL6:
 653              	.L9:
 654              	.LBE50:
 655              		.loc 1 166 0
 656 003c 2468     		ldr	r4, [r4]
 657              	.LVL7:
 658              		.loc 1 165 0
 659 003e ED1A     		subs	r5, r5, r3
 660              	.LVL8:
 661              		.loc 1 164 0
 662 0040 2389     		ldrh	r3, [r4, #8]
 663              		.loc 1 165 0
 664 0042 ADB2     		uxth	r5, r5
 665              	.L12:
 666              	.LVL9:
 667              		.loc 1 164 0
 668 0044 AB42     		cmp	r3, r5
 669 0046 F9D3     		bcc	.L9
 670              		.loc 1 171 0
 671 0048 6368     		ldr	r3, [r4, #4]
 672              		.loc 1 170 0
 673 004a 3460     		str	r4, [r6]
 674              		.loc 1 171 0
 675 004c 7360     		str	r3, [r6, #4]
 676              		.loc 1 172 0
 677 004e 1E60     		str	r6, [r3]
 678              		.loc 1 173 0
 679 0050 6660     		str	r6, [r4, #4]
 680              		.loc 1 174 0
 681 0052 3581     		strh	r5, [r6, #8]	@ movhi
 682              		.loc 1 178 0
 683 0054 2289     		ldrh	r2, [r4, #8]
 684              		.loc 1 179 0
 685 0056 4FF6FF73 		movw	r3, #65535
 686              		.loc 1 178 0
 687 005a 551B     		subs	r5, r2, r5
 688              	.LVL10:
 689 005c 2581     		strh	r5, [r4, #8]	@ movhi
 690              		.loc 1 179 0
 691 005e BB84     		strh	r3, [r7, #36]	@ movhi
 692 0060 F8BD     		pop	{r3, r4, r5, r6, r7, pc}
 693              	.LVL11:
 694              	.L15:
ARM GAS  /tmp/ccMOFhog.s 			page 45


 695              	.LBB51:
 696              		.loc 1 146 0
 697 0062 2468     		ldr	r4, [r4]
 698              	.LVL12:
 699              		.loc 1 145 0
 700 0064 ED1A     		subs	r5, r5, r3
 701              	.LVL13:
 702 0066 ADB2     		uxth	r5, r5
 703              	.LVL14:
 704 0068 2389     		ldrh	r3, [r4, #8]
 705 006a EBE7     		b	.L12
 706              	.L17:
 707              	.LVL15:
 708              		.loc 1 151 0
 709 006c A818     		adds	r0, r5, r2
 710              	.LVL16:
 711              	.LBB44:
 712              	.LBB45:
 713              		.file 3 "../os/common/ports/ARMCMx/chcore_timer.h"
 714              		.loc 3 95 0
 715 006e 80B2     		uxth	r0, r0
 716 0070 FFF7FEFF 		bl	stSetAlarm
 717              	.LVL17:
 718 0074 2389     		ldrh	r3, [r4, #8]
 719 0076 E5E7     		b	.L12
 720              	.LVL18:
 721              	.L14:
 722              	.LBE45:
 723              	.LBE44:
 724              		.loc 1 129 0
 725 0078 C818     		adds	r0, r1, r3
 726              	.LVL19:
 727              		.loc 1 121 0
 728 007a FB84     		strh	r3, [r7, #38]	@ movhi
 729              		.loc 1 122 0
 730 007c FE61     		str	r6, [r7, #28]
 731              		.loc 1 123 0
 732 007e 3E62     		str	r6, [r7, #32]
 733              	.LBB46:
 734              	.LBB47:
 735              		.loc 3 73 0
 736 0080 80B2     		uxth	r0, r0
 737              	.LBE47:
 738              	.LBE46:
 739              		.loc 1 124 0
 740 0082 3460     		str	r4, [r6]
 741              		.loc 1 125 0
 742 0084 7460     		str	r4, [r6, #4]
 743              		.loc 1 126 0
 744 0086 3181     		strh	r1, [r6, #8]	@ movhi
 745              	.LVL20:
 746              	.LBE51:
 747              		.loc 1 180 0
 748 0088 BDE8F840 		pop	{r3, r4, r5, r6, r7, lr}
 749              	.LVL21:
 750              	.LBB52:
 751              	.LBB49:
ARM GAS  /tmp/ccMOFhog.s 			page 46


 752              	.LBB48:
 753              		.loc 3 73 0
 754 008c FFF7FEBF 		b	stStartAlarm
 755              	.LVL22:
 756              	.LBE48:
 757              	.LBE49:
 758              	.LBE52:
 759              		.cfi_endproc
 760              	.LFE189:
 761              		.size	chVTDoSetI, .-chVTDoSetI
 762              		.section	.text.chVTDoResetI,"ax",%progbits
 763              		.align	2
 764              		.p2align 4,,15
 765              		.global	chVTDoResetI
 766              		.thumb
 767              		.thumb_func
 768              		.type	chVTDoResetI, %function
 769              	chVTDoResetI:
 770              	.LFB190:
 771              		.loc 1 190 0
 772              		.cfi_startproc
 773              		@ args = 0, pretend = 0, frame = 0
 774              		@ frame_needed = 0, uses_anonymous_args = 0
 775              		@ link register save eliminated.
 776              	.LVL23:
 777              		.loc 1 214 0
 778 0000 40F20003 		movw	r3, #:lower16:ch
 779 0004 C0F20003 		movt	r3, #:upper16:ch
 780 0008 DA69     		ldr	r2, [r3, #28]
 781              		.loc 1 190 0
 782 000a 70B4     		push	{r4, r5, r6}
 783              		.cfi_def_cfa_offset 12
 784              		.cfi_offset 4, -12
 785              		.cfi_offset 5, -8
 786              		.cfi_offset 6, -4
 787              		.loc 1 214 0
 788 000c 8242     		cmp	r2, r0
 789 000e 0FD0     		beq	.L19
 790              		.loc 1 216 0
 791 0010 0268     		ldr	r2, [r0]
 792 0012 4168     		ldr	r1, [r0, #4]
 793              		.loc 1 221 0
 794 0014 1C33     		adds	r3, r3, #28
 795              		.loc 1 216 0
 796 0016 0A60     		str	r2, [r1]
 797              		.loc 1 217 0
 798 0018 0268     		ldr	r2, [r0]
 799              		.loc 1 218 0
 800 001a 0024     		movs	r4, #0
 801              		.loc 1 221 0
 802 001c 9A42     		cmp	r2, r3
 803              		.loc 1 217 0
 804 001e 5160     		str	r1, [r2, #4]
 805              		.loc 1 218 0
 806 0020 C460     		str	r4, [r0, #12]
 807              		.loc 1 221 0
 808 0022 03D0     		beq	.L18
ARM GAS  /tmp/ccMOFhog.s 			page 47


 809              		.loc 1 222 0
 810 0024 0189     		ldrh	r1, [r0, #8]
 811 0026 1389     		ldrh	r3, [r2, #8]
 812 0028 0B44     		add	r3, r3, r1
 813 002a 1381     		strh	r3, [r2, #8]	@ movhi
 814              	.LVL24:
 815              	.L18:
 816              		.loc 1 268 0
 817 002c 70BC     		pop	{r4, r5, r6}
 818 002e 7047     		bx	lr
 819              	.LVL25:
 820              	.L19:
 821              	.LBB63:
 822              	.LBB64:
 823              		.loc 1 228 0
 824 0030 1168     		ldr	r1, [r2]
 825 0032 1846     		mov	r0, r3
 826              	.LVL26:
 827 0034 40F81C1F 		str	r1, [r0, #28]!
 828              		.loc 1 230 0
 829 0038 0024     		movs	r4, #0
 830              		.loc 1 233 0
 831 003a 8142     		cmp	r1, r0
 832              		.loc 1 229 0
 833 003c 4860     		str	r0, [r1, #4]
 834              		.loc 1 230 0
 835 003e D460     		str	r4, [r2, #12]
 836              		.loc 1 233 0
 837 0040 17D0     		beq	.L26
 838              	.LBB65:
 839              	.LBB66:
 840              	.LBB67:
 841              	.LBB68:
 842              		.loc 2 141 0
 843 0042 4FF08040 		mov	r0, #1073741824
 844 0046 466A     		ldr	r6, [r0, #36]
 845              	.LBE68:
 846              	.LBE67:
 847              	.LBE66:
 848              	.LBE65:
 849              		.loc 1 240 0
 850 0048 1589     		ldrh	r5, [r2, #8]
 851              		.loc 1 249 0
 852 004a D88C     		ldrh	r0, [r3, #38]
 853              		.loc 1 240 0
 854 004c 0C89     		ldrh	r4, [r1, #8]
 855              	.LBB72:
 856              	.LBB71:
 857              	.LBB70:
 858              	.LBB69:
 859              		.loc 2 141 0
 860 004e B2B2     		uxth	r2, r6
 861              	.LVL27:
 862              	.LBE69:
 863              	.LBE70:
 864              	.LBE71:
 865              	.LBE72:
ARM GAS  /tmp/ccMOFhog.s 			page 48


 866              		.loc 1 240 0
 867 0050 2B19     		adds	r3, r5, r4
 868              		.loc 1 249 0
 869 0052 101A     		subs	r0, r2, r0
 870              		.loc 1 240 0
 871 0054 9BB2     		uxth	r3, r3
 872              		.loc 1 249 0
 873 0056 80B2     		uxth	r0, r0
 874              	.LVL28:
 875              		.loc 1 253 0
 876 0058 8342     		cmp	r3, r0
 877              		.loc 1 240 0
 878 005a 0B81     		strh	r3, [r1, #8]	@ movhi
 879              		.loc 1 253 0
 880 005c E6D9     		bls	.L18
 881              	.LBE64:
 882              	.LBE63:
 883              		.loc 1 268 0
 884 005e 70BC     		pop	{r4, r5, r6}
 885              	.LBB79:
 886              	.LBB77:
 887              		.loc 1 258 0
 888 0060 1B1A     		subs	r3, r3, r0
 889 0062 9BB2     		uxth	r3, r3
 890              	.LVL29:
 891              		.loc 1 263 0
 892 0064 012B     		cmp	r3, #1
 893 0066 98BF     		it	ls
 894 0068 0223     		movls	r3, #2
 895              	.LVL30:
 896              		.loc 1 266 0
 897 006a 9818     		adds	r0, r3, r2
 898              	.LVL31:
 899              	.LBB73:
 900              	.LBB74:
 901              		.loc 3 95 0
 902 006c 80B2     		uxth	r0, r0
 903 006e FFF7FEBF 		b	stSetAlarm
 904              	.LVL32:
 905              	.L26:
 906              	.LBE74:
 907              	.LBE73:
 908              	.LBE77:
 909              	.LBE79:
 910              		.loc 1 268 0
 911 0072 70BC     		pop	{r4, r5, r6}
 912              	.LBB80:
 913              	.LBB78:
 914              	.LBB75:
 915              	.LBB76:
 916              		.loc 3 83 0
 917 0074 FFF7FEBF 		b	stStopAlarm
 918              	.LVL33:
 919              	.LBE76:
 920              	.LBE75:
 921              	.LBE78:
 922              	.LBE80:
ARM GAS  /tmp/ccMOFhog.s 			page 49


 923              		.cfi_endproc
 924              	.LFE190:
 925              		.size	chVTDoResetI, .-chVTDoResetI
 926 0078 AFF30080 		.text
 926      AFF30080 
 927              	.Letext0:
 928              		.file 4 "/usr/include/newlib/machine/_default_types.h"
 929              		.file 5 "/usr/include/newlib/stdint.h"
 930              		.file 6 "../os/common/ports/ARMCMx/compilers/GCC/chtypes.h"
 931              		.file 7 "../os/rt/include/chsystypes.h"
 932              		.file 8 "../os/rt/include/chschd.h"
 933              		.file 9 "../os/common/ports/ARMCMx/chcore.h"
 934              		.file 10 "../os/common/ports/ARMCMx/chcore_v7m.h"
 935              		.file 11 "../os/hal/ports/STM32/LLD/TIMv1/stm32_tim.h"
 936              		.file 12 "../os/rt/include/chsem.h"
 937              		.file 13 "../os/rt/include/chmtx.h"
 938              		.file 14 "../os/rt/include/chvt.h"
 939              		.file 15 "../os/hal/include/hal_st.h"
 940              		.file 16 "../os/common/ext/CMSIS/include/core_cm3.h"