ARM GAS  /tmp/cchPklP4.s 			page 1


   1              		.syntax unified
   2              		.cpu cortex-m3
   3              		.fpu softvfp
   4              		.eabi_attribute 20, 1
   5              		.eabi_attribute 21, 1
   6              		.eabi_attribute 23, 3
   7              		.eabi_attribute 24, 1
   8              		.eabi_attribute 25, 1
   9              		.eabi_attribute 26, 1
  10              		.eabi_attribute 30, 2
  11              		.eabi_attribute 34, 1
  12              		.eabi_attribute 18, 4
  13              		.thumb
  14              		.file	"hal.c"
  15              		.text
  16              	.Ltext0:
  17              		.section	.gnu.lto_.jmpfuncs.6c448451891a3fff,"",%progbits
  18 0000 789C6362 		.ascii	"x\234cb`b\300\006d\2404#\224b\252f\370\3250\243A \223"
  18      6062C006 
  18      64A03423 
  18      9462AA66 
  18      F8D530A3 
  19 0017 9121172A 		.ascii	"\221!\027*\306\000\000@\270\004\032"
  19      C6000040 
  19      B8041A
  20              		.text
  21              		.section	.gnu.lto_.inline.6c448451891a3fff,"",%progbits
  22 0000 789C6362 		.ascii	"x\234cb`b\300\006\214\2414#\003\003\227=#X\021\333\002"
  22      6062C006 
  22      8CA13423 
  22      0303973D 
  22      235811DB 
  23 0015 79B05A46 		.ascii	"y\260ZF.L\202\211\033\244\024\314d\000\000>\231\001"
  23      2E4C8289 
  23      1BA414CC 
  23      6400003E 
  23      9901
  24 0027 91       		.ascii	"\221"
  25              		.text
  26              		.section	.gnu.lto_.pureconst.6c448451891a3fff,"",%progbits
  27 0000 789C6362 		.ascii	"x\234cb`b`f\200\000F\006\011\000\000\203\000!"
  27      60626066 
  27      80004606 
  27      09000083 
  27      0021
  28              		.text
  29              		.section	.gnu.lto_halInit.6c448451891a3fff,"",%progbits
  30 0000 789C6362 		.ascii	"x\234cb`b@\007\222@\354\311\310\300 \006\244\031\231"
  30      60624007 
  30      9240ECC9 
  30      C8C02006 
  30      A41999
  31 0013 19189926 		.ascii	"\031\030\231&\234c`h\344`bd\0041\030\030\031\352\231"
  31      9C636068 
  31      E4606264 
  31      04311818 
  31      19EA99
ARM GAS  /tmp/cchPklP4.s 			page 2


  32 0026 18EB2319 		.ascii	"\030\353#\031\301j\3273\035x\360\377\377\272\017\033"
  32      C16AD733 
  32      1D78F0FF 
  32      FFBA0F1B 
  33 0036 1FAE6414 		.ascii	"\037\256d\024\342\000\012\2602\26444LP``H\006+\010\001"
  33      E2000AB0 
  33      32B43434 
  33      4C506060 
  33      48062B08 
  34 004b 92205DA1 		.ascii	"\222 ]\241\214L \232\371<C\363\203\177v\211\214\013"
  34      8C4C209A 
  34      F93C43F3 
  34      837F7689 
  34      8C0B
  35 005d 195981B2 		.ascii	"\031Y\201\262\325\014\277\032:\032\0042\031\201\252"
  35      D50CBF1A 
  35      3A1A0432 
  35      1981AA
  36 006c 21E66582 		.ascii	"!\346e\202\350\363\014-\017:\2231\0241%3B\034\013\022"
  36      E8F30C2D 
  36      0F3A9331 
  36      14312533 
  36      421C0B12 
  37 0080 91C86464 		.ascii	"\221\310dd\316ed\200*\312dd\001ik~\260\3770\0336\303"
  37      CE656480 
  37      2ACA6464 
  37      01696B7E 
  37      B0FF301B 
  38 0096 99910D6F 		.ascii	"\231\221\015o~pv1VU,\250\252f\264\262cS\305\212\252"
  38      7E707631 
  38      56552CA8 
  38      AA66B4B2 
  38      6353C58A 
  39 00ab 6AFE52AC 		.ascii	"j\376R\254f\261!T]dh|\260R\025\246\010\002B\200\022"
  39      66B12154 
  39      5D64687C 
  39      B05215A6 
  39      08024280 
  40 00c0 C0F000F9 		.ascii	"\300\360\000\371GDOO?\277X?#1G\277\270(\031D\353%3\000"
  40      47444F4F 
  40      3FBF583F 
  40      233147BF 
  40      B8281944 
  41 00d8 00F2B058 		.ascii	"\000\362\260X,"
  41      2C
  42              		.text
  43              		.section	.gnu.lto_.symbol_nodes.6c448451891a3fff,"",%progbits
  44 0000 789C45C8 		.ascii	"x\234E\310\273\015\2050\020D\321\2315\206\262\007\211"
  44      BB0D8530 
  44      1044D199 
  44      3586B207 
  44      89
  45 0011 84900210 		.ascii	"\204\220\002\020\011\245\220\323\000\377\367\372@\030"
  45      09A590D3 
  45      00FFF7FA 
  45      4018
  46 001f 83F02667 		.ascii	"\203\360&g\357\030\014-\336\263\211\002\232\021\220"
ARM GAS  /tmp/cchPklP4.s 			page 3


  46      EF180C2D 
  46      DEB38902 
  46      9A1190
  47 002e BA9A7E65 		.ascii	"\272\232~e\370\300\037\305g-K\362\240,\325N\271T\033"
  47      F8C01FC5 
  47      672D4BF2 
  47      A02CD54E 
  47      B9541B
  48 0041 95A55A28 		.ascii	"\225\245Z(\237j\246\362\257\034\012T\373\031\314\321"
  48      9F6AA6F2 
  48      AF1C0A54 
  48      FB19CCD1 
  49 0051 473D8668 		.ascii	"G=\206h\206\177\324\241:n\015}\020\027\203\300/\311"
  49      867FD4A1 
  49      3A6E0D7D 
  49      101783C0 
  49      2FC9
  50              		.text
  51              		.section	.gnu.lto_.refs.6c448451891a3fff,"",%progbits
  52 0000 789C6362 		.ascii	"x\234cb`b`e\200\000F\006&F\006\000\000\237\000\016"
  52      60626065 
  52      80004606 
  52      26460600 
  52      009F000E 
  53              		.text
  54              		.section	.gnu.lto_.decls.6c448451891a3fff,"",%progbits
  55 0000 789C9596 		.ascii	"x\234\225\226al\023e\030\307\237\367nt\253\324\221,"
  55      616C1365 
  55      18C79FF7 
  55      6E74ABD4 
  55      912C
  56 0012 4A44252B 		.ascii	"JD%+&\370a\211=\201O$\206\0047\234#\023\026\021\242"
  56      26F86189 
  56      3D814F24 
  56      8604379C 
  56      23131611 
  57 0027 9FCEA32D 		.ascii	"\237\316\243-\364L\3276\275\253\340'_&\014\342\027\013"
  57      F44CD736 
  57      BDABE027 
  57      5F260CE2 
  57      170B
  58 0039 01129590 		.ascii	"\001\022\225\220\016\250\200\231\242F\015\304\231\225"
  58      0EA88099 
  58      A2460DC4 
  58      9995
  59 0047 85D13A01 		.ascii	"\205\321:\001]\250\014\344\203M\214\337k\010!\232\205"
  59      5DA80CE4 
  59      834D8CDF 
  59      6B08219A 
  59      85
  60 0058 F2BCEFDD 		.ascii	"\362\274\357\335\365z\333\035\353\336\344y\337\273\335"
  60      F57ADB1D 
  60      EBDEE479 
  60      DFBBDD
  61 0067 FFF93DCF 		.ascii	"\377\371=\317\363>\367\336*\200\000'\000\240\206\243"
  61      F33EF7DE 
  61      2A800027 
ARM GAS  /tmp/cchPklP4.s 			page 4


  61      00A086A3 
  62 0077 DA062008 		.ascii	"\332\006 \010hx\277\001\215\240\215\2001Z\321\256\240"
  62      6878BF01 
  62      8DA08D80 
  62      315AD1AE 
  62      A0
  63 0088 95D0A6D0 		.ascii	"\225\320\246\320\256\241\335@\373\035\255ljo\201s0\375"
  63      AEA1DD40 
  63      FB1DAD6C 
  63      6A6F8173 
  63      30FD
  64 009a 12B4DB68 		.ascii	"\022\264\333h\223hwL\336\364\034f\331\344\3340\271S"
  64      9368774C 
  64      DEF41C66 
  64      D9E4DC30 
  64      B953
  65 00ac 661C37E6 		.ascii	"f\0347\346R\370\230\322!\232\033\246\257\227\332;\340"
  65      52F898D2 
  65      219A1BA6 
  65      AF97DA3B 
  65      E0
  66 00bd 30C591A3 		.ascii	"0\305\221\243\224\224\332\001\336&\012i\367CE\344W\001"
  66      9494DA01 
  66      DE260A69 
  66      F74345E4 
  66      5701
  67 00cf 3FBC820E 		.ascii	"?\274\202\016\253\341\014\245\331J\376\354\012\332b"
  67      ABE10CA5 
  67      D94AFEEC 
  67      0ADA62
  68 00de EA839E62 		.ascii	"\352\203\236b\205\234&\253aA\031\023\346I\007t\301y"
  68      859C26AB 
  68      61411913 
  68      E6490774 
  68      C179
  69 00f0 D465299D 		.ascii	"\324e)\235x\326\221$\217I\013\377\026\003\264\305P2"
  69      78D69124 
  69      8F490BFF 
  69      1603B4C5 
  69      5032
  70 0102 8F2F4817 		.ascii	"\217/H\027\270\214U\220c\342\373\305\023\204\346&\210"
  70      B88C5590 
  70      63E2FBC5 
  70      1384E626 
  70      88
  71 0113 4BF077AD 		.ascii	"K\360w\255\330\201z=\205\361\"\011*\344<\312\005XO\034"
  71      D8817A3D 
  71      85F12209 
  71      2AE43CCA 
  71      05584F1C 
  72 0127 F485082C 		.ascii	"\364\205\010,\227Qt4|\314\\\2775r\035m\"\327\241\302"
  72      97517434 
  72      7CCC5CBF 
  72      35721D6D 
  72      22D7A1C2 
  73 013b 0FC5A32B 		.ascii	"\017\305\243+X\256~8d7\243\036,h\005k\261\267\377\322"
  73      58AE7E38 
ARM GAS  /tmp/cchPklP4.s 			page 5


  73      6437A31E 
  73      2C68056B 
  73      B1B7FFD2 
  74 014f F0E46532 		.ascii	"\360\344e2\204}R\310\005t\023\340=g\316\315\223f\016"
  74      847D52C8 
  74      057413E0 
  74      3D67CECD 
  74      93660E
  75 0162 8EADA7B4 		.ascii	"\216\255\247\264M!\337q\316\010q\202\024\322\352o\314"
  75      4D21DF71 
  75      CE087182 
  75      14D2EA6F 
  75      CC
  76 0173 98DF5B02 		.ascii	"\230\337[\002F\343\217\315\013\366\322/\203\305\312"
  76      46E38FCD 
  76      0BF6D22F 
  76      83C5CA
  77 0182 0518E541 		.ascii	"\005\030\345A\331^\271%j^\032\303\0248\366\257r\340"
  77      D95EB925 
  77      6A5E1AC3 
  77      1438F6AF 
  77      72E0
  78 0194 4149F894 		.ascii	"AI\370\224\026\366\213\326n|\263h`\320\321\220\261b"
  78      16F68BD6 
  78      6E7CB368 
  78      60D0D190 
  78      B162
  79 01a6 20AB58B0 		.ascii	" \253X\260\357\233\201\265\271d\3476\032_\025\205|\205"
  79      EF9B81B5 
  79      B964E736 
  79      1A5F1585 
  79      7C85
  80 01b8 A743215F 		.ascii	"\247C!_\223U8\377\310\347\2138\327\207\000\027y\354"
  80      935538FF 
  80      C8E78B38 
  80      D7870017 
  80      79EC
  81 01ca BC1DDBF1 		.ascii	"\274\035\333\361\346-\2643\264\360\237y\012\254W{\274"
  81      E62DB433 
  81      B4F09F79 
  81      0AAC577B 
  81      BC
  82 01db 199EA396 		.ascii	"\031\236\243\226\240\2037\333\313\366\305`]m\206\365"
  82      A08337DB 
  82      CBF6C560 
  82      5D6D86F5 
  83 01eb 8C776ED9 		.ascii	"\214wn\331\3156\353z3\254\240w^\307\033X\345fX/?\256"
  83      CD36EB7A 
  83      33ACA077 
  83      5EC71B58 
  83      E566582F 
  84 0201 5F567BCE 		.ascii	"_V{\316\362\366\234\343\215\371\211\317?\363y\234\317"
  84      F2F69CE3 
  84      8DF989CF 
  84      3FF3799C 
  84      CF
  85 0212 979DADBA 		.ascii	"\227\235\255\272;\357\344\030\037\252\006j\276\336z"
ARM GAS  /tmp/cchPklP4.s 			page 6


  85      3BEFE418 
  85      1FAA066A 
  85      BEDE7A
  86 0221 6896EBF6 		.ascii	"h\226\353\366\3121\347\021\262\324\222t\302I\232\253"
  86      CA31E711 
  86      B2D49274 
  86      C2499AAB 
  87 0231 543EFF64 		.ascii	"T>\377d\314\307\016\001\255\325>\204\345p\214\177\311"
  87      CCC70E01 
  87      ADD53E84 
  87      E5708C7F 
  87      C9
  88 0242 87F113A1 		.ascii	"\207\361\023\241+d\303\323\236\240I\262\334\274\332"
  88      2B64C3D3 
  88      9EA049B2 
  88      DCBCDA
  89 0251 2E5AA5FC 		.ascii	".Z\245\374?\247\024\200\027!\317x\364\034\0259\215\351"
  89      3FA71480 
  89      1721CF78 
  89      F41C1539 
  89      8DE9
  90 0263 AF904E67 		.ascii	"\257\220NgyW\211\320\370\007\226W%[9vdf\0379\374Q\256"
  90      795789D0 
  90      F8079657 
  90      255B3976 
  90      64661F39 
  91 027a 44ABECB8 		.ascii	"D\253\354\270\033\021\0058)\314\215a@~q\205|v\363\032"
  91      1B110538 
  91      29CC8D61 
  91      407E7185 
  91      7C76F31A 
  92 028e 9EF009A3 		.ascii	"\236\360\011\2438\013Q\366@\374\352\212\230\275Un\231"
  92      380B51F6 
  92      40FCEA8A 
  92      98BD556E 
  92      99
  93 029f 8778E881 		.ascii	"\207x\350\201\270\356\236\305\237\177\315G\234\022\335"
  93      B8EE9EC5 
  93      9F7FCD47 
  93      9C12DD
  94 02ae 11BFB922 		.ascii	"\021\277\271\"\366?\230\"\207\216\320\331ZM\\D\223\246"
  94      F63F9822 
  94      878ED0D9 
  94      5A4D5C44 
  94      93A6
  95 02c0 CD2689FC 		.ascii	"\315&\211\374\267\204\331~\273c\274i_z\344q\3235\217"
  95      B784D97E 
  95      BB63BC69 
  95      5F7AE471 
  95      D3358F
  96 02d3 EADD1971 		.ascii	"\352\335\031q^)\177{ \376p\"^\200\021Z\315V\376\271"
  96      5E297F7B 
  96      20FE7022 
  96      5E80115A 
  96      CD56FEB9 
  97 02e7 3721EE63 		.ascii	"7!\356c\010V\015\301\204O\361\343W\255C<\377\327\317"
  97      08560DC1 
ARM GAS  /tmp/cchPklP4.s 			page 7


  97      844FF1E3 
  97      57AD433C 
  97      FFD7CF
  98 02fa D83CC7EF 		.ascii	"\330<\307\357\017#\017\257M\270\315k\256g7\307s\372"
  98      0F230FAF 
  98      4DB8CD6B 
  98      AE6737C7 
  98      73FA
  99 030c 319E77EC 		.ascii	"1\236w\354\303\002R($%5)\246\304\245T2\255k\322\266"
  99      C3025228 
  99      24253529 
  99      A6C4A554 
  99      32AD6BD2 
 100 0321 B7DE58B7 		.ascii	"\267\336X\267V\352\357\357\221z\007\372\266\276\277"
 100      56EAEFEF 
 100      917A07FA 
 100      B6BEBF
 101 0330 863D9253 		.ascii	"\206=\222Sh\361x$\024\003_\357\226\355\301n\350\320"
 101      68F17824 
 101      14035FEF 
 101      96EDC16E 
 101      E8D0
 102 0342 F4C1756B 		.ascii	"\364\301uk\345\335)5)kQ=\223\222\365\225RFKKj\"\034"
 102      E5DD2935 
 102      296B513D 
 102      9392F595 
 102      52464B4B 
 103 0359 CF44A252 		.ascii	"\317D\242R\"\272'\256\356\2244=\242&t\364k\313\340\212"
 103      22BA27AE 
 103      EE94343D 
 103      A22674F4 
 103      6BCBE08A 
 104 036d 1EFA4B6E 		.ascii	"\036\372Kn\262A%\034S\023QI\216Dw)\231\270.\353\037"
 104      B241251C 
 104      53135149 
 104      8E447729 
 104      99B82EEB 
 105 0382 A4A21ABA 		.ascii	"\244\242\032\272=!\313\226\243\230\214\244\305p:\216"
 105      3D21CB96 
 105      A3988CA4 
 105      C5703A8E 
 106 0392 16F30D6C 		.ascii	"\026\363\015l\354Qt\3057\360\252\261t\033K\217\261l"
 106      EC5174C5 
 106      37F0AAB1 
 106      741B4B8F 
 106      B16C
 107 03a4 628B7F60 		.ascii	"b\213\177`c\177w2\261K\335\375\224]\242\226\016\263"
 107      637F7732 
 107      B14BDDFD 
 107      945DA296 
 107      0EB3
 108 03b6 35148656 		.ascii	"5\024\206V\\\372\022\252\376\234\375\320\312\211\025"
 108      5CFA12AA 
 108      FE9CFDD0 
 108      CA8915
 109 03c5 ACB19C7D 		.ascii	"\254\261\234}\232\316$![\2623\251\244#l\217d\276M;\372"
 109      9ACE2421 
ARM GAS  /tmp/cchPklP4.s 			page 8


 109      5BB233A9 
 109      A4236C8F 
 109      64BE4D3B 
 110 03da E59EBE6D 		.ascii	"\345\236\276m\335[wlz\363\035\343\031z\371\371\005s"
 110      DD5B776C 
 110      7AF31DE3 
 110      197AF9F9 
 110      0573
 111 03ec ECF46047 		.ascii	"\354\364`G\323*\346\300\370\\\366\274\273,\265g\020"
 111      D32AE6C0 
 111      F85CF6BC 
 111      BB2CB567 
 111      10
 112 03fd 35ADB830 		.ascii	"5\255\2700\321\223V\017d\025\357\272\334\273\306\347"
 112      D193560F 
 112      6415EFBA 
 112      DCBBC6E7 
 113 040d D7D6ECDD 		.ascii	"\327\326\354\335\313\001F\303\002\261\006\277\016\006"
 113      CB0146C3 
 113      02B106BF 
 113      0E06
 114 041b B1F638CC 		.ascii	"\261\3668\314w\347\021\346\363q0"
 114      77E711E6 
 114      F37130
 115              		.text
 116              		.section	.gnu.lto_.symtab.6c448451891a3fff,"",%progbits
 117 0000 68616C49 		.ascii	"halInit\000\000\000\000\000\000\000\000\000\000\000"
 117      6E697400 
 117      00000000 
 117      00000000 
 117      0000
 118 0012 00C40000 		.ascii	"\000\304\000\000\000pal_default_config\000\000\002\000"
 118      0070616C 
 118      5F646566 
 118      61756C74 
 118      5F636F6E 
 119 002d 00000000 		.ascii	"\000\000\000\000\000\000\000\000\326\000\000\000stI"
 119      00000000 
 119      D6000000 
 119      737449
 120 003c 6E697400 		.ascii	"nit\000\000\002\000\000\000\000\000\000\000\000\000"
 120      00020000 
 120      00000000 
 120      000000
 121 004b C8000000 		.ascii	"\310\000\000\000boardInit\000\000\002\000\000\000\000"
 121      626F6172 
 121      64496E69 
 121      74000002 
 121      00000000 
 122 005f 00000000 		.ascii	"\000\000\000\000\000\312\000\000\000sdInit\000\000\002"
 122      00CA0000 
 122      00736449 
 122      6E697400 
 122      0002
 123 0071 00000000 		.ascii	"\000\000\000\000\000\000\000\000\000\314\000\000\000"
 123      00000000 
 123      00CC0000 
ARM GAS  /tmp/cchPklP4.s 			page 9


 123      00
 124 007e 70776D49 		.ascii	"pwmInit\000\000\002\000\000\000\000\000\000\000\000"
 124      6E697400 
 124      00020000 
 124      00000000 
 124      0000
 125 0090 00CE0000 		.ascii	"\000\316\000\000\000_pal_lld_init\000\000\002\000\000"
 125      005F7061 
 125      6C5F6C6C 
 125      645F696E 
 125      69740000 
 126 00a7 00000000 		.ascii	"\000\000\000\000\000\000\000\320\000\000\000hal_lld"
 126      000000D0 
 126      00000068 
 126      616C5F6C 
 126      6C64
 127 00b9 5F696E69 		.ascii	"_init\000\000\002\000\000\000\000\000\000\000\000\000"
 127      74000002 
 127      00000000 
 127      00000000 
 127      00
 128 00ca D4000000 		.ascii	"\324\000\000\000"
 129              		.text
 130              		.section	.gnu.lto_.opts,"",%progbits
 131 0000 272D6D63 		.ascii	"'-mcpu=cortex-m3' '-mno-thumb-interwork' '-mthumb' "
 131      70753D63 
 131      6F727465 
 131      782D6D33 
 131      2720272D 
 132 0033 272D6767 		.ascii	"'-ggdb' '-O2' '-fomit-frame-pointer' '-falign-funct"
 132      64622720 
 132      272D4F32 
 132      2720272D 
 132      666F6D69 
 133 0066 696F6E73 		.ascii	"ions=16' '-ffunction-sections' '-fdata-sections' '-"
 133      3D313627 
 133      20272D66 
 133      66756E63 
 133      74696F6E 
 134 0099 666E6F2D 		.ascii	"fno-common' '-flto'\000"
 134      636F6D6D 
 134      6F6E2720 
 134      272D666C 
 134      746F2700 
 135              		.text
 136              		.cfi_sections	.debug_frame
 137              		.section	.text.halInit,"ax",%progbits
 138              		.align	2
 139              		.p2align 4,,15
 140              		.global	halInit
 141              		.thumb
 142              		.thumb_func
 143              		.type	halInit, %function
 144              	halInit:
 145              	.LFB219:
 146              		.file 1 "../os/hal/src/hal.c"
 147              		.loc 1 56 0
ARM GAS  /tmp/cchPklP4.s 			page 10


 148              		.cfi_startproc
 149              		@ args = 0, pretend = 0, frame = 0
 150              		@ frame_needed = 0, uses_anonymous_args = 0
 151 0000 08B5     		push	{r3, lr}
 152              		.cfi_def_cfa_offset 8
 153              		.cfi_offset 3, -8
 154              		.cfi_offset 14, -4
 155              		.loc 1 62 0
 156 0002 FFF7FEFF 		bl	hal_lld_init
 157              	.LVL0:
 158              		.loc 1 65 0
 159 0006 40F20000 		movw	r0, #:lower16:pal_default_config
 160 000a C0F20000 		movt	r0, #:upper16:pal_default_config
 161 000e FFF7FEFF 		bl	_pal_lld_init
 162              	.LVL1:
 163              		.loc 1 95 0
 164 0012 FFF7FEFF 		bl	pwmInit
 165              	.LVL2:
 166              		.loc 1 101 0
 167 0016 FFF7FEFF 		bl	sdInit
 168              	.LVL3:
 169              		.loc 1 136 0
 170 001a FFF7FEFF 		bl	boardInit
 171              	.LVL4:
 172              		.loc 1 145 0
 173 001e BDE80840 		pop	{r3, lr}
 174              		.loc 1 143 0
 175 0022 FFF7FEBF 		b	stInit
 176              	.LVL5:
 177              		.cfi_endproc
 178              	.LFE219:
 179              		.size	halInit, .-halInit
 180 0026 00BFAFF3 		.text
 180      0080AFF3 
 180      0080
 181              	.Letext0:
 182              		.file 2 "/usr/include/newlib/machine/_default_types.h"
 183              		.file 3 "/usr/include/newlib/stdint.h"
 184              		.file 4 "../os/common/ports/ARMCMx/compilers/GCC/chtypes.h"
 185              		.file 5 "../os/rt/include/chsystypes.h"
 186              		.file 6 "../os/rt/include/chschd.h"
 187              		.file 7 "../os/common/ports/ARMCMx/chcore.h"
 188              		.file 8 "../os/common/ports/ARMCMx/chcore_v7m.h"
 189              		.file 9 "../os/rt/include/chsem.h"
 190              		.file 10 "../os/rt/include/chmtx.h"
 191              		.file 11 "../os/hal/ports/STM32/LLD/GPIOv1/hal_pal_lld.h"
 192              		.file 12 "../os/common/ext/CMSIS/include/core_cm3.h"
 193              		.file 13 "../os/hal/ports/STM32/STM32F1xx/hal_lld.h"
 194              		.file 14 "../os/hal/include/hal_pwm.h"
 195              		.file 15 "../os/hal/include/hal_serial.h"
 196              		.file 16 "../os/hal/boards/ST_STM32VL_DISCOVERY/board.h"
 197              		.file 17 "../os/hal/include/hal_st.h"
 198              		.file 18 "../os/hal/osal/rt/osal.h"
 199              		.section	.debug_info,"",%progbits
 200              	.Ldebug_info0:
 201 0000 1F070000 		.4byte	0x71f
 202 0004 0400     		.2byte	0x4
ARM GAS  /tmp/cchPklP4.s 			page 11


 203 0006 00000000 		.4byte	.Ldebug_abbrev0
 204 000a 04       		.byte	0x4
 205 000b 01       		.uleb128 0x1
 206 000c 6E020000 		.4byte	.LASF103
 207 0010 01       		.byte	0x1
 208 0011 2E030000 		.4byte	.LASF104
 209 0015 BD030000 		.4byte	.LASF105
 210 0019 00000000 		.4byte	.Ldebug_ranges0+0
 211 001d 00000000 		.4byte	0
 212 0021 00000000 		.4byte	.Ldebug_line0
 213 0025 02       		.uleb128 0x2
 214 0026 04       		.byte	0x4
 215 0027 05       		.byte	0x5
 216 0028 696E7400 		.ascii	"int\000"
 217 002c 03       		.uleb128 0x3
 218 002d 04       		.byte	0x4
 219 002e 07       		.byte	0x7
 220 002f 50000000 		.4byte	.LASF0
 221 0033 03       		.uleb128 0x3
 222 0034 01       		.byte	0x1
 223 0035 06       		.byte	0x6
 224 0036 C0040000 		.4byte	.LASF1
 225 003a 04       		.uleb128 0x4
 226 003b E7030000 		.4byte	.LASF4
 227 003f 02       		.byte	0x2
 228 0040 1C       		.byte	0x1c
 229 0041 45000000 		.4byte	0x45
 230 0045 03       		.uleb128 0x3
 231 0046 01       		.byte	0x1
 232 0047 08       		.byte	0x8
 233 0048 71040000 		.4byte	.LASF2
 234 004c 03       		.uleb128 0x3
 235 004d 02       		.byte	0x2
 236 004e 05       		.byte	0x5
 237 004f 52030000 		.4byte	.LASF3
 238 0053 04       		.uleb128 0x4
 239 0054 3E010000 		.4byte	.LASF5
 240 0058 02       		.byte	0x2
 241 0059 26       		.byte	0x26
 242 005a 5E000000 		.4byte	0x5e
 243 005e 03       		.uleb128 0x3
 244 005f 02       		.byte	0x2
 245 0060 07       		.byte	0x7
 246 0061 D2040000 		.4byte	.LASF6
 247 0065 04       		.uleb128 0x4
 248 0066 71000000 		.4byte	.LASF7
 249 006a 02       		.byte	0x2
 250 006b 37       		.byte	0x37
 251 006c 70000000 		.4byte	0x70
 252 0070 03       		.uleb128 0x3
 253 0071 04       		.byte	0x4
 254 0072 05       		.byte	0x5
 255 0073 5C030000 		.4byte	.LASF8
 256 0077 04       		.uleb128 0x4
 257 0078 7F040000 		.4byte	.LASF9
 258 007c 02       		.byte	0x2
 259 007d 38       		.byte	0x38
ARM GAS  /tmp/cchPklP4.s 			page 12


 260 007e 82000000 		.4byte	0x82
 261 0082 03       		.uleb128 0x3
 262 0083 04       		.byte	0x4
 263 0084 07       		.byte	0x7
 264 0085 22040000 		.4byte	.LASF10
 265 0089 03       		.uleb128 0x3
 266 008a 08       		.byte	0x8
 267 008b 05       		.byte	0x5
 268 008c 4A020000 		.4byte	.LASF11
 269 0090 04       		.uleb128 0x4
 270 0091 C4010000 		.4byte	.LASF12
 271 0095 02       		.byte	0x2
 272 0096 4E       		.byte	0x4e
 273 0097 9B000000 		.4byte	0x9b
 274 009b 03       		.uleb128 0x3
 275 009c 08       		.byte	0x8
 276 009d 07       		.byte	0x7
 277 009e 27010000 		.4byte	.LASF13
 278 00a2 04       		.uleb128 0x4
 279 00a3 20020000 		.4byte	.LASF14
 280 00a7 03       		.byte	0x3
 281 00a8 2A       		.byte	0x2a
 282 00a9 3A000000 		.4byte	0x3a
 283 00ad 04       		.uleb128 0x4
 284 00ae 42030000 		.4byte	.LASF15
 285 00b2 03       		.byte	0x3
 286 00b3 36       		.byte	0x36
 287 00b4 53000000 		.4byte	0x53
 288 00b8 04       		.uleb128 0x4
 289 00b9 54040000 		.4byte	.LASF16
 290 00bd 03       		.byte	0x3
 291 00be 41       		.byte	0x41
 292 00bf 65000000 		.4byte	0x65
 293 00c3 04       		.uleb128 0x4
 294 00c4 E4000000 		.4byte	.LASF17
 295 00c8 03       		.byte	0x3
 296 00c9 42       		.byte	0x42
 297 00ca 77000000 		.4byte	0x77
 298 00ce 04       		.uleb128 0x4
 299 00cf 98030000 		.4byte	.LASF18
 300 00d3 03       		.byte	0x3
 301 00d4 4E       		.byte	0x4e
 302 00d5 90000000 		.4byte	0x90
 303 00d9 04       		.uleb128 0x4
 304 00da 1B030000 		.4byte	.LASF19
 305 00de 04       		.byte	0x4
 306 00df 3C       		.byte	0x3c
 307 00e0 A2000000 		.4byte	0xa2
 308 00e4 04       		.uleb128 0x4
 309 00e5 10020000 		.4byte	.LASF20
 310 00e9 04       		.byte	0x4
 311 00ea 3D       		.byte	0x3d
 312 00eb A2000000 		.4byte	0xa2
 313 00ef 04       		.uleb128 0x4
 314 00f0 1A040000 		.4byte	.LASF21
 315 00f4 04       		.byte	0x4
 316 00f5 3E       		.byte	0x3e
ARM GAS  /tmp/cchPklP4.s 			page 13


 317 00f6 A2000000 		.4byte	0xa2
 318 00fa 04       		.uleb128 0x4
 319 00fb 0E010000 		.4byte	.LASF22
 320 00ff 04       		.byte	0x4
 321 0100 40       		.byte	0x40
 322 0101 C3000000 		.4byte	0xc3
 323 0105 04       		.uleb128 0x4
 324 0106 58020000 		.4byte	.LASF23
 325 010a 04       		.byte	0x4
 326 010b 41       		.byte	0x41
 327 010c B8000000 		.4byte	0xb8
 328 0110 04       		.uleb128 0x4
 329 0111 F5000000 		.4byte	.LASF24
 330 0115 04       		.byte	0x4
 331 0116 43       		.byte	0x43
 332 0117 C3000000 		.4byte	0xc3
 333 011b 04       		.uleb128 0x4
 334 011c 49010000 		.4byte	.LASF25
 335 0120 04       		.byte	0x4
 336 0121 45       		.byte	0x45
 337 0122 B8000000 		.4byte	0xb8
 338 0126 04       		.uleb128 0x4
 339 0127 34000000 		.4byte	.LASF26
 340 012b 05       		.byte	0x5
 341 012c 35       		.byte	0x35
 342 012d AD000000 		.4byte	0xad
 343 0131 04       		.uleb128 0x4
 344 0132 97010000 		.4byte	.LASF27
 345 0136 05       		.byte	0x5
 346 0137 3F       		.byte	0x3f
 347 0138 3C010000 		.4byte	0x13c
 348 013c 05       		.uleb128 0x5
 349 013d 31020000 		.4byte	.LASF45
 350 0141 44       		.byte	0x44
 351 0142 06       		.byte	0x6
 352 0143 9A       		.byte	0x9a
 353 0144 1A020000 		.4byte	0x21a
 354 0148 06       		.uleb128 0x6
 355 0149 4E040000 		.4byte	.LASF28
 356 014d 06       		.byte	0x6
 357 014e 9B       		.byte	0x9b
 358 014f 4F020000 		.4byte	0x24f
 359 0153 00       		.byte	0
 360 0154 06       		.uleb128 0x6
 361 0155 E2010000 		.4byte	.LASF29
 362 0159 06       		.byte	0x6
 363 015a 9C       		.byte	0x9c
 364 015b FA000000 		.4byte	0xfa
 365 015f 08       		.byte	0x8
 366 0160 07       		.uleb128 0x7
 367 0161 63747800 		.ascii	"ctx\000"
 368 0165 06       		.byte	0x6
 369 0166 9D       		.byte	0x9d
 370 0167 3B040000 		.4byte	0x43b
 371 016b 0C       		.byte	0xc
 372 016c 06       		.uleb128 0x6
 373 016d 6B040000 		.4byte	.LASF30
ARM GAS  /tmp/cchPklP4.s 			page 14


 374 0171 06       		.byte	0x6
 375 0172 9F       		.byte	0x9f
 376 0173 25020000 		.4byte	0x225
 377 0177 10       		.byte	0x10
 378 0178 06       		.uleb128 0x6
 379 0179 F8040000 		.4byte	.LASF31
 380 017d 06       		.byte	0x6
 381 017e A0       		.byte	0xa0
 382 017f 25020000 		.4byte	0x225
 383 0183 14       		.byte	0x14
 384 0184 06       		.uleb128 0x6
 385 0185 FA030000 		.4byte	.LASF32
 386 0189 06       		.byte	0x6
 387 018a A7       		.byte	0xa7
 388 018b A0050000 		.4byte	0x5a0
 389 018f 18       		.byte	0x18
 390 0190 06       		.uleb128 0x6
 391 0191 09020000 		.4byte	.LASF33
 392 0195 06       		.byte	0x6
 393 0196 B0       		.byte	0xb0
 394 0197 B2050000 		.4byte	0x5b2
 395 019b 1C       		.byte	0x1c
 396 019c 06       		.uleb128 0x6
 397 019d A8040000 		.4byte	.LASF34
 398 01a1 06       		.byte	0x6
 399 01a2 B5       		.byte	0xb5
 400 01a3 E4000000 		.4byte	0xe4
 401 01a7 20       		.byte	0x20
 402 01a8 06       		.uleb128 0x6
 403 01a9 2E000000 		.4byte	.LASF35
 404 01ad 06       		.byte	0x6
 405 01ae B9       		.byte	0xb9
 406 01af D9000000 		.4byte	0xd9
 407 01b3 21       		.byte	0x21
 408 01b4 06       		.uleb128 0x6
 409 01b5 7B000000 		.4byte	.LASF36
 410 01b9 06       		.byte	0x6
 411 01ba BE       		.byte	0xbe
 412 01bb EF000000 		.4byte	0xef
 413 01bf 22       		.byte	0x22
 414 01c0 08       		.uleb128 0x8
 415 01c1 7500     		.ascii	"u\000"
 416 01c3 06       		.byte	0x6
 417 01c4 0F01     		.2byte	0x10f
 418 01c6 D5040000 		.4byte	0x4d5
 419 01ca 24       		.byte	0x24
 420 01cb 09       		.uleb128 0x9
 421 01cc 8A040000 		.4byte	.LASF37
 422 01d0 06       		.byte	0x6
 423 01d1 1401     		.2byte	0x114
 424 01d3 2B020000 		.4byte	0x22b
 425 01d7 28       		.byte	0x28
 426 01d8 09       		.uleb128 0x9
 427 01d9 28020000 		.4byte	.LASF38
 428 01dd 06       		.byte	0x6
 429 01de 1A01     		.2byte	0x11a
 430 01e0 4F020000 		.4byte	0x24f
ARM GAS  /tmp/cchPklP4.s 			page 15


 431 01e4 2C       		.byte	0x2c
 432 01e5 09       		.uleb128 0x9
 433 01e6 47000000 		.4byte	.LASF39
 434 01ea 06       		.byte	0x6
 435 01eb 2001     		.2byte	0x120
 436 01ed 10010000 		.4byte	0x110
 437 01f1 34       		.byte	0x34
 438 01f2 09       		.uleb128 0x9
 439 01f3 78010000 		.4byte	.LASF40
 440 01f7 06       		.byte	0x6
 441 01f8 2701     		.2byte	0x127
 442 01fa 9A050000 		.4byte	0x59a
 443 01fe 38       		.byte	0x38
 444 01ff 09       		.uleb128 0x9
 445 0200 3E000000 		.4byte	.LASF41
 446 0204 06       		.byte	0x6
 447 0205 2B01     		.2byte	0x12b
 448 0207 FA000000 		.4byte	0xfa
 449 020b 3C       		.byte	0x3c
 450 020c 09       		.uleb128 0x9
 451 020d 07050000 		.4byte	.LASF42
 452 0211 06       		.byte	0x6
 453 0212 3201     		.2byte	0x132
 454 0214 02030000 		.4byte	0x302
 455 0218 40       		.byte	0x40
 456 0219 00       		.byte	0
 457 021a 04       		.uleb128 0x4
 458 021b F6010000 		.4byte	.LASF43
 459 021f 05       		.byte	0x5
 460 0220 44       		.byte	0x44
 461 0221 25020000 		.4byte	0x225
 462 0225 0A       		.uleb128 0xa
 463 0226 04       		.byte	0x4
 464 0227 31010000 		.4byte	0x131
 465 022b 04       		.uleb128 0x4
 466 022c 62000000 		.4byte	.LASF44
 467 0230 05       		.byte	0x5
 468 0231 49       		.byte	0x49
 469 0232 36020000 		.4byte	0x236
 470 0236 05       		.uleb128 0x5
 471 0237 00000000 		.4byte	.LASF46
 472 023b 04       		.byte	0x4
 473 023c 06       		.byte	0x6
 474 023d 88       		.byte	0x88
 475 023e 4F020000 		.4byte	0x24f
 476 0242 06       		.uleb128 0x6
 477 0243 5D000000 		.4byte	.LASF47
 478 0247 06       		.byte	0x6
 479 0248 89       		.byte	0x89
 480 0249 25020000 		.4byte	0x225
 481 024d 00       		.byte	0
 482 024e 00       		.byte	0
 483 024f 04       		.uleb128 0x4
 484 0250 68010000 		.4byte	.LASF48
 485 0254 05       		.byte	0x5
 486 0255 50       		.byte	0x50
 487 0256 5A020000 		.4byte	0x25a
ARM GAS  /tmp/cchPklP4.s 			page 16


 488 025a 05       		.uleb128 0x5
 489 025b BA000000 		.4byte	.LASF49
 490 025f 08       		.byte	0x8
 491 0260 06       		.byte	0x6
 492 0261 8F       		.byte	0x8f
 493 0262 7F020000 		.4byte	0x27f
 494 0266 06       		.uleb128 0x6
 495 0267 5D000000 		.4byte	.LASF47
 496 026b 06       		.byte	0x6
 497 026c 90       		.byte	0x90
 498 026d 25020000 		.4byte	0x225
 499 0271 00       		.byte	0
 500 0272 06       		.uleb128 0x6
 501 0273 B5000000 		.4byte	.LASF50
 502 0277 06       		.byte	0x6
 503 0278 91       		.byte	0x91
 504 0279 25020000 		.4byte	0x225
 505 027d 04       		.byte	0x4
 506 027e 00       		.byte	0
 507 027f 04       		.uleb128 0x4
 508 0280 41040000 		.4byte	.LASF51
 509 0284 05       		.byte	0x5
 510 0285 57       		.byte	0x57
 511 0286 8A020000 		.4byte	0x28a
 512 028a 0B       		.uleb128 0xb
 513 028b 9B000000 		.4byte	.LASF52
 514 028f 1C       		.byte	0x1c
 515 0290 06       		.byte	0x6
 516 0291 6A01     		.2byte	0x16a
 517 0293 E6020000 		.4byte	0x2e6
 518 0297 09       		.uleb128 0x9
 519 0298 4E040000 		.4byte	.LASF28
 520 029c 06       		.byte	0x6
 521 029d 6B01     		.2byte	0x16b
 522 029f 4F020000 		.4byte	0x24f
 523 02a3 00       		.byte	0
 524 02a4 09       		.uleb128 0x9
 525 02a5 E2010000 		.4byte	.LASF29
 526 02a9 06       		.byte	0x6
 527 02aa 6C01     		.2byte	0x16c
 528 02ac FA000000 		.4byte	0xfa
 529 02b0 08       		.byte	0x8
 530 02b1 08       		.uleb128 0x8
 531 02b2 63747800 		.ascii	"ctx\000"
 532 02b6 06       		.byte	0x6
 533 02b7 6E01     		.2byte	0x16e
 534 02b9 3B040000 		.4byte	0x43b
 535 02bd 0C       		.byte	0xc
 536 02be 09       		.uleb128 0x9
 537 02bf 6B040000 		.4byte	.LASF30
 538 02c3 06       		.byte	0x6
 539 02c4 7101     		.2byte	0x171
 540 02c6 25020000 		.4byte	0x225
 541 02ca 10       		.byte	0x10
 542 02cb 09       		.uleb128 0x9
 543 02cc F8040000 		.4byte	.LASF31
 544 02d0 06       		.byte	0x6
ARM GAS  /tmp/cchPklP4.s 			page 17


 545 02d1 7201     		.2byte	0x172
 546 02d3 25020000 		.4byte	0x225
 547 02d7 14       		.byte	0x14
 548 02d8 09       		.uleb128 0x9
 549 02d9 F0040000 		.4byte	.LASF53
 550 02dd 06       		.byte	0x6
 551 02de 7501     		.2byte	0x175
 552 02e0 25020000 		.4byte	0x225
 553 02e4 18       		.byte	0x18
 554 02e5 00       		.byte	0
 555 02e6 04       		.uleb128 0x4
 556 02e7 CB000000 		.4byte	.LASF54
 557 02eb 05       		.byte	0x5
 558 02ec 5C       		.byte	0x5c
 559 02ed F1020000 		.4byte	0x2f1
 560 02f1 0A       		.uleb128 0xa
 561 02f2 04       		.byte	0x4
 562 02f3 F7020000 		.4byte	0x2f7
 563 02f7 0C       		.uleb128 0xc
 564 02f8 02030000 		.4byte	0x302
 565 02fc 0D       		.uleb128 0xd
 566 02fd 02030000 		.4byte	0x302
 567 0301 00       		.byte	0
 568 0302 0E       		.uleb128 0xe
 569 0303 04       		.byte	0x4
 570 0304 04       		.uleb128 0x4
 571 0305 5E020000 		.4byte	.LASF55
 572 0309 05       		.byte	0x5
 573 030a 61       		.byte	0x61
 574 030b 0F030000 		.4byte	0x30f
 575 030f 0B       		.uleb128 0xb
 576 0310 16010000 		.4byte	.LASF56
 577 0314 14       		.byte	0x14
 578 0315 06       		.byte	0x6
 579 0316 4501     		.2byte	0x145
 580 0318 5E030000 		.4byte	0x35e
 581 031c 09       		.uleb128 0x9
 582 031d 5D000000 		.4byte	.LASF47
 583 0321 06       		.byte	0x6
 584 0322 4601     		.2byte	0x146
 585 0324 B8050000 		.4byte	0x5b8
 586 0328 00       		.byte	0
 587 0329 09       		.uleb128 0x9
 588 032a B5000000 		.4byte	.LASF50
 589 032e 06       		.byte	0x6
 590 032f 4701     		.2byte	0x147
 591 0331 B8050000 		.4byte	0x5b8
 592 0335 04       		.byte	0x4
 593 0336 09       		.uleb128 0x9
 594 0337 CC040000 		.4byte	.LASF57
 595 033b 06       		.byte	0x6
 596 033c 4801     		.2byte	0x148
 597 033e 26010000 		.4byte	0x126
 598 0342 08       		.byte	0x8
 599 0343 09       		.uleb128 0x9
 600 0344 A9000000 		.4byte	.LASF58
 601 0348 06       		.byte	0x6
ARM GAS  /tmp/cchPklP4.s 			page 18


 602 0349 4901     		.2byte	0x149
 603 034b E6020000 		.4byte	0x2e6
 604 034f 0C       		.byte	0xc
 605 0350 08       		.uleb128 0x8
 606 0351 70617200 		.ascii	"par\000"
 607 0355 06       		.byte	0x6
 608 0356 4B01     		.2byte	0x14b
 609 0358 02030000 		.4byte	0x302
 610 035c 10       		.byte	0x10
 611 035d 00       		.byte	0
 612 035e 04       		.uleb128 0x4
 613 035f 92040000 		.4byte	.LASF59
 614 0363 05       		.byte	0x5
 615 0364 66       		.byte	0x66
 616 0365 69030000 		.4byte	0x369
 617 0369 0B       		.uleb128 0xb
 618 036a 80010000 		.4byte	.LASF60
 619 036e 0C       		.byte	0xc
 620 036f 06       		.byte	0x6
 621 0370 5501     		.2byte	0x155
 622 0372 AB030000 		.4byte	0x3ab
 623 0376 09       		.uleb128 0x9
 624 0377 5D000000 		.4byte	.LASF47
 625 037b 06       		.byte	0x6
 626 037c 5601     		.2byte	0x156
 627 037e B8050000 		.4byte	0x5b8
 628 0382 00       		.byte	0
 629 0383 09       		.uleb128 0x9
 630 0384 B5000000 		.4byte	.LASF50
 631 0388 06       		.byte	0x6
 632 0389 5801     		.2byte	0x158
 633 038b B8050000 		.4byte	0x5b8
 634 038f 04       		.byte	0x4
 635 0390 09       		.uleb128 0x9
 636 0391 CC040000 		.4byte	.LASF57
 637 0395 06       		.byte	0x6
 638 0396 5A01     		.2byte	0x15a
 639 0398 26010000 		.4byte	0x126
 640 039c 08       		.byte	0x8
 641 039d 09       		.uleb128 0x9
 642 039e 8F030000 		.4byte	.LASF61
 643 03a2 06       		.byte	0x6
 644 03a3 6201     		.2byte	0x162
 645 03a5 26010000 		.4byte	0x126
 646 03a9 0A       		.byte	0xa
 647 03aa 00       		.byte	0
 648 03ab 04       		.uleb128 0x4
 649 03ac 3B020000 		.4byte	.LASF62
 650 03b0 05       		.byte	0x5
 651 03b1 6B       		.byte	0x6b
 652 03b2 B6030000 		.4byte	0x3b6
 653 03b6 0B       		.uleb128 0xb
 654 03b7 D4000000 		.4byte	.LASF63
 655 03bb 04       		.byte	0x4
 656 03bc 06       		.byte	0x6
 657 03bd 7C01     		.2byte	0x17c
 658 03bf D1030000 		.4byte	0x3d1
ARM GAS  /tmp/cchPklP4.s 			page 19


 659 03c3 09       		.uleb128 0x9
 660 03c4 11030000 		.4byte	.LASF64
 661 03c8 06       		.byte	0x6
 662 03c9 8401     		.2byte	0x184
 663 03cb BE050000 		.4byte	0x5be
 664 03cf 00       		.byte	0
 665 03d0 00       		.byte	0
 666 03d1 04       		.uleb128 0x4
 667 03d2 AE040000 		.4byte	.LASF65
 668 03d6 05       		.byte	0x5
 669 03d7 70       		.byte	0x70
 670 03d8 DC030000 		.4byte	0x3dc
 671 03dc 0B       		.uleb128 0xb
 672 03dd 85030000 		.4byte	.LASF66
 673 03e1 70       		.byte	0x70
 674 03e2 06       		.byte	0x6
 675 03e3 9C01     		.2byte	0x19c
 676 03e5 1E040000 		.4byte	0x41e
 677 03e9 09       		.uleb128 0x9
 678 03ea A9030000 		.4byte	.LASF67
 679 03ee 06       		.byte	0x6
 680 03ef A001     		.2byte	0x1a0
 681 03f1 7F020000 		.4byte	0x27f
 682 03f5 00       		.byte	0
 683 03f6 09       		.uleb128 0x9
 684 03f7 87000000 		.4byte	.LASF68
 685 03fb 06       		.byte	0x6
 686 03fc A401     		.2byte	0x1a4
 687 03fe 5E030000 		.4byte	0x35e
 688 0402 1C       		.byte	0x1c
 689 0403 08       		.uleb128 0x8
 690 0404 64626700 		.ascii	"dbg\000"
 691 0408 06       		.byte	0x6
 692 0409 A801     		.2byte	0x1a8
 693 040b AB030000 		.4byte	0x3ab
 694 040f 28       		.byte	0x28
 695 0410 09       		.uleb128 0x9
 696 0411 23030000 		.4byte	.LASF69
 697 0415 06       		.byte	0x6
 698 0416 AC01     		.2byte	0x1ac
 699 0418 31010000 		.4byte	0x131
 700 041c 2C       		.byte	0x2c
 701 041d 00       		.byte	0
 702 041e 03       		.uleb128 0x3
 703 041f 04       		.byte	0x4
 704 0420 07       		.byte	0x7
 705 0421 11040000 		.4byte	.LASF70
 706 0425 04       		.uleb128 0x4
 707 0426 25000000 		.4byte	.LASF71
 708 042a 07       		.byte	0x7
 709 042b 65       		.byte	0x65
 710 042c 02030000 		.4byte	0x302
 711 0430 04       		.uleb128 0x4
 712 0431 E5040000 		.4byte	.LASF72
 713 0435 07       		.byte	0x7
 714 0436 6D       		.byte	0x6d
 715 0437 CE000000 		.4byte	0xce
ARM GAS  /tmp/cchPklP4.s 			page 20


 716 043b 05       		.uleb128 0x5
 717 043c 8E000000 		.4byte	.LASF73
 718 0440 04       		.byte	0x4
 719 0441 07       		.byte	0x7
 720 0442 89       		.byte	0x89
 721 0443 53040000 		.4byte	0x453
 722 0447 07       		.uleb128 0x7
 723 0448 737000   		.ascii	"sp\000"
 724 044b 07       		.byte	0x7
 725 044c 8A       		.byte	0x8a
 726 044d CF040000 		.4byte	0x4cf
 727 0451 00       		.byte	0
 728 0452 00       		.byte	0
 729 0453 0B       		.uleb128 0xb
 730 0454 65030000 		.4byte	.LASF74
 731 0458 24       		.byte	0x24
 732 0459 08       		.byte	0x8
 733 045a 5901     		.2byte	0x159
 734 045c CF040000 		.4byte	0x4cf
 735 0460 08       		.uleb128 0x8
 736 0461 723400   		.ascii	"r4\000"
 737 0464 08       		.byte	0x8
 738 0465 6C01     		.2byte	0x16c
 739 0467 25040000 		.4byte	0x425
 740 046b 00       		.byte	0
 741 046c 08       		.uleb128 0x8
 742 046d 723500   		.ascii	"r5\000"
 743 0470 08       		.byte	0x8
 744 0471 6D01     		.2byte	0x16d
 745 0473 25040000 		.4byte	0x425
 746 0477 04       		.byte	0x4
 747 0478 08       		.uleb128 0x8
 748 0479 723600   		.ascii	"r6\000"
 749 047c 08       		.byte	0x8
 750 047d 6E01     		.2byte	0x16e
 751 047f 25040000 		.4byte	0x425
 752 0483 08       		.byte	0x8
 753 0484 08       		.uleb128 0x8
 754 0485 723700   		.ascii	"r7\000"
 755 0488 08       		.byte	0x8
 756 0489 6F01     		.2byte	0x16f
 757 048b 25040000 		.4byte	0x425
 758 048f 0C       		.byte	0xc
 759 0490 08       		.uleb128 0x8
 760 0491 723800   		.ascii	"r8\000"
 761 0494 08       		.byte	0x8
 762 0495 7001     		.2byte	0x170
 763 0497 25040000 		.4byte	0x425
 764 049b 10       		.byte	0x10
 765 049c 08       		.uleb128 0x8
 766 049d 723900   		.ascii	"r9\000"
 767 04a0 08       		.byte	0x8
 768 04a1 7101     		.2byte	0x171
 769 04a3 25040000 		.4byte	0x425
 770 04a7 14       		.byte	0x14
 771 04a8 08       		.uleb128 0x8
 772 04a9 72313000 		.ascii	"r10\000"
ARM GAS  /tmp/cchPklP4.s 			page 21


 773 04ad 08       		.byte	0x8
 774 04ae 7201     		.2byte	0x172
 775 04b0 25040000 		.4byte	0x425
 776 04b4 18       		.byte	0x18
 777 04b5 08       		.uleb128 0x8
 778 04b6 72313100 		.ascii	"r11\000"
 779 04ba 08       		.byte	0x8
 780 04bb 7301     		.2byte	0x173
 781 04bd 25040000 		.4byte	0x425
 782 04c1 1C       		.byte	0x1c
 783 04c2 08       		.uleb128 0x8
 784 04c3 6C7200   		.ascii	"lr\000"
 785 04c6 08       		.byte	0x8
 786 04c7 7401     		.2byte	0x174
 787 04c9 25040000 		.4byte	0x425
 788 04cd 20       		.byte	0x20
 789 04ce 00       		.byte	0
 790 04cf 0A       		.uleb128 0xa
 791 04d0 04       		.byte	0x4
 792 04d1 53040000 		.4byte	0x453
 793 04d5 0F       		.uleb128 0xf
 794 04d6 04       		.byte	0x4
 795 04d7 06       		.byte	0x6
 796 04d8 D2       		.byte	0xd2
 797 04d9 38050000 		.4byte	0x538
 798 04dd 10       		.uleb128 0x10
 799 04de A7010000 		.4byte	.LASF75
 800 04e2 06       		.byte	0x6
 801 04e3 D9       		.byte	0xd9
 802 04e4 05010000 		.4byte	0x105
 803 04e8 10       		.uleb128 0x10
 804 04e9 FE040000 		.4byte	.LASF76
 805 04ed 06       		.byte	0x6
 806 04ee E0       		.byte	0xe0
 807 04ef 05010000 		.4byte	0x105
 808 04f3 10       		.uleb128 0x10
 809 04f4 80000000 		.4byte	.LASF77
 810 04f8 06       		.byte	0x6
 811 04f9 E7       		.byte	0xe7
 812 04fa 02030000 		.4byte	0x302
 813 04fe 10       		.uleb128 0x10
 814 04ff BA040000 		.4byte	.LASF78
 815 0503 06       		.byte	0x6
 816 0504 EE       		.byte	0xee
 817 0505 38050000 		.4byte	0x538
 818 0509 10       		.uleb128 0x10
 819 050a ED000000 		.4byte	.LASF79
 820 050e 06       		.byte	0x6
 821 050f F3       		.byte	0xf3
 822 0510 05010000 		.4byte	0x105
 823 0514 10       		.uleb128 0x10
 824 0515 5C040000 		.4byte	.LASF80
 825 0519 06       		.byte	0x6
 826 051a FC       		.byte	0xfc
 827 051b 63050000 		.4byte	0x563
 828 051f 11       		.uleb128 0x11
 829 0520 17000000 		.4byte	.LASF81
ARM GAS  /tmp/cchPklP4.s 			page 22


 830 0524 06       		.byte	0x6
 831 0525 0501     		.2byte	0x105
 832 0527 9A050000 		.4byte	0x59a
 833 052b 11       		.uleb128 0x11
 834 052c AE000000 		.4byte	.LASF82
 835 0530 06       		.byte	0x6
 836 0531 0D01     		.2byte	0x10d
 837 0533 10010000 		.4byte	0x110
 838 0537 00       		.byte	0
 839 0538 0A       		.uleb128 0xa
 840 0539 04       		.byte	0x4
 841 053a 1A020000 		.4byte	0x21a
 842 053e 05       		.uleb128 0x5
 843 053f 01010000 		.4byte	.LASF83
 844 0543 0C       		.byte	0xc
 845 0544 09       		.byte	0x9
 846 0545 34       		.byte	0x34
 847 0546 63050000 		.4byte	0x563
 848 054a 06       		.uleb128 0x6
 849 054b 4E040000 		.4byte	.LASF28
 850 054f 09       		.byte	0x9
 851 0550 35       		.byte	0x35
 852 0551 4F020000 		.4byte	0x24f
 853 0555 00       		.byte	0
 854 0556 07       		.uleb128 0x7
 855 0557 636E7400 		.ascii	"cnt\000"
 856 055b 09       		.byte	0x9
 857 055c 37       		.byte	0x37
 858 055d 1B010000 		.4byte	0x11b
 859 0561 08       		.byte	0x8
 860 0562 00       		.byte	0
 861 0563 0A       		.uleb128 0xa
 862 0564 04       		.byte	0x4
 863 0565 3E050000 		.4byte	0x53e
 864 0569 05       		.uleb128 0x5
 865 056a BB010000 		.4byte	.LASF84
 866 056e 10       		.byte	0x10
 867 056f 0A       		.byte	0xa
 868 0570 39       		.byte	0x39
 869 0571 9A050000 		.4byte	0x59a
 870 0575 06       		.uleb128 0x6
 871 0576 4E040000 		.4byte	.LASF28
 872 057a 0A       		.byte	0xa
 873 057b 3A       		.byte	0x3a
 874 057c 4F020000 		.4byte	0x24f
 875 0580 00       		.byte	0
 876 0581 06       		.uleb128 0x6
 877 0582 62010000 		.4byte	.LASF85
 878 0586 0A       		.byte	0xa
 879 0587 3C       		.byte	0x3c
 880 0588 25020000 		.4byte	0x225
 881 058c 08       		.byte	0x8
 882 058d 06       		.uleb128 0x6
 883 058e 5D000000 		.4byte	.LASF47
 884 0592 0A       		.byte	0xa
 885 0593 3E       		.byte	0x3e
 886 0594 CE050000 		.4byte	0x5ce
ARM GAS  /tmp/cchPklP4.s 			page 23


 887 0598 0C       		.byte	0xc
 888 0599 00       		.byte	0
 889 059a 0A       		.uleb128 0xa
 890 059b 04       		.byte	0x4
 891 059c 69050000 		.4byte	0x569
 892 05a0 0A       		.uleb128 0xa
 893 05a1 04       		.byte	0x4
 894 05a2 A6050000 		.4byte	0x5a6
 895 05a6 12       		.uleb128 0x12
 896 05a7 AB050000 		.4byte	0x5ab
 897 05ab 03       		.uleb128 0x3
 898 05ac 01       		.byte	0x1
 899 05ad 08       		.byte	0x8
 900 05ae F1010000 		.4byte	.LASF86
 901 05b2 0A       		.uleb128 0xa
 902 05b3 04       		.byte	0x4
 903 05b4 30040000 		.4byte	0x430
 904 05b8 0A       		.uleb128 0xa
 905 05b9 04       		.byte	0x4
 906 05ba 04030000 		.4byte	0x304
 907 05be 13       		.uleb128 0x13
 908 05bf A0050000 		.4byte	0x5a0
 909 05c3 04       		.uleb128 0x4
 910 05c4 63040000 		.4byte	.LASF87
 911 05c8 0A       		.byte	0xa
 912 05c9 34       		.byte	0x34
 913 05ca 69050000 		.4byte	0x569
 914 05ce 0A       		.uleb128 0xa
 915 05cf 04       		.byte	0x4
 916 05d0 C3050000 		.4byte	0x5c3
 917 05d4 03       		.uleb128 0x3
 918 05d5 01       		.byte	0x1
 919 05d6 02       		.byte	0x2
 920 05d7 AE010000 		.4byte	.LASF88
 921 05db 14       		.uleb128 0x14
 922 05dc 0C       		.byte	0xc
 923 05dd 0B       		.byte	0xb
 924 05de 68       		.byte	0x68
 925 05df 08060000 		.4byte	0x608
 926 05e3 07       		.uleb128 0x7
 927 05e4 6F647200 		.ascii	"odr\000"
 928 05e8 0B       		.byte	0xb
 929 05e9 6A       		.byte	0x6a
 930 05ea C3000000 		.4byte	0xc3
 931 05ee 00       		.byte	0
 932 05ef 07       		.uleb128 0x7
 933 05f0 63726C00 		.ascii	"crl\000"
 934 05f4 0B       		.byte	0xb
 935 05f5 6C       		.byte	0x6c
 936 05f6 C3000000 		.4byte	0xc3
 937 05fa 04       		.byte	0x4
 938 05fb 07       		.uleb128 0x7
 939 05fc 63726800 		.ascii	"crh\000"
 940 0600 0B       		.byte	0xb
 941 0601 6E       		.byte	0x6e
 942 0602 C3000000 		.4byte	0xc3
 943 0606 08       		.byte	0x8
ARM GAS  /tmp/cchPklP4.s 			page 24


 944 0607 00       		.byte	0
 945 0608 04       		.uleb128 0x4
 946 0609 4F010000 		.4byte	.LASF89
 947 060d 0B       		.byte	0xb
 948 060e 6F       		.byte	0x6f
 949 060f DB050000 		.4byte	0x5db
 950 0613 14       		.uleb128 0x14
 951 0614 3C       		.byte	0x3c
 952 0615 0B       		.byte	0xb
 953 0616 78       		.byte	0x78
 954 0617 58060000 		.4byte	0x658
 955 061b 06       		.uleb128 0x6
 956 061c 7E030000 		.4byte	.LASF90
 957 0620 0B       		.byte	0xb
 958 0621 7A       		.byte	0x7a
 959 0622 08060000 		.4byte	0x608
 960 0626 00       		.byte	0
 961 0627 06       		.uleb128 0x6
 962 0628 B4010000 		.4byte	.LASF91
 963 062c 0B       		.byte	0xb
 964 062d 7C       		.byte	0x7c
 965 062e 08060000 		.4byte	0x608
 966 0632 0C       		.byte	0xc
 967 0633 06       		.uleb128 0x6
 968 0634 10000000 		.4byte	.LASF92
 969 0638 0B       		.byte	0xb
 970 0639 7E       		.byte	0x7e
 971 063a 08060000 		.4byte	0x608
 972 063e 18       		.byte	0x18
 973 063f 06       		.uleb128 0x6
 974 0640 4B030000 		.4byte	.LASF93
 975 0644 0B       		.byte	0xb
 976 0645 80       		.byte	0x80
 977 0646 08060000 		.4byte	0x608
 978 064a 24       		.byte	0x24
 979 064b 06       		.uleb128 0x6
 980 064c A0010000 		.4byte	.LASF94
 981 0650 0B       		.byte	0xb
 982 0651 83       		.byte	0x83
 983 0652 08060000 		.4byte	0x608
 984 0656 30       		.byte	0x30
 985 0657 00       		.byte	0
 986 0658 04       		.uleb128 0x4
 987 0659 07040000 		.4byte	.LASF95
 988 065d 0B       		.byte	0xb
 989 065e 8D       		.byte	0x8d
 990 065f 13060000 		.4byte	0x613
 991 0663 15       		.uleb128 0x15
 992 0664 F1030000 		.4byte	.LASF106
 993 0668 12       		.byte	0x12
 994 0669 C101     		.2byte	0x1c1
 995 066b 03       		.byte	0x3
 996 066c 16       		.uleb128 0x16
 997 066d A1030000 		.4byte	.LASF107
 998 0671 01       		.byte	0x1
 999 0672 38       		.byte	0x38
 1000 0673 00000000 		.4byte	.LFB219
ARM GAS  /tmp/cchPklP4.s 			page 25


 1001 0677 26000000 		.4byte	.LFE219-.LFB219
 1002 067b 01       		.uleb128 0x1
 1003 067c 9C       		.byte	0x9c
 1004 067d B8060000 		.4byte	0x6b8
 1005 0681 17       		.uleb128 0x17
 1006 0682 06000000 		.4byte	.LVL0
 1007 0686 E5060000 		.4byte	0x6e5
 1008 068a 17       		.uleb128 0x17
 1009 068b 12000000 		.4byte	.LVL1
 1010 068f EC060000 		.4byte	0x6ec
 1011 0693 17       		.uleb128 0x17
 1012 0694 16000000 		.4byte	.LVL2
 1013 0698 04070000 		.4byte	0x704
 1014 069c 17       		.uleb128 0x17
 1015 069d 1A000000 		.4byte	.LVL3
 1016 06a1 0C070000 		.4byte	0x70c
 1017 06a5 17       		.uleb128 0x17
 1018 06a6 1E000000 		.4byte	.LVL4
 1019 06aa 14070000 		.4byte	0x714
 1020 06ae 18       		.uleb128 0x18
 1021 06af 26000000 		.4byte	.LVL5
 1022 06b3 1B070000 		.4byte	0x71b
 1023 06b7 00       		.byte	0
 1024 06b8 19       		.uleb128 0x19
 1025 06b9 71030000 		.4byte	.LASF96
 1026 06bd 0C       		.byte	0xc
 1027 06be 9606     		.2byte	0x696
 1028 06c0 C4060000 		.4byte	0x6c4
 1029 06c4 13       		.uleb128 0x13
 1030 06c5 B8000000 		.4byte	0xb8
 1031 06c9 1A       		.uleb128 0x1a
 1032 06ca 636800   		.ascii	"ch\000"
 1033 06cd 06       		.byte	0x6
 1034 06ce D201     		.2byte	0x1d2
 1035 06d0 D1030000 		.4byte	0x3d1
 1036 06d4 19       		.uleb128 0x19
 1037 06d5 CF010000 		.4byte	.LASF97
 1038 06d9 0B       		.byte	0xb
 1039 06da 6701     		.2byte	0x167
 1040 06dc E0060000 		.4byte	0x6e0
 1041 06e0 12       		.uleb128 0x12
 1042 06e1 58060000 		.4byte	0x658
 1043 06e5 1B       		.uleb128 0x1b
 1044 06e6 34040000 		.4byte	.LASF98
 1045 06ea 0D       		.byte	0xd
 1046 06eb D7       		.byte	0xd7
 1047 06ec 1C       		.uleb128 0x1c
 1048 06ed AF030000 		.4byte	.LASF108
 1049 06f1 0B       		.byte	0xb
 1050 06f2 6C01     		.2byte	0x16c
 1051 06f4 FE060000 		.4byte	0x6fe
 1052 06f8 0D       		.uleb128 0xd
 1053 06f9 FE060000 		.4byte	0x6fe
 1054 06fd 00       		.byte	0
 1055 06fe 0A       		.uleb128 0xa
 1056 06ff 04       		.byte	0x4
 1057 0700 E0060000 		.4byte	0x6e0
ARM GAS  /tmp/cchPklP4.s 			page 26


 1058 0704 1D       		.uleb128 0x1d
 1059 0705 FF030000 		.4byte	.LASF99
 1060 0709 0E       		.byte	0xe
 1061 070a 1F01     		.2byte	0x11f
 1062 070c 1D       		.uleb128 0x1d
 1063 070d 1E000000 		.4byte	.LASF100
 1064 0711 0F       		.byte	0xf
 1065 0712 1101     		.2byte	0x111
 1066 0714 1B       		.uleb128 0x1b
 1067 0715 E7010000 		.4byte	.LASF101
 1068 0719 10       		.byte	0x10
 1069 071a 89       		.byte	0x89
 1070 071b 1B       		.uleb128 0x1b
 1071 071c 19020000 		.4byte	.LASF102
 1072 0720 11       		.byte	0x11
 1073 0721 56       		.byte	0x56
 1074 0722 00       		.byte	0
 1075              		.section	.debug_abbrev,"",%progbits
 1076              	.Ldebug_abbrev0:
 1077 0000 01       		.uleb128 0x1
 1078 0001 11       		.uleb128 0x11
 1079 0002 01       		.byte	0x1
 1080 0003 25       		.uleb128 0x25
 1081 0004 0E       		.uleb128 0xe
 1082 0005 13       		.uleb128 0x13
 1083 0006 0B       		.uleb128 0xb
 1084 0007 03       		.uleb128 0x3
 1085 0008 0E       		.uleb128 0xe
 1086 0009 1B       		.uleb128 0x1b
 1087 000a 0E       		.uleb128 0xe
 1088 000b 55       		.uleb128 0x55
 1089 000c 17       		.uleb128 0x17
 1090 000d 11       		.uleb128 0x11
 1091 000e 01       		.uleb128 0x1
 1092 000f 10       		.uleb128 0x10
 1093 0010 17       		.uleb128 0x17
 1094 0011 00       		.byte	0
 1095 0012 00       		.byte	0
 1096 0013 02       		.uleb128 0x2
 1097 0014 24       		.uleb128 0x24
 1098 0015 00       		.byte	0
 1099 0016 0B       		.uleb128 0xb
 1100 0017 0B       		.uleb128 0xb
 1101 0018 3E       		.uleb128 0x3e
 1102 0019 0B       		.uleb128 0xb
 1103 001a 03       		.uleb128 0x3
 1104 001b 08       		.uleb128 0x8
 1105 001c 00       		.byte	0
 1106 001d 00       		.byte	0
 1107 001e 03       		.uleb128 0x3
 1108 001f 24       		.uleb128 0x24
 1109 0020 00       		.byte	0
 1110 0021 0B       		.uleb128 0xb
 1111 0022 0B       		.uleb128 0xb
 1112 0023 3E       		.uleb128 0x3e
 1113 0024 0B       		.uleb128 0xb
 1114 0025 03       		.uleb128 0x3
ARM GAS  /tmp/cchPklP4.s 			page 27


 1115 0026 0E       		.uleb128 0xe
 1116 0027 00       		.byte	0
 1117 0028 00       		.byte	0
 1118 0029 04       		.uleb128 0x4
 1119 002a 16       		.uleb128 0x16
 1120 002b 00       		.byte	0
 1121 002c 03       		.uleb128 0x3
 1122 002d 0E       		.uleb128 0xe
 1123 002e 3A       		.uleb128 0x3a
 1124 002f 0B       		.uleb128 0xb
 1125 0030 3B       		.uleb128 0x3b
 1126 0031 0B       		.uleb128 0xb
 1127 0032 49       		.uleb128 0x49
 1128 0033 13       		.uleb128 0x13
 1129 0034 00       		.byte	0
 1130 0035 00       		.byte	0
 1131 0036 05       		.uleb128 0x5
 1132 0037 13       		.uleb128 0x13
 1133 0038 01       		.byte	0x1
 1134 0039 03       		.uleb128 0x3
 1135 003a 0E       		.uleb128 0xe
 1136 003b 0B       		.uleb128 0xb
 1137 003c 0B       		.uleb128 0xb
 1138 003d 3A       		.uleb128 0x3a
 1139 003e 0B       		.uleb128 0xb
 1140 003f 3B       		.uleb128 0x3b
 1141 0040 0B       		.uleb128 0xb
 1142 0041 01       		.uleb128 0x1
 1143 0042 13       		.uleb128 0x13
 1144 0043 00       		.byte	0
 1145 0044 00       		.byte	0
 1146 0045 06       		.uleb128 0x6
 1147 0046 0D       		.uleb128 0xd
 1148 0047 00       		.byte	0
 1149 0048 03       		.uleb128 0x3
 1150 0049 0E       		.uleb128 0xe
 1151 004a 3A       		.uleb128 0x3a
 1152 004b 0B       		.uleb128 0xb
 1153 004c 3B       		.uleb128 0x3b
 1154 004d 0B       		.uleb128 0xb
 1155 004e 49       		.uleb128 0x49
 1156 004f 13       		.uleb128 0x13
 1157 0050 38       		.uleb128 0x38
 1158 0051 0B       		.uleb128 0xb
 1159 0052 00       		.byte	0
 1160 0053 00       		.byte	0
 1161 0054 07       		.uleb128 0x7
 1162 0055 0D       		.uleb128 0xd
 1163 0056 00       		.byte	0
 1164 0057 03       		.uleb128 0x3
 1165 0058 08       		.uleb128 0x8
 1166 0059 3A       		.uleb128 0x3a
 1167 005a 0B       		.uleb128 0xb
 1168 005b 3B       		.uleb128 0x3b
 1169 005c 0B       		.uleb128 0xb
 1170 005d 49       		.uleb128 0x49
 1171 005e 13       		.uleb128 0x13
ARM GAS  /tmp/cchPklP4.s 			page 28


 1172 005f 38       		.uleb128 0x38
 1173 0060 0B       		.uleb128 0xb
 1174 0061 00       		.byte	0
 1175 0062 00       		.byte	0
 1176 0063 08       		.uleb128 0x8
 1177 0064 0D       		.uleb128 0xd
 1178 0065 00       		.byte	0
 1179 0066 03       		.uleb128 0x3
 1180 0067 08       		.uleb128 0x8
 1181 0068 3A       		.uleb128 0x3a
 1182 0069 0B       		.uleb128 0xb
 1183 006a 3B       		.uleb128 0x3b
 1184 006b 05       		.uleb128 0x5
 1185 006c 49       		.uleb128 0x49
 1186 006d 13       		.uleb128 0x13
 1187 006e 38       		.uleb128 0x38
 1188 006f 0B       		.uleb128 0xb
 1189 0070 00       		.byte	0
 1190 0071 00       		.byte	0
 1191 0072 09       		.uleb128 0x9
 1192 0073 0D       		.uleb128 0xd
 1193 0074 00       		.byte	0
 1194 0075 03       		.uleb128 0x3
 1195 0076 0E       		.uleb128 0xe
 1196 0077 3A       		.uleb128 0x3a
 1197 0078 0B       		.uleb128 0xb
 1198 0079 3B       		.uleb128 0x3b
 1199 007a 05       		.uleb128 0x5
 1200 007b 49       		.uleb128 0x49
 1201 007c 13       		.uleb128 0x13
 1202 007d 38       		.uleb128 0x38
 1203 007e 0B       		.uleb128 0xb
 1204 007f 00       		.byte	0
 1205 0080 00       		.byte	0
 1206 0081 0A       		.uleb128 0xa
 1207 0082 0F       		.uleb128 0xf
 1208 0083 00       		.byte	0
 1209 0084 0B       		.uleb128 0xb
 1210 0085 0B       		.uleb128 0xb
 1211 0086 49       		.uleb128 0x49
 1212 0087 13       		.uleb128 0x13
 1213 0088 00       		.byte	0
 1214 0089 00       		.byte	0
 1215 008a 0B       		.uleb128 0xb
 1216 008b 13       		.uleb128 0x13
 1217 008c 01       		.byte	0x1
 1218 008d 03       		.uleb128 0x3
 1219 008e 0E       		.uleb128 0xe
 1220 008f 0B       		.uleb128 0xb
 1221 0090 0B       		.uleb128 0xb
 1222 0091 3A       		.uleb128 0x3a
 1223 0092 0B       		.uleb128 0xb
 1224 0093 3B       		.uleb128 0x3b
 1225 0094 05       		.uleb128 0x5
 1226 0095 01       		.uleb128 0x1
 1227 0096 13       		.uleb128 0x13
 1228 0097 00       		.byte	0
ARM GAS  /tmp/cchPklP4.s 			page 29


 1229 0098 00       		.byte	0
 1230 0099 0C       		.uleb128 0xc
 1231 009a 15       		.uleb128 0x15
 1232 009b 01       		.byte	0x1
 1233 009c 27       		.uleb128 0x27
 1234 009d 19       		.uleb128 0x19
 1235 009e 01       		.uleb128 0x1
 1236 009f 13       		.uleb128 0x13
 1237 00a0 00       		.byte	0
 1238 00a1 00       		.byte	0
 1239 00a2 0D       		.uleb128 0xd
 1240 00a3 05       		.uleb128 0x5
 1241 00a4 00       		.byte	0
 1242 00a5 49       		.uleb128 0x49
 1243 00a6 13       		.uleb128 0x13
 1244 00a7 00       		.byte	0
 1245 00a8 00       		.byte	0
 1246 00a9 0E       		.uleb128 0xe
 1247 00aa 0F       		.uleb128 0xf
 1248 00ab 00       		.byte	0
 1249 00ac 0B       		.uleb128 0xb
 1250 00ad 0B       		.uleb128 0xb
 1251 00ae 00       		.byte	0
 1252 00af 00       		.byte	0
 1253 00b0 0F       		.uleb128 0xf
 1254 00b1 17       		.uleb128 0x17
 1255 00b2 01       		.byte	0x1
 1256 00b3 0B       		.uleb128 0xb
 1257 00b4 0B       		.uleb128 0xb
 1258 00b5 3A       		.uleb128 0x3a
 1259 00b6 0B       		.uleb128 0xb
 1260 00b7 3B       		.uleb128 0x3b
 1261 00b8 0B       		.uleb128 0xb
 1262 00b9 01       		.uleb128 0x1
 1263 00ba 13       		.uleb128 0x13
 1264 00bb 00       		.byte	0
 1265 00bc 00       		.byte	0
 1266 00bd 10       		.uleb128 0x10
 1267 00be 0D       		.uleb128 0xd
 1268 00bf 00       		.byte	0
 1269 00c0 03       		.uleb128 0x3
 1270 00c1 0E       		.uleb128 0xe
 1271 00c2 3A       		.uleb128 0x3a
 1272 00c3 0B       		.uleb128 0xb
 1273 00c4 3B       		.uleb128 0x3b
 1274 00c5 0B       		.uleb128 0xb
 1275 00c6 49       		.uleb128 0x49
 1276 00c7 13       		.uleb128 0x13
 1277 00c8 00       		.byte	0
 1278 00c9 00       		.byte	0
 1279 00ca 11       		.uleb128 0x11
 1280 00cb 0D       		.uleb128 0xd
 1281 00cc 00       		.byte	0
 1282 00cd 03       		.uleb128 0x3
 1283 00ce 0E       		.uleb128 0xe
 1284 00cf 3A       		.uleb128 0x3a
 1285 00d0 0B       		.uleb128 0xb
ARM GAS  /tmp/cchPklP4.s 			page 30


 1286 00d1 3B       		.uleb128 0x3b
 1287 00d2 05       		.uleb128 0x5
 1288 00d3 49       		.uleb128 0x49
 1289 00d4 13       		.uleb128 0x13
 1290 00d5 00       		.byte	0
 1291 00d6 00       		.byte	0
 1292 00d7 12       		.uleb128 0x12
 1293 00d8 26       		.uleb128 0x26
 1294 00d9 00       		.byte	0
 1295 00da 49       		.uleb128 0x49
 1296 00db 13       		.uleb128 0x13
 1297 00dc 00       		.byte	0
 1298 00dd 00       		.byte	0
 1299 00de 13       		.uleb128 0x13
 1300 00df 35       		.uleb128 0x35
 1301 00e0 00       		.byte	0
 1302 00e1 49       		.uleb128 0x49
 1303 00e2 13       		.uleb128 0x13
 1304 00e3 00       		.byte	0
 1305 00e4 00       		.byte	0
 1306 00e5 14       		.uleb128 0x14
 1307 00e6 13       		.uleb128 0x13
 1308 00e7 01       		.byte	0x1
 1309 00e8 0B       		.uleb128 0xb
 1310 00e9 0B       		.uleb128 0xb
 1311 00ea 3A       		.uleb128 0x3a
 1312 00eb 0B       		.uleb128 0xb
 1313 00ec 3B       		.uleb128 0x3b
 1314 00ed 0B       		.uleb128 0xb
 1315 00ee 01       		.uleb128 0x1
 1316 00ef 13       		.uleb128 0x13
 1317 00f0 00       		.byte	0
 1318 00f1 00       		.byte	0
 1319 00f2 15       		.uleb128 0x15
 1320 00f3 2E       		.uleb128 0x2e
 1321 00f4 00       		.byte	0
 1322 00f5 03       		.uleb128 0x3
 1323 00f6 0E       		.uleb128 0xe
 1324 00f7 3A       		.uleb128 0x3a
 1325 00f8 0B       		.uleb128 0xb
 1326 00f9 3B       		.uleb128 0x3b
 1327 00fa 05       		.uleb128 0x5
 1328 00fb 27       		.uleb128 0x27
 1329 00fc 19       		.uleb128 0x19
 1330 00fd 20       		.uleb128 0x20
 1331 00fe 0B       		.uleb128 0xb
 1332 00ff 00       		.byte	0
 1333 0100 00       		.byte	0
 1334 0101 16       		.uleb128 0x16
 1335 0102 2E       		.uleb128 0x2e
 1336 0103 01       		.byte	0x1
 1337 0104 3F       		.uleb128 0x3f
 1338 0105 19       		.uleb128 0x19
 1339 0106 03       		.uleb128 0x3
 1340 0107 0E       		.uleb128 0xe
 1341 0108 3A       		.uleb128 0x3a
 1342 0109 0B       		.uleb128 0xb
ARM GAS  /tmp/cchPklP4.s 			page 31


 1343 010a 3B       		.uleb128 0x3b
 1344 010b 0B       		.uleb128 0xb
 1345 010c 27       		.uleb128 0x27
 1346 010d 19       		.uleb128 0x19
 1347 010e 11       		.uleb128 0x11
 1348 010f 01       		.uleb128 0x1
 1349 0110 12       		.uleb128 0x12
 1350 0111 06       		.uleb128 0x6
 1351 0112 40       		.uleb128 0x40
 1352 0113 18       		.uleb128 0x18
 1353 0114 9742     		.uleb128 0x2117
 1354 0116 19       		.uleb128 0x19
 1355 0117 01       		.uleb128 0x1
 1356 0118 13       		.uleb128 0x13
 1357 0119 00       		.byte	0
 1358 011a 00       		.byte	0
 1359 011b 17       		.uleb128 0x17
 1360 011c 898201   		.uleb128 0x4109
 1361 011f 00       		.byte	0
 1362 0120 11       		.uleb128 0x11
 1363 0121 01       		.uleb128 0x1
 1364 0122 31       		.uleb128 0x31
 1365 0123 13       		.uleb128 0x13
 1366 0124 00       		.byte	0
 1367 0125 00       		.byte	0
 1368 0126 18       		.uleb128 0x18
 1369 0127 898201   		.uleb128 0x4109
 1370 012a 00       		.byte	0
 1371 012b 11       		.uleb128 0x11
 1372 012c 01       		.uleb128 0x1
 1373 012d 9542     		.uleb128 0x2115
 1374 012f 19       		.uleb128 0x19
 1375 0130 31       		.uleb128 0x31
 1376 0131 13       		.uleb128 0x13
 1377 0132 00       		.byte	0
 1378 0133 00       		.byte	0
 1379 0134 19       		.uleb128 0x19
 1380 0135 34       		.uleb128 0x34
 1381 0136 00       		.byte	0
 1382 0137 03       		.uleb128 0x3
 1383 0138 0E       		.uleb128 0xe
 1384 0139 3A       		.uleb128 0x3a
 1385 013a 0B       		.uleb128 0xb
 1386 013b 3B       		.uleb128 0x3b
 1387 013c 05       		.uleb128 0x5
 1388 013d 49       		.uleb128 0x49
 1389 013e 13       		.uleb128 0x13
 1390 013f 3F       		.uleb128 0x3f
 1391 0140 19       		.uleb128 0x19
 1392 0141 3C       		.uleb128 0x3c
 1393 0142 19       		.uleb128 0x19
 1394 0143 00       		.byte	0
 1395 0144 00       		.byte	0
 1396 0145 1A       		.uleb128 0x1a
 1397 0146 34       		.uleb128 0x34
 1398 0147 00       		.byte	0
 1399 0148 03       		.uleb128 0x3
ARM GAS  /tmp/cchPklP4.s 			page 32


 1400 0149 08       		.uleb128 0x8
 1401 014a 3A       		.uleb128 0x3a
 1402 014b 0B       		.uleb128 0xb
 1403 014c 3B       		.uleb128 0x3b
 1404 014d 05       		.uleb128 0x5
 1405 014e 49       		.uleb128 0x49
 1406 014f 13       		.uleb128 0x13
 1407 0150 3F       		.uleb128 0x3f
 1408 0151 19       		.uleb128 0x19
 1409 0152 3C       		.uleb128 0x3c
 1410 0153 19       		.uleb128 0x19
 1411 0154 00       		.byte	0
 1412 0155 00       		.byte	0
 1413 0156 1B       		.uleb128 0x1b
 1414 0157 2E       		.uleb128 0x2e
 1415 0158 00       		.byte	0
 1416 0159 3F       		.uleb128 0x3f
 1417 015a 19       		.uleb128 0x19
 1418 015b 03       		.uleb128 0x3
 1419 015c 0E       		.uleb128 0xe
 1420 015d 3A       		.uleb128 0x3a
 1421 015e 0B       		.uleb128 0xb
 1422 015f 3B       		.uleb128 0x3b
 1423 0160 0B       		.uleb128 0xb
 1424 0161 27       		.uleb128 0x27
 1425 0162 19       		.uleb128 0x19
 1426 0163 3C       		.uleb128 0x3c
 1427 0164 19       		.uleb128 0x19
 1428 0165 00       		.byte	0
 1429 0166 00       		.byte	0
 1430 0167 1C       		.uleb128 0x1c
 1431 0168 2E       		.uleb128 0x2e
 1432 0169 01       		.byte	0x1
 1433 016a 3F       		.uleb128 0x3f
 1434 016b 19       		.uleb128 0x19
 1435 016c 03       		.uleb128 0x3
 1436 016d 0E       		.uleb128 0xe
 1437 016e 3A       		.uleb128 0x3a
 1438 016f 0B       		.uleb128 0xb
 1439 0170 3B       		.uleb128 0x3b
 1440 0171 05       		.uleb128 0x5
 1441 0172 27       		.uleb128 0x27
 1442 0173 19       		.uleb128 0x19
 1443 0174 3C       		.uleb128 0x3c
 1444 0175 19       		.uleb128 0x19
 1445 0176 01       		.uleb128 0x1
 1446 0177 13       		.uleb128 0x13
 1447 0178 00       		.byte	0
 1448 0179 00       		.byte	0
 1449 017a 1D       		.uleb128 0x1d
 1450 017b 2E       		.uleb128 0x2e
 1451 017c 00       		.byte	0
 1452 017d 3F       		.uleb128 0x3f
 1453 017e 19       		.uleb128 0x19
 1454 017f 03       		.uleb128 0x3
 1455 0180 0E       		.uleb128 0xe
 1456 0181 3A       		.uleb128 0x3a
ARM GAS  /tmp/cchPklP4.s 			page 33


 1457 0182 0B       		.uleb128 0xb
 1458 0183 3B       		.uleb128 0x3b
 1459 0184 05       		.uleb128 0x5
 1460 0185 27       		.uleb128 0x27
 1461 0186 19       		.uleb128 0x19
 1462 0187 3C       		.uleb128 0x3c
 1463 0188 19       		.uleb128 0x19
 1464 0189 00       		.byte	0
 1465 018a 00       		.byte	0
 1466 018b 00       		.byte	0
 1467              		.section	.debug_aranges,"",%progbits
 1468 0000 1C000000 		.4byte	0x1c
 1469 0004 0200     		.2byte	0x2
 1470 0006 00000000 		.4byte	.Ldebug_info0
 1471 000a 04       		.byte	0x4
 1472 000b 00       		.byte	0
 1473 000c 0000     		.2byte	0
 1474 000e 0000     		.2byte	0
 1475 0010 00000000 		.4byte	.LFB219
 1476 0014 26000000 		.4byte	.LFE219-.LFB219
 1477 0018 00000000 		.4byte	0
 1478 001c 00000000 		.4byte	0
 1479              		.section	.debug_ranges,"",%progbits
 1480              	.Ldebug_ranges0:
 1481 0000 00000000 		.4byte	.LFB219
 1482 0004 26000000 		.4byte	.LFE219
 1483 0008 00000000 		.4byte	0
 1484 000c 00000000 		.4byte	0
 1485              		.section	.debug_line,"",%progbits
 1486              	.Ldebug_line0:
 1487 0000 5E020000 		.section	.debug_str,"MS",%progbits,1
 1487      02003C02 
 1487      00000201 
 1487      FB0E0D00 
 1487      01010101 
 1488              	.LASF46:
 1489 0000 63685F74 		.ascii	"ch_threads_list\000"
 1489      68726561 
 1489      64735F6C 
 1489      69737400 
 1490              	.LASF92:
 1491 0010 50434461 		.ascii	"PCData\000"
 1491      746100
 1492              	.LASF81:
 1493 0017 77746D74 		.ascii	"wtmtxp\000"
 1493      787000
 1494              	.LASF100:
 1495 001e 7364496E 		.ascii	"sdInit\000"
 1495      697400
 1496              	.LASF71:
 1497 0025 72656761 		.ascii	"regarm_t\000"
 1497      726D5F74 
 1497      00
 1498              	.LASF35:
 1499 002e 666C6167 		.ascii	"flags\000"
 1499      7300
 1500              	.LASF26:
ARM GAS  /tmp/cchPklP4.s 			page 34


 1501 0034 73797374 		.ascii	"systime_t\000"
 1501      696D655F 
 1501      7400
 1502              	.LASF41:
 1503 003e 7265616C 		.ascii	"realprio\000"
 1503      7072696F 
 1503      00
 1504              	.LASF39:
 1505 0047 6570656E 		.ascii	"epending\000"
 1505      64696E67 
 1505      00
 1506              	.LASF0:
 1507 0050 756E7369 		.ascii	"unsigned int\000"
 1507      676E6564 
 1507      20696E74 
 1507      00
 1508              	.LASF47:
 1509 005d 6E657874 		.ascii	"next\000"
 1509      00
 1510              	.LASF44:
 1511 0062 74687265 		.ascii	"threads_list_t\000"
 1511      6164735F 
 1511      6C697374 
 1511      5F7400
 1512              	.LASF7:
 1513 0071 5F5F696E 		.ascii	"__int32_t\000"
 1513      7433325F 
 1513      7400
 1514              	.LASF36:
 1515 007b 72656673 		.ascii	"refs\000"
 1515      00
 1516              	.LASF77:
 1517 0080 77746F62 		.ascii	"wtobjp\000"
 1517      6A7000
 1518              	.LASF68:
 1519 0087 76746C69 		.ascii	"vtlist\000"
 1519      737400
 1520              	.LASF73:
 1521 008e 706F7274 		.ascii	"port_context\000"
 1521      5F636F6E 
 1521      74657874 
 1521      00
 1522              	.LASF52:
 1523 009b 63685F72 		.ascii	"ch_ready_list\000"
 1523      65616479 
 1523      5F6C6973 
 1523      7400
 1524              	.LASF58:
 1525 00a9 66756E63 		.ascii	"func\000"
 1525      00
 1526              	.LASF82:
 1527 00ae 65776D61 		.ascii	"ewmask\000"
 1527      736B00
 1528              	.LASF50:
 1529 00b5 70726576 		.ascii	"prev\000"
 1529      00
 1530              	.LASF49:
ARM GAS  /tmp/cchPklP4.s 			page 35


 1531 00ba 63685F74 		.ascii	"ch_threads_queue\000"
 1531      68726561 
 1531      64735F71 
 1531      75657565 
 1531      00
 1532              	.LASF54:
 1533 00cb 76746675 		.ascii	"vtfunc_t\000"
 1533      6E635F74 
 1533      00
 1534              	.LASF63:
 1535 00d4 63685F73 		.ascii	"ch_system_debug\000"
 1535      79737465 
 1535      6D5F6465 
 1535      62756700 
 1536              	.LASF17:
 1537 00e4 75696E74 		.ascii	"uint32_t\000"
 1537      33325F74 
 1537      00
 1538              	.LASF79:
 1539 00ed 73656E74 		.ascii	"sentmsg\000"
 1539      6D736700 
 1540              	.LASF24:
 1541 00f5 6576656E 		.ascii	"eventmask_t\000"
 1541      746D6173 
 1541      6B5F7400 
 1542              	.LASF83:
 1543 0101 63685F73 		.ascii	"ch_semaphore\000"
 1543      656D6170 
 1543      686F7265 
 1543      00
 1544              	.LASF22:
 1545 010e 74707269 		.ascii	"tprio_t\000"
 1545      6F5F7400 
 1546              	.LASF56:
 1547 0116 63685F76 		.ascii	"ch_virtual_timer\000"
 1547      69727475 
 1547      616C5F74 
 1547      696D6572 
 1547      00
 1548              	.LASF13:
 1549 0127 6C6F6E67 		.ascii	"long long unsigned int\000"
 1549      206C6F6E 
 1549      6720756E 
 1549      7369676E 
 1549      65642069 
 1550              	.LASF5:
 1551 013e 5F5F7569 		.ascii	"__uint16_t\000"
 1551      6E743136 
 1551      5F7400
 1552              	.LASF25:
 1553 0149 636E745F 		.ascii	"cnt_t\000"
 1553      7400
 1554              	.LASF89:
 1555 014f 73746D33 		.ascii	"stm32_gpio_setup_t\000"
 1555      325F6770 
 1555      696F5F73 
 1555      65747570 
ARM GAS  /tmp/cchPklP4.s 			page 36


 1555      5F7400
 1556              	.LASF85:
 1557 0162 6F776E65 		.ascii	"owner\000"
 1557      7200
 1558              	.LASF48:
 1559 0168 74687265 		.ascii	"threads_queue_t\000"
 1559      6164735F 
 1559      71756575 
 1559      655F7400 
 1560              	.LASF40:
 1561 0178 6D74786C 		.ascii	"mtxlist\000"
 1561      69737400 
 1562              	.LASF60:
 1563 0180 63685F76 		.ascii	"ch_virtual_timers_list\000"
 1563      69727475 
 1563      616C5F74 
 1563      696D6572 
 1563      735F6C69 
 1564              	.LASF27:
 1565 0197 74687265 		.ascii	"thread_t\000"
 1565      61645F74 
 1565      00
 1566              	.LASF94:
 1567 01a0 50454461 		.ascii	"PEData\000"
 1567      746100
 1568              	.LASF75:
 1569 01a7 7264796D 		.ascii	"rdymsg\000"
 1569      736700
 1570              	.LASF88:
 1571 01ae 5F426F6F 		.ascii	"_Bool\000"
 1571      6C00
 1572              	.LASF91:
 1573 01b4 50424461 		.ascii	"PBData\000"
 1573      746100
 1574              	.LASF84:
 1575 01bb 63685F6D 		.ascii	"ch_mutex\000"
 1575      75746578 
 1575      00
 1576              	.LASF12:
 1577 01c4 5F5F7569 		.ascii	"__uint64_t\000"
 1577      6E743634 
 1577      5F7400
 1578              	.LASF97:
 1579 01cf 70616C5F 		.ascii	"pal_default_config\000"
 1579      64656661 
 1579      756C745F 
 1579      636F6E66 
 1579      696700
 1580              	.LASF29:
 1581 01e2 7072696F 		.ascii	"prio\000"
 1581      00
 1582              	.LASF101:
 1583 01e7 626F6172 		.ascii	"boardInit\000"
 1583      64496E69 
 1583      7400
 1584              	.LASF86:
 1585 01f1 63686172 		.ascii	"char\000"
ARM GAS  /tmp/cchPklP4.s 			page 37


 1585      00
 1586              	.LASF43:
 1587 01f6 74687265 		.ascii	"thread_reference_t\000"
 1587      61645F72 
 1587      65666572 
 1587      656E6365 
 1587      5F7400
 1588              	.LASF33:
 1589 0209 77616261 		.ascii	"wabase\000"
 1589      736500
 1590              	.LASF20:
 1591 0210 74737461 		.ascii	"tstate_t\000"
 1591      74655F74 
 1591      00
 1592              	.LASF102:
 1593 0219 7374496E 		.ascii	"stInit\000"
 1593      697400
 1594              	.LASF14:
 1595 0220 75696E74 		.ascii	"uint8_t\000"
 1595      385F7400 
 1596              	.LASF38:
 1597 0228 6D736771 		.ascii	"msgqueue\000"
 1597      75657565 
 1597      00
 1598              	.LASF45:
 1599 0231 63685F74 		.ascii	"ch_thread\000"
 1599      68726561 
 1599      6400
 1600              	.LASF62:
 1601 023b 73797374 		.ascii	"system_debug_t\000"
 1601      656D5F64 
 1601      65627567 
 1601      5F7400
 1602              	.LASF11:
 1603 024a 6C6F6E67 		.ascii	"long long int\000"
 1603      206C6F6E 
 1603      6720696E 
 1603      7400
 1604              	.LASF23:
 1605 0258 6D73675F 		.ascii	"msg_t\000"
 1605      7400
 1606              	.LASF55:
 1607 025e 76697274 		.ascii	"virtual_timer_t\000"
 1607      75616C5F 
 1607      74696D65 
 1607      725F7400 
 1608              	.LASF103:
 1609 026e 474E5520 		.ascii	"GNU C 4.8.2 -mcpu=cortex-m3 -mno-thumb-interwork -m"
 1609      4320342E 
 1609      382E3220 
 1609      2D6D6370 
 1609      753D636F 
 1610 02a1 7468756D 		.ascii	"thumb -ggdb -O2 -fomit-frame-pointer -falign-functi"
 1610      62202D67 
 1610      67646220 
 1610      2D4F3220 
 1610      2D666F6D 
ARM GAS  /tmp/cchPklP4.s 			page 38


 1611 02d4 6F6E733D 		.ascii	"ons=16 -ffunction-sections -fdata-sections -fno-com"
 1611      3136202D 
 1611      6666756E 
 1611      6374696F 
 1611      6E2D7365 
 1612 0307 6D6F6E20 		.ascii	"mon -flto\000"
 1612      2D666C74 
 1612      6F00
 1613              	.LASF64:
 1614 0311 70616E69 		.ascii	"panic_msg\000"
 1614      635F6D73 
 1614      6700
 1615              	.LASF19:
 1616 031b 746D6F64 		.ascii	"tmode_t\000"
 1616      655F7400 
 1617              	.LASF69:
 1618 0323 6D61696E 		.ascii	"mainthread\000"
 1618      74687265 
 1618      616400
 1619              	.LASF104:
 1620 032e 2E2E2F6F 		.ascii	"../os/hal/src/hal.c\000"
 1620      732F6861 
 1620      6C2F7372 
 1620      632F6861 
 1620      6C2E6300 
 1621              	.LASF15:
 1622 0342 75696E74 		.ascii	"uint16_t\000"
 1622      31365F74 
 1622      00
 1623              	.LASF93:
 1624 034b 50444461 		.ascii	"PDData\000"
 1624      746100
 1625              	.LASF3:
 1626 0352 73686F72 		.ascii	"short int\000"
 1626      7420696E 
 1626      7400
 1627              	.LASF8:
 1628 035c 6C6F6E67 		.ascii	"long int\000"
 1628      20696E74 
 1628      00
 1629              	.LASF74:
 1630 0365 706F7274 		.ascii	"port_intctx\000"
 1630      5F696E74 
 1630      63747800 
 1631              	.LASF96:
 1632 0371 49544D5F 		.ascii	"ITM_RxBuffer\000"
 1632      52784275 
 1632      66666572 
 1632      00
 1633              	.LASF90:
 1634 037e 50414461 		.ascii	"PAData\000"
 1634      746100
 1635              	.LASF66:
 1636 0385 63685F73 		.ascii	"ch_system\000"
 1636      79737465 
 1636      6D00
 1637              	.LASF61:
ARM GAS  /tmp/cchPklP4.s 			page 39


 1638 038f 6C617374 		.ascii	"lasttime\000"
 1638      74696D65 
 1638      00
 1639              	.LASF18:
 1640 0398 75696E74 		.ascii	"uint64_t\000"
 1640      36345F74 
 1640      00
 1641              	.LASF107:
 1642 03a1 68616C49 		.ascii	"halInit\000"
 1642      6E697400 
 1643              	.LASF67:
 1644 03a9 726C6973 		.ascii	"rlist\000"
 1644      7400
 1645              	.LASF108:
 1646 03af 5F70616C 		.ascii	"_pal_lld_init\000"
 1646      5F6C6C64 
 1646      5F696E69 
 1646      7400
 1647              	.LASF105:
 1648 03bd 2F686F6D 		.ascii	"/home/jerson/ChibiOS/rt_stm32f100rb_onion\000"
 1648      652F6A65 
 1648      72736F6E 
 1648      2F436869 
 1648      62694F53 
 1649              	.LASF4:
 1650 03e7 5F5F7569 		.ascii	"__uint8_t\000"
 1650      6E74385F 
 1650      7400
 1651              	.LASF106:
 1652 03f1 6F73616C 		.ascii	"osalInit\000"
 1652      496E6974 
 1652      00
 1653              	.LASF32:
 1654 03fa 6E616D65 		.ascii	"name\000"
 1654      00
 1655              	.LASF99:
 1656 03ff 70776D49 		.ascii	"pwmInit\000"
 1656      6E697400 
 1657              	.LASF95:
 1658 0407 50414C43 		.ascii	"PALConfig\000"
 1658      6F6E6669 
 1658      6700
 1659              	.LASF70:
 1660 0411 73697A65 		.ascii	"sizetype\000"
 1660      74797065 
 1660      00
 1661              	.LASF21:
 1662 041a 74726566 		.ascii	"trefs_t\000"
 1662      735F7400 
 1663              	.LASF10:
 1664 0422 6C6F6E67 		.ascii	"long unsigned int\000"
 1664      20756E73 
 1664      69676E65 
 1664      6420696E 
 1664      7400
 1665              	.LASF98:
 1666 0434 68616C5F 		.ascii	"hal_lld_init\000"
ARM GAS  /tmp/cchPklP4.s 			page 40


 1666      6C6C645F 
 1666      696E6974 
 1666      00
 1667              	.LASF51:
 1668 0441 72656164 		.ascii	"ready_list_t\000"
 1668      795F6C69 
 1668      73745F74 
 1668      00
 1669              	.LASF28:
 1670 044e 71756575 		.ascii	"queue\000"
 1670      6500
 1671              	.LASF16:
 1672 0454 696E7433 		.ascii	"int32_t\000"
 1672      325F7400 
 1673              	.LASF80:
 1674 045c 77747365 		.ascii	"wtsemp\000"
 1674      6D7000
 1675              	.LASF87:
 1676 0463 6D757465 		.ascii	"mutex_t\000"
 1676      785F7400 
 1677              	.LASF30:
 1678 046b 6E657765 		.ascii	"newer\000"
 1678      7200
 1679              	.LASF2:
 1680 0471 756E7369 		.ascii	"unsigned char\000"
 1680      676E6564 
 1680      20636861 
 1680      7200
 1681              	.LASF9:
 1682 047f 5F5F7569 		.ascii	"__uint32_t\000"
 1682      6E743332 
 1682      5F7400
 1683              	.LASF37:
 1684 048a 77616974 		.ascii	"waiting\000"
 1684      696E6700 
 1685              	.LASF59:
 1686 0492 76697274 		.ascii	"virtual_timers_list_t\000"
 1686      75616C5F 
 1686      74696D65 
 1686      72735F6C 
 1686      6973745F 
 1687              	.LASF34:
 1688 04a8 73746174 		.ascii	"state\000"
 1688      6500
 1689              	.LASF65:
 1690 04ae 63685F73 		.ascii	"ch_system_t\000"
 1690      79737465 
 1690      6D5F7400 
 1691              	.LASF78:
 1692 04ba 77747472 		.ascii	"wttrp\000"
 1692      7000
 1693              	.LASF1:
 1694 04c0 7369676E 		.ascii	"signed char\000"
 1694      65642063 
 1694      68617200 
 1695              	.LASF57:
 1696 04cc 64656C74 		.ascii	"delta\000"
ARM GAS  /tmp/cchPklP4.s 			page 41


 1696      6100
 1697              	.LASF6:
 1698 04d2 73686F72 		.ascii	"short unsigned int\000"
 1698      7420756E 
 1698      7369676E 
 1698      65642069 
 1698      6E7400
 1699              	.LASF72:
 1700 04e5 73746B61 		.ascii	"stkalign_t\000"
 1700      6C69676E 
 1700      5F7400
 1701              	.LASF53:
 1702 04f0 63757272 		.ascii	"current\000"
 1702      656E7400 
 1703              	.LASF31:
 1704 04f8 6F6C6465 		.ascii	"older\000"
 1704      7200
 1705              	.LASF76:
 1706 04fe 65786974 		.ascii	"exitcode\000"
 1706      636F6465 
 1706      00
 1707              	.LASF42:
 1708 0507 6D706F6F 		.ascii	"mpool\000"
 1708      6C00
 1709              		.comm	__gnu_lto_v1,1,1
 1710              		.ident	"GCC: (4.8.2-14ubuntu1+6) 4.8.2"
ARM GAS  /tmp/cchPklP4.s 			page 42


DEFINED SYMBOLS
                            *ABS*:0000000000000000 hal.c
     /tmp/cchPklP4.s:138    .text.halInit:0000000000000000 $t
     /tmp/cchPklP4.s:144    .text.halInit:0000000000000000 halInit
                            *COM*:0000000000000001 __gnu_lto_v1
                     .debug_frame:0000000000000010 $d

UNDEFINED SYMBOLS
hal_lld_init
pal_default_config
_pal_lld_init
pwmInit
sdInit
boardInit
stInit
