ARM GAS  /tmp/ccHDf2Hc.s 			page 1


   1              		.syntax unified
   2              		.cpu cortex-m3
   3              		.fpu softvfp
   4              		.eabi_attribute 20, 1
   5              		.eabi_attribute 21, 1
   6              		.eabi_attribute 23, 3
   7              		.eabi_attribute 24, 1
   8              		.eabi_attribute 25, 1
   9              		.eabi_attribute 26, 1
  10              		.eabi_attribute 30, 2
  11              		.eabi_attribute 34, 1
  12              		.eabi_attribute 18, 4
  13              		.thumb
  14              		.file	"hal_pal_lld.c"
  15              		.text
  16              	.Ltext0:
  17              		.section	.gnu.lto_.jmpfuncs.d72fa68e513e2c33,"",%progbits
  18 0000 789C6362 		.ascii	"x\234cb`b\300\006\330\2404\023\003##;\003\000\001/\000"
  18      6062C006 
  18      D8A03413 
  18      0323233B 
  18      0300012F 
  19 0015 16       		.ascii	"\026"
  20              		.text
  21              		.section	.gnu.lto_.inline.d72fa68e513e2c33,"",%progbits
  22 0000 789C6D91 		.ascii	"x\234m\221\261\015\3020\020E\357.\006\"\032\\\321\022"
  22      B10DC230 
  22      1045EF2E 
  22      06221A5C 
  22      D112
  23 0012 894CC000 		.ascii	"\211L\300\000\310cP\322\001[\334\012T\210\012\217\222"
  23      C86350D2 
  23      015BDC0A 
  23      54880A8F 
  23      92
  24 0023 968E0128 		.ascii	"\226\216\001((\031\003\337}'\025)\336\377gK\317\226"
  24      281903DF 
  24      7D271529 
  24      DEFF674B 
  24      CF96
  25 0035 2324F4EF 		.ascii	"#$\364\357{0\262\354\366[^Q\031\033r&g\347<:3{(b\250"
  25      7B30B2EC 
  25      F65B5E51 
  25      191B7226 
  25      67E73C3A 
  26 004e 93787C30 		.ascii	"\223x|0\345:!\006\2046\230\020\271\351\372|\027\232"
  26      E53A2106 
  26      84369810 
  26      B9E9FA7C 
  26      179A
  27 0060 E74DD9FE 		.ascii	"\347M\331\376.\002hh\275\266\206\3505\032:\257\235!"
  27      2E026868 
  27      BDB686E8 
  27      351A3AAF 
  27      9D21
  28 0072 794D0665 		.ascii	"yM\006eA8\005\003\030j8\341T\227*\254\352Z\205W]\254"
  28      41380503 
ARM GAS  /tmp/ccHDf2Hc.s 			page 2


  28      186A38E1 
  28      54972AAC 
  28      EA5A8557 
  29 0088 302BD4A3 		.ascii	"0+\324\243\273\312G{\325\217\376r\000\331S\365W\346"
  29      BBCA477B 
  29      D58FFE72 
  29      00D953F5 
  29      57E6
  30 009a 999C0E7C 		.ascii	"\231\234\016|a{;9O\015kaZ\263f\357\335\356^\357H\313"
  30      617B3B39 
  30      4F0D6B61 
  30      5AB366EF 
  30      DDEE5EEF 
  31 00b0 612F14F2 		.ascii	"a/\024\362&Q\030\326\251\\\360\311\321nkA|\023;\246"
  31      265118D6 
  31      A95CF0C9 
  31      D16E6B41 
  31      7C133BA6 
  32 00c4 D07FCF0F 		.ascii	"\320\177\317\017\201\324D\242"
  32      81D444A2 
  33              		.text
  34              		.section	.gnu.lto_.pureconst.d72fa68e513e2c33,"",%progbits
  35 0000 789C6362 		.ascii	"x\234cb`b`e\200\000&\006)F)\000\001\006\000A"
  35      60626065 
  35      80002606 
  35      29462900 
  35      01060041 
  36              		.text
  37              		.section	.gnu.lto__pal_lld_init.d72fa68e513e2c33,"",%progbits
  38 0000 789CA596 		.ascii	"x\234\245\226\301k\023A\024\207\337\233\315n61\204\020"
  38      C16B1341 
  38      1487DF9B 
  38      CD6E3631 
  38      8410
  39 0012 42484308 		.ascii	"BHC\010!z\023\262D\377\005A\012-\012F\320C\221Z!\006"
  39      217A13B2 
  39      44FF0541 
  39      0A2D0A46 
  39      D043915A 
  40 0028 222D56BC 		.ascii	"\"-V\274I'\232\203\307\034\213J\2517\361P=\2467\311"
  40      49279A83 
  40      C71C8B4A 
  40      A937F150 
  40      3DA637C9 
  41 003c 41F010D1 		.ascii	"A\360\020\321\233\364\324\253\012*z\361V\347\355\316"
  41      9BF4D4AB 
  41      0A2A7AF1 
  41      56E7EDCE 
  42 004c 24834B20 		.ascii	"$\203K /\035\330\337\3142;\217o\363=\330\010\020\360"
  42      2F1DD8DF 
  42      CC323B8F 
  42      6FF33DD8 
  42      0810F0
  43 005f FF5852D7 		.ascii	"\377XR\327Z\012\240\251ft\000\305\340#@\317\027\210"
  43      5A0AA0A9 
  43      667400C5 
  43      E02340CF 
ARM GAS  /tmp/ccHDf2Hc.s 			page 3


  43      1788
  44 0071 B400841D 		.ascii	"\264\000\204\035\201;71|\366\215xw|rr0|\177\360\002"
  44      813B3731 
  44      7CF68D78 
  44      777C7272 
  44      307C7FF0 
  45 0086 F7C43901 		.ascii	"\367\3049\001\035\004\207\302\305{\010\036\255|\212"
  45      1D0487C2 
  45      C57B081E 
  45      AD7C8A
  46 0095 34458622 		.ascii	"4E\206\"K\221\243\310S\024(\212\024%\2122E\205\242J"
  46      4B91A3C8 
  46      5314288A 
  46      14258A32 
  46      4585A24A 
  47 00a9 51A3A853 		.ascii	"Q\243\250S\250\341B_\312A\015`#\274m\251$\240\353(h"
  47      A8E1425F 
  47      CA410D60 
  47      23BC6DA9 
  47      24A0EB28 
  48 00be 76C6303A 		.ascii	"v\3060:\032~+\255\343Kt\241\215\342<\274\226\375^\256"
  48      1A7E2BAD 
  48      E34B74A1 
  48      8DE23CBC 
  48      96FD5EAE 
  49 00d2 83F81C9E 		.ascii	"\203\370\034\236a\007\305\015\025\216\334\177*\023\020"
  49      6107C50D 
  49      158EDC7F 
  49      2A1310
  50 00e1 2EC317B8 		.ascii	".\303\027\270\215\346\265\307\360\344\3201\247\235v"
  50      8DE6B5C7 
  50      F0E4D031 
  50      A79D76
  51 00f0 F43C3C0A 		.ascii	"\364<<\012wF\313\321\006\257f\233\356\307\360\370\350"
  51      7746CBD1 
  51      06AF669B 
  51      EEC7F0F8 
  51      E8
  52 0101 CBF75F93 		.ascii	"\313\367_\223\312\036\325P\025\0224\017\244\\\353\240"
  52      CA1ED550 
  52      1512340F 
  52      A45CEBA0 
  53 0111 1B15F3DA 		.ascii	"\033\025\363\332\350R\221\244.\202z\026\023\300\321"
  53      E85291A4 
  53      2E827A16 
  53      13C0D1
  54 0120 874F491B 		.ascii	"\207OI\033D6'$>\235L\311A_\223\244\364aG\223x\021\311"
  54      44362724 
  54      3E9D4CC9 
  54      415F93A4 
  54      F4614793 
  55 0137 5F8BC467 		.ascii	"_\213\304g\223$NC\342j\022?\"\331\3751%I\263I\274\323"
  55      93244E43 
  55      E26A123F 
  55      22D9FD31 
  55      2549B349 
  56 014d 90243549 		.ascii	"\220$5I:\"\031Z$\231\271I\374\005\354\354\316\262\223"
ARM GAS  /tmp/ccHDf2Hc.s 			page 4


  56      3A22195A 
  56      2499B949 
  56      FC05ECEC 
  56      CEB293
  57 0160 D17D6291 		.ascii	"\321}b\221d\331$\034;1\022c'\253\373\304\"\311\261I"
  57      64D9241C 
  57      3B311263 
  57      27ABFBC4 
  57      22C9B149 
  58 0174 38766224 		.ascii	"8vb$\306NN\367\311\317)I~n\022S\214cg\177\226\235\274"
  58      C64E4EF7 
  58      C9CF2949 
  58      7E6E1253 
  58      8C63677F 
  59 018b EE138BA4 		.ascii	"\356\023\213\244\300&\341\330\211\221\030;\005\335'"
  59      C026E1D8 
  59      8991183B 
  59      05DD27
  60 019a 1649914D 		.ascii	"\026I\221M\302\261\023#1v\212\272O,\222\322\334$\351"
  60      C2B11323 
  60      31768ABA 
  60      4F2C92D2 
  60      DC24E9
  61 01ad 05ECBC9A 		.ascii	"\005\354\274\232e\247\244\373\344\367\224\244\314&\341"
  61      65A7A4FB 
  61      E4F794A4 
  61      CC26E1
  62 01bc D8899118 		.ascii	"\330\211\221\030;e\335'\026I\205M\302\261\023#1v*\332"
  62      3B65DD27 
  62      1649854D 
  62      C2B11323 
  62      31762ADA 
  63 01d0 8E45529D 		.ascii	"\216ER\235\233\344\314\002v\336\316\262S\325v\376LI"
  63      9BE4CC02 
  63      76DECEB2 
  63      53D576FE 
  63      4C49
  64 01e2 6A6C128E 		.ascii	"jl\022\216\235\030\211\261S\323v,\222:\233\204c'Fb\354"
  64      9D1889B1 
  64      53D3762C 
  64      923A9B84 
  64      63274662 
  65 01f7 D4013E43 		.ascii	"\324\001>C\357\370\353\331\350\274\031-\365uS\177d\350"
  65      EFF8EBD9 
  65      E8BC192D 
  65      F575537F 
  65      64E8
  66 0209 670F1A8D 		.ascii	"g\017\032\215`s;\270\273\336\015\2666\357?\330\016\256"
  66      60733BB8 
  66      BBDE0DB6 
  66      36EF3FD8 
  66      0EAE
  67 021b B5562F5E 		.ascii	"\265V/^\010VV.\005\227\257._y\330\244\255[[\352\352"
  67      0856562E 
  67      0597AF2E 
  67      5F79D8A4 
  67      AD5B5BEA 
ARM GAS  /tmp/ccHDf2Hc.s 			page 5


  68 0230 76EF3436 		.ascii	"v\35746\340\037\356r\013\326"
  68      E01FEE72 
  68      0BD6
  69              		.text
  70              		.section	.gnu.lto__pal_lld_setgroupmode.d72fa68e513e2c33,"",%progbits
  71 0000 789C9556 		.ascii	"x\234\225V]h\\U\020\236\271\377w\367\356n\311\377\177"
  71      5D685C55 
  71      109EB9FF 
  71      77F7EE6E 
  71      C9FF7F
  72 0013 D2D04445 		.ascii	"\322\320DE\314\322\026DD(\210\"BE\301\004\364Ic\202"
  72      CCD21644 
  72      44288822 
  72      4245C104 
  72      F4496382 
  73 0027 370B595A 		.ascii	"7\013YZR\361\305\207\336d\363P\212H\020\\\342\317C\242"
  73      52F1C587 
  73      DE64F350 
  73      8A48105C 
  73      E2CF43A2 
  74 003b 044B8C46 		.ascii	"\004K\214F\005i\242\202\233`\241iS!OqM\205UQ\301\004"
  74      0569A282 
  74      9B60A169 
  74      53214F71 
  74      4D855551 
  75 0051 158A906A 		.ascii	"\025\212\220j\353:\347\357nv]I\274\260g\316\235\231"
  75      EB3AE7EF 
  75      6E765D49 
  75      BCB067CE 
  75      9D99
  76 0063 6F66BE99 		.ascii	"of\276\231\263gW\003\015*\237O\350\263\345\002<L\022"
  76      B3675703 
  76      0D2A9F4F 
  76      E8B3E502 
  76      3C4C12
  77 0076 0F016A53 		.ascii	"\017\001jS_\001\214;\232\246\377^\017A\304\230\271\017"
  77      5F018C3B 
  77      9AA6FF5E 
  77      0F41C498 
  77      B90F
  78 0088 024F474B 		.ascii	"\002OGK\250\015\315\344j\213\253M\245\2660.6\266\346"
  78      A80DCDE4 
  78      6A8BAB4D 
  78      A5B6302E 
  78      36B6E6
  79 009b 9CBB83EC 		.ascii	"\234\273\203\354.[=\007#B\355\252MD\213r\273\307\355"
  79      2E5B3D07 
  79      2342EDAA 
  79      4D448B72 
  79      BBC7ED
  80 00ae 518C09B5 		.ascii	"Q\214\011\265\24761\021h\305\211k\366\362% \317\304"
  80      A7363111 
  80      68C5896B 
  80      F6F22520 
  80      CFC4
  81 00c0 A6439E09 		.ascii	"\246C\236\011D\246\007\204\263\232n\230\226\355\270"
  81      44A60784 
ARM GAS  /tmp/ccHDf2Hc.s 			page 6


  81      B39A6E98 
  81      96EDB8
  82 00cf 91A8178B 		.ascii	"\221\250\027\213'\360\354\323\310h\030i\204n\230\015"
  82      27F0ECD3 
  82      C8681869 
  82      846E980D 
  83 00df 82570B73 		.ascii	"\202W\013s\037\254\351\257\007\271\311\231\340V\261"
  83      1FACE9AF 
  83      07B9C999 
  83      E056B1
  84 00ee 88984262 		.ascii	"\210\230Bb}\014a\010\341)z\301..4\243\274\015\002\033"
  84      7D0C6108 
  84      E1297AC1 
  84      2E2E34A3 
  84      BC0D021B 
  85 0102 DC1EBE1C 		.ascii	"\334\036\276\034L\346\212\305\023\034u\357\301P\271"
  85      4CE68AC5 
  85      131C75EF 
  85      C150B9
  86 0111 3FCEBFD2 		.ascii	"?\316\277\322\034\314LL\005\177S\302\024\352\032\334"
  86      1CCC4C4C 
  86      057F53C2 
  86      14EA1ADC 
  87 0121 BF1F7251 		.ascii	"\277\037rQ\313\025\212\305\365\215\235\357\267\261\346"
  87      CB158AC5 
  87      F58D9DEF 
  87      B7B1E6
  88 0130 4E8434A2 		.ascii	"N\2044\242\006\2038\213\335\240KiHiJiIiK\351H\351J\031"
  88      0683388B 
  88      DDA04B69 
  88      48694A69 
  88      49694BE9 
  89 0148 213947D2 		.ascii	"!9G\322\3034jqZ\364\004-X\003)4j\311\366\016\331\352"
  89      C3346A71 
  89      5AF4042D 
  89      58032934 
  89      6AC9F60E 
  90 015e A46FBD94 		.ascii	"\244o\275\224\015R6J\331D\316f\263|i\221\262\225)\333"
  90      0D52364A 
  90      D944CE66 
  90      B37C6991 
  90      B29529DB 
  91 0172 E44BBB94 		.ascii	"\344K\273\224\035\254\344N\231\262\213y\034fK7[\216"
  91      1DACE44E 
  91      99B28B79 
  91      1C664B37 
  91      5B8E
  92 0184 B0A5872D 		.ascii	"\260\245\207-\275l!\272&L\006\301TW8\244\334\215\362"
  92      BD6C21BA 
  92      264C06C1 
  92      545738A4 
  92      DC8DF2
  93 0197 9651B31F 		.ascii	"\226Q\263\0378\340\2106\312Ft\342\200\250|\031\352\301"
  93      38E08836 
  93      CA4674E2 
  93      80A87C19 
  93      EAC1
ARM GAS  /tmp/ccHDf2Hc.s 			page 7


  94 01a9 FD5082A3 		.ascii	"\375P\202\243\350\231\240\010\014AO?\255t$\007h\\\233"
  94      E899A008 
  94      0C414F3F 
  94      AD742407 
  94      685C9B
  95 01bc 8E7E19BE 		.ascii	"\216~\031\276\374y\345\346y}\020\337%\236>z,\230\251"
  95      FC79E5E6 
  95      797D10DF 
  95      259E3E7A 
  95      2C98A9
  96 01cf EF893480 		.ascii	"\357\2114\200:\\\324\364k\260zuiqE\023\216w\303|09\036"
  96      3A5CD4F4 
  96      6BB07A75 
  96      69714513 
  96      8E77C37C 
  97 01e6 1C4FA1F5 		.ascii	"\034O\241\365&\274A\020\333\3078\203:\034\363\034\012"
  97      26BC4110 
  97      DBC73883 
  97      3A1CF31C 
  97      0A
  98 01f7 AC8F0915 		.ascii	"\254\217\011\025\304\200\031Kd\273}%V\236\315(\313f"
  98      C480194B 
  98      64BB7D25 
  98      569ECD28 
  98      CB66
  99 0209 420179B6 		.ascii	"B\001y\266\335\305\233x\300lX\231\315b\334\256\301\304"
  99      DDC59B78 
  99      C06C5899 
  99      CD62DCAE 
  99      C1C4
 100 021b F5E98F55 		.ascii	"\365\351\217U\020\037k\356\201\205\340P\012]\0122>\305"
 100      101F6BEE 
 100      8185E050 
 100      0A5D0A32 
 100      3EC5
 101 022d 769197E0 		.ascii	"v\221\227\340\317`\232\355\242i\036\203\005\215\312"
 101      CF609AED 
 101      A2691E83 
 101      058DCA
 102 023c 605E5814 		.ascii	"`^X\024\005\3725\323\241\302\324R$\2005\220\255\020"
 102      05FA35D3 
 102      A1C2D452 
 102      24803590 
 102      AD10
 103 024e 3D2635D3 		.ascii	"=&5\323M\024\326~\214*=\233\000\013\310c\220-w\227\262"
 103      4D14D67E 
 103      8C2A3D9B 
 103      000BC863 
 103      902D7797 
 104 0263 2C545A5A 		.ascii	",TZZ\225e\276\322b)\313\205\012K\341\312\245\3206'm"
 104      9565BED2 
 104      6229CB85 
 104      0A4BE1CA 
 104      A5D03627 
 105 0278 E1DC06D0 		.ascii	"\341\334\006\320\006\272~\250\005\231\3673\213\331&"
 105      06BA7EA8 
 105      0599F733 
ARM GAS  /tmp/ccHDf2Hc.s 			page 8


 105      8BD926
 106 0287 557B9D8F 		.ascii	"U{\235\217&s\364\014(\2430\317)\3241\252\004\370\250"
 106      2673F40C 
 106      28A330CF 
 106      29D431AA 
 106      04F8A8
 107 029a 41F9D7FB 		.ascii	"A\371\327\373\250W\363\277\300\375\353\245\377\305l"
 107      A857F3BF 
 107      C0FDEBA5 
 107      FFC56C
 108 02a9 B30234F8 		.ascii	"\263\0024\370\350V\003\314r@\203\004,\207\011\032}\264"
 108      E85603CC 
 108      72408304 
 108      2C87091A 
 108      7DB4
 109 02bb ABF92F70 		.ascii	"\253\371/p\377F\356\377Y\346\213l\247\0024\371\210\374"
 109      FF46EEFF 
 109      59E68B6C 
 109      A70234F9 
 109      88FC
 110 02cd D404AC13 		.ascii	"\324\004\254\023\354@\215\037\015m\334\260\367k0@G\344"
 110      EC408D1F 
 110      0D6DDCB0 
 110      F76B3040 
 110      47E4
 111 02df DB6ED686 		.ascii	"\333n\326\206\345\314\017\331\026\345\330L\\\271o\242"
 111      E5CC0FD9 
 111      16E5D84C 
 111      5CB96FA2 
 112 02ef 5A1B9A15 		.ascii	"Z\033\232\025\326\015\261\333\331V\205m\341$k\253\260"
 112      D60DB1DB 
 112      D956856D 
 112      E1246BAB 
 112      B0
 113 0300 6B51B808 		.ascii	"kQ\270\010\357=\315\310\201\320\350\360\241q\205\310"
 113      EF3DCDC8 
 113      81D0E8F0 
 113      A17185C8 
 114 0310 62486EBF 		.ascii	"bHn\277\225\270\265\206\334\002\355_\344Z+\310\345\301"
 114      95B8B586 
 114      DC02ED5F 
 114      E45A2BC8 
 114      E5C1
 115 0322 A0529D97 		.ascii	"\240R\235\227\267F\210\214\373y\376\331<8T\232s=?L\245"
 115      B746888C 
 115      FB79FED9 
 115      3C38549A 
 115      733D3F4C 
 116 0337 B80B5BA3 		.ascii	"\270\013[\243\254\224hH\341F\211~\033\215\256\032}1"
 116      AC946848 
 116      E146897E 
 116      1B8DAE1A 
 116      7D31
 117 0349 D53645C3 		.ascii	"\3256E\303\013\261\177\225\350\267\363\231\325V\031"
 117      0BB17F95 
 117      E8B7F399 
 117      D55619
ARM GAS  /tmp/ccHDf2Hc.s 			page 9


 118 0358 56BBC2C5 		.ascii	"V\273\302\305\312\350\013\243U\242/\262h\362(\024Ke"
 118      CAE80BA3 
 118      55A22FB2 
 118      68F22814 
 118      4B65
 119 036a 7548FA1E 		.ascii	"uH\372\036\356-\213ni2q\357s\231\367\262I\345\335\351"
 119      EE2D8B6E 
 119      693271EF 
 119      7399F7B2 
 119      49E5DDE9 
 120 037e 63849F79 		.ascii	"c\204\237y,'1\307\303w\212\026iD'\272\316ZT\357\255"
 120      2C2731C7 
 120      C3778A16 
 120      694427BA 
 120      CE5A54EF 
 121 0393 B3165954 		.ascii	"\263\026YT~t\207\265\250\335\333\021-\212\003\3752\207"
 121      7E7487B5 
 121      A8DDDB11 
 121      2D8A03FD 
 121      3287
 122 03a5 E50A78A4 		.ascii	"\345\012x\244T\256\030\237[R\010Bv\345<\315J\206\272"
 122      54AE189F 
 122      5B520842 
 122      76E53CCD 
 122      4A86BA
 123 03b8 527006C8 		.ascii	"Rp\006\310\3469\371\323\312kW\303\373H\224o\357\231"
 123      E639F9D3 
 123      CA6B57C3 
 123      FB48946F 
 123      EF99
 124 03ca 28F9252C 		.ascii	"(\371%,F7vkk$\017\272\374\276[o\345\351\330k1\314\203"
 124      4637766B 
 124      6B240FBA 
 124      FCBE5B6F 
 124      E5E9D86B 
 125 03e1 A9544B3A 		.ascii	"\251TK:\035!\246\261\225f\332\24463\215\2534\273\244"
 125      1D21A6B1 
 125      9566DAA4 
 125      36338DAB 
 125      34BBA4
 126 03f4 71982622 		.ascii	"q\230&\"/\007k!O\255\350\214\355\232\214xB\\\222\253"
 126      2F076B21 
 126      4FADE88C 
 126      ED9A8C78 
 126      425C92AB 
 127 0408 DF2C7DFA 		.ascii	"\337,}\372\235\246\212\352\342\227-\376\347U\253\376"
 127      9DA68AEA 
 127      E2972DFE 
 127      E755ABFE 
 128 0418 80F1B3FB 		.ascii	"\200\361\263\373K\310\3450!9e~^\336\016\303us\223\315"
 128      4BC8E530 
 128      2139657E 
 128      5EDE0EC3 
 128      757393CD 
 129 042c F4AB6B1F 		.ascii	"\364\253k\037\332e\367yb\237$>\373\325b\365}\275\247"
 129      DA65F779 
 129      629F243E 
ARM GAS  /tmp/ccHDf2Hc.s 			page 10


 129      FBD562F5 
 129      7DBDA7
 130 043f BE23FBD4 		.ascii	"\276#\373\324\247W\257\257\207\220|F\025\365\365r\223"
 130      A757AFAF 
 130      87907C46 
 130      15F5F572 
 130      93
 131 0450 FB3FEBD3 		.ascii	"\373?\353\323e}\275\000\0330^\330\356\0218\365\364\323"
 131      657DBD00 
 131      1B305ED8 
 131      EE1138F5 
 131      F4D3
 132 0462 B4371D46 		.ascii	"\2647\035F\"\331\327\227<u&928\232<}j\354\2053\311'"
 132      22D9D797 
 132      3C752639 
 132      32389A3C 
 132      7D6AEC85 
 133 0479 FB1F3B7E 		.ascii	"\373\037;~,y\362\344C\311G\236x\364\361\027\2172\323"
 133      2C79F2E4 
 133      43C9479E 
 133      78F4F117 
 133      8F32D3
 134 048c 33A7E933 		.ascii	"3\247\3513::\3347\004\372\320\330\250>\364\274\217)"
 134      3A3ADC37 
 134      04FAD0D8 
 134      A83EF4BC 
 134      8F29
 135 049e 2D3DA2A5 		.ascii	"-=\242\245i?6\362\017\360OE\271"
 135      693F36F2 
 135      0FF04F45 
 135      B9
 136              		.text
 137              		.section	.gnu.lto_.symbol_nodes.d72fa68e513e2c33,"",%progbits
 138 0000 789C6362 		.ascii	"x\234cb`bPg\200\002\246\333\214\365\014\014\023\316"
 138      60625067 
 138      8002A6DB 
 138      8CF50C0C 
 138      13CE
 139 0012 3130D4D7 		.ascii	"10\324\327\317\353`d\272\303X\317\210\340\262\336ed"
 139      CFEB6064 
 139      BAC358CF 
 139      88E0B2DE 
 139      6564
 140 0024 60A96766 		.ascii	"`\251gf\000\000\361/\013W"
 140      0000F12F 
 140      0B57
 141              		.text
 142              		.section	.gnu.lto_.refs.d72fa68e513e2c33,"",%progbits
 143 0000 789C6362 		.ascii	"x\234cb`b`e\200\000FF \007\000\000\237\000\016"
 143      60626065 
 143      80004646 
 143      20070000 
 143      9F000E
 144              		.text
 145              		.section	.gnu.lto_.decls.d72fa68e513e2c33,"",%progbits
 146 0000 789CAD58 		.ascii	"x\234\255XkL\024W\024\276wf]XX\361\221`4i\343jk\323"
 146      6B4C1457 
ARM GAS  /tmp/ccHDf2Hc.s 			page 11


 146      14BE7766 
 146      5D5858F1 
 146      91603469 
 147 0018 DA9605AC 		.ascii	"\332\226\005\254\206&\255\215\354\242\322\242\222A\233"
 147      8626AD8D 
 147      ECA2D2A2 
 147      92419B
 148 0027 FEDB8EB0 		.ascii	"\376\333\216\260\300\246\300\022\030Z\372o\012X-D\273"
 148      C0A6C012 
 148      185AFA6F 
 148      0A582D44 
 148      BB
 149 0038 2AF8D682 		.ascii	"*\370\326\202\242\321\252Q\264\244!Z\235\022\015V\032"
 149      A2D1AA51 
 149      B4A4215A 
 149      9D120D56 
 149      1A
 150 0049 B52A984A 		.ascii	"\265*\230J\2554\251\325\324Dc\215Z\037u{\356\235\307"
 150      AD34A9D5 
 150      D444638D 
 150      5A1F757B 
 150      EE9DC7
 151 005c CEEC839D 		.ascii	"\316\354\203\2355Nr\316\314\2369\347\273\337}\235{v"
 151      354E72CE 
 151      CC9E39E7 
 151      BBDF7D9D 
 151      7B76
 152 006e 18C4A037 		.ascii	"\030\304\24070BA\270\336\235\200P\001\203\020\213\020"
 152      304241B8 
 152      DE9D8050 
 152      0183108B 
 152      10
 153 007f 9A0D0266 		.ascii	"\232\015\002f\224\204\344\013\314\250\003\244_\261\337"
 153      9484E40B 
 153      CCA803A4 
 153      5FB1DF
 154 008e 47C68BBC 		.ascii	"G\306\213\274KQ\374\007@,\3404\005d*\310K ;\301\326"
 154      4B51FC07 
 154      402CE034 
 154      05642AC8 
 154      4B203BC1 
 155 00a3 097216E4 		.ascii	"\011r\026\344\032\210\035$\035\354{\341\336\0052\004"
 155      1A881D24 
 155      1DEC7BE1 
 155      DE053204 
 156 00b3 7204E412 		.ascii	"r\004\344\022H\017\310E\220c \022H/\310\011\245\335"
 156      480FC845 
 156      90632012 
 156      482FC809 
 156      A5DD
 157 00c5 0EE57E2A 		.ascii	"\016\345~*\254}\302k4\310!\2204\005\177\224\256\017"
 157      AC7DC26B 
 157      34C82190 
 157      34057F94 
 157      AE0F
 158 00d7 034ADB67 		.ascii	"\003J\333g@\376\005y\000\3622\274\264 Y\256\200\\U\332"
 158      40FE0579 
ARM GAS  /tmp/ccHDf2Hc.s 			page 12


 158      00F232BC 
 158      B42059AE 
 158      805C55DA 
 159 00eb BFA8C4F5 		.ascii	"\277\250\304\365+\357H_\357\200\334\005\271\035\326"
 159      2BEF485F 
 159      EF80DC05 
 159      B91DD6
 160 00fa EE64B44D 		.ascii	"\356d\264Ml\037\036^v\375\340$\261\275A\012\006\337"
 160      6C1F1E5E 
 160      76FDE024 
 160      B1BD410A 
 160      06DF
 161 010c 4313509B 		.ascii	"C\023P\233\010W\373\227\242\210\005\036\317NG\037a\036"
 161      0857FB97 
 161      A288051E 
 161      CF4E471F 
 161      611E
 162 011e A7D99083 		.ascii	"\247\331\220\203>\330m\024\024!\036o\307\023\350\023"
 162      3ED86D14 
 162      14211E6F 
 162      C713E813 
 163 012e 4B8717A5 		.ascii	"K\207\027\245\242fQl \201\363O\245\215G\253)\012\200"
 163      A266516C 
 163      2081F34F 
 163      A58D47AB 
 163      290A80
 164 0141 9C820E29 		.ascii	"\234\202\016)\020\303\254\212\361\016\004LC\235\242"
 164      10C3AC8A 
 164      F10E044C 
 164      439DA2
 165 0150 18181EB8 		.ascii	"\030\030\036\270\327\312\212b\262\022\341\210\351\316"
 165      D7CA8A62 
 165      B212E188 
 165      E9CE
 166 015e E35D781A 		.ascii	"\343]x\032\212\353F\034w\343\361h:\332\003~\001Q\354"
 166      8AEB461C 
 166      77E3F168 
 166      3ADA037E 
 166      0151EC
 167 0171 CDC6863E 		.ascii	"\315\306\206>\323fE\351N\237]\264\310\256$d\017\236"
 167      D36645E9 
 167      4E9F5DB4 
 167      C8AE2464 
 167      0F9E
 168 0183 8EA25C53 		.ascii	"\216\242\\SP;q\276\327\267\005\213\355\2758J\353\037"
 168      503B71BE 
 168      D7B7058B 
 168      EDBD384A 
 168      EB1F
 169 0195 AB8DDBB5 		.ascii	"\253\215\333\265.I\307\373\260\203\307\373\300\235A"
 169      2E49C7FB 
 169      B083C7FB 
 169      C09D41
 170 01a4 3E6C408F 		.ascii	">l@\217\207@\270\034\200@9F\341\332%s=`\202k\203\324"
 170      8740B81C 
 170      80403946 
 170      E1DA2573 
ARM GAS  /tmp/ccHDf2Hc.s 			page 13


 170      3D60826B 
 171 01ba DDD73A89 		.ascii	"\335\327:\211p\265\241\025\241\371@QgQ\231\201\207\313"
 171      70B5A115 
 171      A1F94051 
 171      67519981 
 171      87CB
 172 01cc 4FFE881B 		.ascii	"O\376\210\033`\252x|\010\302\030\264\011\033I\233\207"
 172      60AA787C 
 172      08C218B4 
 172      091B499B 
 172      87
 173 01dd 5ADF72F4 		.ascii	"Z\337r\364m\230L\036wS\240_\302\200x\234d\323S\246\277"
 173      6D984C1E 
 173      7753A05F 
 173      C280789C 
 173      64D353A6 
 174 01f2 55078246 		.ascii	"U\007\202F_+\017dS\217A\211\2723\3507\332(\031\254h"
 174      5F2B0F64 
 174      538F4189 
 174      BA33E837 
 174      DA2819AC 
 175 0207 449547F9 		.ascii	"D\225G\371R\034\014\0038<pg\325k\033E\251\211U\207c"
 175      521C0C03 
 175      383C7067 
 175      D56B1B45 
 175      A9895587 
 176 021c 38614087 		.ascii	"8a@\207aF\216\366\331\003\274\012\366\247\031\260\344"
 176      61468EF6 
 176      D903BC0A 
 176      F6A719B0 
 176      E4
 177 022d 28ECA25D 		.ascii	"(\354\242]\372\265\302\343\203\260?x\334\205\247\200"
 177      FAB5C2E3 
 177      83B03F78 
 177      DC85A780 
 178 023d EEA1FA08 		.ascii	"\356\241\372\010h\355b\320\015\332\366\356P\333\206"
 178      68ED62D0 
 178      0DDAF6EE 
 178      50DB86
 179 024c A5176F64 		.ascii	"\245\027odD\351\241\262\015\324\265}\333\014\236\241"
 179      44E9A1B2 
 179      0DD4B57D 
 179      DB0C9EA1 
 180 025c 2F0E03DE 		.ascii	"/\016\003\336\223yd\\d\254\373f\260&\306\346\026x?\204"
 180      9379645C 
 180      64ACFB66 
 180      B026C6E6 
 180      16783F84 
 181 0270 F59F192C 		.ascii	"\365\237\031,Gl^\353tXM\214\011\254\314\221\346K\235"
 181      476C5EEB 
 181      74584D8C 
 181      09ACCC91 
 181      E64B9D
 182 0283 9E6FE9F4 		.ascii	"\236o\351\364\354\245\023s\214j\211\352^\252O\030\247"
 182      ECA51373 
 182      8C6A89EA 
 182      5EAA4F18 
ARM GAS  /tmp/ccHDf2Hc.s 			page 14


 182      A7
 183 0294 AA8509DF 		.ascii	"\252\205\011\3379r\246\322\241\356\326\246\036\231\305"
 183      3972A6D2 
 183      A1EED6A6 
 183      1E99C5
 184 02a3 8D95CA3B 		.ascii	"\215\225\312;qj\010w\011\253\343\321\026\306\343e\264"
 184      716A0877 
 184      09ABE3D1 
 184      16C6E365 
 184      B4
 185 02b4 4314D7C0 		.ascii	"C\024\327\300\211q\303\002{\304\"\2072h\007u\353\300"
 185      8971C302 
 185      7BC42287 
 185      32680775 
 185      EBC0
 186 02c6 93A336A1 		.ascii	"\223\2436\2415\360\012\332I\262\337Jq\331XL\317\026"
 186      35F00ADA 
 186      49B2DF4A 
 186      71D9584C 
 186      CF16
 187 02d8 A444193A 		.ascii	"\244D\031:\326\207\031\275A>\244\244\326\323\366\300"
 187      D68719BD 
 187      413EA4A4 
 187      D6D3F6C0 
 188 02e8 17C3C1E0 		.ascii	"\027\303\301\340d\363'\324\317\361O(\303A\202U\200\027"
 188      64F327D4 
 188      CFF14F28 
 188      C3418255 
 188      8017
 189 02fa 9096D1BA 		.ascii	"\220\226\321\272\327\3765\223f\264\263t9\\a\342\346"
 189      D7FE3593 
 189      66B4B374 
 189      395C61E2 
 189      E6
 190 030b 73230CE1 		.ascii	"s#\014\341q><\241?\030\244\011\375|\374\204\336\324"
 190      713E3CA1 
 190      3F18A409 
 190      FD7CFC84 
 190      DED4
 191 031d 283D1ED4 		.ascii	"(=\036\324%\364\306\021\2630\217\017\323Ef&M\376M{r"
 191      25F4C611 
 191      B3308F0F 
 191      D3456626 
 191      4DFE4D7B 
 192 0332 FED9D224 		.ascii	"\376\331\322$\320z2H\263\332\000\315j\267\022\006s\030"
 192      D07A3248 
 192      B3DA00CD 
 192      6AB71206 
 192      7318
 193 0344 C09EEAC1 		.ascii	"\300\236\352\301\3761\003\026-E*`\201K:\260\373\011"
 193      FE310316 
 193      2D452A60 
 193      814B3AB0 
 193      FB09
 194 0356 831999AD 		.ascii	"\203\031\231\255\321\203=2\003666\263V=X0a0#\263uz\260"
 194      D1833D32 
 194      03363636 
ARM GAS  /tmp/ccHDf2Hc.s 			page 15


 194      B3563D58 
 194      30613023 
 195 036e 46D60458 		.ascii	"F\326\004X\264\364\031\355\322\257X\036_\240K\352\""
 195      B4F419ED 
 195      D2AF581E 
 195      5FA04BEA 
 195      22
 196 037f CD2697A8 		.ascii	"\315&\227\250\376\225\352!\252\257P}\225\352?\342\345"
 196      FE95EA21 
 196      AAAF507D 
 196      95EA3FE2 
 196      E5
 197 0390 1AB5E4EB 		.ascii	"\032\265\344\353Z\227C\367\324\031\232<V\260\306=e\330"
 197      5A9743F7 
 197      D4199A3C 
 197      56B0C63D 
 197      65D8
 198 03a2 A7F2C68B 		.ascii	"\247\362\306\213\265\303\257\001@\364\375\023\361NI"
 198      B5C3AF01 
 198      40F4FD13 
 198      F14E49
 199 03b1 02A66B19 		.ascii	"\002\246k\031i\2409\235l\322\353t|\327\262\341\371\230"
 199      69A0399D 
 199      6CD2EB74 
 199      7CD7B2E1 
 199      F998
 200 03c3 1CE786F6 		.ascii	"\034\347\206\366L\2252\011\263\370=\205\341\361M\312"
 200      4C953209 
 200      B3F83D85 
 200      E1F14DCA 
 201 03d3 A1FD3971 		.ascii	"\241\3759q\010K\361{\330\250)\376\344\366\207J\212\227"
 201      084BF17B 
 201      D8A829FE 
 201      E4F6874A 
 201      8A97
 202 03e5 67E93875 		.ascii	"g\3518u\353\217\231\342\211\227\022+\255?\275\017R\026"
 202      EB8F99E2 
 202      8997122B 
 202      AD3FBD0F 
 202      5216
 203 03f7 A30EDE89 		.ascii	"\243\016\336\2118\241\304K\015\335xz\227\034*\367\371"
 203      38A1C44B 
 203      0DDD787A 
 203      971C2AF7 
 203      F9
 204 0408 A738A137 		.ascii	"\2478\2417\345\021\220\017\026\251\255\271\261\035\213"
 204      E511900F 
 204      16A9ADB9 
 204      B11D8B
 205 0417 56ED68E9 		.ascii	"V\355h\351\017?Zn\031\217\226\251\250C<wN\332\334L\352"
 205      0F3F5A6E 
 205      198F96A9 
 205      A8433C77 
 205      4EDADC4C 
 206 042c 9A8680F8 		.ascii	"\232\206\200\3704\030\304\343P\200f\364\015i\312$\015"
 206      3418C4E3 
 206      508066F4 
ARM GAS  /tmp/ccHDf2Hc.s 			page 16


 206      0D69CA24 
 206      0D
 207 043d EF94266E 		.ascii	"\357\224&n\010MR\262J\000#]\005\275\377uX\320Z\200\030"
 207      084D52B2 
 207      4A00235D 
 207      05BDFF75 
 207      58D05A80 
 208 0452 3380C70F 		.ascii	"3\200\307\017\351v\302\306\211\302\266\320C\020\223"
 208      E976C2C6 
 208      89C2B6D0 
 208      431093
 209 0461 59391336 		.ascii	"Y9\0236+&\260\265\032|\233\274\273\236\320\021\034\214"
 209      2B26B0B5 
 209      1A7C9BBC 
 209      BB9ED011 
 209      1C8C
 210 0473 5835E18B 		.ascii	"X5\341\213&\016\227D|\025Z\001\355\010\224k\226\320"
 210      260E9744 
 210      7C155A01 
 210      ED08946B 
 210      96D0
 211 0485 98F2F811 		.ascii	"\230\362\370\021\270\306p\3431\031~\255\267\242\226"
 211      B8C670E3 
 211      31197EAD 
 211      B7A296
 212 0494 02ECB698 		.ascii	"\002\354\266\230\031@d\344\336hg\214\3620\316@[\365"
 212      194064E4 
 212      DE68678C 
 212      F230CE40 
 212      5BF5
 213 04a6 22D57CF8 		.ascii	"\"\325|\370\212\012g\301\240\353\254\334\355\267\320"
 213      8A0A67C1 
 213      A0EBACDC 
 213      EDB7D0
 214 04b5 617185D4 		.ascii	"aq\205\324>\212\307\017\200\227\2267\225\376ZT\013V"
 214      3E8AC70F 
 214      80979637 
 214      95FE5A54 
 214      0B56
 215 04c7 2D8C6A61 		.ascii	"-\214ja\"|X\325\222\254Z,\021\226Q\306!\005\213U\265"
 215      227C58D5 
 215      92AC5A2C 
 215      119651C6 
 215      21058B55 
 216 04dc B0AA2549 		.ascii	"\260\252%I\265$\031\227\200\036\307\026aI\211\260\244"
 216      B5241997 
 216      801EC716 
 216      614989B0 
 216      A4
 217 04ed 4658EC11 		.ascii	"FX\354\021\226\321\021\226\264\010\313\230\010\313X"
 217      96D11196 
 217      B408CB98 
 217      08CB58
 218 04fc D592AA5A 		.ascii	"\325\222\252Z\306\251\026\222~\242\024L\242\366\007"
 218      C6A91692 
 218      7EA2144C 
 218      A2F607
ARM GAS  /tmp/ccHDf2Hc.s 			page 17


 219 050b 3E33B48A 		.ascii	">3\264\212\273/\334\232EWq\023C\352\256\273l\334\272"
 219      BB2FDC9A 
 219      45577113 
 219      43EAAEBB 
 219      6CDCBA
 220 051e CB084366 		.ascii	"\313\010Cf}9\023Vw=\276L\353.b\217_w\005/\313u\227v"
 220      7D391356 
 220      773DBE4C 
 220      EB2E628F 
 220      5F77052F 
 221 0536 5E530A24 		.ascii	"^S\012$\366\331\012\246\300\220\356\274n\260$\012\346"
 221      F6D90AA6 
 221      C090EEBC 
 221      6EB0240A 
 221      E6
 222 0547 3080ADD1 		.ascii	"0\200\255\321\203-7\0036B\301\324\252\007kI\030\314"
 222      832D3703 
 222      3642C1D4 
 222      AA076B49 
 222      18CC
 223 0559 C86C9D1E 		.ascii	"\310l\235\036\254\325\014\330\010\005\323\006=\330\326"
 223      ACD50CD8 
 223      0805D306 
 223      3DD8D6
 224 0568 84C18CCC 		.ascii	"\204\301\214\3146\351\301:\315\200\305\372\277\011`"
 224      36E9C13A 
 224      CD80C5FA 
 224      BF0960
 225 0577 5BF460FB 		.ascii	"[\364`\373\022\00632\333\246\007\373\316\014\230#6\263"
 225      12063332 
 225      DBA607FB 
 225      CE0C9823 
 225      36B3
 226 0589 837AB09E 		.ascii	"\203z\260\236\204\301t\314\304\006\351\373\315\253\224"
 226      84C174CC 
 226      C406E9FB 
 226      CDAB94
 227 0598 4D207FBE 		.ascii	"M \177\276\370\301\014\336\253\261\311\365\014\0317"
 227      F8C10CDE 
 227      ABB1C9F5 
 227      0C1937
 228 05a7 555FC278 		.ascii	"U_\302x\016\024\363\322\357x\036\257`\310A\373\025C"
 228      0E14F3D2 
 228      EF781EAF 
 228      60C841FB 
 228      1543
 229 05b9 2AD316AA 		.ascii	"*\323\026\252WR\3755\325\253\251^Ku\033\325\353\251"
 229      5752FD35 
 229      D5ABA95E 
 229      4B751BD5 
 229      EBA9
 230 05cb DE48F566 		.ascii	"\336H\365f\252\267R\375\015\243\253j\303j\323\246\030"
 230      AAB752FD 
 230      0DA3AB6A 
 230      C36AD3A6 
 230      18
 231 05dc C4E9FF5A 		.ascii	"\304\351\377ZF\373S\255\225{\322s\370\353\026\375\333"
ARM GAS  /tmp/ccHDf2Hc.s 			page 18


 231      46FB53AD 
 231      957BD273 
 231      F8EB16FD 
 231      DB
 232 05ed AAE1B304 		.ascii	"\252\341\263\004\217\367S\260\003\206O\0041\277\014"
 232      8FF753B0 
 232      03864F04 
 232      31BF0C
 233 05fc 85754A77 		.ascii	"\205uJw\330E~)\010u\012932\234\376Zg9_\341\254\366\327"
 233      D8457E29 
 233      08750A39 
 233      33329CFE 
 233      5A67395F 
 234 0614 08B5CEA2 		.ascii	"\010\265\316\242\305\013fd;\013\012\334\316y\205\371"
 234      C50B6664 
 234      3B0B0ADC 
 234      CE7985F9 
 235 0624 8B3ECD22 		.ascii	"\213>\315\"\257<\325 \025\025%\031\305\011\372\227#"
 235      AF3CD520 
 235      15152519 
 235      C509FA97 
 235      23
 236 0635 EBBC854B 		.ascii	"\353\274\205K\034.4\276V\250\234\221\355)\253\366\371"
 236      1C2E34BE 
 236      56A89C91 
 236      ED29ABF6 
 236      F9
 237 0646 3DB55EA1 		.ascii	"=\265^\241\256\332#\274\350\254\253\255q\372\252\212"
 237      AEDA23BC 
 237      E8ACABAD 
 237      71FAAA8A 
 238 0656 2BEA4ABC 		.ascii	"+\352J\274\316*\357g\025\276\245\316Z\241\304W%@\\r"
 238      CE2AEF67 
 238      15BEA5CE 
 238      5AA1C457 
 238      25405C72 
 239 066a 1DDC2142 		.ascii	"\035\334!Bx3\232[%_\\\356\253\362:=%\336R\276\256B\360"
 239      78339A5B 
 239      255F5CEE 
 239      ABF23A3D 
 239      25DE52BE 
 240 0681 089F577B 		.ascii	"\010\237W{k!,\305\343Q\003Y\177I\015[\\S\001Rn-\234"
 240      6B212CC5 
 240      E3510359 
 240      7F490D5B 
 240      5C530152 
 241 0698 E3E605DE 		.ascii	"\343\346\005\336Z\230+\337\\\362\315-\337\362\310\315"
 241      5A982BDF 
 241      5CF2CD2D 
 241      DFF2C8CD 
 242 06a8 5638A7C0 		.ascii	"V8\247\300\345\257*\365\225\215V\351{|U>\301ZL\215\331"
 242      E5AF2AF5 
 242      958D56E9 
 242      7B7C553E 
 242      C15A4C8D 
 243 06bd 72BF8BFD 		.ascii	"r\277\213\375\225\225\376*\247\267^p\272\026\024\345"
 243      9595FE2A 
ARM GAS  /tmp/ccHDf2Hc.s 			page 19


 243      A7B75E70 
 243      BA1614E5 
 244 06cd 1741F7E5 		.ascii	"\027A\367\345\021\230\233U_\357\244\235,\315\312\314"
 244      11989B55 
 244      5FEFA49D 
 244      2CCDCACC 
 245 06dd AC5F0A5C 		.ascii	"\254_\012\\\354d@<\213\201\231\333[\312\272\270\002"
 245      EC64403C 
 245      8B8199DB 
 245      5BCABAB8 
 245      02
 246 06ee 90F96CBE 		.ascii	"\220\371l\276\233c\027\2719Kn\021\307\261\271\034g)"
 246      9B6317B9 
 246      394B6E11 
 246      C7B1B91C 
 246      6729
 247 0700 707DC0A5 		.ascii	"p}\300\245\370\374d4}%\036\301.?V\362\265\237x\204d"
 247      F8FC6434 
 247      7D251EC1 
 247      2E3F56F2 
 247      B59F7884 
 248 0715 9FBFD25F 		.ascii	"\237\277\322_\342\365\010\351\032'\030\275\262\032\177"
 248      E2F508E9 
 248      1A2718BD 
 248      B21A7F
 249 0724 5D35B15B 		.ascii	"]5\261[\210\247\205\270Z\310\317$\322\365\034\217`\223"
 249      88A785B8 
 249      5AC8CF24 
 249      D2F51C8F 
 249      6093
 250 0736 07019EAC 		.ascii	"\007\001\236\254\305\245e\002\2774U\276e\314\232\231"
 250      C5A56502 
 250      BF3455BE 
 250      65CC9A99 
 251 0746 9393CAB9 		.ascii	"\223\223\312\271\\*)\306\305Y\\s\347q\254+\237K\236"
 251      5C2A29C6 
 251      C5595C73 
 251      E771AC2B 
 251      9F4B9E
 252 0759 53989BCD 		.ascii	"S\230\233\315\025-\246\017Y\344\301:g~n\336B.\211\274"
 252      152DA60F 
 252      59E4C13A 
 252      677E6EDE 
 252      422E89BC 
 253 076d 50EE5970 		.ascii	"P\356Yp\267\344\272]\020Q\304\331\270\274\242<\356\303"
 253      B7E4BA5D 
 253      1051C4D9 
 253      B8BCA23C 
 253      EEC3
 254 077f 3C77E628 		.ascii	"<w\346(\002\222\375?\341\370\254\203"
 254      0292FD3F 
 254      E1F8AC83 
 255              		.text
 256              		.section	.gnu.lto_.symtab.d72fa68e513e2c33,"",%progbits
 257 0000 5F70616C 		.ascii	"_pal_lld_init\000\000\000\000\000\000\000\000\000\000"
 257      5F6C6C64 
 257      5F696E69 
ARM GAS  /tmp/ccHDf2Hc.s 			page 20


 257      74000000 
 257      00000000 
 258 0017 0000A100 		.ascii	"\000\000\241\000\000\000_pal_lld_setgroupmode\000\000"
 258      00005F70 
 258      616C5F6C 
 258      6C645F73 
 258      65746772 
 259 0034 00000000 		.ascii	"\000\000\000\000\000\000\000\000\000\000\313\000\000"
 259      00000000 
 259      0000CB00 
 259      00
 260 0041 00       		.ascii	"\000"
 261              		.text
 262              		.section	.gnu.lto_.opts,"",%progbits
 263 0000 272D6D63 		.ascii	"'-mcpu=cortex-m3' '-mno-thumb-interwork' '-mthumb' "
 263      70753D63 
 263      6F727465 
 263      782D6D33 
 263      2720272D 
 264 0033 272D6767 		.ascii	"'-ggdb' '-O2' '-fomit-frame-pointer' '-falign-funct"
 264      64622720 
 264      272D4F32 
 264      2720272D 
 264      666F6D69 
 265 0066 696F6E73 		.ascii	"ions=16' '-ffunction-sections' '-fdata-sections' '-"
 265      3D313627 
 265      20272D66 
 265      66756E63 
 265      74696F6E 
 266 0099 666E6F2D 		.ascii	"fno-common' '-flto'\000"
 266      636F6D6D 
 266      6F6E2720 
 266      272D666C 
 266      746F2700 
 267              		.text
 268              		.cfi_sections	.debug_frame
 269              		.section	.text._pal_lld_init,"ax",%progbits
 270              		.align	2
 271              		.p2align 4,,15
 272              		.global	_pal_lld_init
 273              		.thumb
 274              		.thumb_func
 275              		.type	_pal_lld_init, %function
 276              	_pal_lld_init:
 277              	.LFB219:
 278              		.file 1 "../os/hal/ports/STM32/LLD/GPIOv1/hal_pal_lld.c"
 279              		.loc 1 76 0
 280              		.cfi_startproc
 281              		@ args = 0, pretend = 0, frame = 0
 282              		@ frame_needed = 0, uses_anonymous_args = 0
 283              		@ link register save eliminated.
 284              	.LVL0:
 285              		.loc 1 81 0
 286 0000 4FF48053 		mov	r3, #4096
 287 0004 C4F20203 		movt	r3, 16386
 288 0008 9A69     		ldr	r2, [r3, #24]
 289              		.loc 1 76 0
ARM GAS  /tmp/ccHDf2Hc.s 			page 21


 290 000a 10B4     		push	{r4}
 291              		.cfi_def_cfa_offset 4
 292              		.cfi_offset 4, -4
 293              		.loc 1 81 0
 294 000c 42F07D02 		orr	r2, r2, #125
 295 0010 9A61     		str	r2, [r3, #24]
 296              		.loc 1 86 0
 297 0012 0368     		ldr	r3, [r0]
 298 0014 4FF40062 		mov	r2, #2048
 299 0018 C4F20102 		movt	r2, 16385
 300 001c D360     		str	r3, [r2, #12]
 301              		.loc 1 87 0
 302 001e 8168     		ldr	r1, [r0, #8]
 303              		.loc 1 89 0
 304 0020 4FF44063 		mov	r3, #3072
 305              		.loc 1 87 0
 306 0024 5160     		str	r1, [r2, #4]
 307              		.loc 1 88 0
 308 0026 4168     		ldr	r1, [r0, #4]
 309              		.loc 1 89 0
 310 0028 C4F20103 		movt	r3, 16385
 311              		.loc 1 88 0
 312 002c 1160     		str	r1, [r2]
 313              		.loc 1 89 0
 314 002e C268     		ldr	r2, [r0, #12]
 315              		.loc 1 92 0
 316 0030 4FF48051 		mov	r1, #4096
 317              		.loc 1 89 0
 318 0034 DA60     		str	r2, [r3, #12]
 319              		.loc 1 90 0
 320 0036 4269     		ldr	r2, [r0, #20]
 321              		.loc 1 92 0
 322 0038 C4F20101 		movt	r1, 16385
 323              		.loc 1 90 0
 324 003c 5A60     		str	r2, [r3, #4]
 325              		.loc 1 91 0
 326 003e 0469     		ldr	r4, [r0, #16]
 327              		.loc 1 95 0
 328 0040 4FF4A052 		mov	r2, #5120
 329              		.loc 1 91 0
 330 0044 1C60     		str	r4, [r3]
 331              		.loc 1 92 0
 332 0046 8369     		ldr	r3, [r0, #24]
 333              		.loc 1 95 0
 334 0048 C4F20102 		movt	r2, 16385
 335              		.loc 1 92 0
 336 004c CB60     		str	r3, [r1, #12]
 337              		.loc 1 93 0
 338 004e 046A     		ldr	r4, [r0, #32]
 339              		.loc 1 99 0
 340 0050 4FF4C053 		mov	r3, #6144
 341              		.loc 1 93 0
 342 0054 4C60     		str	r4, [r1, #4]
 343              		.loc 1 94 0
 344 0056 C469     		ldr	r4, [r0, #28]
 345              		.loc 1 99 0
 346 0058 C4F20103 		movt	r3, 16385
ARM GAS  /tmp/ccHDf2Hc.s 			page 22


 347              		.loc 1 94 0
 348 005c 0C60     		str	r4, [r1]
 349              		.loc 1 95 0
 350 005e 416A     		ldr	r1, [r0, #36]
 351              		.loc 1 113 0
 352 0060 5DF8044B 		ldr	r4, [sp], #4
 353              		.loc 1 95 0
 354 0064 D160     		str	r1, [r2, #12]
 355              		.loc 1 96 0
 356 0066 C16A     		ldr	r1, [r0, #44]
 357 0068 5160     		str	r1, [r2, #4]
 358              		.loc 1 97 0
 359 006a 816A     		ldr	r1, [r0, #40]
 360 006c 1160     		str	r1, [r2]
 361              		.loc 1 99 0
 362 006e 026B     		ldr	r2, [r0, #48]
 363 0070 DA60     		str	r2, [r3, #12]
 364              		.loc 1 100 0
 365 0072 826B     		ldr	r2, [r0, #56]
 366 0074 5A60     		str	r2, [r3, #4]
 367              		.loc 1 101 0
 368 0076 426B     		ldr	r2, [r0, #52]
 369 0078 1A60     		str	r2, [r3]
 370              		.loc 1 113 0
 371 007a 7047     		bx	lr
 372              		.cfi_endproc
 373              	.LFE219:
 374              		.size	_pal_lld_init, .-_pal_lld_init
 375 007c AFF30080 		.section	.text._pal_lld_setgroupmode,"ax",%progbits
 376              		.align	2
 377              		.p2align 4,,15
 378              		.global	_pal_lld_setgroupmode
 379              		.thumb
 380              		.thumb_func
 381              		.type	_pal_lld_setgroupmode, %function
 382              	_pal_lld_setgroupmode:
 383              	.LFB220:
 384              		.loc 1 132 0
 385              		.cfi_startproc
 386              		@ args = 0, pretend = 0, frame = 0
 387              		@ frame_needed = 0, uses_anonymous_args = 0
 388              		@ link register save eliminated.
 389              	.LVL1:
 390              		.loc 1 156 0
 391 0000 032A     		cmp	r2, #3
 392              		.loc 1 132 0
 393 0002 F0B4     		push	{r4, r5, r6, r7}
 394              		.cfi_def_cfa_offset 16
 395              		.cfi_offset 4, -16
 396              		.cfi_offset 5, -12
 397              		.cfi_offset 6, -8
 398              		.cfi_offset 7, -4
 399              		.loc 1 157 0
 400 0004 08BF     		it	eq
 401 0006 0161     		streq	r1, [r0, #16]
 402              		.loc 1 156 0
 403 0008 02D0     		beq	.L4
ARM GAS  /tmp/ccHDf2Hc.s 			page 23


 404              		.loc 1 158 0
 405 000a 042A     		cmp	r2, #4
 406              		.loc 1 159 0
 407 000c 08BF     		it	eq
 408 000e 4161     		streq	r1, [r0, #20]
 409              	.L4:
 410              		.loc 1 160 0
 411 0010 40F20003 		movw	r3, #:lower16:.LANCHOR0
 412 0014 C0F20003 		movt	r3, #:upper16:.LANCHOR0
 413 0018 9F5C     		ldrb	r7, [r3, r2]	@ zero_extendqisi2
 414              	.LVL2:
 415              		.loc 1 161 0
 416 001a 0023     		movs	r3, #0
 417 001c 1C46     		mov	r4, r3
 418 001e 1A46     		mov	r2, r3
 419              	.LVL3:
 420 0020 1D46     		mov	r5, r3
 421              		.loc 1 160 0
 422 0022 0826     		movs	r6, #8
 423              	.LVL4:
 424              	.L10:
 425              		.loc 1 167 0
 426 0024 11F0800F 		tst	r1, #128
 427              		.loc 1 163 0
 428 0028 4FEA0212 		lsl	r2, r2, #4
 429              	.LVL5:
 430              		.loc 1 165 0
 431 002c 4FEA0313 		lsl	r3, r3, #4
 432              	.LVL6:
 433              		.loc 1 164 0
 434 0030 4FEA0515 		lsl	r5, r5, #4
 435              	.LVL7:
 436              		.loc 1 166 0
 437 0034 4FEA0414 		lsl	r4, r4, #4
 438              	.LVL8:
 439              		.loc 1 168 0
 440 0038 0CBF     		ite	eq
 441 003a 42F00F02 		orreq	r2, r2, #15
 442              	.LVL9:
 443              		.loc 1 170 0
 444 003e 3B43     		orrne	r3, r3, r7
 445              	.LVL10:
 446              		.loc 1 171 0
 447 0040 11F4004F 		tst	r1, #32768
 448              		.loc 1 172 0
 449 0044 0CBF     		ite	eq
 450 0046 45F00F05 		orreq	r5, r5, #15
 451              	.LVL11:
 452              		.loc 1 174 0
 453 004a 3C43     		orrne	r4, r4, r7
 454              	.LVL12:
 455              		.loc 1 162 0
 456 004c 013E     		subs	r6, r6, #1
 457              	.LVL13:
 458              		.loc 1 175 0
 459 004e 4FEA4101 		lsl	r1, r1, #1
 460              	.LVL14:
ARM GAS  /tmp/ccHDf2Hc.s 			page 24


 461              		.loc 1 162 0
 462 0052 E7D1     		bne	.L10
 463              		.loc 1 177 0
 464 0054 4168     		ldr	r1, [r0, #4]
 465              	.LVL15:
 466 0056 0D40     		ands	r5, r5, r1
 467              	.LVL16:
 468 0058 2C43     		orrs	r4, r4, r5
 469              	.LVL17:
 470 005a 4460     		str	r4, [r0, #4]
 471              		.loc 1 178 0
 472 005c 0168     		ldr	r1, [r0]
 473              		.loc 1 179 0
 474 005e F0BC     		pop	{r4, r5, r6, r7}
 475              	.LVL18:
 476              		.loc 1 178 0
 477 0060 0A40     		ands	r2, r2, r1
 478              	.LVL19:
 479 0062 1343     		orrs	r3, r3, r2
 480              	.LVL20:
 481 0064 0360     		str	r3, [r0]
 482              		.loc 1 179 0
 483 0066 7047     		bx	lr
 484              		.cfi_endproc
 485              	.LFE220:
 486              		.size	_pal_lld_setgroupmode, .-_pal_lld_setgroupmode
 487 0068 AFF30080 		.section	.rodata.cfgtab.6588,"a",%progbits
 487      AFF30080 
 488              		.align	2
 489              		.set	.LANCHOR0,. + 0
 490              		.type	cfgtab.6588, %object
 491              		.size	cfgtab.6588, 18
 492              	cfgtab.6588:
 493 0000 04       		.byte	4
 494 0001 02       		.byte	2
 495 0002 04       		.byte	4
 496 0003 08       		.byte	8
 497 0004 08       		.byte	8
 498 0005 00       		.byte	0
 499 0006 03       		.byte	3
 500 0007 07       		.byte	7
 501 0008 08       		.byte	8
 502 0009 08       		.byte	8
 503 000a 08       		.byte	8
 504 000b 08       		.byte	8
 505 000c 08       		.byte	8
 506 000d 08       		.byte	8
 507 000e 08       		.byte	8
 508 000f 08       		.byte	8
 509 0010 0B       		.byte	11
 510 0011 0F       		.byte	15
 511 0012 0000     		.text
 512              	.Letext0:
 513              		.file 2 "/usr/include/newlib/machine/_default_types.h"
 514              		.file 3 "/usr/include/newlib/stdint.h"
 515              		.file 4 "../os/common/ports/ARMCMx/compilers/GCC/chtypes.h"
 516              		.file 5 "../os/rt/include/chsystypes.h"
ARM GAS  /tmp/ccHDf2Hc.s 			page 25


 517              		.file 6 "../os/rt/include/chschd.h"
 518              		.file 7 "../os/common/ext/CMSIS/ST/STM32F1xx/stm32f100xb.h"
 519              		.file 8 "../os/common/ports/ARMCMx/chcore.h"
 520              		.file 9 "../os/common/ports/ARMCMx/chcore_v7m.h"
 521              		.file 10 "../os/rt/include/chsem.h"
 522              		.file 11 "../os/rt/include/chmtx.h"
 523              		.file 12 "../os/hal/ports/STM32/LLD/GPIOv1/hal_pal_lld.h"
 524              		.file 13 "../os/common/ext/CMSIS/include/core_cm3.h"