ARM GAS  /tmp/cchk29Gr.s 			page 1


   1              		.syntax unified
   2              		.cpu cortex-m3
   3              		.fpu softvfp
   4              		.eabi_attribute 20, 1
   5              		.eabi_attribute 21, 1
   6              		.eabi_attribute 23, 3
   7              		.eabi_attribute 24, 1
   8              		.eabi_attribute 25, 1
   9              		.eabi_attribute 26, 1
  10              		.eabi_attribute 30, 2
  11              		.eabi_attribute 34, 1
  12              		.eabi_attribute 18, 4
  13              		.thumb
  14              		.file	"hal_pwm.c"
  15              		.text
  16              	.Ltext0:
  17              		.section	.gnu.lto_.jmpfuncs.e01dc43e7e206e48,"",%progbits
  18 0000 789C6362 		.ascii	"x\234cb`b\300\006B\24047\020322132003\002\011\026fV"
  18      6062C006 
  18      42A03437 
  18      10333232 
  18      31333230 
  19 001b 7666201B 		.ascii	"vf \033(Z\006\246\230\200\024\0333\023\\\210\035\244"
  19      285A06A6 
  19      9880141B 
  19      33135C88 
  19      1DA4
  20 002d 8A034470 		.ascii	"\212\003Dp\"\211r!\261\031\000\203\026\003%"
  20      22897221 
  20      B1190083 
  20      160325
  21              		.text
  22              		.section	.gnu.lto_.inline.e01dc43e7e206e48,"",%progbits
  23 0000 789C7D8F 		.ascii	"x\234}\217\275\015\2030\020F?\377\304>\033#\"Dj6HI:"
  23      BD0D8330 
  23      10463FFF 
  23      C43E1B23 
  23      22446A36 
  24 0017 4A4A6663 		.ascii	"JJfc\004J\306`\204\224\214\301\0109\033\022E\021\344"
  24      044AC660 
  24      84948CC1 
  24      08391B12 
  24      4511E4
  25 002a 2CD9D27B 		.ascii	",\331\322{\337\331g\011\211\243z\210\355\314\000\035"
  25      DFD96709 
  25      89A37A88 
  25      EDCC001D 
  26 003a 440A99B1 		.ascii	"D\012\231\261NY\341\343\006k\030\353\261\206\237\333"
  26      4E59E1E3 
  26      066B18EB 
  26      B1869FDB 
  27 004a C42542C5 		.ascii	"\304%B\305\310M\035\262\251\333\020\267\213\241W\360"
  27      C84D1DB2 
  27      A9DB10B7 
  27      8BA157F0 
  28 005a 251BBB34 		.ascii	"%\033\2734pK\363m4\034\011.&\212\346\026\264\336%\344"
  28      704BF36D 
ARM GAS  /tmp/cchk29Gr.s 			page 2


  28      341C092E 
  28      268AE616 
  28      B4DE25E4 
  29 006e B3D03173 		.ascii	"\263\3201sA~;\225:g:\364q\231\243\034O\226r*\360c1e"
  29      417E3B95 
  29      3A673AF4 
  29      7199A31C 
  29      4F96722A 
  30 0086 618B7DE2 		.ascii	"a\213}\342\367O\366!\350\3248\320\365\307|\356\363\177"
  30      F74FF621 
  30      E8D438D0 
  30      F5C77CEE 
  30      F37F
  31 0098 1C5E3C74 		.ascii	"\034^<t#}"
  31      237D
  32              		.text
  33              		.section	.gnu.lto_.pureconst.e01dc43e7e206e48,"",%progbits
  34 0000 789C6362 		.ascii	"x\234cb`b\020g\200\000n\006\011F)&+f+\026+V+6+v+\016"
  34      60621067 
  34      80006E06 
  34      09462926 
  34      2B662B16 
  35 001c 2B4E2B2E 		.ascii	"+N+.+\000\034i\002\232"
  35      2B001C69 
  35      029A
  36              		.text
  37              		.section	.gnu.lto_pwmInit.e01dc43e7e206e48,"",%progbits
  38 0000 789C6362 		.ascii	"x\234cb`b@\007\222@\\\011\304R@\314\310\314\300\310"
  38      60624007 
  38      92405C09 
  38      C45240CC 
  38      C8CCC0C8 
  39 0014 34E11C03 		.ascii	"4\341\034\003C#\007\023##\210\301\300\310P\317\304X"
  39      43230713 
  39      232388C1 
  39      C0C850CF 
  39      C458
  40 0026 1FC90856 		.ascii	"\037\311\010V\273\236\351\300\203\377\377\327}\330\370"
  40      BB9EE9C0 
  40      83FFFFD7 
  40      7DD8F8
  41 0035 B01AA894 		.ascii	"\260\032\250\224\201\201\225\241\245\241a\202\002\003"
  41      818195A1 
  41      A5A16182 
  41      0203
  42 0043 4332583E 		.ascii	"C2X>\004H\2024\20522\201h\346\363\014\315\017~\331%"
  42      04488234 
  42      85323281 
  42      68E6F30C 
  42      CD0F7ED9 
  43 0058 322E6464 		.ascii	"2.dd\005\312V3\374j\350h\020\310d\004\252\206\030\227"
  43      05CA5633 
  43      FC6AE868 
  43      10C86404 
  43      AA861897 
  44 006c 09A22F32 		.ascii	"\011\242/24>\370\315\004S\004\001!@\011\240\001 \307"
  44      343EF8CD 
ARM GAS  /tmp/cchk29Gr.s 			page 3


  44      04530401 
  44      214009A0 
  44      0120C7
  45 007f 4AE8E9E9 		.ascii	"J\350\351\351\347\027\353g$\346\350\027\027%\203\350"
  45      E717EB67 
  45      24E6E817 
  45      172583E8 
  46 008f F882F25C 		.ascii	"\370\202\362\\\275d\006\000i\213*\024"
  46      BD640600 
  46      698B2A14 
  47              		.text
  48              		.section	.gnu.lto_pwmObjectInit.e01dc43e7e206e48,"",%progbits
  49 0000 789C6362 		.ascii	"x\234cb`b@\007\222@\034\314\310\300 \005\244\031\231"
  49      60624007 
  49      92401CCC 
  49      C8C02005 
  49      A41999
  50 0013 19189926 		.ascii	"\031\030\231&\234c`h\344`bd\0041\030\030\031\352\231"
  50      9C636068 
  50      E4606264 
  50      04311818 
  50      19EA99
  51 0026 18EB2319 		.ascii	"\030\353#\031\301j\3273\035x\360\377\377\272\031\307"
  51      C16AD733 
  51      1D78F0FF 
  51      FFBA19C7 
  52 0036 96DD619C 		.ascii	"\226\335a\234\311\304\316\304\230\013\026gehih\230\240"
  52      C9C4CEC4 
  52      980B1667 
  52      65686968 
  52      98A0
  53 0048 C0C0900C 		.ascii	"\300\300\220\014\346\206\000I\220\336PF&\020\315|\226"
  53      E6860049 
  53      90DE5046 
  53      2610CD7C 
  53      96
  54 0059 A169C78D 		.ascii	"\241i\307\215\307\027\230\022\031\0272\2622h3\254j\000"
  54      C7179812 
  54      191732B2 
  54      326833AC 
  54      6A00
  55 006b 02FE4C46 		.ascii	"\002\376LF\206\331\014\263\0303\031\031\323\031\231"
  55      86D90CB3 
  55      18331919 
  55      D31999
  56 007a 228034C4 		.ascii	"\"\2004\304iI\020\233\030@\"\014 6H\367\017,\272\231"
  56      6949109B 
  56      1840220C 
  56      203648F7 
  56      0F2CBA99 
  57 008e B1EB6684 		.ascii	"\261\353f\204\353ff\200\352\236\361\014S7\013v\335L"
  57      EB666680 
  57      EA9EF10C 
  57      53370B76 
  57      DD4C
  58 00a0 70DD2C30 		.ascii	"p\335,0\335;\260\350f\305\256\233\031\256\233\025\304"
  58      DD3BB0E8 
ARM GAS  /tmp/cchk29Gr.s 			page 4


  58      66C5AE9B 
  58      19AE9B15 
  58      C4
  59 00b1 B8C8D0F8 		.ascii	"\270\310\320\370`\2562D/\014\204\000\035\010\014\023"
  59      60AE3244 
  59      2F0C8400 
  59      1D080C13 
  60 00c1 900E093D 		.ascii	"\220\016\011==\375\374b\375\214\304\034\375\342\242"
  60      3DFDFC62 
  60      FD8CC41C 
  60      FDE2A2
  61 00d0 64101D5F 		.ascii	"d\020\035_P\236\253\227\314\000\000\323\216UT"
  61      509EAB97 
  61      CC0000D3 
  61      8E5554
  62              		.text
  63              		.section	.gnu.lto_pwmStart.e01dc43e7e206e48,"",%progbits
  64 0000 789C8553 		.ascii	"x\234\205SMh\023A\024~o7\177\2666\351\321\212\304P\021"
  64      4D681341 
  64      147E6F37 
  64      7FB636E9 
  64      D18AC450 
  65 0015 854AD69B 		.ascii	"\205J\326\233W%'\017\2714\025\364\024\266\353\222,d"
  65      5725270F 
  65      B93415F4 
  65      14B6EB92 
  65      2C64
  66 0027 BB6137AD 		.ascii	"\273a7\255-\036\272Iz\360f(\202\321Z\244\012\242\005"
  66      2D1EBA49 
  66      7AF06628 
  66      82D15AA4 
  66      0AA205
  67 003a F5681485 		.ascii	"\365h\024\205\025DZK#\275\012J\274\210\202 \246\007"
  67      15445A4B 
  67      23BD0A4A 
  67      BC888220 
  67      A607
  68 004c 8320F1CD 		.ascii	"\203 \361\315\356f\323\244A'\314\274\231y\3377\337\233"
  68      EE66D3A4 
  68      4127CCBC 
  68      9979DF37 
  68      DF9B
  69 005e 9D2F1C70 		.ascii	"\235/\034p\320\337\306\250\337\344\001\336PD\036\220"
  69      D0DFC6A8 
  69      DFE401DE 
  69      50441E90 
  70 006e ABD4018A 		.ascii	"\253\324\001\212!\016\221M\000a\221\303\305Khc\237r"
  70      210E914D 
  70      006191C3 
  70      C54B6863 
  70      9F72
  71 0080 56A3DD7E 		.ascii	"V\243\335~\322|\373\362;\336\341\302<\252\010>\0320"
  71      D27CFBF2 
  71      3BDEE1C2 
  71      3CAA083E 
  71      1A30
  72 0092 008A8DF0 		.ascii	"\000\212\215\360\303\222iVb*\222\216d\357L\321\310\016"
ARM GAS  /tmp/cchk29Gr.s 			page 5


  72      C3926956 
  72      622A928E 
  72      64EF4CD1 
  72      C80E
  73 00a4 BA405B14 		.ascii	"\272@[\024\371M(\205\000\306a\3154\227\033\277\036n"
  73      F94D2885 
  73      00C661CD 
  73      34971BBF 
  73      1E6E
  74 00b6 BFC6E5B2 		.ascii	"\277\306\345\262\271a.Y\3556\036U\220P\011d\324\213"
  74      B9612E59 
  74      ED361E55 
  74      90500964 
  74      D48B
  75 00c8 A82017B3 		.ascii	"\250 \027\263\003\357\353\255\230\355a\214&u(\375\274"
  75      03EFEBAD 
  75      98ED618C 
  75      267528FD 
  75      BC
  76 00d9 557E70D8 		.ascii	"U~p\330U\355\310[?vV\370\223\"\336\303q\257$\353\331"
  76      55EDC85B 
  76      3F7656F8 
  76      9322DEC3 
  76      71AF24EB 
  77 00ee F5D6F011 		.ascii	"\365\326\360\021o\365\347\306\307\210\267\330\372\364"
  77      6FF5E7C6 
  77      C788B7D8 
  77      FAF4
  78 00fc 99EE2FE2 		.ascii	"\231\356/\342\032\372I\231\251s\324y\352\2660\322\357"
  78      1AFA4999 
  78      A973D479 
  78      EAB630D2 
  78      EF
  79 010d 112DE94A 		.ascii	"\021-\351J\274\363\375\242\360\002W\315\352Y\305\001"
  79      BCF3FDA2 
  79      F00257CD 
  79      EA59C501 
  80 011d 78F574F3 		.ascii	"x\365t\363\257\334\274\337\251x\033J[\325\246\3059\032"
  80      AFDCBCDF 
  80      A9781B4A 
  80      5BD5A6C5 
  80      391A
  81 012f 13B06E52 		.ascii	"\023\260nR\213(\030X\201\333D\016f\220g\207\204l\360"
  81      8B281858 
  81      81DB440E 
  81      66906787 
  81      846CF0
  82 0142 B4F3AD21 		.ascii	"\264\363\255!\303N'\346\207Z\323\342\035f\006\003\214"
  82      C34E27E6 
  82      875AD3E2 
  82      1D660603 
  82      8C
  83 0153 3CAAE001 		.ascii	"<\252\340\001\2079D \306\014\270L\227\312h\233\225\241"
  83      87394420 
  83      C60CB84C 
  83      97CA689B 
  83      95A1
ARM GAS  /tmp/cchk29Gr.s 			page 6


  84 0165 7EB9E1C1 		.ascii	"~\271\341\301r\234+G\207\274\207\245\306\273\262K\004"
  84      729C2B47 
  84      87BC87A5 
  84      C6BBB24B 
  84      04
  85 0176 B80ABFCD 		.ascii	"\270\012\277\315kL\356\240\344^\205\250\012\216\330"
  85      6B4CEEA0 
  85      E45E85A8 
  85      0A8ED8
  86 0185 02B55673 		.ascii	"\002\265Vsc\337\215\302\203%x\357\341\302ny\265\352"
  86      63DF8DC2 
  86      832578EF 
  86      E1C26E79 
  86      B5EA
  87 0197 6E0BFBD9 		.ascii	"n\013\373\331\221\301l\237\307\216\260Z{-\364\265\336"
  87      91C16C9F 
  87      C78EB05A 
  87      7B2DF4B5 
  87      DE
  88 01a8 6F2111EF 		.ascii	"o!\021\357\333/\370_\017\301\277<\364m\225y\350y\257"
  88      DB2FF85F 
  88      0FC1BF3C 
  88      F46D9579 
  88      E879AF
  89 01bb 87EE8E44 		.ascii	"\207\356\216D=\223\3571Sk\217\231\276\024\375]3\005"
  89      3D93EF31 
  89      536B8F99 
  89      BE14FD5D 
  89      3305
  90 01cd A807998C 		.ascii	"\250\007\231\214D\227\331\357'\021\327i\342\325\322"
  90      4497D9EF 
  90      2711D769 
  90      E2D5D2
  91 01dc F18F888F 		.ascii	"\361\217\210\2171\352\324\271\003\305F\375X\347=\234"
  91      31EAD4B9 
  91      03C546FD 
  91      58E73D9C 
  92 01ec 364568FA 		.ascii	"6Eh\372+1\350\241x\\\320\014!+\346\004C\227XL\347\257"
  92      2B31E8A1 
  92      785CD00C 
  92      212BE604 
  92      4397584C 
  93 0202 A871094E 		.ascii	"\250q\011N8\011ISUmF\310kz\301\020\316M&\023\311yA\312"
  93      38094953 
  93      556D46C8 
  93      6B7AC110 
  93      CE4D2613 
  94 021a 4A9A2EA7 		.ascii	"J\232.\247\347\316\250\361,\370\347\304\334\254<\321"
  94      E7CEA8F1 
  94      2CF8E7C4 
  94      DCAC3CD1 
  95 022a 8396E70B 		.ascii	"\203\226\347\013B\"\231:\237\022\224\031)7{Y\026$\325"
  95      4222993A 
  95      9F129419 
  95      29377B59 
  95      1624D5
  96 023d 508C7446 		.ascii	"P\214tF\222\2101\346`\365B7\2335\026\214n\206\025\243"
ARM GAS  /tmp/cchk29Gr.s 			page 7


  96      928831E6 
  96      60F54237 
  96      9B35168C 
  96      6E8615A3 
  97 0251 19341084 		.ascii	"\0314\020\204E\312\214&S\223\261i\321\220\363\272r*"
  97      45CA8C26 
  97      5393B169 
  97      D190F3BA 
  97      722A
  98 0263 76FC3470 		.ascii	"v\3744p:\004UY\325\364\005\370\013\210\314\023\010"
  98      3A045559 
  98      D5F405F8 
  98      0B88CC13 
  98      08
  99              		.text
 100              		.section	.gnu.lto_pwmStop.e01dc43e7e206e48,"",%progbits
 101 0000 789C8552 		.ascii	"x\234\205ROh\323P\030\377\276\027\263\326\025\331\216"
 101      4F68D350 
 101      18FFBE17 
 101      B3D615D9 
 101      8E
 102 0011 4EA48689 		.ascii	"N\244\206\211(L\032o^\225\236<\364\262N\320S\311\236"
 102      284C1A6F 
 102      5E959E3C 
 102      F4B24ED0 
 102      53C99E
 103 0024 610D344B 		.ascii	"a\0154KI\272\271\341ai\327\2037\307\360\240\216Q\246"
 103      49BAB9E1 
 103      6169D783 
 103      37C7F0A0 
 103      8E51A6
 104 0037 203A504F 		.ascii	" :PO\342\020\224\012\202\023Ye7/B\305\213\202 \036\304"
 104      E210940A 
 104      82135965 
 104      372F42C5 
 104      8B82201E 
 105 004c 22D8FABD 		.ascii	"\"\330\372\275\244M\332\021\266\027^\276\367\375\371"
 105      A44DDA11 
 105      B6175EBE 
 105      F7FDF9
 106 005b E5F7E5FB 		.ascii	"\345\367\345\373=\006\014\366\2561\332\343\022\300["
 106      3D060CF6 
 106      AE31DAE3 
 106      12C05B
 107 006a B22801B2 		.ascii	"\262(\001\262\225\006@9\316\020\305\001\020\226\030"
 107      95064039 
 107      CE10C501 
 107      109618
 108 0079 2E5D45AF 		.ascii	".]E\257\366\031\2537;\235\247\257\337\325~`\215%$4\275"
 108      F619AB37 
 108      3B9DA7AF 
 108      DFD57E60 
 108      8D252434 
 109 008e B80C55D7 		.ascii	"\270\014U\327]QL$\217{\221)z\013\370ed\302J\357\241"
 109      5D514C24 
 109      8F7B9129 
 109      7A0BF865 
ARM GAS  /tmp/cchk29Gr.s 			page 8


 109      64C24AEF 
 110 00a3 12271AD8 		.ascii	"\022'\032\330p\335\325\346\237G;opu\331\335v\253\365"
 110      70DDD5E6 
 110      9F473B6F 
 110      7075D9DD 
 110      76ABF5
 111 00b6 4E074F18 		.ascii	"N\007O\030Hm\245Q@\257\240\201\250x\206\035\032\354"
 111      486DA551 
 111      40AFA081 
 111      A878861D 
 111      1AEC
 112 00c8 53C440A1 		.ascii	"S\304@\241C\003*\277\356.?<\326e\355\321\327\177\356"
 112      43032ABF 
 112      EE2E3F3C 
 112      D665EDD1 
 112      D77FEE
 113 00db AE496734 		.ascii	"\256Ig4\274\217\343AK\365\027\267Z\211\343\201\367\357"
 113      BC8FE341 
 113      4BF517B7 
 113      5A89E381 
 113      F7EF
 114 00ed F6E791C0 		.ascii	"\366\347\221\300\371\360\373\013\375\265\206\033(\023"
 114      F9F0FB0B 
 114      FDB5861B 
 114      2813
 115 00fb B36067B4 		.ascii	"\263`g\264%\332\0361\322\363\230\\\032\230\344O-\011"
 115      25DA1E31 
 115      D2F3985C 
 115      1A98E44F 
 115      2D09
 116 010d 2F71DDBD 		.ascii	"/q\335\275s\301\240h\177?a\376U7\337\355\374#T\233\255"
 116      73C1A068 
 116      7F3F61FE 
 116      5537DFED 
 116      FC23549B 
 117 0122 AF319F02 		.ascii	"\2571\237\002\340\006\374uo\272\243\006\312\334\363"
 117      E006FC75 
 117      6FBAA306 
 117      CADCF3
 118 0131 01665032 		.ascii	"\001fP2p\010`\007*[[\355m\346WN\300\246Kk\304\300\330"
 118      70086007 
 118      2A5B5BED 
 118      6DE6574E 
 118      C0A64B6B 
 119 0148 1ADC2396 		.ascii	"\032\334#\2268\325\011\266\303\036h\032\303y\304\304"
 119      38D509B6 
 119      C31E681A 
 119      C379C4C4 
 120 0158 41A03F45 		.ascii	"A\240?E\240\207\243\321\030\240\207{\350V\004:\021\215"
 120      A087A3D1 
 120      18A0877B 
 120      E856043A 
 120      118D
 121 016a 66013A21 		.ascii	"f\001:!>4\250\353\267\306^]5|\340\215\365@aa?a\277\257"
 121      3E34A8EB 
 121      B7C65E5D 
 121      357CE08D 
ARM GAS  /tmp/cchk29Gr.s 			page 9


 121      F5406161 
 122 0182 0B619F0F 		.ascii	"\013a\237\017\012[;\222\014n^\237\302\255>\205\333e"
 122      0A5B3B92 
 122      0C6E5E9F 
 122      C2AD3E85 
 122      DB65
 123 0194 39547888 		.ascii	"9Tx\210\2667/\216\361\010\2215\334\244C\320KOT\015\237"
 123      B6372F8E 
 123      F1089135 
 123      DCA443D0 
 123      4B4F540D 
 124 01a9 60D28FEC 		.ascii	"`\322\217\354B\271\331>\331S\323_S4N\272\337\242\364"
 124      42B9D93E 
 124      D953D35F 
 124      53344EBA 
 124      DFA2F4
 125 01bc 682AA55A 		.ascii	"h*\245Z\216\232\327\012\252csas\305\353f\212\303i?\301"
 125      8E9AD70A 
 125      AA637361 
 125      73C5EB66 
 125      8AC3693F 
 126 01d1 2DD3B466 		.ascii	"-\323\264f\325\242e\227\034\365\342d&\235YPy\236[\266"
 126      D5A26597 
 126      1CF5E264 
 126      269D5950 
 126      799E5BB6 
 127 01e5 9E9B3F6F 		.ascii	"\236\233?o\246\362 \317k\2059}b\240Z_(\251\351L\366"
 127      A6F220CF 
 127      6B85397D 
 127      62A05A5F 
 127      28A9E94C 
 128 01fa 52563566 		.ascii	"RV5fya\356\232\256r\3231\234\334\014\347\204\030\363"
 128      7961EE9A 
 128      AE72D331 
 128      9CDC0CE7 
 128      8418F3
 129 020d 6BED5298 		.ascii	"k\355R\230\315;\213N\230\021\315X\016\275\250DX\312"
 129      CD3B8B4E 
 129      9811CD58 
 129      0EBDA844 
 129      58CA
 130 021f 8C66B293 		.ascii	"\214f\262\223\312\264\346\350E\3338\253\234:\007\314"
 130      CAB4E6E8 
 130      45DB38AB 
 130      9C3A07CC 
 131 022f 8698A99B 		.ascii	"\206\230\251\233\226\275\010\377\001\240{\374\310"
 131      96BD08FF 
 131      01A07BFC 
 131      C8
 132              		.text
 133              		.section	.gnu.lto_pwmChangePeriod.e01dc43e7e206e48,"",%progbits
 134 0000 789C8552 		.ascii	"x\234\205RAh\023A\024\375\1776\233D\253\324\243\021"
 134      41681341 
 134      14FD7F36 
 134      9B44ABD4 
 134      A311
 135 0012 894BA128 		.ascii	"\211K\241(V\262\336\274*9\365\220KSA\275\204\355\270"
ARM GAS  /tmp/cchk29Gr.s 			page 10


 135      56B2DEBC 
 135      2A39F590 
 135      4B5341BD 
 135      84EDB8
 136 0025 240BD96E 		.ascii	"$\013\331n\330Mk{\3526\311A\364`)\036\324R\244\012\242"
 136      D84D6B7B 
 136      EA36C941 
 136      F460291E 
 136      D452A40A 
 137 003a 11ED4550 		.ascii	"\021\355EPD%\212\007\2454\320\203x\022\202'=\211'{P"
 137      44258A07 
 137      A534D083 
 137      78128227 
 137      3D89277B 
 138 004f D63FBB9B 		.ascii	"\326?\273\233\335\246\212\3162\363g\346\377\367\377"
 138      DDA68ACE 
 138      32F367E6 
 138      FFF7FF
 139 005e DBFF8601 		.ascii	"\333\377\206\001\203\335#CS\226\000\336\222E\011\220"
 139      83DD2343 
 139      539600DE 
 139      92450990 
 140 006e 2D750116 		.ascii	"-u\001\026\323\014Ql\000a\201\341\302y\364c\327Y\247"
 140      D30C516C 
 140      006181E1 
 140      C279F463 
 140      D759A7
 141 0081 E7798F5F 		.ascii	"\347y\217_]y\361\023\333l\237\204&B\202\026L\202\201"
 141      5D79F113 
 141      DB6C9F84 
 141      26428216 
 141      4C8281
 142 0094 90A245C4 		.ascii	"\220\242E\304\311\320r\335%\305D*\306}\340$\255\"\333"
 142      C9D072DD 
 142      25C5442A 
 142      C67DE024 
 142      AD22DB
 143 00a7 59BA222B 		.ascii	"Y\272\"+\275\207F\032`\004\326\\w\271\367\343\376\346"
 143      BD87461A 
 143      6004D65C 
 143      77B9F7E3 
 143      FEE6
 144 00b9 6B5C6EBA 		.ascii	"k\\n\272\357\334V\307\363\360\210\201\214A\036\005\364"
 144      EFDC56C7 
 144      F3F08881 
 144      8C411E05 
 144      F4
 145 00ca 1C1A2829 		.ascii	"\034\032()\276I$\006i\213;\246\320\246\013\215\3577"
 145      BE492406 
 145      698B3BA6 
 145      D0A60B8D 
 145      EF37
 146 00dc 9BF70E85 		.ascii	"\233\367\016\205U\373\345;\337\266V\244c\032\336\301"
 146      55FBE53B 
 146      DFB656A4 
 146      631ADEC1 
 147 00ec 918852E7 		.ascii	"\221\210R\347\351\265\355\241\303\321\351\327\365O\303"
ARM GAS  /tmp/cchk29Gr.s 			page 11


 147      E9B5EDA1 
 147      C3D1E9D7 
 147      F54FC3
 148 00fb D161E3C3 		.ascii	"\321a\343\303gj\202\206k(SeQ\235\321\224h\372\205\221"
 148      676A8286 
 148      6B285365 
 148      519DD194 
 148      68FA8591 
 149 010f BE0774A4 		.ascii	"\276\007t\244_\222\202&f\3419\256\2727N\033\004\330"
 149      5F928226 
 149      66E139AE 
 149      BA374E1B 
 149      04D8
 150 0121 C927F6BF 		.ascii	"\311'\366\277\014\375\311\200\361&46\236=\314\004%\306"
 150      0CFDC980 
 150      F1263436 
 150      9E3DCC04 
 150      25C6
 151 0133 E0B881A9 		.ascii	"\340\270\201\251\025\270E\260t\031%\001\337\343\207"
 151      15B845B0 
 151      74192501 
 151      DFE387
 152 0142 4D05AD86 		.ascii	"M\005\255\206\262(L\230\013\001\240\214I\037\003\177"
 152      B2284C98 
 152      0B01A08C 
 152      491F037F 
 153 0152 C7842002 		.ascii	"\307\204 \0024/K}D\212r\210 \364h\014\373\3367\343\375"
 153      342F4B7D 
 153      448A7288 
 153      20F4680C 
 153      FBDE37E3 
 154 0167 FA6DB745 		.ascii	"\372m\267E\256\275A\272!J/\"!L\307B\012)\200A\255\276"
 154      AEBD41BA 
 154      214A2F22 
 154      214CC742 
 154      0A298041 
 155 017d 74776BA5 		.ascii	"twk\245\341]\277U\377\025\013\376%\326\327U!\326\223"
 155      E15DBF55 
 155      FF150BFE 
 155      25D6D755 
 155      21D693
 156 0190 41B16EEF 		.ascii	"A\261n\357\317F\257i\207j\333\261jW?6\344X51\375fs\""
 156      CF46AF69 
 156      876ADBB1 
 156      6A573F36 
 156      E4583531 
 157 01a8 FEA7701A 		.ascii	"\376\247p\032\266i\023q\351\013\245\341#\314\006<\267"
 157      B6691371 
 157      E90BA5E1 
 157      23CC063C 
 157      B7
 158 01b9 60B1B73E 		.ascii	"`\261\267>\032\244\353\217I\352-\275Y\021z0\227S-G\255"
 158      1AA4EB8F 
 158      49EA2DBD 
 158      59117A30 
 158      97532D47 
 159 01ce 6855D5B1 		.ascii	"hU\325\261\271\260\245\332%3\307\341h\340\340\226iZ"
ARM GAS  /tmp/cchk29Gr.s 			page 12


 159      B9B0A5DA 
 159      2533C7E1 
 159      68E0E096 
 159      695A
 160 01e0 D36ACDB2 		.ascii	"\323j\315\262\353\216zf\242\220/\314\251\274\302-[/"
 160      EB8E7A66 
 160      A2902FCC 
 160      A9BCC22D 
 160      5B2F
 161 01f2 CD9E3273 		.ascii	"\315\2362s\025\220g\265\352\214>6\020\255\317\325\325"
 161      159067B5 
 161      EA8C3E36 
 161      10ADCFD5 
 161      D5
 162 0203 7CA1385E 		.ascii	"|\2418^T\215i^\235\271\250\253\334t\014\247T\346\234"
 162      548D695E 
 162      9DB9A8AB 
 162      DC740CA7 
 162      54E69C
 163 0216 109920D6 		.ascii	"\020\231 \326\256\307\336\2123\357\304\036A\306rh\241"
 163      AEC7DE8A 
 163      33EFC41E 
 163      41C67268 
 163      A1
 164 0227 1061C973 		.ascii	"\020a\311s\240P\234P\2464G\257\331\306\011e\364$0\033"
 164      A0509C50 
 164      A63447AF 
 164      D9C60965 
 164      F424301B 
 165 023b 52A66E5A 		.ascii	"R\246nZ\366<\374\006\265\314\355\277"
 165      F63CFC06 
 165      B5CCEDBF 
 166              		.text
 167              		.section	.gnu.lto_pwmEnableChannel.e01dc43e7e206e48,"",%progbits
 168 0000 789C8D52 		.ascii	"x\234\215RMh\023A\024~o&\177\246H{4\"1\024\212B%\353"
 168      4D681341 
 168      147E6F26 
 168      7FA6487B 
 168      34223114 
 169 0018 4D8F4A4E 		.ascii	"M\217JN=\344\322T\320S\330\216\313f!\333\015\273\351"
 169      3DE4D254 
 169      D053D88E 
 169      CB6621DB 
 169      0DBBE9
 170 002b 1F1EBA4D 		.ascii	"\037\036\272Mz\360f)\036\324R\244\012\376\024ZA\017"
 170      7AF06629 
 170      1ED452A4 
 170      0AFE145A 
 170      410F
 171 003d 6A4188E0 		.ascii	"jA\210\340A\251\211\364*\010\301\223\202T<\210E\220"
 171      41A989F4 
 171      2A08C193 
 171      82543C88 
 171      4590
 172 004f F866B7D9 		.ascii	"\370f\267\331$-Tw\231yo\346{\357}o\346\033\006\014\366"
 172      242D5477 
 172      99796FE6 
ARM GAS  /tmp/cchk29Gr.s 			page 13


 172      7BEF7D6F 
 172      E61B060C 
 173 0064 7F091AE7 		.ascii	"\177\011\032\3479\300\033\262\310\001\331b\003`>\306"
 173      39C01BB2 
 173      C801D962 
 173      03603EC6 
 174 0074 10A50308 		.ascii	"\020\245\003\010s\014\347\256\240\027\373\204\325\232"
 174      730CE7AE 
 174      A017FB84 
 174      D59A
 175 0082 ADD6C6D3 		.ascii	"\255\326\306\323\255\207\357q\203\365s4\021B` \204\311"
 175      AD87EF71 
 175      83F57334 
 175      11426020 
 175      84C9
 176 0094 C3087918 		.ascii	"\303\010y\030\225\313\230\234\342\264'\351\302\260\340"
 176      95CB989C 
 176      E2B427E9 
 176      C2B0E0
 177 00a3 BA8B2993 		.ascii	"\272\213)\223\212\203\360\352\214\321,\213_\"\234,\177"
 177      8A83F0EA 
 177      8CD12C8B 
 177      5F229C2C 
 177      7F
 178 00b4 079518C0 		.ascii	"\007\225\030\300 \254\272\356R\363\327\243\372k\\\252"
 178      20ACBAEE 
 178      52F3D7A3 
 178      FA6B5CAA 
 179 00c4 BA6FDD85 		.ascii	"\272o\335\205Z\253\205'\015d\0142(S/\243\201<\345\231"
 179      5AAB8527 
 179      0D640C32 
 179      28532FA3 
 179      813CE599 
 180 00d8 50A8F714 		.ascii	"P\250\367\024r\217\245\310i@\345\307\355\352\203\343"
 180      728FA5C8 
 180      6940E5C7 
 180      EDEA83E3 
 181 00e8 7BAC6DFA 		.ascii	"{\254m\372\332\367\355e~Z\305{8\030\264T{~c\267\357"
 181      DAF7ED65 
 181      7E5AC57B 
 181      3818B454 
 181      7B7E63B7 
 182 00fd 44B0FA73 		.ascii	"D\260\372s\363S\177\260\330\332\371L\355\252\270\212"
 182      F3537FB0 
 182      D8DAF94C 
 182      EDAAB88A 
 183 010d 616296EC 		.ascii	"ab\226\354\214\006\247\341\021#\375\217iI\347\343\376"
 183      8C06A7E1 
 183      1123FD8F 
 183      6949E7E3 
 183      FE
 184 011e 9D266113 		.ascii	"\235&a\023W\334[\027\014J\350\356\247\203\277\332\303"
 184      57DC5B17 
 184      0C4AE8EE 
 184      A783BFDA 
 184      C3
 185 012f 237EC775 		.ascii	"#~\307u\250||\261\231\360)t\014\015\303\232\353\272"
ARM GAS  /tmp/cchk29Gr.s 			page 14


 185      A87C7CB1 
 185      99F02974 
 185      0C0DC39A 
 185      EBBA
 186 0141 03064697 		.ascii	"\003\006F\227\341\016e\307t\344\262\312\021/z\034\333"
 186      E10E65C7 
 186      74E4B2CA 
 186      112F7A1C 
 186      DB
 187 0152 27A5BC1D 		.ascii	"'\245\274\035\336\316\212\350\222\256\016\325\365`+"
 187      DECE8AE8 
 187      92AE0ED5 
 187      F5602B
 188 0161 2A93A83D 		.ascii	"*\223\250=]\022\021\3622@\250b\210p\257\304\210\277"
 188      5D1211F2 
 188      3240A862 
 188      8870AFC4 
 188      88BF
 189 0173 F97FA494 		.ascii	"\371\177\244\224\012\360\001\"~\016\3005\370\355^\227"
 189      0AF00122 
 189      7E0EC035 
 189      F8ED5E97 
 190 0183 5971E19F 		.ascii	"Yq\341\237\226\"8u\242c\334\300>\200^=\2774\366\353"
 190      96223875 
 190      A263DCC0 
 190      3E805E3D 
 190      BF34F6EB 
 191 0197 A9E27DEF 		.ascii	"\251\342}\357:\377)(\034&\350\327\025)\350\263^A\357"
 191      3AFF2928 
 191      1C26E8D7 
 191      1529E8B3 
 191      5E41EF
 192 01aa 1E4D062F 		.ascii	"\036M\006/\256K\331\335.e\177V\302\035e#4\242\222F\320"
 192      AE4BD9DD 
 192      2E657F56 
 192      C21D6523 
 192      34A29246 
 193 01bf 190F8AAB 		.ascii	"\031\017\212\253\342\0329A/m1U\\\307\244\337\3476\314"
 193      E21A3941 
 193      2F6D3155 
 193      5CC7A4DF 
 193      E736CC
 194 01d2 37BF0DB5 		.ascii	"7\277\015\265o\306\377\306\350\301\320\273\226\241\307"
 194      6FC6FFC6 
 194      E8C1D0BB 
 194      96A1C7
 195 01e1 D269C572 		.ascii	"\322i\305r\224\202ZT\034[H\233/M\233i\001\247|@X\246"
 195      94825A54 
 195      1C5B489B 
 195      2F4D9B69 
 195      01A77C40 
 196 01f7 694D2825 		.ascii	"iM(%\313.;\312\305\321l&;\243\210\202\260l-?u\316L\027"
 196      CB2E3BCA 
 196      C5D16C26 
 196      3BA38882 
 196      B06C2D3F 
 197 020f 203CA516 		.ascii	" <\245\026'\265\341\236hm\246\254d\262\271\221\234b"
ARM GAS  /tmp/cchk29Gr.s 			page 15


 197      27B5E19E 
 197      686DA6AC 
 197      64B2B991 
 197      9C62
 198 0221 4C88E2E4 		.ascii	"L\210\342\344UM\021\246c8y]\010\312H\370\261v\271\203"
 198      554D11A6 
 198      6338795D 
 198      08CA48F8 
 198      B176B983 
 199 0235 169C59A7 		.ascii	"\026\234Y\247\203\310f,\207&\012\221\226\220\201ln4"
 199      83C8662C 
 199      87260A91 
 199      9690816C 
 199      6E34
 200 0247 35AE3A5A 		.ascii	"5\256:Z\3116\316\244\206\316\002\263!jj\246e\317\302"
 200      C936CEA4 
 200      86CE02B3 
 200      216A6AA6 
 200      65CFC2
 201 025a 5FF9D0F7 		.ascii	"_\371\320\367y"
 201      79
 202              		.text
 203              		.section	.gnu.lto_pwmDisableChannel.e01dc43e7e206e48,"",%progbits
 204 0000 789C8D52 		.ascii	"x\234\215RMh\023A\024~o6\233M,\322\036\215H\014\005"
 204      4D681341 
 204      147E6F36 
 204      9B4D2CD2 
 204      1E8D480C 
 205 0015 A950C97A 		.ascii	"\251P\311z\363j\311\305\036ri*\350)l\307e\263\220\355"
 205      F36AC9C5 
 205      1E72692A 
 205      E8296CC7 
 205      65B390ED 
 206 0029 86DDB4B6 		.ascii	"\206\335\264\266x\3506\351A\360`)\036\242\245\224*\210"
 206      78E836E9 
 206      41F06029 
 206      1EA2A594 
 206      2A88
 207 003b 16AA070F 		.ascii	"\026\252\007\017\342\037F\360\240`Rz\025\204\200\007"
 207      E21F46F0 
 207      A060527A 
 207      15848007 
 208 004b F5A278B2 		.ascii	"\365\242x\262\210\022\337\3546\233\244\005u\226\231"
 208      8812DFEC 
 208      369BA405 
 208      759699
 209 005a F73FDFDB 		.ascii	"\367?\337\333\367\015\003\006\373W\202\3669\011\340"
 209      F70D0306 
 209      FB5782F6 
 209      3909E0
 210 0069 35499400 		.ascii	"5I\224\000\331r\023`1\306\020\205\002\010\013\014\027"
 210      D9721360 
 210      31C61085 
 210      02080B0C 
 210      17
 211 007a 2EA29FFB 		.ascii	".\242\237\373\220\325[\355\366\203Z\363\345/|\302\006"
 211      90D55BED 
ARM GAS  /tmp/cchk29Gr.s 			page 16


 211      F6835AF3 
 211      E52F7CC2 
 211      06
 212 008b 25B41022 		.ascii	"%\264\020\"`\"\310\244a\2244T\204\031\023G\\\034\264"
 212      6022C8A4 
 212      61943454 
 212      84191347 
 212      5C1CB4
 213 009e 6458F2BC 		.ascii	"dX\362\274\345\224\205\204\315}\317$\235\342\362\363"
 213      E5948584 
 213      CD7DCF24 
 213      9DE2F2F3 
 214 00ae E42229BD 		.ascii	"\344\")\275\205J\014`\0306<o\245\365\343^\343\025\256"
 214      854A0C60 
 214      18363C6F 
 214      A5F5E35E 
 214      E315AE
 215 00c1 54BD37DE 		.ascii	"T\2757\336R\275\335\306\343&2\006\031\024\245\027\320"
 215      52BDDDC6 
 215      E3263206 
 215      1914A517 
 215      D0
 216 00d2 4429E58B 		.ascii	"D)\345\213H\244\377/\204\217\245HiB\345\373\315\352"
 216      48A4FF2F 
 216      848FA548 
 216      6942E5FB 
 216      CDEA
 217 00e4 DDA37BA8 		.ascii	"\335\243{\250\035\370\372\267\235U\351\244\206\267q"
 217      1DF8FAB7 
 217      9D55E9A4 
 217      86B771
 218 00f3 386CA9FE 		.ascii	"8l\251\376\370\372\356\300\261\320\372}\343\303`h\\"
 218      F8FAEEC0 
 218      B1D0FA7D 
 218      E3C36068 
 218      5C
 219 0104 7BF79166 		.ascii	"{\367\221f\242\341\006\312\204,\320\031m\211\266\017"
 219      A2E106CA 
 219      842CD019 
 219      6D89B60F 
 220 0114 8CF4DD27 		.ascii	"\214\364\335'\223~I\012f\232\204\247\270\346\325\316"
 220      937E490A 
 220      669A84A7 
 220      B8E6D5CE 
 221 0124 9A54D0DB 		.ascii	"\232T\320\333O7\376b/\036\015:n@\345}\355S\"\200002"
 221      4F37FE62 
 221      2F1E0D3A 
 221      6E40E57D 
 221      ED532280 
 222 013b 0A9B9EE7 		.ascii	"\012\233\236\347\015\231\250\254\302-\252\216\031(\211"
 222      0D99A8AC 
 222      C22DAA8E 
 222      192889
 223 014a 5BE27EF6 		.ascii	"[\342~\366\024v\376\224\352\276J\235\252\250!\340\032"
 223      1476FE94 
 223      EABE4A9D 
 223      AAA821E0 
ARM GAS  /tmp/cchk29Gr.s 			page 17


 223      1A
 224 015b 50DD0A5D 		.ascii	"P\335\012]\212(\242\366\014\001D\311\317\303\010\335"
 224      8A28A2F6 
 224      0C0144C9 
 224      CFC308DD 
 225 016b A8F8C9CF 		.ascii	"\250\370\311\317BW\234\200)\340'\216\007\316\377\353"
 225      42579C80 
 225      29E0278E 
 225      07CEFFEB 
 226 017b C310F636 		.ascii	"\303\020\3666\310A\015\300\025\370\351]\025U\207x0\000"
 226      C8410DC0 
 226      15F8E95D 
 226      15558778 
 226      3000
 227 018d CA90A839 		.ascii	"\312\220\2509\023\007\000\372\371\375\334\334\317\257"
 227      130700FA 
 227      F9FDDCDC 
 227      CFAF
 228 019b 8677FCF1 		.ascii	"\206w\374\361\376\223`\370\033\301_\326\004\301\217"
 228      FE9360F8 
 228      1BC15FD6 
 228      04C18F
 229 01aa FA095E3F 		.ascii	"\372\011^?\234\014_`\017\323\273=LoW\345.\323Q\332\212"
 229      9C0C5F60 
 229      0FD3BB3D 
 229      4C6F57E5 
 229      2ED351DA 
 230 01bf 80E13495 		.ascii	"\200\3414\225\203dk\270IJ\330K\207\\\015\2670\031\364"
 230      83646BB8 
 230      494AD84B 
 230      875C0DB7 
 230      3019F4
 231 01d2 B9038BAD 		.ascii	"\271\003\213\255\365\221\316X\2025I\017\210\336\271"
 231      F591CE58 
 231      8235490F 
 231      88DEB9
 232 01e1 483D924E 		.ascii	"H=\222N\253\266\253\026\264\242\352:\\\310|\351\262"
 232      ABB6AB16 
 232      B4A2EA3A 
 232      5CC87CE9 
 232      B2
 233 01f2 95E63012 		.ascii	"\225\3460\022\004\270mY\366\264Z\262\235\262\253\216"
 233      04B86D59 
 233      F6B45AB2 
 233      9DB2AB8E 
 234 0202 4D6433D9 		.ascii	"Md3\3319\225\027\270\355\350\371\3313V\272\000\362\254"
 234      399517B8 
 234      EDE8F9D9 
 234      3356BA00 
 234      F2AC
 235 0214 569CD147 		.ascii	"V\234\321G\373\262\365\271\262\232\311\346\306s\252"
 235      FBB2F5B9 
 235      B29AC9E6 
 235      C673AA
 236 0223 39CD8B33 		.ascii	"9\315\2133\227t\225[\256\351\346\015\316\251\"\021\344"
 236      9774955B 
 236      AEE9E60D 
ARM GAS  /tmp/cchk29Gr.s 			page 18


 236      CEA92211 
 236      E4
 237 0234 3AE56EB4 		.ascii	":\345n\264\340\316\273\335\210h\306v\351\240\024!)2"
 237      E0CEBBDD 
 237      8868C676 
 237      E9A01421 
 237      2932
 238 0246 94CD4DA4 		.ascii	"\224\315M\244\2464W/9\346\251\324\211\323\300\034P,"
 238      A634572F 
 238      39E6A9D4 
 238      89D3C01C 
 238      502C
 239 0258 DDB29D79 		.ascii	"\335\262\235y\370\003\274\022\372@"
 239      F803BC12 
 239      FA40
 240              		.text
 241              		.section	.gnu.lto_pwmEnablePeriodicNotification.e01dc43e7e206e48,"",%progbits
 242 0000 789C8592 		.ascii	"x\234\205\222\317k\023A\024\307\337\233u\333\200\210"
 242      CF6B1341 
 242      14C7DF9B 
 242      75DB8088 
 243 0010 3D5A91B8 		.ascii	"=Z\221\270\024\244\202\222\361\346U\311\311C.M\005="
 243      14A48292 
 243      F1E655C9 
 243      C9432E4D 
 243      053D
 244 0022 85755C92 		.ascii	"\205u\\\222\205L7\354\244\265\305C\247M\016\202\007"
 244      854C37EC 
 244      A4B5C543 
 244      A74D0E82 
 244      07
 245 0033 4BF1A048 		.ascii	"K\361\240H\221*\210\012\332\233\202(D\360\240\024W\372"
 245      912A880A 
 245      DA9B8228 
 245      44F0A014 
 245      57FA
 246 0045 07880141 		.ascii	"\007\210\001A\024\004\021\004\213 \361\315n\262\333"
 246      14041104 
 246      8B20F1CD 
 246      6EB2DB
 247 0054 14D159DE 		.ascii	"\024\321Y\336\274y?\206\367\345\263\303\200\301\356"
 247      BC793F86 
 247      F7E5B3C3 
 247      80C1EE
 248 0063 354E56A5 		.ascii	"5NV\245\364+\362h\001\262\225\010`)\307\020\315\001"
 248      F42BF268 
 248      01B29508 
 248      6029C710 
 248      CD01
 249 0075 1016192E 		.ascii	"\020\026\031.\236\307\270w\203u\272\275\336\343\037"
 249      9EC7B877 
 249      8375BABD 
 249      DEE31F
 250 0084 D193AFF8 		.ascii	"\321\223\257\370\234\345,\224q\336\206\266\326+\216"
 250      9CE52C94 
 250      71DE86B6 
 250      D62B8E
ARM GAS  /tmp/cchk29Gr.s 			page 19


 251 0093 448A449C 		.ascii	"D\212D\234\231\246\335\\?\213\314x\353\015,\347\000"
 251      99A6DD5C 
 251      3F8BCC78 
 251      EB0D2CE7 
 251      00
 252 00a4 26605DEB 		.ascii	"&`]\353\325\356\317\373o_\342jK\277\326\355N\257\207"
 252      D5EECFFB 
 252      6F5FE26A 
 252      4BBFD6ED 
 252      4EAF87
 253 00b7 877D2459 		.ascii	"\207}$YE4W\317\241\217\350\304\216\355\031\326ir\340"
 253      453457CF 
 253      A18FE8C4 
 253      8EED19D6 
 253      6972E0
 254 00ca D02182E5 		.ascii	"\320!\202\345\3577[\367\016\366\247\016\306w\276m\335"
 254      EF375BF7 
 254      0EF6A70E 
 254      C677BE6D 
 254      DD
 255 00db B28EBA78 		.ascii	"\262\216\272x\007'RI\235\247\327\266\367\036J\243\337"
 255      07275249 
 255      9DA7D7B6 
 255      F71E4AA3 
 255      DF
 256 00ec D7DFEF4F 		.ascii	"\327\337\357O\203\253\037>Z\000.\256\243M\223\315tF"
 256      83AB1F3E 
 256      5A002EAE 
 256      A34D93CD 
 256      7446
 257 00fe 6691C583 		.ascii	"f\221\305\203\221\276\007\024\022\031+\241\226\207g"
 257      91BE0714 
 257      12192BA1 
 257      968767
 258 010d B8A66F9C 		.ascii	"\270\246o\234\362)\273SOV\177\321\257\367\225\277\203"
 258      F229BB53 
 258      4F567FD1 
 258      AFF795BF 
 258      83
 259 011e 7677B39A 		.ascii	"vw\263\232L\000\270\014\277\364\025=\346\243-\342\230"
 259      4C00B80C 
 259      BFF4153D 
 259      E6A32DE2 
 259      98
 260 012f A8A3E5E3 		.ascii	"\250\243\345\343\010\3000\234\317\321n8.\336\215\265"
 260      08C0309C 
 260      CFD16E38 
 260      2EDE8DB5 
 261 013f FD970EFC 		.ascii	"\375\227\016\374\213\316\2275Cgc\230\316\355}\371\364"
 261      8BCE9735 
 261      43676398 
 261      CEED7DF9 
 261      F4
 262 0150 F7EDC0B4 		.ascii	"\367\355\300\264\235a\332\374\324\2623L#d\243f\214\300"
 262      9D61DAFC 
 262      D4B2334C 
 262      2364A366 
ARM GAS  /tmp/cchk29Gr.s 			page 20


 262      8CC0
 263 0162 DC5F48B9 		.ascii	"\334_H\271\370\220\016\251\226\001\031\027\037a>\311"
 263      F8900EA9 
 263      96011917 
 263      1F613EC9 
 264 0172 6CC15237 		.ascii	"l\301R7\232\0340I\3264\321\247GbZ\017\024\012<P\274"
 264      9A1C3049 
 264      D634D1A7 
 264      47625A0F 
 264      140A3C50 
 265 0187 E6D6B90A 		.ascii	"\346\326\271\012\205\361\225\306%Y\0200\231\024D e0"
 265      85F195C6 
 265      25591030 
 265      99144420 
 265      6530
 266 0199 C31B41D8 		.ascii	"\303\033A\330T\374\364T\251X\232\347\242&\202\320\253"
 266      54FCF454 
 266      A9589AE7 
 266      A22682D0 
 266      AB
 267 01aa CC9D9485 		.ascii	"\314\235\224\205\032\330sn}\326;6\324\355\3157y\261"
 267      1AD8736E 
 267      7DD63B36 
 267      D4EDCD37 
 267      79B1
 268 01bc 543E53E6 		.ascii	"T>S\346\376\214\250\317^\364\270\220\312W\225\252\020"
 268      FE8CA8CF 
 268      5EF4B890 
 268      CA5795AA 
 268      10
 269 01cd 74633CE9 		.ascii	"tc<\351\015\233Y\265\246\026TV1b\002E\033\265\030O\225"
 269      0D9B59B5 
 269      A6165456 
 269      31620245 
 269      1BB5184F 
 270 01e2 B15279CA 		.ascii	"\261Ry\312\271\340*\257\021\372\307\235#'\200\2050*"
 270      B9E02AAF 
 270      11FAC79D 
 270      23278085 
 270      302A
 271 01f4 3D19840B 		.ascii	"=\031\204\013\360\007\300g\324\351"
 271      F007C067 
 271      D4E9
 272              		.text
 273              		.section	.gnu.lto_pwmDisablePeriodicNotification.e01dc43e7e206e48,"",%progbits
 274 0000 789C8592 		.ascii	"x\234\205\222Mh\023A\024\307\337\233u\333\200\210=Z"
 274      4D681341 
 274      14C7DF9B 
 274      75DB8088 
 274      3D5A
 275 0012 91B814A4 		.ascii	"\221\270\024\244\202\222\361\346U\311\251\207\\\232"
 275      8292F1E6 
 275      55C9A987 
 275      5C9A
 276 0020 0A7A0AEB 		.ascii	"\012z\012\353\270$\013\231n\330Ik\213\207N\233\034\012"
 276      B8240B99 
 276      6ED8496B 
ARM GAS  /tmp/cchk29Gr.s 			page 21


 276      8B874E9B 
 276      1C0A
 277 0032 1E5A8A07 		.ascii	"\036Z\212\007E\212TAT\320\036\013\202\030\301\203\""
 277      458A5441 
 277      54D01E0B 
 277      8218C183 
 277      22
 278 0043 46EA5921 		.ascii	"F\352Y!\340EO\342EK\241\3067\273\311nSDgy\363\346}\014"
 278      E0454FE2 
 278      454BA1C6 
 278      37BBC96E 
 278      53446779 
 279 005b EFCF6F87 		.ascii	"\357\317o\207\001\203\203k\224\254L\351\327\344\321"
 279      0183836B 
 279      94AC4CE9 
 279      D7E4D1
 280 006a 0264AB6D 		.ascii	"\002d\253m\200\305\014C4\007@X`\270p\005\243\336M\326"
 280      80C50C43 
 280      34074058 
 280      60B87005 
 280      A3DE4DD6 
 281 007e EA74BBCF 		.ascii	"\352t\273\317>\256l}\302\227,c\241\214\36264\265^u$"
 281      3EAE6C7D 
 281      C2972C63 
 281      A18CF236 
 281      34B55E75 
 282 0093 5224A2CC 		.ascii	"R$\242\314\024\355\346\372%d\306[oa)\0030\006\033Z\257"
 282      14EDE6FA 
 282      2564C65B 
 282      6F612903 
 282      30061B5A 
 283 00a8 757E3D7A 		.ascii	"u~=z\377\012\327\032\372\215n\266\272]<\351#\311\312"
 283      FF0AD71A 
 283      FA8D6EB6 
 283      BA5D3CE9 
 283      23C9CA
 284 00bb A3B97A19 		.ascii	"\243\271z\031}D'r\354\320\240N\223\003\207\016mX\372"
 284      7D442772 
 284      ECD0A04E 
 284      9303870E 
 284      6D58FA
 285 00ce 71A7F1F0 		.ascii	"q\247\361\360xoj\177|\353\373\366]\353\264\213\367q"
 285      786F6A7F 
 285      7CEBFBF6 
 285      5DEBB48B 
 285      F771
 286 00e0 2C91D4DA 		.ascii	",\221\324\332Z\3319|\"\211\366n}>\232\004\357~~\261"
 286      5AD9397C 
 286      2289F66E 
 286      7D3E9A04 
 286      EF7E7EB1 
 287 00f4 005CDC40 		.ascii	"\000\\\334@\233&\233\351\214\314\"\213\006#}\217)$2"
 287      9B269BE9 
 287      8CCC228B 
 287      06237D8F 
 287      292432
 288 0107 564C2D0B 		.ascii	"VL-\013\317q]\337\276\340Sv\277\236\264\376\242W\357"
ARM GAS  /tmp/cchk29Gr.s 			page 22


 288      CF715DDF 
 288      BEE05376 
 288      BF9EB4FE 
 288      A257EF
 289 011a 29FF00CD 		.ascii	")\377\000\315\316n9\236\000p\003v\365\262\036\361\321"
 289      CE6E399E 
 289      00700376 
 289      F5B21EF1 
 289      D1
 290 012b 16514CD4 		.ascii	"\026QL\324\321\362q\010`\020\316\327\366A8.>\210\264"
 290      D1F27108 
 290      6010CED7 
 290      F641382E 
 290      3E88B4
 291 013e FD970EFC 		.ascii	"\375\227\016\374\213\316\267uCgs\220\316\275#\331\344"
 291      8BCEB775 
 291      43677390 
 291      CEBD23D9 
 291      E4
 292 014f F7EDC3B4 		.ascii	"\367\355\303\264\223b\272\371\273a\247\230\206\310\206"
 292      9362BAF9 
 292      BB61A798 
 292      86C886
 293 015e CD188199 		.ascii	"\315\030\201\231\277\220r\361\011\035\022-}2.>\305l"
 293      BF9072F1 
 293      091D122D 
 293      7D322E3E 
 293      C56C
 294 0170 9CD986C5 		.ascii	"\234\331\206\305\316\336x\237I\274\246\210>=\022\323"
 294      CEDE789F 
 294      49BCA688 
 294      3E3D12D3 
 295 0180 7A2C97E3 		.ascii	"z,\227\343\201\342\025\267\312U(\214/\325\256\313\234"
 295      81E215B7 
 295      CA55288C 
 295      2FD5AECB 
 295      9C
 296 0191 80F1B820 		.ascii	"\200\361\270 \002)\203i^\013\302\272\342\027'\013\371"
 296      02298369 
 296      5E0BC2BA 
 296      E217270B 
 296      F9
 297 01a2 C21C1715 		.ascii	"\302\034\027\025\021\204^i\366\274\314U\300\236u\253"
 297      11845E69 
 297      F6BCCC55 
 297      C09E75AB 
 298 01b2 33DE9981 		.ascii	"3\336\231\201no\256\316\363\205\342D\221\373\323\242"
 298      6E6FAECE 
 298      F385E244 
 298      91FBD3A2 
 299 01c2 3A73CDE3 		.ascii	":s\315\343B*_\225\312B\320\215\321\2707\254\247\325"
 299      422A5F95 
 299      CA42D08D 
 299      D1B837AC 
 299      A7D5
 300 01d4 8A9A5769 		.ascii	"\212\232Wi\305\210\011\024m\324b<UF\012\305I\347\252"
 300      C5880914 
ARM GAS  /tmp/cchk29Gr.s 			page 23


 300      6DD4623C 
 300      55460AC5 
 300      49E7AA
 301 01e7 ABBC5AE8 		.ascii	"\253\274Z\350\237uN\235\003\026\302\260\364d\020\316"
 301      9F754E9D 
 301      0316C2B0 
 301      F46410CE 
 302 01f7 C31F8DAD 		.ascii	"\303\037\215\255\325\011"
 302      D509
 303              		.text
 304              		.section	.gnu.lto_pwmEnableChannelNotification.e01dc43e7e206e48,"",%progbits
 305 0000 789C8552 		.ascii	"x\234\205RAh\023A\024\375\1776\333FD\354\321\212\304"
 305      41681341 
 305      14FD7F36 
 305      DB4644EC 
 305      D18AC4
 306 0013 A5205A94 		.ascii	"\245 Z\224\2147\257\225\234<\344\322T\320SX\307%\031"
 306      8C37AF95 
 306      9C3CE4D2 
 306      54D05358 
 306      C72519
 307 0026 C874C36E 		.ascii	"\310t\303nZ[<t\332F\020<X\202\007E\212TAT\260\275\010"
 307      5A5B3C74 
 307      DA46103C 
 307      58820745 
 307      8A544154 
 308 003d 524188E0 		.ascii	"RA\210\340A\017\246\364\256\220\203\007=\211'\213 \361"
 308      410FA6F4 
 308      AE908307 
 308      3D89278B 
 308      20F1
 309 004f CF6EB249 		.ascii	"\317n\262I\212\330Y\376\374\371\377\375\231\377\366"
 309      8AD859FE 
 309      FCF9FFFD 
 309      99FFF6
 310 005e CD3060B0 		.ascii	"\3150`\260\177\214\223\371\224~O\036-@\266\326\002X"
 310      7F8C93F9 
 310      947E4F1E 
 310      2D40B6D6 
 310      0258
 311 0070 4E3344B3 		.ascii	"N3D\263\000\204%\206KW1\252\335b\315v\247\263\371\252"
 311      00842586 
 311      4B5731AA 
 311      DD62CD76 
 311      A7B3F9AA 
 312 0084 F1E91D6E 		.ascii	"\361\351\035nO\036\262P!\244h2\250\015u\255\327\034"
 312      4F1EB250 
 312      21A46832 
 312      A80D75AD 
 312      D71C
 313 0096 85749688 		.ascii	"\205t\226\210\312gh6g\\\246\024y\353#\254\244\001&`"
 313      CA676836 
 313      675CA614 
 313      79EB23AC 
 313      A4012660 
 314 00aa 43EB46FB 		.ascii	"C\353F\373\3273:\243\261\252?\350z\263\323\301\223\022"
 314      D7333AA3 
ARM GAS  /tmp/cchk29Gr.s 			page 24


 314      B1AA3FE8 
 314      7AB3D3C1 
 314      9312
 315 00bc 895B0ECD 		.ascii	"\211[\016\315\326+(\021\235\310\261\3240Y\223\003\207"
 315      D62B2811 
 315      9DC8B1D4 
 315      30599303 
 315      87
 316 00cd 162D58F9 		.ascii	"\026-X\371\371`\365\351\361n\327^\373\346\217\335\207"
 316      F960F5E9 
 316      F16ED75E 
 316      FBE68FDD 
 316      87
 317 00de D619171F 		.ascii	"\326\031\027\037\343DB\251\371\372\356\336\341\023I"
 317      E34442A9 
 317      F9FAEEDE 
 317      E11349
 318 00ed F4E7DE97 		.ascii	"\364\347\336\227\243Ipg\347\253\005\340\342\006\332"
 318      A3497067 
 318      E7AB05E0 
 318      E206DA
 319 00fc D4D97467 		.ascii	"\324\331tgd\026Y\324\030\351{N!\375\222\025K\227\201"
 319      641659D4 
 319      18E97B4E 
 319      21FD9215 
 319      4B9781
 320 010f 37B8AEEF 		.ascii	"7\270\256\357OI\312\016\362\351\343o\273x\227\371\016"
 320      4F49CA0E 
 320      F2E9E36F 
 320      BB7897F9 
 320      0E
 321 0120 DC6A6FCA 		.ascii	"\334jo\312\270\003\300M\370\255o\3531\211\266\210b\200"
 321      B803C04D 
 321      F8AD6FEB 
 321      3189B688 
 321      6280
 322 0132 125A254C 		.ascii	"\022Z%LI\034\001\030\326\347[k\277>.>\211\350\035(\020"
 322      491C0118 
 322      D6E75B6B 
 322      BF3E2E3E 
 322      89E81D28 
 323 0147 FC4FA0EF 		.ascii	"\374O\240\357\353F\240\255a\201\036\035\311$78\240\324"
 323      EB46A0AD 
 323      61811E1D 
 323      C9243738 
 323      A0D4
 324 0159 DE80529F 		.ascii	"\336\200R\237\353v_\251\021\262Q\323F`\372\037b\271"
 324      EB765FA9 
 324      11B251D3 
 324      4660FA1F 
 324      62B9
 325 016b F8821609 		.ascii	"\370\202\026\011\227\2368.\276\304L\234\331\205\345"
 325      979E382E 
 325      BEC44C9C 
 325      D985E5
 326 017a F6F6644F 		.ascii	"\366\366dO\226x\314\320\005\320;1\245\307\262Y\356\207"
 326      9678CCD0 
ARM GAS  /tmp/cchk29Gr.s 			page 25


 326      05D03B31 
 326      A5C7B259 
 326      EE87
 327 018c BCEC5678 		.ascii	"\274\354Vx\030\010\343\213\325\033*+\340t\014\010_)"
 327      1808E38B 
 327      D51B2A2B 
 327      E0740C08 
 327      5F29
 328 019e 7F9657FD 		.ascii	"\177\226W\375\240\026\362\213\323\371\\~\201\213\262"
 328      A016F28B 
 328      D3F95C7E 
 328      818BB2
 329 01ad F003AF38 		.ascii	"\360\003\2578\177Ae\313`\317\273\2259\357\354P\265\267"
 329      7F4165CB 
 329      60CFBB95 
 329      39EFEC50 
 329      B5B7
 330 01bf 50E3B97C 		.ascii	"P\343\271|\341R\201\313YQ\231\273\356q\241B\031\026"
 330      E15281CB 
 330      595199BB 
 330      EE71A142 
 330      1916
 331 01d1 4B42D08E 		.ascii	"KB\320\216\361\2706\250\365\321r\270\030\366\021C\306"
 331      F1B836A8 
 331      F5D172B8 
 331      18F61143 
 331      C6
 332 01e2 0F69A212 		.ascii	"\017i\242\022\343\011\031\313\027\246\235kn\350U\003"
 332      E30919CB 
 332      17A69D6B 
 332      6EE85503 
 333 01f2 79CE3975 		.ascii	"y\3169u\036X\000\243\312S~\260\010\177\001P\372\324"
 333      1E5800A3 
 333      CA537EB0 
 333      087F0150 
 333      FAD4
 334 0204 E2       		.ascii	"\342"
 335              		.text
 336              		.section	.gnu.lto_pwmDisableChannelNotification.e01dc43e7e206e48,"",%progbits
 337 0000 789C8552 		.ascii	"x\234\205RAh\023A\024\375\1776\333FD\354\321\212\304"
 337      41681341 
 337      14FD7F36 
 337      DB4644EC 
 337      D18AC4
 338 0013 A5205A94 		.ascii	"\245 Z\224\2147\257\226\234<\344\322T\320SX\307%\031"
 338      8C37AF96 
 338      9C3CE4D2 
 338      54D05358 
 338      C72519
 339 0026 C874C34E 		.ascii	"\310t\303NZ[<t\333F\020<X\212\007E\213TAT\320\036\005"
 339      5A5B3C74 
 339      DB46103C 
 339      588A0745 
 339      8B544154 
 340 003d 4188E041 		.ascii	"A\210\340A\017F\212g!\007\017*\004\361\242E\220\370"
 340      0F468A67 
 340      21070F2A 
ARM GAS  /tmp/cchk29Gr.s 			page 26


 340      04F1A245 
 340      90F8
 341 004f 6737D924 		.ascii	"g7\331$E\354,\177\376\374\377\376\314\177\373f\0300"
 341      45EC2C7F 
 341      FEFCFFFE 
 341      CC7FFB66 
 341      1830
 342 0061 D83DC6C9 		.ascii	"\330=\306\311|J\277!\217\026 [k\002,\247\031\242Y\000"
 342      7C4ABF21 
 342      8F16205B 
 342      6B022CA7 
 342      19A25900 
 343 0075 C212C3A5 		.ascii	"\302\022\303\245\213\030\325n\261F\253\323y~\357\343"
 343      8B18D56E 
 343      B146ABD3 
 343      797EEFE3 
 344 0085 FBD7D89E 		.ascii	"\373\327\330\236\334g\241BH\321dP\033\352a\270\346("
 344      DC67A142 
 344      48D16450 
 344      1BEA61B8 
 344      E628
 345 0097 A4B34454 		.ascii	"\244\263DT>C\2639\343<\245\310[\357`%\0150\001\233a"
 345      3E43B339 
 345      E33CA5C8 
 345      5BEF6025 
 345      0D30019B 
 346 00ac B8DEFAF5 		.ascii	"\270\336\372\365\230\316X_\015\337\206\365F\247\203"
 346      98CE585F 
 346      0DDF86F5 
 346      46A783
 347 00bb 472512B7 		.ascii	"G%\022\267\034\232\255\027P\":\221c\251a\262&\007\016"
 347      1C9AAD17 
 347      50223A91 
 347      63A961B2 
 347      26070E
 348 00ce 2D9AB0F2 		.ascii	"-\232\260\362\343\316\352\243\303\335\256\275\366\215"
 348      E3CEEAA3 
 348      C3DDAEBD 
 348      F68D
 349 00dc EFDB77AD 		.ascii	"\357\333w\255\023.>\300\211\204R\343\305\315\235\375"
 349      132E3EC0 
 349      898452E3 
 349      C5CD9DFD 
 350 00ec 4792E8CF 		.ascii	"G\222\350\317\255O\007\223\340F\373\263\005\340\342"
 350      AD4F0793 
 350      E046FBB3 
 350      05E0E2
 351 00fb 26DAD4D9 		.ascii	"&\332\324\331tgd\026Y\324\030\351{B!\375\222\025K\227"
 351      74676416 
 351      59D418E9 
 351      7B4221FD 
 351      92154B97 
 352 010f 8197B811 		.ascii	"\201\227\270\021\336>+);\310\247\217\277\352\342]\346"
 352      DE3E2B29 
 352      3BC8A78F 
 352      BFEAE25D 
 352      E6
ARM GAS  /tmp/cchk29Gr.s 			page 27


 353 0120 1FE05AEB 		.ascii	"\037\340Z\353\233\214;\000\\\205\337\341\365pL\242-"
 353      9B8C3B00 
 353      5C85DFE1 
 353      F5704CA2 
 353      2D
 354 0131 A218A084 		.ascii	"\242\030\240\204V\011S\022G\000\206\365\371\322\334"
 354      56095312 
 354      470086F5 
 354      F9D2DC
 355 0140 AD8F8B0F 		.ascii	"\255\217\213\017#z{\012\004\377\023\350\353\206\021"
 355      237A7B0A 
 355      04FF13E8 
 355      EB8611
 356 014f 686B58A0 		.ascii	"hkX\240\373\0072\311\015\016(\2653\240\324\317\272\335"
 356      FB0732C9 
 356      0D0E28B5 
 356      33A0D4CF 
 356      BADD
 357 0161 576A846C 		.ascii	"Wj\204l\324\264\021\230\376\207X.>\245E\302\245'\216"
 357      D4B41198 
 357      FE87582E 
 357      3EA545C2 
 357      A5278E
 358 0174 8BCF3013 		.ascii	"\213\3170\023g\266a\271\325\236\354\311\022\217\031"
 358      67B661B9 
 358      D59EECC9 
 358      128F19
 359 0183 BA007A27 		.ascii	"\272\000z'\246\364P6\313}\315\313n\205\353@\030_\254"
 359      A6F45036 
 359      CB7DCDCB 
 359      6E85EB40 
 359      185FAC
 360 0196 5E515901 		.ascii	"^QY\001\307c@\370J\371\263\274\352\0075\315\247\246"
 360      C76340F8 
 360      4AF9B3BC 
 360      EA0735CD 
 360      A7A6
 361 01a8 F3B9FC02 		.ascii	"\363\271\374\002\027e\341\007^q\376\214\312\226\301"
 361      1765E107 
 361      5E71FE8C 
 361      CA96C1
 362 01b7 9E772B73 		.ascii	"\236w+s\336\311\241jo\241\306s\371\302\271\002\227\263"
 362      DEC9A16A 
 362      6FA1C673 
 362      F9C2B902 
 362      97B3
 363 01c9 A23277D9 		.ascii	"\2422w\331\343Bi\251\213%!h\307x\\\033\324\372hY/\352"
 363      E34269A9 
 363      8B252168 
 363      C7785C1B 
 363      D4FA6859 
 364 01df 3E62C8F8 		.ascii	">b\310\370\232&*1\236\220\261|a\332\271\344j\257\032"
 364      9A262A31 
 364      9E90B17C 
 364      61DAB9E4 
 364      6AAF1A
 365 01f2 C853CEB1 		.ascii	"\310S\316\261\323\300\002\030U\236\362\203E\370\013"
ARM GAS  /tmp/cchk29Gr.s 			page 28


 365      D3C00218 
 365      559EF283 
 365      45F80B
 366 0201 7C34D5E7 		.ascii	"|4\325\347"
 367              		.text
 368              		.section	.gnu.lto_.symbol_nodes.e01dc43e7e206e48,"",%progbits
 369 0000 789C4DC8 		.ascii	"x\234M\310I\012\302@\024\204\341W\335&Q\223\030\207"
 369      490AC240 
 369      1484E157 
 369      DD265193 
 369      1887
 370 0012 037842CF 		.ascii	"\003xB\317P\201\200\270\364\004n<\212{/\340<\203(\""
 370      508180B8 
 370      F4046E3C 
 370      8A7B2FE0 
 370      3C832822 
 371 0026 22EE4463 		.ascii	"\"\356Dc\203\375j\363\363\225\021#=\210\233\231\201"
 371      83FD6AF3 
 371      F3951123 
 371      3D889B99 
 371      81
 372 0037 22C3A908 		.ascii	"\"\303\251\0109\032\300\314A(.@\243\270\004\255\342"
 372      391AC0CC 
 372      41282E40 
 372      A3B804AD 
 372      E2
 373 0048 0AAC28AE 		.ascii	"\012\254(\256\301@q\003\206\212[0R\334\201U\305=XS<"
 373      C1407103 
 373      868A5B30 
 373      52DC8155 
 373      C53D5853 
 374 005d 80754F1C 		.ascii	"\200uO\034\301\3301\317\201\023\230x\235\301\324\353"
 374      C1D831CF 
 374      81139878 
 374      9DC1D4EB 
 375 006d 0A36BC6E 		.ascii	"\0126\274n`\346u\007\233^\017\260\345\365\004\333^/"
 375      60E67507 
 375      9B5E0FB0 
 375      E5F504DB 
 375      5E2F
 376 007f B0F39795 		.ascii	"\260\363\227\225X\212\365\033\326$2\336|kS\231\224\016"
 376      588AF51B 
 376      D62432DE 
 376      7C6B5399 
 376      940E
 377 0091 1AB22B1D 		.ascii	"\032\262+\035fR\364/]\0335\335_m\271\326\332\256\365"
 377      6652F42F 
 377      5D1B35DD 
 377      5F6DB9D6 
 377      DAAEF5
 378 00a4 CEAFF201 		.ascii	"\316\257\362\001D+u|"
 378      442B757C 
 379              		.text
 380              		.section	.gnu.lto_.refs.e01dc43e7e206e48,"",%progbits
 381 0000 789C6362 		.ascii	"x\234cb`b`d\200\002\000\000F\000\006"
 381      60626064 
 381      80020000 
ARM GAS  /tmp/cchk29Gr.s 			page 29


 381      460006
 382              		.text
 383              		.section	.gnu.lto_.decls.e01dc43e7e206e48,"",%progbits
 384 0000 789CAD5A 		.ascii	"x\234\255Z\015p\024E\026\236\236\311\317\006\002\002"
 384      0D701445 
 384      169E9EC9 
 384      CF060202 
 385 0010 E50FD681 		.ascii	"\345\017\326\201\204;\271\263\364\216\360\247\342\325"
 385      843BB9B3 
 385      F48EF0A7 
 385      E2D5
 386 001e 9DCA2D94 		.ascii	"\235\312-\224\244$\310m\240\360\352\364\326a\263\220"
 386      A424C86D 
 386      A0F0EAF4 
 386      D661B390 
 387 002e D56513B3 		.ascii	"\325e\023\263\033\220\262<&$ \210@\370\017\012!\020"
 387      1B90B23C 
 387      26242088 
 387      40F80F0A 
 387      2110
 388 0040 04413872 		.ascii	"\004A8r@\204B\"\213 P\004\005\002G8#\260'*\376\300\011"
 388      40844222 
 388      8B205004 
 388      05024738 
 388      23B0272A 
 389 0057 280AA7B0 		.ascii	"(\012\247\260\367\272gf\247\247\267g3\223r\253^\317"
 389      F7BA6766 
 389      A7A7B767 
 389      339372AB 
 389      5ECF
 390 0069 F4ECEBEF 		.ascii	"\364\354\353\357}\357\365\233\376\333\025\005Qx*]\020"
 390      7DEFF59B 
 390      FEDB1505 
 390      51782A5D 
 390      10
 391 007a E2F059DD 		.ascii	"\342\360Y\335O\020\226\300}\266 \010\017\013\306\347"
 391      4F1096C0 
 391      7DB62008 
 391      0F0BC6E7 
 392 008a 56905520 		.ascii	"V\220U kA\036D\202\360\010\210\033\344q\220\261 ^\020"
 392      6B411E44 
 392      82F00888 
 392      1BE47190 
 392      B1205E10 
 393 009e 1FC80490 		.ascii	"\037\310\004\220 \310\363 a\2202\220\311 S@^\004y\011"
 393      20C8F320 
 393      61903290 
 393      C9205340 
 393      5E047909 
 394 00b2 642A4839 		.ascii	"d*H9\022\222>\030_\004\251\200\357Vk\317D\355\371\363"
 394      12923E18 
 394      5F04A980 
 394      EF566BCF 
 394      44EDF9F3 
 395 00c6 1C7DCC25 		.ascii	"\034}\314%\003\244\036d\003\310z\220F\220\213 W@\322"
 395      03A41E64 
 395      03C87A90 
ARM GAS  /tmp/cchk29Gr.s 			page 30


 395      46908B20 
 395      5740D2
 396 00d9 403683EC 		.ascii	"@6\203\354\002\271\000r\031\004i\355\360u\020\203\211"
 396      02B90072 
 396      190469ED 
 396      F0751083 
 396      89
 397 00ea FDEA02D7 		.ascii	"\375\352\002\327L\220} \235\0055\016\225\360|&R\261"
 397      4C907D20 
 397      9D05350E 
 397      95F07C26 
 397      52B1
 398 00fc 753BAF40 		.ascii	"u;\257@\375]\270\036\0069\001\262N\263\213\271\244k"
 398      FD5DB81E 
 398      063901B2 
 398      4EB38BB9 
 398      A46B
 399 010e 369B40BE 		.ascii	"6\233@\276\326lc\036Y\232\215\331 sA\346\203,\322\342"
 399      D66C631E 
 399      599A8DD9 
 399      207341E6 
 399      832CD2E2 
 400 0122 B402A416 		.ascii	"\264\002\244\026\244\016D\002\275?\300\365\217 k\031"
 400      A40E4402 
 400      BD3FC0F5 
 400      8F206B19 
 401 0132 8E38EED9 		.ascii	"\2168\356\331\026\374h\036t<0'I\343\261\213\342\362"
 401      16FC681E 
 401      743C3027 
 401      49E3B18B 
 401      E2F2
 402 0144 08874B19 		.ascii	"\010\207K\031\303\005\307\177\010\\71<\334\032\217\233"
 402      C305C77F 
 402      085C3731 
 402      3CDC1A8F 
 402      9B
 403 0155 29E27598 		.ascii	")\342u\230\342\221\016\365\270\306\003\307\344\006\310"
 403      E2910EF5 
 403      B8C603C7 
 403      E406C8
 404 0164 2FE0994B 		.ascii	"/\340\231K\303by\260\361\030\016\327<\220-\014\217\307"
 404      C36279B0 
 404      F1180ED7 
 404      3C902D0C 
 404      8FC7
 405 0176 351E995A 		.ascii	"5\036\231Z\177\363x\320\361\330\016\365\021H\355\377"
 405      7FF378D0 
 405      F1D80EF5 
 405      1148EDFF 
 406 0186 0B5A1C1E 		.ascii	"\013Z\034\036\347\330\237\314p\300\330\177\206\253\007"
 406      E7D89FCC 
 406      70C0D87F 
 406      86AB07
 407 0195 6434C80E 		.ascii	"d4\310\016\206\307X\207<\032\241\376$\303c,\207\307"
 407      86C75887 
 407      3C1AA1FE 
 407      24C3632C 
ARM GAS  /tmp/cchk29Gr.s 			page 31


 407      87C7
 408 01a7 144E2C9E 		.ascii	"\024N,\236\202\353\3238\377\030\016\370\035\264\352"
 408      82EBD338 
 408      FF180EF8 
 408      1DB4EA
 409 01b6 0B3D3704 		.ascii	"\013=7\004\315\226\227c\353EN\337\313p\335\313\330\361"
 409      CD969763 
 409      EB454EDF 
 409      CB70DDCB 
 409      D8F1
 410 01c8 39B0E3E3 		.ascii	"9\260\343\343\330y\211c\307\017\327\203\214\235\011"
 410      D8798963 
 410      C70FD783 
 410      8C9D09
 411 01d7 29ECE8F1 		.ascii	")\354\350\361\323\355L\340\330\231\312\211]\000\256"
 411      D3ED4CE0 
 411      D899CA89 
 411      5D00AE
 412 01e6 CF827CC0 		.ascii	"\317\202|\300\330\012:\260\025\344\330*\347\330\012"
 412      D80A3AB0 
 412      15E4D82A 
 412      E7D80A
 413 01f5 C1B518A4 		.ascii	"\301\265\030\244\231\261\325K\250Qjc\261\3515MHY\240"
 413      99B1D54B 
 413      A8516A63 
 413      B1E9354D 
 413      4859A0
 414 0208 FC148F4B 		.ascii	"\374\024\217K\302\355\302b\005>\2653\024\005Ed\364\360"
 414      C2EDC262 
 414      053EB533 
 414      14054564 
 414      F4F0
 415 021a 6D605046 		.ascii	"m`PF\235\263\204\034r\223\235E\222\012w\307jt\273v7"
 415      9DB3841C 
 415      72939D45 
 415      920A77C7 
 415      6A74BB76 
 416 022f 4652E144 		.ascii	"FR\341D\374\"\335+\254\207\366U\212\362I7\201\367\371"
 416      FC22DD2B 
 416      AC87F655 
 416      8AF24937 
 416      81F7F9
 417 0242 B5F00636 		.ascii	"\265\360\0066\240\274\251H\004\036\003\254B\275h\025"
 417      A0BCA948 
 417      041E03AC 
 417      42BD6815 
 418 0252 19D52131 		.ascii	"\031\325!1\231g\264z\177vUy,\036\357e\237\344:\215\244"
 418      9967B47A 
 418      7F765579 
 418      2C1EEF65 
 418      9FE43A8D 
 419 0267 44FA56E8 		.ascii	"D\372V\350(\274\242(\323p\303\341\007;w\023\346c\224"
 419      28BCA228 
 419      D370C3E1 
 419      073B7713 
 419      E66394
 420 027a 9C839D05 		.ascii	"\234\203\235\005\275}\014\351\000=@\273\217\260\006"
ARM GAS  /tmp/cchk29Gr.s 			page 32


 420      BD7D0CE9 
 420      003D40BB 
 420      8FB006
 421 0289 3C89356C 		.ascii	"<\2115l\232\363{Eq\311h\003\352\0060\217!\300]\203\356"
 421      9AF37B45 
 421      71C96803 
 421      EA06308F 
 421      21C05D83 
 422 029e D5B8B589 		.ascii	"\325\270\265\211\"\243\215\340\215\2146Ak\265!\301U"
 422      22A38DE0 
 422      8D8C3641 
 422      6BB521C1 
 422      55
 423 02af 62C7F75F 		.ascii	"b\307\367_\235\201\312\301\005\365;\301\004k\372\364"
 423      9D81CAC1 
 423      05F53BC1 
 423      046BFAF4 
 424 02bf 166A8176 		.ascii	"\026j\201v\364lk\315\035J,\2122\205\031\330\213\330"
 424      F46C6BCD 
 424      1D4A2C8A 
 424      328519D8 
 424      8BD8
 425 02d1 F469DDAB 		.ascii	"\364i\335\253\015\253.\335(\242\250_\177U\"\324\353"
 425      0DAB2EDD 
 425      28A2A85F 
 425      7F5522D4 
 425      EB
 426 02e2 A1912828 		.ascii	"\241\221((\310\314\335\006\020f\265\025\032\323\314"
 426      C8CCDD06 
 426      1066B515 
 426      1AD3CC
 427 02f1 A30D336E 		.ascii	"\243\0153nQ\322\324\347)X\223\230\213\220\240j8\322"
 427      51D2D4E7 
 427      29589398 
 427      8B90A06A 
 427      38D2
 428 0303 B28C674B 		.ascii	"\262\214gK\214g\210R]i<\326\373\037WQ\226q\0237\247"
 428      8C678852 
 428      5D693CD6 
 428      FB1F5751 
 428      96711337 
 429 0318 304D4E46 		.ascii	"0MNF\333P\037(\033\220\304m&\012\353\211\3778\330<W"
 429      DB501F28 
 429      1B90C46D 
 429      260AEB89 
 429      FF38D83C 
 430 032d B55BC36E 		.ascii	"\265[\303ng\275\242u\000\364\330\215\317\321\302\012"
 430      67BDA275 
 430      00F4D88D 
 430      CFD1C20A 
 431 033d E5603F5E 		.ascii	"\345`?^\"\201\012\242\262\240V\322\021\007%:$\332\330"
 431      22810AA2 
 431      B2A056D2 
 431      1107253A 
 431      24DAD8
 432 0350 8A723819 		.ascii	"\212r8\031c\326\225\321np\244M5\254\270\207I\252\350"
 432      63D695D1 
ARM GAS  /tmp/cchk29Gr.s 			page 33


 432      6E70A44D 
 432      35ACB887 
 432      49AAE8
 433 0363 B28FB271 		.ascii	"\262\217\262q\327\354\261\225P\015\037\325\334\251\324"
 433      D7ECB195 
 433      500D1FD5 
 433      DCA9D4
 434 0372 BE07F199 		.ascii	"\276\007\361\231ix#p_&-\241v\317~\177\017\232Frv\037"
 434      69782370 
 434      5F262DA1 
 434      76CF7E7F 
 434      0F9A4672 
 435 0388 C2BDF401 		.ascii	"\302\275\364\001\223R\366\241N\317\335\365\020\311\315"
 435      9352F6A1 
 435      4ECFDDF5 
 435      10C9CD
 436 0397 0304A852 		.ascii	"\003\004\250R4\003\311(3\213\246L\352\272\002F\313\314"
 436      3403C928 
 436      338BA64C 
 436      EABA0246 
 436      CBCC
 437 03a9 326EF082 		.ascii	"2n\360\202\361\026\301\251\272(\314#F\367\030\011a\""
 437      F116C1A9 
 437      BA28CC23 
 437      46F71809 
 437      6122
 438 03bb 6A232166 		.ascii	"j#!f\2348\251&\204m\277\243\215Ko\303=t\230x\275,\311"
 438      9C38A926 
 438      846DBFA3 
 438      8D4B6FC3 
 438      3D749878 
 439 03d2 EB7DC8B1 		.ascii	"\353}\310\261\333\242\260\332\261\0379\246D8\255%\202"
 439      DBA2B0DA 
 439      B11F39A6 
 439      4438AD25 
 439      82
 440 03e3 29ADD5D1 		.ascii	")\255\325\3213E\0176|9\347\036\322\203\307\240!\274"
 440      33450F36 
 440      7C39E71E 
 440      D283C7A0 
 440      21BC
 441 03f5 5D8C2F36 		.ascii	"]\214/6\301\260\217'\000\200\237\254I\337\211\302v;"
 441      C1B08F27 
 441      00809FAC 
 441      49DF89C2 
 441      763B
 442 0407 CEBAAC3A 		.ascii	"\316\272\254:\015\306\335\031\247\241\323\024\350\264"
 442      0DC6DD19 
 442      A7A1D314 
 442      E8B4
 443 0415 AE4295F6 		.ascii	"\256B\225\366\212\351\257\360\243T\347=Jci\235\027o"
 443      8AE9AFF0 
 443      A354E73D 
 443      4A63699D 
 443      176F
 444 0427 4139323A 		.ascii	"A92:E&\202\250\310\235\011\2541\2607\255\354\013\333"
 444      452682A8 
ARM GAS  /tmp/cchk29Gr.s 			page 34


 444      C89D09AC 
 444      31B037AD 
 444      EC0BDB
 445 043a D2425ED8 		.ascii	"\322B^\330V{3@\213\303\0276\032_B\262\355\014\311\266"
 445      567B3340 
 445      8BC31736 
 445      1A5F42B2 
 445      ED0CC9B6 
 446 044e 633F4FB6 		.ascii	"c?O\266\265\022\230\326\366\2765\321\0375/\324\304\221"
 446      B51298D6 
 446      F6BE35D1 
 446      1F352FD4 
 446      C491
 447 0460 D1BFC8FC 		.ascii	"\321\277\310\374\350\004/\207\027#\335\005#\3042\372"
 447      E8042F87 
 447      1723DD05 
 447      23C432FA 
 448 0470 98CC08A7 		.ascii	"\230\314\010\247Qo(?\2012\361\321\200\024Q\307\317\321"
 448      516F283F 
 448      8132F1D1 
 448      801451C7 
 448      CFD1
 449 0482 5AB7A0AE 		.ascii	"Z\267\240\256\344\216\204XId/hX%\3579-\206\011\242\332"
 449      E48E8458 
 449      49642F68 
 449      5825EF39 
 449      2D8609A2 
 450 0497 8DB62A82 		.ascii	"\215\266*\202\200\305\330\2145\233\345\245l\216)bU\255"
 450      80C5D88C 
 450      359BE5A5 
 450      6C8E2962 
 450      55AD
 451 04a9 D955B23E 		.ascii	"\331U\262>\344~i'\377\357\261\006\333I\203]\264\003"
 451      E47E6927 
 451      FFEFB106 
 451      DB49835D 
 451      B403
 452 04bb D68FD397 		.ascii	"\326\217\323\227T\300\325P\277GB\275\227\204\272\211"
 452      54C0D550 
 452      BF4742BD 
 452      9784BA89 
 453 04cb 94474979 		.ascii	"\224GIy\222\224\237\221\362<\335\005\242p%)\037\325"
 453      92949F91 
 453      F23CDD05 
 453      A2702529 
 453      1FD5
 454 04dd 798BC236 		.ascii	"y\213\3026&8\301\031\272Uo5B\312%\010\374$2\013\002"
 454      2638C119 
 454      BA556F35 
 454      42CA2508 
 454      FC24320B 
 455 04f2 87E3E64D 		.ascii	"\207\343\346M5\224x,\227\321\221\3042\257=\343\322\264"
 455      3594782C 
 455      97D191C4 
 455      32AF3DE3 
 455      D2B4
 456 0504 E8923300 		.ascii	"\350\2223\000f\377\315\336\252\316#\027I7VH?\313\233"
ARM GAS  /tmp/cchk29Gr.s 			page 35


 456      66FFCDDE 
 456      AACE2317 
 456      49375648 
 456      3FCB9B
 457 0517 3D4FB211 		.ascii	"=O\262\021\217\024y\272\362\214\272B\325\274\210\275"
 457      8F1479BA 
 457      F28CBA42 
 457      D5BC88BD 
 458 0527 A1B4B142 		.ascii	"\241\264\261B\215.k\271\025{q\205x\261T\342.&\332\206"
 458      8D2E6BB9 
 458      157B7185 
 458      78B154E2 
 458      2E26DA86 
 459 053b 8175C9A6 		.ascii	"\201u\311\246\373\310Tt\225\000\255i7\320\351\2715\203"
 459      FBC85474 
 459      9500AD69 
 459      37D0E9B9 
 459      3583
 460 054d 09D03502 		.ascii	"\011\3205\002\2641)\256lX\2219\254)\327\252?\243\256"
 460      B43129AE 
 460      6C589139 
 460      AC29D7AA 
 460      3FA3AE
 461 0560 8C3E65D3 		.ascii	"\214>e\323\215\267\230\355b\231n\260\230=\322\242\256"
 461      8DB798ED 
 461      62996EB0 
 461      983DD2A2 
 461      AE
 462 0571 5DF4B1E0 		.ascii	"]\364\261\340m;\275oB4\367~K\315\312\344U\004g\031\253"
 462      6D3BBD6F 
 462      4234F77E 
 462      4BCDCAE4 
 462      55046719 
 463 0586 64E860CF 		.ascii	"d\350`\317\030\201\277\376\372\017\017\220\300\307\311"
 463      1881BFFE 
 463      FA0F0F90 
 463      C0C7C9
 464 0595 E4FAA5C4 		.ascii	"\344\372\245\304\235\\\255apH\246\211\314\344\272\260"
 464      9D5CAD61 
 464      7048A689 
 464      CCE4BAB0 
 465 05a5 954CAEF8 		.ascii	"\225L\256\370y\033\223keEtq\353rcr\255H\371\012\312"
 465      791B936B 
 465      65457471 
 465      EB726372 
 465      AD48F90A 
 466 05ba E87D32DA 		.ascii	"\350}2\332\331y\247\256\022O0\205v\314\226@k\211:\306"
 466      D979A7AE 
 466      124F3085 
 466      76CC9640 
 466      6B893AC6 
 467 05ce 4C177117 		.ascii	"L\027q\027]w\014\226c\002\253\246\301n\330\001\263\032"
 467      5D770C96 
 467      6302ABA6 
 467      C16ED801 
 467      B31A
 468 05e0 B000EC35 		.ascii	"\260\000\3545\032lZ\232S03\263\3454\330\313v\300\254"
ARM GAS  /tmp/cchk29Gr.s 			page 36


 468      1A6C5A9A 
 468      533033B3 
 468      E534D8CB 
 468      76C0AC
 469 05f3 721BC06A 		.ascii	"r\033\300jh\260W\034\203\231\231\325\323`s\355\200u"
 469      68B0571C 
 469      839999D5 
 469      D36073ED 
 469      8075
 470 0605 B766B685 		.ascii	"\267f\266\205\006[\344\030\314\314l\033\015\366\232"
 470      065BE418 
 470      CCCC6C1B 
 470      0DF69A
 471 0614 1DB01C6B 		.ascii	"\035\260\034kfo\323`+\035\203\231\231\355\240\301\352"
 471      666FD360 
 471      2B1D8399 
 471      99EDA0C1 
 471      EA
 472 0625 EC80DD63 		.ascii	"\354\200\335c\315l'\015\266\3161\230\231\331.\032\354"
 472      CD6C270D 
 472      B6CE3198 
 472      99D92E1A 
 472      EC
 473 0636 2D3B60BC 		.ascii	"-;`\274\325\017\001+\217\276\373\327*\331\330D\250\250"
 473      D50F012B 
 473      8FBEFBD7 
 473      2AD9D844 
 473      A8A8
 474 0648 FAE884CC 		.ascii	"\372\350\204\314\251E\253\341\341\326BMF\253\304\256"
 474      A945ABE1 
 474      E1D6424D 
 474      46ABC4AE 
 475 0658 DADD397A 		.ascii	"\332\3359z\256\241\252\242\260\231\345m\206\341\021"
 475      AEA1AAA2 
 475      B099E56D 
 475      86E111
 476 0667 3747E128 		.ascii	"7G\341(\035\205\255v\242\360\2505X3\015\266\303\016"
 476      1D85AD76 
 476      A2F0A835 
 476      58330DB6 
 476      C30E
 477 0679 D870EBCE 		.ascii	"\330p\353\316>A\203\355r\014ffv\222\006\333c\007l\224"
 477      3E4183ED 
 477      720C6666 
 477      769206DB 
 477      63076C94 
 478 068d 35B35334 		.ascii	"5\263S4\330>\307`4\263\362\350GF\346\340\015\243)u\230"
 478      D83EC760 
 478      34B3F2E8 
 478      4746E6E0 
 478      0DA32975 
 479 06a2 4DA3498D 		.ascii	"M\243I\215J\235\244\275\345f\321\351\326\245^\344o]"
 479      4A9DA4BD 
 479      E566D1E9 
 479      D6A55EE4 
 479      6F5D
 480 06b4 E8C588A1 		.ascii	"\350\305\210\241\005n\037b\3356\221\320n\237\344\304"
ARM GAS  /tmp/cchk29Gr.s 			page 37


 480      056E1F62 
 480      DD3691D0 
 480      6E9FE4C4 
 481 06c4 90F7A127 		.ascii	"\220\367\241'l\031U\210xF\255\024\361J\376eR\316\"\345"
 481      6C195588 
 481      7846AD14 
 481      F14AFE65 
 481      52CE22E5 
 482 06d8 6C52CE21 		.ascii	"lR\316!\345<R\316'\345BR.&\345RR.#\345\353\244\\A\312"
 482      E53C52CE 
 482      27E54252 
 482      2E26E552 
 482      522E23E5 
 483 06f1 95A4AC23 		.ascii	"\225\244\254#\345\033\244\\G\312\365\244|\213\224\233"
 483      E51BA45C 
 483      47CAF5A4 
 483      7C8B949B 
 484 0701 441BBB86 		.ascii	"D\033\273\206\233\364\256\341H\232\215u\022o\016\340"
 484      9BF4AEE1 
 484      489A8D75 
 484      126F0EE0 
 485 0711 076113B5 		.ascii	"\007a\023\265_\375\007YVl&\333\231]\244\374\232\224"
 485      5FFD0759 
 485      566C26DB 
 485      995DA4FC 
 485      9A94
 486 0723 17487999 		.ascii	"\027Hy\231\224?\222\362\206\235\315\316z\203\266qLO"
 486      943F92F2 
 486      869DCDCE 
 486      7A83B671 
 486      4C4F
 487 0735 7C389E66 		.ascii	"|8\236f^_\335-\324)\312\202\330\364s\327\244eJ4Mm*\012"
 487      5E5FDD2D 
 487      D429CA82 
 487      D8F473D7 
 487      A4654A34 
 488 074d FF216A6B 		.ascii	"\377!jkQ/\213e\220f@;\324\237\243L\357\202\022\247\372"
 488      512F8B65 
 488      9066403B 
 488      D49FA34C 
 488      EF8212A7 
 489 0762 6BD953FD 		.ascii	"k\331S\375\255\"\357T\377\212\363S\375\035\242\351T"
 489      AD22EF54 
 489      FF8AF353 
 489      FD1DA2E9 
 489      54
 490 0773 5FA591A8 		.ascii	"_\245\221\250h;<\306\341\317\271\016+W\013\207\253\315"
 490      683B3CC6 
 490      E1CFB90E 
 490      2B570B87 
 490      ABCD
 491 0785 65D420E2 		.ascii	"e\324 \342\005\365v1\245\257Z\263\343\376\341\252!\031"
 491      05F57631 
 491      A5AF5AB3 
 491      E3FEE1AA 
 491      2119
 492 0797 7D855237 		.ascii	"}\205R7kL\021\"\334\312\024\242w\270!z\367\200\026\""
ARM GAS  /tmp/cchk29Gr.s 			page 38


 492      6B4C1122 
 492      DCCA14A2 
 492      77B8217A 
 492      F7801622 
 493 07ab F5144D14 		.ascii	"\365\024M\024\276\341;\363-\353\314\356\324\316X\260"
 493      BEE13BF3 
 493      2DEBCCEE 
 493      D4CE58B0 
 494 07bb DACDB28A 		.ascii	"\332\315\262\212\362Y\035r\334q\373Rv\334au\202c:\356"
 494      F2591D72 
 494      DC71FB52 
 494      76DC6175 
 494      82633AEE 
 495 07cf 07       		.ascii	"\007"
 496 07d0 BEAF0BFD 		.ascii	"\276\257\013\375\214\257{mu\3341\334\214\336\257[7\323"
 496      8CAF7B6D 
 496      75DC31DC 
 496      8CDEAF5B 
 496      37D3
 497 07e2 E87043B4 		.ascii	"\350pC\264\227\015\321\001n\210j\232\034\207\350p\312"
 497      970DD101 
 497      6E886A9A 
 497      1C87E870 
 497      CA
 498 07f3 105D5139 		.ascii	"\020]Q9\265\021\262\227\323\271![\314\206\254\311N\310"
 498      B511B297 
 498      D3B9215B 
 498      CC86ACC9 
 498      4EC8
 499 0805 A2FF9CBD 		.ascii	"\242\377\234\275\366\016\345\031}\217^M\260\251\226"
 499      F60EE519 
 499      7D8F5E4D 
 499      B0A996
 500 0814 A66DA7C6 		.ascii	"\246m\247\306Pk\271u\366\032\330Q\211\372aw-\3334U\300"
 500      506BB975 
 500      F61AD851 
 500      89FA6177 
 500      2DDB3455 
 501 0829 A32B6757 		.ascii	"\243+gW\324\"%#\021\362&6\344G\271!\257\376\320q\310"
 501      D4222523 
 501      11F22636 
 501      E447B921 
 501      AFFED071 
 502 083e 4FD90939 		.ascii	"O\331\0119\023\342\265\374\020/eC\334b++O?\335]5$\243"
 502      13E2B5FC 
 502      102F6543 
 502      DC622B2B 
 502      4F3FDD5D 
 503 0855 E36C335E 		.ascii	"\343l3^|-\262\262\205\015Q+7D\337}\310\014';\370\316"
 503      7C2DB2B2 
 503      850D512B 
 503      3744DF7D 
 503      C80C273B 
 504 086b EC669D39 		.ascii	"\354f\2359\333\256\341\344,\313*\306e\325|\204au\222"
 504      DBAEE1E4 
 504      2CCB2AC6 
 504      65D57C84 
ARM GAS  /tmp/cchk29Gr.s 			page 39


 504      617592
 505 087e CFEA18CB 		.ascii	"\317\352\030\313\352\\\273X\235cY}\312e\265\2559\301"
 505      EA5CBB58 
 505      9D63597D 
 505      CA65B5AD 
 505      39C1
 506 0890 0AA7096C 		.ascii	"\012\247\011l\347\371\254\032YV\347mu\374\302\375\035"
 506      E7F9AC1A 
 506      5956E76D 
 506      75FCC2FD 
 506      1D
 507 08a1 FB997BFE 		.ascii	"\373\231{\376|\273z\376<\353\315\027\\o\226\037g\274"
 507      7CBB7AFE 
 507      3CEBCD17 
 507      5C6F961F 
 507      67BC
 508 08b3 599061AF 		.ascii	"Y\220a\257\347/\330\362fq\2227\027\332\345\315\005\326"
 508      E72FD8F2 
 508      66719237 
 508      17DAE5CD 
 508      05D6
 509 08c5 9B8BC9DE 		.ascii	"\233\213\311\336\304\252\360\257o\335\253\267(\225\263"
 509      C4AAF0AF 
 509      6FDDABB7 
 509      2895B3
 510 08d4 949BF1A9 		.ascii	"\224\233\361\251H\375G\202(\3243.\351\030Wx\030\321"
 510      48FD4782 
 510      28D4332E 
 510      E9185778 
 510      18D1
 511 08e6 E64F0EA2 		.ascii	"\346O\016\242\231\332\177\037\364\304k\264@\370\216"
 511      99DA7F1F 
 511      F4C46BB4 
 511      40F88E
 512 08f5 8B708283 		.ascii	"\213p\202\203\320d\201\360=\027\341\244\011\3410\351"
 512      D06481F0 
 512      3D17E1A4 
 512      09E130E9 
 513 0905 98531608 		.ascii	"\230S\026\010\327\270\010\037\233\020\324\256\375\306"
 513      D7B8081F 
 513      9B10D4AE 
 513      FDC6
 514 0913 02E17F5C 		.ascii	"\002\341\177\\\2043\034/^\316\344#\374\304E\270\304"
 514      84331C2F 
 514      5ECEE423 
 514      FCC445B8 
 514      C4
 515 0924 41D86881 		.ascii	"A\330h\201p\223\213p\205\343E\263\005\202\"\361\020"
 515      70938B70 
 515      85E345B3 
 515      058222F1 
 515      10
 516 0935 BEE7207C 		.ascii	"\276\347 |o\2010\315\214\300\374Z\271:\305\257\225\025"
 516      6F8130CD 
 516      8CC0FC5A 
 516      B93AC5AF 
 516      9515
ARM GAS  /tmp/cchk29Gr.s 			page 40


 517 0947 92E917C9 		.ascii	"\222\351\027\311\304\376\254\2723u\316\334=\30513\376"
 517      C4FEACBA 
 517      3375CEDC 
 517      3DC53133 
 517      FE
 518 0958 7B0CCC8A 		.ascii	"{\014\314\212\323%<+\276\356b\376\225cP\304\012\370"
 518      D3253C2B 
 518      BEEE62FE 
 518      956350C4 
 518      0AF8
 519 096a 83DBABF7 		.ascii	"\203\333\253\367\372]\034%\340\273\350\360\242\326\252"
 519      FA5D1C25 
 519      E0BBE8F0 
 519      A2D6AA
 520 0979 52D20F10 		.ascii	"R\322\017\020\022\0337\375\360\241\272\263\332\\k:X"
 520      121B37FD 
 520      F0A1BAB3 
 520      DA5C6B3A 
 520      58
 521 098a 6F9AA935 		.ascii	"o\232\2515\230)9\335A\316\222\370;\310\014\315\211\304"
 521      982939DD 
 521      41CE92F8 
 521      3BC80CCD 
 521      89C4
 522 099c EF19D114 		.ascii	"\357\031\321\024\207\251\037\330<L\305\275\034\275\024"
 522      87A91FD8 
 522      3C4CC5BD 
 522      1CBD14
 523 09ab 9B5FF7EF 		.ascii	"\233_\367\357\2276nQ\024\362\336\227W&\336\374\235."
 523      97366E51 
 523      14F2DE97 
 523      5726DEFC 
 523      9D2E
 524 09bd B6A7797F 		.ascii	"\266\247y\1776\232-1\203\313\253\311\251\004F\226\257"
 524      369A2D31 
 524      83CBABC9 
 524      A9044696 
 524      AF
 525 09ce BDFC37D8 		.ascii	"\275\3747\330\011U*\361\370\324\336\272\205\230-\013"
 525      09552AF1 
 525      F8D4DEBA 
 525      85982D0B 
 526 09de 73590BF3 		.ascii	"sY\013\363\270\026\266\255;\366\032\232_\241\034T.\201"
 526      B816B6AD 
 526      3BF61A9A 
 526      5FA11C54 
 526      2E81
 527 09f0 77B52EDD 		.ascii	"w\265.\335\310\202,;F\346\263F\026p\215\\\337py\370"
 527      C8822C3B 
 527      46E6B346 
 527      16708D5C 
 527      DF7079F8 
 528 0a04 752356BD 		.ascii	"u#V\275\355\257\212\026K\314\252h\037\031\327M\253\240"
 528      EDAF8A16 
 528      4BCCAA68 
 528      1F19D74D 
 528      ABA0
ARM GAS  /tmp/cchk29Gr.s 			page 41


 529 0a16 8326AADA 		.ascii	"\203&\252\332\277xNfi\011\255O\330\260\301C\372o\014"
 529      BF784E66 
 529      6909AD4F 
 529      D8B0C143 
 529      FA6F0C
 530 0a29 9F92168B 		.ascii	"\237\222\026\213$\253\351d\237iZ\370\266|T\367\204\307"
 530      24ABE964 
 530      9F695AF8 
 530      B67C54F7 
 530      84C7
 531 0a3b 8B588F97 		.ascii	"\213X\217\227r=\236_w\371\357\274\354\370\312VXW\260"
 531      723D9E5F 
 531      77F9EFBC 
 531      ECF8CA56 
 531      5857B0
 532 0a4e 466A2CB2 		.ascii	"Fj,\262\343XQRv\\\263e\241\226\265\260\312*;V\360\262"
 532      E3585152 
 532      765CB365 
 532      A196B5B0 
 532      CA2A3B56 
 533 0a64 A3B2831D 		.ascii	"\243\262\203\035#u\254\2215f#\277\024V)G\217\306>\373"
 533      2375AC91 
 533      356623BF 
 533      14562947 
 533      8FC63EFB 
 534 0a78 6F359A19 		.ascii	"o5\232\031\203\341\350f<\216\214A\"1\214E-\177.\223"
 534      83E1E866 
 534      3C8E8C41 
 534      22318C45 
 534      2D7F2E93 
 535 0a8c D10CA98F 		.ascii	"\321\014\251\217\335!j\270\336R\325\265\030\215\030"
 535      DD216AB8 
 535      DE52D5B5 
 535      188D18
 536 0a9b 2D585A38 		.ascii	"-XZ8\036\2156X\214F.S,t-\210f\025\211&\265ygH\210\302"
 536      1E8D3658 
 536      8C462E53 
 536      2C742D88 
 536      66158926 
 537 0ab5 B20EFADF 		.ascii	"\262\016\372\337\340\360\215\032\267h\363\001\305U\257"
 537      E0F08D1A 
 537      B768F301 
 537      C555AF
 538 0ac4 CCC4BD4F 		.ascii	"\314\304\275O\215\3762zSj\363\020\217q:\371\020\317"
 538      8DFE327A 
 538      536AF310 
 538      8F713AF9 
 538      10CF
 539 0ad6 B1D3F516 		.ascii	"\261\323\365\026Ng\232\234\326\265\340\366-\2119\033"
 539      4E679A9C 
 539      D6B5E0F6 
 539      2D89391B 
 540 0ae6 604888C2 		.ascii	"`H\210\302:\256\323\207X\247s\030\237\255\316\274\031"
 540      3AAED387 
 540      58A77318 
 540      9FADCEBC 
 540      19
ARM GAS  /tmp/cchk29Gr.s 			page 42


 541 0af7 9F93CFBC 		.ascii	"\237\223\317\274\2679v\272\301\302i\372_`\206V\302i"
 541      B73976BA 
 541      C1C269FA 
 541      5F608656 
 541      C269
 542 0b09 6AB7CFB2 		.ascii	"j\267\317\262\020\205\006\223\327\314\202\000/\313\254"
 542      10850693 
 542      D7CC8200 
 542      2FCBAC
 543 0b18 C86C9712 		.ascii	"\310l\227\022\307lZ\254\336nj+V3\023\346\273\246\212"
 543      C76C5AAC 
 543      DE6E6A2B 
 543      563313E6 
 543      BBA68A
 544 0b2b 15AB26A3 		.ascii	"\025\253&\243\235\216c\365\216E\254\272\230b\365\016"
 544      9D8E63F5 
 544      8E45ACBA 
 544      9862F50E 
 545 0b3b 1B2B6AA3 		.ascii	"\033+j\243\316\262\020\205\275\251bu*E\254\032\223b"
 545      CEB21085 
 545      BDA96275 
 545      2A45AC1A 
 545      9362
 546 0b4d B5FCC3B6 		.ascii	"\265\374\303\266bU\2250\337-U\254X5\031E\035\307j\217"
 546      62559530 
 546      DF2D55AC 
 546      58351945 
 546      1DC76A8F 
 547 0b61 45ACBA9A 		.ascii	"E\254\272\232b\265\207\215\025\265_gY\210\3021\336\333"
 547      62B5878D 
 547      15B55F67 
 547      5988C231 
 547      DEDB
 548 0b73 74AD4DAF 		.ascii	"t\255M\257/%\200\356J\3455\253&\243\367\035{\275\337"
 548      2F2580EE 
 548      4AE535AB 
 548      26A3F71D 
 548      7BBDDF
 549 0b86 C2EB9E26 		.ascii	"\302\353\236&\257\367\263^S\347\001,\013Q8\313\363\372"
 549      AFF7B35E 
 549      53E7012C 
 549      0B5138CB 
 549      F3FA
 550 0b98 E491B6BC 		.ascii	"\344\221\266\274\276\226\000\352\225\312kVMF\207\034"
 550      BE9600EA 
 550      95CA6B56 
 550      4D46871C 
 551 0ba8 7BDD64E1 		.ascii	"{\335d\341\365]&\257\233X\257\251\363\006\226\205(\\"
 551      F55D26AF 
 551      9B58AFA9 
 551      F3069685 
 551      285C
 552 0bba E479BDA3 		.ascii	"\344y\275\243\271-\257\277@\346\220[x\315\252\311\350"
 552      B92DAFBF 
 552      40E6905B 
 552      78CDAAC9 
 552      E8
ARM GAS  /tmp/cchk29Gr.s 			page 43


 553 0bcb 8863AF8F 		.ascii	"\210c\257\217Zx\335\303\344\365Q\326k\352\\\202e!\012"
 553      5A78DDC3 
 553      E4F551D6 
 553      6BEA5C82 
 553      65210A
 554 0bde 3FF2BCAE 		.ascii	"?\362\274\256?\236\360\032\326u\300S\207\272\220*mf"
 554      3F9EF01A 
 554      D675C053 
 554      87BA902A 
 554      6D66
 555 0bf0 75A4A184 		.ascii	"u\244\241\204\356}\373\346\026\207s\213\344`n\270\324"
 555      EE7DFBE6 
 555      1687738B 
 555      E4606EB8 
 555      D4
 556 0c01 87AFDE92 		.ascii	"\207\257\336\222\311\023\373\372\204L\270\344\205\002"
 556      C913FBFA 
 556      844CB8E4 
 556      8502
 557 0c0f 918CC746 		.ascii	"\221\214\307F\216\311q\013=\014\275@\310\027,+\364'"
 557      8EC9710B 
 557      3D0CBD40 
 557      C8172C2B 
 557      F427
 558 0c21 748B84AC 		.ascii	"t\213\204\254Qc\363\207\226\006&\371K\373\032j%\305"
 558      5163F387 
 558      960626F9 
 558      4BFB1A6A 
 558      25C5
 559 0c33 A591706E 		.ascii	"\245\221pn\301\350\374\201\003rG\214\030\232;:/\177"
 559      C1E8FC81 
 559      0372478C 
 559      189A3B3A 
 559      2F7F
 560 0c45 527FBD91 		.ascii	"R\177\275\2217\030,\204\206\035\3406\034\221#~o\244"
 560      37182C84 
 560      861DE036 
 560      1C91237E 
 560      6FA4
 561 0c57 036078C7 		.ascii	"\003`x\307\214\314\033\2317\332\205o\013F?1\012\343"
 561      8CCC1B99 
 561      37DA856F 
 561      0B463F31 
 561      0AE3
 562 0c69 7A3DC386 		.ascii	"z=\303\206\014\375K:\321\352\231[\026.M\330\017\371"
 562      0CFD4B3A 
 562      D1EA995B 
 562      162E4DD8 
 562      0FF9
 563 0c7b 270703E3 		.ascii	"'\007\003\343r\303\221\302@(\002`\2562\270\016\034\340"
 563      72C391C2 
 563      40280260 
 563      AE32B80E 
 563      1CE0
 564 0c8d 8DFC8EA7 		.ascii	"\215\374\216\2476Q\366\025\005B\376\\o\241\177\274\\"
 564      3651F615 
 564      0542FE5C 
ARM GAS  /tmp/cchk29Gr.s 			page 44


 564      6FA17FBC 
 564      5C
 565 0c9e 168C7823 		.ascii	"\026\214x#SJ\374a\314\301\353\325\033f\215/\365?_\346"
 565      534AFC61 
 565      CCC1EBD5 
 565      1B668D2F 
 565      F53F5FE6 
 566 0cb2 0FF9A6B8 		.ascii	"\017\371\246\270\200\230/\004J\031%\376\322@qa'\\\227"
 566      80982F04 
 566      4A1925FE 
 566      D2407161 
 566      275C97
 567 0cc5 83C171B2 		.ascii	"\203\301q\262\3579o\304\245\337v\001\202\356\"9\024"
 567      EF396FC4 
 567      A5DF7601 
 567      82EE2239 
 567      14
 568 0cd6 F207DDC5 		.ascii	"\362\007\335\305\241\361\201\011Y\2407\261\270\020\374"
 568      A1F18109 
 568      59A037B1 
 568      B810FC
 569 0ce5 49C31797 		.ascii	"I\303\027\227O\3752,\371J\007\244\025\006\374\245\330"
 569      4FFD322C 
 569      F94A07A4 
 569      1506FCA5 
 569      D8
 570 0cf6 255535C3 		.ascii	"%U5\303G.\0351rQhb\030p3\375!y\\\320_\230M\236\221\226"
 570      472E1D31 
 570      72516862 
 570      187033FD 
 570      21795CD0 
 571 0d10 F010B31B 		.ascii	"\360\020\263\033\014\344T\236p\227\356\013\026\373\236"
 571      0CE4549E 
 571      7097EE0B 
 571      16FB9E
 572 0d1f FB6D5BA1 		.ascii	"\373m[\241\016G&b\247\002\270\207:&*\336\210\344\366"
 572      0E472662 
 572      A702B887 
 572      3A262ADE 
 572      88E4F6
 573 0d32 F4071990 		.ascii	"\364\007\031\220V\220\357\366\244\015\315\033\346\021"
 573      5690EFF6 
 573      A40DCD1B 
 573      E611
 574 0d40 0B3CD2B0 		.ascii	"\013<\322\260\307<\351nw\276\247?)\007\244\271\335\303"
 574      C73CE96E 
 574      77BEA73F 
 574      2907A4B9 
 574      DDC3
 575 0d52 3C927BE4 		.ascii	"<\222{\344hiT\201[\032\342\361H\0367\324\241\301\237"
 575      68695481 
 575      5B1AE2F1 
 575      481E37D4 
 575      A1C19F
 576 0d65 868EF648 		.ascii	"\206\216\366HCq\313\374!\036\361\011\265\325@\320\177"
 576      4371CBFC 
 576      211EF109 
ARM GAS  /tmp/cchk29Gr.s 			page 45


 576      B5D540D0 
 576      7F
 577 0d76 D223013E 		.ascii	"\322#\001>\216\324\023\343\236\365\373\"8{\322\240V"
 577      8ED413E3 
 577      9EF5FB22 
 577      387BD2A0 
 577      56
 578 0d87 82835910 		.ascii	"\202\203Y\020\221K#\231\344\246\270\344\026\270\342"
 578      914B2399 
 578      E4A6B8E4 
 578      16B8E2
 579 0d96 B04DF08F 		.ascii	"\260M\360\217\"\321\355\002\365a\304u-\230\231\232\367"
 579      22D1ED02 
 579      F561C475 
 579      2D98999A 
 579      F7
 580 0da7 E9930385 		.ascii	"\351\223\003\205\221\242\256\360\365\320@\230\372\276"
 580      91A2AEF0 
 580      F5D04098 
 580      FABE
 581 0db5 67A2810A 		.ascii	"g\242\201\012\020\360\215,\216\004\306\007|r$P\034\272"
 581      10F08D2C 
 581      8E04C607 
 581      7C722450 
 581      1CBA
 582 0dc7 CBD0E77D 		.ascii	"\313\320\347}\335\203\265F\177\3313\311\026\375m\266"
 582      DD83B546 
 582      7FD933C9 
 582      16FD6DB6 
 583 0dd7 96BADE00 		.ascii	"\226\272\336\000\370\326I\257\204\261o\331F\255\270"
 583      F8D649AF 
 583      84B16FD9 
 583      46ADB8
 584 0de6 E476BDA2 		.ascii	"\344v\275\242v\250Ws\347\016\375q\241jA\177~7\243^\242"
 584      76A85773 
 584      E70EFD71 
 584      A16A417F 
 584      7E37A35E 
 585 0dfb B1F68628 		.ascii	"\261\366\206(\333}\330\306\\\255_\361-\233t\356\266"
 585      DB7DD8C6 
 585      5CAD5FF1 
 585      2D9B74EE 
 585      B6
 586 0e0c A061524A 		.ascii	"\240aRJ\203\207\245w\0329V\034\206\2424B\2568\241\360"
 586      8387A577 
 586      1A39561C 
 586      86A23442 
 586      AE38A1F0 
 587 0e20 B5604A78 		.ascii	"\265`Jx\004d\242\246\005_\352\357\234\257(<\005\277"
 587      0464A2A6 
 587      055FEAEF 
 587      9CAF283C 
 587      05BF
 588 0e32 5B59BE22 		.ascii	"[Y\276\"M\3477\252\216\257\030^\217\220\226\260C<\371"
 588      4DE737AA 
 588      8EAF185E 
 588      8F9096B0 
ARM GAS  /tmp/cchk29Gr.s 			page 46


 588      433CF9
 589 0e45 EEFC1740 		.ascii	"\356\374\027@\331W\\\352\367Nz\220\014%\370+/\316\357"
 589      D9575CEA 
 589      F74E7A90 
 589      0C25F82B 
 589      2FCEEF
 590 0e58 FB4C2DFC 		.ascii	"\373L-\374/Dr\335\371\005y\005\206\215\211\341@\330"
 590      2F4472DD 
 590      F9057905 
 590      868D89E1 
 590      40D8
 591 0e6a 3BC1E783 		.ascii	";\301\347\203V\235\274\336\260?\342\375\323\220\202"
 591      569DBCDE 
 591      B03FE2FD 
 591      D39082
 592 0e79 61A33C79 		.ascii	"a\243<y\235\344\340dyJ\030:)\010o|\372$9X\346\357\244"
 592      9DE4E064 
 592      794A183A 
 592      29086F7C 
 592      FA243958 
 593 0e90 F11D13C2 		.ascii	"\361\035\023\302\330\035\011/\355\236X,#\367.\257w|"
 593      D81D092F 
 593      ED9E582C 
 593      23F72EAF 
 593      777C
 594 0ea2 59C8E7F5 		.ascii	"Y\310\347\365v\322o\372>p\377C\375L\265A\246\332CT\355"
 594      76D26FFA 
 594      3E70FF43 
 594      FD4CB541 
 594      A6DA4354 
 595 0eb7 817EF7D3 		.ascii	"\201~\367\323\265\376\375L\265A\246\332`\2726`\240\251"
 595      B5FEFD4C 
 595      B541A6DA 
 595      60BA3660 
 595      A0A9
 596 0ec9 36F8FF75 		.ascii	"6\370\377u\343Wm"
 596      E3576D
 597              		.text
 598              		.section	.gnu.lto_.symtab.e01dc43e7e206e48,"",%progbits
 599 0000 70776D49 		.ascii	"pwmInit\000\000\000\000\000\000\000\000\000\000\000"
 599      6E697400 
 599      00000000 
 599      00000000 
 599      0000
 600 0012 00A10000 		.ascii	"\000\241\000\000\000pwmObjectInit\000\000\000\000\000"
 600      0070776D 
 600      4F626A65 
 600      6374496E 
 600      69740000 
 601 0029 00000000 		.ascii	"\000\000\000\000\000\000\000\246\000\000\000pwmStar"
 601      000000A6 
 601      00000070 
 601      776D5374 
 601      6172
 602 003b 74000000 		.ascii	"t\000\000\000\000\000\000\000\000\000\000\000\0007\001"
 602      00000000 
 602      00000000 
ARM GAS  /tmp/cchk29Gr.s 			page 47


 602      003701
 603 004a 00007077 		.ascii	"\000\000pwmStop\000\000\000\000\000\000\000\000\000"
 603      6D53746F 
 603      70000000 
 603      00000000 
 603      0000
 604 005c 0000003F 		.ascii	"\000\000\000?\001\000\000pwmChangePeriod\000\000\000"
 604      01000070 
 604      776D4368 
 604      616E6765 
 604      50657269 
 605 0075 00000000 		.ascii	"\000\000\000\000\000\000\000\000\000C\001\000\000pw"
 605      00000000 
 605      00430100 
 605      007077
 606 0084 6D456E61 		.ascii	"mEnableChannel\000\000\000\000\000\000\000\000\000\000"
 606      626C6543 
 606      68616E6E 
 606      656C0000 
 606      00000000 
 607 009c 00004B01 		.ascii	"\000\000K\001\000\000pwmDisableChannel\000\000\000\000"
 607      00007077 
 607      6D446973 
 607      61626C65 
 607      4368616E 
 608 00b7 00000000 		.ascii	"\000\000\000\000\000\000\000\000W\001\000\000pwmEna"
 608      00000000 
 608      57010000 
 608      70776D45 
 608      6E61
 609 00c9 626C6550 		.ascii	"blePeriodicNotification\000\000\000\000\000\000\000"
 609      6572696F 
 609      6469634E 
 609      6F746966 
 609      69636174 
 610 00e7 00000000 		.ascii	"\000\000\000\000\000_\001\000\000pwmDisablePeriodic"
 610      005F0100 
 610      0070776D 
 610      44697361 
 610      626C6550 
 611 0102 4E6F7469 		.ascii	"Notification\000\000\000\000\000\000\000\000\000\000"
 611      66696361 
 611      74696F6E 
 611      00000000 
 611      00000000 
 612 0118 00006301 		.ascii	"\000\000c\001\000\000pwmEnableChannelNotification\000"
 612      00007077 
 612      6D456E61 
 612      626C6543 
 612      68616E6E 
 613 013b 00000000 		.ascii	"\000\000\000\000\000\000\000\000\000\000\000g\001\000"
 613      00000000 
 613      00000067 
 613      0100
 614 0149 0070776D 		.ascii	"\000pwmDisableChannelNotification\000\000\000\000\000"
 614      44697361 
 614      626C6543 
ARM GAS  /tmp/cchk29Gr.s 			page 48


 614      68616E6E 
 614      656C4E6F 
 615 016c 00000000 		.ascii	"\000\000\000\000\000\000\000l\001\000\000pwm_lld_in"
 615      0000006C 
 615      01000070 
 615      776D5F6C 
 615      6C645F69 
 616 0181 69740000 		.ascii	"it\000\000\002\000\000\000\000\000\000\000\000\000q"
 616      02000000 
 616      00000000 
 616      000071
 617 0190 01000070 		.ascii	"\001\000\000pwm_lld_start\000\000\002\000\000\000\000"
 617      776D5F6C 
 617      6C645F73 
 617      74617274 
 617      00000200 
 618 01a7 00000000 		.ascii	"\000\000\000\000\000s\001\000\000pwm_lld_stop\000\000"
 618      00730100 
 618      0070776D 
 618      5F6C6C64 
 618      5F73746F 
 619 01be 02000000 		.ascii	"\002\000\000\000\000\000\000\000\000\000u\001\000\000"
 619      00000000 
 619      00007501 
 619      0000
 620 01cc 70776D5F 		.ascii	"pwm_lld_enable_channel\000\000\002\000\000\000\000\000"
 620      6C6C645F 
 620      656E6162 
 620      6C655F63 
 620      68616E6E 
 621 01ea 00000000 		.ascii	"\000\000\000\000w\001\000\000pwm_lld_disable_channe"
 621      77010000 
 621      70776D5F 
 621      6C6C645F 
 621      64697361 
 622 0208 6C000002 		.ascii	"l\000\000\002\000\000\000\000\000\000\000\000\000y\001"
 622      00000000 
 622      00000000 
 622      007901
 623 0217 00007077 		.ascii	"\000\000pwm_lld_enable_periodic_notification\000\000"
 623      6D5F6C6C 
 623      645F656E 
 623      61626C65 
 623      5F706572 
 624 023f 02000000 		.ascii	"\002\000\000\000\000\000\000\000\000\000{\001\000\000"
 624      00000000 
 624      00007B01 
 624      0000
 625 024d 70776D5F 		.ascii	"pwm_lld_disable_periodic_notification\000\000\002\000"
 625      6C6C645F 
 625      64697361 
 625      626C655F 
 625      70657269 
 626 0276 00000000 		.ascii	"\000\000\000\000\000\000\000\000}\001\000\000pwm_ll"
 626      00000000 
 626      7D010000 
 626      70776D5F 
ARM GAS  /tmp/cchk29Gr.s 			page 49


 626      6C6C
 627 0288 645F656E 		.ascii	"d_enable_channel_notification\000\000\002\000\000\000"
 627      61626C65 
 627      5F636861 
 627      6E6E656C 
 627      5F6E6F74 
 628 02ab 00000000 		.ascii	"\000\000\000\000\000\000\177\001\000\000pwm_lld_dis"
 628      00007F01 
 628      00007077 
 628      6D5F6C6C 
 628      645F6469 
 629 02c0 61626C65 		.ascii	"able_channel_notification\000\000\002\000\000\000\000"
 629      5F636861 
 629      6E6E656C 
 629      5F6E6F74 
 629      69666963 
 630 02e0 00000000 		.ascii	"\000\000\000\000\000\201\001\000\000"
 630      00810100 
 630      00
 631              		.text
 632              		.section	.gnu.lto_.opts,"",%progbits
 633 0000 272D6D63 		.ascii	"'-mcpu=cortex-m3' '-mno-thumb-interwork' '-mthumb' "
 633      70753D63 
 633      6F727465 
 633      782D6D33 
 633      2720272D 
 634 0033 272D6767 		.ascii	"'-ggdb' '-O2' '-fomit-frame-pointer' '-falign-funct"
 634      64622720 
 634      272D4F32 
 634      2720272D 
 634      666F6D69 
 635 0066 696F6E73 		.ascii	"ions=16' '-ffunction-sections' '-fdata-sections' '-"
 635      3D313627 
 635      20272D66 
 635      66756E63 
 635      74696F6E 
 636 0099 666E6F2D 		.ascii	"fno-common' '-flto'\000"
 636      636F6D6D 
 636      6F6E2720 
 636      272D666C 
 636      746F2700 
 637              		.text
 638              		.cfi_sections	.debug_frame
 639              		.section	.text.pwmInit,"ax",%progbits
 640              		.align	2
 641              		.p2align 4,,15
 642              		.global	pwmInit
 643              		.thumb
 644              		.thumb_func
 645              		.type	pwmInit, %function
 646              	pwmInit:
 647              	.LFB219:
 648              		.file 1 "../os/hal/src/hal_pwm.c"
 649              		.loc 1 56 0
 650              		.cfi_startproc
 651              		@ args = 0, pretend = 0, frame = 0
 652              		@ frame_needed = 0, uses_anonymous_args = 0
ARM GAS  /tmp/cchk29Gr.s 			page 50


 653              		@ link register save eliminated.
 654              		.loc 1 58 0
 655 0000 FFF7FEBF 		b	pwm_lld_init
 656              	.LVL0:
 657              		.cfi_endproc
 658              	.LFE219:
 659              		.size	pwmInit, .-pwmInit
 660 0004 AFF30080 		.section	.text.pwmObjectInit,"ax",%progbits
 660      AFF30080 
 660      AFF30080 
 661              		.align	2
 662              		.p2align 4,,15
 663              		.global	pwmObjectInit
 664              		.thumb
 665              		.thumb_func
 666              		.type	pwmObjectInit, %function
 667              	pwmObjectInit:
 668              	.LFB220:
 669              		.loc 1 68 0
 670              		.cfi_startproc
 671              		@ args = 0, pretend = 0, frame = 0
 672              		@ frame_needed = 0, uses_anonymous_args = 0
 673              		@ link register save eliminated.
 674              	.LVL1:
 675              		.loc 1 71 0
 676 0000 0023     		movs	r3, #0
 677              		.loc 1 70 0
 678 0002 0122     		movs	r2, #1
 679 0004 0270     		strb	r2, [r0]
 680              		.loc 1 71 0
 681 0006 4360     		str	r3, [r0, #4]
 682              		.loc 1 72 0
 683 0008 C360     		str	r3, [r0, #12]
 684              		.loc 1 73 0
 685 000a 0374     		strb	r3, [r0, #16]
 686 000c 7047     		bx	lr
 687              		.cfi_endproc
 688              	.LFE220:
 689              		.size	pwmObjectInit, .-pwmObjectInit
 690 000e 00BF     		.section	.text.pwmStart,"ax",%progbits
 691              		.align	2
 692              		.p2align 4,,15
 693              		.global	pwmStart
 694              		.thumb
 695              		.thumb_func
 696              		.type	pwmStart, %function
 697              	pwmStart:
 698              	.LFB221:
 699              		.loc 1 89 0
 700              		.cfi_startproc
 701              		@ args = 0, pretend = 0, frame = 0
 702              		@ frame_needed = 0, uses_anonymous_args = 0
 703              	.LVL2:
 704 0000 10B5     		push	{r4, lr}
 705              		.cfi_def_cfa_offset 8
 706              		.cfi_offset 4, -8
 707              		.cfi_offset 14, -4
ARM GAS  /tmp/cchk29Gr.s 			page 51


 708              	.LBB141:
 709              	.LBB142:
 710              	.LBB143:
 711              	.LBB144:
 712              	.LBB145:
 713              		.file 2 "../os/common/ext/CMSIS/include/cmsis_gcc.h"
 714              		.loc 2 264 0
 715 0002 2023     		movs	r3, #32
 716              	.LBE145:
 717              	.LBE144:
 718              	.LBE143:
 719              	.LBE142:
 720              	.LBE141:
 721              		.loc 1 89 0
 722 0004 0446     		mov	r4, r0
 723              	.LBB150:
 724              	.LBB149:
 725              	.LBB148:
 726              	.LBB147:
 727              	.LBB146:
 728              		.loc 2 264 0
 729              	@ 264 "../os/common/ext/CMSIS/include/cmsis_gcc.h" 1
 730 0006 83F31188 		MSR basepri, r3
 731              	@ 0 "" 2
 732              		.thumb
 733              	.LBE146:
 734              	.LBE147:
 735              	.LBE148:
 736              	.LBE149:
 737              	.LBE150:
 738              		.loc 1 97 0
 739 000a 4B68     		ldr	r3, [r1, #4]
 740              		.loc 1 96 0
 741 000c 4160     		str	r1, [r0, #4]
 742              		.loc 1 97 0
 743 000e 8360     		str	r3, [r0, #8]
 744              		.loc 1 98 0
 745 0010 FFF7FEFF 		bl	pwm_lld_start
 746              	.LVL3:
 747              		.loc 1 100 0
 748 0014 0222     		movs	r2, #2
 749              		.loc 1 99 0
 750 0016 0023     		movs	r3, #0
 751              		.loc 1 100 0
 752 0018 2270     		strb	r2, [r4]
 753              	.LVL4:
 754              		.loc 1 99 0
 755 001a E360     		str	r3, [r4, #12]
 756              	.LBB151:
 757              	.LBB152:
 758              	.LBB153:
 759              	.LBB154:
 760              	.LBB155:
 761              	.LBB156:
 762              		.loc 2 264 0
 763              	@ 264 "../os/common/ext/CMSIS/include/cmsis_gcc.h" 1
 764 001c 83F31188 		MSR basepri, r3
ARM GAS  /tmp/cchk29Gr.s 			page 52


 765              	@ 0 "" 2
 766              		.thumb
 767 0020 10BD     		pop	{r4, pc}
 768              	.LBE156:
 769              	.LBE155:
 770              	.LBE154:
 771              	.LBE153:
 772              	.LBE152:
 773              	.LBE151:
 774              		.cfi_endproc
 775              	.LFE221:
 776              		.size	pwmStart, .-pwmStart
 777 0022 00BFAFF3 		.section	.text.pwmStop,"ax",%progbits
 777      0080AFF3 
 777      0080AFF3 
 777      0080
 778              		.align	2
 779              		.p2align 4,,15
 780              		.global	pwmStop
 781              		.thumb
 782              		.thumb_func
 783              		.type	pwmStop, %function
 784              	pwmStop:
 785              	.LFB222:
 786              		.loc 1 111 0
 787              		.cfi_startproc
 788              		@ args = 0, pretend = 0, frame = 0
 789              		@ frame_needed = 0, uses_anonymous_args = 0
 790              	.LVL5:
 791 0000 10B5     		push	{r4, lr}
 792              		.cfi_def_cfa_offset 8
 793              		.cfi_offset 4, -8
 794              		.cfi_offset 14, -4
 795              	.LBB157:
 796              	.LBB158:
 797              	.LBB159:
 798              	.LBB160:
 799              	.LBB161:
 800              		.loc 2 264 0
 801 0002 2023     		movs	r3, #32
 802              	.LBE161:
 803              	.LBE160:
 804              	.LBE159:
 805              	.LBE158:
 806              	.LBE157:
 807              		.loc 1 111 0
 808 0004 0446     		mov	r4, r0
 809              	.LBB166:
 810              	.LBB165:
 811              	.LBB164:
 812              	.LBB163:
 813              	.LBB162:
 814              		.loc 2 264 0
 815              	@ 264 "../os/common/ext/CMSIS/include/cmsis_gcc.h" 1
 816 0006 83F31188 		MSR basepri, r3
 817              	@ 0 "" 2
 818              		.thumb
ARM GAS  /tmp/cchk29Gr.s 			page 53


 819              	.LBE162:
 820              	.LBE163:
 821              	.LBE164:
 822              	.LBE165:
 823              	.LBE166:
 824              		.loc 1 120 0
 825 000a FFF7FEFF 		bl	pwm_lld_stop
 826              	.LVL6:
 827              		.loc 1 121 0
 828 000e 0023     		movs	r3, #0
 829              		.loc 1 123 0
 830 0010 0122     		movs	r2, #1
 831 0012 2270     		strb	r2, [r4]
 832              	.LVL7:
 833              		.loc 1 121 0
 834 0014 E360     		str	r3, [r4, #12]
 835              		.loc 1 122 0
 836 0016 6360     		str	r3, [r4, #4]
 837              	.LBB167:
 838              	.LBB168:
 839              	.LBB169:
 840              	.LBB170:
 841              	.LBB171:
 842              	.LBB172:
 843              		.loc 2 264 0
 844              	@ 264 "../os/common/ext/CMSIS/include/cmsis_gcc.h" 1
 845 0018 83F31188 		MSR basepri, r3
 846              	@ 0 "" 2
 847              		.thumb
 848 001c 10BD     		pop	{r4, pc}
 849              	.LBE172:
 850              	.LBE171:
 851              	.LBE170:
 852              	.LBE169:
 853              	.LBE168:
 854              	.LBE167:
 855              		.cfi_endproc
 856              	.LFE222:
 857              		.size	pwmStop, .-pwmStop
 858 001e 00BF     		.section	.text.pwmChangePeriod,"ax",%progbits
 859              		.align	2
 860              		.p2align 4,,15
 861              		.global	pwmChangePeriod
 862              		.thumb
 863              		.thumb_func
 864              		.type	pwmChangePeriod, %function
 865              	pwmChangePeriod:
 866              	.LFB223:
 867              		.loc 1 143 0
 868              		.cfi_startproc
 869              		@ args = 0, pretend = 0, frame = 0
 870              		@ frame_needed = 0, uses_anonymous_args = 0
 871              		@ link register save eliminated.
 872              	.LVL8:
 873 0000 10B4     		push	{r4}
 874              		.cfi_def_cfa_offset 4
 875              		.cfi_offset 4, -4
ARM GAS  /tmp/cchk29Gr.s 			page 54


 876              	.LBB173:
 877              	.LBB174:
 878              	.LBB175:
 879              	.LBB176:
 880              	.LBB177:
 881              		.loc 2 264 0
 882 0002 2023     		movs	r3, #32
 883              	@ 264 "../os/common/ext/CMSIS/include/cmsis_gcc.h" 1
 884 0004 83F31188 		MSR basepri, r3
 885              	@ 0 "" 2
 886              		.thumb
 887              	.LBE177:
 888              	.LBE176:
 889              	.LBE175:
 890              	.LBE174:
 891              	.LBE173:
 892              		.loc 1 149 0
 893 0008 8269     		ldr	r2, [r0, #24]
 894 000a 4C1E     		subs	r4, r1, #1
 895 000c 8160     		str	r1, [r0, #8]
 896              	.LBB178:
 897              	.LBB179:
 898              	.LBB180:
 899              	.LBB181:
 900              	.LBB182:
 901              	.LBB183:
 902              		.loc 2 264 0
 903 000e 0023     		movs	r3, #0
 904              	.LBE183:
 905              	.LBE182:
 906              	.LBE181:
 907              	.LBE180:
 908              	.LBE179:
 909              	.LBE178:
 910              		.loc 1 149 0
 911 0010 D462     		str	r4, [r2, #44]
 912              	.LVL9:
 913              	.LBB189:
 914              	.LBB188:
 915              	.LBB187:
 916              	.LBB186:
 917              	.LBB185:
 918              	.LBB184:
 919              		.loc 2 264 0
 920              	@ 264 "../os/common/ext/CMSIS/include/cmsis_gcc.h" 1
 921 0012 83F31188 		MSR basepri, r3
 922              	@ 0 "" 2
 923              		.thumb
 924              	.LBE184:
 925              	.LBE185:
 926              	.LBE186:
 927              	.LBE187:
 928              	.LBE188:
 929              	.LBE189:
 930              		.loc 1 151 0
 931 0016 5DF8044B 		ldr	r4, [sp], #4
 932 001a 7047     		bx	lr
ARM GAS  /tmp/cchk29Gr.s 			page 55


 933              		.cfi_endproc
 934              	.LFE223:
 935              		.size	pwmChangePeriod, .-pwmChangePeriod
 936 001c AFF30080 		.section	.text.pwmEnableChannel,"ax",%progbits
 937              		.align	2
 938              		.p2align 4,,15
 939              		.global	pwmEnableChannel
 940              		.thumb
 941              		.thumb_func
 942              		.type	pwmEnableChannel, %function
 943              	pwmEnableChannel:
 944              	.LFB224:
 945              		.loc 1 169 0
 946              		.cfi_startproc
 947              		@ args = 0, pretend = 0, frame = 0
 948              		@ frame_needed = 0, uses_anonymous_args = 0
 949              	.LVL10:
 950 0000 10B5     		push	{r4, lr}
 951              		.cfi_def_cfa_offset 8
 952              		.cfi_offset 4, -8
 953              		.cfi_offset 14, -4
 954              	.LBB190:
 955              	.LBB191:
 956              	.LBB192:
 957              	.LBB193:
 958              	.LBB194:
 959              		.loc 2 264 0
 960 0002 2023     		movs	r3, #32
 961              	@ 264 "../os/common/ext/CMSIS/include/cmsis_gcc.h" 1
 962 0004 83F31188 		MSR basepri, r3
 963              	@ 0 "" 2
 964              		.thumb
 965              	.LBE194:
 966              	.LBE193:
 967              	.LBE192:
 968              	.LBE191:
 969              	.LBE190:
 970              		.loc 1 177 0
 971 0008 0124     		movs	r4, #1
 972 000a 8C40     		lsls	r4, r4, r1
 973 000c C368     		ldr	r3, [r0, #12]
 974 000e 2343     		orrs	r3, r3, r4
 975 0010 C360     		str	r3, [r0, #12]
 976 0012 FFF7FEFF 		bl	pwm_lld_enable_channel
 977              	.LVL11:
 978              	.LBB195:
 979              	.LBB196:
 980              	.LBB197:
 981              	.LBB198:
 982              	.LBB199:
 983              	.LBB200:
 984              		.loc 2 264 0
 985 0016 0023     		movs	r3, #0
 986              	@ 264 "../os/common/ext/CMSIS/include/cmsis_gcc.h" 1
 987 0018 83F31188 		MSR basepri, r3
 988              	@ 0 "" 2
 989              		.thumb
ARM GAS  /tmp/cchk29Gr.s 			page 56


 990 001c 10BD     		pop	{r4, pc}
 991              	.LBE200:
 992              	.LBE199:
 993              	.LBE198:
 994              	.LBE197:
 995              	.LBE196:
 996              	.LBE195:
 997              		.cfi_endproc
 998              	.LFE224:
 999              		.size	pwmEnableChannel, .-pwmEnableChannel
 1000 001e 00BF     		.section	.text.pwmDisableChannel,"ax",%progbits
 1001              		.align	2
 1002              		.p2align 4,,15
 1003              		.global	pwmDisableChannel
 1004              		.thumb
 1005              		.thumb_func
 1006              		.type	pwmDisableChannel, %function
 1007              	pwmDisableChannel:
 1008              	.LFB225:
 1009              		.loc 1 196 0
 1010              		.cfi_startproc
 1011              		@ args = 0, pretend = 0, frame = 0
 1012              		@ frame_needed = 0, uses_anonymous_args = 0
 1013              	.LVL12:
 1014 0000 08B5     		push	{r3, lr}
 1015              		.cfi_def_cfa_offset 8
 1016              		.cfi_offset 3, -8
 1017              		.cfi_offset 14, -4
 1018              	.LBB201:
 1019              	.LBB202:
 1020              	.LBB203:
 1021              	.LBB204:
 1022              	.LBB205:
 1023              		.loc 2 264 0
 1024 0002 2023     		movs	r3, #32
 1025              	@ 264 "../os/common/ext/CMSIS/include/cmsis_gcc.h" 1
 1026 0004 83F31188 		MSR basepri, r3
 1027              	@ 0 "" 2
 1028              		.thumb
 1029              	.LBE205:
 1030              	.LBE204:
 1031              	.LBE203:
 1032              	.LBE202:
 1033              	.LBE201:
 1034              		.loc 1 204 0
 1035 0008 0122     		movs	r2, #1
 1036 000a 8A40     		lsls	r2, r2, r1
 1037 000c C368     		ldr	r3, [r0, #12]
 1038 000e 23EA0203 		bic	r3, r3, r2
 1039 0012 C360     		str	r3, [r0, #12]
 1040 0014 FFF7FEFF 		bl	pwm_lld_disable_channel
 1041              	.LVL13:
 1042              	.LBB206:
 1043              	.LBB207:
 1044              	.LBB208:
 1045              	.LBB209:
 1046              	.LBB210:
ARM GAS  /tmp/cchk29Gr.s 			page 57


 1047              	.LBB211:
 1048              		.loc 2 264 0
 1049 0018 0023     		movs	r3, #0
 1050              	@ 264 "../os/common/ext/CMSIS/include/cmsis_gcc.h" 1
 1051 001a 83F31188 		MSR basepri, r3
 1052              	@ 0 "" 2
 1053              		.thumb
 1054 001e 08BD     		pop	{r3, pc}
 1055              	.LBE211:
 1056              	.LBE210:
 1057              	.LBE209:
 1058              	.LBE208:
 1059              	.LBE207:
 1060              	.LBE206:
 1061              		.cfi_endproc
 1062              	.LFE225:
 1063              		.size	pwmDisableChannel, .-pwmDisableChannel
 1064              		.section	.text.pwmEnablePeriodicNotification,"ax",%progbits
 1065              		.align	2
 1066              		.p2align 4,,15
 1067              		.global	pwmEnablePeriodicNotification
 1068              		.thumb
 1069              		.thumb_func
 1070              		.type	pwmEnablePeriodicNotification, %function
 1071              	pwmEnablePeriodicNotification:
 1072              	.LFB226:
 1073              		.loc 1 218 0
 1074              		.cfi_startproc
 1075              		@ args = 0, pretend = 0, frame = 0
 1076              		@ frame_needed = 0, uses_anonymous_args = 0
 1077              	.LVL14:
 1078 0000 08B5     		push	{r3, lr}
 1079              		.cfi_def_cfa_offset 8
 1080              		.cfi_offset 3, -8
 1081              		.cfi_offset 14, -4
 1082              	.LBB212:
 1083              	.LBB213:
 1084              	.LBB214:
 1085              	.LBB215:
 1086              	.LBB216:
 1087              		.loc 2 264 0
 1088 0002 2023     		movs	r3, #32
 1089              	@ 264 "../os/common/ext/CMSIS/include/cmsis_gcc.h" 1
 1090 0004 83F31188 		MSR basepri, r3
 1091              	@ 0 "" 2
 1092              		.thumb
 1093              	.LBE216:
 1094              	.LBE215:
 1095              	.LBE214:
 1096              	.LBE213:
 1097              	.LBE212:
 1098              		.loc 1 227 0
 1099 0008 FFF7FEFF 		bl	pwm_lld_enable_periodic_notification
 1100              	.LVL15:
 1101              	.LBB217:
 1102              	.LBB218:
 1103              	.LBB219:
ARM GAS  /tmp/cchk29Gr.s 			page 58


 1104              	.LBB220:
 1105              	.LBB221:
 1106              	.LBB222:
 1107              		.loc 2 264 0
 1108 000c 0023     		movs	r3, #0
 1109              	@ 264 "../os/common/ext/CMSIS/include/cmsis_gcc.h" 1
 1110 000e 83F31188 		MSR basepri, r3
 1111              	@ 0 "" 2
 1112              		.thumb
 1113 0012 08BD     		pop	{r3, pc}
 1114              	.LBE222:
 1115              	.LBE221:
 1116              	.LBE220:
 1117              	.LBE219:
 1118              	.LBE218:
 1119              	.LBE217:
 1120              		.cfi_endproc
 1121              	.LFE226:
 1122              		.size	pwmEnablePeriodicNotification, .-pwmEnablePeriodicNotification
 1123 0014 AFF30080 		.section	.text.pwmDisablePeriodicNotification,"ax",%progbits
 1123      AFF30080 
 1123      AFF30080 
 1124              		.align	2
 1125              		.p2align 4,,15
 1126              		.global	pwmDisablePeriodicNotification
 1127              		.thumb
 1128              		.thumb_func
 1129              		.type	pwmDisablePeriodicNotification, %function
 1130              	pwmDisablePeriodicNotification:
 1131              	.LFB227:
 1132              		.loc 1 241 0
 1133              		.cfi_startproc
 1134              		@ args = 0, pretend = 0, frame = 0
 1135              		@ frame_needed = 0, uses_anonymous_args = 0
 1136              	.LVL16:
 1137 0000 08B5     		push	{r3, lr}
 1138              		.cfi_def_cfa_offset 8
 1139              		.cfi_offset 3, -8
 1140              		.cfi_offset 14, -4
 1141              	.LBB223:
 1142              	.LBB224:
 1143              	.LBB225:
 1144              	.LBB226:
 1145              	.LBB227:
 1146              		.loc 2 264 0
 1147 0002 2023     		movs	r3, #32
 1148              	@ 264 "../os/common/ext/CMSIS/include/cmsis_gcc.h" 1
 1149 0004 83F31188 		MSR basepri, r3
 1150              	@ 0 "" 2
 1151              		.thumb
 1152              	.LBE227:
 1153              	.LBE226:
 1154              	.LBE225:
 1155              	.LBE224:
 1156              	.LBE223:
 1157              		.loc 1 250 0
 1158 0008 FFF7FEFF 		bl	pwm_lld_disable_periodic_notification
ARM GAS  /tmp/cchk29Gr.s 			page 59


 1159              	.LVL17:
 1160              	.LBB228:
 1161              	.LBB229:
 1162              	.LBB230:
 1163              	.LBB231:
 1164              	.LBB232:
 1165              	.LBB233:
 1166              		.loc 2 264 0
 1167 000c 0023     		movs	r3, #0
 1168              	@ 264 "../os/common/ext/CMSIS/include/cmsis_gcc.h" 1
 1169 000e 83F31188 		MSR basepri, r3
 1170              	@ 0 "" 2
 1171              		.thumb
 1172 0012 08BD     		pop	{r3, pc}
 1173              	.LBE233:
 1174              	.LBE232:
 1175              	.LBE231:
 1176              	.LBE230:
 1177              	.LBE229:
 1178              	.LBE228:
 1179              		.cfi_endproc
 1180              	.LFE227:
 1181              		.size	pwmDisablePeriodicNotification, .-pwmDisablePeriodicNotification
 1182 0014 AFF30080 		.section	.text.pwmEnableChannelNotification,"ax",%progbits
 1182      AFF30080 
 1182      AFF30080 
 1183              		.align	2
 1184              		.p2align 4,,15
 1185              		.global	pwmEnableChannelNotification
 1186              		.thumb
 1187              		.thumb_func
 1188              		.type	pwmEnableChannelNotification, %function
 1189              	pwmEnableChannelNotification:
 1190              	.LFB228:
 1191              		.loc 1 266 0
 1192              		.cfi_startproc
 1193              		@ args = 0, pretend = 0, frame = 0
 1194              		@ frame_needed = 0, uses_anonymous_args = 0
 1195              	.LVL18:
 1196 0000 08B5     		push	{r3, lr}
 1197              		.cfi_def_cfa_offset 8
 1198              		.cfi_offset 3, -8
 1199              		.cfi_offset 14, -4
 1200              	.LBB234:
 1201              	.LBB235:
 1202              	.LBB236:
 1203              	.LBB237:
 1204              	.LBB238:
 1205              		.loc 2 264 0
 1206 0002 2023     		movs	r3, #32
 1207              	@ 264 "../os/common/ext/CMSIS/include/cmsis_gcc.h" 1
 1208 0004 83F31188 		MSR basepri, r3
 1209              	@ 0 "" 2
 1210              		.thumb
 1211              	.LBE238:
 1212              	.LBE237:
 1213              	.LBE236:
ARM GAS  /tmp/cchk29Gr.s 			page 60


 1214              	.LBE235:
 1215              	.LBE234:
 1216              		.loc 1 278 0
 1217 0008 FFF7FEFF 		bl	pwm_lld_enable_channel_notification
 1218              	.LVL19:
 1219              	.LBB239:
 1220              	.LBB240:
 1221              	.LBB241:
 1222              	.LBB242:
 1223              	.LBB243:
 1224              	.LBB244:
 1225              		.loc 2 264 0
 1226 000c 0023     		movs	r3, #0
 1227              	@ 264 "../os/common/ext/CMSIS/include/cmsis_gcc.h" 1
 1228 000e 83F31188 		MSR basepri, r3
 1229              	@ 0 "" 2
 1230              		.thumb
 1231 0012 08BD     		pop	{r3, pc}
 1232              	.LBE244:
 1233              	.LBE243:
 1234              	.LBE242:
 1235              	.LBE241:
 1236              	.LBE240:
 1237              	.LBE239:
 1238              		.cfi_endproc
 1239              	.LFE228:
 1240              		.size	pwmEnableChannelNotification, .-pwmEnableChannelNotification
 1241 0014 AFF30080 		.section	.text.pwmDisableChannelNotification,"ax",%progbits
 1241      AFF30080 
 1241      AFF30080 
 1242              		.align	2
 1243              		.p2align 4,,15
 1244              		.global	pwmDisableChannelNotification
 1245              		.thumb
 1246              		.thumb_func
 1247              		.type	pwmDisableChannelNotification, %function
 1248              	pwmDisableChannelNotification:
 1249              	.LFB229:
 1250              		.loc 1 294 0
 1251              		.cfi_startproc
 1252              		@ args = 0, pretend = 0, frame = 0
 1253              		@ frame_needed = 0, uses_anonymous_args = 0
 1254              	.LVL20:
 1255 0000 08B5     		push	{r3, lr}
 1256              		.cfi_def_cfa_offset 8
 1257              		.cfi_offset 3, -8
 1258              		.cfi_offset 14, -4
 1259              	.LBB245:
 1260              	.LBB246:
 1261              	.LBB247:
 1262              	.LBB248:
 1263              	.LBB249:
 1264              		.loc 2 264 0
 1265 0002 2023     		movs	r3, #32
 1266              	@ 264 "../os/common/ext/CMSIS/include/cmsis_gcc.h" 1
 1267 0004 83F31188 		MSR basepri, r3
 1268              	@ 0 "" 2
ARM GAS  /tmp/cchk29Gr.s 			page 61


 1269              		.thumb
 1270              	.LBE249:
 1271              	.LBE248:
 1272              	.LBE247:
 1273              	.LBE246:
 1274              	.LBE245:
 1275              		.loc 1 306 0
 1276 0008 FFF7FEFF 		bl	pwm_lld_disable_channel_notification
 1277              	.LVL21:
 1278              	.LBB250:
 1279              	.LBB251:
 1280              	.LBB252:
 1281              	.LBB253:
 1282              	.LBB254:
 1283              	.LBB255:
 1284              		.loc 2 264 0
 1285 000c 0023     		movs	r3, #0
 1286              	@ 264 "../os/common/ext/CMSIS/include/cmsis_gcc.h" 1
 1287 000e 83F31188 		MSR basepri, r3
 1288              	@ 0 "" 2
 1289              		.thumb
 1290 0012 08BD     		pop	{r3, pc}
 1291              	.LBE255:
 1292              	.LBE254:
 1293              	.LBE253:
 1294              	.LBE252:
 1295              	.LBE251:
 1296              	.LBE250:
 1297              		.cfi_endproc
 1298              	.LFE229:
 1299              		.size	pwmDisableChannelNotification, .-pwmDisableChannelNotification
 1300 0014 AFF30080 		.text
 1300      AFF30080 
 1300      AFF30080 
 1301              	.Letext0:
 1302              		.file 3 "/usr/include/newlib/machine/_default_types.h"
 1303              		.file 4 "/usr/include/newlib/stdint.h"
 1304              		.file 5 "../os/common/ports/ARMCMx/compilers/GCC/chtypes.h"
 1305              		.file 6 "../os/rt/include/chsystypes.h"
 1306              		.file 7 "../os/rt/include/chschd.h"
 1307              		.file 8 "../os/common/ports/ARMCMx/chcore.h"
 1308              		.file 9 "../os/common/ports/ARMCMx/chcore_v7m.h"
 1309              		.file 10 "../os/hal/ports/STM32/LLD/TIMv1/stm32_tim.h"
 1310              		.file 11 "../os/rt/include/chsem.h"
 1311              		.file 12 "../os/rt/include/chmtx.h"
 1312              		.file 13 "../os/hal/include/hal_pwm.h"
 1313              		.file 14 "../os/hal/ports/STM32/LLD/TIMv1/hal_pwm_lld.h"
 1314              		.file 15 "../os/rt/include/chsys.h"
 1315              		.file 16 "../os/hal/osal/rt/osal.h"
 1316              		.file 17 "../os/common/ext/CMSIS/include/core_cm3.h"