ARM GAS  /tmp/cckiuTge.s 			page 1


   1              		.syntax unified
   2              		.cpu cortex-m3
   3              		.fpu softvfp
   4              		.eabi_attribute 20, 1
   5              		.eabi_attribute 21, 1
   6              		.eabi_attribute 23, 3
   7              		.eabi_attribute 24, 1
   8              		.eabi_attribute 25, 1
   9              		.eabi_attribute 26, 1
  10              		.eabi_attribute 30, 2
  11              		.eabi_attribute 34, 1
  12              		.eabi_attribute 18, 4
  13              		.thumb
  14              		.file	"hal_st_lld.c"
  15              		.text
  16              	.Ltext0:
  17              		.section	.gnu.lto_.jmpfuncs.147803ef7d7e56e,"",%progbits
  18 0000 789C6362 		.ascii	"x\234cb`b\300\006\244\2414X\226\221\201\211)\2021\223"
  18      6062C006 
  18      A4A13458 
  18      96918189 
  18      29823193 
  19 0014 91410628 		.ascii	"\221A\006(\000fp\000E\001\031\363\001\323"
  19      00667000 
  19      450119F3 
  19      01D3
  20              		.text
  21              		.section	.gnu.lto_.inline.147803ef7d7e56e,"",%progbits
  22 0000 789C6362 		.ascii	"x\234cb`b\300\006\254\2404P\226G\224\221\201\211\357"
  22      6062C006 
  22      ACA03450 
  22      96479491 
  22      8189EF
  23 0013 5E0003DB 		.ascii	"^\000\003\333\002y\260bF.8\301 \"\003\224\224yp\213"
  23      0279B062 
  23      462E38C1 
  23      20220394 
  23      9479708B 
  24 0027 112ECBCC 		.ascii	"\021.\313\314\003\326\305\000\000\260\004\005a"
  24      03D6C500 
  24      00B00405 
  24      61
  25              		.text
  26              		.section	.gnu.lto_.pureconst.147803ef7d7e56e,"",%progbits
  27 0000 789C6362 		.ascii	"x\234cb`b`e\200\000&\006+F)\000\001f\000a"
  27      60626065 
  27      80002606 
  27      2B462900 
  27      01660061 
  28              		.text
  29              		.section	.gnu.lto_VectorB0.147803ef7d7e56e,"",%progbits
  30 0000 789C8D53 		.ascii	"x\234\215SOH\024a\024\177\357\233Yw5\027\364X\207m\021"
  30      4F481461 
  30      147FEF9B 
  30      59773517 
  30      F458876D 
  31 0015 C2C0DC29 		.ascii	"\302\300\334);t-\354\"\270\027w\205:-\343\270\270\003"
ARM GAS  /tmp/cckiuTge.s 			page 2


  31      3B742DEC 
  31      22B81777 
  31      853A2DE3 
  31      B8B803
  32 0028 BBAEECAC 		.ascii	"\273\256\354\254\242t\360[w\017\201Ab\021\221hHd\324"
  32      A274F05B 
  32      770F8141 
  32      62119168 
  32      4864D4
  33 003b 21E90F11 		.ascii	"!\351\017\021\012\246\235\214R\261\"\252\323z\021\302"
  33      0AA69D8C 
  33      52B122AA 
  33      D37A11C2 
  34 004b A8A44BA4 		.ascii	"\250\244K\244\266\275o\306\235\235]\242z\360\276\367"
  34      B6BD6FC6 
  34      9D9D5DA2 
  34      7AF0BEF7 
  35 005b BEF7DEF7 		.ascii	"\276\367\336\367\276\337\373}3\014\030TJ\013\351\224"
  35      BEDFFB7D 
  35      330C1854 
  35      4A0BE994 
  36 006b 04F0812C 		.ascii	"\004\360\201,\272\000\331\330*@\306\303\2304\347\003"
  36      BA00D9D8 
  36      2A40C6C3 
  36      9834E703 
  37 007b 5E23BF53 		.ascii	"^#\277S\200\327J([a\031Q8\2000\314$\031\207\317\243"
  37      80D74A28 
  37      5B611951 
  37      388030CC 
  37      241987CF 
  38 0090 D964962D 		.ascii	"\331d\226-\346\013\205\373\013\227o\356\3423\346\225"
  38      E60B85FB 
  38      0B976FEE 
  38      E233E695 
  39 00a0 404790C5 		.ascii	"@G\220\305B\342\202\034\347c~\000\315\334\206i\025-"
  39      42E2821C 
  39      E7637E00 
  39      CDDC8669 
  39      152D
  40 00b2 3A91092B 		.ascii	":\221\011+\255\300\363\217\357w6\230\212\323t}\017J"
  40      ADC0F38F 
  40      EF773698 
  40      8AD3747D 
  40      0F4A
  41 00c4 4D708FE7 		.ascii	"Mp\217\347PG\234\200\033d\3309Z$N\"\203\351\232\027"
  41      50479C80 
  41      1B64D839 
  41      5A244E22 
  41      83E99A17 
  42 00d8 766111FF 		.ascii	"va\021\377\012d\347\263\233X<.S\007QfN\272\014\271\317"
  42      0A64E7B3 
  42      9B583C2E 
  42      53075166 
  42      4EBA0CB9 
  43 00ed 19AF9D32 		.ascii	"\031\257\2352\343N\351\244ns>\001\341\351\217\235\355"
  43      E34EE9A4 
  43      6E733E01 
ARM GAS  /tmp/cckiuTge.s 			page 3


  43      E1E98F9D 
  43      ED
  44 00fe 7D08E6FD 		.ascii	"}\010\346\375\031\036\372O\004\"b\272/`\304\003\320"
  44      191EFA4F 
  44      042262BA 
  44      2F60C403 
  44      D0
  45 010f 00D39C8F 		.ascii	"\000\323\234\217\347\327\357\256,\341x\226/\363\334"
  45      E7D7EFAE 
  45      2CE17896 
  45      2FF3DC
  46 011e 62A18087 		.ascii	"b\241\200\207u\224\031\225\012\016\304\001\227\3374"
  46      75941995 
  46      0A0EC401 
  46      97DF34
  47 012d 5572F95B 		.ascii	"Ur\371[\210\230LL\301*\214l/dg\016\331\334Y\316\342"
  47      88984C4C 
  47      C12A8C6C 
  47      2F64670E 
  47      D9DC59CE 
  48 0142 AD3713D2 		.ascii	"\2557\023\322Q\025g\260\301&\226\177][\222\354\202\255"
  48      511567B0 
  48      C126967F 
  48      5D5B92EC 
  48      82AD
  49 0154 ABCBDE66 		.ascii	"\253\313\336f{\367\350\332h\375\003\227\275}\271\373"
  49      7BF7E8DA 
  49      68FD0397 
  49      BD7DB9FB 
  50 0164 9D36D694 		.ascii	"\2356\326\224\032\0120\214T\"\225I]`\276+\302\002\205"
  50      1A0A308C 
  50      54229549 
  50      5D60BE2B 
  50      C20285
  51 0177 883DC9FA 		.ascii	"\210=\311\372X|\260\206\223\374\372i\035\335e\020K\371"
  51      587CB086 
  51      93FCFA69 
  51      1DDD6510 
  51      4BF9
  52 0189 D7FB798F 		.ascii	"\327\373y\2175\304\032d\277\275\272\275y\251\271\022"
  52      35C41A64 
  52      BFBDBABD 
  52      79A9B912 
  53 0199 FCE85ED6 		.ascii	"\374\350^\326]\272\276\312\252\276\000?\371E^\247c\265"
  53      5DBABECA 
  53      AABE003F 
  53      F9455EA7 
  53      63B5
  54 01ab 866E151F 		.ascii	"\206n\025\037[0t\254\251$\364\323j%\241*\3361\007\370"
  54      5B3074AC 
  54      A924F4D3 
  54      6A25A12A 
  54      DE3107F8 
  55 01bf 27A3F037 		.ascii	"'\243\3607F\267&\005\243O\234\214\316\277\335p2\372"
  55      46B72605 
  55      A34F9C8C 
  55      CEBFDD70 
ARM GAS  /tmp/cckiuTge.s 			page 4


  55      32FA
  56 01d1 C5AB3818 		.ascii	"\305\2538\030\235\252_w0\272w\3051\222\207\264\232\264"
  56      9DAA5F77 
  56      30BA77C5 
  56      319287B4 
  56      9AB4
  57 01e3 86F4C01F 		.ascii	"\206\364\300\037\030Uq\226\034\033R\221A\025\037\242"
  57      18557196 
  57      1C1B5291 
  57      41151FA2 
  58 01f3 CFF951CA 		.ascii	"\317\371Q\312\346\217A<\346\177\365X\275\313y\252\005"
  58      E68F413C 
  58      E67FF558 
  58      BDCB79AA 
  58      05
  59 0204 9BA375C8 		.ascii	"\233\243u\310\344\013\215\305\"K\302\364\264\324@\364"
  59      E40B8DC5 
  59      224BC2F4 
  59      B4D440F4 
  60 0214 6E0E0494 		.ascii	"n\016\004\224\244\241\304\324\270\322\227L\245\015%"
  60      A4A1C4D4 
  60      B8D2974C 
  60      A50D25
  61 0223 140E9E6C 		.ascii	"\024\016\236lQ\332\333\317*\341\266\340\300\011\221"
  61      51DADBCF 
  61      2AE1B6E0 
  61      C00991
  62 0232 8918E948 		.ascii	"\211\030\351H<\336\035\320\240\321\252\326\222\211D"
  62      3CDE1DD0 
  62      A0D1AAD6 
  62      928944
  63 0241 B277FFC0 		.ascii	"\262w\377\300\231\216`kpP\321bZ2\025\215\014\234J\004"
  63      998E606B 
  63      7050D162 
  63      5A32158D 
  63      0C9C4A04 
  64 0255 62E01A50 		.ascii	"b\340\032P\343\375\321\246\262\352\350`Zi\015\206\332"
  64      E3FDD1A6 
  64      B2EAE860 
  64      5A690D86 
  64      DA
  65 0266 428ADEAB 		.ascii	"B\212\336\253\305\373\273\243\212\2260t#\322\243it\342"
  65      C5FBBBA3 
  65      8A963074 
  65      23D2A369 
  65      74E2
  66 0278 A0559B4A 		.ascii	"\240U\233J\227\2621c\310(e\004\302\244A\013\225\010"
  66      97B23163 
  66      C8286504 
  66      C2A4410B 
  66      9508
  67 028a 4B99BA60 		.ascii	"K\231\272`\250\303\337\245\032\321\276\224~\314\177"
  67      A8C3DFA5 
  67      1AD1BE94 
  67      7ECC7F
  68 0299 E438B014 		.ascii	"\3448\260\024\270\023\321D25\004\277\001$\177*\364"
  68      B813D144 
ARM GAS  /tmp/cckiuTge.s 			page 5


  68      323504BF 
  68      01247F2A 
  68      F4
  69              		.text
  70              		.section	.gnu.lto_st_lld_init.147803ef7d7e56e,"",%progbits
  71 0000 789C95D3 		.ascii	"x\234\225\323?O\302@\024\000\360\367\356h)h\014\216"
  71      3F4FC240 
  71      1400F0F7 
  71      EE682968 
  71      0C8E
  72 0012 12075763 		.ascii	"\022\007Wc\240Q?\200\213\013\011L\326D&\202\230 \011"
  72      A0513F80 
  72      8B0B094C 
  72      D6442682 
  72      982009
  73 0025 0946888B 		.ascii	"\011F\210\213\003G\304\204\301\2018\021u\320\025\014"
  73      0347C484 
  73      C1813811 
  73      75D0150C 
  74 0035 6CA6C641 		.ascii	"l\246\306A\302\346\000\306\21581\3527 .x\327?T\300\220"
  74      C2E600C6 
  74      8D3831EA 
  74      37202E78 
  74      D73F54C0 
  75 004a F492BE6B 		.ascii	"\364\222\276k{\367~}\355]\011\020\230n+\374\010z\000"
  75      7BF77E7D 
  75      ED5D0910 
  75      986E2BFC 
  75      087A00
  76 005d 54DE2305 		.ascii	"T\336#\005$\325\036@I!\210\342\004\020\212\004\213q"
  76      24D51E40 
  76      492188E2 
  76      04108A04 
  76      8B71
  77 006f 34E6B648 		.ascii	"4\346\266H{0\0325\237\256\357\256\260G\226\011d\020"
  77      7B301A35 
  77      9FAEEFAE 
  77      B0479609 
  77      6410
  78 0081 A8089208 		.ascii	"\250\010\222\010\262\010\274IPf\254\272\006\2202.5\036"
  78      B208BC49 
  78      5066ACBA 
  78      0690322E 
  78      351E
  79 0093 05B58F44 		.ascii	"\005\265\217D\364\264\013\235O\275\036L\342\003J\220"
  79      F4B40B9D 
  79      4FBD1E4C 
  79      E2034A90 
  80 00a3 46B20175 		.ascii	"F\262\001uV.\0052\210\267p\203\031$\007<Pv_a\0360N\215"
  80      562E0532 
  80      88B77083 
  80      1924073C 
  80      50765F61 
  81 00bb 471FA25D 		.ascii	"G\037\242]p\027.\236\251\235M\323\346|@c\244\0231\007"
  81      70172E9E 
  81      A99D4DD3 
  81      E67C4063 
ARM GAS  /tmp/cckiuTge.s 			page 6


  81      A4133107 
  82 00cf DC996971 		.ascii	"\334\231iq-\312\2524\210\015K\323\204G\344I\254]eK\006"
  82      2DCAAA34 
  82      880D4BD3 
  82      8447E449 
  82      AC5D654B 
  83 00e4 215904FE 		.ascii	"!Y\004\376W\226\314\001\243,\026\230[\327|\224;F\262"
  83      5796CC01 
  83      A32C1698 
  83      5BD77C94 
  83      3B46B2
  84 00f7 3E6C74E8 		.ascii	">lt\350_\200\355\214\005Y\244y\031o\346\233y-\301\\"
  84      5F80ED8C 
  84      0559A479 
  84      196FE69B 
  84      792DC15C 
  85 010b 6871075F 		.ascii	"hq\007__\254\217\243\327\232\256\035\3528\243\021\265"
  85      5FAC8FA3 
  85      D79AAE1D 
  85      EA38A311 
  85      B5
  86 011c 1CDDBDE3 		.ascii	"\034\335\275\343q\034\260\224\376X\011\301\243P\342"
  86      711CB094 
  86      FE5809C1 
  86      A350E2
  87 012b 7CD00195 		.ascii	"|\320\001\225\371\2404\006}\343\275<\301\017\335\027"
  87      F9A03406 
  87      7DE3BD3C 
  87      C10FDD17 
  88 013b 29CF2AB5 		.ascii	")\317*\265\226k\305;\253\350\356\025\305Q\354\345\353"
  88      966BC53B 
  88      ABE8EE15 
  88      C551ECE5 
  88      EB
  89 014c BB577C93 		.ascii	"\273W|\223\312;\\\016\336\276\375&\002p\016?\254\302"
  89      CA3B5C0E 
  89      DEBEFD26 
  89      02700E3F 
  89      ACC2
  90 015e F876F4A7 		.ascii	"\370v\364\247\254-'f.\254\232\235\302\377\347E\200\017"
  90      AC2D2766 
  90      2EAC9A9D 
  90      C2FFE745 
  90      800F
  91 0170 280DBED6 		.ascii	"(\015\276\326\355\024\263i|:\377\227\305&\013\205\303"
  91      ED14B369 
  91      7C3AFF97 
  91      C5260B85 
  91      C3
  92 0181 6A2EAF1E 		.ascii	"j.\257\036'\263\352I\356\264\220W\367\264\330\366\226"
  92      27B3EA49 
  92      EEB49057 
  92      F7B4D8F6 
  92      96
  93 0192 1A8DEEAA 		.ascii	"\032\215\356\252Z$v\266)F\022\371B\"\233=\012\247\340"
  93      5A2476B6 
  93      294612F9 
ARM GAS  /tmp/cckiuTge.s 			page 7


  93      42229B3D 
  93      0AA7E0
  94 01a5 1761E3F6 		.ascii	"\027a\343\366="
  94      3D
  95              		.text
  96              		.section	.gnu.lto_.symbol_nodes.147803ef7d7e56e,"",%progbits
  97 0000 789C6362 		.ascii	"x\234cb`bHd\200\002\246\333\214\365\014\014\023\316"
  97      60624864 
  97      8002A6DB 
  97      8CF50C0C 
  97      13CE
  98 0012 3130D4D7 		.ascii	"10\324\327\317\353`d\272\303X\317\210\3402\336e\254"
  98      CFEB6064 
  98      BAC358CF 
  98      88E032DE 
  98      65AC
  99 0024 6782701B 		.ascii	"g\202p\033\032\030\031\3571\3263#x\367\031\353Y\340"
  99      1A1819EF 
  99      31D63323 
  99      78F719EB 
  99      59E0
 100 0036 3C660666 		.ascii	"<f\006f\206\303[M\230\201f/n{#\317\314\310\302p\270"
 100      86C35B4D 
 100      9881662F 
 100      6E7B23CF 
 100      CCC8C270 
 101 004b FD8D3C03 		.ascii	"\375\215<\003\000\310\245\0350"
 101      00C8A51D 
 101      30
 102              		.text
 103              		.section	.gnu.lto_.refs.147803ef7d7e56e,"",%progbits
 104 0000 789C6362 		.ascii	"x\234cb`b`d\200\002\000\000F\000\006"
 104      60626064 
 104      80020000 
 104      460006
 105              		.text
 106              		.section	.gnu.lto_.decls.147803ef7d7e56e,"",%progbits
 107 0000 789CA557 		.ascii	"x\234\245W\177p\024\325\035\177o\357\362\313\204\210"
 107      7F7014D5 
 107      1D7F6FEF 
 107      F2CB8488 
 108 0010 5199A433 		.ascii	"Q\231\2443\035\216\231\242\216V.\011S\333\177JI\356"
 108      1D8E99A2 
 108      8E562E09 
 108      53DB7F4A 
 108      49EE
 109 0022 0E92190E 		.ascii	"\016\222\031\0162{\301a\2463\335.\227\303\334x?\350"
 109      327BC161 
 109      A633DD2E 
 109      97C3DC78 
 109      3FE8
 110 0034 DD05C35F 		.ascii	"\335\005\303_n\014\265(\264\034Q TL\023\221\221T\254"
 110      6E0CB528 
 110      B41C5120 
 110      544C1391 
 110      9154AC
 111 0047 0811122A 		.ascii	"\010\021\022*\351\015CCFj\013it\220\014%\342\024[F\024"
ARM GAS  /tmp/cckiuTge.s 			page 8


 111      E90D4343 
 111      466A0B69 
 111      74900C25 
 111      E2145B46 
 112 005c 8B8A5531 		.ascii	"\213\212U1\375\276\267\273w\357mv\217=\273\223\357w"
 112      FDBEB7BB 
 112      77EF6D76 
 112      8F3DBB93 
 112      EF77
 113 006e DFEDBEEF 		.ascii	"\337\355\276\357\347\373y\337\357w_\336W@\002\362b\204"
 113      E7FB79DF 
 113      EF775FDE 
 113      574002F2 
 113      6284
 114 0080 66E0BA5C 		.ascii	"f\340\272\\\215\320\026\007B\360\207\226\200\300c4\200"
 114      8DD01607 
 114      42F08796 
 114      80C06334 
 114      80
 115 0091 D4AB0864 		.ascii	"\324\253\010d?\310\001\220WA^\0039\214f_dN9H\011\310"
 115      3FC80190 
 115      57415E03 
 115      398C665F 
 115      644E3948 
 116 00a7 30C808C8 		.ascii	"0\310\010\310\207\032N%H\005\310U\220O@\256\203\014"
 116      871A4E25 
 116      4805C855 
 116      904F40AE 
 116      830C
 117 00b9 6A7EC640 		.ascii	"j~\306@\346h\366\237\202\334\000\371\022\344&R'\224"
 117      E668F69F 
 117      82DC00F9 
 117      12E42652 
 117      2794
 118 00cb 61D56705 		.ascii	"a\325g\005\334o\007\251\002\271\033\253\\\214\327\001"
 118      DC6F07A9 
 118      02B91BAB 
 118      5C8CD701 
 119 00db 0D4BE750 		.ascii	"\015K\347P\015\363~\000\362\020\310\022\234\343\364"
 119      0DF37E00 
 119      F210C812 
 119      9CE3F4
 120 00ea 2E8813E4 		.ascii	".\210\023\344'X\3457\004r\033\310\003\360\373\307 \023"
 120      2758E537 
 120      04721BC8 
 120      03F0FBC7 
 120      2013
 121 00fc 309E0479 		.ascii	"0\236\004y\023\344\034\310I\220\014\3108\310(\210\240"
 121      13E41CC8 
 121      49900CC8 
 121      38C82888 
 121      A0
 122 010d F9328B43 		.ascii	"\3712\213C\031\332\254(O(\375O*M\343\260\3565X\306\225"
 122      19DAAC28 
 122      4F28FD4F 
 122      2A4DE3B0 
 122      EE3558C6 
ARM GAS  /tmp/cckiuTge.s 			page 9


 123 0122 65C84507 		.ascii	"e\310E\007\025e\324\355B\364\242\242\244\247\377|iZ"
 123      1565D4ED 
 123      42F4A2A2 
 123      A4A7FF7C 
 123      695A
 124 0134 50945219 		.ascii	"P\224R\031\017\3402\200tat?\032T\340\215\242\2740\357"
 124      0FE03280 
 124      7461743F 
 124      1A54E08D 
 124      A2BC30EF 
 125 0148 FF423EFB 		.ascii	"\377B>\373\336i\007E\336G\221\177\206\221\214_\304\367"
 125      DE690745 
 125      DE47917F 
 125      86918C5F 
 125      C4F7
 126 015a 6B38322E 		.ascii	"k82.)cq\351o}\002\001\243\257\265\001)\217\333Q\241"
 126      296371E9 
 126      6F7D0201 
 126      A3AFB501 
 126      298FDB51 
 127 016f D3E7A33E 		.ascii	"\323\347\243>\245\177z\372\360\251\217\357\334\255d"
 127      A57F7AFA 
 127      F0A98FEF 
 127      DCAD64
 128 017e 36293333 		.ascii	"6)33\217\243yh\007,\216\320WpJ\306K\3566]\001\301\037"
 128      8FA37968 
 128      072C8ED0 
 128      57704AC6 
 128      4BEE365D 
 129 0195 C4F3B4D1 		.ascii	"\304\363\264\321j\207\352S@\2730\277\010\204\356A\373"
 129      6A87EA53 
 129      40BB30BF 
 129      0884EE41 
 129      FB
 130 01a6 089EB25F 		.ascii	"\010\236\262_qP42\177?\236\317S\375=\026\330\007*\257"
 130      71503432 
 130      7F3F9ECF 
 130      53FD3D16 
 130      D8072AAF 
 131 01ba CCD19ED3 		.ascii	"\314\321\236\323X\351Q\276\236\231qh\356\004\324o\313"
 131      58E951BE 
 131      9E997168 
 131      EE04D46F 
 131      CB
 132 01cb C101A383 		.ascii	"\301\001\243\203Wf;\230NO\217l\271\372+\274\275\273"
 132      57663B98 
 132      4E4F8F6C 
 132      B9FA2BBC 
 132      BDBB
 133 01dd 7F5CB946 		.ascii	"\177\\\271F\342\241\373\230\234\345C\0059h\012\322\267"
 133      E2A1FB98 
 133      9CE54305 
 133      39680AD2 
 133      B7
 134 01ee ED73E76E 		.ascii	"\355s\347n\345\204\032=\035\242K0\2078d\012q\256\347"
 134      E5841A3D 
 134      1DA24B30 
ARM GAS  /tmp/cckiuTge.s 			page 10


 134      8738640A 
 134      71AEE7
 135 0201 6F380B61 		.ascii	"o8\013a?\001CZ\002\034\264\322\221Z\241\334\017.;4A"
 135      3F01435A 
 135      021CB4D2 
 135      915AA1DC 
 135      0F2E3B34 
 136 0216 C72C881D 		.ascii	"\307,\210\035\345\211\321\"\356\316[\3042~\001/\264"
 136      E589D122 
 136      EECE5BC4 
 136      327E012F 
 136      B4
 137 0227 55665568 		.ascii	"UfUh;Y\221\213AR\212u\250\237\243\354\367pt\347\215"
 137      3B59918B 
 137      41528A75 
 137      A89FA3EC 
 137      F77074E7 
 138 023c 87E8F730 		.ascii	"\207\350\3670\202\253\200\352\027\006\252\267\204!\234"
 138      82AB80EA 
 138      1706AAB7 
 138      84219C
 139 024b DE0053D5 		.ascii	"\336\000S\325\210\202*\231g\246*\024\247\372\034\231"
 139      88822A99 
 139      67A62A14 
 139      A7FA1C99 
 140 025b AC5CBB16 		.ascii	"\254\\\273\026\240~eSwf\307\324\236\032\245\377\004"
 140      A07E6553 
 140      7766C7D4 
 140      9E1AA5FF 
 140      04
 141 026c 400ED34F 		.ascii	"@\016\323Or\223\003k\230f\021\320\206\352\245M\340\361"
 141      7293036B 
 141      986611D0 
 141      86EAA54D 
 141      E0F1
 142 027e 764E55A4 		.ascii	"vNU\244e\035ls\301`.\016\254\227\005\333j\007\254\324"
 142      651D6C73 
 142      C1602E0E 
 142      AC9705DB 
 142      6A07ACD4 
 143 0292 9AD96F59 		.ascii	"\232\331oY\260\355\005\203\361\314\366\260`;\355\200"
 143      B0ED0583 
 143      F1CCF6B0 
 143      603BED80 
 144 02a2 CDB566D6 		.ascii	"\315\265f\326\307\202\355.\030\214gv\220\005{\336\016"
 144      C782ED2E 
 144      188C6776 
 144      90057BDE 
 144      0E
 145 02b3 58B535B3 		.ascii	"X\2655\263C,\330\336\202\301xfC,\330\240\0350\2275\263"
 145      432CD8DE 
 145      82C17866 
 145      432CD8A0 
 145      1D309735 
 146 02c8 232CD81F 		.ascii	"#,\330\037\012\006\343\231\015\263`\207\354\200\335"
 146      0A06E399 
 146      0DB36087 
ARM GAS  /tmp/cckiuTge.s 			page 11


 146      EC80DD
 147 02d7 67CDEC18 		.ascii	"g\315\354\030\013v\244`0\236\331\033,\3301;`\265V\314"
 147      0B76A460 
 147      309ED91B 
 147      2CD8313B 
 147      60B556CC 
 148 02eb BA32A33F 		.ascii	"\2722\243?M\313w\240\264\266\245\250\250\372\266\202"
 148      4DCB77A0 
 148      B4B6A5A8 
 148      A8FAB682 
 149 02fb F9D262A7 		.ascii	"\371\322b\247\015XO\223\361y|\007\035\321\355S\321\266"
 149      0D584F93 
 149      F1797C07 
 149      1DD1ED53 
 149      D1B6
 150 030d 4F3AC36A 		.ascii	"O:\303j\017\237Rw\351\334\347\257\015r{6;\013\226=j"
 150      0F9F5277 
 150      E9DCE7AF 
 150      0D727B36 
 150      3B0B963D 
 151 0322 5C36CFC2 		.ascii	"\\6\317\302l\335|\020\317\260A<a'\210K\255\301&X\260"
 151      6CDD7C10 
 151      CFB0413C 
 151      6127884B 
 151      ADC12658 
 152 0337 5376C09A 		.ascii	"Sv\300\232\254ke\222\005;]0\030\317\354\035\026\354"
 152      AC6B6592 
 152      053B5D30 
 152      18CFEC1D 
 152      16EC
 153 0349 8C1DB016 		.ascii	"\214\035\260\026kf\347X\260\277\027\014\3062\353\312"
 153      6B66E758 
 153      B0BF170C 
 153      C632EBCA 
 154 0359 9CCF155E 		.ascii	"\234\317\025^\377RC\345-\345w[n\332\200\3454\031\377"
 154      FF5243E5 
 154      2DE5775B 
 154      6EDA80E5 
 154      3419FF
 155 036c BBE0C2BB 		.ascii	"\273\340\302\273bQx\230+\274+\271\302{\327\270l\216"
 155      62517898 
 155      2BBC2BB9 
 155      C27BD7B8 
 155      6C8E
 156 037e 84365C63 		.ascii	"\2046\\c\022C\263\213\375G-\343\343\364 1\212\027\200"
 156      1243B38B 
 156      FD472DE3 
 156      E3F42031 
 156      8A1780
 157 0391 CE507D82 		.ascii	"\316P}\202\352\223T\217Q=N\365\233T\377\205\352\277"
 157      EA93548F 
 157      513D4EF5 
 157      9B54FF85 
 157      EABF
 158 03a3 527D86EA 		.ascii	"R}\206\352\011\252'\251~\207\352sT_\240\372\"\325\357"
 158      09AA27A9 
 158      7E87EA73 
ARM GAS  /tmp/cckiuTge.s 			page 12


 158      545FA0FA 
 158      22D5EF
 159 03b6 51FD3ED5 		.ascii	"Q\375>\325\377\244\372\003\320\331\253\034=\235;\267"
 159      FFA4FA03 
 159      D0D9AB1C 
 159      3D9D3BB7 
 160 03c6 AB6710AB 		.ascii	"\253g\020\253\330}\210\313u\253l\206z+\265\203\377\364"
 160      D87D88CB 
 160      75AB6C86 
 160      7A2BB583 
 160      FFF4
 161 03d8 3EA5BA3A 		.ascii	">\245\272:\033\203R6\256\352\221\004\014\004\031\177"
 161      1B835236 
 161      AEEA9104 
 161      0C04197F 
 162 03e8 446BE91F 		.ascii	"Dk\351\037\016l\014\215\036\240\217\230\004\251c}4\203"
 162      0E6C0C8D 
 162      1EA08F98 
 162      04A9637D 
 162      3483
 163 03fa B3F07375 		.ascii	"\263\360suxA\263\272\252\025\002\223:}\367\352\255T"
 163      7841B3BA 
 163      AA150293 
 163      3A7DF7EA 
 163      AD54
 164 040c CD35D31F 		.ascii	"\3155\323\037\351\246%\232\301'\005\327\320\177,j\250"
 164      E9A6259A 
 164      C12705D7 
 164      D07F2C6A 
 164      A8
 165 041d D83CA4E4 		.ascii	"\330<\244\344hl\005u\035B\312\234\316\310\3018smz\327"
 165      686C0575 
 165      1D42CA9C 
 165      CEC8C138 
 165      736D7AD7 
 166 0431 C593D507 		.ascii	"\305\223\325\007\016)\312S\31273\217wm\302\372\361\372"
 166      0E29CA53 
 166      CA37338F 
 166      776DC2FA 
 166      F1FA
 167 0443 A6C34E17 		.ascii	"\246\303N\027\360\251\261\013\370l\366\351\033\234\364"
 167      F0A9B10B 
 167      F86CF6E9 
 167      1B9CF4
 168 0452 6DBB58AC 		.ascii	"m\273X\254\267?\013t\017i\247\035\0177\214\036\2760"
 168      B73F0B74 
 168      0F69A71D 
 168      0F378C1E 
 168      BE30
 169 0464 F5307CFA 		.ascii	"\3650|\372\353\232Y\036\006ly\370\322\350\341+3\017"
 169      EB9A591E 
 169      066C79F8 
 169      D2E8E12B 
 169      330F
 170 0476 99C9CBE3 		.ascii	"\231\311\313\343Z\253\324\275Y\310v!C\266\\\3344\272"
 170      5AABD4BD 
 170      59C87621 
ARM GAS  /tmp/cckiuTge.s 			page 13


 170      43B65CDC 
 170      34BA
 171 0488 F8C67411 		.ascii	"\370\306t\0217\337\277\326\364\337\\.\026\330\357S\272"
 171      37DFBFD6 
 171      F4DF5C2E 
 171      16D8EF53 
 171      BA
 172 0499 04933EC5 		.ascii	"\004\223>\305\320\227\\\341\250\322\231\320\0018\265"
 172      D0975CE1 
 172      A8D299D0 
 172      0138B5
 173 04a8 AFE37B68 		.ascii	"\257\343{h\257\002\313;;V\221\306z#\376d\021\261P\204"
 173      AF02CB3B 
 173      3B5691C6 
 173      7A23FE64 
 173      11B15084 
 174 04bc F916DD89 		.ascii	"\371\026\335\211\326\377h+\276\336\325R\235]11\342V"
 174      D6FF682B 
 174      BEDED552 
 174      9D5D3131 
 174      E256
 175 04ce DC2D98AD 		.ascii	"\334-\230\255x\327\305S5f\325\267\265\310NX\2372:y\332"
 175      78D7C553 
 175      3566D5B7 
 175      B5C84E58 
 175      9F323A79 
 176 04e3 CC4966F8 		.ascii	"\314If\370\222Y\346\372m\271\330jt\361k\323u\364m\373"
 176      9259E6FA 
 176      6DB9D86A 
 176      74F16BD3 
 176      75F46DFB 
 177 04f7 6C7681BF 		.ascii	"lv\201\277n\313\3036\243\207\264\251\207\341-c\337\231"
 177      6ECBC336 
 177      A387B4A9 
 177      87E12D63 
 177      DF99
 178 0509 E561DC96 		.ascii	"\345a\334\226\207\036\243\207gL\3034\364\201Y\230.\330"
 178      871EA387 
 178      674CC334 
 178      F4815998 
 178      2ED8
 179 051b 72B1C3E8 		.ascii	"r\261\303\350b'\357\302\254\261t\260')\255?=\374\361"
 179      6227EFC2 
 179      ACB174B0 
 179      2729AD3F 
 179      3DFCF1
 180 052e BFA2DD50 		.ascii	"\277\242\335P\3552\356\025H\203\272\247\370\326\015"
 180      ED32EE15 
 180      4883BAA7 
 180      F8D60D
 181 053d 2A87437C 		.ascii	"*\207C|?'\030\032\324\257\316\323\006\225<\277u\203"
 181      3F27181A 
 181      D4AFCED3 
 181      06953CBF 
 181      7583
 182 054f 3A73FE59 		.ascii	":s\376Y\256A\335O)\020\333o\327\240\246\331\203\315"
 182      AE41DD4F 
ARM GAS  /tmp/cckiuTge.s 			page 14


 182      2910DB6F 
 182      D7A0A6D9 
 182      83CD
 183 0561 CB0583B9 		.ascii	"\313\005\203\2718\260\036\026\354\240\035\260<\015\352"
 183      38B01E16 
 183      ECA01DB0 
 183      3C0DEA
 184 0570 B32CD850 		.ascii	"\263,\330P\301`<3\256\017?n\007,O\203\312\365\341c\005"
 184      C1603C33 
 184      AE0F3F6E 
 184      072C4F83 
 184      CAF5E163 
 185 0585 83F1CCB8 		.ascii	"\203\361\314\270>\374-;`y\032T\256\017\177\273`0\236"
 185      3EFC2D3B 
 185      60791A54 
 185      AE0F7FBB 
 185      60309E
 186 0598 19D7875F 		.ascii	"\031\327\207_\260\003\346\262f\306\365\341\227\012\006"
 186      B003E6B2 
 186      66C6F5E1 
 186      970A06
 187 05a7 6398294F 		.ascii	"c\230)Od\216>\367\033\355#P\377\023\\\266\203\227\247"
 187      648E3EF7 
 187      1BED2350 
 187      FF135CB6 
 187      8397A7
 188 05ba 471D99E2 		.ascii	"G\035\231\342?\252k\005\343\271\220\345\305~\3612\336"
 188      3FAA6B05 
 188      E3B990E5 
 188      C57EF132 
 188      DE
 189 05cb 239093EE 		.ascii	"#\220\223\356\363\0029}\376\216\352\001\252\367R\275"
 189      F302397D 
 189      FE8EEA01 
 189      AAF752BD 
 190 05db 8FEA97A8 		.ascii	"\217\352\227\250\036\244\372e\252_\241\372U\252_\243"
 190      1EA4FA65 
 190      AA5FA1FA 
 190      55AA5FA3 
 191 05eb FAB0607D 		.ascii	"\372\260`}r\355\265 N\270\274.dO\256\332nEz\213\354"
 191      72EDB520 
 191      4EB8BC2E 
 191      644FAEDA 
 191      6E457A8B 
 192 0600 3AB823BD 		.ascii	":\270#\275\272\353e\336\356\301.\031\037\241;\336\347"
 192      BAEB65DE 
 192      EEC12E19 
 192      1FA13BDE 
 192      E7
 193 0611 E63B9E35 		.ascii	"\346;\2365\006\3619b\334\361\216O\320\035o\304\326\216"
 193      06F13962 
 193      DCF18E4F 
 193      D01D6FC4 
 193      D68E
 194 0623 7776824F 		.ascii	"wv\202O\316/K\260\206\371\355v\274\211\211l%\312\270"
 194      CE2F4BB0 
 194      86F9ED76 
ARM GAS  /tmp/cckiuTge.s 			page 15


 194      BC89896C 
 194      25CAB8
 195 0636 4F100A04 		.ascii	"O\020\012\004\313\233\351\021&\323\307h\246\377H\263"
 195      CB9BE911 
 195      26D3C768 
 195      A6FF48B3 
 196 0646 753C4FB6 		.ascii	"u<O\266\216\344\311\326h.[\006\253\241<G\351?\345\254"
 196      8EE4C9D6 
 196      682E5B06 
 196      ABA13C47 
 196      E93FE5AC 
 197 065a D077DD1D 		.ascii	"\320w\335\035\311\204;\034\013F:\332B\356X\350\261H"
 197      C9843B1C 
 197      0B463ADA 
 197      42EE58E8 
 197      B148
 198 066c 78AD3B99 		.ascii	"x\255;\231j\013\307R\213\332Qi\007\334\027\327K\251"
 198      6A0BC752 
 198      8BDA5169 
 198      07DC17D7 
 198      4BA9
 199 067e E2E52B57 		.ascii	"\342\345+W\273<\350A\263\331Q9\330\036\216\205\334R"
 199      BB3CE841 
 199      B3D95139 
 199      D81E8E85 
 199      DC52
 200 0690 5B689DDC 		.ascii	"[h\235\334\021II\251\215\353CI\260\276M\222t\373\007"
 200      114949A9 
 200      8DEB4349 
 200      B0BE4D92 
 200      74FB07
 201 06a3 172D72C7 		.ascii	"\027-r\307\223\356v9\342^\037O\244\222\356@\253\177"
 201      93EE7639 
 201      E25E1F4F 
 201      A492EE40 
 201      AB7F
 202 06b5 71BD7BC5 		.ascii	"q\275{\305\012\257\273\265\331\277\241\216\274\221\222"
 202      0AAFBBB5 
 202      D9BFA18E 
 202      BC9192
 203 06c4 29291269 		.ascii	"))\022i[\024D\245\017\207\202\251x\242\261\266\\}$\205"
 203      5B1444A5 
 203      0F8782A9 
 203      78A2B1B6 
 203      5C7D2485 
 204 06d8 63E1D4BD 		.ascii	"c\341\324\275*D0\036\215\306c\032J\203\350\367\370;"
 204      2A44301E 
 204      8DC6631A 
 204      4A83E8F7 
 204      F83B
 205 06ea DDC1F660 		.ascii	"\335\301\366`<\021\2226\3740\012^\253$\362N\012'~!\205"
 205      3C119236 
 205      FC300A5E 
 205      AB24F24E 
 205      0A277E21 
 206 06ff D68723F1 		.ascii	"\326\207#\361G:B5\252i\"\225\245\036lOn$\024\253\202"
 206      473A4235 
ARM GAS  /tmp/cckiuTge.s 			page 16


 206      AA692295 
 206      A51E6C4F 
 206      6E2414AB 
 207 0714 ED818DC9 		.ascii	"\355\201\215\311\326p4\224h\222cm\221P\242y\241\221"
 207      D6703494 
 207      6892636D 
 207      9150A279 
 207      A191
 208 0726 AAE651F3 		.ascii	"\252\346Q\363\025\333\020\016\202\341\\r\367\305\344"
 208      15DB100E 
 208      82E15C72 
 208      F7C5E4
 209 0735 B591904A 		.ascii	"\265\221\220J\366\373\267Za2\025%\221\010\023\216\345"
 209      F6FBB75A 
 209      61321525 
 209      9108138E 
 209      E5
 210 0746 D91F52CA 		.ascii	"\331\037R\312\341\021\353@\352\235\001\277Gtz\233}\242"
 210      E111EB40 
 210      EA9D01BF 
 210      47747A9B 
 210      7DA2
 211 0758 10101DBE 		.ascii	"\020\020\035\276\345b\221\307\343\027\353\250\256wz"
 211      E56291C7 
 211      E317EBA8 
 211      AE777A
 212 0767 3C3ED1E1 		.ascii	"<>\321\341Y\331\352h\011x\034\015\242\350\020=\360\033"
 212      59D9EA68 
 212      09781C0D 
 212      A2E8103D 
 212      F01B
 213 0779 0C1ABDAD 		.ascii	"\014\032\275\255\242\303K,\375\015\242\260J\265Z\014"
 213      A2C34B2C 
 213      FD0DA2B0 
 213      4AB55A0C 
 214 0789 F3D788CE 		.ascii	"\363\327\210\316`\273\234\250\311\361\212'AA\020\310"
 214      60BB9CA8 
 214      C9F18A27 
 214      414110C8 
 215 0799 9DAC9DDC 		.ascii	"\235\254\235\334a\365+\342\301G\227%\342\321\346\200"
 215      61F52BE2 
 215      C1479725 
 215      E2D1E680 
 216 07a9 38978683 		.ascii	"8\227\206\203yPEc\031\201\007\322:x\"\205\223\211\262"
 216      79504563 
 216      198107D2 
 216      3A782285 
 216      9389B2
 217 07bc ECA307B8 		.ascii	"\354\243\007\270\214\204:Sn\217?\320\034\310\0059\232"
 217      8C843A53 
 217      6E8F3FD0 
 217      1CC80539 
 217      9A
 218 07cd 0C27A5   		.ascii	"\014'\245"
 219 07d0 4782245E 		.ascii	"G\202$^s$)\031JI\215\015\001_\213\330<G\216<&oLB^#P"
 219      73242919 
 219      4A498D0D 
ARM GAS  /tmp/cckiuTge.s 			page 17


 219      015F8BD8 
 219      3C478E3C 
 220 07eb 39451BE4 		.ascii	"9E\033\344HG\350NBg\025\237\213\2734\212\253c\021\206"
 220      4847E84E 
 220      4267159F 
 220      8BBB348A 
 220      AB631186 
 221 07ff 1325C93D 		.ascii	"\023%\311=\272\213r\352\210qD\313\231\207\365\026T\003"
 221      BA8B72EA 
 221      887144CB 
 221      9987F516 
 221      5403
 222 0811 AD6A9E96 		.ascii	"\255j\236\226\325uv\252\031ZWW[\333\271\226\344H\364"
 222      D57576AA 
 222      195A5757 
 222      5BDBB996 
 222      E448F4
 223 0824 78A45628 		.ascii	"x\244V(eoh\235\000\361\365,[\016\021o\026K\033Z\032"
 223      656F689D 
 223      00F1F52C 
 223      5B0E116F 
 223      164B1B5A 
 224 0839 EBC5402B 		.ascii	"\353\305@+\035\324\221AqCS\243o\245XB^h\367:\270CjH"
 224      1DD49141 
 224      714353A3 
 224      6FA55842 
 224      5E68F73A 
 225 0851 8E026299 		.ascii	"\216\002b\231\350\013\370\304\207}\336\332\"\002R_\351"
 225      E80BF8C4 
 225      877DDEDA 
 225      2202525F 
 225      E9
 226 0862 6D5CEEF7 		.ascii	"m\\\356\367\254\326\301\213\233\275\236U^\337\377\000"
 226      ACD6C18B 
 226      9BBD9E55 
 226      5EDFFF00 
 227 0872 A54CC2F5 		.ascii	"\245L\302\365"
 228              		.text
 229              		.section	.gnu.lto_.symtab.147803ef7d7e56e,"",%progbits
 230 0000 56656374 		.ascii	"VectorB0\000\000\000\000\000\000\000\000\000\000\000"
 230      6F724230 
 230      00000000 
 230      00000000 
 230      000000
 231 0013 00A80000 		.ascii	"\000\250\000\000\000st_lld_init\000\000\000\000\000"
 231      0073745F 
 231      6C6C645F 
 231      696E6974 
 231      00000000 
 232 0028 00000000 		.ascii	"\000\000\000\000\000\000\000\254\000\000\000_port_i"
 232      000000AC 
 232      0000005F 
 232      706F7274 
 232      5F69
 233 003a 72715F65 		.ascii	"rq_epilogue\000\000\002\000\000\000\000\000\000\000"
 233      70696C6F 
 233      67756500 
ARM GAS  /tmp/cckiuTge.s 			page 18


 233      00020000 
 233      00000000 
 234 004f 0000AF00 		.ascii	"\000\000\257\000\000\000chSysTimerHandlerI\000\000\002"
 234      00006368 
 234      53797354 
 234      696D6572 
 234      48616E64 
 235 006a 00000000 		.ascii	"\000\000\000\000\000\000\000\000\000\261\000\000\000"
 235      00000000 
 235      00B10000 
 235      00
 236 0077 6E766963 		.ascii	"nvicEnableVector\000\000\002\000\000\000\000\000\000"
 236      456E6162 
 236      6C655665 
 236      63746F72 
 236      00000200 
 237 0090 000000B3 		.ascii	"\000\000\000\263\000\000\000"
 237      000000
 238              		.text
 239              		.section	.gnu.lto_.opts,"",%progbits
 240 0000 272D6D63 		.ascii	"'-mcpu=cortex-m3' '-mno-thumb-interwork' '-mthumb' "
 240      70753D63 
 240      6F727465 
 240      782D6D33 
 240      2720272D 
 241 0033 272D6767 		.ascii	"'-ggdb' '-O2' '-fomit-frame-pointer' '-falign-funct"
 241      64622720 
 241      272D4F32 
 241      2720272D 
 241      666F6D69 
 242 0066 696F6E73 		.ascii	"ions=16' '-ffunction-sections' '-fdata-sections' '-"
 242      3D313627 
 242      20272D66 
 242      66756E63 
 242      74696F6E 
 243 0099 666E6F2D 		.ascii	"fno-common' '-flto'\000"
 243      636F6D6D 
 243      6F6E2720 
 243      272D666C 
 243      746F2700 
 244              		.text
 245              		.cfi_sections	.debug_frame
 246              		.section	.text.VectorB0,"ax",%progbits
 247              		.align	2
 248              		.p2align 4,,15
 249              		.global	VectorB0
 250              		.thumb
 251              		.thumb_func
 252              		.type	VectorB0, %function
 253              	VectorB0:
 254              	.LFB219:
 255              		.file 1 "../os/hal/ports/STM32/LLD/TIMv1/hal_st_lld.c"
 256              		.loc 1 239 0
 257              		.cfi_startproc
 258              		@ args = 0, pretend = 0, frame = 0
 259              		@ frame_needed = 0, uses_anonymous_args = 0
 260 0000 08B5     		push	{r3, lr}
ARM GAS  /tmp/cckiuTge.s 			page 19


 261              		.cfi_def_cfa_offset 8
 262              		.cfi_offset 3, -8
 263              		.cfi_offset 14, -4
 264              		.loc 1 246 0
 265 0002 4FF08043 		mov	r3, #1073741824
 266 0006 1A69     		ldr	r2, [r3, #16]
 267 0008 9207     		lsls	r2, r2, #30
 268 000a 09D5     		bpl	.L2
 269              		.loc 1 247 0
 270 000c 0022     		movs	r2, #0
 271 000e 1A61     		str	r2, [r3, #16]
 272              	.LVL0:
 273              	.LBB52:
 274              	.LBB53:
 275              	.LBB54:
 276              	.LBB55:
 277              	.LBB56:
 278              	.LBB57:
 279              		.file 2 "../os/common/ext/CMSIS/include/cmsis_gcc.h"
 280              		.loc 2 264 0
 281 0010 2023     		movs	r3, #32
 282              	@ 264 "../os/common/ext/CMSIS/include/cmsis_gcc.h" 1
 283 0012 83F31188 		MSR basepri, r3
 284              	@ 0 "" 2
 285              		.thumb
 286              	.LBE57:
 287              	.LBE56:
 288              	.LBE55:
 289              	.LBE54:
 290              	.LBE53:
 291              	.LBE52:
 292              	.LBB58:
 293              	.LBB59:
 294              		.file 3 "../os/hal/osal/rt/osal.h"
 295              		.loc 3 585 0
 296 0016 FFF7FEFF 		bl	chSysTimerHandlerI
 297              	.LVL1:
 298              	.LBE59:
 299              	.LBE58:
 300              	.LBB60:
 301              	.LBB61:
 302              	.LBB62:
 303              	.LBB63:
 304              	.LBB64:
 305              	.LBB65:
 306              		.loc 2 264 0
 307 001a 0023     		movs	r3, #0
 308              	@ 264 "../os/common/ext/CMSIS/include/cmsis_gcc.h" 1
 309 001c 83F31188 		MSR basepri, r3
 310              	@ 0 "" 2
 311              	.LVL2:
 312              		.thumb
 313              	.L2:
 314              	.LBE65:
 315              	.LBE64:
 316              	.LBE63:
 317              	.LBE62:
ARM GAS  /tmp/cckiuTge.s 			page 20


 318              	.LBE61:
 319              	.LBE60:
 320              		.loc 1 255 0
 321 0020 BDE80840 		pop	{r3, lr}
 322              		.loc 1 254 0
 323 0024 FFF7FEBF 		b	_port_irq_epilogue
 324              	.LVL3:
 325              		.cfi_endproc
 326              	.LFE219:
 327              		.size	VectorB0, .-VectorB0
 328 0028 AFF30080 		.section	.text.st_lld_init,"ax",%progbits
 328      AFF30080 
 329              		.align	2
 330              		.p2align 4,,15
 331              		.global	st_lld_init
 332              		.thumb
 333              		.thumb_func
 334              		.type	st_lld_init, %function
 335              	st_lld_init:
 336              	.LFB220:
 337              		.loc 1 267 0
 338              		.cfi_startproc
 339              		@ args = 0, pretend = 0, frame = 0
 340              		@ frame_needed = 0, uses_anonymous_args = 0
 341              		@ link register save eliminated.
 342              		.loc 1 273 0
 343 0000 4FF48053 		mov	r3, #4096
 344 0004 C4F20203 		movt	r3, 16386
 345 0008 DA69     		ldr	r2, [r3, #28]
 346              		.loc 1 267 0
 347 000a 70B4     		push	{r4, r5, r6}
 348              		.cfi_def_cfa_offset 12
 349              		.cfi_offset 4, -12
 350              		.cfi_offset 5, -8
 351              		.cfi_offset 6, -4
 352              		.loc 1 273 0
 353 000c 42F00102 		orr	r2, r2, #1
 354              		.loc 1 276 0
 355 0010 4FF40051 		mov	r1, #8192
 356              		.loc 1 273 0
 357 0014 DA61     		str	r2, [r3, #28]
 358              		.loc 1 276 0
 359 0016 CEF20401 		movt	r1, 57348
 360 001a 4868     		ldr	r0, [r1, #4]
 361              		.loc 1 279 0
 362 001c 4FF08043 		mov	r3, #1073741824
 363              		.loc 1 281 0
 364 0020 0022     		movs	r2, #0
 365              		.loc 1 285 0
 366 0022 0124     		movs	r4, #1
 367              		.loc 1 276 0
 368 0024 40F40060 		orr	r0, r0, #2048
 369              		.loc 1 279 0
 370 0028 45F6BF56 		movw	r6, #23999
 371              		.loc 1 280 0
 372 002c 4FF6FF75 		movw	r5, #65535
 373              		.loc 1 276 0
ARM GAS  /tmp/cckiuTge.s 			page 21


 374 0030 4860     		str	r0, [r1, #4]
 375              		.loc 1 279 0
 376 0032 9E62     		str	r6, [r3, #40]
 377              		.loc 1 289 0
 378 0034 1C20     		movs	r0, #28
 379              		.loc 1 280 0
 380 0036 DD62     		str	r5, [r3, #44]
 381              		.loc 1 289 0
 382 0038 0821     		movs	r1, #8
 383              		.loc 1 281 0
 384 003a 9A61     		str	r2, [r3, #24]
 385              		.loc 1 282 0
 386 003c 5A63     		str	r2, [r3, #52]
 387              		.loc 1 283 0
 388 003e DA60     		str	r2, [r3, #12]
 389              		.loc 1 284 0
 390 0040 5A60     		str	r2, [r3, #4]
 391              		.loc 1 285 0
 392 0042 5C61     		str	r4, [r3, #20]
 393              		.loc 1 286 0
 394 0044 1C60     		str	r4, [r3]
 395              		.loc 1 304 0
 396 0046 70BC     		pop	{r4, r5, r6}
 397              		.loc 1 289 0
 398 0048 FFF7FEBF 		b	nvicEnableVector
 399              	.LVL4:
 400              		.cfi_endproc
 401              	.LFE220:
 402              		.size	st_lld_init, .-st_lld_init
 403 004c AFF30080 		.text
 404              	.Letext0:
 405              		.file 4 "/usr/include/newlib/machine/_default_types.h"
 406              		.file 5 "/usr/include/newlib/stdint.h"
 407              		.file 6 "../os/common/ports/ARMCMx/compilers/GCC/chtypes.h"
 408              		.file 7 "../os/rt/include/chsystypes.h"
 409              		.file 8 "../os/rt/include/chschd.h"
 410              		.file 9 "../os/common/ext/CMSIS/ST/STM32F1xx/stm32f100xb.h"
 411              		.file 10 "../os/common/ports/ARMCMx/chcore.h"
 412              		.file 11 "../os/common/ports/ARMCMx/chcore_v7m.h"
 413              		.file 12 "../os/hal/ports/STM32/LLD/TIMv1/stm32_tim.h"
 414              		.file 13 "../os/rt/include/chsem.h"
 415              		.file 14 "../os/rt/include/chmtx.h"
 416              		.file 15 "../os/rt/include/chsys.h"
 417              		.file 16 "../os/common/ext/CMSIS/include/core_cm3.h"
 418              		.file 17 "../os/hal/ports/common/ARMCMx/nvic.h"