ARM GAS  /tmp/ccsMqF3p.s 			page 1


   1              		.syntax unified
   2              		.cpu cortex-m3
   3              		.fpu softvfp
   4              		.eabi_attribute 20, 1
   5              		.eabi_attribute 21, 1
   6              		.eabi_attribute 23, 3
   7              		.eabi_attribute 24, 1
   8              		.eabi_attribute 25, 1
   9              		.eabi_attribute 26, 1
  10              		.eabi_attribute 30, 2
  11              		.eabi_attribute 34, 1
  12              		.eabi_attribute 18, 4
  13              		.thumb
  14              		.file	"main.c"
  15              		.text
  16              	.Ltext0:
  17              		.section	.gnu.lto_.jmpfuncs.7c0878ba4888a78,"",%progbits
  18 0000 789C6362 		.ascii	"x\234cb`b\300\006R\004\031\030\304\2014\033\003\003"
  18      6062C006 
  18      52041918 
  18      C481341B 
  18      0303
  19 0012 23500933 		.ascii	"#P\0113\003\013\003#S\004c&#\303\013v\006\006&\246j"
  19      030B0323 
  19      53046326 
  19      23C30B76 
  19      060626A6 
  20 0027 865F0D1D 		.ascii	"\206_\015\035\015\002\231\214\214\271\214`\015`\221"
  20      0D02998C 
  20      8CB98C60 
  20      0D6091
  21 0036 19201126 		.ascii	"\031 \021&9\006\306\271\0153\0342\031\231\3012\3540"
  21      3906C6B9 
  21      0D331C32 
  21      1999C132 
  21      EC30
  22 0048 9D1DEA0C 		.ascii	"\235\035\352\014\014\314\010\235,\271\214`\255`IV\030"
  22      0CCC089D 
  22      2CB98C60 
  22      AD604956 
  22      18
  23 0059 0368219A 		.ascii	"\003h!\232\"&\354\212\240\206.c\301o(i\246\201<7\262"
  23      2226EC8A 
  23      A0862E63 
  23      C16F2869 
  23      A6813C37 
  24 006e 9C4889D3 		.ascii	"\234H\211\323F\203m\010\006\033Q\2062\3204\317\336\341"
  24      46836D08 
  24      061B5186 
  24      32D034CF 
  24      DEE1
  25 0080 1E29C147 		.ascii	"\036)\301G\023'\016\346\340\033q\036\036M/\303\267\220"
  25      13270EE6 
  25      E01B711E 
  25      1E4D2FC3 
  25      B790
  26 0092 27CED0C1 		.ascii	"'\316\320\301\034|\203 \365\215&\351\241\027'\243\301"
ARM GAS  /tmp/ccsMqF3p.s 			page 2


  26      1C7C8320 
  26      F58D26E9 
  26      A11727A3 
  26      C1
  27 00a3 47FF243D 		.ascii	"G\377$=\230\375\315\212P\304\236\013\351\326\201\345"
  27      98FDCD8A 
  27      50C49E0B 
  27      E9D681E5 
  28 00b3 384E30C1 		.ascii	"8N0\301T5\002\315G\250\342L\206\366\012Ar\\ \006\226"
  28      543502CD 
  28      47A8E24C 
  28      86F60A41 
  28      725C2006 
  29 00c8 1E23488E 		.ascii	"\036#H\216\033U\016\303\235D\371\201\021\213\",Bp\021"
  29      1B550EC3 
  29      9D44F981 
  29      118B222C 
  29      427011
  30 00db 9E5C4616 		.ascii	"\236\\F\026LELx,\306\031u\230\212\260\010![\314\012"
  30      4C454C78 
  30      2CC61975 
  30      988AB008 
  30      215BCC0A 
  31 00ef C95D2013 		.ascii	"\311] \023x\033f\2644\260\300\214kh`\2042\371\330p\250"
  31      781B66B4 
  31      34B0C08C 
  31      6B686084 
  31      32F9D870 
  32 0104 E020A4A0 		.ascii	"\340 \244\240\201\211\220\012\001,\012&\220\244\000"
  32      8189900A 
  32      012C0A26 
  32      90A400
  33 0113 9B235014 		.ascii	"\233#P\024\260\020R\200\315\221(\012\340\001\301\202"
  33      B0105280 
  33      CD91280A 
  33      E001C182 
  34 0123 5D810301 		.ascii	"]\201\003\001y\005\002\362\204\374H\310\213\204|\010"
  34      790502F2 
  34      84FC48C8 
  34      8B847C08 
  35 0133 F7201376 		.ascii	"\367 \023vyF$y \020K\316\317-\315\313LNL\316\314\317"
  35      79462479 
  35      20104BCE 
  35      CF2DCDCB 
  35      4C4E4CCE 
  36 0149 53080EF1 		.ascii	"S\010\016\36156R\340\345b\000\000\303\036\261\226"
  36      353652E0 
  36      E5620000 
  36      C31EB196 
  37              		.text
  38              		.section	.gnu.lto_.inline.7c0878ba4888a78,"",%progbits
  39 0000 789CC594 		.ascii	"x\234\305\224=\022\2020\020\205_6\233\340\017\014cg"
  39      3D128230 
  39      10855F36 
  39      9BE00F0C 
  39      6367
  40 0012 C7553C81 		.ascii	"\307U<\201\347\262\364\010x\022;m=\212\245\225c\022"
ARM GAS  /tmp/ccsMqF3p.s 			page 3


  40      E7B2F408 
  40      78123B6D 
  40      3D8AA595 
  40      6312
  41 0024 12062661 		.ascii	"\022\006&a\200\261\010\005o\371\370\362\206\241X\002"
  41      80B10805 
  41      6FF9F8F2 
  41      86A15802 
  42 0034 21759D54 		.ascii	"!u\235T\227\032`)@\364\252\241\333\306\311\"F\024#\031"
  42      971A6029 
  42      40F4AAA1 
  42      DBC6C922 
  42      46142319 
  43 0048 23C6F67B 		.ascii	"#\306\366{0\214\333\306\314\335\301\2750}\262\024\366"
  43      308CDBC6 
  43      CCDDC1BD 
  43      307DB214 
  43      F6
  44 0059 B1C0AD78 		.ascii	"\261\300\255x\3367f\276\350\367\347q\034K\\\031\321"
  44      DE3766BE 
  44      E8F7E771 
  44      1C4B5C19 
  44      D1
  45 006a B6F81CD1 		.ascii	"\266\370\034\321\3539\211\377\220{i0d\356\306\254L\216"
  45      EB3989FF 
  45      907B6930 
  45      64EEC6AC 
  45      4C8E
  46 007c 52A8A660 		.ascii	"R\250\246`\017x\237I\272H^P\315\216\262\247\034S\333"
  46      0F789F49 
  46      BA485E50 
  46      CD8EB2A7 
  46      1C53DB
  47 008f C1A163D6 		.ascii	"\301\241c\326\306\032y]uog\376\352\274\277I9\256\274"
  47      C61A795D 
  47      756F67FE 
  47      EABCBF49 
  47      39AEBC
  48 00a2 ADBC9DA0 		.ascii	"\255\274\235\240\323\262tTz*\247\251\255H\311\272\006"
  48      D3B27454 
  48      7A2AA7A9 
  48      AD48C9BA 
  48      06
  49 00b3 BAB5234B 		.ascii	"\272\265#K\273RBp\005_\006\267+f\337\005\230+\305.\334"
  49      BB524270 
  49      055F06B7 
  49      2B66DF05 
  49      982BC52E 
  50 00c8 F0032630 		.ascii	"\360\003&06k"
  50      366B
  51              		.text
  52              		.section	.gnu.lto_.pureconst.7c0878ba4888a78,"",%progbits
  53 0000 789C6362 		.ascii	"x\234cb`b\340e\200\0006\006)F)&)f)\0263v3\000\006:\000"
  53      6062E065 
  53      80003606 
  53      29462926 
  53      29662916 
ARM GAS  /tmp/ccsMqF3p.s 			page 4


  54 001b FD       		.ascii	"\375"
  55              		.text
  56              		.section	.gnu.lto_pwmpcb.7c0878ba4888a78,"",%progbits
  57 0000 789C6362 		.ascii	"x\234cb`b@\007\222@<\003\2109\201\230\221\231\201\221"
  57      60624007 
  57      92403C03 
  57      88398198 
  57      91998191 
  58 0014 69C23906 		.ascii	"i\3029\006\206F\016&FF\020\203\201\221\241\236\211\261"
  58      86460E26 
  58      46461083 
  58      8191A19E 
  58      89B1
  59 0026 3E9211AC 		.ascii	">\222\021\254v=\323\201\007\377\377\257\273\263\345"
  59      763DD381 
  59      07FFFFAF 
  59      BBB3E5
  60 0035 91355029 		.ascii	"\2215P)\003\003+CKC\303\004\005\006\206d\260|\010\220"
  60      03032B43 
  60      4B43C304 
  60      05068664 
  60      B07C0890 
  61 0049 04690A65 		.ascii	"\004i\012ed\002\321\314g\031\016\355\270\321\307\230"
  61      6402D1CC 
  61      67190EED 
  61      B8D1C798 
  62 0059 C8B89091 		.ascii	"\310\270\220\221\225A\233aUC\013c&#\303l\206Y@\2121"
  62      95419B61 
  62      55430B63 
  62      2623C36C 
  62      8659408A 
  63 006e 02483035 		.ascii	"\002H05Lhi`a\0003\301\026$A\354\001\21307\200\304.2"
  63      4C686960 
  63      610033C1 
  63      162441EC 
  63      018B3037 
  64 0086 343ED8CD 		.ascii	"4>\330\315\0041\002\006B\030\031A\346\203\244\331s\023"
  64      04310206 
  64      42181941 
  64      E683A4D9 
  64      7313
  65 0098 33F3F492 		.ascii	"3\363\364\222\031\000W\223(\366"
  65      19005793 
  65      28F6
  66              		.text
  67              		.section	.gnu.lto_pwmc1cb.7c0878ba4888a78,"",%progbits
  68 0000 789C5D4D 		.ascii	"x\234]M;\012\302@\024\234ykP\217`g/x\020\353\010Z\306"
  68      3B0AC240 
  68      149C796B 
  68      508F6067 
  68      2F7810EB 
  69 0017 5429F40A 		.ascii	"T)\364\012\331\300\036 X\211V\266\026\332n)\226\202"
  69      D9C01E20 
  69      588956B6 
  69      16DA6E29 
  69      9682
  70 0029 8237081E 		.ascii	"\2027\010\036\303&\276\335`\343\203y3\314\274\217@\360"
ARM GAS  /tmp/ccsMqF3p.s 			page 5


  70      C326BEDD 
  70      60E38379 
  70      33CCBC8F 
  70      40F0
  71 003b 5F23C54E 		.ascii	"_#\305N1T\320\200R?\201j d\020 Ja\271d\234\275\310\265"
  71      3154D080 
  71      523F816A 
  71      20641020 
  71      4A61B964 
  72 0053 69DBF3C7 		.ascii	"i\333\363\307\277g:\012$p\326\326c \217y\252=,\315)"
  72      BF673A0A 
  72      2470D6D6 
  72      63208F79 
  72      AA3D2CCD 
  73 0068 81CD0337 		.ascii	"\201\315\0037\357\267\314xd\202\011N\326\261 \016\330"
  73      EFB7CC78 
  73      6482094E 
  73      D6B1200E 
  73      D8
  74 0079 2B71A14D 		.ascii	"+q\241Ml\355l\017Q\306\007\253\356Ot\214\015\336\013"
  74      6CED6C0F 
  74      51C607AB 
  74      EE4F748C 
  74      0DDE0B
  75 008c 557397EE 		.ascii	"Us\227\356\304\257R2\334\017q\177\235\025\233i\216/"
  75      C4AF5232 
  75      DC0F717F 
  75      9D159B69 
  75      8E2F
  76 009e 6A4A291A 		.ascii	"jJ)\032"
  77              		.text
  78              		.section	.gnu.lto_pwmp2cb.7c0878ba4888a78,"",%progbits
  79 0000 789C5D4D 		.ascii	"x\234]M1\012\302@\020\234\3313\030\237`g/\370\232\010"
  79      310AC240 
  79      109CD933 
  79      189F6067 
  79      2FF89A08 
  80 0014 5AC65429 		.ascii	"Z\306T)\264\267\312\005\356\001)\203\202`k\241\255v"
  80      B4B7CA05 
  80      EE012983 
  80      82606BA1 
  80      AD76
  81 0026 62AF606B 		.ascii	"b\257`k\025\374\205U\334\273`\343\302\354\016\2733;"
  81      15FC8555 
  81      DCBB60E3 
  81      C2EC0EBB 
  81      333B
  82 0038 02C17F0D 		.ascii	"\002\301\177\015\025\265b\240\240\001\245z\000e,\244"
  82      15B562A0 
  82      A001A57A 
  82      00652CA4 
  83 0048 27200A61 		.ascii	"' \012a1g\320\236\344\332\264\355\361uy\257U\012Dp\326"
  83      3167D09E 
  83      E4DAB4ED 
  83      F17579AF 
  83      550A4470 
  84 005d 5623200B 		.ascii	"V# \013\367D\2737M)~\232;n\347z\307\224{F\030\343`\035"
ARM GAS  /tmp/ccsMqF3p.s 			page 6


  84      F744BB37 
  84      4D297E9A 
  84      3B6EE77A 
  84      C7947B46 
  85 0075 73628B8D 		.ascii	"sb\213\215\016\316\264\211\255\234\355!\320\020\260"
  85      0ECEB489 
  85      AD9CED21 
  85      D010B0
  86 0084 E872C2C6 		.ascii	"\350r\302\306\330X\331\023e\363\221\356\305\257\022"
  86      D858D913 
  86      65F391EE 
  86      C5AF12
  87 0093 D2FFF796 		.ascii	"\322\377\367\226\3762\315W\223\014_rC)K"
  87      FE32CD57 
  87      930C5F72 
  87      43294B
  88              		.text
  89              		.section	.gnu.lto_pwmc2cb.7c0878ba4888a78,"",%progbits
  90 0000 789C5D4D 		.ascii	"x\234]M1\012\302@\020\234\331\030\214O\260\263\027|"
  90      310AC240 
  90      109CD918 
  90      8C4FB0B3 
  90      177C
  91 0012 4D042D63 		.ascii	"M\004-c\252\024\372\205\\\340\036p\245h!\266\026\332"
  91      AA14FA85 
  91      5CE01E70 
  91      A56821B6 
  91      16DA
  92 0024 6A27F60A 		.ascii	"j'\366\012v\226\301G\330\236{\027l\\\230\335awfG \370"
  92      7696C147 
  92      D89E7B17 
  92      6C5C98DD 
  92      61776647 
  93 003a AFA162AD 		.ascii	"\257\241b\255\030(\230\200\342\036@\223\011\031\010"
  93      18289880 
  93      E21E4093 
  93      091908
  94 0049 885A58CF 		.ascii	"\210ZX\317\031\265'\271\266\336\037?\227w\255R \205"
  94      19B527B9 
  94      B6DE1F3F 
  94      9777AD52 
  94      2085
  95 005b 35C68D80 		.ascii	"5\306\215\2002\336s\355\3014\245\204\231\334q;\277v"
  95      32DE73ED 
  95      C134A584 
  95      99DC713B 
  95      BF76
  96 006d 2CB8678A 		.ascii	",\270g\2121\016\306\262\"\266\330\350\340L\233\030g"
  96      310EC6B2 
  96      22B6D8E8 
  96      E04C9B18 
  96      67
  97 007e 4D0F91C6 		.ascii	"M\017\221\306\200E\227\0237\211\311\224=\321\264^\272"
  97      80459713 
  97      3789C994 
  97      3DD1B45E 
  97      BA
ARM GAS  /tmp/ccsMqF3p.s 			page 7


  98 008f 17BFCAC9 		.ascii	"\027\277\312\311\360?X\372\313\242ZMJ|\001\240\257)"
  98      F03F58FA 
  98      CBA25A4D 
  98      4A7C01A0 
  98      AF29
  99 00a1 B4       		.ascii	"\264"
 100              		.text
 101              		.section	.gnu.lto_Thread2.7c0878ba4888a78,"",%progbits
 102 0000 789C6551 		.ascii	"x\234eQ\277k\024Q\020\236y\273w\267^\314\257F\221\300"
 102      BF6B1451 
 102      109E79BB 
 102      77B75ECC 
 102      AF4691C0 
 103 0014 71043BF1 		.ascii	"q\004;\361\016\222*\235\371\003\304\"\027\324r\363\262"
 103      0E922A9D 
 103      F903C422 
 103      17D472F3 
 103      B2
 104 0025 240FDC3D 		.ascii	"$\017\334=\270\037\205Xdr$\020H\220#(\204\004\321\010"
 104      B81F8558 
 104      64722410 
 104      48902328 
 104      8404D108 
 105 0039 A7609140 		.ascii	"\247`\221@\312\244\271&E85\242\235Xli!\202\240\215\205"
 105      CAA4B926 
 105      453835A2 
 105      9D586C69 
 105      2182A08D 
 106 004e E7BCF7F6 		.ascii	"\347\274\367\366V\324\201}ofv\346\233\357\233'@\300"
 106      56D4817D 
 106      6F6676E6 
 106      9BEF9B27 
 106      40C0
 107 0060 BF769DBF 		.ascii	"\277v\235\277\253\234\276\3057f\000E\373-\300\252'\320"
 107      AB9CBEC5 
 107      37660045 
 107      FB2DC0AA 
 107      27D0
 108 0072 B18E83AE 		.ascii	"\261\216\203\256u\\\233\231EX\021\216\213+w\321\364"
 108      755C9B99 
 108      4558118E 
 108      8B2B77D1 
 108      F4
 109 0083 1F8A6EDC 		.ascii	"\037\212n\334\357\037\034\367:[x(\274,(\223\317\300"
 109      EF1F1CF7 
 109      3A5B7828 
 109      BC2C2893 
 109      CFC0
 110 0095 1A51BB08 		.ascii	"\032Q\273\010 MX\341\023a\036\005\240s\006-\017`\022"
 110      204D58E1 
 110      13611E05 
 110      A073062D 
 110      0F6012
 111 00a8 F689B6BB 		.ascii	"\366\211\266\273'\233[W\350Y\253M\277\372}T\310\005"
 111      279B5B57 
 111      E859AB4D 
 111      BFFA7D54 
ARM GAS  /tmp/ccsMqF3p.s 			page 8


 111      C805
 112 00ba 79D43D77 		.ascii	"y\324=w8\020Es9\356\337\214\037\300O\332\241\356\207"
 112      38104573 
 112      39EEDF8C 
 112      1FC04FDA 
 112      A1EE87
 113 00cd CDCB0ADD 		.ascii	"\315\313\012\335\002\214>\241\235\033\212\251\373\270"
 113      028C3EA1 
 113      9D1B8AA9 
 113      FBB8
 114 00db CF27DB1B 		.ascii	"\317'\333\033h}\374\364\360\365\221\223\222\260N\267"
 114      687DFCF4 
 114      F0F59193 
 114      92B04EB7 
 115 00eb F7FD7DC6 		.ascii	"\367\375}\306\307\3478\311E\266Z\242\241\267\204\331"
 115      C7E738C9 
 115      45B65AA2 
 115      A1B784D9 
 116 00fb 6BF08A88 		.ascii	"k\360\212\210\342\037\361\243\011V`#\032R\230\335\203"
 116      E21FF1A3 
 116      09566023 
 116      1A5298DD 
 116      83
 117 010c DD55A231 		.ascii	"\335U\2421\2059=xC{^h\27249\317PZ@\203\370R\317_\320"
 117      85393D78 
 117      437B5E68 
 117      BA3439CF 
 117      505A4083 
 118 0125 90896FB8 		.ascii	"\220\211o\270\364\336\215\370\370\202\303\004\3646\313"
 118      F4DE8DF8 
 118      F882C304 
 118      F436CB
 119 0134 4C412FF0 		.ascii	"LA/\360h\215\003\011\216H{\255\314\270s\374M\260N\037"
 119      688D0309 
 119      8E487BAD 
 119      CCB873FC 
 119      4DB04E1F 
 120 0148 3B58F823 		.ascii	";X\370#Q\333<:\300/\342\234\303z\374\3454;\370\227\262"
 120      51DB3C3A 
 120      C02FE29C 
 120      C37AFCE5 
 120      343BF897 
 121 015d CC4B14E9 		.ascii	"\314K\024\351\3026\210\036\363\230\241\0201)\264\370"
 121      C236881E 
 121      F398A110 
 121      3129B4F8 
 122 016d F494B317 		.ascii	"\364\224\263\027\0130c\2678<\030\241p\004\340\034\326"
 122      0B3063B7 
 122      383C18A1 
 122      7004E01C 
 122      D6
 123 017e E2AFC17F 		.ascii	"\342\257\301\177\300\243\222'\017\0260\3669\307\305"
 123      C0A39227 
 123      0F1630F6 
 123      39C7C5
 124 018d E3965205 		.ascii	"\343\226R\005]M\011+\230\010\312\205\276\212J\022\334"
 124      5D4D092B 
ARM GAS  /tmp/ccsMqF3p.s 			page 9


 124      9808CA85 
 124      BE8A4A12 
 124      DC
 125 019e C80F837C 		.ascii	"\310\017\203|=\210\026\247\232~\255\001\205R\251\\\255"
 125      3D8816A7 
 125      9A7EAD01 
 125      8552A95C 
 125      AD
 126 01af 976B8DB2 		.ascii	"\227k\215\262\212\344\275\346bP\226\313\265`I\325\033"
 126      8AE4BDE6 
 126      625096CB 
 126      B56049D5 
 126      1B
 127 01c0 B5FBA565 		.ascii	"\265\373\245e\270$\253a3R\322\227\252\032\025\347*7"
 127      B824AB61 
 127      3352D297 
 127      AA1A15E7 
 127      2A37
 128 01d2 A7A78AC3 		.ascii	"\247\247\212\303y\370\015\250#\247\036"
 128      79F80DA8 
 128      23A71E
 129              		.text
 130              		.section	.gnu.lto_main.7c0878ba4888a78,"",%progbits
 131 0000 789CAD3C 		.ascii	"x\234\255<ip\224\307\225\335\375\215n\011\201\270\357"
 131      697094C7 
 131      95DDFD8D 
 131      6E0981B8 
 131      EF
 132 0011 FBC6E2BE 		.ascii	"\373\306\342\276\261\001c\257\355\255\212\235\304\306"
 132      B10163AF 
 132      EDAD8A9D 
 132      C4C6
 133 001f 492A95DD 		.ascii	"I*\225\335r\224-\254\324\262\233\330\331\252\244R\011"
 133      72942DAC 
 133      D4B29BD8 
 133      D9AAA452 
 133      09
 134 0030 23240721 		.ascii	"#$\007!$\2031PS\266\001q\030\204\004\022HH\014\310\026"
 134      24833150 
 134      53B60171 
 134      18840412 
 134      48480CC8 
 135 0045 58605B12 		.ascii	"X`[\022\010\250\262\313\310\3420\313\245\001\331\002"
 135      08A8B2CB 
 135      C8E230CB 
 135      A501D902 
 136 0055 23176885 		.ascii	"#\027h\205\303\354\367\336w\364\247\231\371F\363M\367"
 136      C3ECF7DE 
 136      77F4A799 
 136      F946F34D 
 136      F7
 137 0066 FC78F34D 		.ascii	"\374x\363M\367{\257\337\325\357\275\356\031\211\021"
 137      F77BAFDF 
 137      D5EFBDEE 
 137      198911
 138 0075 46025FFF 		.ascii	"F\002_\377\243\020\362\362\237\010\3717\365\231>C(\333"
 138      A310F2F2 
ARM GAS  /tmp/ccsMqF3p.s 			page 10


 138      9F08F937 
 138      F5993E43 
 138      28DB
 139 0087 709690AC 		.ascii	"p\226\220\254xF\207j\017\012s\345\216'\356\304\030\200"
 139      7846876A 
 139      0F0A73E5 
 139      8E27EEC4 
 139      1880
 140 0099 C92E1AA3 		.ascii	"\311.\032\243\015\307\260X\034\216\303\341X\032\247"
 140      0DC7B058 
 140      1C8EC3E1 
 140      581AA7
 141 00a8 0DC7B178 		.ascii	"\015\307\261x\034N\300\341x\232\240\015'\260D\034N\302"
 141      1C4EC0E1 
 141      789AA00D 
 141      27B0441C 
 141      4EC2
 142 00ba E1449AA4 		.ascii	"\341D\232\244\015'\261d\034N\301\341d\232\242\015\247"
 142      0D27B164 
 142      1C4EC1E1 
 142      649AA20D 
 142      A7
 143 00cb B01E389C 		.ascii	"\260\0368\234\212\303=h\2526\234\312z\342p/\034\356"
 143      8AC33D68 
 143      AA369CCA 
 143      7AE2702F 
 143      1CEE
 144 00dd 497B69C3 		.ascii	"I{i\303\275X\032\016\367\306\3414\332[\033\356\2350"
 144      BD581A0E 
 144      F7C6E134 
 144      DA5B1BEE 
 144      9D30
 145 00ef E4423C71 		.ascii	"\344B<q\307\367A\330\027a?\204\375\021\016@8\020\341"
 145      C7F741D8 
 145      17613F84 
 145      FD110E40 
 145      3810E1
 146 0102 20848335 		.ascii	" \204\2035|:Dc\320\327x\350g<\3647\036\006\030\017\003"
 146      7C3A4463 
 146      D0D778E8 
 146      673CF437 
 146      1E06180F 
 147 0117 8D8741C6 		.ascii	"\215\207A\306\303`\343a\210f\300\245C\231\202\342=\211"
 147      C360E361 
 147      8866C0A5 
 147      439982E2 
 147      3D89
 148 0129 E23D4997 		.ascii	"\342=I\227\302(\035\306\206\337\353\253\216\316.\234"
 148      C2281DC6 
 148      86DFEBAB 
 148      8ECE2E9C 
 149 0139 A78E0E67 		.ascii	"\247\216\016g#\262'\300\247\202q\352\247\021t\246\306"
 149      23B227C0 
 149      A78271EA 
 149      A71174A6 
 149      C6
 150 014a 62241B85 		.ascii	"b$\033\205Hc\020i\024\033}1\021>U\236$\352\307\321t"
ARM GAS  /tmp/ccsMqF3p.s 			page 11


 150      48631069 
 150      141B7D31 
 150      113E559E 
 150      24EAC7D1 
 151 015f 8C863586 		.ascii	"\214\2065\206\215\255U\324\361eg\033`\374$\241\263p"
 151      8DAD55D4 
 151      F165671B 
 151      60FC24A1 
 151      B370
 152 0171 E1B16C3C 		.ascii	"\341\261l<.<\016\027\036\247\177\232\212\237\306\263"
 152      2E3C0E17 
 152      1EA77F9A 
 152      8A9FC6B3 
 153 0181 09C86BA2 		.ascii	"\011\310k\242\306k\002\235\250\361\232\310&\301Z\211"
 153      C66B029D 
 153      A8F19AC8 
 153      26C15A89 
 154 0191 5360DDE4 		.ascii	"S`\335\344Il2\2125\005\305\232L\247hHS\330\023\026V"
 154      496C328A 
 154      3505C59A 
 154      4CA76848 
 154      53D81316 
 155 01a6 4FB07464 		.ascii	"O\260td5Uc\225N\247jXS\331\364/\373\251\343\323>\232"
 155      35556395 
 155      4EA76A58 
 155      53D9F42F 
 155      FBA9E3D3 
 156 01bc AB0E4F63 		.ascii	"\253\016Oc\323\221f\006\322L\24734\244\031\232\252K"
 156      D3916606 
 156      D24CA733 
 156      34A4199A 
 156      AA4B
 157 01ce 676A32D3 		.ascii	"gj2\323Yl$j\2218\033TJ\236\315\346\240jOk\252\325\022"
 157      596C246A 
 157      91381B54 
 157      4A9ECDE6 
 157      A06A4F6B 
 158 01e5 FA14A2CF 		.ascii	"\372\024\242\317a\363\220\367\\\344=\227\315C\336\363"
 158      61F390F7 
 158      5CE43D97 
 158      CD43DEF3 
 159 01f5 91F73C3A 		.ascii	"\221\367<:_\343=\237-D\244\005\210\264\200-D\244E\210"
 159      5FE33D9F 
 159      2D44A405 
 159      88B4802D 
 159      44A44588 
 160 0209 B4902ED2 		.ascii	"\264\220.\322\220\026i\376X\372\211\316\232>\305\206"
 160      901669FE 
 160      58FA89CE 
 160      9A3EC586 
 161 0219 A10516A3 		.ascii	"\241\005\026\243\005\026\263a\232<KP\236\023\304\360"
 161      0516B361 
 161      9A3C4B50 
 161      9E13C4F0 
 162 0229 2E25AB98 		.ascii	".%\253\230\342\212\211\215\213OHLJN\351\221\332\263"
 162      E28A898D 
 162      8B4F484C 
ARM GAS  /tmp/ccsMqF3p.s 			page 12


 162      4A4EE991 
 162      DAB3
 163 023b 575AEF3E 		.ascii	"WZ\357>}\373\365\0370p\320\340!C\237\0346|\304\310Q"
 163      7DFBF51F 
 163      3070D0E0 
 163      21439F1C 
 163      367CC4C8 
 164 0250 A3C79C24 		.ascii	"\243\307\234$c\307\215\2370q\322\344)O\244O\2356}\306"
 164      63C78D9F 
 164      3071D2E4 
 164      294FA44F 
 164      9D367DC6 
 165 0264 CC59B36B 		.ascii	"\314Y\263k\311\234\271\363\346/X\270\350\023\362\324"
 165      C99CB9F3 
 165      E62F58B8 
 165      E813F2D4 
 166 0274 6295E1AA 		.ascii	"b\225\341\252_Q\330\206I\243\310\016\267{\303\325\233"
 166      5F51D886 
 166      49A3C80E 
 166      B77BC3D5 
 166      9B
 167 0285 151B07E6 		.ascii	"\025\033\007\346\025\256\336\340~\354\367\323L\252n"
 167      15AEDEE0 
 167      7EECF7D3 
 167      4CAA6E
 168 0294 D8444A32 		.ascii	"\330DJ2(\371\245\372\201\216\3007\346\352\272\2035\312"
 168      28F9A5FA 
 168      818EC037 
 168      E6EABA83 
 168      35CA
 169 02a6 1397B7BC 		.ascii	"\023\227\267\274\035@\231\026\031\245\273\274\310\235"
 169      1D409916 
 169      19A5BBBC 
 169      C89D
 170 02b4 50E8FED1 		.ascii	"P\350\376\321\357W\220lP\204d\357\334\374i\235;\347"
 170      EF57906C 
 170      508464EF 
 170      DCFC699D 
 170      3BE7
 171 02c6 84DFBF18 		.ascii	"\204\337\277\030\311FE\267\332\244\010\325\333\376\336"
 171      C94645B7 
 171      DAA408D5 
 171      DBFEDE
 172 02d5 FA810D5D 		.ascii	"\372\201\015]\324\233\021\222r%\015\"=~es\000\351\002"
 172      D49B1192 
 172      72250D22 
 172      3D7E6573 
 172      00E902
 173 02e8 1B521A48 		.ascii	"\033R\032H\372\305\366M\001\244OGF\272\361D\345\205"
 173      FAC5F64D 
 173      01A44F47 
 173      46BAF144 
 173      E585
 174 02fa FCFE7957 		.ascii	"\374\376yW\335\006\251\302\310\277r\322x\215\324\"\253"
 174      DD06A9C2 
 174      C8BF72D2 
 174      788DD422 
ARM GAS  /tmp/ccsMqF3p.s 			page 13


 174      AB
 175 030b 85F2684B 		.ascii	"\205\362hK\241\325\223.F^\214\310H\033O\034\274S\267"
 175      A1D5932E 
 175      465E8CC8 
 175      481B4F1C 
 175      BC53B7
 176 031e 83BA37BA 		.ascii	"\203\2727\272\263\356\371\375\251H\371jw\224e\354\304"
 176      B3EEF9FD 
 176      A948F96A 
 176      779465EC 
 176      C4
 177 032f 55BF3FBF 		.ascii	"U\277?\277\275\360\177\277\241\357\261\357\225\251\344"
 177      BDF07FBF 
 177      A1EFB1EF 
 177      95A9E4
 178 033e 35BA838E 		.ascii	"5\272\203\216\"\323\211J?\003\300L\000\263\001\314\001"
 178      22D3894A 
 178      3F03C04C 
 178      00B301CC 
 178      01
 179 034f 3017C07C 		.ascii	"0\027\300|\000\013\000,\004\260\030\300\022\000K\001"
 179      000B002C 
 179      04B018C0 
 179      12004B01 
 180 035f 2C03F00C 		.ascii	",\003\360\014\200g\001<\007\340y\000/\000\370\011\200"
 180      8067013C 
 180      07E07900 
 180      2F00F809 
 180      80
 181 0370 1701BC04 		.ascii	"\027\001\274\004\340g\000~\016\340e\000\257\352\353"
 181      E067007E 
 181      0EE06500 
 181      AFEAEB
 182 037f AF50DF77 		.ascii	"\257P\337w\251\357\257\253\357\037\252\357\231\352\373"
 182      A9EFAFAB 
 182      EF1FAAEF 
 182      99EAFB
 183 038e 5EF5FDF7 		.ascii	"^\365\375\367\352\373>\365\375\017\200\374G\000o\000"
 183      EAFB3EF5 
 183      FD0F80FC 
 183      47006F00 
 184 039e F81B80BF 		.ascii	"\370\033\200\277\003X\005 \213\002\\\2150\033\341\032"
 184      03580520 
 184      8B025C8D 
 184      301BE11A 
 185 03ae AA13E6C2 		.ascii	"\252\023\346\302C\205\372\260\026\307\363\020\256C\230"
 185      4385FAB0 
 185      16C7F310 
 185      AE4398
 186 03bd 0F306613 		.ascii	"\0170f\023>oF\270\005a!\302\035\010w\"\334\215\360C"
 186      3E6F46B8 
 186      056121C2 
 186      1D087722 
 186      DC8DF043 
 187 03d1 847B1016 		.ascii	"\204{\020\026S]\320\022x\250T\037\366\343\370\001\204"
 187      535DD012 
 187      78A8541F 
ARM GAS  /tmp/ccsMqF3p.s 			page 14


 187      F6E3F801 
 187      84
 188 03e2 A508CB90 		.ascii	"\245\010\313\220\377\021|\366\"<\212\360\024\302O\021"
 188      FF117CF6 
 188      223C8AF0 
 188      14C24F11 
 189 03f2 7E86F00B 		.ascii	"~\206\360\013\252\253\373\245!v3\216_Dx\011a\013L\035"
 189      AAABFBA5 
 189      2176338E 
 189      5F447809 
 189      610B4C1D 
 190 0406 52A77C06 		.ascii	"R\247|\006\362m\003\371\016\325\255\327jH\365=\222\334"
 190      F26D03F9 
 190      0ED5ADD7 
 190      6A48F53D 
 190      92DC
 191 0418 47D88ED0 		.ascii	"G\330\216\320oP\271\231N\225\305\320h\010\263\021\346"
 191      6F50B999 
 191      4E95C5D0 
 191      6808B311 
 191      E6
 192 0429 207C0BE1 		.ascii	" |\013\341\032@+\001\273\341\307<\204\353\020\026 |"
 192      1A402B01 
 192      BBE1C73C 
 192      84EB1016 
 192      207C
 193 043b 1BE17A84 		.ascii	"\033\341z\204\233\230\316|\263A\365\001\216oE\270\015"
 193      9B98CE7C 
 193      B341F501 
 193      8E6F45B8 
 193      0D
 194 044c 61B18153 		.ascii	"a\261\201Sb\340\3547$)C\204\203\010\017!\254@x\030a"
 194      62E0EC37 
 194      24294384 
 194      83080F21 
 194      AC407818 
 195 0461 25C26306 		.ascii	"%\302c\006y\265A^\313t\255O2]\353S\006\316\247\006\347"
 195      79B5415E 
 195      CB74AD4F 
 195      325DEB53 
 195      06CEA706 
 196 0476 D3487B06 		.ascii	"\323H{\006a#\302&\204_#lFx\011\341e\204W\020^78\337"
 196      6123C226 
 196      845F236C 
 196      467809E1 
 196      65845710 
 197 048e 808703EA 		.ascii	"\200\207\003\352C\013\216\373\020\336Fx\007a+\302\373"
 197      430B8EFB 
 197      10DE4678 
 197      07612BC2 
 197      FB
 198 049f 08DB11FE 		.ascii	"\010\333\021\376\200\3601B?B\267\202vF\230\2150\007"
 198      80F03142 
 198      3F42B782 
 198      7646988D 
 198      3007
 199 04b1 E15A455F 		.ascii	"\341ZE_%\017\036\312\324\207wp|#\302w\021nC\270\035"
ARM GAS  /tmp/ccsMqF3p.s 			page 15


 199      250F1ECA 
 199      D4877770 
 199      7C23C277 
 199      116E43B8 
 200 04c6 6121C29D 		.ascii	"a!\302\235\010w!\334\215p\237\242k]\254\350\226)78W"
 200      087721DC 
 200      8D709FA2 
 200      6B5DACE8 
 200      96293738 
 201 04db 28BA650E 		.ascii	"(\272e\016#f%\302*\204G\020z\021\326 <\216\360\004\302"
 201      236625C2 
 201      2A844710 
 201      7A11D620 
 201      3C8EF004 
 202 04f0 5A842711 		.ascii	"Z\204'\021\236BXo\360l0\244=\203\343\215\010\317\"<"
 202      9E42586F 
 202      F06C30A4 
 202      3D83E38D 
 202      08CF223C 
 203 0504 87F03CC2 		.ascii	"\207\360<\302\257\020^@\330\204\360:\302\033\010o\""
 203      AF105E40 
 203      D884F03A 
 203      C21B086F 
 203      22
 204 0515 6C41E843 		.ascii	"lA\350Cx\033a\233\241\313]C\027\365\025Cr\324\344<\202"
 204      781B619B 
 204      A1CB5D43 
 204      17F51543 
 204      72D4E43C 
 205 052a 406A535F 		.ascii	"@jS_\257 \\N\325\346V9G\262\257\226|\036\373\032=Bc"
 205      AF205C4E 
 205      D5E65639 
 205      47B2AF96 
 205      7C1EFB1A 
 206 0541 D4C1BF92 		.ascii	"\324\301\277\222Nw\256\273g&\215\315\3203t&\215#\004"
 206      4E77AEBB 
 206      67268DCD 
 206      D0337426 
 206      8D2304
 207 0554 B0F6AF89 		.ascii	"\260\366\257\211\013\205\305\254X\377\270Z\366\\\020"
 207      0B85C5AC 
 207      58FFB85A 
 207      F65C10
 208 0563 527C0655 		.ascii	"R|\006U\020\011\322i\202{C\216\333\205\217.-\317&\202"
 208      1009D269 
 208      827B438E 
 208      DB858F2E 
 208      2DCF2682 
 209 0577 8F9390BA 		.ascii	"\217\223\220\272\320\033\274\204-5\013\242>\352\200"
 209      D01BBC84 
 209      2D350BA2 
 209      3EEA80
 210 0586 5A7B4B8C 		.ascii	"Z{K\214\345\324\307\034P\307\007QW;\240\356\031D\375"
 210      E5D4C71C 
 210      50C70751 
 210      573BA0EE 
 210      1944FD
ARM GAS  /tmp/ccsMqF3p.s 			page 16


 211 0599 91036AAD 		.ascii	"\221\003j\255,%\2728\365\307\016\250\227\004Q\3278\240"
 211      2C25BA38 
 211      F5C70EA8 
 211      970451D7 
 211      38A0
 212 05ab 76D320F2 		.ascii	"v\323 \362\343N\310Y\220\346uN\310\203\235V\357\204"
 212      E34EC859 
 212      90E6754E 
 212      C8839D56 
 212      EF84
 213 05bd 3CD86B0D 		.ascii	"<\330k\015N\310\203\335\326\330-\271'\034\371Y'\344"
 213      4EC883DD 
 213      D6D82DB9 
 213      271CF959 
 213      27E4
 214 05cf 216CF7B5 		.ascii	"!l\367\265\023\372`\345\233\035-O\003\350\337\272z%"
 214      13FA60E5 
 214      9B1D2D4F 
 214      03E8DFBA 
 214      7A25
 215 05e1 44DA48CE 		.ascii	"D\332H\316\240Z\277\004#\361\2314e%e:\222\206\343\376"
 215      A05ABF04 
 215      23F19934 
 215      6525653A 
 215      9286E3FE 
 216 05f5 4526EDB1 		.ascii	"E&\355\261\222*\372`&M\005f9W\277iI\015b\3263\003?\207"
 216      922AFA60 
 216      264D0566 
 216      3957BF69 
 216      490D62D6 
 217 060d 6296497B 		.ascii	"b\226I{i\371\306\367yb\020]Z\006\215\265\241\003\035"
 217      69F9C6F7 
 217      7962105D 
 217      5A068DB5 
 217      A1031D
 218 0620 7A6B6F2E 		.ascii	"zko.\340\322GS\345\366\347\301\253\367\315\200\234\026"
 218      E0D24753 
 218      E5F6E7C1 
 218      ABF7CD80 
 218      9C16
 219 0632 8E4B26ED 		.ascii	"\216K&\355\247\221\267Ff\011W(K\304\004Z\342\333\310"
 219      A791B746 
 219      66095728 
 219      4BC4045A 
 219      E2DBC8
 220 0645 2CE10AB4 		.ascii	",\341\012\264\304w\221Y\302\025\336\022m\221Y\302ec"
 220      C4779159 
 220      C215DE12 
 220      6D9159C2 
 220      6563
 221 0657 891F4358 		.ascii	"\211\037CX\242\177\206\332\276[\310\007\254\244\261"
 221      A27F86DA 
 221      BE5BC807 
 221      ACA4B1
 222 0666 16F28140 		.ascii	"\026\362\201@>\010\310=\356\375\357\034\242A\364\203"
 222      3E08C83D 
 222      EEFDEF1C 
ARM GAS  /tmp/ccsMqF3p.s 			page 17


 222      A241F483 
 223 0676 33688249 		.ascii	"3h\202I\257\332\355\327\231t\310J\032ga1\264N\333\034"
 223      AFDAEDD7 
 223      9974C84A 
 223      1A676131 
 223      B44EDB1C 
 224 068a D0C6EA48 		.ascii	"\320\306\352H\277\312\244\3032h\242\005i8\2543Bk\342"
 224      BFCAA4C3 
 224      3268A205 
 224      6938AC33 
 224      426BE2
 225 069d 97AB613E 		.ascii	"\227\253a>Ai$\265\336\216\275i\032\316dR\354\316Q\321"
 225      416924B5 
 225      DE8EBD69 
 225      1ACE6452 
 225      ECCE51D1 
 226 06b1 46BE4FDE 		.ascii	"F\276O\336S\337F\005l\177M\202\337\352\007\020\030\031"
 226      53DF4605 
 226      6C7F4D82 
 226      DFEA0710 
 226      1819
 227 06c3 09EE5559 		.ascii	"\011\356UY4{\212\027h,V\320\351\021r1\3161\215$\273"
 227      347B8A17 
 227      682C56D0 
 227      E9117231 
 227      CE318D24 
 228 06d8 54318867 		.ascii	"T1\210g\250\364\200Db\264\231jsf\246:\251WLB\352H\316"
 228      A8F48044 
 228      62B4996A 
 228      7366A63A 
 228      A9574C42 
 229 06ef B75929E6 		.ascii	"\267Y)\346\224\356@\376Z\256~\354\243\352\266\332\353"
 229      94EE40FE 
 229      5AAE7EEC 
 229      A3EAB6DA 
 229      EB
 230 0700 2D6ED0AD 		.ascii	"-n\320\255\251J\223\345\006[r\253\216^\211^\001\362"
 230      A94A93E5 
 230      065B72AB 
 230      8E5E895E 
 230      01F2
 231 0712 D1A64E84 		.ascii	"\321\246N\204\232Lb4\00357q\355f\213h7G\245\307%b\003"
 231      9A4C6234 
 231      03353771 
 231      ED668B68 
 231      3747A5C7 
 232 0729 B59BAB4E 		.ascii	"\265\233\253N\332h77\204v\261\272v\035\316\265c&\223"
 232      DA683737 
 232      8476B1BA 
 232      761DCEB5 
 232      632693
 233 073c 385D3B4F 		.ascii	"8];O\211\251\335|\021\355\026\250\364\270D\\\240v\013"
 233      89A9DD7C 
 233      11ED16A8 
 233      F4B8445C 
 233      A0760B
 234 074f D5491BED 		.ascii	"\325I\033\355\026\206\320.\336\360]\211c\355\024\223"
ARM GAS  /tmp/ccsMqF3p.s 			page 18


 234      1686D02E 
 234      DEF05D89 
 234      63ED1493 
 235 075f 49821EDC 		.ascii	"I\202\036\334M%Q\007\267\272\242\026\336^_\011\213\226"
 235      4D255107 
 235      B7BAA216 
 235      DE5E5F09 
 235      8B96
 236 0771 49BCB143 		.ascii	"I\274\261CJM+/\026\261\362\022\225>\364\016Y\252N\332"
 236      4A4D2B2F 
 236      16B1F212 
 236      953EF40E 
 236      59AA4EDA 
 237 0785 58796908 		.ascii	"Xyi\010+'\032V.ule\227\311$\311\330!\\\273e\"\332=\243"
 237      2B271A56 
 237      2E756C65 
 237      97C924C9 
 237      D8215CBB 
 238 079e D287DE21 		.ascii	"\322\207\336!\317\252\2236\332=\033B\273dc\2078\327"
 238      CFAA9336 
 238      DA3D1B42 
 238      BB646387 
 238      38D7
 239 07b0 2EC66492 		.ascii	".\306d\222b\354\2202S\273\347D\264{^\245\017\275C^P"
 239      62EC9032 
 239      53BBE744 
 239      B47B5EA5 
 239      0FBD435E 
 240 07c5 276DB47B 		.ascii	"'m\264{!\204v=\014\337\225"
 240      2184763D 
 240      0CDF95
 241 07d0 39D62ED6 		.ascii	"9\326.\326d\222j\354\2202\201\0352\302\330!eQ\357\220"
 241      64926AEC 
 241      9032811D 
 241      32C2D821 
 241      6551EF90 
 242 07e4 9EC60E29 		.ascii	"\236\306\016)7\255\374\023\021+\277\250\322\207\336"
 242      37ADFC13 
 242      112BBFA8 
 242      D287DE
 243 07f3 212FA993 		.ascii	"!/\251\2236V~)\204\225{\032V.wl\3458\223I/c\207p\355"
 243      36567E29 
 243      84957B1A 
 243      562E776C 
 243      E5389349 
 244 080c 7E26A2DD 		.ascii	"~&\242\335\317U\372\320;\344eu\322F\273\227Ch\227f\354"
 244      CF55FAD0 
 244      3BE46575 
 244      D246BB97 
 244      43689766 
 245 0821 10E7DAC5 		.ascii	"\020\347\332\305\233Lz\3531\344\251\020\210\241%\250"
 245      9B4C7AEB 
 245      31E4A910 
 245      88A125A8 
 246 0831 C9EA7A5F 		.ascii	"\311\352z_\0053\004~5\022Y\0109C\006\231\024\005$?+"
 246      0533047E 
 246      35125908 
ARM GAS  /tmp/ccsMqF3p.s 			page 19


 246      39430699 
 246      1405243F 
 247 0846 07F0C6C0 		.ascii	"\007\360\306\300\314\357\364\245\264\321\023\025_\250"
 247      CCEFF4A5 
 247      B4D11315 
 247      5FA8
 248 0854 5463CCF2 		.ascii	"Tc\314\362\376;5\373Yf?\352mL2\234L\262N~eN*8\231l\235"
 248      FE3B35FB 
 248      59663FEA 
 248      6D4C329C 
 248      4CB24E7E 
 249 086f BC674EBA 		.ascii	"\274gN\272p2\305:\331iN\306\340d\017\353\344\246~\306"
 249      7032C53A 
 249      D9694EC6 
 249      E0640FEB 
 249      E4A67EC6 
 250 0883 642C4EA6 		.ascii	"d,N\246Z'\267\231\223q8\331\323:\3515'\343q\262W\027"
 250      5A27B799 
 250      937138D9 
 250      D33AE935 
 250      27E371B2 
 251 0899 B7F6212E 		.ascii	"\267\366!.\3454\311\212\327\354\202\212\202\227\233"
 251      E534C98A 
 251      D7EC828A 
 251      82979B
 252 08a8 AAC27B39 		.ascii	"\252\302{9-\330\313Ls\213\327W\305\302Q\366\016M\251"
 252      2DD8CB4C 
 252      738BD757 
 252      C5C251F6 
 252      0E4DA9
 253 08bb 49D33740 		.ascii	"I\3237@\232$\235\345\221\260,C\010\343\322\205\311="
 253      9A249DE5 
 253      91B02C43 
 253      08E3D285 
 253      C93D
 254 08cd 16BD30FD 		.ascii	"\026\2750\375\002\204I\326YV;\025&V\027\246(<eXa\372"
 254      028449D6 
 254      59563B15 
 254      265617A6 
 254      283C6558 
 255 08e3 070893A2 		.ascii	"\007\010\223\242\263\254q*\214\341\246\272\360\224!"
 255      B3AC712A 
 255      8CE1A6BA 
 255      F09421
 256 08f2 84E1657C 		.ascii	"\204\341e|@\2000=t\226\307\243u\223/<eXa\006\006\010"
 256      4080303D 
 256      7496C7A3 
 256      75932F3C 
 256      65586106 
 257 0908 93AAB3BC 		.ascii	"\223\252\263\274\026\255\233r\257G/\314\240\000az\352"
 257      16AD9B72 
 257      AF472FCC 
 257      A000617A 
 257      EA
 258 0919 2C6F45EB 		.ascii	",oE\353\246\242\360\224!\204\341\025{p\2000\275t\226"
 258      A6A2F094 
 258      2184E115 
ARM GAS  /tmp/ccsMqF3p.s 			page 20


 258      7B708030 
 258      BD7496
 259 092c 2DD1BAA9 		.ascii	"-\321\272\251.<eXa\206\220\363\244\2134\011\306\314"
 259      2E3C6558 
 259      618690F3 
 259      A48B3409 
 259      C6CC
 260 093e 50758642 		.ascii	"Pu\206BB\367\356\275F\215\374<5\262\214^GN\265\360\272"
 260      42F7EEBD 
 260      468DFC3C 
 260      35B28C5E 
 260      474EB5F0 
 261 0953 3515D7B4 		.ascii	"5\025\327\264\276\226\323'\311\004\375\356v\030\371"
 261      BE96D327 
 261      C904FDEE 
 261      7618F9
 262 0962 64800204 		.ascii	"d\200\002\004\237\\\336bV\216\025+\350\353V\364\341"
 262      9F5CDE62 
 262      568E152B 
 262      E8EB56F4 
 262      E1
 263 0973 A42D16EA 		.ascii	"\244-\026\352\\\375\2064\003\345\013\032Z\026\022 \213"
 263      5CFD8634 
 263      03E50B1A 
 263      5A161220 
 263      8B
 264 0984 4AF58241 		.ascii	"J\365\202A\363\245\015Mo\022(\277Zw\177\303W\002J\253"
 264      F3A50D4D 
 264      6F1228BF 
 264      5A777FC3 
 264      57024AAB 
 265 0998 382348AD 		.ascii	"8#H\255\242\300U\205\267U\374\322\346\037\205G\223\004"
 265      A2C05585 
 265      B755FCD2 
 265      E61F8547 
 265      9304
 266 09aa EF3BB001 		.ascii	"\357;\260\001l\033\024e\361\206\353H\275\377k\213\266"
 266      6C1B1465 
 266      F186EB48 
 266      BDFF6B8B 
 266      B6
 267 09bb FF73E129 		.ascii	"\377s\341)\353\034\311)\374(X\231\261\031z1\006\314"
 267      EB1CC929 
 267      FC285899 
 267      B1197A31 
 267      06CC
 268 09cd 185F9C2A 		.ascii	"\030_\234*\3648tLs\323\335N\263\363i\246\223\311\244"
 268      F438744C 
 268      73D3DD4E 
 268      B3F369A6 
 268      93C9A4
 269 09e0 4C3ADE74 		.ascii	"L:\336t\321\004\223\001\230P'O\321\2276r\260\332<\345"
 269      D1049301 
 269      9850274F 
 269      D1973672 
 269      B0DA3CE5 
 270 09f4 992C2E52 		.ascii	"\231,.R`\203\362\370\364\356\274 \273\324\214\336K\024"
ARM GAS  /tmp/ccsMqF3p.s 			page 21


 270      6083F2F8 
 270      F4EEBC20 
 270      BBD48CDE 
 270      4B14
 271 0a06 50707AC3 		.ascii	"Ppz\303\213(n\360\035O\367\336\003>\246\353\216\313"
 271      8B286EF0 
 271      1D4FF7DE 
 271      033EA6EB 
 271      8ECB
 272 0a18 709DE7BE 		.ascii	"p\235\347\276\270\353\212\356\213\273\256\241;\327\355"
 272      B8EB8AEE 
 272      8BBBAEA1 
 272      3BD7ED
 273 0a27 7169AE83 		.ascii	"qi\256\203\320?#%\364\033\245\204~\273\204\320o\027"
 273      D03F2325 
 273      F41BA584 
 273      7EBB84D0 
 273      6F17
 274 0a39 B75F53A4 		.ascii	"\267_S\244\241\257e\221\221\344l\003\301\254\326\361"
 274      A1AF6591 
 274      91E46C03 
 274      C1ACD6F1 
 275 0a49 E08E19A4 		.ascii	"\340\216\031\244\276(\362\332\355\210\363\232\232\227"
 275      BE28F2DA 
 275      ED88F39A 
 275      9A97
 276 0a57 93F84A40 		.ascii	"\223\370J@i\315k\243\310}<N\324\0374\323\354\035\033"
 276      69CD6BA3 
 276      C87D3C4E 
 276      D41F34D3 
 276      EC1D1B
 277 0a6a D6348C38 		.ascii	"\3264\2148\25564i\241\304\371w\276\022PZ\305\031M\356"
 277      AD363469 
 277      A1C4F977 
 277      BE12505A 
 277      C5194DEE 
 278 0a7e 324CB397 		.ascii	"2L\263\227\327E\024&\335\304\332\025\031\261\326\361"
 278      D7451426 
 278      DDC4DA15 
 278      19B1D6F1 
 279 0a8e 709470AC 		.ascii	"p\224p\254\345v\212\307\332m'i\326\363\250\326e\230"
 279      E5768AC7 
 279      DA6D2769 
 279      D6F3A8D6 
 279      6598
 280 0aa0 F97BF134 		.ascii	"\371{\3614{\237\002\233\2004[nFp;\005\024\3614\333\316"
 280      7B9F029B 
 280      80345B6E 
 280      46703B05 
 280      14F134DB 
 281 0ab5 D3EC7752 		.ascii	"\323\354wR\322\304#q\327\371\036\211\273\256\303I\232"
 281      D2C42371 
 281      D7F91E89 
 281      BBAEC349 
 281      9A
 282 0ac6 7D2425F4 		.ascii	"}$%\364\177\224a?\257_\334~u~q\373\371\035\204\276\327"
 282      7F94613F 
ARM GAS  /tmp/ccsMqF3p.s 			page 22


 282      AF5FDC7E 
 282      757E71FB 
 282      F91D84BE 
 283 0adb BB737240 		.ascii	"\273sr@s\254\230T\023W\202jH3\321\2446.\237\325\374"
 283      73AC9854 
 283      1357826A 
 283      4833D1A4 
 283      362E9FD5 
 284 0af0 33C64CD0 		.ascii	"3\306L\320\236]\327\315\360\366G\221\240\335\314A\343"
 284      9E5DD7CD 
 284      F0F64791 
 284      A0DDCC41 
 284      E3
 285 0b01 99C45702 		.ascii	"\231\304W\002J\236\021_\241\313H\341\347\204.\247cI"
 285      4A9E115F 
 285      A1CB48E1 
 285      E7842EA7 
 285      6349
 286 0b13 A9821752 		.ascii	"\251\202\027R\336]\247M\301\262\230\363+)~\361\264\232"
 286      DE5DA74D 
 286      C1B298F3 
 286      2B297EF1 
 286      B49A
 287 0b25 0107B4B4 		.ascii	"\001\007\264\264y\365\224\312'\365`\340\257\345\252"
 287      79F594CA 
 287      27F560E0 
 287      AFE5AA
 288 0b34 852F5014 		.ascii	"\205/P\024\342|?\003/;\012\021\370\255X\016\003\016"
 288      E27C3F03 
 288      2F3B0A11 
 288      F8AD580E 
 288      030E
 289 0b46 E6FD4E17 		.ascii	"\346\375N\027\361\336b0\337U\274\255\224\317\206\220"
 289      F1DE6230 
 289      DF55BCAD 
 289      94CF8690 
 290 0b56 6F3CA965 		.ascii	"o<\251e\252|\331\271\331\307\017\01730\3270\260\253"
 290      AA7CD9B9 
 290      D9C70F0F 
 290      3330D730 
 290      B0AB
 291 0b68 B90696A0 		.ascii	"\271\006\226\240T\356&@\260\362\230@\246@\0004{\367"
 291      54EE2640 
 291      B0F29840 
 291      A6400034 
 291      7BF7
 292 0b7a 9C3633E8 		.ascii	"\23463\350Z&\234A\363\030\260A\231\357\245\023=\203"
 292      5A269C41 
 292      F318B041 
 292      99EFA513 
 292      3D83
 293 0b8c 5699EAAC 		.ascii	"V\231\352\254c\200\"\236A\3271}\363\252\235\266E\201"
 293      6380229E 
 293      41D7317D 
 293      F3AA9DB6 
 293      4581
 294 0b9e 82B00AB8 		.ascii	"\202\260\012\270\"Q\340m\006ll\025X\317\000\305\261"
ARM GAS  /tmp/ccsMqF3p.s 			page 23


 294      2251E06D 
 294      066C6C15 
 294      58CF00C5 
 294      B1
 295 0baf 02AE4005 		.ascii	"\002\256@\005\3263^x\367L\026/\274{\025\341\354\263"
 295      D6335E78 
 295      F74C162F 
 295      BC7B15E1 
 295      ECB3
 296 0bc1 3525F2EC 		.ascii	"5%\362\354S\337\264\367\244y\246\335d\223\003\202\363"
 296      53DFB4F7 
 296      A479A6DD 
 296      64930382 
 296      F3
 297 0bd2 4676AE69 		.ascii	"Fv\256i\347\315\014\010-[bu\375\371\330p\247\375\256"
 297      E7CD0C08 
 297      2D5B6275 
 297      FDF9D870 
 297      A7FDAE
 298 0be5 DC808156 		.ascii	"\334\200\201VG\212\016\310\250#\373\202\225\217\242"
 298      478A0EC8 
 298      A823FB82 
 298      958FA2
 299 0bf4 0E178B7B 		.ascii	"\016\027\213{\322W,\356\311\375\016<\331\334T\302\367"
 299      D2572CEE 
 299      C9FD0E3C 
 299      D9DC54C2 
 299      F7
 300 0c05 CF07E209 		.ascii	"\317\007\342\011`+\0036\001-\024\337?\333\030\240\210"
 300      602B0336 
 300      012D14DF 
 300      3FDB18A0 
 300      88
 301 0c16 27806DCC 		.ascii	"'\200m\314t]\231\014\327yJ\305]WT*\356\272c\335\271"
 301      745D990C 
 301      D7794AC5 
 301      5D57542A 
 301      EEBA63DD 
 302 0c2b CEDA427D 		.ascii	"\316\332B},%\364kd\330\257\243LB\022+\027\267_\275\203"
 302      2C25F46B 
 302      64D8AFA3 
 302      4C42122B 
 302      17B75FBD 
 303 0c40 D0F77694 		.ascii	"\320\367v\224\317\214\272\205\232\250\325`5\023V<2\243"
 303      CF8CBA85 
 303      9AA8D560 
 303      3513563C 
 303      32A3
 304 0c52 BB389A4C 		.ascii	"\2738\232LX\302\200\260K&\274\227hL\356w\322_\245ZY"
 304      58C280B0 
 304      4B26BC97 
 304      684CEE77 
 304      D25FA55A 
 305 0c67 EEEF52EE 		.ascii	"\356\357R\356'\021\037U\020\351\257\\\330@\244\311\344"
 305      27111F55 
 305      10E9AF5C 
 305      D840A4C9 
ARM GAS  /tmp/ccsMqF3p.s 			page 24


 305      E4
 306 0c78 217685CD 		.ascii	"!v\205\315\236*\236\023\312\304s\302A\006llk\352!\006"
 306      9E2A9E13 
 306      CAC473C2 
 306      41066C6C 
 306      6BEA2106 
 307 0c8c 28E239E1 		.ascii	"(\3429\341\020o\012\274\026\005*\304\233\202\303\014"
 307      106F0ABC 
 307      16052AC4 
 307      9B82C30C 
 308 0c9c D8D82A50 		.ascii	"\330\330*P\311\000E\274)\250\344MAS\225\204RR%\276\237"
 308      C90045BC 
 308      29A8E44D 
 308      41539584 
 308      525225BE 
 309 0cb1 2E75B79F 		.ascii	".u\267\237.%\361\246\300{\2047\005\307\242\331\012\325"
 309      2E25F1A6 
 309      C07B8437 
 309      05C7A2D9 
 309      0AD5
 310 0cc3 0C08059A 		.ascii	"\014\010\005\232\202j\275)\370FJf\364\311\310\214\336"
 310      826ABD29 
 310      F8464A66 
 310      F4C9C88C 
 310      DE
 311 0cd4 63E29EAC 		.ascii	"c\342\236\254;&\356\311\326H3\243\226\013\246\230\371"
 311      3B26EEC9 
 311      D64833A3 
 311      960BA698 
 311      F9
 312 0ce5 ADBADD0C 		.ascii	"\255\272\335\014\364Z\033\247\206\2733;iC\023\342\316"
 312      F45A1BA7 
 312      86BB333B 
 312      694313E2 
 312      CE
 313 0cf6 EC16CF60 		.ascii	"\354\026\317`\265\014(\255\311\351\011\262\203\242@"
 313      B50C28AD 
 313      C9E909B2 
 313      83A240
 314 0d05 F74CA453 		.ascii	"\367L\244S\021\307\030\027\347\323\210\023\252z~\372"
 314      11C71817 
 314      E7D38813 
 314      AA7A7EFA 
 315 0d15 0D5F0928 		.ascii	"\015_\011(\255\342\244\223~x\203\327Q\320CB\244\375"
 315      ADE2A493 
 315      7E7883D7 
 315      51D04342 
 315      A4FD
 316 0d27 9F94F6B3 		.ascii	"\237\224\366\263\346$\025O\0325\342\241\366\243\243"
 316      E624154F 
 316      1A35E2A1 
 316      F6A3A3
 317 0d36 FEF3F875 		.ascii	"\376\363\370u3U\237\026\2575g\030\260\011\350?\371\367"
 317      33559F16 
 317      AF356718 
 317      B009E83F 
 317      F9F7
ARM GAS  /tmp/ccsMqF3p.s 			page 25


 318 0d48 7C8D0C50 		.ascii	"|\215\014P\304kM#\357?\375R\372\317k\022|WtM\334wy\301"
 318      C46B4D23 
 318      EF3FFD52 
 318      FACF6B12 
 318      7C57744D 
 319 0d60 3F2EB66F 		.ascii	"?.\266o@\363\327\313\010\376\202\340%\243\010\376\353"
 319      40F3D7CB 
 319      08FE82E0 
 319      25A308FE 
 319      EB
 320 0d71 3282FFBA 		.ascii	"2\202\377\272\270\001=\335\031\260K\360\337\342\301"
 320      B8013DDD 
 320      19B04BF0 
 320      DFE2C1
 321 0d80 DF241EFC 		.ascii	"\337$\036\374_3`\023\320\247\360\340of\200\"\036\374"
 321      5F336013 
 321      D0A7F0E0 
 321      6F668022 
 321      1EFC
 322 0d92 CDBCD1EA 		.ascii	"\315\274\321\352\260(pI\274\321\272\314\200\215\255"
 322      B0287049 
 322      BCD1BACC 
 322      808DAD
 323 0da1 025718A0 		.ascii	"\002W\030\240\2107ZWx\243\345i\221\261\361Z\304\343"
 323      88375A57 
 323      78A3E569 
 323      91B1F15A 
 323      C4E3
 324 0db3 669B83B8 		.ascii	"f\233\203\270\251\357h\271hvZ\327#.\312\226N\353\006"
 324      A9EF68B9 
 324      68765AD7 
 324      232ECA96 
 324      4EEB06
 325 0dc6 0342ECB4 		.ascii	"\003B\354\264\374\306\213\256\322\230\037\214\013\327"
 325      FCC68BAE 
 325      D2981F8C 
 325      0BD7
 326 0dd4 7275650B 		.ascii	"rue\013\234\264\303\224\347\316\351\300\237pE~\232\232"
 326      9CB4C394 
 326      E7CEE9C0 
 326      9F70457E 
 326      9A9A
 327 0de6 6A5CFB16 		.ascii	"j\\\373\026\265\232\"\266\010\335\372\372\030p@\023"
 327      B59A22B6 
 327      08DDFAFA 
 327      18704013 
 328 0df6 075F87FA 		.ascii	"\007_\207\372B\335\252N#\207\030\312p\317\274\365\275"
 328      42DDAA4E 
 328      238718CA 
 328      70CFBCF5 
 328      BD
 329 0e07 2D74EB7B 		.ascii	"-t\353{\207\001\007K7k\021\257\225\301|W\361\266S>\033"
 329      8701074B 
 329      376B11AF 
 329      95C17C57 
 329      F1B6533E 
 330 0e1c 42BEE964 		.ascii	"B\276\351d\263\366\245aY\231\214\346\326+#\353z\333"
ARM GAS  /tmp/ccsMqF3p.s 			page 26


 330      B3F6A561 
 330      59998CE6 
 330      D62B23EB 
 330      7ADB
 331 0e2e 2434B76D 		.ascii	"$4\267m\342\233\247:\322\315\003\366\253\021\266\037"
 331      E29BA73A 
 331      D2CD03F6 
 331      AB11B61F 
 332 0e3e 66BEBBFC 		.ascii	"f\276\273\374\210y_<\363\2653`\023\320\267\360#\346"
 332      88795F3C 
 332      F3B53360 
 332      13D0B7F0 
 332      23E6
 333 0e50 0F0C50C4 		.ascii	"\017\014P\3043\337\017\226\314w_\302\225\327}q\3375"
 333      33DF0F96 
 333      CC775FC2 
 333      95D77D71 
 333      DF35
 334 0e62 38E9381A 		.ascii	"8\3518\032\245\304\376Y\031\261\337\321.\341\312\353"
 334      A5C4FE59 
 334      19B1DFD1 
 334      2EE1CAEB 
 335 0e72 81B8FDBE 		.ascii	"\201\270\375\276v\322px\036\362\250},\336p\370\031\260"
 335      76D27078 
 335      1EF2A87D 
 335      2CDE70F8 
 335      19B0
 336 0e84 B1BD1871 		.ascii	"\261\275\030q+\200\"\336p\270\025~\263cQ`\265\"\274"
 336      2B8022DE 
 336      70B8157E 
 336      B3635160 
 336      B522BC
 337 0e97 EDB21560 		.ascii	"\355\262\025`c\253@\216\002(\342\333.G\341\215\352C"
 337      63AB408E 
 337      0228E2DB 
 337      2E47E18D 
 337      EA43
 338 0ea9 09373B0F 		.ascii	"\0117;\017\305\303\306\327]\330t\271\331\351\3447;k"
 338      C5C3C6D7 
 338      5DD874B9 
 338      D9E9E437 
 338      3B6B
 339 0ebb 9528FA8D 		.ascii	"\225(\372\215<\005\010-\265\260\273\233\235\3006#O\321"
 339      3C05082D 
 339      B5B0BB9B 
 339      9DC03623 
 339      4FD1
 340 0ecd 12C0B752 		.ascii	"\022\300\267R\022\300wR\216\034\217$x\362\221\270';"
 340      12C07752 
 340      8E1C8F24 
 340      78F291B8 
 340      273B
 341 0edf 9C24808E 		.ascii	"\234$\200\216\307|\377\274\023v\377D\224\0006*\300\306"
 341      C77CFFBC 
 341      1376FF44 
 341      9400362A 
 341      C0C6
ARM GAS  /tmp/ccsMqF3p.s 			page 27


 342 0ef1 B66CBDAB 		.ascii	"\266l\275\253\000\212x\002xW\341\277\370\220\322\267"
 342      008A7802 
 342      7857E1BF 
 342      F890D2B7 
 343 0f01 F825F42D 		.ascii	"\370%\364-~q\327\371\235\324\276\274C\207\203\377\364"
 343      7E71D7F9 
 343      9DD4BEBC 
 343      438783FF 
 343      F4
 344 0f12 D679ECAF 		.ascii	"\326y\354\257\233.\343\276bW~\214x\367\260+Y\330\202"
 344      9B2EE3BE 
 344      62577E8C 
 344      78F7B02B 
 344      59D882
 345 0f25 6F076B63 		.ascii	"o\007kc\037\374\336=\371\346E\3406\361\340\337\256\000"
 345      1FFCDE3D 
 345      F9E645E0 
 345      36F1E0DF 
 345      AE00
 346 0f37 1B942777 		.ascii	"\033\224'w|p\360\027*\200\"\036\374\205\274\3725Y\024"
 346      7C70F017 
 346      2A80221E 
 346      FC85BCFA 
 346      355914
 347 0f4a D8295EFD 		.ascii	"\330)^\375v)\300\306V\201\335\012\240\210W\277\335\274"
 347      7629C0C6 
 347      5681DD0A 
 347      A08857BF 
 347      DDBC
 348 0f5c FA75EC91 		.ascii	"\372u\354\221\0207\271{\305\343fkwqc-\177M{\363'\030"
 348      1037B97B 
 348      C5E3666B 
 348      7771632D 
 348      7F4D7BF3 
 349 0f72 46D96753 		.ascii	"F\331gS\376\014\302\220\345\257X\001B\007\345\257+7"
 349      FE0CC290 
 349      E5AF5801 
 349      4207E5AF 
 349      2B37
 350 0f84 60A0E580 		.ascii	"`\240\345\200}rr@\261\214\034\320Q,\303\227%\342\276"
 350      7D727240 
 350      B18C1CD0 
 350      512CC397 
 350      25E2BE
 351 0f97 3CE02007 		.ascii	"<\340 \007x;J\362\003"
 351      783B4AF2 
 351      03
 352 0fa0 2DDFDD3D 		.ascii	"-\337\335=\205q\272_Ng\300=\205\3668\223\334\213\245"
 352      8571BA5F 
 352      4E67C03D 
 352      85F63893 
 352      DC8BA5
 353 0fb3 DAE32CB2 		.ascii	"\332\343,\262\341\254\366'%M\017\032\314\335\323B#Y"
 353      E1ACF627 
 353      254D0F1A 
 353      CCDDD342 
 353      2359
ARM GAS  /tmp/ccsMqF3p.s 			page 28


 354 0fc5 40FBEAD6 		.ascii	"@\373\352\326B\204+\022\313k9\235\015\177I\202mXY\376"
 354      42842B12 
 354      CB6B399D 
 354      0D7F4982 
 354      6D5859FE 
 355 0fd9 6003B33C 		.ascii	"`\003\263<\3426\214\177\371QaC\023\374]L\316\267Y\011"
 355      E2368C7F 
 355      F9516143 
 355      13FC5D4C 
 355      CEB75909 
 356 0fed 7C25A0E4 		.ascii	"|%\240\344\002\275B\237&\207\373\323\345t\016)\320~"
 356      02BD429F 
 356      2687FBD3 
 356      E5740E29 
 356      D07E
 357 0fff 27       		.ascii	"'"
 358 1000 D751963F 		.ascii	"\327Q\226?\320\300>\254\210\\\333T*\300\301r/b\375Z"
 358      D0C03EAC 
 358      885CDB54 
 358      2AC0C172 
 358      2F62FD5A 
 359 1014 BB520971 		.ascii	"\273R\011q-2\227\334 \001?\326\253\212B\004~msD\001"
 359      2D3297DC 
 359      20013FD6 
 359      AB8A4204 
 359      7E6D7344 
 360 1029 0E96BD6A 		.ascii	"\016\226\275j\021\317\253\300|W\361\370\217\365\274"
 360      11CFABC0 
 360      7C57F1F8 
 360      8FF5BC
 361 1038 A1E49B47 		.ascii	"\241\344\233G.\022\274\266\251\227\263u\033\244l\335"
 361      2E12BCB6 
 361      A997B375 
 361      1BA46CDD 
 362 1048 72195BB7 		.ascii	"r\031[\267B|\3536:)\337\236*^\375j\304\313\367q\005"
 362      427CEB36 
 362      3A29DF9E 
 362      2A5EFD6A 
 362      C4CBF771 
 363 105d D8D89EFD 		.ascii	"\330\330\236\375N(\200\"^\276OX\016\257\026\005j\305"
 363      4E288022 
 363      5EBE4F58 
 363      0EAF1605 
 363      6AC5
 364 106f CBF74905 		.ascii	"\313\367I\005\330\330*pJ\001\024\361\362}\312rx\255"
 364      D8D82A70 
 364      4A0114F1 
 364      F27DCA72 
 364      78AD
 365 1081 921037BE 		.ascii	"\222\0207\276*\361\270\271\344\244|{\217\360\362]\037"
 365      2AF1B8B9 
 365      E4A47C7B 
 365      8FF0F25D 
 365      1F
 366 1092 CDE9B541 		.ascii	"\315\351\265A\001B\201\323k\203b\244\203\371F\316\364"
 366      014281D3 
 366      6B8362A4 
ARM GAS  /tmp/ccsMqF3p.s 			page 29


 366      83F946CE 
 366      F4
 367 10a3 1CE339F3 		.ascii	"\034\3439\363\214P\316lT\200\203%)Y\257\272\033C\345"
 367      8C50CE6C 
 367      54808325 
 367      2959AFBA 
 367      1B43E5
 368 10b6 A40546CE 		.ascii	"\244\005F\316\344W\335g\205r\3469\0058\204\316\231\347"
 368      E457DD67 
 368      8572E639 
 368      053884CE 
 368      99E7
 369 10c8 1598EF2A 		.ascii	"\025\230\357*\036\277\352>\037J\276\205F\316\274#'g"
 369      1EBFEA3E 
 369      1F4ABE85 
 369      46CEBC23 
 369      2767
 370 10da B64A39F2 		.ascii	"\266J9\362T\3138\362T\213\307~\233\243#O\015O9_\211"
 370      54CB38F2 
 370      548BC77E 
 370      9BA3234F 
 370      0D4F395F 
 371 10ef E7CC0B0A 		.ascii	"\347\314\013\012\260\261=\3577)\200\"\2363\233\370y"
 371      B0B13DEF 
 371      37298022 
 371      9E339BF8 
 371      79
 372 1100 BF534ABD 		.ascii	"\277SJ\275\253\221Q\357\216\213\373\356\237\335\371"
 372      AB9151EF 
 372      8E8BFBEE 
 372      9FDDF9
 373 110f CE7AE0CF 		.ascii	"\316z\340\317\255\220\022\375kg\312\270\354\272&#\363"
 373      AD9012FD 
 373      6B67CAB8 
 373      ECBA2623 
 373      F3
 374 1120 5F13B760 		.ascii	"_\023\267`~\2606an\273\256\363\350\277.\036\3757\024"
 374      7EB03661 
 374      6EBBAEF3 
 374      E8BF2E1E 
 374      FD3714
 375 1133 60635B70 		.ascii	"`c[po*\200\"\036\3757y\307\340\271\305\025h\021\357"
 375      6F2A8022 
 375      1EFD3779 
 375      C7E0B9C5 
 375      156811EF 
 376 1147 187C0AB0 		.ascii	"\030|\012\260\261U\340\266\002(\342\035\303m\3361xo"
 376      B155E0B6 
 376      0228E21D 
 376      C36DDE31 
 376      786F
 377 1159 49889BBA 		.ascii	"I\210\233\272[\342q\363~wqc\355\030<-\274ch\213\346"
 377      5BE271F3 
 377      7E777163 
 377      ED183C2D 
 377      BC63688B 
 378 116e C07F5701 		.ascii	"\300\177W\001B\201\003\377]\263cX\004\035\203\366\270"
ARM GAS  /tmp/ccsMqF3p.s 			page 30


 378      428103FF 
 378      5DB36358 
 378      041D83F6 
 378      B8
 379 117f 945452FD 		.ascii	"\224TR\375\314\371\024\271=\000\217\234\236\326N\323"
 379      CCF914B9 
 379      3D008F9C 
 379      9ED64ED3 
 380 118f 7F2B9C1F 		.ascii	"\177+\234\037\011_wp\"4\233\212\300\377b\260\230tj\377"
 380      095F7770 
 380      22349B8A 
 380      C0FF62B0 
 380      98746AFF 
 381 11a3 C5E09EF9 		.ascii	"\305\340\236\371\347\265\231\316\177\232\367{\007?u"
 381      E7B599CE 
 381      7F9AF77B 
 381      073F75
 382 11b2 7ED35C47 		.ascii	"~\323\\G\245\263\212\262\204L\300\316\241\244\342\240"
 382      A5B38AB2 
 382      844CC0CE 
 382      A1A4E2A0 
 383 11c2 8CDCB95F 		.ascii	"\214\334\271_F\356\364\266\346\273\304\367@\253\370"
 383      46EEF4B6 
 383      E6BBC4F7 
 383      40ABF8
 384 11d1 1E28EB6E 		.ascii	"\036(\353n\017\344\216\267\3746\251-\377y\303\312\177"
 384      0FE48EB7 
 384      FC36A92D 
 384      FF79C3CA 
 384      7F
 385 11e2 104E9D7F 		.ascii	"\020N\235\177T\231\004\264\015\374\017k\337P\347\305"
 385      549904B4 
 385      0DFC0F6B 
 385      DF50E7C5 
 386 11f2 D3E61BA6 		.ascii	"\323\346\033\246\327\252ex\315sW\202\327\212\356\212"
 386      D7AA6578 
 386      CD735782 
 386      D78AEE8A 
 387 1202 7BADA63B 		.ascii	"{\255\246;\257Y{\206z9q\337 \303\202\035\367%X0\267"
 387      AF597B86 
 387      7A3971DF 
 387      20C3821D 
 387      F7255830 
 388 1217 5DC22D83 		.ascii	"]\302-\203\223\236\301\363\200\307\375\337\204\343\376"
 388      939EC1F3 
 388      80C7FDDF 
 388      84E3FE
 389 1226 EF2A9380 		.ascii	"\357*\223\200z\313\343~\225:/\036\367\253\370\375\202"
 389      7ACBE37E 
 389      953A2F1E 
 389      F7ABF8FD 
 389      82
 390 1237 45F4ACB0 		.ascii	"E\364\254\260\177\016\037Q\267\260\232\002\033[\351"
 390      7F0E1F51 
 390      B7B09A02 
 390      1B5BE9
 391 1246 B329A088 		.ascii	"\263)\240\210w\013\331\224w\231\017$D\214\357\201X\304"
ARM GAS  /tmp/ccsMqF3p.s 			page 31


 391      770BD994 
 391      77990F24 
 391      448CEF81 
 391      58C4
 392 1258 4021CB7D 		.ascii	"@!\313}\230l\250\271&\302\377A\241\222\265\231\246\313"
 392      986CA8B9 
 392      26C2FF41 
 392      A192B599 
 392      A6CB
 393 126a A5401860 		.ascii	"\245@\030`\317\265\024&p\241\253\237\375\232\004~EN"
 393      CFB51426 
 393      70A1AB9F 
 393      FD9A047E 
 393      454E
 394 127c 0103675B 		.ascii	"\001\003g[\214\034iN\256\243\200`M\240\253\371/\345"
 394      8C1C694E 
 394      AEA38060 
 394      4DA0ABF9 
 394      2FE5
 395 128e F2292080 		.ascii	"\362) \200\003\\\366q\016hf\226\370FN\226\360I\251\216"
 395      035CF671 
 395      0E686696 
 395      F8464E96 
 395      F049A98E 
 396 12a2 9D32AA63 		.ascii	"\2352\252c\247x\226h\2154K\200\005\333\304-\210\007"
 396      A7789668 
 396      8D344B80 
 396      05DBC42D 
 396      8807
 397 12b4 94477CC7 		.ascii	"\224G|\307n\022\337\261\233)\260\261\255\263[(\240\210"
 397      6E12DFB1 
 397      9B29B0B1 
 397      ADB35B28 
 397      A088
 398 12c6 EFD82D7C 		.ascii	"\357\330-|\307z\036\313\250\222\217\305\275\327\351"
 398      C77A1ECB 
 398      A8928FC5 
 398      BDD7E9
 399 12d5 A44AFE53 		.ascii	"\244J\376SN\374?\226R%\3752\252\344\316\024a\013\256"
 399      4EFC3F96 
 399      5225FD32 
 399      AAE4CE14 
 399      610BAE
 400 12e8 9DEDA44A 		.ascii	"\235\355\244J\356*0\003\267P\374?\257\354\240\300\306"
 400      EE2A3003 
 400      B750FC3F 
 400      AFECA0C0 
 400      C6
 401 12f9 B6D4ECA4 		.ascii	"\266\324\354\244\200\"^*wR^+-\012\354\026\337y\037R"
 401      80225E2A 
 401      77525E2B 
 401      2D0AEC16 
 401      DF791F52 
 402 130d 6063ABC0 		.ascii	"`c\253\300\036\012(\342;o\217\245V\356*\220P+w\211\305"
 402      1E0A28E2 
 402      3B6F8FA5 
 402      56EE2A90 
ARM GAS  /tmp/ccsMqF3p.s 			page 32


 402      502B7789 
 403 1322 0DD6CA3D 		.ascii	"\015\326\312=\346\177\304+\216\360\037$u\251\225%\024"
 403      E67FC42B 
 403      8EF01F24 
 403      75A99525 
 403      14
 404 1333 0803ECB9 		.ascii	"\010\003\354\271\237\302\204]\255<@\001\303\246V\226"
 404      9FC2845D 
 404      AD3C4001 
 404      C3A65696 
 405 1343 5240B0A9 		.ascii	"R@\260\251\225e\024\020\272\255\225e\274V\276_)%W|\020"
 405      95651410 
 405      BAAD9565 
 405      BC56BE5F 
 405      2925577C 
 406 1358 BCBBA2A8 		.ascii	"\274\273\242\250\225{%\370\274n\257x\256\330\036i\256"
 406      957B25F8 
 406      BC6EAF78 
 406      AED81E69 
 406      AE
 407 1369 000B168B 		.ascii	"\000\013\026\213[\020ke1\337\261G\304w\254\227\002\033"
 407      5B106B65 
 407      31DFB147 
 407      C477AC97 
 407      021B
 408 137b DB5A7994 		.ascii	"\333Zy\224\002\212\370\216=j\251\225%\022\274WT\"\356"
 408      028AF88E 
 408      3D6AA995 
 408      2512BC57 
 408      5422EE
 409 138e BDD2EEBC 		.ascii	"\275\322\356\274g\255\225G\345\304\3771\031\361\337"
 409      67AD9547 
 409      E5C4FF31 
 409      19F1DF
 410 139d 512AC182 		.ascii	"Q*\301\202\271e\342\026\374\330I\374\327\311\211\177"
 410      B965E216 
 410      FCD849FC 
 410      D7C9897F 
 411 13ad 6F398FFF 		.ascii	"o9\217\377S\342\361\377)\0056\266\361\377\031\005\024"
 411      53E2F1FF 
 411      290536B6 
 411      F1FF1905 
 411      14
 412 13be F1F8FFCC 		.ascii	"\361\370\377\314R\261\312eT\254rq\357\235q\022\377\347"
 412      52B1CA65 
 412      54AC7271 
 412      EF9D7112 
 412      FFE7
 413 13d0 E4C47F93 		.ascii	"\344\304\177\223\224\374_%#\377W\211[\360bw\026\264"
 413      94FC5F25 
 413      23FF5789 
 413      5BF06277 
 413      16B4
 414 13e2 DC247ABD 		.ascii	"\334$z\275G\012\364\257\272Cw\007!\376\207\273\361z"
 414      470AF4AF 
 414      BA437707 
 414      21FE87BB 
ARM GAS  /tmp/ccsMqF3p.s 			page 33


 414      F17A
 415 13f4 C5F8BE39 		.ascii	"\305\370\2769n\345k\231\377\225\236A\342\376\364\332"
 415      6EE56B99 
 415      FF959E41 
 415      E2FEF4DA 
 416 1404 6FFFF33F 		.ascii	"o\377\363?\322\247\305\375\364\277\337\\\366\347\364"
 416      D2A7C5FD 
 416      F4BFDF5C 
 416      F6E7F4
 417 1413 E9F0FE2F 		.ascii	"\351\360\376/\177N\237\201\237\377\222>\023?\377%}\226"
 417      7F4E9F81 
 417      9FFF923E 
 417      133FFF25 
 417      7D96
 418 1425 FE79B68E 		.ascii	"\376y\266\2167G\177\237\253\274\231>O\307\231\037\257"
 418      37477F9F 
 418      ABBC993E 
 418      4FC7991F 
 418      AF
 419 1436 D14E9FF6 		.ascii	"\321N\237\366\377s\300f\254"
 419      FF73C066 
 419      AC
 420              		.text
 421              		.section	.gnu.lto_.symbol_nodes.7c0878ba4888a78,"",%progbits
 422 0000 789C4D92 		.ascii	"x\234M\222\313n\323@\024\206\3478q\323;,\312\375\366"
 422      CB6ED340 
 422      1486E738 
 422      71D33B2C 
 422      CAFDF6
 423 0013 6AF00ABC 		.ascii	"j\360\012\274\300T\032\011\004\021\025;6\010AGj\244"
 423      C0541A09 
 423      0411153B 
 423      36084147 
 423      6AA4
 424 0025 14B55223 		.ascii	"\024\265R#\245\"\221\032\322\331\300\006\211\015,(\264"
 424      A522911A 
 424      D2D9C006 
 424      890D2C28 
 424      B4
 425 0036 CD400249 		.ascii	"\315@\002Ii \201\230\326R\202/s~\327\233\377;\377\347"
 425      69208198 
 425      D652822F 
 425      737ED79B 
 425      FF3BFFE7 
 426 004a 199F853D 		.ascii	"\031\237\205=\341\211\273\005\221>\336'\222$\036\277"
 426      E189BB05 
 426      913EDE27 
 426      92241EBF 
 427 005a 1342CAA7 		.ascii	"\023B\312\247\017\356x{$\2753\343\027\222\2713\343>"
 427      0FEE787B 
 427      24BD33E3 
 427      1792B933 
 427      E33E
 428 006c C9FC99B1 		.ascii	"\311\374\231\261ER\360\370\366\266\177BSB\012\377/E"
 428      4552F0F8 
 428      F6B67F42 
 428      53420AFF 
ARM GAS  /tmp/ccsMqF3p.s 			page 34


 428      2F45
 429 007e 85F0BA24 		.ascii	"\205\360\272$}'\237\275\361\374>y\261< ?/s\376\220("
 429      7D279FBD 
 429      F1FC3E79 
 429      B13C203F 
 429      2F73FE90 
 430 0093 9E3E533E 		.ascii	"\236>S>\236\016)\027\207\245\202\037\225\337h:\2166"
 430      9E0E2917 
 430      87A5821F 
 430      95DF683A 
 430      8E36
 431 00a5 CDC4F19D 		.ascii	"\315\304\361\235f\343\350\320\\\034?h>\216\257\264\020"
 431      66E3E8D0 
 431      5C1C3F68 
 431      3E8EAFB4 
 431      10
 432 00b6 050524A7 		.ascii	"\005\005$\247\322O,/\023\375#Y\310\246\337$\247\263"
 432      D24F2C2F 
 432      13FD2359 
 432      C8A6DF24 
 432      A7B3
 433 00c8 69447226 		.ascii	"iDr&\233\376\220\234\315\246\001\311\271l\372Er>\233"
 433      9BFE909C 
 433      CDA601C9 
 433      B96CFA45 
 433      723E9B
 434 00db 8E492E64 		.ascii	"\216I.d\323O\222\213\331tD\362\\6\365H\236\307\224\313"
 434      D34F928B 
 434      D97444F2 
 434      5C36F548 
 434      9EC794CB 
 435 00ef 5F10F6F9 		.ascii	"_\020\366\371\207b!\227_\022\352E\014\205\233B\035\214"
 435      87622197 
 435      5F12EA45 
 435      0C859B42 
 435      1D8C
 436 0101 2957B821 		.ascii	")W\270!t\222\327\205qi]\252\3034\265K\343\322\272T\367"
 436      7492D785 
 436      71695DAA 
 436      C334B54B 
 436      E3D2BA54 
 437 0116 8E6E25DE 		.ascii	"\216n%\336\245qi]\252\373\316\2734.\255K\365\320\371"
 437      A571695D 
 437      AAFBCEBB 
 437      342EAD4B 
 437      F5D0F9
 438 0129 24AF0993 		.ascii	"$\257\011\223\344Ua\223\274(T1\316+B\027\235/:_t~\305"
 438      E4556193 
 438      BC285431 
 438      CE2B4217 
 438      9D2F3A5F 
 439 0140 F9242F0B 		.ascii	"\371$/\013\223\344%aWRoG\257_>YL\336\014RZ\0226\340"
 439      93E42561 
 439      57526F47 
 439      AF5F3E59 
 439      4CDE0C52 
 440 0158 CE9EC286 		.ascii	"\316\236\302\206\260!\2721\223\036\263U\023\234]m\362"
ARM GAS  /tmp/ccsMqF3p.s 			page 35


 440      B021BA31 
 440      931EB355 
 440      139C5D6D 
 440      F2
 441 0169 7BBAC967 		.ascii	"{\272\311g5wv\015\266\004[BWf\322e\266j\035]\245y\262"
 441      3577760D 
 441      B6045B42 
 441      5766D265 
 441      B66A1D5D 
 442 0180 3F955035 		.ascii	"?\225P5\245\310ns\247j\2605\330:\354\016\354\016l\003"
 442      A5C86E73 
 442      A76AB035 
 442      D83AEC0E 
 442      EC0E6C03 
 443 0194 1DC834D8 		.ascii	"\035\3104\330\352\026w\266\215\355;\274\225\351rgz\260"
 443      EA1677B6 
 443      8DED3BBC 
 443      95E97267 
 443      7AB0
 444 01a6 3DD863EC 		.ascii	"=\330c\354<h\206\257(y\317Qt\363\220;=\202\035\301\006"
 444      3C6886AF 
 444      2879CF51 
 444      74F3903B 
 444      3D821DC1 
 445 01bb E8403660 		.ascii	"\350@6`kNaC\320\030g'\270ym\227\367s\024\331\022\272"
 445      6B4E6143 
 445      D0186727 
 445      B8796D97 
 445      F77314D9 
 446 01d1 8CCAB0EB 		.ascii	"\214\312\260\353\350@v\235\255\331\200\335\004m\341"
 446      E840769D 
 446      ADD980DD 
 446      046DE1
 447 01e0 6C853B5D 		.ascii	"l\205;]\205\255\302n\303\326`k\260ut [\307ww`\033\240"
 447      85ADC26E 
 447      C3D6606B 
 447      B0757420 
 447      5BC77777 
 448 01f7 16CE5ADC 		.ascii	"\026\316Z\334\334\206m\303vp\337\361\356\336\307\271"
 448      DC866DC3 
 448      7670DFF1 
 448      EEDEC7B9 
 449 0207 E43FE8A7 		.ascii	"\344?\350\247\024\375u}\356\354\0004dkF\334\351\220"
 449      14FD757D 
 449      EEEC0034 
 449      646B46DC 
 449      E990
 450 0219 C9846CF5 		.ascii	"\311\204l\365\030v\002;\201]5\334\201\254\243\350f\015"
 450      1876023B 
 450      815D35DC 
 450      81ACA3E8 
 450      660D
 451 022b BB062AB1 		.ascii	"\273\006*\261\325e\234\3300\217\336\247\377\356fJ\321"
 451      D5659CD8 
 451      308FDEA7 
 451      FFEE664A 
 451      D1
ARM GAS  /tmp/ccsMqF3p.s 			page 36


 452 023c CE9BDCD9 		.ascii	"\316\233\334\331-\330\012l\005]\225IW\331\252m\330\032"
 452      2DD80A6C 
 452      055D9549 
 452      57D9AA6D 
 452      D81A
 453 024e A8CE5637 		.ascii	"\250\316V7\2703 \333`kZ\3502\262\260mt \325\301V\035"
 453      B83320DB 
 453      606B5AE8 
 453      32B2B06D 
 453      7420D5C1 
 454 0264 D82EA887 		.ascii	"\330.\250\207\255\006\330\024d\006\330j\210.\243\021"
 454      AD06D814 
 454      6406D86A 
 454      882EA311 
 455 0274 6C800E64 		.ascii	"l\200\016d\003lu\212.\243\020v\214\016\244&\3309!\361"
 455      036C758A 
 455      2EA31076 
 455      8C0EA426 
 455      D83921F1 
 456 0288 1F672BB4 		.ascii	"\037g+\264\212"
 456      8A
 457              		.text
 458              		.section	.gnu.lto_.refs.7c0878ba4888a78,"",%progbits
 459 0000 789C8D51 		.ascii	"x\234\215Q\321\016\203@\010k\253S\247\273;\357\376\377"
 459      D10E8340 
 459      086BAB53 
 459      A7BB3BEF 
 459      FEFF
 460 0012 691FB3EF 		.ascii	"i\037\263\357\022t\313v\313\234\322\220@\201B\202 \334"
 460      1274CB76 
 460      CB9CD290 
 460      40814282 
 460      20DC
 461 0024 89D5D4E2 		.ascii	"\211\325\324\342\242\356\301^\203\256\346\216Q\223\271"
 461      A2EEC15E 
 461      83AEE68E 
 461      5193B9
 462 0033 A3D34D2D 		.ascii	"\243\323M-C\015\004F\246\177\216\200\031\311\225\260"
 462      430D0446 
 462      A67F8E80 
 462      19C995B0 
 463 0043 E979640C 		.ascii	"\351yd\0142b\315\262\254\274\345\030\275\207\363\251"
 463      3262CDB2 
 463      ACBCE518 
 463      BD87F3A9 
 464 0053 BAE9FCD8 		.ascii	"\272\351\374\330\360\352\312\314,\033\353\371wmg\352"
 464      F0EACACC 
 464      2C1BEBF9 
 464      776D67EA 
 465 0063 A96D1BCB 		.ascii	"\251m\033\313\347\235\307S\007\327\244\235Kb\315\277"
 465      E79DC753 
 465      07D7A49D 
 465      4B62CDBF 
 466 0073 2306FB84 		.ascii	"#\006\373\204\324\330\027 b\001\220o\0133"
 466      D4D81720 
 466      6201906F 
 466      0B33
ARM GAS  /tmp/ccsMqF3p.s 			page 37


 467              		.text
 468              		.section	.gnu.lto_.decls.7c0878ba4888a78,"",%progbits
 469 0000 789CDD5D 		.ascii	"x\234\335]yt\024U\272\257\252\336\322\020\331\024\\"
 469      79741455 
 469      BAAFAADE 
 469      D210D914 
 469      5C
 470 0011 9E8E99C5 		.ascii	"\236\216\231\305\247\243#a\3619z\316\033\267\340(3\202"
 470      A7A32361 
 470      F1397ACE 
 470      1BB7E028 
 470      3382
 471 0023 9C0467F4 		.ascii	"\234\004g\364\315\233\023\213NC\362\314Fw\207e\336;"
 471      CD9B138B 
 471      4E43F2CC 
 471      46778765 
 471      DE3B
 472 0035 C7224050 		.ascii	"\307\"@PPI\330B\200\204\240\354\233\354\233,-*\204\310"
 472      5049D842 
 472      8084A0EC 
 472      9BEC9B2C 
 472      2D2A84C8 
 473 0049 40424202 		.ascii	"@BB\002D0\304A\020EY\304a\223\274\357~\267\252\273\252"
 473      4430C441 
 473      104559C4 
 473      6193BCEF 
 473      7EB7AABB 
 474 005e BAAAEB56 		.ascii	"\272\252\353V\203\357\217\327'\367Vu\365\275\277\373"
 474      83EF8FD7 
 474      27F75675 
 474      F5BDBFFB 
 475 006e 6DF7BBDF 		.ascii	"m\367\273\337\275u\253\"p\002W\355\340\270v\370\274"
 475      BD75AB22 
 475      700257ED 
 475      E0B876F8 
 475      BC
 476 007f F23AC715 		.ascii	"\362:\307\025u\3448\017\307qO@\352\014\011~\342\346"
 476      75E4380F 
 476      C7714F40 
 476      EA0C097E 
 476      E2E6
 477 0091 41BA53E0 		.ascii	"A\272S\340\270\273 \335\015\351U\201\226)\207\243\013"
 477      B8BB20DD 
 477      0DE95581 
 477      962987A3 
 477      0B
 478 00a2 8EB3E0F8 		.ascii	"\216\263\340\370$\034+\341\270\014\322rH; \221OWH;\341"
 478      241C2BE1 
 478      B80CD272 
 478      483B2091 
 478      4F57483B 
 479 00b7 7C37A4BD 		.ascii	"|7\244\275\220\352 5B:\004\251\005\322\347\220\276\207"
 479      90EA2035 
 479      423A04A9 
 479      05D2E790 
 479      BE87
 480 00c9 74856041 		.ascii	"t\205`Ac\035 u\206\324\025R\017H\277\200t\037\244N\200"
ARM GAS  /tmp/ccsMqF3p.s 			page 38


 480      631D2075 
 480      86D41552 
 480      0F48BF80 
 480      741FA44E 
 481 00de 733F1C7F 		.ascii	"s?\034\177\015\351!H\017CJ\205\3648\2444H%\220\336\204"
 481      0DE92148 
 481      0F434A85 
 481      F438A434 
 481      482590DE 
 482 00f3 3409D2DB 		.ascii	"4\011\322\333\220&C*\2034\303\301i>\204\016'\034\223"
 482      9026432A 
 482      8334C3C1 
 482      693E840E 
 482      271C93
 483 0106 E0B842A6 		.ascii	"\340\270B\246\225\360\302C\332\"\320\343n\201\213\371"
 483      95F0C243 
 483      DA22D0E3 
 483      6E818BF9 
 484 0116 EC8D536F 		.ascii	"\354\215So\253\\o\257A\275:\206\366\352\014\35252\264"
 484      AB5C6FAF 
 484      41BD3A86 
 484      F6EA0CEA 
 484      3532B4
 485 0129 D768508F 		.ascii	"\327hP\217\310\272\033\034\273C\201?\363Tn\311\220f"
 485      C8BA1B1C 
 485      BB43813F 
 485      F3546EC9 
 485      9066
 486 013b 821C2A20 		.ascii	"\202\034* \375\021R?H\263\211|\341\3679\016\255~[!U"
 486      FD11523F 
 486      48B3897C 
 486      E1F7390E 
 486      AD7E5B21 
 487 0150 3AA8DE3F 		.ascii	":\250\336?\023\350\361\017\220\375\211$\236\322D\332"
 487      13E8F10F 
 487      90FD8924 
 487      9ED244DA 
 488 0160 A87250DD 		.ascii	"\250rP\335\021\035\0222\210\016\356\327\311\232\350"
 488      111D1232 
 488      880EEED7 
 488      C99AE8
 489 016f F8418ED6 		.ascii	"\370A\216\326Q\350\230\342\240|\220\242\363!\373%\244"
 489      51E898E2 
 489      A07C90A2 
 489      F321FB25 
 489      A4
 490 0180 058EA8CD 		.ascii	"\005\216\250\315\334\016\347\013\035\324\316\210-u\203"
 490      DC0EE70B 
 490      1DD4CE88 
 490      2D7583
 491 018f F367E0F8 		.ascii	"\363g\340\370\004\244E\016j{\027!-\206\363\216\220\226"
 491      04A4450E 
 491      6A7B1721 
 491      2D86F38E 
 491      9096
 492 01a1 C8F413DB 		.ascii	"\310\364\023\333s\303\371RG\254]^\025\242r\374w\216"
 492      73C3F952 
ARM GAS  /tmp/ccsMqF3p.s 			page 39


 492      47AC5D5E 
 492      15A272FC 
 492      778E
 493 01b3 DA36E191 		.ascii	"\3326\341\221\360\367\030\244{H[2\317D'\033 \275\"P"
 493      F0F718A4 
 493      7B485B32 
 493      CF44271B 
 493      20BD2250 
 494 01c7 7A090FF7 		.ascii	"z\011\017\367\311v\330C\266Kb\237\304f\211\255\022\233"
 494      C976D843 
 494      B64B629F 
 494      C46689AD 
 494      129B
 495 01d9 25B6BB53 		.ascii	"%\266\273S\226Ew.j\177\017\311\366\371k\331V\357\227"
 495      9645772E 
 495      6A7F0FC9 
 495      F6F96BD9 
 495      56EF97
 496 01ec ED96D8EA 		.ascii	"\355\226\330\352rH+ \255\204\364>\244U\220VCZ\003i-"
 496      72482B20 
 496      AD84F43E 
 496      A4559056 
 496      435A0369 
 497 0201 A4752A7B 		.ascii	"\244u*{.\323\311\265#7Q\222\212\245\352\022\351\371"
 497      2ED3C9B5 
 497      23375192 
 497      8AA5EA12 
 497      E9F9
 498 0213 9A4EDDB8 		.ascii	"\232N\335\2702\011>)5 \341\227y\221\357\344\345Z=x\226"
 498      32093E29 
 498      3520E197 
 498      7991EFE4 
 498      E55A3D78 
 499 0228 ECE5FE07 		.ascii	"\354\345\376\007J\337\307\315\227\244\322\326\005\347"
 499      4ADFC7CD 
 499      97A4D2D6 
 499      05E7
 500 0236 4F392429 		.ascii	"O9$)I\344\337\345\273\201\306~\301\203j\226@\305RIj"
 500      49E4DFE5 
 500      BB81C67E 
 500      C1836A96 
 500      40C55249 
 501 024b BB3DD68E 		.ascii	"\273=\326\2168K\\\221\237\317\013\220/\004<\221_\300"
 501      384B5C91 
 501      9FCF0B90 
 501      2F043C91 
 501      5FC0
 502 025d 3F485B92 		.ascii	"?H[\222\302\377\234\220,9\351uN\376\305\340\363s\256"
 502      C2FF9C90 
 502      2C39E975 
 502      4EFEC5E0 
 502      F373AE
 503 0270 1A98085F 		.ascii	"\032\230\010_\335=\377N\251z'o\304\023\024\340U\315"
 503      DD3DFF4E 
 503      A97A276F 
 503      C41314E0 
 503      55CD
ARM GAS  /tmp/ccsMqF3p.s 			page 40


 504 0282 4B82D27C 		.ascii	"K\202\322|\012G\214\356Q\336\210Hm)\221_\206D.\327\023"
 504      0A478CEE 
 504      51DE8848 
 504      6D29915F 
 504      86442ED7 
 505 0297 594F895C 		.ascii	"YO\211\\\316Dd\303\356=\2744%YCc\017n:\322X\002D\206"
 505      CE4464C3 
 505      EE3DBC34 
 505      25594363 
 505      0F6E3AD2 
 506 02af BCDC1BD1 		.ascii	"\274\334\033\321_\"\244\244(\2248\243j\250,i\272\300"
 506      5F22A4A4 
 506      289438A3 
 506      6AA82C69 
 506      BAC0
 507 02c1 17431D91 		.ascii	"\027C\035\221_\315{\201\213\321\274\246y\221wy\325\024"
 507      5FCD7B81 
 507      8BD1BCA6 
 507      79917779 
 507      D514
 508 02d3 E077A500 		.ascii	"\340w\245\000\201\303\237\345\023\342\264;\0337Gj\256"
 508      81C39FE5 
 508      13E2B43B 
 508      1B37476A 
 508      AE
 509 02e4 E27BE099 		.ascii	"\342{\340\231\003{(\\x\262\243r\256aE\246\276uA\370"
 509      037B285C 
 509      78B2A372 
 509      AE6145A6 
 509      BE7541F8 
 510 02f8 8E9951EA 		.ascii	"\216\231Q\352\223\0248>J}\331\304\025\017\201\021E*"
 510      9314383E 
 510      4A7DD9C4 
 510      150F8111 
 510      452A
 511 030a 48A61544 		.ascii	"H\246\025D~\023\177\037\344\274\226z\336\033=i\347\211"
 511      7E137F1F 
 511      E4BC967A 
 511      DE1B3D69 
 511      E789
 512 031c 16AB78AD 		.ascii	"\026\253x\255\000\030\260\025QN\252z\014-\372\003\024"
 512      0018B015 
 512      514EAA7A 
 512      0C2DFA03 
 512      14
 513 032d 6423AF97 		.ascii	"d#\257\227$\257\223\244\005-v\312\232\211|\003\030r"
 513      24AF93A4 
 513      052D76CA 
 513      9A897C03 
 513      1872
 514 033f F41311FC 		.ascii	"\364\023\021\374jJ\212\310\277\024\355\312f\020\357"
 514      6A4A8AC8 
 514      BF14EDCA 
 514      6610EF
 515 034e 472104EE 		.ascii	"G!\004\356\0302E\254\324\250\270|\252\301\323Xn\353"
 515      183245AC 
 515      D4A8B87C 
ARM GAS  /tmp/ccsMqF3p.s 			page 41


 515      AAC1D358 
 515      6EEB
 516 0360 822B3363 		.ascii	"\202+3c\273\227\306t)qf\304\354d4!\221\337\034\007\345"
 516      BB97C674 
 516      297166C4 
 516      EC643421 
 516      91DF1C07 
 517 0375 931B97CA 		.ascii	"\223\033\227\312\207j\251\374\303\266TR\324R\221\326"
 517      876AA9FC 
 517      C3B65452 
 517      D45291D6 
 518 0385 4892D76D 		.ascii	"H\222\327m\321\233%\226\336\274v\377\307\365\374X\354"
 518      D19B2596 
 518      DEBC76FF 
 518      C7F5FC58 
 518      EC
 519 0396 CD9FA211 		.ascii	"\315\237\242\021\316\021\014\254\231\005\252\272\254"
 519      CE110CAC 
 519      9905AABA 
 519      AC
 520 03a3 B63B7148 		.ascii	"\266;qH\373\020\346\335DaZ+?\335H;E=\002-\025\364\235"
 520      FB10E6DD 
 520      44615A2B 
 520      3FDD483B 
 520      453D022D 
 521 03ba C2ADEB14 		.ascii	"\302\255\353\024n\255\241\303W\322\322%\342Z\370\327"
 521      6EADA1C3 
 521      57D2D225 
 521      E25AF8D7 
 522 03ca E52BE48B 		.ascii	"\345+\344\213\207\373?\257gf\013\265\346FI\355\220\325"
 522      87FB3FAF 
 522      67660BB5 
 522      E64649ED 
 522      90D5
 523 03dc A8F6A88D 		.ascii	"\250\366\250\215j\235\300`TIj<NmTL]\355\3238\235\344"
 523      6A9DC060 
 523      54496A3C 
 523      4E6D544C 
 523      5DEDD338 
 524 03f2 B001574C 		.ascii	"\260\001WL\\\034Rs\261\3116\027\266\272F|\026\2161("
 524      5C1C5273 
 524      B1C93617 
 524      B6BA467C 
 524      168E3128 
 525 0406 46FE2EBB 		.ascii	"F\376.\273y\251Dz`q\324\242\273(\210B\324\242/7lx\020"
 525      79A9447A 
 525      6071D4A2 
 525      BB288842 
 525      D4A22F37 
 526 041d 2DBA0D2D 		.ascii	"-\272\015-\272\305\250k0\001\225M\334\370\033\004:\201"
 526      BAC5A86B 
 526      3001954D 
 526      DCF81B04 
 526      3A81
 527 042f 40271206 		.ascii	"@'\022\006\252\234\264\350q\004:\205@\337\306\3641\207"
 527      AA9CB4E8 
 527      71043A85 
ARM GAS  /tmp/ccsMqF3p.s 			page 42


 527      40DFC6F4 
 527      3187
 528 0441 AE8F39B4 		.ascii	"\256\2179\2646\357\360FO\332\333\265\301\335\315/\314"
 528      36EFF046 
 528      4FDADBB5 
 528      C1DDCD2F 
 528      CC
 529 0452 644347D5 		.ascii	"dCG\3256t\231\305\206\272\250\3618\265\015\335pO\370"
 529      367499C5 
 529      86BAA8F1 
 529      38B50DDD 
 529      704FF8
 530 0465 369E19B5 		.ascii	"6\236\031\265\331\350\337g\324\\]\267\315U\212\232+"
 530      D9E8DF67 
 530      D45C5DB7 
 530      CD558A9A 
 530      2B
 531 0476 EB9E116F 		.ascii	"\353\236\021o\034\375>\036Kr\320\240\037\027\023b\371"
 531      1CFD3E1E 
 531      4B72D0A0 
 531      1F171362 
 531      F9
 532 0487 829AE5B1 		.ascii	"\202\232\345\261\016\006\226\3570U\344\215\261|-\036"
 532      0E0696EF 
 532      3055E48D 
 532      B17C2D1E 
 533 0497 CB9FDC44 		.ascii	"\313\237\334D\226\257\252Y\236h\233\345\024N\373Q\372"
 533      96AFAA59 
 533      9E689BE5 
 533      144EFB51 
 533      FA
 534 04a8 93C8AFE4 		.ascii	"\223\310\257\344\177\016y\030\363\032\314\2331\377\014"
 534      7F0E7918 
 534      F31ACC9B 
 534      31FF0C
 535 04b7 F36F303F 		.ascii	"\363o0?\217\371\025\310-\351\\\242\246\263\024\351\\"
 535      8FF915C8 
 535      2DE95CA2 
 535      A6B314E9 
 535      5C
 536 04c8 98606027 		.ascii	"\230``'\205\257\355N.\025\225y\222\333\"(84k?\217\016"
 536      85AFED4E 
 536      2E159579 
 536      92DB2228 
 536      38346B3F 
 537 04de 6B9C40E6 		.ascii	"k\234@\346~\253\035Z\207e\011#pa\2542A\320\315\242\326"
 537      7EAB1D5A 
 537      87650923 
 537      7061AC32 
 537      41D0CDA2 
 538 04f3 97DC4682 		.ascii	"\227\334F\202\026r\335z\026\265\261\244\322t\252\247"
 538      1672DD7A 
 538      16B5B1A4 
 538      D274AAA7 
 539 0503 9EC155F3 		.ascii	"\236\301U\363J\333\267EX\010\037\376\221O\021\371\267"
 539      4ADBB745 
 539      58081FFE 
ARM GAS  /tmp/ccsMqF3p.s 			page 43


 539      914F11F9 
 539      B7
 540 0514 90FEBF1B 		.ascii	"\220\376\277\033\323o\216\001q4V\231\254\247\377\202"
 540      D36F8E01 
 540      71345699 
 540      ACA7FF82 
 541 0524 9842AF5A 		.ascii	"\230B\257ZS\177\361+\234\003\212\374$\241#\000\236\211"
 541      537FF12B 
 541      9C038AFC 
 541      24A12300 
 541      9E89
 542 0536 00261498 		.ascii	"\000&\024\230\207\257\370kzY\012\302\251\000\365\213"
 542      87AFF86B 
 542      7A590AC2 
 542      A900F58B 
 543 0546 EAF252C3 		.ascii	"\352\362R\303\223D\3443P\022\347\031$\241\001\021\270"
 543      9344E433 
 543      5012E719 
 543      24A10111 
 543      B8
 544 0557 AB58A542 		.ascii	"\253X\245B'\211\326\331mu\017\315\224\244.\364'+q\300"
 544      2789D6D9 
 544      6D750FCD 
 544      94A42EF4 
 544      272B71C0 
 545 056b 24BF760E 		.ascii	"$\277v\016O\224i\320\342S\3520C\031\304\2476\226\361"
 545      4F9469D0 
 545      E253EA30 
 545      4319C4A7 
 545      3696F1
 546 057e E33050AE 		.ascii	"\3430P\256D\312\253\235\3066\370\224\031\220\300\255"
 546      44CAAB9D 
 546      C636F894 
 546      1990C0AD 
 547 058e C22AD5B1 		.ascii	"\302*\325\261\224_\3725\245\274\232I\221\365\023\251"
 547      945FFA35 
 547      A5BC9A49 
 547      91F513A9 
 548 059e 198AFC74 		.ascii	"\031\212\374t\201DXS\005A\206ML\223\007j\241'R0\201"
 548      81445853 
 548      0541864D 
 548      4C93076A 
 548      A1275230 
 549 05b3 FB3042A3 		.ascii	"\3730B\243\315\231\211\321G\315\254\310\277+\220\371"
 549      CD9989D1 
 549      47CDACC8 
 549      BF2B90F9 
 550 05c3 F47B02F1 		.ascii	"\364{\002\3617\363\005\225\277\021\270]NE\247F\222\263"
 550      37F30595 
 550      BF11B85D 
 550      4E45A746 
 550      92B3
 551 05d5 66E172ED 		.ascii	"f\341r\355\034\024\011\3732\306\332\311\221\211\317"
 551      1C1409FB 
 551      32C6DAC9 
 551      9189CF
 552 05e4 62810441 		.ascii	"b\201\004A{\235\206\321\024\003T\331\304O>\224WD\226"
ARM GAS  /tmp/ccsMqF3p.s 			page 44


 552      7B9D86D1 
 552      140354D9 
 552      C44F3E94 
 552      574496
 553 05f7 215463C2 		.ascii	"!Tc\302P\225\223\266\322\300l%\002\035u\352\0033\217"
 553      509593B6 
 553      D2C06C25 
 553      021D75EA 
 553      03338F
 554 060a 2E30F368 		.ascii	".0\363h\303'\2177z\"\257\255\374\264\305\005\356\224"
 554      C3278F37 
 554      7A22AFAD 
 554      FCB4C505 
 554      EE94
 555 061c 5E75B666 		.ascii	"^u\266f\035R\353\254\266S\017UH\341q\016\006'~\006\333"
 555      1D52EBAC 
 555      B6530F55 
 555      48E1710E 
 555      06277E06 
 556 0631 5AABEF40 		.ascii	"Z\253\357@\027O\326\310\035h-S\007Z_[\316\346\307#+"
 556      174FD6C8 
 556      1D682D53 
 556      075A5F5B 
 556      CEE6C723 
 557 0646 71BFC2E6 		.ascii	"q\277\302\346\253\\\244\371M\372\346\327\177]\363\027"
 557      AB5CA4F9 
 557      4DFAE6D7 
 557      7F5DF317 
 558 0656 DAFC26A6 		.ascii	"\332\374&\246\34677O\213m^\344\237\350\036\3172.\236"
 558      E637374F 
 558      8B6D5EE4 
 558      9FE81ECF 
 558      322E9E
 559 0669 3C75F75C 		.ascii	"<u\367\\ld+\366\323\003.\275i<\251^\242Pf_\221\0020"
 559      6C642BF6 
 559      D3032EBD 
 559      693CA95E 
 559      A250665F 
 560 0680 EF88509F 		.ascii	"\357\210P\237\220\233\0006O\375u\011\004To\272\025\032"
 560      909B0036 
 560      4FFD7509 
 560      04546FBA 
 560      151A
 561 0692 8ED9464C 		.ascii	"\216\331FL\321\010bk3:\036\012v\234\005\314|\366\032"
 561      D108626B 
 561      333A1E0A 
 561      769C05CC 
 561      7CF61A
 562 06a5 DEAE06FB 		.ascii	"\336\256\006\373\207m0-euj\260\223,`\346\263\211\360"
 562      876D302D 
 562      65756AB0 
 562      932C60E6 
 562      B389F0
 563 06b8 0135D869 		.ascii	"\0015\330i\333`Z\312\032\325`gX\300\314\303\343p\223"
 563      DB605ACA 
 563      1AD56067 
 563      58C0CCC3 
ARM GAS  /tmp/ccsMqF3p.s 			page 45


 563      E37093
 564 06cb 1AEC9C6D 		.ascii	"\032\354\234m0-e\207\324`\027Y\300R\014(\213|\314\202"
 564      302D6587 
 564      D4601759 
 564      C0520C28 
 564      8B7CCC82 
 565 06df D08D822A 		.ascii	"\320\215\202*\010\275\344R\034\202M\233\346\242\030"
 565      08BDE452 
 565      1C824D9B 
 565      E6A218
 566 06ee 575D761D 		.ascii	"W]v\035\230\206o2|?\264E\356\027t\014mgA\214c0\245\237"
 566      98866F32 
 566      7C3FB445 
 566      EE17740C 
 566      6D67418C 
 567 0706 AA06E4F1 		.ascii	"\252\006\344\361n\273`Z\265T\021\260\204V\313\311\235"
 567      6EBB605A 
 567      B55411B0 
 567      8456CBC9 
 567      9D
 568 0717 1541B59A 		.ascii	"\025A\265\232}\207qY\221?\214\003\373\021\301\033\241"
 568      7D877159 
 568      913F8C03 
 568      FB11C11B 
 568      A1
 569 0728 829E2B67 		.ascii	"\202\236+gt\235|\222[\273D\035\371XU5\263\204f\265%"
 569      749D7C92 
 569      5BBB441D 
 569      F9585535 
 569      B38466B5 
 570 073d 94B28829 		.ascii	"\224\262\210)NW\2503\023S\270Dz\203\037\263\372\356"
 570      4E57A833 
 570      1353B844 
 570      7A831FB3 
 570      FAEE
 571 074f B8D12178 		.ascii	"\270\321!x\347{\226\242w\376\034\007\356\351n\303\010"
 571      E77B96A2 
 571      77FE1C07 
 571      EEE96EC3 
 571      08
 572 0760 8009AB6C 		.ascii	"\200\011\253l\342~%\234hC\260\352\304\301\252+?\275"
 572      E27E259C 
 572      6843B0EA 
 572      C4C1AA2B 
 572      3FBD
 573 0772 9B04DB27 		.ascii	"\233\004\333'\020h\211[?fxu\341\204W;\340{\275\321\223"
 573      1068895B 
 573      3F667875 
 573      E184573B 
 573      E07BBDD1 
 574 0787 76E5A3BF 		.ascii	"v\345\243\277\321\360\023\3261\323\3741\265\346\327"
 574      D1F013D6 
 574      31D3FC31 
 574      B5E6D7
 575 0796 D9D6BCA6 		.ascii	"\331\326\274\246\203\220\000\244g\271\024\036\343`\277"
 575      839000A4 
 575      67B9141E 
ARM GAS  /tmp/ccsMqF3p.s 			page 46


 575      E360BF
 576 07a5 71B376FF 		.ascii	"q\263v\377\366\337a\230v\032\345\372A\214\\7\333\274"
 576      F6DF6198 
 576      761AE5FA 
 576      418C5C37 
 576      DBBC
 577 07b7 7323701F 		.ascii	"s#p\037\353\271\320\264\033\307aF\274PM\352\346\225"
 577      EBB9D0B4 
 577      1BC76146 
 577      BC504DEA 
 577      E695
 578 07c9 9234D66D 		.ascii	"\2224\326m\203\215\311"
 578      838DC9
 579 07d0 321BDF21 		.ascii	"2\033\337!\033\2657\201\215\003\266\331H\322\261q6\001"
 579      1BB53781 
 579      8D03B6D9 
 579      48D2B171 
 579      3601
 580 07e2 36765036 		.ascii	"6vP6\276G6\016\335\0046Zm\263\321E\305\006N\351\372"
 580      BE47360E 
 580      DD04365A 
 580      6DB3D145 
 580      C5064EE9 
 581 07f7 6FC631E1 		.ascii	"o\3061\341VnJ\374\250\226\320sY\270U;\255?\270\217,"
 581      566E4AFC 
 581      A896D073 
 581      59B8553B 
 581      AD3FB88F 
 582 080c 1690CBD6 		.ascii	"\026\220\313\326\023\331\013\373\346\310\323Az\007\347"
 582      13D90BFB 
 582      E6C8D341 
 582      7A07E7
 583 081b 04D24EEA 		.ascii	"\004\322N\352&\022\347I\341\322\3758\372P\260on\010"
 583      2612E749 
 583      E1D2FD38 
 583      FA50B06F 
 583      6E08
 584 082d AC383C77 		.ascii	"\2548<w\2622W}\022\303\202\033\204\333\272_\357\245"
 584      B232577D 
 584      12C3821B 
 584      84DBBA5F 
 584      EFA5
 585 083f 7541F40C 		.ascii	"uA\364\014\0237\020\231\305\357R|\353X\007!\350Z\214"
 585      13371099 
 585      C5EF527C 
 585      EB580721 
 585      E85A8C
 586 0852 B14C1774 		.ascii	"\261L\027tq4\235dG\212\230\351\260\330\241\362I\223"
 586      71349D64 
 586      478A98E9 
 586      B0D8A1F2 
 586      4993
 587 0864 3D37A403 		.ascii	"=7\244\003\260\237COl\226c\012\252\210\3517\204\010"
 587      B09F434F 
 587      6C96630A 
 587      AA88E937 
 587      8408
ARM GAS  /tmp/ccsMqF3p.s 			page 47


 588 0876 33E4C96C 		.ascii	"3\344\311lkW\257*X\311\310H%6;\311\241\237\362\\m-\221"
 588      6B57AF2A 
 588      58C9C848 
 588      25363BC9 
 588      A19FF25C 
 589 088d E5487EB3 		.ascii	"\345H~\2636\322\226\023^\\{\252\304\311\323B\\\261 "
 589      36D29613 
 589      5E5C7BAA 
 589      C4C9D342 
 589      5CB120
 590 08a0 358D862E 		.ascii	"5\215\206.k\023=\346\257\351e\347\036\347.e\252_\352"
 590      6B133DE6 
 590      AFE965E7 
 590      1EE72E65 
 590      AA5FEA
 591 08b3 20B2FCD8 		.ascii	" \262\374\330\243W\372>\275\207\260q\223\017\034gDH"
 591      A357FA3E 
 591      BD87B071 
 591      930F1C67 
 591      4448
 592 08c5 AC11A4FE 		.ascii	"\254\021\244\376cfT\023\325F\265\357\306L\000\214\352"
 592      63665413 
 592      D546B5EF 
 592      C64C008C 
 592      EA
 593 08d6 D4F33450 		.ascii	"\324\3634P\2652\002)\262\370\330\005[>\210-\227\353"
 593      B5320229 
 593      B2F8D805 
 593      5B3E882D 
 593      97EB
 594 08e8 ADE0C7EB 		.ascii	"\255\340\307\3535\023\3701(\330r&+\270h`\005\345\011"
 594      3513F831 
 594      28D87226 
 594      2BB86860 
 594      05E509
 595 08fb 5A0198B4 		.ascii	"Z\001\230\264\262\240I\003\345K\021\"mjA\206\273\306"
 595      B2A04903 
 595      E54B1122 
 595      6D6A4186 
 595      BBC6
 596 090d B0A0A915 		.ascii	"\260\240\251\025\214\262\262{\2028\353\271\016\262*"
 596      8CB2B27B 
 596      8238EBB9 
 596      0EB22A
 597 091c 783DC6B4 		.ascii	"x=\306\264\250dT\246\025\025#\2140\016\0229\317r\220"
 597      A86454A6 
 597      1515238C 
 597      300E1239 
 597      CF7290
 598 092f 25B1D998 		.ascii	"%\261\331\230W:\030\026\342\253\242f\241,\377\331\341"
 598      573A1816 
 598      E2ABA266 
 598      A12CFFD9 
 598      E1
 599 0940 3B85D1FA 		.ascii	";\205\321\372f\250\255\257$\351\306\254\017\302\254"
 599      66A8ADAF 
 599      24E9C6AC 
ARM GAS  /tmp/ccsMqF3p.s 			page 48


 599      0FC2AC
 600 094f FEB8CE63 		.ascii	"\376\270\316cc\215n\377'J\307\235\217\035\367\355$\275"
 600      638D6EFF 
 600      274AC79D 
 600      8F1DF7ED 
 600      24BD
 601 0961 749709B6 		.ascii	"t\227\011\266\027\304\004\256\"QV\"\037\010\312\223"
 601      17C404AE 
 601      22515622 
 601      1F08CA93 
 602 0971 18A2CE14 		.ascii	"\030\242\316\024\003\251G<|\353\037\250\207g\275\007"
 602      03A9473C 
 602      7CEB1FA8 
 602      8767BD07 
 603 0981 72B961EF 		.ascii	"r\271a\357\030y\005z)\332\332\273:i0,\240\255\306*+"
 603      1879057A 
 603      29DADABB 
 603      3A69302C 
 603      A0ADC62A 
 604 0996 F41D7976 		.ascii	"\364\035yv[X^@[\301\320\217\213\303k\015W\240W\3047"
 604      5B585E40 
 604      5BC1D08F 
 604      8BC36B0D 
 604      57A057C4 
 605 09ab C1B802D5 		.ascii	"\301\270\002\325\350p\205\252\207\274\217=d\225\272"
 605      E87085AA 
 605      87BC8F3D 
 605      6495BA
 606 09ba 5708DC87 		.ascii	"W\010\334\207,\302\177\300\314\026\301\017\035\240k"
 606      2CC27FC0 
 606      CC16C10F 
 606      1DA06B
 607 09c9 FFCA5AFE 		.ascii	"\377\312Z\376\036=\236\221'\322\340\251\225\011\023"
 607      1E3D9E91 
 607      27D2E0A9 
 607      950913
 608 09d8 F6060C99 		.ascii	"\366\006\014\231\250\221\036`!\256\2279\330\334\251"
 608      A8911E60 
 608      21AE9739 
 608      D8DCA9
 609 09e7 8A706760 		.ascii	"\212pg`\210\322\302\202\367\230\031\263\305\341\215"
 609      88D2C282 
 609      F79819B3 
 609      C5E18D
 610 09f6 0D4A7C48 		.ascii	"\015J|H\027\272\277\260\215\247\245\357\340TMH\367\015"
 610      17BABFB0 
 610      8DA7A5EF 
 610      E0544D48 
 610      F70D
 611 0a08 0BDC53CC 		.ascii	"\013\334S\314\272\217\336\327\001\217\210\353\012s\360"
 611      BA8FDED7 
 611      018F88EB 
 611      0A73F0
 612 0a17 86C122CC 		.ascii	"\206\301\"\314\327`~\000\363F\314\2330?\212\371W\230"
 612      D7607E00 
 612      F346CC9B 
 612      303F8AF9 
ARM GAS  /tmp/ccsMqF3p.s 			page 49


 612      5798
 613 0a29 7F8BF905 		.ascii	"\177\213\371\005\314/a\276\004=\353\032\314\327a\276"
 613      CC2F61BE 
 613      043DEB1A 
 613      CCD761BE 
 614 0a39 01F34D98 		.ascii	"\001\363M\230oa\361\270\272 P\340\316'\331\275}\246"
 614      6F61F1B8 
 614      BA2050E0 
 614      CE27D9BD 
 614      7DA6
 615 0a4b 9162EBE1 		.ascii	"\221b\353\341#;\036Gw\250\230\315U\026\3008\303\327"
 615      233B1E47 
 615      77A898CD 
 615      5516C038 
 615      C3D7
 616 0a5d 945D6083 		.ascii	"\224]`\203v\356\177D\202\2420\266_\354\275\011\276U"
 616      76EE7F44 
 616      82A230B6 
 616      5FECBD09 
 616      BE55
 617 0a6f E4CFA32B 		.ascii	"\344\317\243+\260\303\206^.\237\224\361S\307J5\275\024"
 617      B0C3865E 
 617      2E9F94F1 
 617      53C74A35 
 617      BD14
 618 0a81 C2267B19 		.ascii	"\302&{\031\004c\264\232fl`\223U\006V\206\0066\005\215"
 618      0463B49A 
 618      666C6093 
 618      55065686 
 618      0636058D 
 619 0a95 641AE6DB 		.ascii	"d\032\346\333\320$v`\376\021\213aL\022b\206\342\011"
 619      D0247660 
 619      FE118B61 
 619      4C126286 
 619      E209
 620 0aa7 37B01CA9 		.ascii	"7\260\034\251!u\202\212\3247\221\324\211\332\333f3\274"
 620      2175828A 
 620      D43791D4 
 620      89DADB66 
 620      33BC
 621 0ab9 76EFC16B 		.ascii	"v\357\301k\205\375I\373\314\333\245\3260\357\341Jp\256"
 621      85FD49FB 
 621      CCDBA5D6 
 621      30EFE14A 
 621      70AE
 622 0acb 3DBED862 		.ascii	"=\276\330b\256\035\276\344\026D~\267\303Cv\012\352\014"
 622      AE1DBEE4 
 622      16447EB7 
 622      C343760A 
 622      EA0C
 623 0add 860104F7 		.ascii	"\206\001\004\367\276Ae\315\\\367\\Ig\262DE\256\307\031"
 623      BE4165CD 
 623      5CF75C49 
 623      67B24445 
 623      AEC719
 624 0af0 79706385 		.ascii	"ypc\205\300-\364\322\010\314\351\215^[\025\275\306\253"
 624      C02DF4D2 
ARM GAS  /tmp/ccsMqF3p.s 			page 50


 624      08CCE98D 
 624      5E5B15BD 
 624      C6AB
 625 0b02 8A6E8A5E 		.ascii	"\212n\212^V\0363 _\343n\232\215\022\007\363.\034y\366"
 625      561E3320 
 625      5FE36E9A 
 625      8D1207F3 
 625      2E1C79F6 
 626 0b16 3A1C86D5 		.ascii	":\034\206\325D\376\214 h\205o\264F`~\343+\374\343n\022"
 626      44FE8C20 
 626      68856FB4 
 626      46607EE3 
 626      2BFCE36E 
 627 0b2b 0C5BDE76 		.ascii	"\014[\336v\222\373\353\324\225\365\367.\307!\272\001"
 627      92FBEBD4 
 627      95F5F72E 
 627      C721BA01 
 628 0b3b 07FFE33A 		.ascii	"\007\377\343:\3513\342\204\327c\260\332\204\030\337"
 628      E933E284 
 628      D763B0DA 
 628      8418DF
 629 0b4a D9C510B8 		.ascii	"\331\305\020\270+X\345\260C\277c\236lC8\3144\007\270"
 629      2B58E5B0 
 629      43BF639E 
 629      6C4338CC 
 629      3407B8
 630 0b5d AC9A0308 		.ascii	"\254\232\003\010\334\330\016\012^\002s\200qcq\027\002"
 630      DCD80E0A 
 630      5E027380 
 630      71637117 
 630      02
 631 0b6e 3ABDB171 		.ascii	":\275\261q\235\036x\177\334\314m\275\025\035\202L=I"
 631      9D1E787F 
 631      DCCC6DBD 
 631      151D824C 
 631      3D49
 632 0b80 361DF18F 		.ascii	"6\035\361\217\312\264\204l\021\022\270r\333p\232>\032"
 632      CAB4846C 
 632      1112B872 
 632      DB709A3E 
 632      1A
 633 0b91 BEEE27AE 		.ascii	"\276\356'\256\220bU\263`\305\271\261\200c\204\002\266"
 633      906255B3 
 633      60C5B9B1 
 633      80638402 
 633      B6
 634 0ba2 D0369896 		.ascii	"\3206\230\226\260ij\260\225,`q\226\337\313w\315\261"
 634      B0696AB0 
 634      952C6071 
 634      96DFCB77 
 634      CDB1
 635 0bb4 DC716772 		.ascii	"\334qgr\203\224h\367k\207f\253\226nQ\250\311\204,\354"
 635      839468F7 
 635      6B8766AB 
 635      966E51A8 
 635      C9842CEC 
 636 0bc8 C5EAA994 		.ascii	"\305\352\251\224\305^-\271\0135\314#]\3504\006g\033"
ARM GAS  /tmp/ccsMqF3p.s 			page 51


 636      C55E2DB9 
 636      0B35CC23 
 636      5DE83406 
 636      671B
 637 0bda 3A68BB90 		.ascii	":h\273\220\256eB\227Y\313g\035\035M:K\314o\002\027\266"
 637      AE654297 
 637      59CB671D 
 637      1D4D3A4B 
 637      CC6F0217 
 638 0bef 2D5FADB2 		.ascii	"-_\255\262*J4A\333\036\026\270\024\003u\031}\324\376"
 638      2A4A3441 
 638      DB1E16B8 
 638      14037519 
 638      7DD4FE
 639 0c02 40E45BD0 		.ascii	"@\344[\320m~\206#\3501\314\217c\376\005\346'0?\211\371"
 639      6D7E8623 
 639      E831CC8F 
 639      63FE05E6 
 639      27303F89 
 640 0c17 57989F57 		.ascii	"W\230\237W\217\262?\015\252\300\325u\320\015\224Z\277"
 640      8FB23F0D 
 640      AAC0D575 
 640      D00D945A 
 640      BF
 641 0c28 66D50B25 		.ascii	"f\325\013%2R\232\355\0262s\327\217Sw\375\003\272\332"
 641      32529AED 
 641      163273D7 
 641      8F5377FD 
 641      03BADA
 642 0c3b 669D9D50 		.ascii	"f\235\235P\243\374\251\330\375\222\211]\315\034\204"
 642      A3FCA9D8 
 642      FD92895D 
 642      CD1C84
 643 0c4a 8B651702 		.ascii	"\213e\027\002\203\256\\)\262;S\373|\204v\031\004\267"
 643      83AE5C29 
 643      B23B53FB 
 643      7C847619 
 643      04B7
 644 0c5c 303ABAE2 		.ascii	"0:\272\342\231fU\016K\230\231\3775G\364\236_\2627z\322"
 644      9966550E 
 644      4B9899FF 
 644      3547F49E 
 644      5FB2377A 
 645 0c71 39C2C519 		.ascii	"9\302\305\031=\027\332f\345\323A\246J#{\241\035nJ\233"
 645      3D17DA66 
 645      E5D341A6 
 645      4A237BA1 
 645      1D6E4A9B 
 646 0c85 C09D6542 		.ascii	"\300\235eB{\325\014\315h/\251\321\023f\021\320\273\243"
 646      7BD50CCD 
 646      682FA9D1 
 646      136611D0 
 646      BBA3
 647 0c97 C6D0B4F1 		.ascii	"\306\320\264\361\334Dy\235\254\330I\254aaG\313\201W"
 647      DC44799D 
 647      ACD849AC 
 647      616147CB 
ARM GAS  /tmp/ccsMqF3p.s 			page 52


 647      8157
 648 0ca9 0B440436 		.ascii	"\013D\0046\336\251\033t?h\253\241\233\"\311/\026\003"
 648      DEA91B74 
 648      3F68ABA1 
 648      9B22C92F 
 648      1603
 649 0cbb 2F0C953B 		.ascii	"/\014\225;\332j\204\350\002\214\325x\271\034\343M\226"
 649      DA6A84E8 
 649      028CD578 
 649      B91CE34D 
 649      96
 650 0ccc D59475C8 		.ascii	"\325\224u\310\014\241\301f\320+\323UG\330 \343\345\033"
 650      0CA1C166 
 650      D02BD355 
 650      47D820E3 
 650      E51B
 651 0cde 18A96DB4 		.ascii	"\030\251m\264\015\227\242\201;\240\205\333\302\002g"
 651      0D97A281 
 651      3BA085DB 
 651      C20267
 652 0ced 369A035C 		.ascii	"6\232\003\\\243\026n\273m8-uMZ\270\235,pf\003:\300\035"
 652      A3166EBB 
 652      6D382D75 
 652      4D5AB89D 
 652      2C706603 
 653 0d04 D2C2EDB2 		.ascii	"\322\302\355\262\015\247\245\356\210\026\256\226\005"
 653      0DA7A5EE 
 653      8816AE96 
 653      05
 654 0d11 CE685037 		.ascii	"\316hP7\372\250\015X\344K\234\304\274&8\211\363\232"
 654      FAA80D58 
 654      E44B9CC4 
 654      BC263889 
 654      F39A
 655 0d23 88F95B98 		.ascii	"\210\371[\230\277\203y)\346S0\237\346d\230\205\215q"
 655      BF837929 
 655      E653309F 
 655      E6649885 
 655      8D71
 656 0d35 AA562AF7 		.ascii	"\252V*\367wd\230\025\025\232HA5+\242.O\340\016\352\361"
 656      77649815 
 656      159A4841 
 656      352BA22E 
 656      4FE00EEA 
 657 0d4a 8C02FD51 		.ascii	"\214\002\375Q\314b\210>n*\362\2130*]\214[\260\307\342"
 657      CC62883E 
 657      6E2AF28B 
 657      302A5D8C 
 657      5BB0C7E2 
 658 0d5e 047417FA 		.ascii	"\004t\027\372\363\003\230_\304\374\012\346\3271\227"
 658      F303985F 
 658      C4FC0AE6 
 658      D73197
 659 0d6d 5024E52C 		.ascii	"P$\345,\"\231\027\335\254\255qZj\227NvX\310\365WE\374"
 659      229917DD 
 659      ACAD715A 
 659      6A974E76 
ARM GAS  /tmp/ccsMqF3p.s 			page 53


 659      58C8F557 
 660 0d83 4D0F1960 		.ascii	"M\017\031`\226\323\256K\237\3554v\351\335-H\255p\032"
 660      96D3AE4B 
 660      9FED3476 
 660      E9DD2D48 
 660      AD701A
 661 0d96 93CAEA5F 		.ascii	"\223\312\352_/o?|\327\026\034l+\321\275^\266\353^E~"
 661      2F6F3F7C 
 661      D7161C6C 
 661      2BD1BD5E 
 661      B6EB5E45 
 662 0dab AE13F7D0 		.ascii	"\256\023\367\320\352\\lky\333\341|yk\256\265\217\205"
 662      EA5C6C6B 
 662      79DBE17C 
 662      796BAEB5 
 662      8F85
 663 0dbd 30EBF396 		.ascii	"0\353\363\226*{\023j\240\375\334\235t\031\346='\231"
 663      2A7B136A 
 663      A0FDDC9D 
 663      7419E63D 
 663      2799
 664 0dcf 55AF494E 		.ascii	"U\257INhV\275\320\251\233U\257\247\263jr\335zV\275-"
 664      6856BDD0 
 664      A99B55AF 
 664      A7B36A72 
 664      DD7A56BD 
 665 0de4 3976565D 		.ascii	"9vV]\223l8\253\256O\266?\253\216\022\007\026\217\035"
 665      936C38AB 
 665      AE4FB63F 
 665      AB8E1207 
 665      168F1D
 666 0df7 7FB133FE 		.ascii	"\177\2613\376\254\272\332\031\267\263i\314I\243\001"
 666      ACBADA19 
 666      B7B369CC 
 666      49A301
 667 0e06 A2B182ED 		.ascii	"\242\261\202\355\2467\271\252\265\017dW;\024\304G\""
 667      A637B9AA 
 667      B50F6457 
 667      3B14C447 
 667      22
 668 0e17 1A096F6B 		.ascii	"\032\011ok\341S\214\302<MY\221_\015\214X\026#\005\327"
 668      E1538CC2 
 668      3C4D5991 
 668      5F0D8C58 
 668      162305D7 
 669 0e2b EAC7ED8A 		.ascii	"\352\307\355\212#\370\344\366Z&\213Z\177\244J\016\334"
 669      23F8E4F6 
 669      5A268B5A 
 669      7FA44A0E 
 669      DC
 670 0e3c E9DEE216 		.ascii	"\351\336\342\026\264\217\265\211\215\266\200Ww\304\316"
 670      B48FB589 
 670      8DB68057 
 670      77C4CE
 671 0e4b 3261785B 		.ascii	"2ax[9>\324\271\011\325}Bg\233\011\336~\371\3266\013"
 671      393ED4B9 
 671      09D57D42 
ARM GAS  /tmp/ccsMqF3p.s 			page 54


 671      679B09DE 
 671      7EF9D636 
 672 0e60 291A168E 		.ascii	")\032\026\216\312\"Ip\256\270\335\251{\254g\216\223"
 672      CA224970 
 672      AEB8DDA9 
 672      7BAC678E 
 672      93
 673 0e71 E139C548 		.ascii	"\3419\305Hw\255\377\227\305\350\020\2669qC\203N$\272"
 673      77ADFF97 
 673      C5E810B6 
 673      39714383 
 673      4E24BA
 674 0e84 F91F69CB 		.ascii	"\371\037i\313\214\216\235N\363\371\237\3567\201\033"
 674      8C8E9D4E 
 674      F3F99FEE 
 674      37811B
 675 0e93 7B0B83CC 		.ascii	"{\013\203\314\342\354\262.o\253\177m[1\351\026\212\377"
 675      E2ECB22E 
 675      6FAB7F6D 
 675      5B31E916 
 675      8AFF
 676 0ea5 8FF609D3 		.ascii	"\217\366\011\323'\026d\033ho&\363\335]\350Z\337\272"
 676      2716641B 
 676      686F26F3 
 676      DD5DE85A 
 676      DFBA
 677 0eb7 C5F89E93 		.ascii	"\305\370\236\223)\006\341f\217\276\00747c\017\330\303"
 677      2906E166 
 677      8FBE0734 
 677      37630FD8 
 677      C3
 678 0ec8 E6539BAB 		.ascii	"\346S\233\253\354\355\355\017\267\317@\243\335\213F"
 678      ECEDED0F 
 678      B7CF40A3 
 678      DD8B46
 679 0ed7 5B79CB4D 		.ascii	"[y\313M1\332E\010\263'\341~w\265Y\351\307\333P\267\037"
 679      31DA4508 
 679      B327E17E 
 679      77B559E9 
 679      C7DB50B7 
 680 0eec E1806307 		.ascii	"\341\200c\007/\305HF\012\013{T\261U-\272\330O1T\250"
 680      2FC54846 
 680      0A0B7B54 
 680      B1552DBA 
 680      D84F3154 
 681 0f01 33081524 		.ascii	"3\010\025$\315\013&\360a6\333C}\275\311P\257t\"\201"
 681      CD0B26F0 
 681      6136DB43 
 681      7DBDC950 
 681      AF742281 
 682 0f15 5BAEB758 		.ascii	"[\256\267Xm\263\026\2412\271\251\326\202\353K\324\355"
 682      6DB316A1 
 682      32B9A9D6 
 682      82EB4BD4 
 682      ED
 683 0f26 AD67B1FF 		.ascii	"\255g\261\3778w\350\266\250\3016\263\200\031\315\216"
 683      3877E8B6 
ARM GAS  /tmp/ccsMqF3p.s 			page 55


 683      A8C136B3 
 683      8019CD8E 
 684 0f36 5502A7A2 		.ascii	"U\002\247\242^\207\242^\217\242\336\210\371V\314?\306"
 684      5E87A25E 
 684      8FA2DE88 
 684      F956CC3F 
 684      C6
 685 0f47 BC01F383 		.ascii	"\274\001\363\203j\025\300\014\"\306\036\351@\240\302"
 685      6A15C00C 
 685      22C61EE9 
 685      40A0C2
 686 0f56 8E8E189C 		.ascii	"\216\216\030\234=t3m\275\257\016\217k\220\200\352\204"
 686      3D74336D 
 686      BDAF0E8F 
 686      6B9080EA 
 686      84
 687 0f67 DDEF752A 		.ascii	"\335\357u*J2$\210\374\007N\301\032,\316b\351\214c\266"
 687      4A322488 
 687      FC074EC1 
 687      1A2CCE62 
 687      E98C63B6 
 688 0f7b 86A3B574 		.ascii	"\206\243\265t8j\301\236\275\377\346\364\354\026\026"
 688      386AC19E 
 688      BDFFE6F4 
 688      EC1616
 689 0f8a 79C4B1D3 		.ascii	"y\304\261\323\271\307h\314\307\274a1\\\321\214\017\035"
 689      B9C768CC 
 689      C7BC6131 
 689      5CD18C0F 
 689      1D
 690 0f9b B622175F 		.ascii	"\266\"\027_\304"
 690      C4
 691 0fa0 706177BB 		.ascii	"paw\273\"L\027\364Z0\012\232\342\254\013\3578\246\015"
 691      224C17F4 
 691      5A300A9A 
 691      E2AC0BEF 
 691      38A60D
 692 0fb3 32CEB288 		.ascii	"2\316\262\210$\316\322ps\325\\\246\315f\222[\001{5\""
 692      24CED270 
 692      73D55CA6 
 692      CD66925B 
 692      017B3522 
 693 0fc7 9DD6A3DF 		.ascii	"\235\326\243\337\235\313\247\021\361I\034r\336\353d"
 693      9DCBA711 
 693      F1491C72 
 693      DEEB64
 694 0fd6 19CD6B71 		.ascii	"\031\315kq\210DN\353\207\234\251-8\344\234fZ*\231\336"
 694      88444EEB 
 694      879CA92D 
 694      38E49C66 
 694      5A2A99DE 
 695 0fea A2DC327F 		.ascii	"\242\3342\177\003\255|2\312\367t\302K\0343h\227\241"
 695      03AD7C32 
 695      CAF774C2 
 695      4B1C3368 
 695      97A1
 696 0ffc 6065B6C1 		.ascii	"`e\266\301"
ARM GAS  /tmp/ccsMqF3p.s 			page 56


 697 1000 52346033 		.ascii	"R4`3\243`\002\367>\012\307\002,\316\362\306,5\330:\333"
 697      A36002F7 
 697      3E0AC702 
 697      2CCEF2C6 
 697      2C35D83A 
 698 1015 605ACAE6 		.ascii	"`Z\312\346\250\331|\223\205\3158K\033Uj\3126\263P\026"
 698      A8D97C93 
 698      85CD384B 
 698      1B556ACA 
 698      36B35016 
 699 1029 67616395 		.ascii	"gac\225\032l\033\013\230\331\275\012\000[\243\006\373"
 699      1A6C1B0B 
 699      98D9BD0A 
 699      005BA306 
 699      FB
 700 103a C8369896 		.ascii	"\3106\230\226\262uj\260=,`)\346\224mP\203\355\263\015"
 700      B2756AB0 
 700      3D2C6029 
 700      E6946D50 
 700      83EDB30D 
 701 104e A6A56C93 		.ascii	"\246\245l\223\032\354\000\013\230\331\216\033\000\333"
 701      1AEC000B 
 701      98D98E1B 
 701      00DB
 702 105c A2066BB2 		.ascii	"\242\006k\262\015\246\245l\253\032\354\010\013\230\331"
 702      0DA6A56C 
 702      AB1AEC08 
 702      0B98D9
 703 106b 52F7B831 		.ascii	"R\367\2701\341\355\177)\025\24311EU\334\212n\231[]l"
 703      E1ED7F29 
 703      15A33131 
 703      4555DC8A 
 703      6E995B5D 
 704 1080 99106735 		.ascii	"\231\020g5|\274\253\253|\246\304I\372\257\002wLO\267"
 704      7CBCABAB 
 704      7CA6C449 
 704      FAAF0277 
 704      4C4FB7
 705 1093 E17AB4D9 		.ascii	"\341z\264\331>!\262n\252\226B\033\213\024\2362\007;"
 705      3E21B26E 
 705      AA96421B 
 705      8B149E32 
 705      073B
 706 10a5 A0063BC9 		.ascii	"\240\006;\311\002\366\274\271\262\033\325`_\333\006"
 706      02F6BCB9 
 706      B21BD560 
 706      5FDB06
 707 10b4 D352D6A4 		.ascii	"\323R\326\244\006;\313\0026\310\234\262Cj\260\013\266"
 707      063BCB02 
 707      36C89CB2 
 707      436AB00B 
 707      B6
 708 10c5 C1D4948D 		.ascii	"\301\324\224\215\011\037\211Z\016\231\377hLG7\007\322"
 708      091F895A 
 708      0E99FF68 
 708      4C473707 
 708      D2
ARM GAS  /tmp/ccsMqF3p.s 			page 57


 709 10d6 1453994E 		.ascii	"\024S\231N\314Ti\252\313n$>\315e\034\211\253\027a\242"
 709      CC5469AA 
 709      CB6E243E 
 709      CD651C89 
 709      AB1761A2 
 710 10ea A5C8EA98 		.ascii	"\245\310\352\230\236m\015\021\362\351\313\00624\372"
 710      9E6D0D11 
 710      F2E9CB06 
 710      3234FA
 711 10f9 A8475A91 		.ascii	"\250GZ\221\377\032\303\341o00=\203\371\267\230\237\305"
 711      FF1AC3E1 
 711      6F30303D 
 711      83F9B798 
 711      9FC5
 712 110b FC3CE617 		.ascii	"\374<\346\0270\277\210\371?1\277\214\371U\314\177\304"
 712      30BF88F9 
 712      3F31BF8C 
 712      F955CC7F 
 712      C4
 713 111c BC1DF331 		.ascii	"\274\035\3631.\\\026\305|\002\346ob>\011\363\2671\237"
 713      2E5C16C5 
 713      7C02E66F 
 713      623E09F3 
 713      B7319F
 714 112f 8C79998B 		.ascii	"\214y\231\213!\010\376R\035\004_\357\304\020\341\260"
 714      2108FE52 
 714      1D045FEF 
 714      C410E1B0 
 715 113f 2F6D57AB 		.ascii	"/mW\253\2040\017\205\360.\262\260\022\363\303\230\037"
 715      84300F85 
 715      F02EB2B0 
 715      12F3C398 
 715      1F
 716 1150 C1FC73CC 		.ascii	"\301\374s\314\277\300\374\004K\354>\307dqTqFo|\301\323"
 716      BFC0FC04 
 716      4BEC3EC7 
 716      64715471 
 716      466F7CC1 
 717 1165 A7CE6480 		.ascii	"\247\316d\200\360m\012B\215 C\314\264mT\025&F\365\200"
 717      F06D0A42 
 717      8D2043CC 
 717      B46D5415 
 717      2646F580 
 718 1179 05B1E52E 		.ascii	"\005\261\345.cb\331Wgf\273\022|\211\324,\227f\311\204"
 718      6362D957 
 718      6766BB12 
 718      7C89D42C 
 718      9766C984 
 719 118d 61F5EF55 		.ascii	"a\365\357U\005\202<\352 \007\237\323\257\034\377#\011"
 719      05823CEA 
 719      20079FD3 
 719      AF1CFF23 
 719      09
 720 119e 3EAD9E8C 		.ascii	">\255\236\214\020\371\271.\303\365?M)\\\207w\351_9r"
 720      10F9B92E 
 720      C3F53F4D 
 720      295C8777 
ARM GAS  /tmp/ccsMqF3p.s 			page 58


 720      E95F3972 
 721 11b2 00235172 		.ascii	"\000#Qr\335z\361c\333\001md\276\2413/c&\020\211\002"
 721      DD7AF163 
 721      DB016D64 
 721      BEA1332F 
 721      63261089 
 722 11c7 5ED394E4 		.ascii	"^\323\224\344\272W\225\027Hm\325\203i\336\025e\021\211"
 722      BA579517 
 722      486DD583 
 722      69DE1565 
 722      1189
 723 11d9 02D8B128 		.ascii	"\002\330\261(\230\3107b\274g\007\254\227\006\354\007"
 723      98C83762 
 723      BC6707AC 
 723      9706EC07 
 724 11e9 35656116 		.ascii	"5ea\026\312\342>Q\021y\351\204\013_:\201nb\001\346\213"
 724      CAE23E51 
 724      1179E984 
 724      0B5F3A81 
 724      6E6201E6 
 725 11fe 305FAC76 		.ascii	"0_\254v\031\002\367qg\375,\214\352G\205\027U$g\215h"
 725      1902F771 
 725      67FD2C8C 
 725      EA478517 
 725      5524678D 
 726 1213 66A59526 		.ascii	"f\245\225&\035D\344\327\230\370\"\234\327\232\324b\275"
 726      1D44E4D7 
 726      98F8229C 
 726      D79AD462 
 726      BD
 727 1224 41D2BCF1 		.ascii	"A\322\274\361\370\177\322)\325\012\027\231R\325\353"
 727      F87FD229 
 727      D50A1799 
 727      52D5EB
 728 1233 B865BAFF 		.ascii	"\270e\272\377\274Jo\310\377lBC^em\3100\362^m\232\246"
 728      BC4A6FC8 
 728      FF6C4243 
 728      5E656DC8 
 728      30F25E6D 
 729 1249 9A5241F8 		.ascii	"\232RA\370\203$\254J\314\220\001\357Z\223:\372\261\015"
 729      8324AC4A 
 729      CC9001EF 
 729      5A933AFA 
 729      B10D
 730 125b 96A201BB 		.ascii	"\226\242\001\273\256\006\373\222\005,\316\224\252\264"
 730      AE06FB92 
 730      052CCE94 
 730      AAB4
 731 1269 590576DA 		.ascii	"Y\005v\3326\230\226\262)j\260oY\300\342L\251\2465\253"
 731      369896B2 
 731      296AB06F 
 731      59C0E24C 
 731      A9A635AB 
 732 127d E6676F63 		.ascii	"\346goc\177\265\003\246\245l\206\232\262\013,\224\261"
 732      7FB503A6 
 732      A56C869A 
 732      B20B2C94 
ARM GAS  /tmp/ccsMqF3p.s 			page 59


 732      B1
 733 128e 0FA75153 		.ascii	"\017\247QS\023\371\325\330\201\327`\027[\207\371\006"
 733      13F9D5D8 
 733      81D76017 
 733      5B87F906 
 734 129e CC3761BE 		.ascii	"\3147a\276\005\363\255\230oc\351\200\313\265\303\004"
 734      05F3AD98 
 734      6F63E980 
 734      CBB5C304 
 735 12ae FB86E973 		.ascii	"\373\206\351s\355\227\037\244\217x\357p\021\226\027"
 735      ED971FA4 
 735      8F78EF70 
 735      119617
 736 12bd 77B909AB 		.ascii	"w\271\011\253O\367rUR\370\\k\303{\247\037\236InZI\327"
 736      4FF77255 
 736      52F85C6B 
 736      C37BA71F 
 736      9E496E5A 
 737 12d3 DB5FE7E9 		.ascii	"\333_\347\351 \010\223^]\013\277\342\336\223\244)\270"
 737      2008935E 
 737      5D0BBFE2 
 737      DE93A429 
 737      B8
 738 12e4 0F45DEC6 		.ascii	"\017E\336\306\365!\226\330\351\272\327\220p\345\225"
 738      F52196D8 
 738      E9BAD790 
 738      70E595
 739 12f3 20FFCA2D 		.ascii	" \377\312- \275[Z,9p\350\345\344:\032Z?ri\336\305\215"
 739      20BD5B5A 
 739      2C3970E8 
 739      E5E43A1A 
 739      5A3F7269 
 740 130a 849D0D1F 		.ascii	"\204\235\015\037\375\236l\010\220\256\221W\361\321\273"
 740      FD9E6C08 
 740      90AE9157 
 740      F1D1BB
 741 1319 1902F789 		.ascii	"\031\002\367\2111Y\355Y\317\323`E\340\366b\211\335\246"
 741      3159ED59 
 741      CFD36045 
 741      E0F66289 
 741      DDA6
 742 132b 64C9218D 		.ascii	"d\311!\215L\327\007\322\240;\"t\355\326\323UcH\327\225"
 742      4CD707D2 
 742      A03B2274 
 742      EDD6D355 
 742      6348D795 
 743 133f AC1AE92C 		.ascii	"\254\032\351,HP\241\251\336\230\2462\377\363\312\355"
 743      4850A1A9 
 743      DE98A632 
 743      FFF3CAED 
 744 134f 9D5A1731 		.ascii	"\235Z\0271\367\275\211\320\264WO\323\337\015i:\342\327"
 744      F7BD89D0 
 744      B4574FD3 
 744      DF0D693A 
 744      E2D7
 745 1361 D2749891 		.ascii	"\322t\230\221\246\272Dh\252\323\323ToH\323\017:\232"
 745      A6BA4468 
ARM GAS  /tmp/ccsMqF3p.s 			page 60


 745      AAD3D354 
 745      6F48D30F 
 745      3A9A
 746 1373 8E33D2D4 		.ascii	"\2163\322\324\230\010M\215z\232\016\306\322T}<\274z"
 746      98084D8D 
 746      7A9A0EC6 
 746      D2547D3C 
 746      BC7A
 747 1385 5F6DC4A6 		.ascii	"_m\304\246tq\2413\316\313E]\312\276\004%\026\024\371"
 747      7471A133 
 747      CECB455D 
 747      CABE0425 
 747      1614F9
 748 1398 3F09BA61 		.ascii	"?\011\272aG\246j\315b\322Cp\252-\362\207LX\211b\350"
 748      47A66ACD 
 748      62D24370 
 748      AA2DF287 
 748      4C588962 
 749 13ad 486C2D6D 		.ascii	"Hl-m]\273\250\266?\364\307q\264?\262\007\257\237\351"
 749      5DBBA8B6 
 749      3FF4C771 
 749      B43FB207 
 749      AF9FE9
 750 13c0 83D7360C 		.ascii	"\203\3276\014\215T\321\253\300M\350\312s\261\203\245"
 750      8D54D1AB 
 750      C04DE8CA 
 750      73B183A5 
 751 13d0 C81F8B15 		.ascii	"\310\037\213\025\026PrpimQ\205\264s\234\324\336\376"
 751      16507270 
 751      696D5185 
 751      B4739CD4 
 751      DEFE
 752 13e2 BA0D69B5 		.ascii	"\272\015i\265\272\314\367\303\262>ovx\331\221\273h\320"
 752      BACCF7C3 
 752      B23E6F76 
 752      78D991BB 
 752      68D0
 753 13f4 F005060D 		.ascii	"\360\005\006\015\007\273\032\006\015\361\237l\377R\037"
 753      07BB1A06 
 753      0DF19F6C 
 753      FF521F
 754 1403 34ECD885 		.ascii	"4\354\330\205A\303\227L\321o\303\256\345\314\357V\327"
 754      41C3974C 
 754      D16FC3AE 
 754      E5CCEF56 
 754      D7
 755 1414 3DB27ABA 		.ascii	"=\262z\272\253\361\313\3255\305`\306\212\346\376\215"
 755      ABF1CBD5 
 755      35C560C6 
 755      8AE6FE8D 
 756 1424 9ECACA12 		.ascii	"\236\312\312\022\244\362\033&*\347\356\2227|\223\027"
 756      A4F21B26 
 756      2AE7EE92 
 756      377C9317 
 757 1434 5FC3F0C0 		.ascii	"_\303\360\300+\220\011\205\350t\237!}_4\370C\333`)F"
 757      2B900985 
 757      E8749F21 
ARM GAS  /tmp/ccsMqF3p.s 			page 61


 757      7D5F34F8 
 757      43DB6029 
 758 1449 607B10AC 		.ascii	"`{\020\254\211\005\314\374f\215\002v\010\301Zl\203\245"
 758      8905CCFC 
 758      668D0276 
 758      08C15A6C 
 758      83A5
 759 145b E8C4170D 		.ascii	"\350\304\027\015\246\277\305\361\373;\314\317b~\216"
 759      A6BFC5F1 
 759      FB3BCCCF 
 759      627E8E
 760 146a 652CFFCA 		.ascii	"e,\377\312\245\332\273]\214\033G\276\264/v\243\217\332"
 760      A5DABB5D 
 760      8C1B47BE 
 760      B42F76A3 
 760      8FDA
 761 147c 7045FE24 		.ascii	"pE\376$\206 \247XHj\213\222\024q\002\315\3327\012\010"
 761      8620A758 
 761      486A8B92 
 761      147102CD 
 761      DA370A08 
 762 1490 5C713763 		.ascii	"\\q7c\027p\301\320\005\\\336~\374\205D\234\321E\275"
 762      1770C1D0 
 762      055CDE7E 
 762      FC85449C 
 762      D145BD
 763 14a3 3322AE3B 		.ascii	"3\"\256;\362\245\225\256DF\276o\242\337u\316j\222\011"
 763      F2A595AE 
 763      4446BE6F 
 763      A2DF75CE 
 763      6A9209
 764 14b6 A5970D29 		.ascii	"\245\227\015)]\273\350\310\023\225f\224\222'\350\314"
 764      5DBBE8C8 
 764      13956694 
 764      9227E8CC 
 765 14c6 48BD6A30 		.ascii	"H\275j0\3517}\263\352bA\375]7\213\"\221\223\271O\013"
 765      E9377DB3 
 765      EA6241FD 
 765      5D378B22 
 765      9193B94F 
 766 14db 97D1D77D 		.ascii	"\227\321\327}Jn\022\246\314\351\246\217\340f\271t\357"
 766      4A6E12A6 
 766      CCE9A68F 
 766      E066B974 
 766      EF
 767 14ec 7ED02D2A 		.ascii	"~\320-*\350H\214\225\327|\023y\215s\033\311k\374\312"
 767      E8488C95 
 767      D77C1379 
 767      8D731BC9 
 767      6BFCCA
 768 14ff 9DBC9973 		.ascii	"\235\274\231s\217\243\330\022\267NZd\253_\344\213<\303"
 768      8FA3D812 
 768      B74E5A64 
 768      AB5FE48B 
 768      3CC3
 769 1511 D411B6C1 		.ascii	"\324\021\266\301\204\2607\015\011\273\264\275~@\002"
 769      84B0370D 
ARM GAS  /tmp/ccsMqF3p.s 			page 62


 769      09BBB4BD 
 769      7E4002
 770 1520 844DD213 		.ascii	"\204M\322\023fdq:\302\266\233\020\366\216\021a\341U"
 770      6664713A 
 770      C2B69B10 
 770      F68E1161 
 770      E155
 771 1532 0D6F497C 		.ascii	"\015oI|\351\230\326\366\366{\225\220\246\305\004\240"
 771      E998D6F6 
 771      F67B9590 
 771      A6C504A0 
 772 1542 D410604A 		.ascii	"\324\020`J\024\200\235\257)q\371\222o\256\353\370\272"
 772      14809DAF 
 772      2971F992 
 772      6FAEEBF8 
 772      BA
 773 1553 6C42D674 		.ascii	"lB\326tC\201\237m\377\352\257\011\010\274\334\035\357"
 773      43819F6D 
 773      FFEAAF09 
 773      08BCDC1D 
 773      EF
 774 1564 B1971526 		.ascii	"\261\227\025&\276P\271\013=\011_\015U\201}\241\370V"
 774      BE50B90B 
 774      3D095F0D 
 774      55817DA1 
 774      F856
 775 1576 7D5F58AE 		.ascii	"}_X\256\357\013\272\231\223\3665\350\014\367\356\017"
 775      EF0BBA99 
 775      93F635E8 
 775      0CF7EE0F 
 776 1586 4EC47BF7 		.ascii	"N\304{\367\225n|\222?\246\275\004fOj\225\354p\031Y\327"
 776      956E7C92 
 776      3FA6BD04 
 776      664F6A95 
 776      EC701959 
 777 159b AC5B8DB5 		.ascii	"\254[\215\2650\317P\013\365\037\324\016L\304\323\276"
 777      30CF500B 
 777      F51FD40E 
 777      4CC4D3BE 
 778 15ab E7D6C7A6 		.ascii	"\347\326\307\246\002Wk\322\362|\303\226\017m\257\375"
 778      02576BD2 
 778      F27CC396 
 778      0F6DAFFD 
 779 15bb 5D44FF14 		.ascii	"]D\377\024P\340\316\230@,\324B\374\202\233G \246_\271"
 779      50E0CE98 
 779      402CD442 
 779      FC829B47 
 779      20A65FB9 
 780 15cf FCF28A62 		.ascii	"\374\362\212bB\274t\251\235ow(\377'\347b\004EY\331\321"
 780      42BC74A9 
 780      9D6F7728 
 780      FF27E762 
 780      044559D9 
 781 15e4 FC131CF4 		.ascii	"\374\023\034\364\250Q@\031\254\274\255\376\365\245\032"
 781      A8514019 
 781      ACBCADFE 
 781      F5A51A
ARM GAS  /tmp/ccsMqF3p.s 			page 63


 782 15f3 3079676D 		.ascii	"0ygm\014X\3142\321R=X\270\361s\211\3649\2110\247\000"
 782      0C58CC32 
 782      D1523D58 
 782      B8F17389 
 782      F4398930 
 783 1609 B55B032D 		.ascii	"\265[\003-\327\002\205\353`\232\334\366\360\314bIZ\015"
 783      D70285EB 
 783      609ADCF6 
 783      F0CC6249 
 783      5A0D
 784 161b 6A01AA9E 		.ascii	"j\001\252\236\244+\333\0027\3766\035\230\301\032\370"
 784      A42BDB02 
 784      37FE361D 
 784      98C11AF8 
 785 162b 4A3D5AB8 		.ascii	"J=Z\270b\211\027\246!\362\364h\015R5Y\017\024\273\233"
 785      628917A6 
 785      21F2F468 
 785      0D523559 
 785      0F14BB9B 
 786 163f 73958CF3 		.ascii	"s\225\214\363\010\267Vz#\374*\255I7\351\310\306Y:\220"
 786      08B7567A 
 786      23FC2AAD 
 786      4937E9C8 
 786      C6593A90 
 787 1653 A3DB75E4 		.ascii	"\243\333u\344\357\337\223\2513\331\270\363\337\334\025"
 787      EFDF93A9 
 787      33D9B8F3 
 787      DFDC15
 788 1662 E90D293C 		.ascii	"\351\015)<\327\253\354\357\223'\273tC\017\005|\212n"
 788      D7ABECEF 
 788      9327BB74 
 788      430F057C 
 788      8A6E
 789 1674 C68A4428 		.ascii	"\306\212D(\364j\012\335~G7u\311\260\204\322\272(\352"
 789      F46A0ADD 
 789      7E473775 
 789      C9B084D2 
 789      BA28EA
 790 1687 DA73BC02 		.ascii	"\332s\274\002\253\314We\020>\016\010'\203\274,W\216"
 790      ABCC5765 
 790      103E0E08 
 790      2783BC2C 
 790      578E
 791 1699 D61212AA 		.ascii	"\326\022\022\252\345\260W\213\243\273\230T\005\016\252"
 791      E5B0578B 
 791      A3BB9854 
 791      050EAA
 792 16a8 BF465455 		.ascii	"\277FTU^2\235\227\252A\363\327\333\333yEY3\254\225\265"
 792      5E329D97 
 792      AA41F3D7 
 792      DBDB7945 
 792      5933AC95 
 793 16bd E5869555 		.ascii	"\345\206\225UY\022\021k\335M\324\326\352\222\237)\260"
 793      5912116B 
 793      DD4DD4D6 
 793      EA929F29 
 793      B0
ARM GAS  /tmp/ccsMqF3p.s 			page 64


 794 16ce 8DFFBFB4 		.ascii	"\215\377\277\264\005\316cv[\335\337\226\253\234\207"
 794      05CE6376 
 794      5BDDDF96 
 794      AB9C87
 795 16dd D1342CE2 		.ascii	"\3214,\342\203\310s\030\221\227s}?O~%\301\307n\242\341"
 795      83C87318 
 795      9197737D 
 795      3F4F7E25 
 795      C1C76EA2 
 796 16f2 AADBB40E 		.ascii	"\252\333\264\016\320\022H\340\226b\225\335\356\230\027"
 796      D01248E0 
 796      966295DD 
 796      EE9817
 797 1701 9CB4BE46 		.ascii	"\234\264\276F\367\361\223\237\254\246tR\270\254\305"
 797      F7F1939F 
 797      ACA67452 
 797      B8ACC5
 798 1710 F4E5E0C6 		.ascii	"\364\345\340\306O 44\037W\376\215\016\222\276\316\232"
 798      4F203434 
 798      1F57FE8D 
 798      0E92BECE 
 798      9A
 799 1721 742D90C0 		.ascii	"t-\220\300}\210U\366\305\222^\367WJ\372>&\32276\253"
 799      7D8855F6 
 799      C5925EF7 
 799      574AFA3E 
 799      26D23736 
 800 1736 DF6DA2BC 		.ascii	"\337m\242\274e\211\324\225\3335\272\335\313\251MP\215"
 800      6589D495 
 800      DB35BADD 
 800      CBA94D50 
 800      8D
 801 1747 571CDE44 		.ascii	"W\034\336D\327yI\324\015\261\270\036\314\326\014RR\336"
 801      D77949D4 
 801      0DB1B81E 
 801      CCD60C52 
 801      52DE
 802 1759 F84BDFE0 		.ascii	"\370K\337\340\\o\033,ECYC\271\366-4\015,xqv\301\311"
 802      5C6F1B2C 
 802      45435943 
 802      B9F62D34 
 802      0D2C7871 
 803 1770 AFD6A560 		.ascii	"\257\326\245`\007m\203i\211;\022\005\023\270\375\021"
 803      076D8369 
 803      893B1205 
 803      13B8FD11 
 804 1780 D5C60163 		.ascii	"\325\306\001c_\036\217\332\010\364Q7\231\233\326\273"
 804      5F1E8FDA 
 804      08F45137 
 804      999BD6BB 
 805 1790 C9A4F900 		.ascii	"\311\244\371\000\346\015\2307b~\020\363&\267\346^Ws"
 805      E60D9837 
 805      627E10F3 
 805      26B7E65E 
 805      5773
 806 17a2 A48F185A 		.ascii	"\244\217\030Z\242\225IH\341\012\363\336atO\365\362\324"
 806      A2954948 
ARM GAS  /tmp/ccsMqF3p.s 			page 65


 806      E10AF3DE 
 806      61744FF5 
 806      F2D4
 807 17b4 9363F8F1 		.ascii	"\223c\370\361\3309\216`\3478j\335948\002w\001k\034\215"
 807      D8398E60 
 807      E7386ADD 
 807      39343802 
 807      77016B1C 
 808 17c9 ED1BA7FE 		.ascii	"\355\033\247\376\203\366\215"
 808      83F68D
 809 17d0 A30C7DA3 		.ascii	"\243\014}\2438|tF\342\377\300\001\372\370?\224\377\000"
 809      387C7446 
 809      E2FFC001 
 809      FAF83F94 
 809      FF00
 810 17e2 D0866C4C 		.ascii	"\320\206lL\354n\311\206\376\2778\314\302*'\014\370x"
 810      EC6EC986 
 810      FEBF38CC 
 810      C22A270C 
 810      F878
 811 17f4 99F27182 		.ascii	"\231\362q\202\211\217\312\031\212\345\037wG\337\277"
 811      898FCA19 
 811      8AE51F77 
 811      47DFBF
 812 1803 7422BE7D 		.ascii	"t\"\276}\231*\2648\\E\357\177Q\260\005\266\301\264\226"
 812      992AB438 
 812      5C45EF7F 
 812      51B005B6 
 812      C1B496
 813 1816 BFBA69CE 		.ascii	"\277\272i\316\035R\365\207\274\362\377\216\226Ex\226"
 813      1D52F587 
 813      BCF2FF8E 
 813      96457896 
 814 1826 8BB3DECB 		.ascii	"\213\263\336\313\225\361\3264\351\337\371h5\315\007"
 814      95F1D634 
 814      E9DFF968 
 814      35CD07
 815 1835 8B3B3646 		.ascii	"\213;6F~=\341\031\234\336\254\326\251\312z\252/p[\364"
 815      7E3DE119 
 815      9CDEACD6 
 815      A9CA7AAA 
 815      2F705BF4 
 816 1849 74DB734F 		.ascii	"t\333sO\344\035\216\257(\357\205\306\2735;X\000\331"
 816      E41D8EAF 
 816      28EF85C6 
 816      BB353B58 
 816      00D9
 817 185b 5F647342 		.ascii	"_dsB\345\005N\242\0278\205\275\375+\314Oc\376\015\346"
 817      E5054EA2 
 817      173885BD 
 817      FD2BCC4F 
 817      63FE0DE6 
 818 186f E7DC0C2B 		.ascii	"\347\334\014+WD\371\021ljPG\0236\250\263\261\006e\007"
 818      5744F911 
 818      6C6A5047 
 818      1336A8B3 
 818      B1066507 
ARM GAS  /tmp/ccsMqF3p.s 			page 66


 819 1883 4C6B5017 		.ascii	"LkP\0275\006%\362_\273ux6\015jZ9\3564\240\326\371Qw"
 819      350625F2 
 819      5FBB7578 
 819      360D6A5A 
 819      39EE34A0 
 820 189b DE265897 		.ascii	"\336&X\227xJ9\252R\312\347\250\224VT\301\005\314\277"
 820      784A39AA 
 820      52CAE7A8 
 820      945654C1 
 820      05CCBF
 821 18ae C7FCA2D6 		.ascii	"\307\374\242\326\035\357\355\256s\307\032\337g48\250"
 821      1DEFEDAE 
 821      73C71ADF 
 821      673438A8 
 822 18be C523D1BD 		.ascii	"\305#\321\275\255\354/\221;\243\274D\3562:\261\006c"
 822      ADEC2F91 
 822      3BA3BC44 
 822      EE323AB1 
 822      0663
 823 18d0 2716EF25 		.ascii	"'\026\357%rmX\345\232A\214\225I\235\3305k'6nl\270b\326"
 823      726D58E5 
 823      9A418C95 
 823      499DD835 
 823      6B27366E 
 824 18e8 C2A8331E 		.ascii	"\302\2503\036\033\351\332\207\004\363\333\032\2327~"
 824      1BE9DA87 
 824      04F3DB1A 
 824      9A377E
 825 18f7 9F8F9061 		.ascii	"\237\217\220a\323F\2155wM\245\271\353\250\271v\255\236"
 825      D3468D35 
 825      774DA5B9 
 825      EBA8B976 
 825      AD9E
 826 1909 AEE9F564 		.ascii	"\256\351\365d\324^\234\227\316mnQ\0023\372\257o\244"
 826      D45E9C97 
 826      CE6D6E51 
 826      0233FAAF 
 826      6FA4
 827 191b 1E3ABC6A 		.ascii	"\036:\274j\315?\2721\002L\211\307\300n\025\003{\220"
 827      CD3FBA31 
 827      024C89C7 
 827      C06E1503 
 827      7B90
 828 192d 815A34B7 		.ascii	"\201Z4\267\303\230_\302|\254G\303\322\244\036\272)\224"
 828      C3985FC2 
 828      7CAC47C3 
 828      D2A41EBA 
 828      2994
 829 193f 369C26A8 		.ascii	"6\234&\250\343=\232ys5\231\205\237O\235>V\252\001\226"
 829      E33D9A79 
 829      73359985 
 829      9F4F9D3E 
 829      56AA0196 
 830 1953 603676AF 		.ascii	"`6v\257\374(\350;z\250\030\345M\000\244\237q\323zTJ"
 830      FC28E83B 
 830      7AA818E5 
 830      4D00A49F 
ARM GAS  /tmp/ccsMqF3p.s 			page 67


 830      71D37A54 
 831 1968 D1EE4497 		.ascii	"\321\356D\227\004)p\270t_rd\225\0001\347ZbN\224\251"
 831      042970B8 
 831      745F7264 
 831      950031E7 
 831      5A624E94 
 832 197d 8BC19AA2 		.ascii	"\213\301\232\242\307Z`\211\365\226\031\326\014=\326"
 832      C75A6089 
 832      F59619D6 
 832      0C3DD6
 833 198c 324BAC77 		.ascii	"2K\254w\314\260\246\351\261V[b\225\032c\035\010W\274"
 833      CCB0A6E9 
 833      B1565B62 
 833      951A631D 
 833      0857BC
 834 199f F3012F95 		.ascii	"\363\001/\225\320\025\214$n\002}LX\032\303\017\217\330"
 834      D0158C24 
 834      6E027D4C 
 834      581AC30F 
 834      8FD8
 835 19b1 8BC93BFD 		.ascii	"\213\311;\375E~\212'\011\332\336\330C\275ITcL\244\200"
 835      457E8A27 
 835      09DADED8 
 835      43BD4954 
 835      634CA480 
 836 19c5 D2283D57 		.ascii	"\322(=W\316x|`XOu\314\003\311\323UT\313\325\220\354"
 836      CE787C60 
 836      584F75CC 
 836      03C9D355 
 836      54CBD590 
 837 19da 70B8FD53 		.ascii	"p\270\375S\274\377+/\274\240\020vX\012\241<F\010,\017"
 837      BCFF2B2F 
 837      BCA01076 
 837      580AA13C 
 837      46082C0F 
 838 19ee B50F5260 		.ascii	"\265\017R`:\3100\025\036\273;!gy\214wB\306\214X\272"
 838      3AC83015 
 838      1EBB3B21 
 838      67798C77 
 838      42C68C58 
 839 1a03 7A333D66 		.ascii	"z3=f\033\275>6\361 \244\326l\323Z\255&\021\017.G\233"
 839      1BBD3E36 
 839      F120A4D6 
 839      6CD35AAD 
 839      26110F2E 
 840 1a19 D6FA2C4E 		.ascii	"\326\372,N\255\312h-\272[\240\265\342\207\323\017,W"
 840      ADCA682D 
 840      BA5BA0B5 
 840      E287D30F 
 840      2C57
 841 1a2b B6A18C19 		.ascii	"\266\241\214\031gc\005t\256G\267B\336,\350\266m\012"
 841      67630574 
 841      AE47B742 
 841      DE2CE8B6 
 841      6D0A
 842 1a3d DC173DB4 		.ascii	"\334\027=\264#\215\274\367\240\231\354=\240\305?\303"
 842      238DBCF7 
ARM GAS  /tmp/ccsMqF3p.s 			page 68


 842      A099EC3D 
 842      A0C53FC3 
 843 1a4d 40A1CA63 		.ascii	"@\241\312c\266\367@v\377\362]\376\303\352\275\007\244"
 843      B6F74076 
 843      FFF25DFE 
 843      C3EABD07 
 843      A4
 844 1a5e 92C680E7 		.ascii	"\222\306\200\347y4\213\244:\271\220\005V3^\346{\314"
 844      79348BA4 
 844      3AB99005 
 844      56335EE6 
 844      7BCC
 845 1a70 3792D225 		.ascii	"7\222\322%w\263\232\013L\3650%N\255\205\246\265.\306"
 845      77B39A0B 
 845      4CF53025 
 845      4EAD85A6 
 845      B52EC6
 846 1a83 D1DE22D3 		.ascii	"\321\336\"\323Z\223\342\264\265\330\264VI\234ZKLk]\215"
 846      5A93E2B4 
 846      B5D8B456 
 846      499C5A4B 
 846      4C6B5D8D 
 847 1a97 43E15273 		.ascii	"C\341Rsix\222Lk-\213\326J\341\346\202\277*\225\306\013"
 847      6978924C 
 847      6B2D8BD6 
 847      4AE1E682 
 847      BF2A95C6 
 848 1aac 11351F52 		.ascii	"\0215\037Ro1\241\277\303xT;`l\270\230\217W(\274u\252"
 848      6F31A1BF 
 848      C378543B 
 848      606CB898 
 848      8F5728BC 
 849 1ac2 D4212E4C 		.ascii	"\324!.L\270\311\262\304Y\313\022W,KL\233aU\242\312\262"
 849      B8C9B2C4 
 849      59CB1257 
 849      2C4B4C9B 
 849      6155A2CA 
 850 1ad7 C426F312 		.ascii	"\304&\363\022\334\275={\246\026\004S\263\305\334\324"
 850      DCBD3D7B 
 850      A6160453 
 850      B3C5DCD4 
 851 1ae7 9C7C5F6E 		.ascii	"\234|_nQ\226\237\234g\006\375\201\0341\267g6\227\234"
 851      51969F9C 
 851      6706FD81 
 851      1C31B767 
 851      36979C
 852 1afa 8167FD02 		.ascii	"\201g\375\0029#\374\001\367s\003_JI\343:\253\257\375"
 852      3923FC01 
 852      F773035F 
 852      4A49E33A 
 852      ABAFFD
 853 1b0d 69C0E03E 		.ascii	"i\300\340>\251E\301@jn\316\220\324a>_\252\030\310{8"
 853      A945C140 
 853      6A6ECE90 
 853      D4613E5F 
 853      AA18C87B 
 854 1b22 BF20DFFF 		.ascii	"\277 \337\377\260_\034\222\223\372H\317\307z\366\211"
ARM GAS  /tmp/ccsMqF3p.s 			page 69


 854      B05F1C92 
 854      93FA48CF 
 854      C77AF689 
 855 1b32 40074359 		.ascii	"@\007CYY\376\241\000\353\016\346\374\315\237\031\272"
 855      59FEA100 
 855      EB0EE6FC 
 855      CD9F19BA 
 856 1b42 076B2ABF 		.ascii	"\007k*\277\346\373G\022\020(\224\223\037\202B\236\""
 856      E6FB4712 
 856      10289493 
 856      1F82429E 
 856      22
 857 1b53 383E9619 		.ascii	"8>\226\031z\330\250T\236\350\313\316\311\367\247f\002"
 857      7AD8A854 
 857      9EE8CBCE 
 857      C9F7A766 
 857      02
 858 1b64 A058941B 		.ascii	"\240X\224\033\312\014\215.\364\007\241\22673S\256\347"
 858      CA0C8D2E 
 858      F407A196 
 858      373353AE 
 858      E7
 859 1b75 1A19C809 		.ascii	"\032\031\310\011\371\235\001\277\230\325\207\262\351"
 859      F99D01BF 
 859      98D587B2 
 859      E9
 860 1b82 2BC8CB2B 		.ascii	"+\310\313+\310O-,\010\204\202\251O\247\017H\0330\212"
 860      C84F2D2C 
 860      088482A9 
 860      4FA70F48 
 860      1B308A
 861 1b95 5C2BCCC9 		.ascii	"\\+\314\311\365\007\202\251\317\245\245\245\372\262"
 861      F50782A9 
 861      CFA5A5A5 
 861      FAB2
 862 1ba3 151C575E 		.ascii	"\025\034W^pXf\310\003P}\373d\206\000U>s\024\026\205"
 862      705866C8 
 862      03507DFB 
 862      64860055 
 862      3E731416 
 863 1bb8 1CC3FCA1 		.ascii	"\034\303\374\241\237Q\310@(B\231/;8:\030!\203\234\347"
 863      9F51C840 
 863      2842992F 
 863      3B383A18 
 863      21839CE7 
 864 1bcc E4019349 		.ascii	"\344\001\223I\204\234\336\217f\206:P\312\310\251\023"
 864      849CDE8F 
 864      66863A50 
 864      CAC8A913 
 865 1bdc 40424E40 		.ascii	"@BN@\011\271\221\310\220\213P\031r\214\310\013\335m"
 865      09B991C8 
 865      908B5019 
 865      728CC80B 
 865      DD6D
 866 1bee 80EB1FE1 		.ascii	"\200\353\037\341\317\017\021\324Nx\226\031,(\012\370"
 866      CF0F11D4 
 866      4E789619 
ARM GAS  /tmp/ccsMqF3p.s 			page 70


 866      2C280AF8 
 867 1bfe 003A59FD 		.ascii	"\000:Y\375\265\013\375\222\233\023\014\371\363\375\201"
 867      B50BFD92 
 867      9B130CF9 
 867      F3FD81
 868 1c0d CC5027ED 		.ascii	"\314P'\355\005g\276\177T()\224MZ\002\206|\331\231\364"
 868      0567BE7F 
 868      54282994 
 868      4D5A0286 
 868      7CD999F4 
 869 1c21 FC2E2346 		.ascii	"\374.#F|\331Y\320\\gZ\"\2309\274\310_\004\355u\211T"
 869      7CD959D0 
 869      5C675A22 
 869      9839BCC8 
 869      5F04ED75 
 870 1c37 922F390B 		.ascii	"\222/9\013\003\376\021.<\365\204\012\0039\0052\273D"
 870      03FE112E 
 870      3CF5840A 
 870      03390532 
 870      BB44
 871 1c49 5032BBE4 		.ascii	"P2\273\344\324I~J&b\317\364\025\344\207\200\216_\306"
 871      D4497E4A 
 871      2662CFF4 
 871      15E48780 
 871      8E5FC6
 872 1c5c 5148B6AF 		.ascii	"QH\266\257 \340\207\326;b\005\200\360\205F\335oU>s\304"
 872      20E087D6 
 872      3B620580 
 872      F08546DD 
 872      6F553E73 
 873 1c71 6FF3A04E 		.ascii	"o\363\240NR\300?\014,03$\004\036\021\002\377&\004\036"
 873      52C03F0C 
 873      2C303324 
 873      041E1102 
 873      FF26041E 
 874 1c85 1502BF15 		.ascii	"\025\002\277\025\002\217\011\201\307\035\201\336\275"
 874      028F0981 
 874      C71D81DE 
 874      BD
 875 1c92 20F51672 		.ascii	" \365\026r\003B\260\320\001\240.\260%\177\300U\220\233"
 875      0342B0D0 
 875      01A02EB0 
 875      257FC055 
 875      909B
 876 1ca4 05D2F165 		.ascii	"\005\322\361e\213 \"1\317\337!\030zM\314\315\031\226"
 876      8B202231 
 876      CFDF2118 
 876      7A4DCCCD 
 876      1996
 877 1cb6 2FF3F2E8 		.ascii	"/\363\362\350#\021^\310\251{\2448D\014\372\223B\301"
 877      23115EC8 
 877      A97BA438 
 877      440CFA93 
 877      42C1
 878 1cc8 90180299 		.ascii	"\220\030\002\231\270\360\350\011\345\025d\221oCs\305"
 878      B8F0E809 
 878      E5156491 
ARM GAS  /tmp/ccsMqF3p.s 			page 71


 878      6F4373C5 
 879 1cd8 61414F28 		.ascii	"aAO(\340\037\032\004\276\311\301\035\310\032\015\266"
 879      E01F1A04 
 879      BEC9C11D 
 879      C81A0DB6 
 880 1ce8 94E41F95 		.ascii	"\224\344\037\225\023\362A!\367\310P\301\220\377*\354"
 880      13F24121 
 880      F7C850C1 
 880      90FF2AEC 
 881 1cf8 266B028A 		.ascii	"&k\002\212\370\003\376|\242N\327\310P(P\350\011\202"
 881      F803FE7C 
 881      A24ED7C8 
 881      502850E8 
 881      0982
 882 1d0a D6A04232 		.ascii	"\326\240B2\010;\350\317\023\013\263\201\275;\215\224"
 882      083BE8CF 
 882      130BB381 
 882      BD3B8D94 
 883 1d1a E4271CBB 		.ascii	"\344'\034\273|\240\343\220\003r\000\206K\205IP/\257"
 883      7CA0E390 
 883      03720086 
 883      4B854950 
 883      2FAF
 884 1d2c 08846C54 		.ascii	"\010\204lT'/4\212\324)\030\011\006\341\301R\204\243"
 884      272F348A 
 884      D4291809 
 884      06E1C152 
 884      84A3
 885 1d3e 105C2EEC 		.ascii	"\020\\.\354\210\346\222'\006_\203K\376\221\344\204/"
 885      88E69227 
 885      065F834B 
 885      FE91E484 
 885      2F
 886 1d4f EAA4A89B 		.ascii	"\352\244\250\233XQf\250\263\312\000\310\025\317H1'\224"
 886      585166A8 
 886      B3CA00C8 
 886      15CF4831 
 886      2794
 887 1d61 933F2C09 		.ascii	"\223?,\011\350E+H\362\027\372\363\241\377\016\363\000"
 887      E8452B48 
 887      F217FAF3 
 887      A1FF0EF3 
 887      00
 888 1d72 2429010A 		.ascii	"$)\001\012\021s\211\372]y\205\005\005\271I\2125\272"
 888      117389FA 
 888      5D798505 
 888      05B9498A 
 888      35BA
 889 1d84 A94D530B 		.ascii	"\251MS\013F\241\021B\360\304\205\327\274\301,Y\302\336"
 889      46A11142 
 889      F0C485D7 
 889      BCC12C59 
 889      C2DE
 890 1d96 8C7E992F 		.ascii	"\214~\231/\015\354?\260\377`\017\234e\014~qP\022\034"
 890      0DEC3FB0 
 890      FF600F9C 
 890      650C7E71 
ARM GAS  /tmp/ccsMqF3p.s 			page 72


 890      50121C
 891 1da9 D39F7DBA 		.ascii	"\323\237}\272\337+&\356\013I!\375\345\226\234|\350i"
 891      DF2B26EE 
 891      0B4921FD 
 891      E5969C7C 
 891      E869
 892 1dbb 8AF97600 		.ascii	"\212\371v\000\373\224O\223\224S\357\360L\231\0078\363"
 892      FB944F93 
 892      9453EFF0 
 892      4C990738 
 892      F3
 893 1dcc 15148175 		.ascii	"\025\024\201u\006\222\206g\016)\032\012jq\015\317\014"
 893      06928667 
 893      0E291A0A 
 893      6A710DCF 
 893      0C
 894 1ddd 15147AA0 		.ascii	"\025\024z\240H\2400\024\200c \013\216\336\341\371\005"
 894      48A03014 
 894      8063200B 
 894      8EDEE1F9 
 894      05
 895 1dee A19CA1A3 		.ascii	"\241\234\241\243\001ex&=u\017\007q\344\277\346\316A"
 895      01657826 
 895      3D750F07 
 895      71E4BFE6 
 895      CE41
 896 1e00 CC4E0545 		.ascii	"\314N\005E!U\263\356\002<\021r\206\010\005C\264\236"
 896      2155B3EE 
 896      023C1172 
 896      86080543 
 896      B49E
 897 1e12 087A426A 		.ascii	"\010zBj\332\200\214\376\031\251\031\203\341o@\337>\277"
 897      DA808CFE 
 897      19A91983 
 897      E16F40DF 
 897      3EBF
 898 1e24 EF3D6A14 		.ascii	"\357=j\024\270\300\274\276}\206\366\356\325k\324\020"
 898      B8C0BCBE 
 898      7D86F6EE 
 898      D56BD410 
 899 1e34 C2C44B19 		.ascii	"\302\304K\031O\247\017\316\034\014\236\245\237\177\250"
 899      4FA70FCE 
 899      1C0C9EA5 
 899      9F7FA8
 900 1e43 90912EF4 		.ascii	"\220\221.\364Kw<\223\236\356HK\357\015\251\017\244\276"
 900      4B773C93 
 900      9EEE484B 
 900      EF0DA90F 
 900      A4BE
 901 1e55 CEE7060F 		.ascii	"\316\347\006\017Jw\025\005\305@\310\035\030Etw\267\261"
 901      4A771505 
 901      C540C81D 
 901      18457477 
 901      B7B1
 902 1e67 680A4712 		.ascii	"h\012G\022\243\361\016\372\363\000\352\277{F\213\321"
 902      A3F10EFA 
 902      F300EABF 
ARM GAS  /tmp/ccsMqF3p.s 			page 73


 902      7B468BD1 
 903 1e77 5E8554A4 		.ascii	"^\205T\244\276\360B\277\324\301\375\007\214\350\255"
 903      BEF042BF 
 903      D4C1FD07 
 903      8CE8AD
 904 1e86 54CACCCD 		.ascii	"T\312\314\315%\036\241\003\234\312j\351\000\030\262"
 904      251EA103 
 904      9CCA6AE9 
 904      0018B2
 905 1e95 5E92C829 		.ascii	"^\222\310)Q\014\301\245\232\361\016\015\370\201\355"
 905      510CC1A5 
 905      9AF10E0D 
 905      F881ED
 906 1ea4 7CDFE824 		.ascii	"|\337\350$\250\2026\352.\204q\243 \353\026\362]\314"
 906      A88236EA 
 906      2E8471A3 
 906      20EB16F2 
 906      5DCC
 907 1eb6 CD1D22FA 		.ascii	"\315\035\"\372\300\322\222\224\323.P5-[\314\317\367"
 907      C0D29294 
 907      D32E5035 
 907      2D5BCCCF 
 907      F7
 908 1ec7 E7A615E4 		.ascii	"\347\246\025\344\017\315\031\346\205r\264S9\311\001"
 908      0FCD19E6 
 908      8572B453 
 908      39C901
 909 1ed6 CC1A7F0C 		.ascii	"\314\032\177\014:|\201>\316\254\034\177\2004F\213\272"
 909      3A7C813E 
 909      CEAC1C7F 
 909      8034468B 
 909      BA
 910 1ee7 7D78E848 		.ascii	"}x\350H\220\263\363\363\210\005{\374\371\342\220\\\177"
 910      90B3F3F3 
 910      88057BFC 
 910      F9E2905C 
 910      7F
 911 1ef8 56325EC3 		.ascii	"V2^\303\232\320\301|\271\005\276\327~c\3052\212?\023"
 911      9AD0C17C 
 911      B905BED7 
 911      7E63C532 
 911      8A3F13
 912 1f0b BC377142 		.ascii	"\2747qB\221/@G\306\200\264tg\277\376\317\246;\236}."
 912      912F4047 
 912      C680B474 
 912      67BFFECF 
 912      A63B9E7D 
 913 1f20 DD959636 		.ascii	"\335\225\2266 \2757\346}\234iip1m\340`\307\240\2144"
 913      20BD37E6 
 913      7D9C6969 
 913      70316DE0 
 913      60C7A08C 
 914 1f35 C7D3A09B 		.ascii	"\307\323\240\233\3644\370\016\245\237\35178\335\321"
 914      F434F80E 
 914      A59FE937 
 914      38DDD1
 915 1f44 8F541BF0 		.ascii	"\217T\033\360t\272\360\"\255\325\027\312\277\234\356"
ARM GAS  /tmp/ccsMqF3p.s 			page 74


 915      74BAF022 
 915      ADD517CA 
 915      BF9CEE
 916 1f53 00D0BEE6 		.ascii	"\000\320\276\346\264\240\326e\005\320\361X\326\201+"
 916      B4A0D665 
 916      05D0F158 
 916      D6812B
 917 1f62 58E8F767 		.ascii	"X\350\367g\201\030zC\352+\217\320T\020\311\317\015\352"
 917      81187A43 
 917      EA2B8FD0 
 917      5410C9CF 
 917      0DEA
 918 1f74 FFA26229 		.ascii	"\377\242b)`\027/@z\336\321\037\354\345\305~@KFz\272"
 918      60172F40 
 918      7ADED11F 
 918      ECE5C57E 
 918      404B467A 
 919 1f89 F385B43F 		.ascii	"\363\205\264?\246\247\232\267J\000\024\255GZ\204\336"
 919      A6A79AB7 
 919      4A0014AD 
 919      475A84DE 
 920 1f99 4235E1C9 		.ascii	"B5\341\311\023s\362"
 920      1373F2
 921 1fa0 7BFA38CF 		.ascii	"{\3728\317`t\002}\034b`\230\033$\\\350\033\342$\007"
 921      6074027D 
 921      1C626098 
 921      1B245CE8 
 921      1BE22407 
 922 1fb4 0F91766F 		.ascii	"\017\221vo\337\020r,\354C\217>8\336c\340\212d?B\214"
 922      DF10722C 
 922      EC438F3E 
 922      38DE63E0 
 922      8A643F42 
 923 1fc9 CA973D38 		.ascii	"\312\227=8;+#\327\357/\374y\2242\032\013@\231<\350."
 923      3B2B23D7 
 923      EF2FFC79 
 923      94321A0B 
 923      40993CE8 
 924 1fde D9E042C0 		.ascii	"\331\340B\300O@\341\024\223\210\205\226\204\002\267"
 924      4F40E114 
 924      93888596 
 924      8402B7
 925 1fed 3D03EE39 		.ascii	"=\003\3569\003\215/\004\202\311\300\037n7\272\010\261"
 925      038D2F04 
 925      82C9C01F 
 925      6E37BA08 
 925      B1
 926 1ffe 4B92     		.ascii	"K\222"
 927 2000 82DC0528 		.ascii	"\202\334\005(}\026MF6BOhhQ\276/3\324\025\211K\203\362"
 927      7D164D46 
 927      36424F68 
 927      6851BE2F 
 927      33D41589 
 928 2017 217F0658 		.ascii	"!\177\006X~\216\317\023\314\202\223@\350n}\225\201\304"
 928      7E8ECF13 
 928      CC829340 
 928      E86E7D95 
ARM GAS  /tmp/ccsMqF3p.s 			page 75


 928      81C4
 929 2029 17E4F8A0 		.ascii	"\027\344\370\240LA\376=\221\037\007\241\325\347\370"
 929      4C41FE3D 
 929      911F07A1 
 929      D5E7F8
 930 2038 D4BF923E 		.ascii	"\324\277\222>\201\030\340\222\210\006r`DN\246\247\324"
 930      8118E092 
 930      88067260 
 930      444EA6A7 
 930      D4
 931 2049 017757A4 		.ascii	"\001wW\244\017\252\017\015\013\024\024\025\022\005\030"
 931      0FAA0F0D 
 931      0B141415 
 931      120518
 932 2058 8E02A331 		.ascii	"\216\002\2431\334\360eg\214\016\366\317\317\011\335"
 932      DCF06567 
 932      8C0EF6CF 
 932      CF09DD
 933 2067 61281F12 		.ascii	"a(\037\022N\301\201\024pd\364\353\343\"\375\277/\346"
 933      4EC18114 
 933      7064F4EB 
 933      E322FDBF 
 933      2FE6
 934 2079 BDBD2345 		.ascii	"\275\275#EY\233D\223\276\241\303<\364\320\273#\031\200"
 934      599B4493 
 934      BEA1C33C 
 934      F4D0BB23 
 934      1980
 935 208b 208AF1E7 		.ascii	" \212\361\347\321p\201\236'\223\242\243\345\361\340"
 935      D170819E 
 935      2793A2A3 
 935      E5F1E0
 936 209a 16B81CFD 		.ascii	"\026\270\034\375\356\361\025\005`(\203`\206|\353>\""
 936      EEF11505 
 936      60288360 
 936      867CEB3E 
 936      22
 937 20ab 27102A02 		.ascii	"'\020*\002.H\030\024PF\220\036P\303\340\207\316\232"
 937      2E481814 
 937      5046901E 
 937      50C3E087 
 937      CE9A
 938 20bd 6B34D2D0 		.ascii	"k4\322\320\\re\371sCb\322\010Y+Nrp\024\212\201\244\\"
 938      5C7265F9 
 938      734362D2 
 938      08592B4E 
 938      7270148A 
 939 20d4 31182225 		.ascii	"1\030\"%\334#B\004\250\223Lq\226\177H\3210:`\251\257"
 939      DC234204 
 939      A8934C71 
 939      967F48D1 
 939      303A60A9 
 940 20e9 780BC5FC 		.ascii	"x\013\305\374\034_&\014W\216\254!\303:\020s\246v(\370"
 940      1C5F260C 
 940      578EAC21 
 940      C33A1073 
 940      A67628F8 
ARM GAS  /tmp/ccsMqF3p.s 			page 76


 941 20fd B25D21A2 		.ascii	"\262]!\242\256\016=\207\004\203=\361\3245\250 \370\373"
 941      AE0E3D87 
 941      04833DF1 
 941      D435A820 
 941      F8FB
 942 210f 51988F26 		.ascii	"Q\230\217&y\032\315G\2712\237\201\241\214\017:\001\266"
 942      791ACD47 
 942      B9329F81 
 942      A18C0F3A 
 942      01B6
 943 2121 D0280E84 		.ascii	"\320(\016\204 \004H\011\214\006\251w\363e\247\373\207"
 943      20044809 
 943      8C06A977 
 943      F365A7FB 
 943      87
 944 2132 65F84354 		.ascii	"e\370CT\306\003!\300\370_$\243\377x"
 944      C60321C0 
 944      F85F24A3 
 944      FF78
 945              		.text
 946              		.section	.gnu.lto_.symtab.7c0878ba4888a78,"",%progbits
 947 0000 6D61696E 		.ascii	"main\000\000\000\000\000\000\000\000\000\000\000\000"
 947      00000000 
 947      00000000 
 947      00000000 
 948 0010 D8020000 		.ascii	"\330\002\000\000table\000\000\000\000\000\000\000\000"
 948      7461626C 
 948      65000000 
 948      00000000 
 948      00
 949 0021 00000000 		.ascii	"\000\000\000\000\206\003\000\000PosFx\000\000\000\000"
 949      86030000 
 949      506F7346 
 949      78000000 
 949      00
 950 0032 00000000 		.ascii	"\000\000\000\000\000\000\000\000\211\003\000\000Pos"
 950      00000000 
 950      89030000 
 950      506F73
 951 0041 46790000 		.ascii	"Fy\000\000\000\000\000\000\000\000\000\000\000\000\213"
 951      00000000 
 951      00000000 
 951      00008B
 952 0050 03000050 		.ascii	"\003\000\000PosCy\000\000\000\000\000\000\000\000\000"
 952      6F734379 
 952      00000000 
 952      00000000 
 952      00
 953 0061 0000008D 		.ascii	"\000\000\000\215\003\000\000PosCx\000\000\000\000\000"
 953      03000050 
 953      6F734378 
 953      00000000 
 953      00
 954 0072 00000000 		.ascii	"\000\000\000\000\000\000\000\217\003\000\000s\000\000"
 954      0000008F 
 954      03000073 
 954      0000
ARM GAS  /tmp/ccsMqF3p.s 			page 77


 955 0080 00000000 		.ascii	"\000\000\000\000\000\000\000\000\000\000\221\003\000"
 955      00000000 
 955      00009103 
 955      00
 956 008d 0074656D 		.ascii	"\000temp\000\000\000\000\000\000\000\000\000\000\000"
 956      70000000 
 956      00000000 
 956      00000000 
 957 009d 00960300 		.ascii	"\000\226\003\000\000ch\000\000\002\000\000\000\000\000"
 957      00636800 
 957      00020000 
 957      000000
 958 00ac 00000000 		.ascii	"\000\000\000\000C\003\000\000SD2\000\000\002\000\000"
 958      43030000 
 958      53443200 
 958      00020000 
 959 00bc 00000000 		.ascii	"\000\000\000\000\000\000\000'\003\000\000PWMD1\000\000"
 959      00000027 
 959      03000050 
 959      574D4431 
 959      0000
 960 00ce 02000000 		.ascii	"\002\000\000\000\000\000\000\000\000\000+\003\000\000"
 960      00000000 
 960      00002B03 
 960      0000
 961 00dc 50574D44 		.ascii	"PWMD3\000\000\002\000\000\000\000\000\000\000\000\000"
 961      33000002 
 961      00000000 
 961      00000000 
 961      00
 962 00ed 29030000 		.ascii	")\003\000\000chThdSleep\000\000\002\000\000\000\000"
 962      63685468 
 962      64536C65 
 962      65700000 
 962      02000000 
 963 0102 00000000 		.ascii	"\000\000\000\000\000\333\002\000\000chprintf\000\000"
 963      00DB0200 
 963      00636870 
 963      72696E74 
 963      660000
 964 0115 02000000 		.ascii	"\002\000\000\000\000\000\000\000\000\000\337\002\000"
 964      00000000 
 964      0000DF02 
 964      00
 965 0122 0070776D 		.ascii	"\000pwmEnableChannel\000\000\002\000\000\000\000\000"
 965      456E6162 
 965      6C654368 
 965      616E6E65 
 965      6C000002 
 966 013b 00000000 		.ascii	"\000\000\000\000\364\002\000\000chThdCreateStatic\000"
 966      F4020000 
 966      63685468 
 966      64437265 
 966      61746553 
 967 0155 00020000 		.ascii	"\000\002\000\000\000\000\000\000\000\000\000\372\002"
 967      00000000 
 967      000000FA 
ARM GAS  /tmp/ccsMqF3p.s 			page 78


 967      02
 968 0162 00007364 		.ascii	"\000\000sdStart\000\000\002\000\000\000\000\000\000"
 968      53746172 
 968      74000002 
 968      00000000 
 968      0000
 969 0174 00000005 		.ascii	"\000\000\000\005\003\000\000pwmEnableChannelNotific"
 969      03000070 
 969      776D456E 
 969      61626C65 
 969      4368616E 
 970 0192 6174696F 		.ascii	"ation\000\000\002\000\000\000\000\000\000\000\000\000"
 970      6E000002 
 970      00000000 
 970      00000000 
 970      00
 971 01a3 0A030000 		.ascii	"\012\003\000\000pwmEnablePeriodicNotification\000\000"
 971      70776D45 
 971      6E61626C 
 971      65506572 
 971      696F6469 
 972 01c6 02000000 		.ascii	"\002\000\000\000\000\000\000\000\000\000\017\003\000"
 972      00000000 
 972      00000F03 
 972      00
 973 01d3 0070776D 		.ascii	"\000pwmStart\000\000\002\000\000\000\000\000\000\000"
 973      53746172 
 973      74000002 
 973      00000000 
 973      000000
 974 01e6 00001103 		.ascii	"\000\000\021\003\000\000_pal_lld_setgroupmode\000\000"
 974      00005F70 
 974      616C5F6C 
 974      6C645F73 
 974      65746772 
 975 0203 02000000 		.ascii	"\002\000\000\000\000\000\000\000\000\000\026\003\000"
 975      00000000 
 975      00001603 
 975      00
 976 0210 00636853 		.ascii	"\000chSysInit\000\000\002\000\000\000\000\000\000\000"
 976      7973496E 
 976      69740000 
 976      02000000 
 976      00000000 
 977 0224 00002203 		.ascii	"\000\000\"\003\000\000halInit\000\000\002\000\000\000"
 977      00006861 
 977      6C496E69 
 977      74000002 
 977      000000
 978 0237 00000000 		.ascii	"\000\000\000\000\000\000%\003\000\000"
 978      00002503 
 978      0000
 979              		.text
 980              		.section	.gnu.lto_.opts,"",%progbits
 981 0000 272D6D63 		.ascii	"'-mcpu=cortex-m3' '-mno-thumb-interwork' '-mthumb' "
 981      70753D63 
 981      6F727465 
ARM GAS  /tmp/ccsMqF3p.s 			page 79


 981      782D6D33 
 981      2720272D 
 982 0033 272D6767 		.ascii	"'-ggdb' '-O2' '-fomit-frame-pointer' '-falign-funct"
 982      64622720 
 982      272D4F32 
 982      2720272D 
 982      666F6D69 
 983 0066 696F6E73 		.ascii	"ions=16' '-ffunction-sections' '-fdata-sections' '-"
 983      3D313627 
 983      20272D66 
 983      66756E63 
 983      74696F6E 
 984 0099 666E6F2D 		.ascii	"fno-common' '-flto'\000"
 984      636F6D6D 
 984      6F6E2720 
 984      272D666C 
 984      746F2700 
 985              		.text
 986              		.cfi_sections	.debug_frame
 987              		.section	.text.pwmpcb,"ax",%progbits
 988              		.align	2
 989              		.p2align 4,,15
 990              		.thumb
 991              		.thumb_func
 992              		.type	pwmpcb, %function
 993              	pwmpcb:
 994              	.LFB219:
 995              		.file 1 "main.c"
 996              		.loc 1 22 0
 997              		.cfi_startproc
 998              		@ args = 0, pretend = 0, frame = 0
 999              		@ frame_needed = 0, uses_anonymous_args = 0
 1000              		@ link register save eliminated.
 1001              	.LVL0:
 1002              		.loc 1 26 0
 1003 0000 4FF40063 		mov	r3, #2048
 1004 0004 C4F20103 		movt	r3, 16385
 1005 0008 4FF48072 		mov	r2, #256
 1006 000c 1A61     		str	r2, [r3, #16]
 1007 000e 7047     		bx	lr
 1008              		.cfi_endproc
 1009              	.LFE219:
 1010              		.size	pwmpcb, .-pwmpcb
 1011              		.section	.text.pwmc1cb,"ax",%progbits
 1012              		.align	2
 1013              		.p2align 4,,15
 1014              		.thumb
 1015              		.thumb_func
 1016              		.type	pwmc1cb, %function
 1017              	pwmc1cb:
 1018              	.LFB220:
 1019              		.loc 1 29 0
 1020              		.cfi_startproc
 1021              		@ args = 0, pretend = 0, frame = 0
 1022              		@ frame_needed = 0, uses_anonymous_args = 0
 1023              		@ link register save eliminated.
 1024              	.LVL1:
ARM GAS  /tmp/ccsMqF3p.s 			page 80


 1025              		.loc 1 33 0
 1026 0000 4FF40063 		mov	r3, #2048
 1027 0004 C4F20103 		movt	r3, 16385
 1028 0008 4FF48072 		mov	r2, #256
 1029 000c 5A61     		str	r2, [r3, #20]
 1030 000e 7047     		bx	lr
 1031              		.cfi_endproc
 1032              	.LFE220:
 1033              		.size	pwmc1cb, .-pwmc1cb
 1034              		.section	.text.pwmp2cb,"ax",%progbits
 1035              		.align	2
 1036              		.p2align 4,,15
 1037              		.thumb
 1038              		.thumb_func
 1039              		.type	pwmp2cb, %function
 1040              	pwmp2cb:
 1041              	.LFB221:
 1042              		.loc 1 53 0
 1043              		.cfi_startproc
 1044              		@ args = 0, pretend = 0, frame = 0
 1045              		@ frame_needed = 0, uses_anonymous_args = 0
 1046              		@ link register save eliminated.
 1047              	.LVL2:
 1048              		.loc 1 56 0
 1049 0000 4FF40063 		mov	r3, #2048
 1050 0004 C4F20103 		movt	r3, 16385
 1051 0008 4FF48062 		mov	r2, #1024
 1052 000c 1A61     		str	r2, [r3, #16]
 1053 000e 7047     		bx	lr
 1054              		.cfi_endproc
 1055              	.LFE221:
 1056              		.size	pwmp2cb, .-pwmp2cb
 1057              		.section	.text.pwmc2cb,"ax",%progbits
 1058              		.align	2
 1059              		.p2align 4,,15
 1060              		.thumb
 1061              		.thumb_func
 1062              		.type	pwmc2cb, %function
 1063              	pwmc2cb:
 1064              	.LFB222:
 1065              		.loc 1 59 0
 1066              		.cfi_startproc
 1067              		@ args = 0, pretend = 0, frame = 0
 1068              		@ frame_needed = 0, uses_anonymous_args = 0
 1069              		@ link register save eliminated.
 1070              	.LVL3:
 1071              		.loc 1 62 0
 1072 0000 4FF40063 		mov	r3, #2048
 1073 0004 C4F20103 		movt	r3, 16385
 1074 0008 4FF48062 		mov	r2, #1024
 1075 000c 5A61     		str	r2, [r3, #20]
 1076 000e 7047     		bx	lr
 1077              		.cfi_endproc
 1078              	.LFE222:
 1079              		.size	pwmc2cb, .-pwmc2cb
 1080              		.section	.text.Thread2,"ax",%progbits
 1081              		.align	2
ARM GAS  /tmp/ccsMqF3p.s 			page 81


 1082              		.p2align 4,,15
 1083              		.thumb
 1084              		.thumb_func
 1085              		.type	Thread2, %function
 1086              	Thread2:
 1087              	.LFB223:
 1088              		.loc 1 173 0
 1089              		.cfi_startproc
 1090              		@ Volatile: function does not return.
 1091              		@ args = 0, pretend = 0, frame = 0
 1092              		@ frame_needed = 0, uses_anonymous_args = 0
 1093              	.LVL4:
 1094 0000 08B5     		push	{r3, lr}
 1095              		.cfi_def_cfa_offset 8
 1096              		.cfi_offset 3, -8
 1097              		.cfi_offset 14, -4
 1098              	.LBB4:
 1099              	.LBB5:
 1100              		.file 2 "../os/rt/include/chregistry.h"
 1101              		.loc 2 136 0
 1102 0002 40F20003 		movw	r3, #:lower16:ch
 1103 0006 C0F20003 		movt	r3, #:upper16:ch
 1104 000a 9A69     		ldr	r2, [r3, #24]
 1105 000c 40F20003 		movw	r3, #:lower16:.LC0
 1106 0010 C0F20003 		movt	r3, #:upper16:.LC0
 1107 0014 9361     		str	r3, [r2, #24]
 1108              	.LVL5:
 1109              	.L6:
 1110              	.LBE5:
 1111              	.LBE4:
 1112              		.loc 1 180 0 discriminator 1
 1113 0016 40F20000 		movw	r0, #:lower16:SD2
 1114 001a 40F20001 		movw	r1, #:lower16:.LC1
 1115 001e C0F20001 		movt	r1, #:upper16:.LC1
 1116 0022 C0F20000 		movt	r0, #:upper16:SD2
 1117 0026 FFF7FEFF 		bl	chprintf
 1118              	.LVL6:
 1119              		.loc 1 182 0 discriminator 1
 1120 002a 4FF47A70 		mov	r0, #1000
 1121 002e FFF7FEFF 		bl	chThdSleep
 1122              	.LVL7:
 1123 0032 F0E7     		b	.L6
 1124              		.cfi_endproc
 1125              	.LFE223:
 1126              		.size	Thread2, .-Thread2
 1127 0034 AFF30080 		.section	.text.startup.main,"ax",%progbits
 1127      AFF30080 
 1127      AFF30080 
 1128              		.align	2
 1129              		.p2align 4,,15
 1130              		.global	main
 1131              		.thumb
 1132              		.thumb_func
 1133              		.type	main, %function
 1134              	main:
 1135              	.LFB224:
 1136              		.loc 1 200 0
ARM GAS  /tmp/ccsMqF3p.s 			page 82


 1137              		.cfi_startproc
 1138              		@ args = 0, pretend = 0, frame = 24
 1139              		@ frame_needed = 0, uses_anonymous_args = 0
 1140 0000 2DE9F04F 		push	{r4, r5, r6, r7, r8, r9, r10, fp, lr}
 1141              		.cfi_def_cfa_offset 36
 1142              		.cfi_offset 4, -36
 1143              		.cfi_offset 5, -32
 1144              		.cfi_offset 6, -28
 1145              		.cfi_offset 7, -24
 1146              		.cfi_offset 8, -20
 1147              		.cfi_offset 9, -16
 1148              		.cfi_offset 10, -12
 1149              		.cfi_offset 11, -8
 1150              		.cfi_offset 14, -4
 1151 0004 89B0     		sub	sp, sp, #36
 1152              		.cfi_def_cfa_offset 72
 1153              		.loc 1 211 0
 1154 0006 FFF7FEFF 		bl	halInit
 1155              	.LVL8:
 1156              		.loc 1 212 0
 1157 000a FFF7FEFF 		bl	chSysInit
 1158              	.LVL9:
 1159              		.loc 1 215 0
 1160 000e 4FF40060 		mov	r0, #2048
 1161 0012 C4F20100 		movt	r0, 16385
 1162 0016 0121     		movs	r1, #1
 1163 0018 0222     		movs	r2, #2
 1164 001a FFF7FEFF 		bl	_pal_lld_setgroupmode
 1165              	.LVL10:
 1166              		.loc 1 216 0
 1167 001e 0221     		movs	r1, #2
 1168 0020 4FF40060 		mov	r0, #2048
 1169 0024 0A46     		mov	r2, r1
 1170 0026 C4F20100 		movt	r0, 16385
 1171 002a FFF7FEFF 		bl	_pal_lld_setgroupmode
 1172              	.LVL11:
 1173              		.loc 1 217 0
 1174 002e 4FF40060 		mov	r0, #2048
 1175 0032 C4F20100 		movt	r0, 16385
 1176 0036 0421     		movs	r1, #4
 1177 0038 0622     		movs	r2, #6
 1178 003a FFF7FEFF 		bl	_pal_lld_setgroupmode
 1179              	.LVL12:
 1180              		.loc 1 218 0
 1181 003e 4FF40060 		mov	r0, #2048
 1182 0042 C4F20100 		movt	r0, 16385
 1183 0046 0821     		movs	r1, #8
 1184 0048 0622     		movs	r2, #6
 1185 004a FFF7FEFF 		bl	_pal_lld_setgroupmode
 1186              	.LVL13:
 1187              		.loc 1 219 0
 1188 004e 4FF40060 		mov	r0, #2048
 1189 0052 C4F20100 		movt	r0, 16385
 1190 0056 1021     		movs	r1, #16
 1191 0058 0622     		movs	r2, #6
 1192 005a FFF7FEFF 		bl	_pal_lld_setgroupmode
 1193              	.LVL14:
ARM GAS  /tmp/ccsMqF3p.s 			page 83


 1194              		.loc 1 220 0
 1195 005e 4FF40060 		mov	r0, #2048
 1196 0062 C4F20100 		movt	r0, 16385
 1197 0066 2021     		movs	r1, #32
 1198 0068 0422     		movs	r2, #4
 1199 006a FFF7FEFF 		bl	_pal_lld_setgroupmode
 1200              	.LVL15:
 1201              		.loc 1 221 0
 1202 006e 4FF40060 		mov	r0, #2048
 1203 0072 C4F20100 		movt	r0, 16385
 1204 0076 4021     		movs	r1, #64
 1205 0078 0422     		movs	r2, #4
 1206 007a FFF7FEFF 		bl	_pal_lld_setgroupmode
 1207              	.LVL16:
 1208              		.loc 1 222 0
 1209 007e 4FF40060 		mov	r0, #2048
 1210 0082 C4F20100 		movt	r0, 16385
 1211 0086 8021     		movs	r1, #128
 1212 0088 0422     		movs	r2, #4
 1213 008a FFF7FEFF 		bl	_pal_lld_setgroupmode
 1214              	.LVL17:
 1215              		.loc 1 223 0
 1216 008e 4FF40060 		mov	r0, #2048
 1217 0092 C4F20100 		movt	r0, 16385
 1218 0096 4FF48071 		mov	r1, #256
 1219 009a 0622     		movs	r2, #6
 1220 009c FFF7FEFF 		bl	_pal_lld_setgroupmode
 1221              	.LVL18:
 1222              		.loc 1 224 0
 1223 00a0 4FF40060 		mov	r0, #2048
 1224 00a4 C4F20100 		movt	r0, 16385
 1225 00a8 4FF40071 		mov	r1, #512
 1226 00ac 0622     		movs	r2, #6
 1227 00ae FFF7FEFF 		bl	_pal_lld_setgroupmode
 1228              	.LVL19:
 1229              		.loc 1 225 0
 1230 00b2 4FF40060 		mov	r0, #2048
 1231 00b6 C4F20100 		movt	r0, 16385
 1232 00ba 4FF48061 		mov	r1, #1024
 1233 00be 0622     		movs	r2, #6
 1234 00c0 FFF7FEFF 		bl	_pal_lld_setgroupmode
 1235              	.LVL20:
 1236              		.loc 1 226 0
 1237 00c4 4FF40060 		mov	r0, #2048
 1238 00c8 C4F20100 		movt	r0, 16385
 1239 00cc 4FF40061 		mov	r1, #2048
 1240 00d0 0622     		movs	r2, #6
 1241 00d2 FFF7FEFF 		bl	_pal_lld_setgroupmode
 1242              	.LVL21:
 1243              		.loc 1 229 0
 1244 00d6 4FF44060 		mov	r0, #3072
 1245 00da C4F20100 		movt	r0, 16385
 1246 00de 4FF40061 		mov	r1, #2048
 1247 00e2 0622     		movs	r2, #6
 1248 00e4 FFF7FEFF 		bl	_pal_lld_setgroupmode
 1249              	.LVL22:
 1250              		.loc 1 230 0
ARM GAS  /tmp/ccsMqF3p.s 			page 84


 1251 00e8 4FF44060 		mov	r0, #3072
 1252 00ec C4F20100 		movt	r0, 16385
 1253 00f0 4FF40041 		mov	r1, #32768
 1254 00f4 0622     		movs	r2, #6
 1255 00f6 FFF7FEFF 		bl	_pal_lld_setgroupmode
 1256              	.LVL23:
 1257              		.loc 1 233 0
 1258 00fa 4FF44060 		mov	r0, #3072
 1259 00fe C4F20100 		movt	r0, 16385
 1260 0102 4FF48061 		mov	r1, #1024
 1261 0106 0622     		movs	r2, #6
 1262 0108 FFF7FEFF 		bl	_pal_lld_setgroupmode
 1263              	.LVL24:
 1264              		.loc 1 234 0
 1265 010c 4FF44060 		mov	r0, #3072
 1266 0110 0622     		movs	r2, #6
 1267 0112 C4F20100 		movt	r0, 16385
 1268 0116 4FF48041 		mov	r1, #16384
 1269 011a FFF7FEFF 		bl	_pal_lld_setgroupmode
 1270              	.LVL25:
 1271              		.loc 1 238 0
 1272 011e 40F20000 		movw	r0, #:lower16:PWMD1
 1273 0122 40F20001 		movw	r1, #:lower16:.LANCHOR0
 1274 0126 C0F20001 		movt	r1, #:upper16:.LANCHOR0
 1275 012a C0F20000 		movt	r0, #:upper16:PWMD1
 1276 012e FFF7FEFF 		bl	pwmStart
 1277              	.LVL26:
 1278              		.loc 1 239 0
 1279 0132 40F20000 		movw	r0, #:lower16:PWMD1
 1280 0136 C0F20000 		movt	r0, #:upper16:PWMD1
 1281 013a FFF7FEFF 		bl	pwmEnablePeriodicNotification
 1282              	.LVL27:
 1283              		.loc 1 240 0
 1284 013e 0021     		movs	r1, #0
 1285 0140 40F20000 		movw	r0, #:lower16:PWMD1
 1286 0144 0A46     		mov	r2, r1
 1287 0146 C0F20000 		movt	r0, #:upper16:PWMD1
 1288 014a FFF7FEFF 		bl	pwmEnableChannel
 1289              	.LVL28:
 1290              		.loc 1 241 0
 1291 014e 40F20000 		movw	r0, #:lower16:PWMD1
 1292 0152 C0F20000 		movt	r0, #:upper16:PWMD1
 1293 0156 0021     		movs	r1, #0
 1294 0158 FFF7FEFF 		bl	pwmEnableChannelNotification
 1295              	.LVL29:
 1296              		.loc 1 243 0
 1297 015c 40F20000 		movw	r0, #:lower16:PWMD3
 1298 0160 40F20001 		movw	r1, #:lower16:.LANCHOR1
 1299 0164 C0F20001 		movt	r1, #:upper16:.LANCHOR1
 1300 0168 C0F20000 		movt	r0, #:upper16:PWMD3
 1301 016c FFF7FEFF 		bl	pwmStart
 1302              	.LVL30:
 1303              		.loc 1 244 0
 1304 0170 40F20000 		movw	r0, #:lower16:PWMD3
 1305 0174 C0F20000 		movt	r0, #:upper16:PWMD3
 1306 0178 FFF7FEFF 		bl	pwmEnablePeriodicNotification
 1307              	.LVL31:
ARM GAS  /tmp/ccsMqF3p.s 			page 85


 1308              		.loc 1 245 0
 1309 017c 0021     		movs	r1, #0
 1310 017e 40F20000 		movw	r0, #:lower16:PWMD3
 1311 0182 0A46     		mov	r2, r1
 1312 0184 C0F20000 		movt	r0, #:upper16:PWMD3
 1313 0188 FFF7FEFF 		bl	pwmEnableChannel
 1314              	.LVL32:
 1315              		.loc 1 246 0
 1316 018c 40F20000 		movw	r0, #:lower16:PWMD3
 1317 0190 C0F20000 		movt	r0, #:upper16:PWMD3
 1318 0194 0021     		movs	r1, #0
 1319 0196 FFF7FEFF 		bl	pwmEnableChannelNotification
 1320              	.LVL33:
 1321              		.loc 1 252 0
 1322 019a 40F20000 		movw	r0, #:lower16:SD2
 1323 019e C0F20000 		movt	r0, #:upper16:SD2
 1324 01a2 0021     		movs	r1, #0
 1325 01a4 40F20004 		movw	r4, #:lower16:.LANCHOR3
 1326 01a8 FFF7FEFF 		bl	sdStart
 1327              	.LVL34:
 1328 01ac C0F20004 		movt	r4, #:upper16:.LANCHOR3
 1329              		.loc 1 258 0
 1330 01b0 0022     		movs	r2, #0
 1331 01b2 40F20006 		movw	r6, #:lower16:.LANCHOR6
 1332 01b6 40F20000 		movw	r0, #:lower16:.LANCHOR2
 1333 01ba 40F20003 		movw	r3, #:lower16:Thread2
 1334 01be 40F2000C 		movw	ip, #:lower16:.LANCHOR4
 1335 01c2 0092     		str	r2, [sp]
 1336 01c4 C0F20003 		movt	r3, #:upper16:Thread2
 1337 01c8 0794     		str	r4, [sp, #28]
 1338 01ca 0596     		str	r6, [sp, #20]
 1339 01cc 40F20004 		movw	r4, #:lower16:PWMD3
 1340              		.loc 1 350 0
 1341 01d0 41F25976 		movw	r6, #5977
 1342              		.loc 1 258 0
 1343 01d4 C0F20000 		movt	r0, #:upper16:.LANCHOR2
 1344 01d8 4FF4A471 		mov	r1, #328
 1345 01dc 8122     		movs	r2, #129
 1346 01de 0694     		str	r4, [sp, #24]
 1347              		.loc 1 350 0
 1348 01e0 0496     		str	r6, [sp, #16]
 1349              		.loc 1 258 0
 1350 01e2 CDF808C0 		str	ip, [sp, #8]
 1351 01e6 FFF7FEFF 		bl	chThdCreateStatic
 1352              	.LVL35:
 1353 01ea 079E     		ldr	r6, [sp, #28]
 1354 01ec DDF808C0 		ldr	ip, [sp, #8]
 1355 01f0 3368     		ldr	r3, [r6]
 1356 01f2 059E     		ldr	r6, [sp, #20]
 1357 01f4 40F20007 		movw	r7, #:lower16:.LANCHOR5
 1358 01f8 C0F20006 		movt	r6, #:upper16:.LANCHOR6
 1359 01fc 0596     		str	r6, [sp, #20]
 1360 01fe 069E     		ldr	r6, [sp, #24]
 1361 0200 40F20005 		movw	r5, #:lower16:.LANCHOR7
 1362 0204 C0F20006 		movt	r6, #:upper16:PWMD3
 1363 0208 0696     		str	r6, [sp, #24]
 1364              		.loc 1 350 0
ARM GAS  /tmp/ccsMqF3p.s 			page 86


 1365 020a 049E     		ldr	r6, [sp, #16]
 1366 020c 40F2000B 		movw	fp, #:lower16:PWMD1
 1367 0210 40F20008 		movw	r8, #:lower16:.LANCHOR8
 1368              		.loc 1 346 0
 1369 0214 4FF40064 		mov	r4, #2048
 1370              		.loc 1 350 0
 1371 0218 CDF2B716 		movt	r6, 53687
 1372 021c C0F20007 		movt	r7, #:upper16:.LANCHOR5
 1373 0220 C0F20005 		movt	r5, #:upper16:.LANCHOR7
 1374 0224 C0F2000C 		movt	ip, #:upper16:.LANCHOR4
 1375 0228 C0F2000B 		movt	fp, #:upper16:PWMD1
 1376 022c C0F20008 		movt	r8, #:upper16:.LANCHOR8
 1377              		.loc 1 346 0
 1378 0230 C4F20104 		movt	r4, 16385
 1379              		.loc 1 350 0
 1380 0234 0496     		str	r6, [sp, #16]
 1381              	.L9:
 1382              		.loc 1 269 0 discriminator 1
 1383 0236 002B     		cmp	r3, #0
 1384 0238 55D1     		bne	.L29
 1385              	.L28:
 1386              		.loc 1 271 0
 1387 023a 0423     		movs	r3, #4
 1388 023c 2361     		str	r3, [r4, #16]
 1389              		.loc 1 272 0
 1390 023e A368     		ldr	r3, [r4, #8]
 1391 0240 9A06     		lsls	r2, r3, #26
 1392              		.loc 1 273 0
 1393 0242 42BF     		ittt	mi
 1394 0244 079E     		ldrmi	r6, [sp, #28]
 1395 0246 0123     		movmi	r3, #1
 1396 0248 3360     		strmi	r3, [r6]
 1397              		.loc 1 274 0
 1398 024a A368     		ldr	r3, [r4, #8]
 1399              		.loc 1 278 0
 1400 024c 4FF48022 		mov	r2, #262144
 1401              		.loc 1 274 0
 1402 0250 5B06     		lsls	r3, r3, #25
 1403              		.loc 1 275 0
 1404 0252 42BF     		ittt	mi
 1405 0254 079E     		ldrmi	r6, [sp, #28]
 1406 0256 0223     		movmi	r3, #2
 1407 0258 3360     		strmi	r3, [r6]
 1408              		.loc 1 276 0
 1409 025a A368     		ldr	r3, [r4, #8]
 1410 025c 1E06     		lsls	r6, r3, #24
 1411              		.loc 1 277 0
 1412 025e 42BF     		ittt	mi
 1413 0260 079E     		ldrmi	r6, [sp, #28]
 1414 0262 0323     		movmi	r3, #3
 1415 0264 3360     		strmi	r3, [r6]
 1416              		.loc 1 279 0
 1417 0266 0823     		movs	r3, #8
 1418              		.loc 1 278 0
 1419 0268 2261     		str	r2, [r4, #16]
 1420              		.loc 1 279 0
 1421 026a 2361     		str	r3, [r4, #16]
ARM GAS  /tmp/ccsMqF3p.s 			page 87


 1422              		.loc 1 280 0
 1423 026c A368     		ldr	r3, [r4, #8]
 1424 026e 9806     		lsls	r0, r3, #26
 1425              		.loc 1 281 0
 1426 0270 42BF     		ittt	mi
 1427 0272 079E     		ldrmi	r6, [sp, #28]
 1428 0274 0423     		movmi	r3, #4
 1429 0276 3360     		strmi	r3, [r6]
 1430              		.loc 1 282 0
 1431 0278 A368     		ldr	r3, [r4, #8]
 1432 027a 5906     		lsls	r1, r3, #25
 1433              		.loc 1 283 0
 1434 027c 42BF     		ittt	mi
 1435 027e 079E     		ldrmi	r6, [sp, #28]
 1436 0280 0523     		movmi	r3, #5
 1437 0282 3360     		strmi	r3, [r6]
 1438              		.loc 1 284 0
 1439 0284 A368     		ldr	r3, [r4, #8]
 1440 0286 1A06     		lsls	r2, r3, #24
 1441              		.loc 1 285 0
 1442 0288 42BF     		ittt	mi
 1443 028a 079E     		ldrmi	r6, [sp, #28]
 1444 028c 0623     		movmi	r3, #6
 1445 028e 3360     		strmi	r3, [r6]
 1446              		.loc 1 286 0
 1447 0290 4FF40022 		mov	r2, #524288
 1448              		.loc 1 287 0
 1449 0294 1023     		movs	r3, #16
 1450              		.loc 1 286 0
 1451 0296 2261     		str	r2, [r4, #16]
 1452              		.loc 1 287 0
 1453 0298 2361     		str	r3, [r4, #16]
 1454              		.loc 1 288 0
 1455 029a A368     		ldr	r3, [r4, #8]
 1456 029c 9B06     		lsls	r3, r3, #26
 1457              		.loc 1 289 0
 1458 029e 42BF     		ittt	mi
 1459 02a0 079E     		ldrmi	r6, [sp, #28]
 1460 02a2 0723     		movmi	r3, #7
 1461 02a4 3360     		strmi	r3, [r6]
 1462              		.loc 1 290 0
 1463 02a6 A368     		ldr	r3, [r4, #8]
 1464 02a8 5E06     		lsls	r6, r3, #25
 1465 02aa 11D4     		bmi	.L17
 1466 02ac 079E     		ldr	r6, [sp, #28]
 1467              		.loc 1 292 0
 1468 02ae 4FF48011 		mov	r1, #1048576
 1469 02b2 3368     		ldr	r3, [r6]
 1470 02b4 2161     		str	r1, [r4, #16]
 1471              		.loc 1 295 0
 1472 02b6 5A1E     		subs	r2, r3, #1
 1473 02b8 072A     		cmp	r2, #7
 1474 02ba BCD8     		bhi	.L9
 1475 02bc DFE812F0 		tbh	[pc, r2, lsl #1]
 1476              	.L20:
 1477 02c0 F001     		.2byte	(.L19-.L20)/2
 1478 02c2 EA01     		.2byte	(.L21-.L20)/2
ARM GAS  /tmp/ccsMqF3p.s 			page 88


 1479 02c4 E401     		.2byte	(.L22-.L20)/2
 1480 02c6 FA01     		.2byte	(.L23-.L20)/2
 1481 02c8 F501     		.2byte	(.L24-.L20)/2
 1482 02ca 0002     		.2byte	(.L25-.L20)/2
 1483 02cc DE01     		.2byte	(.L26-.L20)/2
 1484 02ce 0E00     		.2byte	(.L27-.L20)/2
 1485              	.L17:
 1486              		.loc 1 291 0
 1487 02d0 079E     		ldr	r6, [sp, #28]
 1488 02d2 0822     		movs	r2, #8
 1489              		.loc 1 292 0
 1490 02d4 4FF48013 		mov	r3, #1048576
 1491              		.loc 1 291 0
 1492 02d8 3260     		str	r2, [r6]
 1493              		.loc 1 292 0
 1494 02da 2361     		str	r3, [r4, #16]
 1495              	.L27:
 1496              		.loc 1 333 0
 1497 02dc 0422     		movs	r2, #4
 1498              		.loc 1 334 0
 1499 02de 0623     		movs	r3, #6
 1500              		.loc 1 333 0
 1501 02e0 CCF80020 		str	r2, [ip]
 1502              		.loc 1 334 0
 1503 02e4 3B60     		str	r3, [r7]
 1504              	.L29:
 1505              		.loc 1 340 0 discriminator 1
 1506 02e6 D8F80020 		ldr	r2, [r8]
 1507 02ea DCF80030 		ldr	r3, [ip]
 1508 02ee 9A42     		cmp	r2, r3
 1509 02f0 00F0E080 		beq	.L52
 1510              	.L49:
 1511              		.loc 1 543 0
 1512 02f4 A368     		ldr	r3, [r4, #8]
 1513 02f6 D807     		lsls	r0, r3, #31
 1514 02f8 02D4     		bmi	.L45
 1515              		.loc 1 543 0 is_stmt 0 discriminator 1
 1516 02fa A368     		ldr	r3, [r4, #8]
 1517 02fc 9907     		lsls	r1, r3, #30
 1518 02fe 4BD5     		bpl	.L46
 1519              	.L45:
 1520              		.loc 1 545 0 is_stmt 1
 1521 0300 0021     		movs	r1, #0
 1522 0302 40F20000 		movw	r0, #:lower16:PWMD1
 1523 0306 0A46     		mov	r2, r1
 1524 0308 C0F20000 		movt	r0, #:upper16:PWMD1
 1525 030c CDF808C0 		str	ip, [sp, #8]
 1526 0310 FFF7FEFF 		bl	pwmEnableChannel
 1527              	.LVL36:
 1528              		.loc 1 546 0
 1529 0314 0021     		movs	r1, #0
 1530 0316 40F20000 		movw	r0, #:lower16:PWMD3
 1531 031a 0A46     		mov	r2, r1
 1532 031c C0F20000 		movt	r0, #:upper16:PWMD3
 1533              		.loc 1 547 0
 1534 0320 4FF40079 		mov	r9, #512
 1535              		.loc 1 548 0
ARM GAS  /tmp/ccsMqF3p.s 			page 89


 1536 0324 4FF40066 		mov	r6, #2048
 1537              		.loc 1 546 0
 1538 0328 FFF7FEFF 		bl	pwmEnableChannel
 1539              	.LVL37:
 1540              		.loc 1 547 0
 1541 032c C4F81090 		str	r9, [r4, #16]
 1542              		.loc 1 549 0
 1543 0330 4FF47A70 		mov	r0, #1000
 1544              		.loc 1 548 0
 1545 0334 2661     		str	r6, [r4, #16]
 1546              		.loc 1 549 0
 1547 0336 FFF7FEFF 		bl	chThdSleep
 1548              	.LVL38:
 1549              		.loc 1 552 0
 1550 033a DBF80830 		ldr	r3, [fp, #8]
 1551 033e 41F2707A 		movw	r10, #6000
 1552 0342 0AFB03F3 		mul	r3, r10, r3
 1553 0346 DDF810E0 		ldr	lr, [sp, #16]
 1554 034a 40F20000 		movw	r0, #:lower16:PWMD1
 1555 034e AEFB03E2 		umull	lr, r2, lr, r3
 1556 0352 C0F20000 		movt	r0, #:upper16:PWMD1
 1557 0356 520B     		lsrs	r2, r2, #13
 1558 0358 0021     		movs	r1, #0
 1559 035a FFF7FEFF 		bl	pwmEnableChannel
 1560              	.LVL39:
 1561              		.loc 1 553 0
 1562 035e 0698     		ldr	r0, [sp, #24]
 1563 0360 0499     		ldr	r1, [sp, #16]
 1564 0362 8368     		ldr	r3, [r0, #8]
 1565 0364 40F20000 		movw	r0, #:lower16:PWMD3
 1566 0368 0AFB03F3 		mul	r3, r10, r3
 1567 036c A1FB0312 		umull	r1, r2, r1, r3
 1568 0370 C0F20000 		movt	r0, #:upper16:PWMD3
 1569 0374 520B     		lsrs	r2, r2, #13
 1570 0376 0021     		movs	r1, #0
 1571 0378 FFF7FEFF 		bl	pwmEnableChannel
 1572              	.LVL40:
 1573              		.loc 1 554 0
 1574 037c C4F81090 		str	r9, [r4, #16]
 1575              		.loc 1 556 0
 1576 0380 40F2DC50 		movw	r0, #1500
 1577              		.loc 1 555 0
 1578 0384 2661     		str	r6, [r4, #16]
 1579              		.loc 1 556 0
 1580 0386 FFF7FEFF 		bl	chThdSleep
 1581              	.LVL41:
 1582              		.loc 1 557 0
 1583 038a D8F80030 		ldr	r3, [r8]
 1584 038e DDF808C0 		ldr	ip, [sp, #8]
 1585 0392 0133     		adds	r3, r3, #1
 1586 0394 C8F80030 		str	r3, [r8]
 1587              	.L46:
 1588              		.loc 1 560 0
 1589 0398 A368     		ldr	r3, [r4, #8]
 1590 039a DA07     		lsls	r2, r3, #31
 1591 039c 02D5     		bpl	.L47
 1592              		.loc 1 560 0 is_stmt 0 discriminator 1
ARM GAS  /tmp/ccsMqF3p.s 			page 90


 1593 039e A368     		ldr	r3, [r4, #8]
 1594 03a0 9B07     		lsls	r3, r3, #30
 1595 03a2 A0D4     		bmi	.L29
 1596              	.L47:
 1597              		.loc 1 562 0 is_stmt 1
 1598 03a4 0021     		movs	r1, #0
 1599 03a6 40F20000 		movw	r0, #:lower16:PWMD1
 1600 03aa 0A46     		mov	r2, r1
 1601 03ac C0F20000 		movt	r0, #:upper16:PWMD1
 1602 03b0 CDF808C0 		str	ip, [sp, #8]
 1603 03b4 FFF7FEFF 		bl	pwmEnableChannel
 1604              	.LVL42:
 1605              		.loc 1 563 0
 1606 03b8 0021     		movs	r1, #0
 1607 03ba 40F20000 		movw	r0, #:lower16:PWMD3
 1608 03be 0A46     		mov	r2, r1
 1609              		.loc 1 564 0
 1610 03c0 4FF40079 		mov	r9, #512
 1611              		.loc 1 565 0
 1612 03c4 4FF40066 		mov	r6, #2048
 1613              		.loc 1 563 0
 1614 03c8 C0F20000 		movt	r0, #:upper16:PWMD3
 1615 03cc FFF7FEFF 		bl	pwmEnableChannel
 1616              	.LVL43:
 1617              		.loc 1 564 0
 1618 03d0 C4F81090 		str	r9, [r4, #16]
 1619              		.loc 1 566 0
 1620 03d4 4FF47A70 		mov	r0, #1000
 1621              		.loc 1 565 0
 1622 03d8 2661     		str	r6, [r4, #16]
 1623              		.loc 1 566 0
 1624 03da FFF7FEFF 		bl	chThdSleep
 1625              	.LVL44:
 1626              		.loc 1 569 0
 1627 03de DBF80830 		ldr	r3, [fp, #8]
 1628 03e2 4FF47A7A 		mov	r10, #1000
 1629 03e6 0AFB03F3 		mul	r3, r10, r3
 1630 03ea DDF810E0 		ldr	lr, [sp, #16]
 1631 03ee 40F20000 		movw	r0, #:lower16:PWMD1
 1632 03f2 AEFB03E2 		umull	lr, r2, lr, r3
 1633 03f6 C0F20000 		movt	r0, #:upper16:PWMD1
 1634 03fa 520B     		lsrs	r2, r2, #13
 1635 03fc 0021     		movs	r1, #0
 1636 03fe FFF7FEFF 		bl	pwmEnableChannel
 1637              	.LVL45:
 1638              		.loc 1 570 0
 1639 0402 0021     		movs	r1, #0
 1640 0404 40F20000 		movw	r0, #:lower16:PWMD3
 1641 0408 0A46     		mov	r2, r1
 1642 040a C0F20000 		movt	r0, #:upper16:PWMD3
 1643 040e FFF7FEFF 		bl	pwmEnableChannel
 1644              	.LVL46:
 1645              		.loc 1 571 0
 1646 0412 C4F81090 		str	r9, [r4, #16]
 1647              		.loc 1 573 0
 1648 0416 40F22620 		movw	r0, #550
 1649              		.loc 1 572 0
ARM GAS  /tmp/ccsMqF3p.s 			page 91


 1650 041a 2661     		str	r6, [r4, #16]
 1651              		.loc 1 573 0
 1652 041c FFF7FEFF 		bl	chThdSleep
 1653              	.LVL47:
 1654              		.loc 1 576 0
 1655 0420 0021     		movs	r1, #0
 1656 0422 40F20000 		movw	r0, #:lower16:PWMD1
 1657 0426 0A46     		mov	r2, r1
 1658 0428 C0F20000 		movt	r0, #:upper16:PWMD1
 1659 042c FFF7FEFF 		bl	pwmEnableChannel
 1660              	.LVL48:
 1661              		.loc 1 577 0
 1662 0430 0021     		movs	r1, #0
 1663 0432 40F20000 		movw	r0, #:lower16:PWMD3
 1664 0436 0A46     		mov	r2, r1
 1665 0438 C0F20000 		movt	r0, #:upper16:PWMD3
 1666 043c FFF7FEFF 		bl	pwmEnableChannel
 1667              	.LVL49:
 1668              		.loc 1 580 0
 1669 0440 5046     		mov	r0, r10
 1670              		.loc 1 578 0
 1671 0442 C4F81090 		str	r9, [r4, #16]
 1672              		.loc 1 579 0
 1673 0446 2661     		str	r6, [r4, #16]
 1674              		.loc 1 580 0
 1675 0448 FFF7FEFF 		bl	chThdSleep
 1676              	.LVL50:
 1677              		.loc 1 583 0
 1678 044c DBF80830 		ldr	r3, [fp, #8]
 1679 0450 41F2707A 		movw	r10, #6000
 1680 0454 0AFB03F3 		mul	r3, r10, r3
 1681 0458 0498     		ldr	r0, [sp, #16]
 1682 045a 0021     		movs	r1, #0
 1683 045c A0FB0302 		umull	r0, r2, r0, r3
 1684 0460 40F20000 		movw	r0, #:lower16:PWMD1
 1685 0464 520B     		lsrs	r2, r2, #13
 1686 0466 C0F20000 		movt	r0, #:upper16:PWMD1
 1687 046a FFF7FEFF 		bl	pwmEnableChannel
 1688              	.LVL51:
 1689              		.loc 1 584 0
 1690 046e 0699     		ldr	r1, [sp, #24]
 1691 0470 DDF810E0 		ldr	lr, [sp, #16]
 1692 0474 8B68     		ldr	r3, [r1, #8]
 1693 0476 40F20000 		movw	r0, #:lower16:PWMD3
 1694 047a 0AFB03F3 		mul	r3, r10, r3
 1695 047e AEFB03E2 		umull	lr, r2, lr, r3
 1696 0482 C0F20000 		movt	r0, #:upper16:PWMD3
 1697 0486 520B     		lsrs	r2, r2, #13
 1698 0488 0021     		movs	r1, #0
 1699 048a FFF7FEFF 		bl	pwmEnableChannel
 1700              	.LVL52:
 1701              		.loc 1 585 0
 1702 048e C4F81090 		str	r9, [r4, #16]
 1703              		.loc 1 587 0
 1704 0492 40F2DC50 		movw	r0, #1500
 1705              		.loc 1 586 0
 1706 0496 2661     		str	r6, [r4, #16]
ARM GAS  /tmp/ccsMqF3p.s 			page 92


 1707              		.loc 1 587 0
 1708 0498 FFF7FEFF 		bl	chThdSleep
 1709              	.LVL53:
 1710              		.loc 1 588 0
 1711 049c 2B68     		ldr	r3, [r5]
 1712 049e DDF808C0 		ldr	ip, [sp, #8]
 1713 04a2 0133     		adds	r3, r3, #1
 1714 04a4 2B60     		str	r3, [r5]
 1715              		.loc 1 340 0
 1716 04a6 D8F80020 		ldr	r2, [r8]
 1717 04aa DCF80030 		ldr	r3, [ip]
 1718 04ae 9A42     		cmp	r2, r3
 1719 04b0 7FF420AF 		bne	.L49
 1720              	.L52:
 1721              		.loc 1 340 0 is_stmt 0 discriminator 2
 1722 04b4 2A68     		ldr	r2, [r5]
 1723 04b6 3B68     		ldr	r3, [r7]
 1724 04b8 40F20006 		movw	r6, #:lower16:.LANCHOR5
 1725              		.loc 1 344 0 is_stmt 1 discriminator 2
 1726 04bc 40F20000 		movw	r0, #:lower16:PWMD1
 1727 04c0 0021     		movs	r1, #0
 1728              		.loc 1 340 0 discriminator 2
 1729 04c2 9A42     		cmp	r2, r3
 1730 04c4 C0F20006 		movt	r6, #:upper16:.LANCHOR5
 1731              		.loc 1 344 0 discriminator 2
 1732 04c8 C0F20000 		movt	r0, #:upper16:PWMD1
 1733 04cc 0A46     		mov	r2, r1
 1734 04ce CDF808C0 		str	ip, [sp, #8]
 1735              		.loc 1 340 0 discriminator 2
 1736 04d2 00F04583 		beq	.L88
 1737              		.loc 1 344 0 discriminator 1
 1738 04d6 FFF7FEFF 		bl	pwmEnableChannel
 1739              	.LVL54:
 1740              		.loc 1 345 0 discriminator 1
 1741 04da 0021     		movs	r1, #0
 1742 04dc 40F20000 		movw	r0, #:lower16:PWMD3
 1743 04e0 0A46     		mov	r2, r1
 1744              		.loc 1 346 0 discriminator 1
 1745 04e2 4FF40079 		mov	r9, #512
 1746              		.loc 1 347 0 discriminator 1
 1747 04e6 4FF40066 		mov	r6, #2048
 1748              		.loc 1 345 0 discriminator 1
 1749 04ea C0F20000 		movt	r0, #:upper16:PWMD3
 1750 04ee FFF7FEFF 		bl	pwmEnableChannel
 1751              	.LVL55:
 1752              		.loc 1 346 0 discriminator 1
 1753 04f2 C4F81090 		str	r9, [r4, #16]
 1754              		.loc 1 348 0 discriminator 1
 1755 04f6 4FF47A70 		mov	r0, #1000
 1756              		.loc 1 347 0 discriminator 1
 1757 04fa 2661     		str	r6, [r4, #16]
 1758              		.loc 1 348 0 discriminator 1
 1759 04fc FFF7FEFF 		bl	chThdSleep
 1760              	.LVL56:
 1761              		.loc 1 350 0 discriminator 1
 1762 0500 DBF80830 		ldr	r3, [fp, #8]
 1763 0504 4FF47A7A 		mov	r10, #1000
ARM GAS  /tmp/ccsMqF3p.s 			page 93


 1764 0508 0AFB03F3 		mul	r3, r10, r3
 1765 050c DDF810E0 		ldr	lr, [sp, #16]
 1766 0510 40F20000 		movw	r0, #:lower16:PWMD1
 1767 0514 AEFB03E2 		umull	lr, r2, lr, r3
 1768 0518 C0F20000 		movt	r0, #:upper16:PWMD1
 1769 051c 520B     		lsrs	r2, r2, #13
 1770 051e 0021     		movs	r1, #0
 1771 0520 FFF7FEFF 		bl	pwmEnableChannel
 1772              	.LVL57:
 1773              		.loc 1 351 0 discriminator 1
 1774 0524 0021     		movs	r1, #0
 1775 0526 40F20000 		movw	r0, #:lower16:PWMD3
 1776 052a 0A46     		mov	r2, r1
 1777 052c C0F20000 		movt	r0, #:upper16:PWMD3
 1778 0530 FFF7FEFF 		bl	pwmEnableChannel
 1779              	.LVL58:
 1780              		.loc 1 352 0 discriminator 1
 1781 0534 C4F81090 		str	r9, [r4, #16]
 1782              		.loc 1 354 0 discriminator 1
 1783 0538 40F22620 		movw	r0, #550
 1784              		.loc 1 353 0 discriminator 1
 1785 053c 2661     		str	r6, [r4, #16]
 1786              		.loc 1 354 0 discriminator 1
 1787 053e FFF7FEFF 		bl	chThdSleep
 1788              	.LVL59:
 1789              		.loc 1 356 0 discriminator 1
 1790 0542 0021     		movs	r1, #0
 1791 0544 40F20000 		movw	r0, #:lower16:PWMD1
 1792 0548 0A46     		mov	r2, r1
 1793 054a C0F20000 		movt	r0, #:upper16:PWMD1
 1794 054e FFF7FEFF 		bl	pwmEnableChannel
 1795              	.LVL60:
 1796              		.loc 1 357 0 discriminator 1
 1797 0552 0021     		movs	r1, #0
 1798 0554 40F20000 		movw	r0, #:lower16:PWMD3
 1799 0558 C0F20000 		movt	r0, #:upper16:PWMD3
 1800 055c 0A46     		mov	r2, r1
 1801 055e FFF7FEFF 		bl	pwmEnableChannel
 1802              	.LVL61:
 1803              		.loc 1 358 0 discriminator 1
 1804 0562 C4F81090 		str	r9, [r4, #16]
 1805              		.loc 1 360 0 discriminator 1
 1806 0566 5046     		mov	r0, r10
 1807              		.loc 1 359 0 discriminator 1
 1808 0568 2661     		str	r6, [r4, #16]
 1809              		.loc 1 360 0 discriminator 1
 1810 056a FFF7FEFF 		bl	chThdSleep
 1811              	.LVL62:
 1812 056e 0598     		ldr	r0, [sp, #20]
 1813 0570 DDF808C0 		ldr	ip, [sp, #8]
 1814 0574 0678     		ldrb	r6, [r0]	@ zero_extendqisi2
 1815 0576 5B46     		mov	r3, fp
 1816 0578 E146     		mov	r9, ip
 1817              	.L42:
 1818              		.loc 1 362 0 discriminator 1
 1819 057a 002E     		cmp	r6, #0
 1820 057c 00F01A81 		beq	.L87
ARM GAS  /tmp/ccsMqF3p.s 			page 94


 1821              		.loc 1 363 0
 1822 0580 2968     		ldr	r1, [r5]
 1823 0582 3A68     		ldr	r2, [r7]
 1824 0584 9142     		cmp	r1, r2
 1825 0586 00F0A180 		beq	.L89
 1826              	.L31:
 1827              		.loc 1 389 0
 1828 058a A068     		ldr	r0, [r4, #8]
 1829 058c C007     		lsls	r0, r0, #31
 1830 058e 02D4     		bmi	.L33
 1831              		.loc 1 389 0 is_stmt 0 discriminator 1
 1832 0590 A068     		ldr	r0, [r4, #8]
 1833 0592 8007     		lsls	r0, r0, #30
 1834 0594 65D5     		bpl	.L34
 1835              	.L33:
 1836              		.loc 1 391 0 is_stmt 1
 1837 0596 0131     		adds	r1, r1, #1
 1838 0598 8A42     		cmp	r2, r1
 1839 059a 00F04682 		beq	.L90
 1840              		.loc 1 422 0
 1841 059e 2968     		ldr	r1, [r5]
 1842 05a0 3A68     		ldr	r2, [r7]
 1843 05a2 0131     		adds	r1, r1, #1
 1844 05a4 9142     		cmp	r1, r2
 1845 05a6 4DD0     		beq	.L37
 1846              	.L51:
 1847              		.loc 1 424 0
 1848 05a8 9A68     		ldr	r2, [r3, #8]
 1849 05aa 41F2707A 		movw	r10, #6000
 1850 05ae 0AFB02F2 		mul	r2, r10, r2
 1851 05b2 DDF810C0 		ldr	ip, [sp, #16]
 1852 05b6 40F20000 		movw	r0, #:lower16:PWMD1
 1853 05ba ACFB02C2 		umull	ip, r2, ip, r2
 1854 05be C0F20000 		movt	r0, #:upper16:PWMD1
 1855 05c2 520B     		lsrs	r2, r2, #13
 1856 05c4 0021     		movs	r1, #0
 1857 05c6 0393     		str	r3, [sp, #12]
 1858 05c8 FFF7FEFF 		bl	pwmEnableChannel
 1859              	.LVL63:
 1860              		.loc 1 425 0
 1861 05cc DDF818C0 		ldr	ip, [sp, #24]
 1862 05d0 40F20000 		movw	r0, #:lower16:PWMD3
 1863 05d4 DCF80820 		ldr	r2, [ip, #8]
 1864 05d8 DDF810C0 		ldr	ip, [sp, #16]
 1865 05dc 0AFB02F2 		mul	r2, r10, r2
 1866 05e0 ACFB02C2 		umull	ip, r2, ip, r2
 1867 05e4 0021     		movs	r1, #0
 1868 05e6 520B     		lsrs	r2, r2, #13
 1869 05e8 C0F20000 		movt	r0, #:upper16:PWMD3
 1870              		.loc 1 426 0
 1871 05ec 4FF4007A 		mov	r10, #512
 1872              		.loc 1 427 0
 1873 05f0 4FF4006B 		mov	fp, #2048
 1874              		.loc 1 425 0
 1875 05f4 FFF7FEFF 		bl	pwmEnableChannel
 1876              	.LVL64:
 1877              		.loc 1 426 0
ARM GAS  /tmp/ccsMqF3p.s 			page 95


 1878 05f8 C4F810A0 		str	r10, [r4, #16]
 1879              		.loc 1 428 0
 1880 05fc 40F2DC50 		movw	r0, #1500
 1881              		.loc 1 427 0
 1882 0600 C4F810B0 		str	fp, [r4, #16]
 1883              		.loc 1 428 0
 1884 0604 FFF7FEFF 		bl	chThdSleep
 1885              	.LVL65:
 1886              		.loc 1 429 0
 1887 0608 2A68     		ldr	r2, [r5]
 1888              		.loc 1 431 0
 1889 060a 0021     		movs	r1, #0
 1890 060c 40F20000 		movw	r0, #:lower16:PWMD1
 1891              		.loc 1 429 0
 1892 0610 02F1010E 		add	lr, r2, #1
 1893              		.loc 1 431 0
 1894 0614 C0F20000 		movt	r0, #:upper16:PWMD1
 1895 0618 0A46     		mov	r2, r1
 1896              		.loc 1 429 0
 1897 061a C5F800E0 		str	lr, [r5]
 1898              		.loc 1 431 0
 1899 061e FFF7FEFF 		bl	pwmEnableChannel
 1900              	.LVL66:
 1901              		.loc 1 432 0
 1902 0622 0021     		movs	r1, #0
 1903 0624 40F20000 		movw	r0, #:lower16:PWMD3
 1904 0628 C0F20000 		movt	r0, #:upper16:PWMD3
 1905 062c 0A46     		mov	r2, r1
 1906 062e FFF7FEFF 		bl	pwmEnableChannel
 1907              	.LVL67:
 1908              		.loc 1 433 0
 1909 0632 C4F810A0 		str	r10, [r4, #16]
 1910              		.loc 1 435 0
 1911 0636 4FF47A70 		mov	r0, #1000
 1912              		.loc 1 434 0
 1913 063a C4F810B0 		str	fp, [r4, #16]
 1914              		.loc 1 435 0
 1915 063e FFF7FEFF 		bl	chThdSleep
 1916              	.LVL68:
 1917 0642 039B     		ldr	r3, [sp, #12]
 1918              	.L37:
 1919              		.loc 1 438 0
 1920 0644 D8F80010 		ldr	r1, [r8]
 1921 0648 D9F80020 		ldr	r2, [r9]
 1922 064c 40F2000B 		movw	fp, #:lower16:.LANCHOR8
 1923 0650 9142     		cmp	r1, r2
 1924 0652 C0F2000B 		movt	fp, #:upper16:.LANCHOR8
 1925 0656 04DD     		ble	.L34
 1926              		.loc 1 438 0 is_stmt 0 discriminator 1
 1927 0658 2968     		ldr	r1, [r5]
 1928 065a 3A68     		ldr	r2, [r7]
 1929 065c 9142     		cmp	r1, r2
 1930 065e 00F02684 		beq	.L91
 1931              	.L34:
 1932              		.loc 1 469 0 is_stmt 1
 1933 0662 A268     		ldr	r2, [r4, #8]
 1934 0664 D107     		lsls	r1, r2, #31
ARM GAS  /tmp/ccsMqF3p.s 			page 96


 1935 0666 40F1AF80 		bpl	.L40
 1936              		.loc 1 469 0 is_stmt 0 discriminator 1
 1937 066a A268     		ldr	r2, [r4, #8]
 1938 066c 9207     		lsls	r2, r2, #30
 1939 066e 40F1AB80 		bpl	.L40
 1940 0672 DDF814C0 		ldr	ip, [sp, #20]
 1941 0676 9CF80060 		ldrb	r6, [ip]	@ zero_extendqisi2
 1942 067a 7EE7     		b	.L42
 1943              	.L26:
 1944              		.loc 1 328 0 is_stmt 1
 1945 067c 0221     		movs	r1, #2
 1946              		.loc 1 329 0
 1947 067e 0622     		movs	r2, #6
 1948              		.loc 1 328 0
 1949 0680 CCF80010 		str	r1, [ip]
 1950              		.loc 1 329 0
 1951 0684 3A60     		str	r2, [r7]
 1952              		.loc 1 330 0
 1953 0686 D6E5     		b	.L9
 1954              	.L22:
 1955              		.loc 1 308 0
 1956 0688 0621     		movs	r1, #6
 1957              		.loc 1 309 0
 1958 068a 0222     		movs	r2, #2
 1959              		.loc 1 308 0
 1960 068c CCF80010 		str	r1, [ip]
 1961              		.loc 1 309 0
 1962 0690 3A60     		str	r2, [r7]
 1963              		.loc 1 310 0
 1964 0692 D0E5     		b	.L9
 1965              	.L21:
 1966              		.loc 1 303 0
 1967 0694 0421     		movs	r1, #4
 1968              		.loc 1 304 0
 1969 0696 0222     		movs	r2, #2
 1970              		.loc 1 303 0
 1971 0698 CCF80010 		str	r1, [ip]
 1972              		.loc 1 304 0
 1973 069c 3A60     		str	r2, [r7]
 1974              		.loc 1 305 0
 1975 069e CAE5     		b	.L9
 1976              	.L19:
 1977              		.loc 1 298 0
 1978 06a0 0222     		movs	r2, #2
 1979 06a2 CCF80020 		str	r2, [ip]
 1980              		.loc 1 299 0
 1981 06a6 3A60     		str	r2, [r7]
 1982              		.loc 1 300 0
 1983 06a8 C5E5     		b	.L9
 1984              	.L24:
 1985              		.loc 1 318 0
 1986 06aa 0422     		movs	r2, #4
 1987 06ac CCF80020 		str	r2, [ip]
 1988              		.loc 1 319 0
 1989 06b0 3A60     		str	r2, [r7]
 1990              		.loc 1 320 0
 1991 06b2 C0E5     		b	.L9
ARM GAS  /tmp/ccsMqF3p.s 			page 97


 1992              	.L23:
 1993              		.loc 1 313 0
 1994 06b4 0221     		movs	r1, #2
 1995              		.loc 1 314 0
 1996 06b6 0422     		movs	r2, #4
 1997              		.loc 1 313 0
 1998 06b8 CCF80010 		str	r1, [ip]
 1999              		.loc 1 314 0
 2000 06bc 3A60     		str	r2, [r7]
 2001              		.loc 1 315 0
 2002 06be BAE5     		b	.L9
 2003              	.L25:
 2004              		.loc 1 323 0
 2005 06c0 0621     		movs	r1, #6
 2006              		.loc 1 324 0
 2007 06c2 0422     		movs	r2, #4
 2008              		.loc 1 323 0
 2009 06c4 CCF80010 		str	r1, [ip]
 2010              		.loc 1 324 0
 2011 06c8 3A60     		str	r2, [r7]
 2012              		.loc 1 325 0
 2013 06ca B4E5     		b	.L9
 2014              	.L89:
 2015              		.loc 1 363 0 discriminator 1
 2016 06cc D8F80010 		ldr	r1, [r8]
 2017 06d0 D9F80020 		ldr	r2, [r9]
 2018 06d4 9142     		cmp	r1, r2
 2019 06d6 7FF450AF 		bne	.L42
 2020              		.loc 1 365 0
 2021 06da 0021     		movs	r1, #0
 2022 06dc 40F20000 		movw	r0, #:lower16:PWMD1
 2023 06e0 0A46     		mov	r2, r1
 2024 06e2 C0F20000 		movt	r0, #:upper16:PWMD1
 2025 06e6 0393     		str	r3, [sp, #12]
 2026 06e8 FFF7FEFF 		bl	pwmEnableChannel
 2027              	.LVL69:
 2028              		.loc 1 366 0
 2029 06ec 0021     		movs	r1, #0
 2030 06ee 40F20000 		movw	r0, #:lower16:PWMD3
 2031 06f2 0A46     		mov	r2, r1
 2032              		.loc 1 367 0
 2033 06f4 4FF4007B 		mov	fp, #512
 2034              		.loc 1 368 0
 2035 06f8 4FF4006A 		mov	r10, #2048
 2036              		.loc 1 366 0
 2037 06fc C0F20000 		movt	r0, #:upper16:PWMD3
 2038 0700 FFF7FEFF 		bl	pwmEnableChannel
 2039              	.LVL70:
 2040              		.loc 1 367 0
 2041 0704 C4F810B0 		str	fp, [r4, #16]
 2042              		.loc 1 369 0
 2043 0708 4FF47A70 		mov	r0, #1000
 2044              		.loc 1 368 0
 2045 070c C4F810A0 		str	r10, [r4, #16]
 2046              		.loc 1 369 0
 2047 0710 FFF7FEFF 		bl	chThdSleep
 2048              	.LVL71:
ARM GAS  /tmp/ccsMqF3p.s 			page 98


 2049              		.loc 1 372 0
 2050 0714 039B     		ldr	r3, [sp, #12]
 2051 0716 4FF47A7C 		mov	ip, #1000
 2052 071a 9A68     		ldr	r2, [r3, #8]
 2053 071c 0499     		ldr	r1, [sp, #16]
 2054 071e 0CFB02F2 		mul	r2, ip, r2
 2055 0722 A1FB0212 		umull	r1, r2, r1, r2
 2056 0726 40F20000 		movw	r0, #:lower16:PWMD1
 2057 072a 520B     		lsrs	r2, r2, #13
 2058 072c C0F20000 		movt	r0, #:upper16:PWMD1
 2059 0730 0021     		movs	r1, #0
 2060 0732 CDF808C0 		str	ip, [sp, #8]
 2061 0736 FFF7FEFF 		bl	pwmEnableChannel
 2062              	.LVL72:
 2063              		.loc 1 373 0
 2064 073a 0021     		movs	r1, #0
 2065 073c 40F20000 		movw	r0, #:lower16:PWMD3
 2066 0740 0A46     		mov	r2, r1
 2067 0742 C0F20000 		movt	r0, #:upper16:PWMD3
 2068 0746 FFF7FEFF 		bl	pwmEnableChannel
 2069              	.LVL73:
 2070              		.loc 1 374 0
 2071 074a C4F810B0 		str	fp, [r4, #16]
 2072              		.loc 1 376 0
 2073 074e 40F22620 		movw	r0, #550
 2074              		.loc 1 375 0
 2075 0752 C4F810A0 		str	r10, [r4, #16]
 2076              		.loc 1 376 0
 2077 0756 FFF7FEFF 		bl	chThdSleep
 2078              	.LVL74:
 2079              		.loc 1 379 0
 2080 075a 0021     		movs	r1, #0
 2081 075c 40F20000 		movw	r0, #:lower16:PWMD1
 2082 0760 0A46     		mov	r2, r1
 2083 0762 C0F20000 		movt	r0, #:upper16:PWMD1
 2084 0766 FFF7FEFF 		bl	pwmEnableChannel
 2085              	.LVL75:
 2086              		.loc 1 380 0
 2087 076a 0021     		movs	r1, #0
 2088 076c 40F20000 		movw	r0, #:lower16:PWMD3
 2089 0770 0A46     		mov	r2, r1
 2090 0772 C0F20000 		movt	r0, #:upper16:PWMD3
 2091 0776 FFF7FEFF 		bl	pwmEnableChannel
 2092              	.LVL76:
 2093              		.loc 1 383 0
 2094 077a DDF808C0 		ldr	ip, [sp, #8]
 2095              		.loc 1 381 0
 2096 077e C4F810B0 		str	fp, [r4, #16]
 2097              		.loc 1 383 0
 2098 0782 6046     		mov	r0, ip
 2099              		.loc 1 382 0
 2100 0784 C4F810A0 		str	r10, [r4, #16]
 2101              		.loc 1 383 0
 2102 0788 FFF7FEFF 		bl	chThdSleep
 2103              	.LVL77:
 2104              		.loc 1 388 0
 2105 078c 40F20002 		movw	r2, #:lower16:.LANCHOR7
ARM GAS  /tmp/ccsMqF3p.s 			page 99


 2106 0790 40F2000C 		movw	ip, #:lower16:.LANCHOR5
 2107 0794 C0F20002 		movt	r2, #:upper16:.LANCHOR7
 2108 0798 C0F2000C 		movt	ip, #:upper16:.LANCHOR5
 2109 079c 1168     		ldr	r1, [r2]
 2110 079e DCF80020 		ldr	r2, [ip]
 2111              		.loc 1 385 0
 2112 07a2 DDF814C0 		ldr	ip, [sp, #20]
 2113 07a6 0020     		movs	r0, #0
 2114              		.loc 1 388 0
 2115 07a8 9142     		cmp	r1, r2
 2116              		.loc 1 385 0
 2117 07aa 8CF80000 		strb	r0, [ip]
 2118              		.loc 1 388 0
 2119 07ae 039B     		ldr	r3, [sp, #12]
 2120 07b0 7FF4EBAE 		bne	.L31
 2121              	.L87:
 2122 07b4 9B46     		mov	fp, r3
 2123              		.loc 1 541 0
 2124 07b6 D8F80020 		ldr	r2, [r8]
 2125 07ba D9F80030 		ldr	r3, [r9]
 2126 07be CC46     		mov	ip, r9
 2127 07c0 9A42     		cmp	r2, r3
 2128 07c2 3FF477AE 		beq	.L52
 2129 07c6 95E5     		b	.L49
 2130              	.L40:
 2131              		.loc 1 471 0
 2132 07c8 0021     		movs	r1, #0
 2133 07ca 40F20000 		movw	r0, #:lower16:PWMD1
 2134 07ce 0A46     		mov	r2, r1
 2135 07d0 C0F20000 		movt	r0, #:upper16:PWMD1
 2136 07d4 0393     		str	r3, [sp, #12]
 2137 07d6 FFF7FEFF 		bl	pwmEnableChannel
 2138              	.LVL78:
 2139              		.loc 1 472 0
 2140 07da 0021     		movs	r1, #0
 2141 07dc 40F20000 		movw	r0, #:lower16:PWMD3
 2142              		.loc 1 473 0
 2143 07e0 4FF4007A 		mov	r10, #512
 2144              		.loc 1 474 0
 2145 07e4 4FF4006B 		mov	fp, #2048
 2146              		.loc 1 472 0
 2147 07e8 0A46     		mov	r2, r1
 2148 07ea C0F20000 		movt	r0, #:upper16:PWMD3
 2149 07ee FFF7FEFF 		bl	pwmEnableChannel
 2150              	.LVL79:
 2151              		.loc 1 473 0
 2152 07f2 C4F810A0 		str	r10, [r4, #16]
 2153              		.loc 1 475 0
 2154 07f6 4FF47A70 		mov	r0, #1000
 2155              		.loc 1 474 0
 2156 07fa C4F810B0 		str	fp, [r4, #16]
 2157              		.loc 1 475 0
 2158 07fe FFF7FEFF 		bl	chThdSleep
 2159              	.LVL80:
 2160              		.loc 1 478 0
 2161 0802 0021     		movs	r1, #0
 2162 0804 40F20000 		movw	r0, #:lower16:PWMD1
ARM GAS  /tmp/ccsMqF3p.s 			page 100


 2163 0808 0A46     		mov	r2, r1
 2164 080a C0F20000 		movt	r0, #:upper16:PWMD1
 2165 080e FFF7FEFF 		bl	pwmEnableChannel
 2166              	.LVL81:
 2167              		.loc 1 479 0
 2168 0812 DDF818C0 		ldr	ip, [sp, #24]
 2169 0816 4FF47A7E 		mov	lr, #1000
 2170 081a DCF80820 		ldr	r2, [ip, #8]
 2171 081e DDF810C0 		ldr	ip, [sp, #16]
 2172 0822 0EFB02F2 		mul	r2, lr, r2
 2173 0826 ACFB02C2 		umull	ip, r2, ip, r2
 2174 082a 40F20000 		movw	r0, #:lower16:PWMD3
 2175 082e 520B     		lsrs	r2, r2, #13
 2176 0830 0021     		movs	r1, #0
 2177 0832 C0F20000 		movt	r0, #:upper16:PWMD3
 2178 0836 FFF7FEFF 		bl	pwmEnableChannel
 2179              	.LVL82:
 2180              		.loc 1 480 0
 2181 083a C4F810A0 		str	r10, [r4, #16]
 2182              		.loc 1 482 0
 2183 083e 40F22620 		movw	r0, #550
 2184              		.loc 1 481 0
 2185 0842 C4F810B0 		str	fp, [r4, #16]
 2186              		.loc 1 482 0
 2187 0846 FFF7FEFF 		bl	chThdSleep
 2188              	.LVL83:
 2189              		.loc 1 485 0
 2190 084a 0021     		movs	r1, #0
 2191 084c 40F20000 		movw	r0, #:lower16:PWMD1
 2192 0850 0A46     		mov	r2, r1
 2193 0852 C0F20000 		movt	r0, #:upper16:PWMD1
 2194 0856 FFF7FEFF 		bl	pwmEnableChannel
 2195              	.LVL84:
 2196              		.loc 1 486 0
 2197 085a 0021     		movs	r1, #0
 2198 085c 40F20000 		movw	r0, #:lower16:PWMD3
 2199 0860 0A46     		mov	r2, r1
 2200 0862 C0F20000 		movt	r0, #:upper16:PWMD3
 2201 0866 FFF7FEFF 		bl	pwmEnableChannel
 2202              	.LVL85:
 2203              		.loc 1 487 0
 2204 086a C4F810A0 		str	r10, [r4, #16]
 2205              		.loc 1 489 0
 2206 086e 4FF47A70 		mov	r0, #1000
 2207              		.loc 1 488 0
 2208 0872 C4F810B0 		str	fp, [r4, #16]
 2209              		.loc 1 489 0
 2210 0876 FFF7FEFF 		bl	chThdSleep
 2211              	.LVL86:
 2212              		.loc 1 492 0
 2213 087a 039B     		ldr	r3, [sp, #12]
 2214 087c 41F2707C 		movw	ip, #6000
 2215 0880 9A68     		ldr	r2, [r3, #8]
 2216 0882 DDF810E0 		ldr	lr, [sp, #16]
 2217 0886 0CFB02F2 		mul	r2, ip, r2
 2218 088a AEFB02E2 		umull	lr, r2, lr, r2
 2219 088e 40F20000 		movw	r0, #:lower16:PWMD1
ARM GAS  /tmp/ccsMqF3p.s 			page 101


 2220 0892 520B     		lsrs	r2, r2, #13
 2221 0894 C0F20000 		movt	r0, #:upper16:PWMD1
 2222 0898 0021     		movs	r1, #0
 2223 089a CDF808C0 		str	ip, [sp, #8]
 2224 089e FFF7FEFF 		bl	pwmEnableChannel
 2225              	.LVL87:
 2226              		.loc 1 493 0
 2227 08a2 0698     		ldr	r0, [sp, #24]
 2228 08a4 DDF808C0 		ldr	ip, [sp, #8]
 2229 08a8 8268     		ldr	r2, [r0, #8]
 2230 08aa 40F20000 		movw	r0, #:lower16:PWMD3
 2231 08ae 0CFB02F2 		mul	r2, ip, r2
 2232 08b2 DDF810C0 		ldr	ip, [sp, #16]
 2233 08b6 0021     		movs	r1, #0
 2234 08b8 ACFB02C2 		umull	ip, r2, ip, r2
 2235 08bc C0F20000 		movt	r0, #:upper16:PWMD3
 2236 08c0 520B     		lsrs	r2, r2, #13
 2237 08c2 FFF7FEFF 		bl	pwmEnableChannel
 2238              	.LVL88:
 2239              		.loc 1 494 0
 2240 08c6 C4F810A0 		str	r10, [r4, #16]
 2241              		.loc 1 496 0
 2242 08ca 40F2DC50 		movw	r0, #1500
 2243              		.loc 1 495 0
 2244 08ce C4F810B0 		str	fp, [r4, #16]
 2245              		.loc 1 496 0
 2246 08d2 FFF7FEFF 		bl	chThdSleep
 2247              	.LVL89:
 2248              		.loc 1 497 0
 2249 08d6 D8F80020 		ldr	r2, [r8]
 2250              		.loc 1 500 0
 2251 08da 0021     		movs	r1, #0
 2252 08dc 40F20000 		movw	r0, #:lower16:PWMD1
 2253              		.loc 1 497 0
 2254 08e0 02F1010E 		add	lr, r2, #1
 2255              		.loc 1 500 0
 2256 08e4 C0F20000 		movt	r0, #:upper16:PWMD1
 2257 08e8 0A46     		mov	r2, r1
 2258              		.loc 1 497 0
 2259 08ea C8F800E0 		str	lr, [r8]
 2260              		.loc 1 500 0
 2261 08ee FFF7FEFF 		bl	pwmEnableChannel
 2262              	.LVL90:
 2263              		.loc 1 501 0
 2264 08f2 0021     		movs	r1, #0
 2265 08f4 40F20000 		movw	r0, #:lower16:PWMD3
 2266 08f8 0A46     		mov	r2, r1
 2267 08fa C0F20000 		movt	r0, #:upper16:PWMD3
 2268 08fe FFF7FEFF 		bl	pwmEnableChannel
 2269              	.LVL91:
 2270              		.loc 1 502 0
 2271 0902 C4F810A0 		str	r10, [r4, #16]
 2272              		.loc 1 504 0
 2273 0906 4FF47A70 		mov	r0, #1000
 2274              		.loc 1 503 0
 2275 090a C4F810B0 		str	fp, [r4, #16]
 2276              		.loc 1 504 0
ARM GAS  /tmp/ccsMqF3p.s 			page 102


 2277 090e FFF7FEFF 		bl	chThdSleep
 2278              	.LVL92:
 2279              		.loc 1 507 0
 2280 0912 039B     		ldr	r3, [sp, #12]
 2281 0914 4FF47A7E 		mov	lr, #1000
 2282 0918 9A68     		ldr	r2, [r3, #8]
 2283 091a DDF810C0 		ldr	ip, [sp, #16]
 2284 091e 0EFB02F2 		mul	r2, lr, r2
 2285 0922 ACFB02C2 		umull	ip, r2, ip, r2
 2286 0926 40F20000 		movw	r0, #:lower16:PWMD1
 2287 092a C0F20000 		movt	r0, #:upper16:PWMD1
 2288 092e 520B     		lsrs	r2, r2, #13
 2289 0930 0021     		movs	r1, #0
 2290 0932 FFF7FEFF 		bl	pwmEnableChannel
 2291              	.LVL93:
 2292              		.loc 1 508 0
 2293 0936 0021     		movs	r1, #0
 2294 0938 40F20000 		movw	r0, #:lower16:PWMD3
 2295 093c 0A46     		mov	r2, r1
 2296 093e C0F20000 		movt	r0, #:upper16:PWMD3
 2297 0942 FFF7FEFF 		bl	pwmEnableChannel
 2298              	.LVL94:
 2299              		.loc 1 509 0
 2300 0946 C4F810A0 		str	r10, [r4, #16]
 2301              		.loc 1 511 0
 2302 094a 40F22620 		movw	r0, #550
 2303              		.loc 1 510 0
 2304 094e C4F810B0 		str	fp, [r4, #16]
 2305              		.loc 1 511 0
 2306 0952 FFF7FEFF 		bl	chThdSleep
 2307              	.LVL95:
 2308              		.loc 1 514 0
 2309 0956 0021     		movs	r1, #0
 2310 0958 40F20000 		movw	r0, #:lower16:PWMD1
 2311 095c 0A46     		mov	r2, r1
 2312 095e C0F20000 		movt	r0, #:upper16:PWMD1
 2313 0962 FFF7FEFF 		bl	pwmEnableChannel
 2314              	.LVL96:
 2315              		.loc 1 515 0
 2316 0966 0021     		movs	r1, #0
 2317 0968 40F20000 		movw	r0, #:lower16:PWMD3
 2318 096c 0A46     		mov	r2, r1
 2319 096e C0F20000 		movt	r0, #:upper16:PWMD3
 2320 0972 FFF7FEFF 		bl	pwmEnableChannel
 2321              	.LVL97:
 2322              		.loc 1 516 0
 2323 0976 C4F810A0 		str	r10, [r4, #16]
 2324              		.loc 1 518 0
 2325 097a 4FF47A70 		mov	r0, #1000
 2326              		.loc 1 517 0
 2327 097e C4F810B0 		str	fp, [r4, #16]
 2328              		.loc 1 518 0
 2329 0982 FFF7FEFF 		bl	chThdSleep
 2330              	.LVL98:
 2331              		.loc 1 521 0
 2332 0986 039B     		ldr	r3, [sp, #12]
 2333 0988 41F2883C 		movw	ip, #5000
ARM GAS  /tmp/ccsMqF3p.s 			page 103


 2334 098c 9A68     		ldr	r2, [r3, #8]
 2335 098e DDF810E0 		ldr	lr, [sp, #16]
 2336 0992 0CFB02F2 		mul	r2, ip, r2
 2337 0996 AEFB02E2 		umull	lr, r2, lr, r2
 2338 099a 40F20000 		movw	r0, #:lower16:PWMD1
 2339 099e 520B     		lsrs	r2, r2, #13
 2340 09a0 C0F20000 		movt	r0, #:upper16:PWMD1
 2341 09a4 0021     		movs	r1, #0
 2342 09a6 CDF808C0 		str	ip, [sp, #8]
 2343 09aa FFF7FEFF 		bl	pwmEnableChannel
 2344              	.LVL99:
 2345              		.loc 1 522 0
 2346 09ae 0698     		ldr	r0, [sp, #24]
 2347 09b0 DDF808C0 		ldr	ip, [sp, #8]
 2348 09b4 8268     		ldr	r2, [r0, #8]
 2349 09b6 40F20000 		movw	r0, #:lower16:PWMD3
 2350 09ba 0CFB02F2 		mul	r2, ip, r2
 2351 09be DDF810C0 		ldr	ip, [sp, #16]
 2352 09c2 0021     		movs	r1, #0
 2353 09c4 ACFB02C2 		umull	ip, r2, ip, r2
 2354 09c8 C0F20000 		movt	r0, #:upper16:PWMD3
 2355 09cc 520B     		lsrs	r2, r2, #13
 2356 09ce FFF7FEFF 		bl	pwmEnableChannel
 2357              	.LVL100:
 2358              		.loc 1 523 0
 2359 09d2 C4F810A0 		str	r10, [r4, #16]
 2360              		.loc 1 525 0
 2361 09d6 40F2DC50 		movw	r0, #1500
 2362              		.loc 1 524 0
 2363 09da C4F810B0 		str	fp, [r4, #16]
 2364              		.loc 1 525 0
 2365 09de FFF7FEFF 		bl	chThdSleep
 2366              	.LVL101:
 2367              		.loc 1 526 0
 2368 09e2 2A68     		ldr	r2, [r5]
 2369              		.loc 1 529 0
 2370 09e4 0021     		movs	r1, #0
 2371 09e6 40F20000 		movw	r0, #:lower16:PWMD1
 2372              		.loc 1 526 0
 2373 09ea 02F1010E 		add	lr, r2, #1
 2374              		.loc 1 529 0
 2375 09ee C0F20000 		movt	r0, #:upper16:PWMD1
 2376 09f2 0A46     		mov	r2, r1
 2377              		.loc 1 526 0
 2378 09f4 C5F800E0 		str	lr, [r5]
 2379              		.loc 1 529 0
 2380 09f8 FFF7FEFF 		bl	pwmEnableChannel
 2381              	.LVL102:
 2382              		.loc 1 530 0
 2383 09fc 0021     		movs	r1, #0
 2384 09fe 40F20000 		movw	r0, #:lower16:PWMD3
 2385 0a02 0A46     		mov	r2, r1
 2386 0a04 C0F20000 		movt	r0, #:upper16:PWMD3
 2387 0a08 FFF7FEFF 		bl	pwmEnableChannel
 2388              	.LVL103:
 2389              		.loc 1 531 0
 2390 0a0c C4F810A0 		str	r10, [r4, #16]
ARM GAS  /tmp/ccsMqF3p.s 			page 104


 2391              		.loc 1 533 0
 2392 0a10 4FF47A70 		mov	r0, #1000
 2393              		.loc 1 532 0
 2394 0a14 C4F810B0 		str	fp, [r4, #16]
 2395              		.loc 1 533 0
 2396 0a18 FFF7FEFF 		bl	chThdSleep
 2397              	.LVL104:
 2398              		.loc 1 535 0
 2399 0a1c DDF814C0 		ldr	ip, [sp, #20]
 2400 0a20 0122     		movs	r2, #1
 2401 0a22 8CF80020 		strb	r2, [ip]
 2402 0a26 039B     		ldr	r3, [sp, #12]
 2403 0a28 A7E5     		b	.L42
 2404              	.L90:
 2405              		.loc 1 393 0
 2406 0a2a 9A68     		ldr	r2, [r3, #8]
 2407 0a2c 41F2707A 		movw	r10, #6000
 2408 0a30 0AFB02F2 		mul	r2, r10, r2
 2409 0a34 DDF810C0 		ldr	ip, [sp, #16]
 2410 0a38 40F20000 		movw	r0, #:lower16:PWMD1
 2411 0a3c ACFB02C2 		umull	ip, r2, ip, r2
 2412 0a40 C0F20000 		movt	r0, #:upper16:PWMD1
 2413 0a44 520B     		lsrs	r2, r2, #13
 2414 0a46 0021     		movs	r1, #0
 2415 0a48 0393     		str	r3, [sp, #12]
 2416 0a4a FFF7FEFF 		bl	pwmEnableChannel
 2417              	.LVL105:
 2418              		.loc 1 394 0
 2419 0a4e DDF818C0 		ldr	ip, [sp, #24]
 2420 0a52 40F20000 		movw	r0, #:lower16:PWMD3
 2421 0a56 DCF80820 		ldr	r2, [ip, #8]
 2422 0a5a DDF810C0 		ldr	ip, [sp, #16]
 2423 0a5e 0AFB02F2 		mul	r2, r10, r2
 2424 0a62 ACFB02C2 		umull	ip, r2, ip, r2
 2425              		.loc 1 395 0
 2426 0a66 4FF4007A 		mov	r10, #512
 2427              		.loc 1 396 0
 2428 0a6a 4FF4006B 		mov	fp, #2048
 2429              		.loc 1 394 0
 2430 0a6e 520B     		lsrs	r2, r2, #13
 2431 0a70 0021     		movs	r1, #0
 2432 0a72 C0F20000 		movt	r0, #:upper16:PWMD3
 2433 0a76 FFF7FEFF 		bl	pwmEnableChannel
 2434              	.LVL106:
 2435              		.loc 1 395 0
 2436 0a7a C4F810A0 		str	r10, [r4, #16]
 2437              		.loc 1 397 0
 2438 0a7e 4FF47A70 		mov	r0, #1000
 2439              		.loc 1 396 0
 2440 0a82 C4F810B0 		str	fp, [r4, #16]
 2441              		.loc 1 397 0
 2442 0a86 FFF7FEFF 		bl	chThdSleep
 2443              	.LVL107:
 2444              		.loc 1 398 0
 2445 0a8a 2A68     		ldr	r2, [r5]
 2446              		.loc 1 400 0
 2447 0a8c 0021     		movs	r1, #0
ARM GAS  /tmp/ccsMqF3p.s 			page 105


 2448 0a8e 40F20000 		movw	r0, #:lower16:PWMD1
 2449              		.loc 1 398 0
 2450 0a92 02F1010E 		add	lr, r2, #1
 2451              		.loc 1 400 0
 2452 0a96 C0F20000 		movt	r0, #:upper16:PWMD1
 2453 0a9a 0A46     		mov	r2, r1
 2454              		.loc 1 398 0
 2455 0a9c C5F800E0 		str	lr, [r5]
 2456              		.loc 1 400 0
 2457 0aa0 FFF7FEFF 		bl	pwmEnableChannel
 2458              	.LVL108:
 2459              		.loc 1 401 0
 2460 0aa4 0021     		movs	r1, #0
 2461 0aa6 40F20000 		movw	r0, #:lower16:PWMD3
 2462 0aaa 0A46     		mov	r2, r1
 2463 0aac C0F20000 		movt	r0, #:upper16:PWMD3
 2464 0ab0 FFF7FEFF 		bl	pwmEnableChannel
 2465              	.LVL109:
 2466              		.loc 1 402 0
 2467 0ab4 C4F810A0 		str	r10, [r4, #16]
 2468              		.loc 1 404 0
 2469 0ab8 4FF47A70 		mov	r0, #1000
 2470              		.loc 1 403 0
 2471 0abc C4F810B0 		str	fp, [r4, #16]
 2472              		.loc 1 404 0
 2473 0ac0 FFF7FEFF 		bl	chThdSleep
 2474              	.LVL110:
 2475              		.loc 1 406 0
 2476 0ac4 039B     		ldr	r3, [sp, #12]
 2477 0ac6 4FF47A7C 		mov	ip, #1000
 2478 0aca 9A68     		ldr	r2, [r3, #8]
 2479 0acc DDF810E0 		ldr	lr, [sp, #16]
 2480 0ad0 0CFB02F2 		mul	r2, ip, r2
 2481 0ad4 AEFB02E2 		umull	lr, r2, lr, r2
 2482 0ad8 40F20000 		movw	r0, #:lower16:PWMD1
 2483 0adc 520B     		lsrs	r2, r2, #13
 2484 0ade C0F20000 		movt	r0, #:upper16:PWMD1
 2485 0ae2 0021     		movs	r1, #0
 2486 0ae4 CDF808C0 		str	ip, [sp, #8]
 2487 0ae8 FFF7FEFF 		bl	pwmEnableChannel
 2488              	.LVL111:
 2489              		.loc 1 407 0
 2490 0aec 0021     		movs	r1, #0
 2491 0aee 40F20000 		movw	r0, #:lower16:PWMD3
 2492 0af2 0A46     		mov	r2, r1
 2493 0af4 C0F20000 		movt	r0, #:upper16:PWMD3
 2494 0af8 FFF7FEFF 		bl	pwmEnableChannel
 2495              	.LVL112:
 2496              		.loc 1 408 0
 2497 0afc C4F810A0 		str	r10, [r4, #16]
 2498              		.loc 1 410 0
 2499 0b00 40F22620 		movw	r0, #550
 2500              		.loc 1 409 0
 2501 0b04 C4F810B0 		str	fp, [r4, #16]
 2502              		.loc 1 410 0
 2503 0b08 FFF7FEFF 		bl	chThdSleep
 2504              	.LVL113:
ARM GAS  /tmp/ccsMqF3p.s 			page 106


 2505              		.loc 1 413 0
 2506 0b0c 0021     		movs	r1, #0
 2507 0b0e 40F20000 		movw	r0, #:lower16:PWMD1
 2508 0b12 0A46     		mov	r2, r1
 2509 0b14 C0F20000 		movt	r0, #:upper16:PWMD1
 2510 0b18 FFF7FEFF 		bl	pwmEnableChannel
 2511              	.LVL114:
 2512              		.loc 1 414 0
 2513 0b1c 0021     		movs	r1, #0
 2514 0b1e 40F20000 		movw	r0, #:lower16:PWMD3
 2515 0b22 0A46     		mov	r2, r1
 2516 0b24 C0F20000 		movt	r0, #:upper16:PWMD3
 2517 0b28 FFF7FEFF 		bl	pwmEnableChannel
 2518              	.LVL115:
 2519              		.loc 1 417 0
 2520 0b2c DDF808C0 		ldr	ip, [sp, #8]
 2521              		.loc 1 415 0
 2522 0b30 C4F810A0 		str	r10, [r4, #16]
 2523              		.loc 1 417 0
 2524 0b34 6046     		mov	r0, ip
 2525              		.loc 1 416 0
 2526 0b36 C4F810B0 		str	fp, [r4, #16]
 2527              		.loc 1 417 0
 2528 0b3a FFF7FEFF 		bl	chThdSleep
 2529              	.LVL116:
 2530              		.loc 1 422 0
 2531 0b3e 2968     		ldr	r1, [r5]
 2532 0b40 3A68     		ldr	r2, [r7]
 2533 0b42 481C     		adds	r0, r1, #1
 2534              		.loc 1 419 0
 2535 0b44 DDF814C0 		ldr	ip, [sp, #20]
 2536 0b48 4FF0000E 		mov	lr, #0
 2537              		.loc 1 422 0
 2538 0b4c 9042     		cmp	r0, r2
 2539              		.loc 1 419 0
 2540 0b4e 8CF800E0 		strb	lr, [ip]
 2541              		.loc 1 422 0
 2542 0b52 039B     		ldr	r3, [sp, #12]
 2543 0b54 3FF476AD 		beq	.L37
 2544              		.loc 1 422 0 is_stmt 0 discriminator 1
 2545 0b58 9142     		cmp	r1, r2
 2546 0b5a 7FF425AD 		bne	.L51
 2547 0b5e 71E5     		b	.L37
 2548              	.L88:
 2549              		.loc 1 595 0 is_stmt 1
 2550 0b60 FFF7FEFF 		bl	pwmEnableChannel
 2551              	.LVL117:
 2552              		.loc 1 596 0
 2553 0b64 0021     		movs	r1, #0
 2554 0b66 40F20000 		movw	r0, #:lower16:PWMD3
 2555              		.loc 1 597 0
 2556 0b6a 4FF40079 		mov	r9, #512
 2557              		.loc 1 598 0
 2558 0b6e 4FF4006A 		mov	r10, #2048
 2559              		.loc 1 596 0
 2560 0b72 0A46     		mov	r2, r1
 2561 0b74 C0F20000 		movt	r0, #:upper16:PWMD3
ARM GAS  /tmp/ccsMqF3p.s 			page 107


 2562 0b78 FFF7FEFF 		bl	pwmEnableChannel
 2563              	.LVL118:
 2564              		.loc 1 597 0
 2565 0b7c C4F81090 		str	r9, [r4, #16]
 2566              		.loc 1 599 0
 2567 0b80 41F28830 		movw	r0, #5000
 2568              		.loc 1 598 0
 2569 0b84 C4F810A0 		str	r10, [r4, #16]
 2570              		.loc 1 599 0
 2571 0b88 FFF7FEFF 		bl	chThdSleep
 2572              	.LVL119:
 2573              		.loc 1 602 0
 2574 0b8c DBF80830 		ldr	r3, [fp, #8]
 2575 0b90 4FF47A70 		mov	r0, #1000
 2576 0b94 00FB03F3 		mul	r3, r0, r3
 2577 0b98 0499     		ldr	r1, [sp, #16]
 2578 0b9a 40F20000 		movw	r0, #:lower16:PWMD1
 2579 0b9e A1FB0312 		umull	r1, r2, r1, r3
 2580 0ba2 C0F20000 		movt	r0, #:upper16:PWMD1
 2581 0ba6 520B     		lsrs	r2, r2, #13
 2582 0ba8 0021     		movs	r1, #0
 2583 0baa FFF7FEFF 		bl	pwmEnableChannel
 2584              	.LVL120:
 2585              		.loc 1 603 0
 2586 0bae 0021     		movs	r1, #0
 2587 0bb0 40F20000 		movw	r0, #:lower16:PWMD3
 2588 0bb4 0A46     		mov	r2, r1
 2589 0bb6 C0F20000 		movt	r0, #:upper16:PWMD3
 2590 0bba FFF7FEFF 		bl	pwmEnableChannel
 2591              	.LVL121:
 2592              		.loc 1 604 0
 2593 0bbe C4F81090 		str	r9, [r4, #16]
 2594              		.loc 1 606 0
 2595 0bc2 40F22620 		movw	r0, #550
 2596              		.loc 1 605 0
 2597 0bc6 C4F810A0 		str	r10, [r4, #16]
 2598              		.loc 1 606 0
 2599 0bca FFF7FEFF 		bl	chThdSleep
 2600              	.LVL122:
 2601              		.loc 1 609 0
 2602 0bce 0021     		movs	r1, #0
 2603 0bd0 40F20000 		movw	r0, #:lower16:PWMD1
 2604 0bd4 0A46     		mov	r2, r1
 2605 0bd6 C0F20000 		movt	r0, #:upper16:PWMD1
 2606 0bda FFF7FEFF 		bl	pwmEnableChannel
 2607              	.LVL123:
 2608              		.loc 1 610 0
 2609 0bde 0021     		movs	r1, #0
 2610 0be0 40F20000 		movw	r0, #:lower16:PWMD3
 2611 0be4 0A46     		mov	r2, r1
 2612 0be6 C0F20000 		movt	r0, #:upper16:PWMD3
 2613 0bea FFF7FEFF 		bl	pwmEnableChannel
 2614              	.LVL124:
 2615              		.loc 1 611 0
 2616 0bee C4F81090 		str	r9, [r4, #16]
 2617              		.loc 1 613 0
 2618 0bf2 4FF47A70 		mov	r0, #1000
ARM GAS  /tmp/ccsMqF3p.s 			page 108


 2619              		.loc 1 612 0
 2620 0bf6 C4F810A0 		str	r10, [r4, #16]
 2621              		.loc 1 613 0
 2622 0bfa FFF7FEFF 		bl	chThdSleep
 2623              	.LVL125:
 2624              		.loc 1 616 0
 2625 0bfe DBF80830 		ldr	r3, [fp, #8]
 2626 0c02 41F27072 		movw	r2, #6000
 2627 0c06 02FB03F3 		mul	r3, r2, r3
 2628 0c0a DDF810E0 		ldr	lr, [sp, #16]
 2629 0c0e 40F20000 		movw	r0, #:lower16:PWMD1
 2630 0c12 AEFB03E2 		umull	lr, r2, lr, r3
 2631 0c16 C0F20000 		movt	r0, #:upper16:PWMD1
 2632 0c1a 520B     		lsrs	r2, r2, #13
 2633 0c1c 0021     		movs	r1, #0
 2634 0c1e FFF7FEFF 		bl	pwmEnableChannel
 2635              	.LVL126:
 2636              		.loc 1 617 0
 2637 0c22 0698     		ldr	r0, [sp, #24]
 2638 0c24 41F27071 		movw	r1, #6000
 2639 0c28 8368     		ldr	r3, [r0, #8]
 2640 0c2a DDF810E0 		ldr	lr, [sp, #16]
 2641 0c2e 01FB03F3 		mul	r3, r1, r3
 2642 0c32 AEFB03E2 		umull	lr, r2, lr, r3
 2643 0c36 40F20000 		movw	r0, #:lower16:PWMD3
 2644 0c3a 0021     		movs	r1, #0
 2645 0c3c 520B     		lsrs	r2, r2, #13
 2646 0c3e C0F20000 		movt	r0, #:upper16:PWMD3
 2647 0c42 FFF7FEFF 		bl	pwmEnableChannel
 2648              	.LVL127:
 2649              		.loc 1 620 0
 2650 0c46 3068     		ldr	r0, [r6]
 2651 0c48 4EF26033 		movw	r3, #58208
 2652 0c4c C0F21603 		movt	r3, 22
 2653 0c50 03FB00F0 		mul	r0, r3, r0
 2654 0c54 44F6D356 		movw	r6, #19923
 2655 0c58 C1F26206 		movt	r6, 4194
 2656 0c5c 00F2E730 		addw	r0, r0, #999
 2657 0c60 A6FB0010 		umull	r1, r0, r6, r0
 2658              		.loc 1 618 0
 2659 0c64 C4F81090 		str	r9, [r4, #16]
 2660              		.loc 1 620 0
 2661 0c68 C0F38F10 		ubfx	r0, r0, #6, #16
 2662              		.loc 1 619 0
 2663 0c6c C4F810A0 		str	r10, [r4, #16]
 2664              		.loc 1 620 0
 2665 0c70 0393     		str	r3, [sp, #12]
 2666 0c72 FFF7FEFF 		bl	chThdSleep
 2667              	.LVL128:
 2668              		.loc 1 623 0
 2669 0c76 0021     		movs	r1, #0
 2670 0c78 40F20000 		movw	r0, #:lower16:PWMD1
 2671 0c7c 0A46     		mov	r2, r1
 2672 0c7e C0F20000 		movt	r0, #:upper16:PWMD1
 2673 0c82 FFF7FEFF 		bl	pwmEnableChannel
 2674              	.LVL129:
 2675              		.loc 1 624 0
ARM GAS  /tmp/ccsMqF3p.s 			page 109


 2676 0c86 0021     		movs	r1, #0
 2677 0c88 40F20000 		movw	r0, #:lower16:PWMD3
 2678 0c8c 0A46     		mov	r2, r1
 2679 0c8e C0F20000 		movt	r0, #:upper16:PWMD3
 2680 0c92 FFF7FEFF 		bl	pwmEnableChannel
 2681              	.LVL130:
 2682              		.loc 1 625 0
 2683 0c96 C4F81090 		str	r9, [r4, #16]
 2684              		.loc 1 627 0
 2685 0c9a 4FF47A70 		mov	r0, #1000
 2686              		.loc 1 626 0
 2687 0c9e C4F810A0 		str	r10, [r4, #16]
 2688              		.loc 1 627 0
 2689 0ca2 FFF7FEFF 		bl	chThdSleep
 2690              	.LVL131:
 2691              		.loc 1 630 0
 2692 0ca6 0021     		movs	r1, #0
 2693 0ca8 40F20000 		movw	r0, #:lower16:PWMD1
 2694 0cac 0A46     		mov	r2, r1
 2695 0cae C0F20000 		movt	r0, #:upper16:PWMD1
 2696 0cb2 FFF7FEFF 		bl	pwmEnableChannel
 2697              	.LVL132:
 2698              		.loc 1 631 0
 2699 0cb6 DDF818E0 		ldr	lr, [sp, #24]
 2700 0cba 4FF47A71 		mov	r1, #1000
 2701 0cbe DEF80820 		ldr	r2, [lr, #8]
 2702 0cc2 DDF810E0 		ldr	lr, [sp, #16]
 2703 0cc6 01FB02F2 		mul	r2, r1, r2
 2704 0cca AEFB02E2 		umull	lr, r2, lr, r2
 2705 0cce 40F20000 		movw	r0, #:lower16:PWMD3
 2706 0cd2 520B     		lsrs	r2, r2, #13
 2707 0cd4 0021     		movs	r1, #0
 2708 0cd6 C0F20000 		movt	r0, #:upper16:PWMD3
 2709 0cda FFF7FEFF 		bl	pwmEnableChannel
 2710              	.LVL133:
 2711              		.loc 1 632 0
 2712 0cde C4F81090 		str	r9, [r4, #16]
 2713              		.loc 1 634 0
 2714 0ce2 40F22620 		movw	r0, #550
 2715              		.loc 1 633 0
 2716 0ce6 C4F810A0 		str	r10, [r4, #16]
 2717              		.loc 1 634 0
 2718 0cea FFF7FEFF 		bl	chThdSleep
 2719              	.LVL134:
 2720              		.loc 1 637 0
 2721 0cee 0021     		movs	r1, #0
 2722 0cf0 40F20000 		movw	r0, #:lower16:PWMD1
 2723 0cf4 0A46     		mov	r2, r1
 2724 0cf6 C0F20000 		movt	r0, #:upper16:PWMD1
 2725 0cfa FFF7FEFF 		bl	pwmEnableChannel
 2726              	.LVL135:
 2727              		.loc 1 638 0
 2728 0cfe 0021     		movs	r1, #0
 2729 0d00 40F20000 		movw	r0, #:lower16:PWMD3
 2730 0d04 0A46     		mov	r2, r1
 2731 0d06 C0F20000 		movt	r0, #:upper16:PWMD3
 2732 0d0a FFF7FEFF 		bl	pwmEnableChannel
ARM GAS  /tmp/ccsMqF3p.s 			page 110


 2733              	.LVL136:
 2734              		.loc 1 639 0
 2735 0d0e C4F81090 		str	r9, [r4, #16]
 2736              		.loc 1 641 0
 2737 0d12 4FF47A70 		mov	r0, #1000
 2738              		.loc 1 640 0
 2739 0d16 C4F810A0 		str	r10, [r4, #16]
 2740              		.loc 1 641 0
 2741 0d1a FFF7FEFF 		bl	chThdSleep
 2742              	.LVL137:
 2743              		.loc 1 644 0
 2744 0d1e DBF80820 		ldr	r2, [fp, #8]
 2745 0d22 41F27071 		movw	r1, #6000
 2746 0d26 01FB02F2 		mul	r2, r1, r2
 2747 0d2a DDF810E0 		ldr	lr, [sp, #16]
 2748 0d2e 40F20000 		movw	r0, #:lower16:PWMD1
 2749 0d32 AEFB02E2 		umull	lr, r2, lr, r2
 2750 0d36 C0F20000 		movt	r0, #:upper16:PWMD1
 2751 0d3a 520B     		lsrs	r2, r2, #13
 2752 0d3c 0021     		movs	r1, #0
 2753 0d3e FFF7FEFF 		bl	pwmEnableChannel
 2754              	.LVL138:
 2755              		.loc 1 645 0
 2756 0d42 0698     		ldr	r0, [sp, #24]
 2757 0d44 41F27071 		movw	r1, #6000
 2758 0d48 8268     		ldr	r2, [r0, #8]
 2759 0d4a DDF810E0 		ldr	lr, [sp, #16]
 2760 0d4e 01FB02F2 		mul	r2, r1, r2
 2761 0d52 AEFB02E2 		umull	lr, r2, lr, r2
 2762 0d56 40F20000 		movw	r0, #:lower16:PWMD3
 2763 0d5a 0021     		movs	r1, #0
 2764 0d5c C0F20000 		movt	r0, #:upper16:PWMD3
 2765 0d60 520B     		lsrs	r2, r2, #13
 2766 0d62 FFF7FEFF 		bl	pwmEnableChannel
 2767              	.LVL139:
 2768              		.loc 1 648 0
 2769 0d66 DDF808C0 		ldr	ip, [sp, #8]
 2770 0d6a 039B     		ldr	r3, [sp, #12]
 2771 0d6c DCF80020 		ldr	r2, [ip]
 2772              		.loc 1 646 0
 2773 0d70 C4F81090 		str	r9, [r4, #16]
 2774              		.loc 1 648 0
 2775 0d74 03FB02F3 		mul	r3, r3, r2
 2776 0d78 03F2E730 		addw	r0, r3, #999
 2777 0d7c A6FB0010 		umull	r1, r0, r6, r0
 2778              		.loc 1 647 0
 2779 0d80 C4F810A0 		str	r10, [r4, #16]
 2780              		.loc 1 648 0
 2781 0d84 C0F38F10 		ubfx	r0, r0, #6, #16
 2782 0d88 FFF7FEFF 		bl	chThdSleep
 2783              	.LVL140:
 2784              		.loc 1 651 0
 2785 0d8c 0021     		movs	r1, #0
 2786 0d8e 40F20000 		movw	r0, #:lower16:PWMD1
 2787 0d92 0A46     		mov	r2, r1
 2788 0d94 C0F20000 		movt	r0, #:upper16:PWMD1
 2789 0d98 FFF7FEFF 		bl	pwmEnableChannel
ARM GAS  /tmp/ccsMqF3p.s 			page 111


 2790              	.LVL141:
 2791              		.loc 1 652 0
 2792 0d9c 0021     		movs	r1, #0
 2793 0d9e 40F20000 		movw	r0, #:lower16:PWMD3
 2794 0da2 0A46     		mov	r2, r1
 2795 0da4 C0F20000 		movt	r0, #:upper16:PWMD3
 2796 0da8 FFF7FEFF 		bl	pwmEnableChannel
 2797              	.LVL142:
 2798              		.loc 1 653 0
 2799 0dac C4F81090 		str	r9, [r4, #16]
 2800              		.loc 1 655 0
 2801 0db0 4FF47A70 		mov	r0, #1000
 2802              		.loc 1 654 0
 2803 0db4 C4F810A0 		str	r10, [r4, #16]
 2804              		.loc 1 655 0
 2805 0db8 FFF7FEFF 		bl	chThdSleep
 2806              	.LVL143:
 2807              		.loc 1 658 0
 2808 0dbc 0021     		movs	r1, #0
 2809 0dbe 40F20000 		movw	r0, #:lower16:PWMD1
 2810 0dc2 0A46     		mov	r2, r1
 2811 0dc4 C0F20000 		movt	r0, #:upper16:PWMD1
 2812 0dc8 FFF7FEFF 		bl	pwmEnableChannel
 2813              	.LVL144:
 2814              		.loc 1 659 0
 2815 0dcc 069E     		ldr	r6, [sp, #24]
 2816 0dce 4FF47A7E 		mov	lr, #1000
 2817 0dd2 B368     		ldr	r3, [r6, #8]
 2818 0dd4 049E     		ldr	r6, [sp, #16]
 2819 0dd6 0EFB03F3 		mul	r3, lr, r3
 2820 0dda A6FB0362 		umull	r6, r2, r6, r3
 2821 0dde 40F20000 		movw	r0, #:lower16:PWMD3
 2822 0de2 520B     		lsrs	r2, r2, #13
 2823 0de4 0021     		movs	r1, #0
 2824 0de6 C0F20000 		movt	r0, #:upper16:PWMD3
 2825 0dea FFF7FEFF 		bl	pwmEnableChannel
 2826              	.LVL145:
 2827              		.loc 1 660 0
 2828 0dee C4F81090 		str	r9, [r4, #16]
 2829              		.loc 1 662 0
 2830 0df2 40F22620 		movw	r0, #550
 2831              		.loc 1 661 0
 2832 0df6 C4F810A0 		str	r10, [r4, #16]
 2833              		.loc 1 662 0
 2834 0dfa FFF7FEFF 		bl	chThdSleep
 2835              	.LVL146:
 2836              		.loc 1 665 0
 2837 0dfe 0021     		movs	r1, #0
 2838 0e00 40F20000 		movw	r0, #:lower16:PWMD1
 2839 0e04 0A46     		mov	r2, r1
 2840 0e06 C0F20000 		movt	r0, #:upper16:PWMD1
 2841 0e0a FFF7FEFF 		bl	pwmEnableChannel
 2842              	.LVL147:
 2843              		.loc 1 666 0
 2844 0e0e 0021     		movs	r1, #0
 2845 0e10 40F20000 		movw	r0, #:lower16:PWMD3
 2846 0e14 0A46     		mov	r2, r1
ARM GAS  /tmp/ccsMqF3p.s 			page 112


 2847 0e16 C0F20000 		movt	r0, #:upper16:PWMD3
 2848 0e1a FFF7FEFF 		bl	pwmEnableChannel
 2849              	.LVL148:
 2850              		.loc 1 667 0
 2851 0e1e C4F81090 		str	r9, [r4, #16]
 2852              		.loc 1 669 0
 2853 0e22 4FF47A70 		mov	r0, #1000
 2854              		.loc 1 668 0
 2855 0e26 C4F810A0 		str	r10, [r4, #16]
 2856              		.loc 1 669 0
 2857 0e2a FFF7FEFF 		bl	chThdSleep
 2858              	.LVL149:
 2859              		.loc 1 672 0
 2860 0e2e 0021     		movs	r1, #0
 2861 0e30 40F20000 		movw	r0, #:lower16:PWMD1
 2862 0e34 0A46     		mov	r2, r1
 2863 0e36 C0F20000 		movt	r0, #:upper16:PWMD1
 2864 0e3a FFF7FEFF 		bl	pwmEnableChannel
 2865              	.LVL150:
 2866              		.loc 1 673 0
 2867 0e3e 069E     		ldr	r6, [sp, #24]
 2868 0e40 4FF47A7E 		mov	lr, #1000
 2869 0e44 B368     		ldr	r3, [r6, #8]
 2870 0e46 049E     		ldr	r6, [sp, #16]
 2871 0e48 0EFB03F3 		mul	r3, lr, r3
 2872 0e4c A6FB0362 		umull	r6, r2, r6, r3
 2873 0e50 40F20000 		movw	r0, #:lower16:PWMD3
 2874 0e54 520B     		lsrs	r2, r2, #13
 2875 0e56 0021     		movs	r1, #0
 2876 0e58 C0F20000 		movt	r0, #:upper16:PWMD3
 2877 0e5c FFF7FEFF 		bl	pwmEnableChannel
 2878              	.LVL151:
 2879              		.loc 1 674 0
 2880 0e60 C4F81090 		str	r9, [r4, #16]
 2881              		.loc 1 676 0
 2882 0e64 40F22620 		movw	r0, #550
 2883              		.loc 1 675 0
 2884 0e68 C4F810A0 		str	r10, [r4, #16]
 2885              		.loc 1 676 0
 2886 0e6c FFF7FEFF 		bl	chThdSleep
 2887              	.LVL152:
 2888              		.loc 1 679 0
 2889 0e70 0021     		movs	r1, #0
 2890 0e72 40F20000 		movw	r0, #:lower16:PWMD1
 2891 0e76 0A46     		mov	r2, r1
 2892 0e78 C0F20000 		movt	r0, #:upper16:PWMD1
 2893 0e7c FFF7FEFF 		bl	pwmEnableChannel
 2894              	.LVL153:
 2895              		.loc 1 680 0
 2896 0e80 0021     		movs	r1, #0
 2897 0e82 40F20000 		movw	r0, #:lower16:PWMD3
 2898 0e86 C0F20000 		movt	r0, #:upper16:PWMD3
 2899 0e8a 0A46     		mov	r2, r1
 2900 0e8c FFF7FEFF 		bl	pwmEnableChannel
 2901              	.LVL154:
 2902              		.loc 1 681 0
 2903 0e90 C4F81090 		str	r9, [r4, #16]
ARM GAS  /tmp/ccsMqF3p.s 			page 113


 2904              		.loc 1 683 0
 2905 0e94 41F28830 		movw	r0, #5000
 2906              		.loc 1 682 0
 2907 0e98 C4F810A0 		str	r10, [r4, #16]
 2908              		.loc 1 683 0
 2909 0e9c FFF7FEFF 		bl	chThdSleep
 2910              	.LVL155:
 2911              		.loc 1 685 0
 2912 0ea0 079E     		ldr	r6, [sp, #28]
 2913 0ea2 0023     		movs	r3, #0
 2914 0ea4 3360     		str	r3, [r6]
 2915              		.loc 1 686 0
 2916 0ea6 DDF808C0 		ldr	ip, [sp, #8]
 2917 0eaa FFF7C6B9 		b	.L28
 2918              	.L91:
 2919              		.loc 1 440 0
 2920 0eae 0021     		movs	r1, #0
 2921 0eb0 40F20000 		movw	r0, #:lower16:PWMD1
 2922 0eb4 0A46     		mov	r2, r1
 2923 0eb6 C0F20000 		movt	r0, #:upper16:PWMD1
 2924 0eba 0393     		str	r3, [sp, #12]
 2925 0ebc FFF7FEFF 		bl	pwmEnableChannel
 2926              	.LVL156:
 2927              		.loc 1 441 0
 2928 0ec0 0021     		movs	r1, #0
 2929 0ec2 40F20000 		movw	r0, #:lower16:PWMD3
 2930 0ec6 0A46     		mov	r2, r1
 2931 0ec8 C0F20000 		movt	r0, #:upper16:PWMD3
 2932 0ecc FFF7FEFF 		bl	pwmEnableChannel
 2933              	.LVL157:
 2934              		.loc 1 442 0
 2935 0ed0 4FF4007A 		mov	r10, #512
 2936              		.loc 1 443 0
 2937 0ed4 4FF40061 		mov	r1, #2048
 2938              		.loc 1 442 0
 2939 0ed8 C4F810A0 		str	r10, [r4, #16]
 2940              		.loc 1 444 0
 2941 0edc 4FF47A70 		mov	r0, #1000
 2942              		.loc 1 443 0
 2943 0ee0 2161     		str	r1, [r4, #16]
 2944              		.loc 1 444 0
 2945 0ee2 FFF7FEFF 		bl	chThdSleep
 2946              	.LVL158:
 2947              		.loc 1 446 0
 2948 0ee6 039B     		ldr	r3, [sp, #12]
 2949 0ee8 4FF47A7C 		mov	ip, #1000
 2950 0eec 9A68     		ldr	r2, [r3, #8]
 2951 0eee 40F20000 		movw	r0, #:lower16:PWMD1
 2952 0ef2 0CFB02F2 		mul	r2, ip, r2
 2953 0ef6 DDF810C0 		ldr	ip, [sp, #16]
 2954 0efa C0F20000 		movt	r0, #:upper16:PWMD1
 2955 0efe ACFB02C2 		umull	ip, r2, ip, r2
 2956 0f02 0021     		movs	r1, #0
 2957 0f04 520B     		lsrs	r2, r2, #13
 2958 0f06 FFF7FEFF 		bl	pwmEnableChannel
 2959              	.LVL159:
 2960              		.loc 1 447 0
ARM GAS  /tmp/ccsMqF3p.s 			page 114


 2961 0f0a 0021     		movs	r1, #0
 2962 0f0c 40F20000 		movw	r0, #:lower16:PWMD3
 2963 0f10 0A46     		mov	r2, r1
 2964 0f12 C0F20000 		movt	r0, #:upper16:PWMD3
 2965 0f16 FFF7FEFF 		bl	pwmEnableChannel
 2966              	.LVL160:
 2967              		.loc 1 449 0
 2968 0f1a 4FF40061 		mov	r1, #2048
 2969              		.loc 1 448 0
 2970 0f1e C4F810A0 		str	r10, [r4, #16]
 2971              		.loc 1 450 0
 2972 0f22 40F22620 		movw	r0, #550
 2973              		.loc 1 449 0
 2974 0f26 2161     		str	r1, [r4, #16]
 2975              		.loc 1 450 0
 2976 0f28 FFF7FEFF 		bl	chThdSleep
 2977              	.LVL161:
 2978              		.loc 1 452 0
 2979 0f2c 0021     		movs	r1, #0
 2980 0f2e 40F20000 		movw	r0, #:lower16:PWMD1
 2981 0f32 0A46     		mov	r2, r1
 2982 0f34 C0F20000 		movt	r0, #:upper16:PWMD1
 2983 0f38 FFF7FEFF 		bl	pwmEnableChannel
 2984              	.LVL162:
 2985              		.loc 1 453 0
 2986 0f3c 0021     		movs	r1, #0
 2987 0f3e 40F20000 		movw	r0, #:lower16:PWMD3
 2988 0f42 0A46     		mov	r2, r1
 2989 0f44 C0F20000 		movt	r0, #:upper16:PWMD3
 2990 0f48 FFF7FEFF 		bl	pwmEnableChannel
 2991              	.LVL163:
 2992              		.loc 1 455 0
 2993 0f4c 4FF40062 		mov	r2, #2048
 2994              		.loc 1 454 0
 2995 0f50 C4F810A0 		str	r10, [r4, #16]
 2996              		.loc 1 456 0
 2997 0f54 4FF47A70 		mov	r0, #1000
 2998              		.loc 1 455 0
 2999 0f58 2261     		str	r2, [r4, #16]
 3000              		.loc 1 456 0
 3001 0f5a FFF7FEFF 		bl	chThdSleep
 3002              	.LVL164:
 3003              		.loc 1 458 0
 3004 0f5e 039B     		ldr	r3, [sp, #12]
 3005 0f60 41F2707C 		movw	ip, #6000
 3006 0f64 9A68     		ldr	r2, [r3, #8]
 3007 0f66 DDF810E0 		ldr	lr, [sp, #16]
 3008 0f6a 0CFB02F2 		mul	r2, ip, r2
 3009 0f6e AEFB02E2 		umull	lr, r2, lr, r2
 3010 0f72 40F20000 		movw	r0, #:lower16:PWMD1
 3011 0f76 520B     		lsrs	r2, r2, #13
 3012 0f78 C0F20000 		movt	r0, #:upper16:PWMD1
 3013 0f7c 0021     		movs	r1, #0
 3014 0f7e CDF808C0 		str	ip, [sp, #8]
 3015 0f82 FFF7FEFF 		bl	pwmEnableChannel
 3016              	.LVL165:
 3017              		.loc 1 459 0
ARM GAS  /tmp/ccsMqF3p.s 			page 115


 3018 0f86 0698     		ldr	r0, [sp, #24]
 3019 0f88 DDF808C0 		ldr	ip, [sp, #8]
 3020 0f8c 8268     		ldr	r2, [r0, #8]
 3021 0f8e 40F20000 		movw	r0, #:lower16:PWMD3
 3022 0f92 0CFB02F2 		mul	r2, ip, r2
 3023 0f96 DDF810C0 		ldr	ip, [sp, #16]
 3024 0f9a C0F20000 		movt	r0, #:upper16:PWMD3
 3025 0f9e ACFB02C2 		umull	ip, r2, ip, r2
 3026 0fa2 0021     		movs	r1, #0
 3027 0fa4 520B     		lsrs	r2, r2, #13
 3028 0fa6 FFF7FEFF 		bl	pwmEnableChannel
 3029              	.LVL166:
 3030              		.loc 1 461 0
 3031 0faa 4FF40061 		mov	r1, #2048
 3032              		.loc 1 460 0
 3033 0fae C4F810A0 		str	r10, [r4, #16]
 3034              		.loc 1 462 0
 3035 0fb2 4FF47A70 		mov	r0, #1000
 3036              		.loc 1 461 0
 3037 0fb6 2161     		str	r1, [r4, #16]
 3038              		.loc 1 462 0
 3039 0fb8 FFF7FEFF 		bl	chThdSleep
 3040              	.LVL167:
 3041              		.loc 1 463 0
 3042 0fbc DBF80020 		ldr	r2, [fp]
 3043              		.loc 1 464 0
 3044 0fc0 DDF814C0 		ldr	ip, [sp, #20]
 3045 0fc4 0021     		movs	r1, #0
 3046              		.loc 1 463 0
 3047 0fc6 013A     		subs	r2, r2, #1
 3048 0fc8 CBF80020 		str	r2, [fp]
 3049              		.loc 1 464 0
 3050 0fcc 8CF80010 		strb	r1, [ip]
 3051 0fd0 039B     		ldr	r3, [sp, #12]
 3052 0fd2 FFF746BB 		b	.L34
 3053              		.cfi_endproc
 3054              	.LFE224:
 3055              		.size	main, .-main
 3056              		.global	s
 3057              		.global	PosCy
 3058              		.global	PosCx
 3059              		.global	PosFy
 3060              		.global	PosFx
 3061              		.global	temp
 3062              		.global	table
 3063 0fd6 00BFAFF3 		.section	.bss.waThread2,"aw",%nobits
 3063      0080AFF3 
 3063      0080
 3064              		.align	3
 3065              		.set	.LANCHOR2,. + 0
 3066              		.type	waThread2, %object
 3067              		.size	waThread2, 328
 3068              	waThread2:
 3069 0000 00000000 		.space	328
 3069      00000000 
 3069      00000000 
 3069      00000000 
ARM GAS  /tmp/ccsMqF3p.s 			page 116


 3069      00000000 
 3070              		.section	.data.pwmcfg,"aw",%progbits
 3071              		.align	2
 3072              		.set	.LANCHOR1,. + 0
 3073              		.type	pwmcfg, %object
 3074              		.size	pwmcfg, 52
 3075              	pwmcfg:
 3076 0000 10270000 		.word	10000
 3077 0004 F4010000 		.word	500
 3078 0008 00000000 		.word	pwmpcb
 3079 000c 01000000 		.word	1
 3080 0010 00000000 		.word	pwmc1cb
 3081 0014 00000000 		.word	0
 3082 0018 00000000 		.word	0
 3083 001c 00000000 		.word	0
 3084 0020 00000000 		.word	0
 3085 0024 00000000 		.word	0
 3086 0028 00000000 		.word	0
 3087 002c 00000000 		.word	0
 3088 0030 00000000 		.word	0
 3089              		.section	.bss.PosFx,"aw",%nobits
 3090              		.align	2
 3091              		.set	.LANCHOR4,. + 0
 3092              		.type	PosFx, %object
 3093              		.size	PosFx, 4
 3094              	PosFx:
 3095 0000 00000000 		.space	4
 3096              		.section	.bss.table,"aw",%nobits
 3097              		.align	2
 3098              		.set	.LANCHOR3,. + 0
 3099              		.type	table, %object
 3100              		.size	table, 4
 3101              	table:
 3102 0000 00000000 		.space	4
 3103              		.section	.bss.PosFy,"aw",%nobits
 3104              		.align	2
 3105              		.set	.LANCHOR5,. + 0
 3106              		.type	PosFy, %object
 3107              		.size	PosFy, 4
 3108              	PosFy:
 3109 0000 00000000 		.space	4
 3110              		.section	.rodata.str1.4,"aMS",%progbits,1
 3111              		.align	2
 3112              	.LC0:
 3113 0000 73656E64 		.ascii	"send2uart\000"
 3113      32756172 
 3113      7400
 3114 000a 0000     		.space	2
 3115              	.LC1:
 3116 000c 636F6D75 		.ascii	"comunicacion STM32 \015\012\000"
 3116      6E696361 
 3116      63696F6E 
 3116      2053544D 
 3116      3332200D 
 3117 0022 0000     		.section	.bss.temp,"aw",%nobits
 3118              		.align	2
 3119              		.type	temp, %object
ARM GAS  /tmp/ccsMqF3p.s 			page 117


 3120              		.size	temp, 4
 3121              	temp:
 3122 0000 00000000 		.space	4
 3123              		.section	.data.pwmcfg1,"aw",%progbits
 3124              		.align	2
 3125              		.set	.LANCHOR0,. + 0
 3126              		.type	pwmcfg1, %object
 3127              		.size	pwmcfg1, 52
 3128              	pwmcfg1:
 3129 0000 10270000 		.word	10000
 3130 0004 F4010000 		.word	500
 3131 0008 00000000 		.word	pwmp2cb
 3132 000c 01000000 		.word	1
 3133 0010 00000000 		.word	pwmc2cb
 3134 0014 00000000 		.word	0
 3135 0018 00000000 		.word	0
 3136 001c 00000000 		.word	0
 3137 0020 00000000 		.word	0
 3138 0024 00000000 		.word	0
 3139 0028 00000000 		.word	0
 3140 002c 00000000 		.word	0
 3141 0030 00000000 		.word	0
 3142              		.section	.bss.PosCy,"aw",%nobits
 3143              		.align	2
 3144              		.set	.LANCHOR7,. + 0
 3145              		.type	PosCy, %object
 3146              		.size	PosCy, 4
 3147              	PosCy:
 3148 0000 00000000 		.space	4
 3149              		.section	.data.s,"aw",%progbits
 3150              		.set	.LANCHOR6,. + 0
 3151              		.type	s, %object
 3152              		.size	s, 1
 3153              	s:
 3154 0000 01       		.byte	1
 3155              		.section	.bss.PosCx,"aw",%nobits
 3156              		.align	2
 3157              		.set	.LANCHOR8,. + 0
 3158              		.type	PosCx, %object
 3159              		.size	PosCx, 4
 3160              	PosCx:
 3161 0000 00000000 		.space	4
 3162              		.text
 3163              	.Letext0:
 3164              		.file 3 "/usr/lib/gcc/arm-none-eabi/4.8.2/include/stddef.h"
 3165              		.file 4 "/usr/include/newlib/machine/_default_types.h"
 3166              		.file 5 "/usr/include/newlib/stdint.h"
 3167              		.file 6 "../os/common/ports/ARMCMx/compilers/GCC/chtypes.h"
 3168              		.file 7 "../os/rt/include/chsystypes.h"
 3169              		.file 8 "../os/rt/include/chschd.h"
 3170              		.file 9 "../os/common/ext/CMSIS/ST/STM32F1xx/stm32f100xb.h"
 3171              		.file 10 "../os/common/ports/ARMCMx/chcore.h"
 3172              		.file 11 "../os/common/ports/ARMCMx/chcore_v7m.h"
 3173              		.file 12 "../os/hal/ports/STM32/LLD/TIMv1/stm32_tim.h"
 3174              		.file 13 "../os/rt/include/chsem.h"
 3175              		.file 14 "../os/rt/include/chmtx.h"
 3176              		.file 15 "../os/rt/include/chthreads.h"
ARM GAS  /tmp/ccsMqF3p.s 			page 118


 3177              		.file 16 "../os/rt/include/chevents.h"
 3178              		.file 17 "../os/hal/include/hal_streams.h"
 3179              		.file 18 "../os/hal/include/hal_queues.h"
 3180              		.file 19 "../os/hal/ports/STM32/LLD/GPIOv1/hal_pal_lld.h"
 3181              		.file 20 "../os/hal/include/hal_pwm.h"
 3182              		.file 21 "../os/hal/ports/STM32/LLD/TIMv1/hal_pwm_lld.h"
 3183              		.file 22 "../os/hal/include/hal_serial.h"
 3184              		.file 23 "../os/hal/ports/STM32/LLD/USARTv1/hal_serial_lld.h"
 3185              		.file 24 "../os/common/ext/CMSIS/include/core_cm3.h"
 3186              		.file 25 "../os/hal/include/hal.h"
 3187              		.file 26 "../os/rt/include/chsys.h"
 3188              		.file 27 "../os/hal/lib/streams/chprintf.h"
 3189              		.section	.debug_info,"",%progbits
 3190              	.Ldebug_info0:
 3191 0000 B31E0000 		.4byte	0x1eb3
 3192 0004 0400     		.2byte	0x4
 3193 0006 00000000 		.4byte	.Ldebug_abbrev0
 3194 000a 04       		.byte	0x4
 3195 000b 01       		.uleb128 0x1
 3196 000c 63070000 		.4byte	.LASF200
 3197 0010 01       		.byte	0x1
 3198 0011 15070000 		.4byte	.LASF201
 3199 0015 92020000 		.4byte	.LASF202
 3200 0019 00000000 		.4byte	.Ldebug_ranges0+0
 3201 001d 00000000 		.4byte	0
 3202 0021 00000000 		.4byte	.Ldebug_line0
 3203 0025 02       		.uleb128 0x2
 3204 0026 04       		.byte	0x4
 3205 0027 05       		.byte	0x5
 3206 0028 696E7400 		.ascii	"int\000"
 3207 002c 03       		.uleb128 0x3
 3208 002d 27000000 		.4byte	.LASF2
 3209 0031 03       		.byte	0x3
 3210 0032 D4       		.byte	0xd4
 3211 0033 37000000 		.4byte	0x37
 3212 0037 04       		.uleb128 0x4
 3213 0038 04       		.byte	0x4
 3214 0039 07       		.byte	0x7
 3215 003a CD010000 		.4byte	.LASF0
 3216 003e 04       		.uleb128 0x4
 3217 003f 01       		.byte	0x1
 3218 0040 06       		.byte	0x6
 3219 0041 54010000 		.4byte	.LASF1
 3220 0045 03       		.uleb128 0x3
 3221 0046 49000000 		.4byte	.LASF3
 3222 004a 04       		.byte	0x4
 3223 004b 1C       		.byte	0x1c
 3224 004c 50000000 		.4byte	0x50
 3225 0050 04       		.uleb128 0x4
 3226 0051 01       		.byte	0x1
 3227 0052 08       		.byte	0x8
 3228 0053 04050000 		.4byte	.LASF4
 3229 0057 04       		.uleb128 0x4
 3230 0058 02       		.byte	0x2
 3231 0059 05       		.byte	0x5
 3232 005a 20050000 		.4byte	.LASF5
 3233 005e 03       		.uleb128 0x3
ARM GAS  /tmp/ccsMqF3p.s 			page 119


 3234 005f 0A060000 		.4byte	.LASF6
 3235 0063 04       		.byte	0x4
 3236 0064 26       		.byte	0x26
 3237 0065 69000000 		.4byte	0x69
 3238 0069 04       		.uleb128 0x4
 3239 006a 02       		.byte	0x2
 3240 006b 07       		.byte	0x7
 3241 006c 9B060000 		.4byte	.LASF7
 3242 0070 03       		.uleb128 0x3
 3243 0071 97000000 		.4byte	.LASF8
 3244 0075 04       		.byte	0x4
 3245 0076 37       		.byte	0x37
 3246 0077 7B000000 		.4byte	0x7b
 3247 007b 04       		.uleb128 0x4
 3248 007c 04       		.byte	0x4
 3249 007d 05       		.byte	0x5
 3250 007e BB010000 		.4byte	.LASF9
 3251 0082 03       		.uleb128 0x3
 3252 0083 2F020000 		.4byte	.LASF10
 3253 0087 04       		.byte	0x4
 3254 0088 38       		.byte	0x38
 3255 0089 8D000000 		.4byte	0x8d
 3256 008d 04       		.uleb128 0x4
 3257 008e 04       		.byte	0x4
 3258 008f 07       		.byte	0x7
 3259 0090 E7050000 		.4byte	.LASF11
 3260 0094 04       		.uleb128 0x4
 3261 0095 08       		.byte	0x8
 3262 0096 05       		.byte	0x5
 3263 0097 DF010000 		.4byte	.LASF12
 3264 009b 03       		.uleb128 0x3
 3265 009c 88040000 		.4byte	.LASF13
 3266 00a0 04       		.byte	0x4
 3267 00a1 4E       		.byte	0x4e
 3268 00a2 A6000000 		.4byte	0xa6
 3269 00a6 04       		.uleb128 0x4
 3270 00a7 08       		.byte	0x8
 3271 00a8 07       		.byte	0x7
 3272 00a9 B1000000 		.4byte	.LASF14
 3273 00ad 03       		.uleb128 0x3
 3274 00ae 51070000 		.4byte	.LASF15
 3275 00b2 05       		.byte	0x5
 3276 00b3 2A       		.byte	0x2a
 3277 00b4 45000000 		.4byte	0x45
 3278 00b8 03       		.uleb128 0x3
 3279 00b9 FC010000 		.4byte	.LASF16
 3280 00bd 05       		.byte	0x5
 3281 00be 36       		.byte	0x36
 3282 00bf 5E000000 		.4byte	0x5e
 3283 00c3 03       		.uleb128 0x3
 3284 00c4 FC040000 		.4byte	.LASF17
 3285 00c8 05       		.byte	0x5
 3286 00c9 41       		.byte	0x41
 3287 00ca 70000000 		.4byte	0x70
 3288 00ce 03       		.uleb128 0x3
 3289 00cf 75080000 		.4byte	.LASF18
 3290 00d3 05       		.byte	0x5
ARM GAS  /tmp/ccsMqF3p.s 			page 120


 3291 00d4 42       		.byte	0x42
 3292 00d5 82000000 		.4byte	0x82
 3293 00d9 03       		.uleb128 0x3
 3294 00da 40000000 		.4byte	.LASF19
 3295 00de 05       		.byte	0x5
 3296 00df 4E       		.byte	0x4e
 3297 00e0 9B000000 		.4byte	0x9b
 3298 00e4 03       		.uleb128 0x3
 3299 00e5 3E080000 		.4byte	.LASF20
 3300 00e9 06       		.byte	0x6
 3301 00ea 3C       		.byte	0x3c
 3302 00eb AD000000 		.4byte	0xad
 3303 00ef 03       		.uleb128 0x3
 3304 00f0 C4010000 		.4byte	.LASF21
 3305 00f4 06       		.byte	0x6
 3306 00f5 3D       		.byte	0x3d
 3307 00f6 AD000000 		.4byte	0xad
 3308 00fa 03       		.uleb128 0x3
 3309 00fb AA040000 		.4byte	.LASF22
 3310 00ff 06       		.byte	0x6
 3311 0100 3E       		.byte	0x3e
 3312 0101 AD000000 		.4byte	0xad
 3313 0105 03       		.uleb128 0x3
 3314 0106 D6040000 		.4byte	.LASF23
 3315 010a 06       		.byte	0x6
 3316 010b 40       		.byte	0x40
 3317 010c CE000000 		.4byte	0xce
 3318 0110 03       		.uleb128 0x3
 3319 0111 50030000 		.4byte	.LASF24
 3320 0115 06       		.byte	0x6
 3321 0116 41       		.byte	0x41
 3322 0117 C3000000 		.4byte	0xc3
 3323 011b 03       		.uleb128 0x3
 3324 011c AE030000 		.4byte	.LASF25
 3325 0120 06       		.byte	0x6
 3326 0121 43       		.byte	0x43
 3327 0122 CE000000 		.4byte	0xce
 3328 0126 03       		.uleb128 0x3
 3329 0127 08070000 		.4byte	.LASF26
 3330 012b 06       		.byte	0x6
 3331 012c 44       		.byte	0x44
 3332 012d CE000000 		.4byte	0xce
 3333 0131 03       		.uleb128 0x3
 3334 0132 86020000 		.4byte	.LASF27
 3335 0136 06       		.byte	0x6
 3336 0137 45       		.byte	0x45
 3337 0138 C3000000 		.4byte	0xc3
 3338 013c 03       		.uleb128 0x3
 3339 013d 3D060000 		.4byte	.LASF28
 3340 0141 07       		.byte	0x7
 3341 0142 35       		.byte	0x35
 3342 0143 B8000000 		.4byte	0xb8
 3343 0147 03       		.uleb128 0x3
 3344 0148 34060000 		.4byte	.LASF29
 3345 014c 07       		.byte	0x7
 3346 014d 3F       		.byte	0x3f
 3347 014e 52010000 		.4byte	0x152
ARM GAS  /tmp/ccsMqF3p.s 			page 121


 3348 0152 05       		.uleb128 0x5
 3349 0153 1A030000 		.4byte	.LASF47
 3350 0157 44       		.byte	0x44
 3351 0158 08       		.byte	0x8
 3352 0159 9A       		.byte	0x9a
 3353 015a 30020000 		.4byte	0x230
 3354 015e 06       		.uleb128 0x6
 3355 015f 2E030000 		.4byte	.LASF30
 3356 0163 08       		.byte	0x8
 3357 0164 9B       		.byte	0x9b
 3358 0165 65020000 		.4byte	0x265
 3359 0169 00       		.byte	0
 3360 016a 06       		.uleb128 0x6
 3361 016b 64040000 		.4byte	.LASF31
 3362 016f 08       		.byte	0x8
 3363 0170 9C       		.byte	0x9c
 3364 0171 05010000 		.4byte	0x105
 3365 0175 08       		.byte	0x8
 3366 0176 07       		.uleb128 0x7
 3367 0177 63747800 		.ascii	"ctx\000"
 3368 017b 08       		.byte	0x8
 3369 017c 9D       		.byte	0x9d
 3370 017d 56050000 		.4byte	0x556
 3371 0181 0C       		.byte	0xc
 3372 0182 06       		.uleb128 0x6
 3373 0183 02070000 		.4byte	.LASF32
 3374 0187 08       		.byte	0x8
 3375 0188 9F       		.byte	0x9f
 3376 0189 3B020000 		.4byte	0x23b
 3377 018d 10       		.byte	0x10
 3378 018e 06       		.uleb128 0x6
 3379 018f 1B020000 		.4byte	.LASF33
 3380 0193 08       		.byte	0x8
 3381 0194 A0       		.byte	0xa0
 3382 0195 3B020000 		.4byte	0x23b
 3383 0199 14       		.byte	0x14
 3384 019a 06       		.uleb128 0x6
 3385 019b 29030000 		.4byte	.LASF34
 3386 019f 08       		.byte	0x8
 3387 01a0 A7       		.byte	0xa7
 3388 01a1 DD070000 		.4byte	0x7dd
 3389 01a5 18       		.byte	0x18
 3390 01a6 06       		.uleb128 0x6
 3391 01a7 F9050000 		.4byte	.LASF35
 3392 01ab 08       		.byte	0x8
 3393 01ac B0       		.byte	0xb0
 3394 01ad EF070000 		.4byte	0x7ef
 3395 01b1 1C       		.byte	0x1c
 3396 01b2 06       		.uleb128 0x6
 3397 01b3 AC010000 		.4byte	.LASF36
 3398 01b7 08       		.byte	0x8
 3399 01b8 B5       		.byte	0xb5
 3400 01b9 EF000000 		.4byte	0xef
 3401 01bd 20       		.byte	0x20
 3402 01be 06       		.uleb128 0x6
 3403 01bf 06080000 		.4byte	.LASF37
 3404 01c3 08       		.byte	0x8
ARM GAS  /tmp/ccsMqF3p.s 			page 122


 3405 01c4 B9       		.byte	0xb9
 3406 01c5 E4000000 		.4byte	0xe4
 3407 01c9 21       		.byte	0x21
 3408 01ca 06       		.uleb128 0x6
 3409 01cb 1B050000 		.4byte	.LASF38
 3410 01cf 08       		.byte	0x8
 3411 01d0 BE       		.byte	0xbe
 3412 01d1 FA000000 		.4byte	0xfa
 3413 01d5 22       		.byte	0x22
 3414 01d6 08       		.uleb128 0x8
 3415 01d7 7500     		.ascii	"u\000"
 3416 01d9 08       		.byte	0x8
 3417 01da 0F01     		.2byte	0x10f
 3418 01dc 12070000 		.4byte	0x712
 3419 01e0 24       		.byte	0x24
 3420 01e1 09       		.uleb128 0x9
 3421 01e2 43020000 		.4byte	.LASF39
 3422 01e6 08       		.byte	0x8
 3423 01e7 1401     		.2byte	0x114
 3424 01e9 41020000 		.4byte	0x241
 3425 01ed 28       		.byte	0x28
 3426 01ee 09       		.uleb128 0x9
 3427 01ef A3010000 		.4byte	.LASF40
 3428 01f3 08       		.byte	0x8
 3429 01f4 1A01     		.2byte	0x11a
 3430 01f6 65020000 		.4byte	0x265
 3431 01fa 2C       		.byte	0x2c
 3432 01fb 09       		.uleb128 0x9
 3433 01fc 5B030000 		.4byte	.LASF41
 3434 0200 08       		.byte	0x8
 3435 0201 2001     		.2byte	0x120
 3436 0203 1B010000 		.4byte	0x11b
 3437 0207 34       		.byte	0x34
 3438 0208 09       		.uleb128 0x9
 3439 0209 51080000 		.4byte	.LASF42
 3440 020d 08       		.byte	0x8
 3441 020e 2701     		.2byte	0x127
 3442 0210 D7070000 		.4byte	0x7d7
 3443 0214 38       		.byte	0x38
 3444 0215 09       		.uleb128 0x9
 3445 0216 DE050000 		.4byte	.LASF43
 3446 021a 08       		.byte	0x8
 3447 021b 2B01     		.2byte	0x12b
 3448 021d 05010000 		.4byte	0x105
 3449 0221 3C       		.byte	0x3c
 3450 0222 09       		.uleb128 0x9
 3451 0223 34030000 		.4byte	.LASF44
 3452 0227 08       		.byte	0x8
 3453 0228 3201     		.2byte	0x132
 3454 022a 18030000 		.4byte	0x318
 3455 022e 40       		.byte	0x40
 3456 022f 00       		.byte	0
 3457 0230 03       		.uleb128 0x3
 3458 0231 03040000 		.4byte	.LASF45
 3459 0235 07       		.byte	0x7
 3460 0236 44       		.byte	0x44
 3461 0237 3B020000 		.4byte	0x23b
ARM GAS  /tmp/ccsMqF3p.s 			page 123


 3462 023b 0A       		.uleb128 0xa
 3463 023c 04       		.byte	0x4
 3464 023d 47010000 		.4byte	0x147
 3465 0241 03       		.uleb128 0x3
 3466 0242 2F080000 		.4byte	.LASF46
 3467 0246 07       		.byte	0x7
 3468 0247 49       		.byte	0x49
 3469 0248 4C020000 		.4byte	0x24c
 3470 024c 05       		.uleb128 0x5
 3471 024d A1000000 		.4byte	.LASF48
 3472 0251 04       		.byte	0x4
 3473 0252 08       		.byte	0x8
 3474 0253 88       		.byte	0x88
 3475 0254 65020000 		.4byte	0x265
 3476 0258 06       		.uleb128 0x6
 3477 0259 2E000000 		.4byte	.LASF49
 3478 025d 08       		.byte	0x8
 3479 025e 89       		.byte	0x89
 3480 025f 3B020000 		.4byte	0x23b
 3481 0263 00       		.byte	0
 3482 0264 00       		.byte	0
 3483 0265 03       		.uleb128 0x3
 3484 0266 67050000 		.4byte	.LASF50
 3485 026a 07       		.byte	0x7
 3486 026b 50       		.byte	0x50
 3487 026c 70020000 		.4byte	0x270
 3488 0270 05       		.uleb128 0x5
 3489 0271 60000000 		.4byte	.LASF51
 3490 0275 08       		.byte	0x8
 3491 0276 08       		.byte	0x8
 3492 0277 8F       		.byte	0x8f
 3493 0278 95020000 		.4byte	0x295
 3494 027c 06       		.uleb128 0x6
 3495 027d 2E000000 		.4byte	.LASF49
 3496 0281 08       		.byte	0x8
 3497 0282 90       		.byte	0x90
 3498 0283 3B020000 		.4byte	0x23b
 3499 0287 00       		.byte	0
 3500 0288 06       		.uleb128 0x6
 3501 0289 53000000 		.4byte	.LASF52
 3502 028d 08       		.byte	0x8
 3503 028e 91       		.byte	0x91
 3504 028f 3B020000 		.4byte	0x23b
 3505 0293 04       		.byte	0x4
 3506 0294 00       		.byte	0
 3507 0295 03       		.uleb128 0x3
 3508 0296 15000000 		.4byte	.LASF53
 3509 029a 07       		.byte	0x7
 3510 029b 57       		.byte	0x57
 3511 029c A0020000 		.4byte	0x2a0
 3512 02a0 0B       		.uleb128 0xb
 3513 02a1 A0030000 		.4byte	.LASF54
 3514 02a5 1C       		.byte	0x1c
 3515 02a6 08       		.byte	0x8
 3516 02a7 6A01     		.2byte	0x16a
 3517 02a9 FC020000 		.4byte	0x2fc
 3518 02ad 09       		.uleb128 0x9
ARM GAS  /tmp/ccsMqF3p.s 			page 124


 3519 02ae 2E030000 		.4byte	.LASF30
 3520 02b2 08       		.byte	0x8
 3521 02b3 6B01     		.2byte	0x16b
 3522 02b5 65020000 		.4byte	0x265
 3523 02b9 00       		.byte	0
 3524 02ba 09       		.uleb128 0x9
 3525 02bb 64040000 		.4byte	.LASF31
 3526 02bf 08       		.byte	0x8
 3527 02c0 6C01     		.2byte	0x16c
 3528 02c2 05010000 		.4byte	0x105
 3529 02c6 08       		.byte	0x8
 3530 02c7 08       		.uleb128 0x8
 3531 02c8 63747800 		.ascii	"ctx\000"
 3532 02cc 08       		.byte	0x8
 3533 02cd 6E01     		.2byte	0x16e
 3534 02cf 56050000 		.4byte	0x556
 3535 02d3 0C       		.byte	0xc
 3536 02d4 09       		.uleb128 0x9
 3537 02d5 02070000 		.4byte	.LASF32
 3538 02d9 08       		.byte	0x8
 3539 02da 7101     		.2byte	0x171
 3540 02dc 3B020000 		.4byte	0x23b
 3541 02e0 10       		.byte	0x10
 3542 02e1 09       		.uleb128 0x9
 3543 02e2 1B020000 		.4byte	.LASF33
 3544 02e6 08       		.byte	0x8
 3545 02e7 7201     		.2byte	0x172
 3546 02e9 3B020000 		.4byte	0x23b
 3547 02ed 14       		.byte	0x14
 3548 02ee 09       		.uleb128 0x9
 3549 02ef 27020000 		.4byte	.LASF55
 3550 02f3 08       		.byte	0x8
 3551 02f4 7501     		.2byte	0x175
 3552 02f6 3B020000 		.4byte	0x23b
 3553 02fa 18       		.byte	0x18
 3554 02fb 00       		.byte	0
 3555 02fc 03       		.uleb128 0x3
 3556 02fd 47060000 		.4byte	.LASF56
 3557 0301 07       		.byte	0x7
 3558 0302 5C       		.byte	0x5c
 3559 0303 07030000 		.4byte	0x307
 3560 0307 0A       		.uleb128 0xa
 3561 0308 04       		.byte	0x4
 3562 0309 0D030000 		.4byte	0x30d
 3563 030d 0C       		.uleb128 0xc
 3564 030e 18030000 		.4byte	0x318
 3565 0312 0D       		.uleb128 0xd
 3566 0313 18030000 		.4byte	0x318
 3567 0317 00       		.byte	0
 3568 0318 0E       		.uleb128 0xe
 3569 0319 04       		.byte	0x4
 3570 031a 03       		.uleb128 0x3
 3571 031b BE040000 		.4byte	.LASF57
 3572 031f 07       		.byte	0x7
 3573 0320 61       		.byte	0x61
 3574 0321 25030000 		.4byte	0x325
 3575 0325 0B       		.uleb128 0xb
ARM GAS  /tmp/ccsMqF3p.s 			page 125


 3576 0326 C4060000 		.4byte	.LASF58
 3577 032a 14       		.byte	0x14
 3578 032b 08       		.byte	0x8
 3579 032c 4501     		.2byte	0x145
 3580 032e 74030000 		.4byte	0x374
 3581 0332 09       		.uleb128 0x9
 3582 0333 2E000000 		.4byte	.LASF49
 3583 0337 08       		.byte	0x8
 3584 0338 4601     		.2byte	0x146
 3585 033a F5070000 		.4byte	0x7f5
 3586 033e 00       		.byte	0
 3587 033f 09       		.uleb128 0x9
 3588 0340 53000000 		.4byte	.LASF52
 3589 0344 08       		.byte	0x8
 3590 0345 4701     		.2byte	0x147
 3591 0347 F5070000 		.4byte	0x7f5
 3592 034b 04       		.byte	0x4
 3593 034c 09       		.uleb128 0x9
 3594 034d 33000000 		.4byte	.LASF59
 3595 0351 08       		.byte	0x8
 3596 0352 4801     		.2byte	0x148
 3597 0354 3C010000 		.4byte	0x13c
 3598 0358 08       		.byte	0x8
 3599 0359 09       		.uleb128 0x9
 3600 035a 0A010000 		.4byte	.LASF60
 3601 035e 08       		.byte	0x8
 3602 035f 4901     		.2byte	0x149
 3603 0361 FC020000 		.4byte	0x2fc
 3604 0365 0C       		.byte	0xc
 3605 0366 08       		.uleb128 0x8
 3606 0367 70617200 		.ascii	"par\000"
 3607 036b 08       		.byte	0x8
 3608 036c 4B01     		.2byte	0x14b
 3609 036e 18030000 		.4byte	0x318
 3610 0372 10       		.byte	0x10
 3611 0373 00       		.byte	0
 3612 0374 03       		.uleb128 0x3
 3613 0375 E7000000 		.4byte	.LASF61
 3614 0379 07       		.byte	0x7
 3615 037a 66       		.byte	0x66
 3616 037b 7F030000 		.4byte	0x37f
 3617 037f 0B       		.uleb128 0xb
 3618 0380 1F040000 		.4byte	.LASF62
 3619 0384 0C       		.byte	0xc
 3620 0385 08       		.byte	0x8
 3621 0386 5501     		.2byte	0x155
 3622 0388 C1030000 		.4byte	0x3c1
 3623 038c 09       		.uleb128 0x9
 3624 038d 2E000000 		.4byte	.LASF49
 3625 0391 08       		.byte	0x8
 3626 0392 5601     		.2byte	0x156
 3627 0394 F5070000 		.4byte	0x7f5
 3628 0398 00       		.byte	0
 3629 0399 09       		.uleb128 0x9
 3630 039a 53000000 		.4byte	.LASF52
 3631 039e 08       		.byte	0x8
 3632 039f 5801     		.2byte	0x158
ARM GAS  /tmp/ccsMqF3p.s 			page 126


 3633 03a1 F5070000 		.4byte	0x7f5
 3634 03a5 04       		.byte	0x4
 3635 03a6 09       		.uleb128 0x9
 3636 03a7 33000000 		.4byte	.LASF59
 3637 03ab 08       		.byte	0x8
 3638 03ac 5A01     		.2byte	0x15a
 3639 03ae 3C010000 		.4byte	0x13c
 3640 03b2 08       		.byte	0x8
 3641 03b3 09       		.uleb128 0x9
 3642 03b4 2A050000 		.4byte	.LASF63
 3643 03b8 08       		.byte	0x8
 3644 03b9 6201     		.2byte	0x162
 3645 03bb 3C010000 		.4byte	0x13c
 3646 03bf 0A       		.byte	0xa
 3647 03c0 00       		.byte	0
 3648 03c1 03       		.uleb128 0x3
 3649 03c2 71000000 		.4byte	.LASF64
 3650 03c6 07       		.byte	0x7
 3651 03c7 6B       		.byte	0x6b
 3652 03c8 CC030000 		.4byte	0x3cc
 3653 03cc 0B       		.uleb128 0xb
 3654 03cd E6040000 		.4byte	.LASF65
 3655 03d1 04       		.byte	0x4
 3656 03d2 08       		.byte	0x8
 3657 03d3 7C01     		.2byte	0x17c
 3658 03d5 E7030000 		.4byte	0x3e7
 3659 03d9 09       		.uleb128 0x9
 3660 03da 75060000 		.4byte	.LASF66
 3661 03de 08       		.byte	0x8
 3662 03df 8401     		.2byte	0x184
 3663 03e1 FB070000 		.4byte	0x7fb
 3664 03e5 00       		.byte	0
 3665 03e6 00       		.byte	0
 3666 03e7 03       		.uleb128 0x3
 3667 03e8 64030000 		.4byte	.LASF67
 3668 03ec 07       		.byte	0x7
 3669 03ed 70       		.byte	0x70
 3670 03ee F2030000 		.4byte	0x3f2
 3671 03f2 0B       		.uleb128 0xb
 3672 03f3 53050000 		.4byte	.LASF68
 3673 03f7 70       		.byte	0x70
 3674 03f8 08       		.byte	0x8
 3675 03f9 9C01     		.2byte	0x19c
 3676 03fb 34040000 		.4byte	0x434
 3677 03ff 09       		.uleb128 0x9
 3678 0400 3E070000 		.4byte	.LASF69
 3679 0404 08       		.byte	0x8
 3680 0405 A001     		.2byte	0x1a0
 3681 0407 95020000 		.4byte	0x295
 3682 040b 00       		.byte	0
 3683 040c 09       		.uleb128 0x9
 3684 040d 8A010000 		.4byte	.LASF70
 3685 0411 08       		.byte	0x8
 3686 0412 A401     		.2byte	0x1a4
 3687 0414 74030000 		.4byte	0x374
 3688 0418 1C       		.byte	0x1c
 3689 0419 08       		.uleb128 0x8
ARM GAS  /tmp/ccsMqF3p.s 			page 127


 3690 041a 64626700 		.ascii	"dbg\000"
 3691 041e 08       		.byte	0x8
 3692 041f A801     		.2byte	0x1a8
 3693 0421 C1030000 		.4byte	0x3c1
 3694 0425 28       		.byte	0x28
 3695 0426 09       		.uleb128 0x9
 3696 0427 45030000 		.4byte	.LASF71
 3697 042b 08       		.byte	0x8
 3698 042c AC01     		.2byte	0x1ac
 3699 042e 47010000 		.4byte	0x147
 3700 0432 2C       		.byte	0x2c
 3701 0433 00       		.byte	0
 3702 0434 04       		.uleb128 0x4
 3703 0435 04       		.byte	0x4
 3704 0436 07       		.byte	0x7
 3705 0437 FA030000 		.4byte	.LASF72
 3706 043b 0F       		.uleb128 0xf
 3707 043c CE000000 		.4byte	0xce
 3708 0440 10       		.uleb128 0x10
 3709 0441 CE000000 		.4byte	0xce
 3710 0445 50040000 		.4byte	0x450
 3711 0449 11       		.uleb128 0x11
 3712 044a 34040000 		.4byte	0x434
 3713 044e 01       		.byte	0x1
 3714 044f 00       		.byte	0
 3715 0450 10       		.uleb128 0x10
 3716 0451 CE000000 		.4byte	0xce
 3717 0455 60040000 		.4byte	0x460
 3718 0459 11       		.uleb128 0x11
 3719 045a 34040000 		.4byte	0x434
 3720 045e 03       		.byte	0x3
 3721 045f 00       		.byte	0
 3722 0460 12       		.uleb128 0x12
 3723 0461 1C       		.byte	0x1c
 3724 0462 09       		.byte	0x9
 3725 0463 5B01     		.2byte	0x15b
 3726 0465 C5040000 		.4byte	0x4c5
 3727 0469 08       		.uleb128 0x8
 3728 046a 43524C00 		.ascii	"CRL\000"
 3729 046e 09       		.byte	0x9
 3730 046f 5D01     		.2byte	0x15d
 3731 0471 3B040000 		.4byte	0x43b
 3732 0475 00       		.byte	0
 3733 0476 08       		.uleb128 0x8
 3734 0477 43524800 		.ascii	"CRH\000"
 3735 047b 09       		.byte	0x9
 3736 047c 5E01     		.2byte	0x15e
 3737 047e 3B040000 		.4byte	0x43b
 3738 0482 04       		.byte	0x4
 3739 0483 08       		.uleb128 0x8
 3740 0484 49445200 		.ascii	"IDR\000"
 3741 0488 09       		.byte	0x9
 3742 0489 5F01     		.2byte	0x15f
 3743 048b 3B040000 		.4byte	0x43b
 3744 048f 08       		.byte	0x8
 3745 0490 08       		.uleb128 0x8
 3746 0491 4F445200 		.ascii	"ODR\000"
ARM GAS  /tmp/ccsMqF3p.s 			page 128


 3747 0495 09       		.byte	0x9
 3748 0496 6001     		.2byte	0x160
 3749 0498 3B040000 		.4byte	0x43b
 3750 049c 0C       		.byte	0xc
 3751 049d 09       		.uleb128 0x9
 3752 049e 60010000 		.4byte	.LASF73
 3753 04a2 09       		.byte	0x9
 3754 04a3 6101     		.2byte	0x161
 3755 04a5 3B040000 		.4byte	0x43b
 3756 04a9 10       		.byte	0x10
 3757 04aa 08       		.uleb128 0x8
 3758 04ab 42525200 		.ascii	"BRR\000"
 3759 04af 09       		.byte	0x9
 3760 04b0 6201     		.2byte	0x162
 3761 04b2 3B040000 		.4byte	0x43b
 3762 04b6 14       		.byte	0x14
 3763 04b7 09       		.uleb128 0x9
 3764 04b8 56030000 		.4byte	.LASF74
 3765 04bc 09       		.byte	0x9
 3766 04bd 6301     		.2byte	0x163
 3767 04bf 3B040000 		.4byte	0x43b
 3768 04c3 18       		.byte	0x18
 3769 04c4 00       		.byte	0
 3770 04c5 13       		.uleb128 0x13
 3771 04c6 05030000 		.4byte	.LASF75
 3772 04ca 09       		.byte	0x9
 3773 04cb 6401     		.2byte	0x164
 3774 04cd 60040000 		.4byte	0x460
 3775 04d1 12       		.uleb128 0x12
 3776 04d2 1C       		.byte	0x1c
 3777 04d3 09       		.byte	0x9
 3778 04d4 0D02     		.2byte	0x20d
 3779 04d6 34050000 		.4byte	0x534
 3780 04da 08       		.uleb128 0x8
 3781 04db 535200   		.ascii	"SR\000"
 3782 04de 09       		.byte	0x9
 3783 04df 0F02     		.2byte	0x20f
 3784 04e1 3B040000 		.4byte	0x43b
 3785 04e5 00       		.byte	0
 3786 04e6 08       		.uleb128 0x8
 3787 04e7 445200   		.ascii	"DR\000"
 3788 04ea 09       		.byte	0x9
 3789 04eb 1002     		.2byte	0x210
 3790 04ed 3B040000 		.4byte	0x43b
 3791 04f1 04       		.byte	0x4
 3792 04f2 08       		.uleb128 0x8
 3793 04f3 42525200 		.ascii	"BRR\000"
 3794 04f7 09       		.byte	0x9
 3795 04f8 1102     		.2byte	0x211
 3796 04fa 3B040000 		.4byte	0x43b
 3797 04fe 08       		.byte	0x8
 3798 04ff 08       		.uleb128 0x8
 3799 0500 43523100 		.ascii	"CR1\000"
 3800 0504 09       		.byte	0x9
 3801 0505 1202     		.2byte	0x212
 3802 0507 3B040000 		.4byte	0x43b
 3803 050b 0C       		.byte	0xc
ARM GAS  /tmp/ccsMqF3p.s 			page 129


 3804 050c 08       		.uleb128 0x8
 3805 050d 43523200 		.ascii	"CR2\000"
 3806 0511 09       		.byte	0x9
 3807 0512 1302     		.2byte	0x213
 3808 0514 3B040000 		.4byte	0x43b
 3809 0518 10       		.byte	0x10
 3810 0519 08       		.uleb128 0x8
 3811 051a 43523300 		.ascii	"CR3\000"
 3812 051e 09       		.byte	0x9
 3813 051f 1402     		.2byte	0x214
 3814 0521 3B040000 		.4byte	0x43b
 3815 0525 14       		.byte	0x14
 3816 0526 09       		.uleb128 0x9
 3817 0527 6F010000 		.4byte	.LASF76
 3818 052b 09       		.byte	0x9
 3819 052c 1502     		.2byte	0x215
 3820 052e 3B040000 		.4byte	0x43b
 3821 0532 18       		.byte	0x18
 3822 0533 00       		.byte	0
 3823 0534 13       		.uleb128 0x13
 3824 0535 79030000 		.4byte	.LASF77
 3825 0539 09       		.byte	0x9
 3826 053a 1602     		.2byte	0x216
 3827 053c D1040000 		.4byte	0x4d1
 3828 0540 03       		.uleb128 0x3
 3829 0541 3A020000 		.4byte	.LASF78
 3830 0545 0A       		.byte	0xa
 3831 0546 65       		.byte	0x65
 3832 0547 18030000 		.4byte	0x318
 3833 054b 03       		.uleb128 0x3
 3834 054c C5030000 		.4byte	.LASF79
 3835 0550 0A       		.byte	0xa
 3836 0551 6D       		.byte	0x6d
 3837 0552 D9000000 		.4byte	0xd9
 3838 0556 05       		.uleb128 0x5
 3839 0557 57040000 		.4byte	.LASF80
 3840 055b 04       		.byte	0x4
 3841 055c 0A       		.byte	0xa
 3842 055d 89       		.byte	0x89
 3843 055e 6E050000 		.4byte	0x56e
 3844 0562 07       		.uleb128 0x7
 3845 0563 737000   		.ascii	"sp\000"
 3846 0566 0A       		.byte	0xa
 3847 0567 8A       		.byte	0x8a
 3848 0568 EA050000 		.4byte	0x5ea
 3849 056c 00       		.byte	0
 3850 056d 00       		.byte	0
 3851 056e 0B       		.uleb128 0xb
 3852 056f B2040000 		.4byte	.LASF81
 3853 0573 24       		.byte	0x24
 3854 0574 0B       		.byte	0xb
 3855 0575 5901     		.2byte	0x159
 3856 0577 EA050000 		.4byte	0x5ea
 3857 057b 08       		.uleb128 0x8
 3858 057c 723400   		.ascii	"r4\000"
 3859 057f 0B       		.byte	0xb
 3860 0580 6C01     		.2byte	0x16c
ARM GAS  /tmp/ccsMqF3p.s 			page 130


 3861 0582 40050000 		.4byte	0x540
 3862 0586 00       		.byte	0
 3863 0587 08       		.uleb128 0x8
 3864 0588 723500   		.ascii	"r5\000"
 3865 058b 0B       		.byte	0xb
 3866 058c 6D01     		.2byte	0x16d
 3867 058e 40050000 		.4byte	0x540
 3868 0592 04       		.byte	0x4
 3869 0593 08       		.uleb128 0x8
 3870 0594 723600   		.ascii	"r6\000"
 3871 0597 0B       		.byte	0xb
 3872 0598 6E01     		.2byte	0x16e
 3873 059a 40050000 		.4byte	0x540
 3874 059e 08       		.byte	0x8
 3875 059f 08       		.uleb128 0x8
 3876 05a0 723700   		.ascii	"r7\000"
 3877 05a3 0B       		.byte	0xb
 3878 05a4 6F01     		.2byte	0x16f
 3879 05a6 40050000 		.4byte	0x540
 3880 05aa 0C       		.byte	0xc
 3881 05ab 08       		.uleb128 0x8
 3882 05ac 723800   		.ascii	"r8\000"
 3883 05af 0B       		.byte	0xb
 3884 05b0 7001     		.2byte	0x170
 3885 05b2 40050000 		.4byte	0x540
 3886 05b6 10       		.byte	0x10
 3887 05b7 08       		.uleb128 0x8
 3888 05b8 723900   		.ascii	"r9\000"
 3889 05bb 0B       		.byte	0xb
 3890 05bc 7101     		.2byte	0x171
 3891 05be 40050000 		.4byte	0x540
 3892 05c2 14       		.byte	0x14
 3893 05c3 08       		.uleb128 0x8
 3894 05c4 72313000 		.ascii	"r10\000"
 3895 05c8 0B       		.byte	0xb
 3896 05c9 7201     		.2byte	0x172
 3897 05cb 40050000 		.4byte	0x540
 3898 05cf 18       		.byte	0x18
 3899 05d0 08       		.uleb128 0x8
 3900 05d1 72313100 		.ascii	"r11\000"
 3901 05d5 0B       		.byte	0xb
 3902 05d6 7301     		.2byte	0x173
 3903 05d8 40050000 		.4byte	0x540
 3904 05dc 1C       		.byte	0x1c
 3905 05dd 08       		.uleb128 0x8
 3906 05de 6C7200   		.ascii	"lr\000"
 3907 05e1 0B       		.byte	0xb
 3908 05e2 7401     		.2byte	0x174
 3909 05e4 40050000 		.4byte	0x540
 3910 05e8 20       		.byte	0x20
 3911 05e9 00       		.byte	0
 3912 05ea 0A       		.uleb128 0xa
 3913 05eb 04       		.byte	0x4
 3914 05ec 6E050000 		.4byte	0x56e
 3915 05f0 12       		.uleb128 0x12
 3916 05f1 60       		.byte	0x60
 3917 05f2 0C       		.byte	0xc
ARM GAS  /tmp/ccsMqF3p.s 			page 131


 3918 05f3 A101     		.2byte	0x1a1
 3919 05f5 FC060000 		.4byte	0x6fc
 3920 05f9 08       		.uleb128 0x8
 3921 05fa 43523100 		.ascii	"CR1\000"
 3922 05fe 0C       		.byte	0xc
 3923 05ff A201     		.2byte	0x1a2
 3924 0601 3B040000 		.4byte	0x43b
 3925 0605 00       		.byte	0
 3926 0606 08       		.uleb128 0x8
 3927 0607 43523200 		.ascii	"CR2\000"
 3928 060b 0C       		.byte	0xc
 3929 060c A301     		.2byte	0x1a3
 3930 060e 3B040000 		.4byte	0x43b
 3931 0612 04       		.byte	0x4
 3932 0613 09       		.uleb128 0x9
 3933 0614 40030000 		.4byte	.LASF82
 3934 0618 0C       		.byte	0xc
 3935 0619 A401     		.2byte	0x1a4
 3936 061b 3B040000 		.4byte	0x43b
 3937 061f 08       		.byte	0x8
 3938 0620 09       		.uleb128 0x9
 3939 0621 22000000 		.4byte	.LASF83
 3940 0625 0C       		.byte	0xc
 3941 0626 A501     		.2byte	0x1a5
 3942 0628 3B040000 		.4byte	0x43b
 3943 062c 0C       		.byte	0xc
 3944 062d 08       		.uleb128 0x8
 3945 062e 535200   		.ascii	"SR\000"
 3946 0631 0C       		.byte	0xc
 3947 0632 A601     		.2byte	0x1a6
 3948 0634 3B040000 		.4byte	0x43b
 3949 0638 10       		.byte	0x10
 3950 0639 08       		.uleb128 0x8
 3951 063a 45475200 		.ascii	"EGR\000"
 3952 063e 0C       		.byte	0xc
 3953 063f A701     		.2byte	0x1a7
 3954 0641 3B040000 		.4byte	0x43b
 3955 0645 14       		.byte	0x14
 3956 0646 09       		.uleb128 0x9
 3957 0647 42010000 		.4byte	.LASF84
 3958 064b 0C       		.byte	0xc
 3959 064c A801     		.2byte	0x1a8
 3960 064e 3B040000 		.4byte	0x43b
 3961 0652 18       		.byte	0x18
 3962 0653 09       		.uleb128 0x9
 3963 0654 48010000 		.4byte	.LASF85
 3964 0658 0C       		.byte	0xc
 3965 0659 A901     		.2byte	0x1a9
 3966 065b 3B040000 		.4byte	0x43b
 3967 065f 1C       		.byte	0x1c
 3968 0660 09       		.uleb128 0x9
 3969 0661 DA010000 		.4byte	.LASF86
 3970 0665 0C       		.byte	0xc
 3971 0666 AA01     		.2byte	0x1aa
 3972 0668 3B040000 		.4byte	0x43b
 3973 066c 20       		.byte	0x20
 3974 066d 08       		.uleb128 0x8
ARM GAS  /tmp/ccsMqF3p.s 			page 132


 3975 066e 434E5400 		.ascii	"CNT\000"
 3976 0672 0C       		.byte	0xc
 3977 0673 AB01     		.2byte	0x1ab
 3978 0675 3B040000 		.4byte	0x43b
 3979 0679 24       		.byte	0x24
 3980 067a 08       		.uleb128 0x8
 3981 067b 50534300 		.ascii	"PSC\000"
 3982 067f 0C       		.byte	0xc
 3983 0680 AC01     		.2byte	0x1ac
 3984 0682 3B040000 		.4byte	0x43b
 3985 0686 28       		.byte	0x28
 3986 0687 08       		.uleb128 0x8
 3987 0688 41525200 		.ascii	"ARR\000"
 3988 068c 0C       		.byte	0xc
 3989 068d AD01     		.2byte	0x1ad
 3990 068f 3B040000 		.4byte	0x43b
 3991 0693 2C       		.byte	0x2c
 3992 0694 08       		.uleb128 0x8
 3993 0695 52435200 		.ascii	"RCR\000"
 3994 0699 0C       		.byte	0xc
 3995 069a AE01     		.2byte	0x1ae
 3996 069c 3B040000 		.4byte	0x43b
 3997 06a0 30       		.byte	0x30
 3998 06a1 08       		.uleb128 0x8
 3999 06a2 43435200 		.ascii	"CCR\000"
 4000 06a6 0C       		.byte	0xc
 4001 06a7 AF01     		.2byte	0x1af
 4002 06a9 FC060000 		.4byte	0x6fc
 4003 06ad 34       		.byte	0x34
 4004 06ae 09       		.uleb128 0x9
 4005 06af 1A010000 		.4byte	.LASF87
 4006 06b3 0C       		.byte	0xc
 4007 06b4 B001     		.2byte	0x1b0
 4008 06b6 3B040000 		.4byte	0x43b
 4009 06ba 44       		.byte	0x44
 4010 06bb 08       		.uleb128 0x8
 4011 06bc 44435200 		.ascii	"DCR\000"
 4012 06c0 0C       		.byte	0xc
 4013 06c1 B101     		.2byte	0x1b1
 4014 06c3 3B040000 		.4byte	0x43b
 4015 06c7 48       		.byte	0x48
 4016 06c8 09       		.uleb128 0x9
 4017 06c9 2F060000 		.4byte	.LASF88
 4018 06cd 0C       		.byte	0xc
 4019 06ce B201     		.2byte	0x1b2
 4020 06d0 3B040000 		.4byte	0x43b
 4021 06d4 4C       		.byte	0x4c
 4022 06d5 08       		.uleb128 0x8
 4023 06d6 4F5200   		.ascii	"OR\000"
 4024 06d9 0C       		.byte	0xc
 4025 06da B301     		.2byte	0x1b3
 4026 06dc 3B040000 		.4byte	0x43b
 4027 06e0 50       		.byte	0x50
 4028 06e1 09       		.uleb128 0x9
 4029 06e2 4E010000 		.4byte	.LASF89
 4030 06e6 0C       		.byte	0xc
 4031 06e7 B401     		.2byte	0x1b4
ARM GAS  /tmp/ccsMqF3p.s 			page 133


 4032 06e9 3B040000 		.4byte	0x43b
 4033 06ed 54       		.byte	0x54
 4034 06ee 09       		.uleb128 0x9
 4035 06ef 84050000 		.4byte	.LASF90
 4036 06f3 0C       		.byte	0xc
 4037 06f4 B501     		.2byte	0x1b5
 4038 06f6 01070000 		.4byte	0x701
 4039 06fa 58       		.byte	0x58
 4040 06fb 00       		.byte	0
 4041 06fc 0F       		.uleb128 0xf
 4042 06fd 50040000 		.4byte	0x450
 4043 0701 0F       		.uleb128 0xf
 4044 0702 40040000 		.4byte	0x440
 4045 0706 13       		.uleb128 0x13
 4046 0707 8E030000 		.4byte	.LASF91
 4047 070b 0C       		.byte	0xc
 4048 070c B601     		.2byte	0x1b6
 4049 070e F0050000 		.4byte	0x5f0
 4050 0712 14       		.uleb128 0x14
 4051 0713 04       		.byte	0x4
 4052 0714 08       		.byte	0x8
 4053 0715 D2       		.byte	0xd2
 4054 0716 75070000 		.4byte	0x775
 4055 071a 15       		.uleb128 0x15
 4056 071b 39000000 		.4byte	.LASF92
 4057 071f 08       		.byte	0x8
 4058 0720 D9       		.byte	0xd9
 4059 0721 10010000 		.4byte	0x110
 4060 0725 15       		.uleb128 0x15
 4061 0726 CF000000 		.4byte	.LASF93
 4062 072a 08       		.byte	0x8
 4063 072b E0       		.byte	0xe0
 4064 072c 10010000 		.4byte	0x110
 4065 0730 15       		.uleb128 0x15
 4066 0731 28080000 		.4byte	.LASF94
 4067 0735 08       		.byte	0x8
 4068 0736 E7       		.byte	0xe7
 4069 0737 18030000 		.4byte	0x318
 4070 073b 15       		.uleb128 0x15
 4071 073c FF020000 		.4byte	.LASF95
 4072 0740 08       		.byte	0x8
 4073 0741 EE       		.byte	0xee
 4074 0742 75070000 		.4byte	0x775
 4075 0746 15       		.uleb128 0x15
 4076 0747 DF000000 		.4byte	.LASF96
 4077 074b 08       		.byte	0x8
 4078 074c F3       		.byte	0xf3
 4079 074d 10010000 		.4byte	0x110
 4080 0751 15       		.uleb128 0x15
 4081 0752 E9020000 		.4byte	.LASF97
 4082 0756 08       		.byte	0x8
 4083 0757 FC       		.byte	0xfc
 4084 0758 A0070000 		.4byte	0x7a0
 4085 075c 16       		.uleb128 0x16
 4086 075d B2050000 		.4byte	.LASF98
 4087 0761 08       		.byte	0x8
 4088 0762 0501     		.2byte	0x105
ARM GAS  /tmp/ccsMqF3p.s 			page 134


 4089 0764 D7070000 		.4byte	0x7d7
 4090 0768 16       		.uleb128 0x16
 4091 0769 39050000 		.4byte	.LASF99
 4092 076d 08       		.byte	0x8
 4093 076e 0D01     		.2byte	0x10d
 4094 0770 1B010000 		.4byte	0x11b
 4095 0774 00       		.byte	0
 4096 0775 0A       		.uleb128 0xa
 4097 0776 04       		.byte	0x4
 4098 0777 30020000 		.4byte	0x230
 4099 077b 05       		.uleb128 0x5
 4100 077c 77050000 		.4byte	.LASF100
 4101 0780 0C       		.byte	0xc
 4102 0781 0D       		.byte	0xd
 4103 0782 34       		.byte	0x34
 4104 0783 A0070000 		.4byte	0x7a0
 4105 0787 06       		.uleb128 0x6
 4106 0788 2E030000 		.4byte	.LASF30
 4107 078c 0D       		.byte	0xd
 4108 078d 35       		.byte	0x35
 4109 078e 65020000 		.4byte	0x265
 4110 0792 00       		.byte	0
 4111 0793 07       		.uleb128 0x7
 4112 0794 636E7400 		.ascii	"cnt\000"
 4113 0798 0D       		.byte	0xd
 4114 0799 37       		.byte	0x37
 4115 079a 31010000 		.4byte	0x131
 4116 079e 08       		.byte	0x8
 4117 079f 00       		.byte	0
 4118 07a0 0A       		.uleb128 0xa
 4119 07a1 04       		.byte	0x4
 4120 07a2 7B070000 		.4byte	0x77b
 4121 07a6 05       		.uleb128 0x5
 4122 07a7 2C070000 		.4byte	.LASF101
 4123 07ab 10       		.byte	0x10
 4124 07ac 0E       		.byte	0xe
 4125 07ad 39       		.byte	0x39
 4126 07ae D7070000 		.4byte	0x7d7
 4127 07b2 06       		.uleb128 0x6
 4128 07b3 2E030000 		.4byte	.LASF30
 4129 07b7 0E       		.byte	0xe
 4130 07b8 3A       		.byte	0x3a
 4131 07b9 65020000 		.4byte	0x265
 4132 07bd 00       		.byte	0
 4133 07be 06       		.uleb128 0x6
 4134 07bf CB050000 		.4byte	.LASF102
 4135 07c3 0E       		.byte	0xe
 4136 07c4 3C       		.byte	0x3c
 4137 07c5 3B020000 		.4byte	0x23b
 4138 07c9 08       		.byte	0x8
 4139 07ca 06       		.uleb128 0x6
 4140 07cb 2E000000 		.4byte	.LASF49
 4141 07cf 0E       		.byte	0xe
 4142 07d0 3E       		.byte	0x3e
 4143 07d1 16080000 		.4byte	0x816
 4144 07d5 0C       		.byte	0xc
 4145 07d6 00       		.byte	0
ARM GAS  /tmp/ccsMqF3p.s 			page 135


 4146 07d7 0A       		.uleb128 0xa
 4147 07d8 04       		.byte	0x4
 4148 07d9 A6070000 		.4byte	0x7a6
 4149 07dd 0A       		.uleb128 0xa
 4150 07de 04       		.byte	0x4
 4151 07df E3070000 		.4byte	0x7e3
 4152 07e3 17       		.uleb128 0x17
 4153 07e4 E8070000 		.4byte	0x7e8
 4154 07e8 04       		.uleb128 0x4
 4155 07e9 01       		.byte	0x1
 4156 07ea 08       		.byte	0x8
 4157 07eb 05060000 		.4byte	.LASF103
 4158 07ef 0A       		.uleb128 0xa
 4159 07f0 04       		.byte	0x4
 4160 07f1 4B050000 		.4byte	0x54b
 4161 07f5 0A       		.uleb128 0xa
 4162 07f6 04       		.byte	0x4
 4163 07f7 1A030000 		.4byte	0x31a
 4164 07fb 0F       		.uleb128 0xf
 4165 07fc DD070000 		.4byte	0x7dd
 4166 0800 03       		.uleb128 0x3
 4167 0801 00000000 		.4byte	.LASF104
 4168 0805 0F       		.byte	0xf
 4169 0806 40       		.byte	0x40
 4170 0807 07030000 		.4byte	0x307
 4171 080b 03       		.uleb128 0x3
 4172 080c 55020000 		.4byte	.LASF105
 4173 0810 0E       		.byte	0xe
 4174 0811 34       		.byte	0x34
 4175 0812 A6070000 		.4byte	0x7a6
 4176 0816 0A       		.uleb128 0xa
 4177 0817 04       		.byte	0x4
 4178 0818 0B080000 		.4byte	0x80b
 4179 081c 03       		.uleb128 0x3
 4180 081d 8A060000 		.4byte	.LASF106
 4181 0821 10       		.byte	0x10
 4182 0822 34       		.byte	0x34
 4183 0823 27080000 		.4byte	0x827
 4184 0827 05       		.uleb128 0x5
 4185 0828 7E080000 		.4byte	.LASF107
 4186 082c 14       		.byte	0x14
 4187 082d 10       		.byte	0x10
 4188 082e 39       		.byte	0x39
 4189 082f 70080000 		.4byte	0x870
 4190 0833 06       		.uleb128 0x6
 4191 0834 2E000000 		.4byte	.LASF49
 4192 0838 10       		.byte	0x10
 4193 0839 3A       		.byte	0x3a
 4194 083a 70080000 		.4byte	0x870
 4195 083e 00       		.byte	0
 4196 083f 06       		.uleb128 0x6
 4197 0840 93040000 		.4byte	.LASF108
 4198 0844 10       		.byte	0x10
 4199 0845 3D       		.byte	0x3d
 4200 0846 3B020000 		.4byte	0x23b
 4201 084a 04       		.byte	0x4
 4202 084b 06       		.uleb128 0x6
ARM GAS  /tmp/ccsMqF3p.s 			page 136


 4203 084c 93050000 		.4byte	.LASF109
 4204 0850 10       		.byte	0x10
 4205 0851 3F       		.byte	0x3f
 4206 0852 1B010000 		.4byte	0x11b
 4207 0856 08       		.byte	0x8
 4208 0857 06       		.uleb128 0x6
 4209 0858 06080000 		.4byte	.LASF37
 4210 085c 10       		.byte	0x10
 4211 085d 41       		.byte	0x41
 4212 085e 26010000 		.4byte	0x126
 4213 0862 0C       		.byte	0xc
 4214 0863 06       		.uleb128 0x6
 4215 0864 14020000 		.4byte	.LASF110
 4216 0868 10       		.byte	0x10
 4217 0869 43       		.byte	0x43
 4218 086a 26010000 		.4byte	0x126
 4219 086e 10       		.byte	0x10
 4220 086f 00       		.byte	0
 4221 0870 0A       		.uleb128 0xa
 4222 0871 04       		.byte	0x4
 4223 0872 1C080000 		.4byte	0x81c
 4224 0876 05       		.uleb128 0x5
 4225 0877 44070000 		.4byte	.LASF111
 4226 087b 04       		.byte	0x4
 4227 087c 10       		.byte	0x10
 4228 087d 4A       		.byte	0x4a
 4229 087e 8F080000 		.4byte	0x88f
 4230 0882 06       		.uleb128 0x6
 4231 0883 2E000000 		.4byte	.LASF49
 4232 0887 10       		.byte	0x10
 4233 0888 4B       		.byte	0x4b
 4234 0889 70080000 		.4byte	0x870
 4235 088d 00       		.byte	0
 4236 088e 00       		.byte	0
 4237 088f 03       		.uleb128 0x3
 4238 0890 77020000 		.4byte	.LASF112
 4239 0894 10       		.byte	0x10
 4240 0895 4E       		.byte	0x4e
 4241 0896 76080000 		.4byte	0x876
 4242 089a 04       		.uleb128 0x4
 4243 089b 01       		.byte	0x1
 4244 089c 02       		.byte	0x2
 4245 089d F6040000 		.4byte	.LASF113
 4246 08a1 0A       		.uleb128 0xa
 4247 08a2 04       		.byte	0x4
 4248 08a3 AD000000 		.4byte	0xad
 4249 08a7 05       		.uleb128 0x5
 4250 08a8 9A050000 		.4byte	.LASF114
 4251 08ac 10       		.byte	0x10
 4252 08ad 11       		.byte	0x11
 4253 08ae 46       		.byte	0x46
 4254 08af E4080000 		.4byte	0x8e4
 4255 08b3 06       		.uleb128 0x6
 4256 08b4 D8030000 		.4byte	.LASF115
 4257 08b8 11       		.byte	0x11
 4258 08b9 47       		.byte	0x47
 4259 08ba 08090000 		.4byte	0x908
ARM GAS  /tmp/ccsMqF3p.s 			page 137


 4260 08be 00       		.byte	0
 4261 08bf 06       		.uleb128 0x6
 4262 08c0 00060000 		.4byte	.LASF116
 4263 08c4 11       		.byte	0x11
 4264 08c5 47       		.byte	0x47
 4265 08c6 27090000 		.4byte	0x927
 4266 08ca 04       		.byte	0x4
 4267 08cb 07       		.uleb128 0x7
 4268 08cc 70757400 		.ascii	"put\000"
 4269 08d0 11       		.byte	0x11
 4270 08d1 47       		.byte	0x47
 4271 08d2 41090000 		.4byte	0x941
 4272 08d6 08       		.byte	0x8
 4273 08d7 07       		.uleb128 0x7
 4274 08d8 67657400 		.ascii	"get\000"
 4275 08dc 11       		.byte	0x11
 4276 08dd 47       		.byte	0x47
 4277 08de 56090000 		.4byte	0x956
 4278 08e2 0C       		.byte	0xc
 4279 08e3 00       		.byte	0
 4280 08e4 18       		.uleb128 0x18
 4281 08e5 2C000000 		.4byte	0x2c
 4282 08e9 FD080000 		.4byte	0x8fd
 4283 08ed 0D       		.uleb128 0xd
 4284 08ee 18030000 		.4byte	0x318
 4285 08f2 0D       		.uleb128 0xd
 4286 08f3 FD080000 		.4byte	0x8fd
 4287 08f7 0D       		.uleb128 0xd
 4288 08f8 2C000000 		.4byte	0x2c
 4289 08fc 00       		.byte	0
 4290 08fd 0A       		.uleb128 0xa
 4291 08fe 04       		.byte	0x4
 4292 08ff 03090000 		.4byte	0x903
 4293 0903 17       		.uleb128 0x17
 4294 0904 AD000000 		.4byte	0xad
 4295 0908 0A       		.uleb128 0xa
 4296 0909 04       		.byte	0x4
 4297 090a E4080000 		.4byte	0x8e4
 4298 090e 18       		.uleb128 0x18
 4299 090f 2C000000 		.4byte	0x2c
 4300 0913 27090000 		.4byte	0x927
 4301 0917 0D       		.uleb128 0xd
 4302 0918 18030000 		.4byte	0x318
 4303 091c 0D       		.uleb128 0xd
 4304 091d A1080000 		.4byte	0x8a1
 4305 0921 0D       		.uleb128 0xd
 4306 0922 2C000000 		.4byte	0x2c
 4307 0926 00       		.byte	0
 4308 0927 0A       		.uleb128 0xa
 4309 0928 04       		.byte	0x4
 4310 0929 0E090000 		.4byte	0x90e
 4311 092d 18       		.uleb128 0x18
 4312 092e 10010000 		.4byte	0x110
 4313 0932 41090000 		.4byte	0x941
 4314 0936 0D       		.uleb128 0xd
 4315 0937 18030000 		.4byte	0x318
 4316 093b 0D       		.uleb128 0xd
ARM GAS  /tmp/ccsMqF3p.s 			page 138


 4317 093c AD000000 		.4byte	0xad
 4318 0940 00       		.byte	0
 4319 0941 0A       		.uleb128 0xa
 4320 0942 04       		.byte	0x4
 4321 0943 2D090000 		.4byte	0x92d
 4322 0947 18       		.uleb128 0x18
 4323 0948 10010000 		.4byte	0x110
 4324 094c 56090000 		.4byte	0x956
 4325 0950 0D       		.uleb128 0xd
 4326 0951 18030000 		.4byte	0x318
 4327 0955 00       		.byte	0
 4328 0956 0A       		.uleb128 0xa
 4329 0957 04       		.byte	0x4
 4330 0958 47090000 		.4byte	0x947
 4331 095c 19       		.uleb128 0x19
 4332 095d 04       		.byte	0x4
 4333 095e 11       		.byte	0x11
 4334 095f 4F       		.byte	0x4f
 4335 0960 71090000 		.4byte	0x971
 4336 0964 07       		.uleb128 0x7
 4337 0965 766D7400 		.ascii	"vmt\000"
 4338 0969 11       		.byte	0x11
 4339 096a 51       		.byte	0x51
 4340 096b 71090000 		.4byte	0x971
 4341 096f 00       		.byte	0
 4342 0970 00       		.byte	0
 4343 0971 0A       		.uleb128 0xa
 4344 0972 04       		.byte	0x4
 4345 0973 77090000 		.4byte	0x977
 4346 0977 17       		.uleb128 0x17
 4347 0978 A7080000 		.4byte	0x8a7
 4348 097c 03       		.uleb128 0x3
 4349 097d 62020000 		.4byte	.LASF117
 4350 0981 11       		.byte	0x11
 4351 0982 53       		.byte	0x53
 4352 0983 5C090000 		.4byte	0x95c
 4353 0987 18       		.uleb128 0x18
 4354 0988 10010000 		.4byte	0x110
 4355 098c A0090000 		.4byte	0x9a0
 4356 0990 0D       		.uleb128 0xd
 4357 0991 18030000 		.4byte	0x318
 4358 0995 0D       		.uleb128 0xd
 4359 0996 AD000000 		.4byte	0xad
 4360 099a 0D       		.uleb128 0xd
 4361 099b 3C010000 		.4byte	0x13c
 4362 099f 00       		.byte	0
 4363 09a0 0A       		.uleb128 0xa
 4364 09a1 04       		.byte	0x4
 4365 09a2 87090000 		.4byte	0x987
 4366 09a6 18       		.uleb128 0x18
 4367 09a7 10010000 		.4byte	0x110
 4368 09ab BA090000 		.4byte	0x9ba
 4369 09af 0D       		.uleb128 0xd
 4370 09b0 18030000 		.4byte	0x318
 4371 09b4 0D       		.uleb128 0xd
 4372 09b5 3C010000 		.4byte	0x13c
 4373 09b9 00       		.byte	0
ARM GAS  /tmp/ccsMqF3p.s 			page 139


 4374 09ba 0A       		.uleb128 0xa
 4375 09bb 04       		.byte	0x4
 4376 09bc A6090000 		.4byte	0x9a6
 4377 09c0 18       		.uleb128 0x18
 4378 09c1 2C000000 		.4byte	0x2c
 4379 09c5 DE090000 		.4byte	0x9de
 4380 09c9 0D       		.uleb128 0xd
 4381 09ca 18030000 		.4byte	0x318
 4382 09ce 0D       		.uleb128 0xd
 4383 09cf FD080000 		.4byte	0x8fd
 4384 09d3 0D       		.uleb128 0xd
 4385 09d4 2C000000 		.4byte	0x2c
 4386 09d8 0D       		.uleb128 0xd
 4387 09d9 3C010000 		.4byte	0x13c
 4388 09dd 00       		.byte	0
 4389 09de 0A       		.uleb128 0xa
 4390 09df 04       		.byte	0x4
 4391 09e0 C0090000 		.4byte	0x9c0
 4392 09e4 18       		.uleb128 0x18
 4393 09e5 2C000000 		.4byte	0x2c
 4394 09e9 020A0000 		.4byte	0xa02
 4395 09ed 0D       		.uleb128 0xd
 4396 09ee 18030000 		.4byte	0x318
 4397 09f2 0D       		.uleb128 0xd
 4398 09f3 A1080000 		.4byte	0x8a1
 4399 09f7 0D       		.uleb128 0xd
 4400 09f8 2C000000 		.4byte	0x2c
 4401 09fc 0D       		.uleb128 0xd
 4402 09fd 3C010000 		.4byte	0x13c
 4403 0a01 00       		.byte	0
 4404 0a02 0A       		.uleb128 0xa
 4405 0a03 04       		.byte	0x4
 4406 0a04 E4090000 		.4byte	0x9e4
 4407 0a08 0F       		.uleb128 0xf
 4408 0a09 2C000000 		.4byte	0x2c
 4409 0a0d 03       		.uleb128 0x3
 4410 0a0e 0F010000 		.4byte	.LASF118
 4411 0a12 12       		.byte	0x12
 4412 0a13 2A       		.byte	0x2a
 4413 0a14 180A0000 		.4byte	0xa18
 4414 0a18 05       		.uleb128 0x5
 4415 0a19 F1030000 		.4byte	.LASF119
 4416 0a1d 24       		.byte	0x24
 4417 0a1e 12       		.byte	0x12
 4418 0a1f 3B       		.byte	0x3b
 4419 0a20 850A0000 		.4byte	0xa85
 4420 0a24 06       		.uleb128 0x6
 4421 0a25 80000000 		.4byte	.LASF120
 4422 0a29 12       		.byte	0x12
 4423 0a2a 3C       		.byte	0x3c
 4424 0a2b 65020000 		.4byte	0x265
 4425 0a2f 00       		.byte	0
 4426 0a30 06       		.uleb128 0x6
 4427 0a31 36040000 		.4byte	.LASF121
 4428 0a35 12       		.byte	0x12
 4429 0a36 3D       		.byte	0x3d
 4430 0a37 080A0000 		.4byte	0xa08
ARM GAS  /tmp/ccsMqF3p.s 			page 140


 4431 0a3b 08       		.byte	0x8
 4432 0a3c 06       		.uleb128 0x6
 4433 0a3d ED010000 		.4byte	.LASF122
 4434 0a41 12       		.byte	0x12
 4435 0a42 3E       		.byte	0x3e
 4436 0a43 A1080000 		.4byte	0x8a1
 4437 0a47 0C       		.byte	0xc
 4438 0a48 06       		.uleb128 0x6
 4439 0a49 26070000 		.4byte	.LASF123
 4440 0a4d 12       		.byte	0x12
 4441 0a4e 3F       		.byte	0x3f
 4442 0a4f A1080000 		.4byte	0x8a1
 4443 0a53 10       		.byte	0x10
 4444 0a54 06       		.uleb128 0x6
 4445 0a55 4F040000 		.4byte	.LASF124
 4446 0a59 12       		.byte	0x12
 4447 0a5a 41       		.byte	0x41
 4448 0a5b A1080000 		.4byte	0x8a1
 4449 0a5f 14       		.byte	0x14
 4450 0a60 06       		.uleb128 0x6
 4451 0a61 DE040000 		.4byte	.LASF125
 4452 0a65 12       		.byte	0x12
 4453 0a66 42       		.byte	0x42
 4454 0a67 A1080000 		.4byte	0x8a1
 4455 0a6b 18       		.byte	0x18
 4456 0a6c 06       		.uleb128 0x6
 4457 0a6d 35070000 		.4byte	.LASF126
 4458 0a71 12       		.byte	0x12
 4459 0a72 43       		.byte	0x43
 4460 0a73 850A0000 		.4byte	0xa85
 4461 0a77 1C       		.byte	0x1c
 4462 0a78 06       		.uleb128 0x6
 4463 0a79 05020000 		.4byte	.LASF127
 4464 0a7d 12       		.byte	0x12
 4465 0a7e 44       		.byte	0x44
 4466 0a7f 18030000 		.4byte	0x318
 4467 0a83 20       		.byte	0x20
 4468 0a84 00       		.byte	0
 4469 0a85 03       		.uleb128 0x3
 4470 0a86 4B020000 		.4byte	.LASF128
 4471 0a8a 12       		.byte	0x12
 4472 0a8b 31       		.byte	0x31
 4473 0a8c 900A0000 		.4byte	0xa90
 4474 0a90 0A       		.uleb128 0xa
 4475 0a91 04       		.byte	0x4
 4476 0a92 960A0000 		.4byte	0xa96
 4477 0a96 0C       		.uleb128 0xc
 4478 0a97 A10A0000 		.4byte	0xaa1
 4479 0a9b 0D       		.uleb128 0xd
 4480 0a9c A10A0000 		.4byte	0xaa1
 4481 0aa0 00       		.byte	0
 4482 0aa1 0A       		.uleb128 0xa
 4483 0aa2 04       		.byte	0x4
 4484 0aa3 0D0A0000 		.4byte	0xa0d
 4485 0aa7 03       		.uleb128 0x3
 4486 0aa8 DE030000 		.4byte	.LASF129
 4487 0aac 12       		.byte	0x12
ARM GAS  /tmp/ccsMqF3p.s 			page 141


 4488 0aad 7A       		.byte	0x7a
 4489 0aae 0D0A0000 		.4byte	0xa0d
 4490 0ab2 03       		.uleb128 0x3
 4491 0ab3 40040000 		.4byte	.LASF130
 4492 0ab7 12       		.byte	0x12
 4493 0ab8 CA       		.byte	0xca
 4494 0ab9 0D0A0000 		.4byte	0xa0d
 4495 0abd 03       		.uleb128 0x3
 4496 0abe 8A000000 		.4byte	.LASF131
 4497 0ac2 13       		.byte	0x13
 4498 0ac3 92       		.byte	0x92
 4499 0ac4 CE000000 		.4byte	0xce
 4500 0ac8 03       		.uleb128 0x3
 4501 0ac9 16040000 		.4byte	.LASF132
 4502 0acd 13       		.byte	0x13
 4503 0ace 97       		.byte	0x97
 4504 0acf CE000000 		.4byte	0xce
 4505 0ad3 03       		.uleb128 0x3
 4506 0ad4 7F060000 		.4byte	.LASF133
 4507 0ad8 13       		.byte	0x13
 4508 0ad9 A4       		.byte	0xa4
 4509 0ada DE0A0000 		.4byte	0xade
 4510 0ade 0A       		.uleb128 0xa
 4511 0adf 04       		.byte	0x4
 4512 0ae0 C5040000 		.4byte	0x4c5
 4513 0ae4 1A       		.uleb128 0x1a
 4514 0ae5 01       		.byte	0x1
 4515 0ae6 14       		.byte	0x14
 4516 0ae7 4A       		.byte	0x4a
 4517 0ae8 FF0A0000 		.4byte	0xaff
 4518 0aec 1B       		.uleb128 0x1b
 4519 0aed 59080000 		.4byte	.LASF134
 4520 0af1 00       		.sleb128 0
 4521 0af2 1B       		.uleb128 0x1b
 4522 0af3 12050000 		.4byte	.LASF135
 4523 0af7 01       		.sleb128 1
 4524 0af8 1B       		.uleb128 0x1b
 4525 0af9 29010000 		.4byte	.LASF136
 4526 0afd 02       		.sleb128 2
 4527 0afe 00       		.byte	0
 4528 0aff 03       		.uleb128 0x3
 4529 0b00 0C080000 		.4byte	.LASF137
 4530 0b04 14       		.byte	0x14
 4531 0b05 4E       		.byte	0x4e
 4532 0b06 E40A0000 		.4byte	0xae4
 4533 0b0a 03       		.uleb128 0x3
 4534 0b0b 59070000 		.4byte	.LASF138
 4535 0b0f 14       		.byte	0x14
 4536 0b10 53       		.byte	0x53
 4537 0b11 150B0000 		.4byte	0xb15
 4538 0b15 0B       		.uleb128 0xb
 4539 0b16 59070000 		.4byte	.LASF138
 4540 0b1a 1C       		.byte	0x1c
 4541 0b1b 15       		.byte	0x15
 4542 0b1c B301     		.2byte	0x1b3
 4543 0b1e 7E0B0000 		.4byte	0xb7e
 4544 0b22 09       		.uleb128 0x9
ARM GAS  /tmp/ccsMqF3p.s 			page 142


 4545 0b23 AC010000 		.4byte	.LASF36
 4546 0b27 15       		.byte	0x15
 4547 0b28 B701     		.2byte	0x1b7
 4548 0b2a FF0A0000 		.4byte	0xaff
 4549 0b2e 00       		.byte	0
 4550 0b2f 09       		.uleb128 0x9
 4551 0b30 20060000 		.4byte	.LASF139
 4552 0b34 15       		.byte	0x15
 4553 0b35 BB01     		.2byte	0x1bb
 4554 0b37 740C0000 		.4byte	0xc74
 4555 0b3b 04       		.byte	0x4
 4556 0b3c 09       		.uleb128 0x9
 4557 0b3d 6E060000 		.4byte	.LASF140
 4558 0b41 15       		.byte	0x15
 4559 0b42 BF01     		.2byte	0x1bf
 4560 0b44 C40B0000 		.4byte	0xbc4
 4561 0b48 08       		.byte	0x8
 4562 0b49 09       		.uleb128 0x9
 4563 0b4a C3050000 		.4byte	.LASF141
 4564 0b4e 15       		.byte	0x15
 4565 0b4f C301     		.2byte	0x1c3
 4566 0b51 B80B0000 		.4byte	0xbb8
 4567 0b55 0C       		.byte	0xc
 4568 0b56 09       		.uleb128 0x9
 4569 0b57 B2010000 		.4byte	.LASF142
 4570 0b5b 15       		.byte	0x15
 4571 0b5c C701     		.2byte	0x1c7
 4572 0b5e AC0B0000 		.4byte	0xbac
 4573 0b62 10       		.byte	0x10
 4574 0b63 09       		.uleb128 0x9
 4575 0b64 46080000 		.4byte	.LASF143
 4576 0b68 15       		.byte	0x15
 4577 0b69 CF01     		.2byte	0x1cf
 4578 0b6b CE000000 		.4byte	0xce
 4579 0b6f 14       		.byte	0x14
 4580 0b70 08       		.uleb128 0x8
 4581 0b71 74696D00 		.ascii	"tim\000"
 4582 0b75 15       		.byte	0x15
 4583 0b76 D301     		.2byte	0x1d3
 4584 0b78 7F0C0000 		.4byte	0xc7f
 4585 0b7c 18       		.byte	0x18
 4586 0b7d 00       		.byte	0
 4587 0b7e 03       		.uleb128 0x3
 4588 0b7f 9C040000 		.4byte	.LASF144
 4589 0b83 14       		.byte	0x14
 4590 0b84 5A       		.byte	0x5a
 4591 0b85 890B0000 		.4byte	0xb89
 4592 0b89 0A       		.uleb128 0xa
 4593 0b8a 04       		.byte	0x4
 4594 0b8b 8F0B0000 		.4byte	0xb8f
 4595 0b8f 0C       		.uleb128 0xc
 4596 0b90 9A0B0000 		.4byte	0xb9a
 4597 0b94 0D       		.uleb128 0xd
 4598 0b95 9A0B0000 		.4byte	0xb9a
 4599 0b99 00       		.byte	0
 4600 0b9a 0A       		.uleb128 0xa
 4601 0b9b 04       		.byte	0x4
ARM GAS  /tmp/ccsMqF3p.s 			page 143


 4602 0b9c 0A0B0000 		.4byte	0xb0a
 4603 0ba0 13       		.uleb128 0x13
 4604 0ba1 7A010000 		.4byte	.LASF145
 4605 0ba5 15       		.byte	0x15
 4606 0ba6 5F01     		.2byte	0x15f
 4607 0ba8 CE000000 		.4byte	0xce
 4608 0bac 13       		.uleb128 0x13
 4609 0bad 08000000 		.4byte	.LASF146
 4610 0bb1 15       		.byte	0x15
 4611 0bb2 6401     		.2byte	0x164
 4612 0bb4 AD000000 		.4byte	0xad
 4613 0bb8 13       		.uleb128 0x13
 4614 0bb9 47050000 		.4byte	.LASF147
 4615 0bbd 15       		.byte	0x15
 4616 0bbe 6901     		.2byte	0x169
 4617 0bc0 CE000000 		.4byte	0xce
 4618 0bc4 13       		.uleb128 0x13
 4619 0bc5 1F080000 		.4byte	.LASF148
 4620 0bc9 15       		.byte	0x15
 4621 0bca 6E01     		.2byte	0x16e
 4622 0bcc CE000000 		.4byte	0xce
 4623 0bd0 12       		.uleb128 0x12
 4624 0bd1 08       		.byte	0x8
 4625 0bd2 15       		.byte	0x15
 4626 0bd3 7301     		.2byte	0x173
 4627 0bd5 F40B0000 		.4byte	0xbf4
 4628 0bd9 09       		.uleb128 0x9
 4629 0bda 15060000 		.4byte	.LASF149
 4630 0bde 15       		.byte	0x15
 4631 0bdf 7701     		.2byte	0x177
 4632 0be1 A00B0000 		.4byte	0xba0
 4633 0be5 00       		.byte	0
 4634 0be6 09       		.uleb128 0x9
 4635 0be7 70030000 		.4byte	.LASF150
 4636 0beb 15       		.byte	0x15
 4637 0bec 7D01     		.2byte	0x17d
 4638 0bee 7E0B0000 		.4byte	0xb7e
 4639 0bf2 04       		.byte	0x4
 4640 0bf3 00       		.byte	0
 4641 0bf4 13       		.uleb128 0x13
 4642 0bf5 D5060000 		.4byte	.LASF151
 4643 0bf9 15       		.byte	0x15
 4644 0bfa 7F01     		.2byte	0x17f
 4645 0bfc D00B0000 		.4byte	0xbd0
 4646 0c00 12       		.uleb128 0x12
 4647 0c01 34       		.byte	0x34
 4648 0c02 15       		.byte	0x15
 4649 0c03 8401     		.2byte	0x184
 4650 0c05 580C0000 		.4byte	0xc58
 4651 0c09 09       		.uleb128 0x9
 4652 0c0a 1F010000 		.4byte	.LASF152
 4653 0c0e 15       		.byte	0x15
 4654 0c0f 8A01     		.2byte	0x18a
 4655 0c11 CE000000 		.4byte	0xce
 4656 0c15 00       		.byte	0
 4657 0c16 09       		.uleb128 0x9
 4658 0c17 6E060000 		.4byte	.LASF140
ARM GAS  /tmp/ccsMqF3p.s 			page 144


 4659 0c1b 15       		.byte	0x15
 4660 0c1c 9001     		.2byte	0x190
 4661 0c1e C40B0000 		.4byte	0xbc4
 4662 0c22 04       		.byte	0x4
 4663 0c23 09       		.uleb128 0x9
 4664 0c24 70030000 		.4byte	.LASF150
 4665 0c28 15       		.byte	0x15
 4666 0c29 9601     		.2byte	0x196
 4667 0c2b 7E0B0000 		.4byte	0xb7e
 4668 0c2f 08       		.byte	0x8
 4669 0c30 09       		.uleb128 0x9
 4670 0c31 B2010000 		.4byte	.LASF142
 4671 0c35 15       		.byte	0x15
 4672 0c36 9A01     		.2byte	0x19a
 4673 0c38 580C0000 		.4byte	0xc58
 4674 0c3c 0C       		.byte	0xc
 4675 0c3d 08       		.uleb128 0x8
 4676 0c3e 63723200 		.ascii	"cr2\000"
 4677 0c42 15       		.byte	0x15
 4678 0c43 A001     		.2byte	0x1a0
 4679 0c45 CE000000 		.4byte	0xce
 4680 0c49 2C       		.byte	0x2c
 4681 0c4a 09       		.uleb128 0x9
 4682 0c4b 8D080000 		.4byte	.LASF153
 4683 0c4f 15       		.byte	0x15
 4684 0c50 AD01     		.2byte	0x1ad
 4685 0c52 CE000000 		.4byte	0xce
 4686 0c56 30       		.byte	0x30
 4687 0c57 00       		.byte	0
 4688 0c58 10       		.uleb128 0x10
 4689 0c59 F40B0000 		.4byte	0xbf4
 4690 0c5d 680C0000 		.4byte	0xc68
 4691 0c61 11       		.uleb128 0x11
 4692 0c62 34040000 		.4byte	0x434
 4693 0c66 03       		.byte	0x3
 4694 0c67 00       		.byte	0
 4695 0c68 13       		.uleb128 0x13
 4696 0c69 1C070000 		.4byte	.LASF154
 4697 0c6d 15       		.byte	0x15
 4698 0c6e AE01     		.2byte	0x1ae
 4699 0c70 000C0000 		.4byte	0xc00
 4700 0c74 0A       		.uleb128 0xa
 4701 0c75 04       		.byte	0x4
 4702 0c76 7A0C0000 		.4byte	0xc7a
 4703 0c7a 17       		.uleb128 0x17
 4704 0c7b 680C0000 		.4byte	0xc68
 4705 0c7f 0A       		.uleb128 0xa
 4706 0c80 04       		.byte	0x4
 4707 0c81 06070000 		.4byte	0x706
 4708 0c85 1A       		.uleb128 0x1a
 4709 0c86 01       		.byte	0x1
 4710 0c87 16       		.byte	0x16
 4711 0c88 58       		.byte	0x58
 4712 0c89 A00C0000 		.4byte	0xca0
 4713 0c8d 1B       		.uleb128 0x1b
 4714 0c8e 89050000 		.4byte	.LASF155
 4715 0c92 00       		.sleb128 0
ARM GAS  /tmp/ccsMqF3p.s 			page 145


 4716 0c93 1B       		.uleb128 0x1b
 4717 0c94 CE040000 		.4byte	.LASF156
 4718 0c98 01       		.sleb128 1
 4719 0c99 1B       		.uleb128 0x1b
 4720 0c9a F9060000 		.4byte	.LASF157
 4721 0c9e 02       		.sleb128 2
 4722 0c9f 00       		.byte	0
 4723 0ca0 03       		.uleb128 0x3
 4724 0ca1 B9050000 		.4byte	.LASF158
 4725 0ca5 16       		.byte	0x16
 4726 0ca6 5C       		.byte	0x5c
 4727 0ca7 850C0000 		.4byte	0xc85
 4728 0cab 03       		.uleb128 0x3
 4729 0cac D1050000 		.4byte	.LASF159
 4730 0cb0 16       		.byte	0x16
 4731 0cb1 61       		.byte	0x61
 4732 0cb2 B60C0000 		.4byte	0xcb6
 4733 0cb6 05       		.uleb128 0x5
 4734 0cb7 D1050000 		.4byte	.LASF159
 4735 0cbb 7C       		.byte	0x7c
 4736 0cbc 16       		.byte	0x16
 4737 0cbd 7B       		.byte	0x7b
 4738 0cbe 2D0D0000 		.4byte	0xd2d
 4739 0cc2 07       		.uleb128 0x7
 4740 0cc3 766D7400 		.ascii	"vmt\000"
 4741 0cc7 16       		.byte	0x16
 4742 0cc8 7D       		.byte	0x7d
 4743 0cc9 E40D0000 		.4byte	0xde4
 4744 0ccd 00       		.byte	0
 4745 0cce 06       		.uleb128 0x6
 4746 0ccf 3A030000 		.4byte	.LASF160
 4747 0cd3 16       		.byte	0x16
 4748 0cd4 7E       		.byte	0x7e
 4749 0cd5 8F080000 		.4byte	0x88f
 4750 0cd9 04       		.byte	0x4
 4751 0cda 06       		.uleb128 0x6
 4752 0cdb AC010000 		.4byte	.LASF36
 4753 0cdf 16       		.byte	0x16
 4754 0ce0 7E       		.byte	0x7e
 4755 0ce1 A00C0000 		.4byte	0xca0
 4756 0ce5 08       		.byte	0x8
 4757 0ce6 06       		.uleb128 0x6
 4758 0ce7 F8020000 		.4byte	.LASF161
 4759 0ceb 16       		.byte	0x16
 4760 0cec 7E       		.byte	0x7e
 4761 0ced A70A0000 		.4byte	0xaa7
 4762 0cf1 0C       		.byte	0xc
 4763 0cf2 06       		.uleb128 0x6
 4764 0cf3 40050000 		.4byte	.LASF162
 4765 0cf7 16       		.byte	0x16
 4766 0cf8 7E       		.byte	0x7e
 4767 0cf9 B20A0000 		.4byte	0xab2
 4768 0cfd 30       		.byte	0x30
 4769 0cfe 07       		.uleb128 0x7
 4770 0cff 696200   		.ascii	"ib\000"
 4771 0d02 16       		.byte	0x16
 4772 0d03 7E       		.byte	0x7e
ARM GAS  /tmp/ccsMqF3p.s 			page 146


 4773 0d04 EF0D0000 		.4byte	0xdef
 4774 0d08 54       		.byte	0x54
 4775 0d09 07       		.uleb128 0x7
 4776 0d0a 6F6200   		.ascii	"ob\000"
 4777 0d0d 16       		.byte	0x16
 4778 0d0e 7E       		.byte	0x7e
 4779 0d0f EF0D0000 		.4byte	0xdef
 4780 0d13 64       		.byte	0x64
 4781 0d14 06       		.uleb128 0x6
 4782 0d15 8C020000 		.4byte	.LASF163
 4783 0d19 16       		.byte	0x16
 4784 0d1a 7E       		.byte	0x7e
 4785 0d1b FF0D0000 		.4byte	0xdff
 4786 0d1f 74       		.byte	0x74
 4787 0d20 06       		.uleb128 0x6
 4788 0d21 D8000000 		.4byte	.LASF164
 4789 0d25 16       		.byte	0x16
 4790 0d26 7E       		.byte	0x7e
 4791 0d27 AD000000 		.4byte	0xad
 4792 0d2b 78       		.byte	0x78
 4793 0d2c 00       		.byte	0
 4794 0d2d 12       		.uleb128 0x12
 4795 0d2e 0C       		.byte	0xc
 4796 0d2f 17       		.byte	0x17
 4797 0d30 0A01     		.2byte	0x10a
 4798 0d32 6B0D0000 		.4byte	0xd6b
 4799 0d36 09       		.uleb128 0x9
 4800 0d37 BA030000 		.4byte	.LASF165
 4801 0d3b 17       		.byte	0x17
 4802 0d3c 0E01     		.2byte	0x10e
 4803 0d3e CE000000 		.4byte	0xce
 4804 0d42 00       		.byte	0
 4805 0d43 08       		.uleb128 0x8
 4806 0d44 63723100 		.ascii	"cr1\000"
 4807 0d48 17       		.byte	0x17
 4808 0d49 1301     		.2byte	0x113
 4809 0d4b B8000000 		.4byte	0xb8
 4810 0d4f 04       		.byte	0x4
 4811 0d50 08       		.uleb128 0x8
 4812 0d51 63723200 		.ascii	"cr2\000"
 4813 0d55 17       		.byte	0x17
 4814 0d56 1701     		.2byte	0x117
 4815 0d58 B8000000 		.4byte	0xb8
 4816 0d5c 06       		.byte	0x6
 4817 0d5d 08       		.uleb128 0x8
 4818 0d5e 63723300 		.ascii	"cr3\000"
 4819 0d62 17       		.byte	0x17
 4820 0d63 1B01     		.2byte	0x11b
 4821 0d65 B8000000 		.4byte	0xb8
 4822 0d69 08       		.byte	0x8
 4823 0d6a 00       		.byte	0
 4824 0d6b 13       		.uleb128 0x13
 4825 0d6c 7B040000 		.4byte	.LASF166
 4826 0d70 17       		.byte	0x17
 4827 0d71 1C01     		.2byte	0x11c
 4828 0d73 2D0D0000 		.4byte	0xd2d
 4829 0d77 05       		.uleb128 0x5
ARM GAS  /tmp/ccsMqF3p.s 			page 147


 4830 0d78 D9020000 		.4byte	.LASF167
 4831 0d7c 20       		.byte	0x20
 4832 0d7d 16       		.byte	0x16
 4833 0d7e 70       		.byte	0x70
 4834 0d7f E40D0000 		.4byte	0xde4
 4835 0d83 06       		.uleb128 0x6
 4836 0d84 D8030000 		.4byte	.LASF115
 4837 0d88 16       		.byte	0x16
 4838 0d89 71       		.byte	0x71
 4839 0d8a 08090000 		.4byte	0x908
 4840 0d8e 00       		.byte	0
 4841 0d8f 06       		.uleb128 0x6
 4842 0d90 00060000 		.4byte	.LASF116
 4843 0d94 16       		.byte	0x16
 4844 0d95 71       		.byte	0x71
 4845 0d96 27090000 		.4byte	0x927
 4846 0d9a 04       		.byte	0x4
 4847 0d9b 07       		.uleb128 0x7
 4848 0d9c 70757400 		.ascii	"put\000"
 4849 0da0 16       		.byte	0x16
 4850 0da1 71       		.byte	0x71
 4851 0da2 41090000 		.4byte	0x941
 4852 0da6 08       		.byte	0x8
 4853 0da7 07       		.uleb128 0x7
 4854 0da8 67657400 		.ascii	"get\000"
 4855 0dac 16       		.byte	0x16
 4856 0dad 71       		.byte	0x71
 4857 0dae 56090000 		.4byte	0x956
 4858 0db2 0C       		.byte	0xc
 4859 0db3 06       		.uleb128 0x6
 4860 0db4 EC030000 		.4byte	.LASF168
 4861 0db8 16       		.byte	0x16
 4862 0db9 71       		.byte	0x71
 4863 0dba A0090000 		.4byte	0x9a0
 4864 0dbe 10       		.byte	0x10
 4865 0dbf 06       		.uleb128 0x6
 4866 0dc0 24030000 		.4byte	.LASF169
 4867 0dc4 16       		.byte	0x16
 4868 0dc5 71       		.byte	0x71
 4869 0dc6 BA090000 		.4byte	0x9ba
 4870 0dca 14       		.byte	0x14
 4871 0dcb 06       		.uleb128 0x6
 4872 0dcc 87030000 		.4byte	.LASF170
 4873 0dd0 16       		.byte	0x16
 4874 0dd1 71       		.byte	0x71
 4875 0dd2 DE090000 		.4byte	0x9de
 4876 0dd6 18       		.byte	0x18
 4877 0dd7 06       		.uleb128 0x6
 4878 0dd8 33010000 		.4byte	.LASF171
 4879 0ddc 16       		.byte	0x16
 4880 0ddd 71       		.byte	0x71
 4881 0dde 020A0000 		.4byte	0xa02
 4882 0de2 1C       		.byte	0x1c
 4883 0de3 00       		.byte	0
 4884 0de4 0A       		.uleb128 0xa
 4885 0de5 04       		.byte	0x4
 4886 0de6 EA0D0000 		.4byte	0xdea
ARM GAS  /tmp/ccsMqF3p.s 			page 148


 4887 0dea 17       		.uleb128 0x17
 4888 0deb 770D0000 		.4byte	0xd77
 4889 0def 10       		.uleb128 0x10
 4890 0df0 AD000000 		.4byte	0xad
 4891 0df4 FF0D0000 		.4byte	0xdff
 4892 0df8 11       		.uleb128 0x11
 4893 0df9 34040000 		.4byte	0x434
 4894 0dfd 0F       		.byte	0xf
 4895 0dfe 00       		.byte	0
 4896 0dff 0A       		.uleb128 0xa
 4897 0e00 04       		.byte	0x4
 4898 0e01 34050000 		.4byte	0x534
 4899 0e05 1C       		.uleb128 0x1c
 4900 0e06 E6060000 		.4byte	.LASF203
 4901 0e0a 02       		.byte	0x2
 4902 0e0b 85       		.byte	0x85
 4903 0e0c 03       		.byte	0x3
 4904 0e0d 1D0E0000 		.4byte	0xe1d
 4905 0e11 1D       		.uleb128 0x1d
 4906 0e12 29030000 		.4byte	.LASF34
 4907 0e16 02       		.byte	0x2
 4908 0e17 85       		.byte	0x85
 4909 0e18 DD070000 		.4byte	0x7dd
 4910 0e1c 00       		.byte	0
 4911 0e1d 1E       		.uleb128 0x1e
 4912 0e1e C8000000 		.4byte	.LASF172
 4913 0e22 01       		.byte	0x1
 4914 0e23 16       		.byte	0x16
 4915 0e24 00000000 		.4byte	.LFB219
 4916 0e28 10000000 		.4byte	.LFE219-.LFB219
 4917 0e2c 01       		.uleb128 0x1
 4918 0e2d 9C       		.byte	0x9c
 4919 0e2e 400E0000 		.4byte	0xe40
 4920 0e32 1F       		.uleb128 0x1f
 4921 0e33 C0030000 		.4byte	.LASF174
 4922 0e37 01       		.byte	0x1
 4923 0e38 16       		.byte	0x16
 4924 0e39 9A0B0000 		.4byte	0xb9a
 4925 0e3d 01       		.uleb128 0x1
 4926 0e3e 50       		.byte	0x50
 4927 0e3f 00       		.byte	0
 4928 0e40 1E       		.uleb128 0x1e
 4929 0e41 0C020000 		.4byte	.LASF173
 4930 0e45 01       		.byte	0x1
 4931 0e46 1D       		.byte	0x1d
 4932 0e47 00000000 		.4byte	.LFB220
 4933 0e4b 10000000 		.4byte	.LFE220-.LFB220
 4934 0e4f 01       		.uleb128 0x1
 4935 0e50 9C       		.byte	0x9c
 4936 0e51 630E0000 		.4byte	0xe63
 4937 0e55 1F       		.uleb128 0x1f
 4938 0e56 C0030000 		.4byte	.LASF174
 4939 0e5a 01       		.byte	0x1
 4940 0e5b 1D       		.byte	0x1d
 4941 0e5c 9A0B0000 		.4byte	0xb9a
 4942 0e60 01       		.uleb128 0x1
 4943 0e61 50       		.byte	0x50
ARM GAS  /tmp/ccsMqF3p.s 			page 149


 4944 0e62 00       		.byte	0
 4945 0e63 1E       		.uleb128 0x1e
 4946 0e64 F0020000 		.4byte	.LASF175
 4947 0e68 01       		.byte	0x1
 4948 0e69 35       		.byte	0x35
 4949 0e6a 00000000 		.4byte	.LFB221
 4950 0e6e 10000000 		.4byte	.LFE221-.LFB221
 4951 0e72 01       		.uleb128 0x1
 4952 0e73 9C       		.byte	0x9c
 4953 0e74 860E0000 		.4byte	0xe86
 4954 0e78 1F       		.uleb128 0x1f
 4955 0e79 C0030000 		.4byte	.LASF174
 4956 0e7d 01       		.byte	0x1
 4957 0e7e 35       		.byte	0x35
 4958 0e7f 9A0B0000 		.4byte	0xb9a
 4959 0e83 01       		.uleb128 0x1
 4960 0e84 50       		.byte	0x50
 4961 0e85 00       		.byte	0
 4962 0e86 1E       		.uleb128 0x1e
 4963 0e87 58000000 		.4byte	.LASF176
 4964 0e8b 01       		.byte	0x1
 4965 0e8c 3B       		.byte	0x3b
 4966 0e8d 00000000 		.4byte	.LFB222
 4967 0e91 10000000 		.4byte	.LFE222-.LFB222
 4968 0e95 01       		.uleb128 0x1
 4969 0e96 9C       		.byte	0x9c
 4970 0e97 A90E0000 		.4byte	0xea9
 4971 0e9b 1F       		.uleb128 0x1f
 4972 0e9c C0030000 		.4byte	.LASF174
 4973 0ea0 01       		.byte	0x1
 4974 0ea1 3B       		.byte	0x3b
 4975 0ea2 9A0B0000 		.4byte	0xb9a
 4976 0ea6 01       		.uleb128 0x1
 4977 0ea7 50       		.byte	0x50
 4978 0ea8 00       		.byte	0
 4979 0ea9 1E       		.uleb128 0x1e
 4980 0eaa D0030000 		.4byte	.LASF177
 4981 0eae 01       		.byte	0x1
 4982 0eaf AD       		.byte	0xad
 4983 0eb0 00000000 		.4byte	.LFB223
 4984 0eb4 34000000 		.4byte	.LFE223-.LFB223
 4985 0eb8 01       		.uleb128 0x1
 4986 0eb9 9C       		.byte	0x9c
 4987 0eba 160F0000 		.4byte	0xf16
 4988 0ebe 20       		.uleb128 0x20
 4989 0ebf 61726700 		.ascii	"arg\000"
 4990 0ec3 01       		.byte	0x1
 4991 0ec4 AD       		.byte	0xad
 4992 0ec5 18030000 		.4byte	0x318
 4993 0ec9 00000000 		.4byte	.LLST0
 4994 0ecd 21       		.uleb128 0x21
 4995 0ece 050E0000 		.4byte	0xe05
 4996 0ed2 02000000 		.4byte	.LBB4
 4997 0ed6 14000000 		.4byte	.LBE4-.LBB4
 4998 0eda 01       		.byte	0x1
 4999 0edb B1       		.byte	0xb1
 5000 0edc ED0E0000 		.4byte	0xeed
ARM GAS  /tmp/ccsMqF3p.s 			page 150


 5001 0ee0 22       		.uleb128 0x22
 5002 0ee1 110E0000 		.4byte	0xe11
 5003 0ee5 06       		.uleb128 0x6
 5004 0ee6 03       		.byte	0x3
 5005 0ee7 00000000 		.4byte	.LC0
 5006 0eeb 9F       		.byte	0x9f
 5007 0eec 00       		.byte	0
 5008 0eed 23       		.uleb128 0x23
 5009 0eee 2A000000 		.4byte	.LVL6
 5010 0ef2 AF1D0000 		.4byte	0x1daf
 5011 0ef6 040F0000 		.4byte	0xf04
 5012 0efa 24       		.uleb128 0x24
 5013 0efb 01       		.uleb128 0x1
 5014 0efc 51       		.byte	0x51
 5015 0efd 05       		.uleb128 0x5
 5016 0efe 03       		.byte	0x3
 5017 0eff 0C000000 		.4byte	.LC1
 5018 0f03 00       		.byte	0
 5019 0f04 25       		.uleb128 0x25
 5020 0f05 32000000 		.4byte	.LVL7
 5021 0f09 D01D0000 		.4byte	0x1dd0
 5022 0f0d 24       		.uleb128 0x24
 5023 0f0e 01       		.uleb128 0x1
 5024 0f0f 50       		.byte	0x50
 5025 0f10 03       		.uleb128 0x3
 5026 0f11 0A       		.byte	0xa
 5027 0f12 E803     		.2byte	0x3e8
 5028 0f14 00       		.byte	0
 5029 0f15 00       		.byte	0
 5030 0f16 26       		.uleb128 0x26
 5031 0f17 4C080000 		.4byte	.LASF204
 5032 0f1b 01       		.byte	0x1
 5033 0f1c C8       		.byte	0xc8
 5034 0f1d 25000000 		.4byte	0x25
 5035 0f21 00000000 		.4byte	.LFB224
 5036 0f25 D60F0000 		.4byte	.LFE224-.LFB224
 5037 0f29 01       		.uleb128 0x1
 5038 0f2a 9C       		.byte	0x9c
 5039 0f2b B71C0000 		.4byte	0x1cb7
 5040 0f2f 27       		.uleb128 0x27
 5041 0f30 0A000000 		.4byte	.LVL8
 5042 0f34 E21D0000 		.4byte	0x1de2
 5043 0f38 27       		.uleb128 0x27
 5044 0f39 0E000000 		.4byte	.LVL9
 5045 0f3d E91D0000 		.4byte	0x1de9
 5046 0f41 23       		.uleb128 0x23
 5047 0f42 1E000000 		.4byte	.LVL10
 5048 0f46 F11D0000 		.4byte	0x1df1
 5049 0f4a 590F0000 		.4byte	0xf59
 5050 0f4e 24       		.uleb128 0x24
 5051 0f4f 01       		.uleb128 0x1
 5052 0f50 52       		.byte	0x52
 5053 0f51 01       		.uleb128 0x1
 5054 0f52 32       		.byte	0x32
 5055 0f53 24       		.uleb128 0x24
 5056 0f54 01       		.uleb128 0x1
 5057 0f55 51       		.byte	0x51
ARM GAS  /tmp/ccsMqF3p.s 			page 151


 5058 0f56 01       		.uleb128 0x1
 5059 0f57 31       		.byte	0x31
 5060 0f58 00       		.byte	0
 5061 0f59 23       		.uleb128 0x23
 5062 0f5a 2E000000 		.4byte	.LVL11
 5063 0f5e F11D0000 		.4byte	0x1df1
 5064 0f62 710F0000 		.4byte	0xf71
 5065 0f66 24       		.uleb128 0x24
 5066 0f67 01       		.uleb128 0x1
 5067 0f68 52       		.byte	0x52
 5068 0f69 01       		.uleb128 0x1
 5069 0f6a 32       		.byte	0x32
 5070 0f6b 24       		.uleb128 0x24
 5071 0f6c 01       		.uleb128 0x1
 5072 0f6d 51       		.byte	0x51
 5073 0f6e 01       		.uleb128 0x1
 5074 0f6f 32       		.byte	0x32
 5075 0f70 00       		.byte	0
 5076 0f71 23       		.uleb128 0x23
 5077 0f72 3E000000 		.4byte	.LVL12
 5078 0f76 F11D0000 		.4byte	0x1df1
 5079 0f7a 890F0000 		.4byte	0xf89
 5080 0f7e 24       		.uleb128 0x24
 5081 0f7f 01       		.uleb128 0x1
 5082 0f80 52       		.byte	0x52
 5083 0f81 01       		.uleb128 0x1
 5084 0f82 36       		.byte	0x36
 5085 0f83 24       		.uleb128 0x24
 5086 0f84 01       		.uleb128 0x1
 5087 0f85 51       		.byte	0x51
 5088 0f86 01       		.uleb128 0x1
 5089 0f87 34       		.byte	0x34
 5090 0f88 00       		.byte	0
 5091 0f89 23       		.uleb128 0x23
 5092 0f8a 4E000000 		.4byte	.LVL13
 5093 0f8e F11D0000 		.4byte	0x1df1
 5094 0f92 A10F0000 		.4byte	0xfa1
 5095 0f96 24       		.uleb128 0x24
 5096 0f97 01       		.uleb128 0x1
 5097 0f98 52       		.byte	0x52
 5098 0f99 01       		.uleb128 0x1
 5099 0f9a 36       		.byte	0x36
 5100 0f9b 24       		.uleb128 0x24
 5101 0f9c 01       		.uleb128 0x1
 5102 0f9d 51       		.byte	0x51
 5103 0f9e 01       		.uleb128 0x1
 5104 0f9f 38       		.byte	0x38
 5105 0fa0 00       		.byte	0
 5106 0fa1 23       		.uleb128 0x23
 5107 0fa2 5E000000 		.4byte	.LVL14
 5108 0fa6 F11D0000 		.4byte	0x1df1
 5109 0faa B90F0000 		.4byte	0xfb9
 5110 0fae 24       		.uleb128 0x24
 5111 0faf 01       		.uleb128 0x1
 5112 0fb0 52       		.byte	0x52
 5113 0fb1 01       		.uleb128 0x1
 5114 0fb2 36       		.byte	0x36
ARM GAS  /tmp/ccsMqF3p.s 			page 152


 5115 0fb3 24       		.uleb128 0x24
 5116 0fb4 01       		.uleb128 0x1
 5117 0fb5 51       		.byte	0x51
 5118 0fb6 01       		.uleb128 0x1
 5119 0fb7 40       		.byte	0x40
 5120 0fb8 00       		.byte	0
 5121 0fb9 23       		.uleb128 0x23
 5122 0fba 6E000000 		.4byte	.LVL15
 5123 0fbe F11D0000 		.4byte	0x1df1
 5124 0fc2 D20F0000 		.4byte	0xfd2
 5125 0fc6 24       		.uleb128 0x24
 5126 0fc7 01       		.uleb128 0x1
 5127 0fc8 52       		.byte	0x52
 5128 0fc9 01       		.uleb128 0x1
 5129 0fca 34       		.byte	0x34
 5130 0fcb 24       		.uleb128 0x24
 5131 0fcc 01       		.uleb128 0x1
 5132 0fcd 51       		.byte	0x51
 5133 0fce 02       		.uleb128 0x2
 5134 0fcf 08       		.byte	0x8
 5135 0fd0 20       		.byte	0x20
 5136 0fd1 00       		.byte	0
 5137 0fd2 23       		.uleb128 0x23
 5138 0fd3 7E000000 		.4byte	.LVL16
 5139 0fd7 F11D0000 		.4byte	0x1df1
 5140 0fdb EB0F0000 		.4byte	0xfeb
 5141 0fdf 24       		.uleb128 0x24
 5142 0fe0 01       		.uleb128 0x1
 5143 0fe1 52       		.byte	0x52
 5144 0fe2 01       		.uleb128 0x1
 5145 0fe3 34       		.byte	0x34
 5146 0fe4 24       		.uleb128 0x24
 5147 0fe5 01       		.uleb128 0x1
 5148 0fe6 51       		.byte	0x51
 5149 0fe7 02       		.uleb128 0x2
 5150 0fe8 08       		.byte	0x8
 5151 0fe9 40       		.byte	0x40
 5152 0fea 00       		.byte	0
 5153 0feb 23       		.uleb128 0x23
 5154 0fec 8E000000 		.4byte	.LVL17
 5155 0ff0 F11D0000 		.4byte	0x1df1
 5156 0ff4 04100000 		.4byte	0x1004
 5157 0ff8 24       		.uleb128 0x24
 5158 0ff9 01       		.uleb128 0x1
 5159 0ffa 52       		.byte	0x52
 5160 0ffb 01       		.uleb128 0x1
 5161 0ffc 34       		.byte	0x34
 5162 0ffd 24       		.uleb128 0x24
 5163 0ffe 01       		.uleb128 0x1
 5164 0fff 51       		.byte	0x51
 5165 1000 02       		.uleb128 0x2
 5166 1001 08       		.byte	0x8
 5167 1002 80       		.byte	0x80
 5168 1003 00       		.byte	0
 5169 1004 23       		.uleb128 0x23
 5170 1005 A0000000 		.4byte	.LVL18
 5171 1009 F11D0000 		.4byte	0x1df1
ARM GAS  /tmp/ccsMqF3p.s 			page 153


 5172 100d 1E100000 		.4byte	0x101e
 5173 1011 24       		.uleb128 0x24
 5174 1012 01       		.uleb128 0x1
 5175 1013 52       		.byte	0x52
 5176 1014 01       		.uleb128 0x1
 5177 1015 36       		.byte	0x36
 5178 1016 24       		.uleb128 0x24
 5179 1017 01       		.uleb128 0x1
 5180 1018 51       		.byte	0x51
 5181 1019 03       		.uleb128 0x3
 5182 101a 0A       		.byte	0xa
 5183 101b 0001     		.2byte	0x100
 5184 101d 00       		.byte	0
 5185 101e 23       		.uleb128 0x23
 5186 101f B2000000 		.4byte	.LVL19
 5187 1023 F11D0000 		.4byte	0x1df1
 5188 1027 38100000 		.4byte	0x1038
 5189 102b 24       		.uleb128 0x24
 5190 102c 01       		.uleb128 0x1
 5191 102d 52       		.byte	0x52
 5192 102e 01       		.uleb128 0x1
 5193 102f 36       		.byte	0x36
 5194 1030 24       		.uleb128 0x24
 5195 1031 01       		.uleb128 0x1
 5196 1032 51       		.byte	0x51
 5197 1033 03       		.uleb128 0x3
 5198 1034 0A       		.byte	0xa
 5199 1035 0002     		.2byte	0x200
 5200 1037 00       		.byte	0
 5201 1038 23       		.uleb128 0x23
 5202 1039 C4000000 		.4byte	.LVL20
 5203 103d F11D0000 		.4byte	0x1df1
 5204 1041 52100000 		.4byte	0x1052
 5205 1045 24       		.uleb128 0x24
 5206 1046 01       		.uleb128 0x1
 5207 1047 52       		.byte	0x52
 5208 1048 01       		.uleb128 0x1
 5209 1049 36       		.byte	0x36
 5210 104a 24       		.uleb128 0x24
 5211 104b 01       		.uleb128 0x1
 5212 104c 51       		.byte	0x51
 5213 104d 03       		.uleb128 0x3
 5214 104e 0A       		.byte	0xa
 5215 104f 0004     		.2byte	0x400
 5216 1051 00       		.byte	0
 5217 1052 23       		.uleb128 0x23
 5218 1053 D6000000 		.4byte	.LVL21
 5219 1057 F11D0000 		.4byte	0x1df1
 5220 105b 6C100000 		.4byte	0x106c
 5221 105f 24       		.uleb128 0x24
 5222 1060 01       		.uleb128 0x1
 5223 1061 52       		.byte	0x52
 5224 1062 01       		.uleb128 0x1
 5225 1063 36       		.byte	0x36
 5226 1064 24       		.uleb128 0x24
 5227 1065 01       		.uleb128 0x1
 5228 1066 51       		.byte	0x51
ARM GAS  /tmp/ccsMqF3p.s 			page 154


 5229 1067 03       		.uleb128 0x3
 5230 1068 0A       		.byte	0xa
 5231 1069 0008     		.2byte	0x800
 5232 106b 00       		.byte	0
 5233 106c 23       		.uleb128 0x23
 5234 106d E8000000 		.4byte	.LVL22
 5235 1071 F11D0000 		.4byte	0x1df1
 5236 1075 86100000 		.4byte	0x1086
 5237 1079 24       		.uleb128 0x24
 5238 107a 01       		.uleb128 0x1
 5239 107b 52       		.byte	0x52
 5240 107c 01       		.uleb128 0x1
 5241 107d 36       		.byte	0x36
 5242 107e 24       		.uleb128 0x24
 5243 107f 01       		.uleb128 0x1
 5244 1080 51       		.byte	0x51
 5245 1081 03       		.uleb128 0x3
 5246 1082 0A       		.byte	0xa
 5247 1083 0008     		.2byte	0x800
 5248 1085 00       		.byte	0
 5249 1086 23       		.uleb128 0x23
 5250 1087 FA000000 		.4byte	.LVL23
 5251 108b F11D0000 		.4byte	0x1df1
 5252 108f A0100000 		.4byte	0x10a0
 5253 1093 24       		.uleb128 0x24
 5254 1094 01       		.uleb128 0x1
 5255 1095 52       		.byte	0x52
 5256 1096 01       		.uleb128 0x1
 5257 1097 36       		.byte	0x36
 5258 1098 24       		.uleb128 0x24
 5259 1099 01       		.uleb128 0x1
 5260 109a 51       		.byte	0x51
 5261 109b 03       		.uleb128 0x3
 5262 109c 0A       		.byte	0xa
 5263 109d 0080     		.2byte	0x8000
 5264 109f 00       		.byte	0
 5265 10a0 23       		.uleb128 0x23
 5266 10a1 0C010000 		.4byte	.LVL24
 5267 10a5 F11D0000 		.4byte	0x1df1
 5268 10a9 BA100000 		.4byte	0x10ba
 5269 10ad 24       		.uleb128 0x24
 5270 10ae 01       		.uleb128 0x1
 5271 10af 52       		.byte	0x52
 5272 10b0 01       		.uleb128 0x1
 5273 10b1 36       		.byte	0x36
 5274 10b2 24       		.uleb128 0x24
 5275 10b3 01       		.uleb128 0x1
 5276 10b4 51       		.byte	0x51
 5277 10b5 03       		.uleb128 0x3
 5278 10b6 0A       		.byte	0xa
 5279 10b7 0004     		.2byte	0x400
 5280 10b9 00       		.byte	0
 5281 10ba 23       		.uleb128 0x23
 5282 10bb 1E010000 		.4byte	.LVL25
 5283 10bf F11D0000 		.4byte	0x1df1
 5284 10c3 D4100000 		.4byte	0x10d4
 5285 10c7 24       		.uleb128 0x24
ARM GAS  /tmp/ccsMqF3p.s 			page 155


 5286 10c8 01       		.uleb128 0x1
 5287 10c9 52       		.byte	0x52
 5288 10ca 01       		.uleb128 0x1
 5289 10cb 36       		.byte	0x36
 5290 10cc 24       		.uleb128 0x24
 5291 10cd 01       		.uleb128 0x1
 5292 10ce 51       		.byte	0x51
 5293 10cf 03       		.uleb128 0x3
 5294 10d0 0A       		.byte	0xa
 5295 10d1 0040     		.2byte	0x4000
 5296 10d3 00       		.byte	0
 5297 10d4 23       		.uleb128 0x23
 5298 10d5 32010000 		.4byte	.LVL26
 5299 10d9 0D1E0000 		.4byte	0x1e0d
 5300 10dd EB100000 		.4byte	0x10eb
 5301 10e1 24       		.uleb128 0x24
 5302 10e2 01       		.uleb128 0x1
 5303 10e3 51       		.byte	0x51
 5304 10e4 05       		.uleb128 0x5
 5305 10e5 03       		.byte	0x3
 5306 10e6 00000000 		.4byte	.LANCHOR0
 5307 10ea 00       		.byte	0
 5308 10eb 27       		.uleb128 0x27
 5309 10ec 3E010000 		.4byte	.LVL27
 5310 10f0 241E0000 		.4byte	0x1e24
 5311 10f4 23       		.uleb128 0x23
 5312 10f5 4E010000 		.4byte	.LVL28
 5313 10f9 361E0000 		.4byte	0x1e36
 5314 10fd 0C110000 		.4byte	0x110c
 5315 1101 24       		.uleb128 0x24
 5316 1102 01       		.uleb128 0x1
 5317 1103 52       		.byte	0x52
 5318 1104 01       		.uleb128 0x1
 5319 1105 30       		.byte	0x30
 5320 1106 24       		.uleb128 0x24
 5321 1107 01       		.uleb128 0x1
 5322 1108 51       		.byte	0x51
 5323 1109 01       		.uleb128 0x1
 5324 110a 30       		.byte	0x30
 5325 110b 00       		.byte	0
 5326 110c 23       		.uleb128 0x23
 5327 110d 5C010000 		.4byte	.LVL29
 5328 1111 521E0000 		.4byte	0x1e52
 5329 1115 1F110000 		.4byte	0x111f
 5330 1119 24       		.uleb128 0x24
 5331 111a 01       		.uleb128 0x1
 5332 111b 51       		.byte	0x51
 5333 111c 01       		.uleb128 0x1
 5334 111d 30       		.byte	0x30
 5335 111e 00       		.byte	0
 5336 111f 23       		.uleb128 0x23
 5337 1120 70010000 		.4byte	.LVL30
 5338 1124 0D1E0000 		.4byte	0x1e0d
 5339 1128 36110000 		.4byte	0x1136
 5340 112c 24       		.uleb128 0x24
 5341 112d 01       		.uleb128 0x1
 5342 112e 51       		.byte	0x51
ARM GAS  /tmp/ccsMqF3p.s 			page 156


 5343 112f 05       		.uleb128 0x5
 5344 1130 03       		.byte	0x3
 5345 1131 00000000 		.4byte	.LANCHOR1
 5346 1135 00       		.byte	0
 5347 1136 27       		.uleb128 0x27
 5348 1137 7C010000 		.4byte	.LVL31
 5349 113b 241E0000 		.4byte	0x1e24
 5350 113f 23       		.uleb128 0x23
 5351 1140 8C010000 		.4byte	.LVL32
 5352 1144 361E0000 		.4byte	0x1e36
 5353 1148 57110000 		.4byte	0x1157
 5354 114c 24       		.uleb128 0x24
 5355 114d 01       		.uleb128 0x1
 5356 114e 52       		.byte	0x52
 5357 114f 01       		.uleb128 0x1
 5358 1150 30       		.byte	0x30
 5359 1151 24       		.uleb128 0x24
 5360 1152 01       		.uleb128 0x1
 5361 1153 51       		.byte	0x51
 5362 1154 01       		.uleb128 0x1
 5363 1155 30       		.byte	0x30
 5364 1156 00       		.byte	0
 5365 1157 23       		.uleb128 0x23
 5366 1158 9A010000 		.4byte	.LVL33
 5367 115c 521E0000 		.4byte	0x1e52
 5368 1160 6A110000 		.4byte	0x116a
 5369 1164 24       		.uleb128 0x24
 5370 1165 01       		.uleb128 0x1
 5371 1166 51       		.byte	0x51
 5372 1167 01       		.uleb128 0x1
 5373 1168 30       		.byte	0x30
 5374 1169 00       		.byte	0
 5375 116a 23       		.uleb128 0x23
 5376 116b AC010000 		.4byte	.LVL34
 5377 116f 691E0000 		.4byte	0x1e69
 5378 1173 7D110000 		.4byte	0x117d
 5379 1177 24       		.uleb128 0x24
 5380 1178 01       		.uleb128 0x1
 5381 1179 51       		.byte	0x51
 5382 117a 01       		.uleb128 0x1
 5383 117b 30       		.byte	0x30
 5384 117c 00       		.byte	0
 5385 117d 23       		.uleb128 0x23
 5386 117e EA010000 		.4byte	.LVL35
 5387 1182 911E0000 		.4byte	0x1e91
 5388 1186 B0110000 		.4byte	0x11b0
 5389 118a 24       		.uleb128 0x24
 5390 118b 01       		.uleb128 0x1
 5391 118c 53       		.byte	0x53
 5392 118d 05       		.uleb128 0x5
 5393 118e 03       		.byte	0x3
 5394 118f 00000000 		.4byte	Thread2
 5395 1193 24       		.uleb128 0x24
 5396 1194 01       		.uleb128 0x1
 5397 1195 52       		.byte	0x52
 5398 1196 02       		.uleb128 0x2
 5399 1197 08       		.byte	0x8
ARM GAS  /tmp/ccsMqF3p.s 			page 157


 5400 1198 81       		.byte	0x81
 5401 1199 24       		.uleb128 0x24
 5402 119a 01       		.uleb128 0x1
 5403 119b 51       		.byte	0x51
 5404 119c 03       		.uleb128 0x3
 5405 119d 0A       		.byte	0xa
 5406 119e 4801     		.2byte	0x148
 5407 11a0 24       		.uleb128 0x24
 5408 11a1 01       		.uleb128 0x1
 5409 11a2 50       		.byte	0x50
 5410 11a3 05       		.uleb128 0x5
 5411 11a4 03       		.byte	0x3
 5412 11a5 00000000 		.4byte	.LANCHOR2
 5413 11a9 24       		.uleb128 0x24
 5414 11aa 02       		.uleb128 0x2
 5415 11ab 7D       		.byte	0x7d
 5416 11ac 00       		.sleb128 0
 5417 11ad 01       		.uleb128 0x1
 5418 11ae 30       		.byte	0x30
 5419 11af 00       		.byte	0
 5420 11b0 23       		.uleb128 0x23
 5421 11b1 14030000 		.4byte	.LVL36
 5422 11b5 361E0000 		.4byte	0x1e36
 5423 11b9 C8110000 		.4byte	0x11c8
 5424 11bd 24       		.uleb128 0x24
 5425 11be 01       		.uleb128 0x1
 5426 11bf 52       		.byte	0x52
 5427 11c0 01       		.uleb128 0x1
 5428 11c1 30       		.byte	0x30
 5429 11c2 24       		.uleb128 0x24
 5430 11c3 01       		.uleb128 0x1
 5431 11c4 51       		.byte	0x51
 5432 11c5 01       		.uleb128 0x1
 5433 11c6 30       		.byte	0x30
 5434 11c7 00       		.byte	0
 5435 11c8 23       		.uleb128 0x23
 5436 11c9 2C030000 		.4byte	.LVL37
 5437 11cd 361E0000 		.4byte	0x1e36
 5438 11d1 E0110000 		.4byte	0x11e0
 5439 11d5 24       		.uleb128 0x24
 5440 11d6 01       		.uleb128 0x1
 5441 11d7 52       		.byte	0x52
 5442 11d8 01       		.uleb128 0x1
 5443 11d9 30       		.byte	0x30
 5444 11da 24       		.uleb128 0x24
 5445 11db 01       		.uleb128 0x1
 5446 11dc 51       		.byte	0x51
 5447 11dd 01       		.uleb128 0x1
 5448 11de 30       		.byte	0x30
 5449 11df 00       		.byte	0
 5450 11e0 23       		.uleb128 0x23
 5451 11e1 3A030000 		.4byte	.LVL38
 5452 11e5 D01D0000 		.4byte	0x1dd0
 5453 11e9 F5110000 		.4byte	0x11f5
 5454 11ed 24       		.uleb128 0x24
 5455 11ee 01       		.uleb128 0x1
 5456 11ef 50       		.byte	0x50
ARM GAS  /tmp/ccsMqF3p.s 			page 158


 5457 11f0 03       		.uleb128 0x3
 5458 11f1 0A       		.byte	0xa
 5459 11f2 E803     		.2byte	0x3e8
 5460 11f4 00       		.byte	0
 5461 11f5 23       		.uleb128 0x23
 5462 11f6 5E030000 		.4byte	.LVL39
 5463 11fa 361E0000 		.4byte	0x1e36
 5464 11fe 08120000 		.4byte	0x1208
 5465 1202 24       		.uleb128 0x24
 5466 1203 01       		.uleb128 0x1
 5467 1204 51       		.byte	0x51
 5468 1205 01       		.uleb128 0x1
 5469 1206 30       		.byte	0x30
 5470 1207 00       		.byte	0
 5471 1208 23       		.uleb128 0x23
 5472 1209 7C030000 		.4byte	.LVL40
 5473 120d 361E0000 		.4byte	0x1e36
 5474 1211 1B120000 		.4byte	0x121b
 5475 1215 24       		.uleb128 0x24
 5476 1216 01       		.uleb128 0x1
 5477 1217 51       		.byte	0x51
 5478 1218 01       		.uleb128 0x1
 5479 1219 30       		.byte	0x30
 5480 121a 00       		.byte	0
 5481 121b 23       		.uleb128 0x23
 5482 121c 8A030000 		.4byte	.LVL41
 5483 1220 D01D0000 		.4byte	0x1dd0
 5484 1224 30120000 		.4byte	0x1230
 5485 1228 24       		.uleb128 0x24
 5486 1229 01       		.uleb128 0x1
 5487 122a 50       		.byte	0x50
 5488 122b 03       		.uleb128 0x3
 5489 122c 0A       		.byte	0xa
 5490 122d DC05     		.2byte	0x5dc
 5491 122f 00       		.byte	0
 5492 1230 23       		.uleb128 0x23
 5493 1231 B8030000 		.4byte	.LVL42
 5494 1235 361E0000 		.4byte	0x1e36
 5495 1239 48120000 		.4byte	0x1248
 5496 123d 24       		.uleb128 0x24
 5497 123e 01       		.uleb128 0x1
 5498 123f 52       		.byte	0x52
 5499 1240 01       		.uleb128 0x1
 5500 1241 30       		.byte	0x30
 5501 1242 24       		.uleb128 0x24
 5502 1243 01       		.uleb128 0x1
 5503 1244 51       		.byte	0x51
 5504 1245 01       		.uleb128 0x1
 5505 1246 30       		.byte	0x30
 5506 1247 00       		.byte	0
 5507 1248 23       		.uleb128 0x23
 5508 1249 D0030000 		.4byte	.LVL43
 5509 124d 361E0000 		.4byte	0x1e36
 5510 1251 60120000 		.4byte	0x1260
 5511 1255 24       		.uleb128 0x24
 5512 1256 01       		.uleb128 0x1
 5513 1257 52       		.byte	0x52
ARM GAS  /tmp/ccsMqF3p.s 			page 159


 5514 1258 01       		.uleb128 0x1
 5515 1259 30       		.byte	0x30
 5516 125a 24       		.uleb128 0x24
 5517 125b 01       		.uleb128 0x1
 5518 125c 51       		.byte	0x51
 5519 125d 01       		.uleb128 0x1
 5520 125e 30       		.byte	0x30
 5521 125f 00       		.byte	0
 5522 1260 23       		.uleb128 0x23
 5523 1261 DE030000 		.4byte	.LVL44
 5524 1265 D01D0000 		.4byte	0x1dd0
 5525 1269 75120000 		.4byte	0x1275
 5526 126d 24       		.uleb128 0x24
 5527 126e 01       		.uleb128 0x1
 5528 126f 50       		.byte	0x50
 5529 1270 03       		.uleb128 0x3
 5530 1271 0A       		.byte	0xa
 5531 1272 E803     		.2byte	0x3e8
 5532 1274 00       		.byte	0
 5533 1275 23       		.uleb128 0x23
 5534 1276 02040000 		.4byte	.LVL45
 5535 127a 361E0000 		.4byte	0x1e36
 5536 127e 88120000 		.4byte	0x1288
 5537 1282 24       		.uleb128 0x24
 5538 1283 01       		.uleb128 0x1
 5539 1284 51       		.byte	0x51
 5540 1285 01       		.uleb128 0x1
 5541 1286 30       		.byte	0x30
 5542 1287 00       		.byte	0
 5543 1288 23       		.uleb128 0x23
 5544 1289 12040000 		.4byte	.LVL46
 5545 128d 361E0000 		.4byte	0x1e36
 5546 1291 A0120000 		.4byte	0x12a0
 5547 1295 24       		.uleb128 0x24
 5548 1296 01       		.uleb128 0x1
 5549 1297 52       		.byte	0x52
 5550 1298 01       		.uleb128 0x1
 5551 1299 30       		.byte	0x30
 5552 129a 24       		.uleb128 0x24
 5553 129b 01       		.uleb128 0x1
 5554 129c 51       		.byte	0x51
 5555 129d 01       		.uleb128 0x1
 5556 129e 30       		.byte	0x30
 5557 129f 00       		.byte	0
 5558 12a0 23       		.uleb128 0x23
 5559 12a1 20040000 		.4byte	.LVL47
 5560 12a5 D01D0000 		.4byte	0x1dd0
 5561 12a9 B5120000 		.4byte	0x12b5
 5562 12ad 24       		.uleb128 0x24
 5563 12ae 01       		.uleb128 0x1
 5564 12af 50       		.byte	0x50
 5565 12b0 03       		.uleb128 0x3
 5566 12b1 0A       		.byte	0xa
 5567 12b2 2602     		.2byte	0x226
 5568 12b4 00       		.byte	0
 5569 12b5 23       		.uleb128 0x23
 5570 12b6 30040000 		.4byte	.LVL48
ARM GAS  /tmp/ccsMqF3p.s 			page 160


 5571 12ba 361E0000 		.4byte	0x1e36
 5572 12be CD120000 		.4byte	0x12cd
 5573 12c2 24       		.uleb128 0x24
 5574 12c3 01       		.uleb128 0x1
 5575 12c4 52       		.byte	0x52
 5576 12c5 01       		.uleb128 0x1
 5577 12c6 30       		.byte	0x30
 5578 12c7 24       		.uleb128 0x24
 5579 12c8 01       		.uleb128 0x1
 5580 12c9 51       		.byte	0x51
 5581 12ca 01       		.uleb128 0x1
 5582 12cb 30       		.byte	0x30
 5583 12cc 00       		.byte	0
 5584 12cd 23       		.uleb128 0x23
 5585 12ce 40040000 		.4byte	.LVL49
 5586 12d2 361E0000 		.4byte	0x1e36
 5587 12d6 E5120000 		.4byte	0x12e5
 5588 12da 24       		.uleb128 0x24
 5589 12db 01       		.uleb128 0x1
 5590 12dc 52       		.byte	0x52
 5591 12dd 01       		.uleb128 0x1
 5592 12de 30       		.byte	0x30
 5593 12df 24       		.uleb128 0x24
 5594 12e0 01       		.uleb128 0x1
 5595 12e1 51       		.byte	0x51
 5596 12e2 01       		.uleb128 0x1
 5597 12e3 30       		.byte	0x30
 5598 12e4 00       		.byte	0
 5599 12e5 23       		.uleb128 0x23
 5600 12e6 4C040000 		.4byte	.LVL50
 5601 12ea D01D0000 		.4byte	0x1dd0
 5602 12ee F9120000 		.4byte	0x12f9
 5603 12f2 24       		.uleb128 0x24
 5604 12f3 01       		.uleb128 0x1
 5605 12f4 50       		.byte	0x50
 5606 12f5 02       		.uleb128 0x2
 5607 12f6 7A       		.byte	0x7a
 5608 12f7 00       		.sleb128 0
 5609 12f8 00       		.byte	0
 5610 12f9 23       		.uleb128 0x23
 5611 12fa 6E040000 		.4byte	.LVL51
 5612 12fe 361E0000 		.4byte	0x1e36
 5613 1302 0C130000 		.4byte	0x130c
 5614 1306 24       		.uleb128 0x24
 5615 1307 01       		.uleb128 0x1
 5616 1308 51       		.byte	0x51
 5617 1309 01       		.uleb128 0x1
 5618 130a 30       		.byte	0x30
 5619 130b 00       		.byte	0
 5620 130c 23       		.uleb128 0x23
 5621 130d 8E040000 		.4byte	.LVL52
 5622 1311 361E0000 		.4byte	0x1e36
 5623 1315 1F130000 		.4byte	0x131f
 5624 1319 24       		.uleb128 0x24
 5625 131a 01       		.uleb128 0x1
 5626 131b 51       		.byte	0x51
 5627 131c 01       		.uleb128 0x1
ARM GAS  /tmp/ccsMqF3p.s 			page 161


 5628 131d 30       		.byte	0x30
 5629 131e 00       		.byte	0
 5630 131f 23       		.uleb128 0x23
 5631 1320 9C040000 		.4byte	.LVL53
 5632 1324 D01D0000 		.4byte	0x1dd0
 5633 1328 34130000 		.4byte	0x1334
 5634 132c 24       		.uleb128 0x24
 5635 132d 01       		.uleb128 0x1
 5636 132e 50       		.byte	0x50
 5637 132f 03       		.uleb128 0x3
 5638 1330 0A       		.byte	0xa
 5639 1331 DC05     		.2byte	0x5dc
 5640 1333 00       		.byte	0
 5641 1334 23       		.uleb128 0x23
 5642 1335 DA040000 		.4byte	.LVL54
 5643 1339 361E0000 		.4byte	0x1e36
 5644 133d 4C130000 		.4byte	0x134c
 5645 1341 24       		.uleb128 0x24
 5646 1342 01       		.uleb128 0x1
 5647 1343 52       		.byte	0x52
 5648 1344 01       		.uleb128 0x1
 5649 1345 30       		.byte	0x30
 5650 1346 24       		.uleb128 0x24
 5651 1347 01       		.uleb128 0x1
 5652 1348 51       		.byte	0x51
 5653 1349 01       		.uleb128 0x1
 5654 134a 30       		.byte	0x30
 5655 134b 00       		.byte	0
 5656 134c 23       		.uleb128 0x23
 5657 134d F2040000 		.4byte	.LVL55
 5658 1351 361E0000 		.4byte	0x1e36
 5659 1355 64130000 		.4byte	0x1364
 5660 1359 24       		.uleb128 0x24
 5661 135a 01       		.uleb128 0x1
 5662 135b 52       		.byte	0x52
 5663 135c 01       		.uleb128 0x1
 5664 135d 30       		.byte	0x30
 5665 135e 24       		.uleb128 0x24
 5666 135f 01       		.uleb128 0x1
 5667 1360 51       		.byte	0x51
 5668 1361 01       		.uleb128 0x1
 5669 1362 30       		.byte	0x30
 5670 1363 00       		.byte	0
 5671 1364 23       		.uleb128 0x23
 5672 1365 00050000 		.4byte	.LVL56
 5673 1369 D01D0000 		.4byte	0x1dd0
 5674 136d 79130000 		.4byte	0x1379
 5675 1371 24       		.uleb128 0x24
 5676 1372 01       		.uleb128 0x1
 5677 1373 50       		.byte	0x50
 5678 1374 03       		.uleb128 0x3
 5679 1375 0A       		.byte	0xa
 5680 1376 E803     		.2byte	0x3e8
 5681 1378 00       		.byte	0
 5682 1379 23       		.uleb128 0x23
 5683 137a 24050000 		.4byte	.LVL57
 5684 137e 361E0000 		.4byte	0x1e36
ARM GAS  /tmp/ccsMqF3p.s 			page 162


 5685 1382 8C130000 		.4byte	0x138c
 5686 1386 24       		.uleb128 0x24
 5687 1387 01       		.uleb128 0x1
 5688 1388 51       		.byte	0x51
 5689 1389 01       		.uleb128 0x1
 5690 138a 30       		.byte	0x30
 5691 138b 00       		.byte	0
 5692 138c 23       		.uleb128 0x23
 5693 138d 34050000 		.4byte	.LVL58
 5694 1391 361E0000 		.4byte	0x1e36
 5695 1395 A4130000 		.4byte	0x13a4
 5696 1399 24       		.uleb128 0x24
 5697 139a 01       		.uleb128 0x1
 5698 139b 52       		.byte	0x52
 5699 139c 01       		.uleb128 0x1
 5700 139d 30       		.byte	0x30
 5701 139e 24       		.uleb128 0x24
 5702 139f 01       		.uleb128 0x1
 5703 13a0 51       		.byte	0x51
 5704 13a1 01       		.uleb128 0x1
 5705 13a2 30       		.byte	0x30
 5706 13a3 00       		.byte	0
 5707 13a4 23       		.uleb128 0x23
 5708 13a5 42050000 		.4byte	.LVL59
 5709 13a9 D01D0000 		.4byte	0x1dd0
 5710 13ad B9130000 		.4byte	0x13b9
 5711 13b1 24       		.uleb128 0x24
 5712 13b2 01       		.uleb128 0x1
 5713 13b3 50       		.byte	0x50
 5714 13b4 03       		.uleb128 0x3
 5715 13b5 0A       		.byte	0xa
 5716 13b6 2602     		.2byte	0x226
 5717 13b8 00       		.byte	0
 5718 13b9 23       		.uleb128 0x23
 5719 13ba 52050000 		.4byte	.LVL60
 5720 13be 361E0000 		.4byte	0x1e36
 5721 13c2 D1130000 		.4byte	0x13d1
 5722 13c6 24       		.uleb128 0x24
 5723 13c7 01       		.uleb128 0x1
 5724 13c8 52       		.byte	0x52
 5725 13c9 01       		.uleb128 0x1
 5726 13ca 30       		.byte	0x30
 5727 13cb 24       		.uleb128 0x24
 5728 13cc 01       		.uleb128 0x1
 5729 13cd 51       		.byte	0x51
 5730 13ce 01       		.uleb128 0x1
 5731 13cf 30       		.byte	0x30
 5732 13d0 00       		.byte	0
 5733 13d1 23       		.uleb128 0x23
 5734 13d2 62050000 		.4byte	.LVL61
 5735 13d6 361E0000 		.4byte	0x1e36
 5736 13da E9130000 		.4byte	0x13e9
 5737 13de 24       		.uleb128 0x24
 5738 13df 01       		.uleb128 0x1
 5739 13e0 52       		.byte	0x52
 5740 13e1 01       		.uleb128 0x1
 5741 13e2 30       		.byte	0x30
ARM GAS  /tmp/ccsMqF3p.s 			page 163


 5742 13e3 24       		.uleb128 0x24
 5743 13e4 01       		.uleb128 0x1
 5744 13e5 51       		.byte	0x51
 5745 13e6 01       		.uleb128 0x1
 5746 13e7 30       		.byte	0x30
 5747 13e8 00       		.byte	0
 5748 13e9 23       		.uleb128 0x23
 5749 13ea 6E050000 		.4byte	.LVL62
 5750 13ee D01D0000 		.4byte	0x1dd0
 5751 13f2 FD130000 		.4byte	0x13fd
 5752 13f6 24       		.uleb128 0x24
 5753 13f7 01       		.uleb128 0x1
 5754 13f8 50       		.byte	0x50
 5755 13f9 02       		.uleb128 0x2
 5756 13fa 7A       		.byte	0x7a
 5757 13fb 00       		.sleb128 0
 5758 13fc 00       		.byte	0
 5759 13fd 23       		.uleb128 0x23
 5760 13fe CC050000 		.4byte	.LVL63
 5761 1402 361E0000 		.4byte	0x1e36
 5762 1406 10140000 		.4byte	0x1410
 5763 140a 24       		.uleb128 0x24
 5764 140b 01       		.uleb128 0x1
 5765 140c 51       		.byte	0x51
 5766 140d 01       		.uleb128 0x1
 5767 140e 30       		.byte	0x30
 5768 140f 00       		.byte	0
 5769 1410 23       		.uleb128 0x23
 5770 1411 F8050000 		.4byte	.LVL64
 5771 1415 361E0000 		.4byte	0x1e36
 5772 1419 23140000 		.4byte	0x1423
 5773 141d 24       		.uleb128 0x24
 5774 141e 01       		.uleb128 0x1
 5775 141f 51       		.byte	0x51
 5776 1420 01       		.uleb128 0x1
 5777 1421 30       		.byte	0x30
 5778 1422 00       		.byte	0
 5779 1423 23       		.uleb128 0x23
 5780 1424 08060000 		.4byte	.LVL65
 5781 1428 D01D0000 		.4byte	0x1dd0
 5782 142c 38140000 		.4byte	0x1438
 5783 1430 24       		.uleb128 0x24
 5784 1431 01       		.uleb128 0x1
 5785 1432 50       		.byte	0x50
 5786 1433 03       		.uleb128 0x3
 5787 1434 0A       		.byte	0xa
 5788 1435 DC05     		.2byte	0x5dc
 5789 1437 00       		.byte	0
 5790 1438 23       		.uleb128 0x23
 5791 1439 22060000 		.4byte	.LVL66
 5792 143d 361E0000 		.4byte	0x1e36
 5793 1441 50140000 		.4byte	0x1450
 5794 1445 24       		.uleb128 0x24
 5795 1446 01       		.uleb128 0x1
 5796 1447 52       		.byte	0x52
 5797 1448 01       		.uleb128 0x1
 5798 1449 30       		.byte	0x30
ARM GAS  /tmp/ccsMqF3p.s 			page 164


 5799 144a 24       		.uleb128 0x24
 5800 144b 01       		.uleb128 0x1
 5801 144c 51       		.byte	0x51
 5802 144d 01       		.uleb128 0x1
 5803 144e 30       		.byte	0x30
 5804 144f 00       		.byte	0
 5805 1450 23       		.uleb128 0x23
 5806 1451 32060000 		.4byte	.LVL67
 5807 1455 361E0000 		.4byte	0x1e36
 5808 1459 68140000 		.4byte	0x1468
 5809 145d 24       		.uleb128 0x24
 5810 145e 01       		.uleb128 0x1
 5811 145f 52       		.byte	0x52
 5812 1460 01       		.uleb128 0x1
 5813 1461 30       		.byte	0x30
 5814 1462 24       		.uleb128 0x24
 5815 1463 01       		.uleb128 0x1
 5816 1464 51       		.byte	0x51
 5817 1465 01       		.uleb128 0x1
 5818 1466 30       		.byte	0x30
 5819 1467 00       		.byte	0
 5820 1468 23       		.uleb128 0x23
 5821 1469 42060000 		.4byte	.LVL68
 5822 146d D01D0000 		.4byte	0x1dd0
 5823 1471 7D140000 		.4byte	0x147d
 5824 1475 24       		.uleb128 0x24
 5825 1476 01       		.uleb128 0x1
 5826 1477 50       		.byte	0x50
 5827 1478 03       		.uleb128 0x3
 5828 1479 0A       		.byte	0xa
 5829 147a E803     		.2byte	0x3e8
 5830 147c 00       		.byte	0
 5831 147d 23       		.uleb128 0x23
 5832 147e EC060000 		.4byte	.LVL69
 5833 1482 361E0000 		.4byte	0x1e36
 5834 1486 95140000 		.4byte	0x1495
 5835 148a 24       		.uleb128 0x24
 5836 148b 01       		.uleb128 0x1
 5837 148c 52       		.byte	0x52
 5838 148d 01       		.uleb128 0x1
 5839 148e 30       		.byte	0x30
 5840 148f 24       		.uleb128 0x24
 5841 1490 01       		.uleb128 0x1
 5842 1491 51       		.byte	0x51
 5843 1492 01       		.uleb128 0x1
 5844 1493 30       		.byte	0x30
 5845 1494 00       		.byte	0
 5846 1495 23       		.uleb128 0x23
 5847 1496 04070000 		.4byte	.LVL70
 5848 149a 361E0000 		.4byte	0x1e36
 5849 149e AD140000 		.4byte	0x14ad
 5850 14a2 24       		.uleb128 0x24
 5851 14a3 01       		.uleb128 0x1
 5852 14a4 52       		.byte	0x52
 5853 14a5 01       		.uleb128 0x1
 5854 14a6 30       		.byte	0x30
 5855 14a7 24       		.uleb128 0x24
ARM GAS  /tmp/ccsMqF3p.s 			page 165


 5856 14a8 01       		.uleb128 0x1
 5857 14a9 51       		.byte	0x51
 5858 14aa 01       		.uleb128 0x1
 5859 14ab 30       		.byte	0x30
 5860 14ac 00       		.byte	0
 5861 14ad 23       		.uleb128 0x23
 5862 14ae 14070000 		.4byte	.LVL71
 5863 14b2 D01D0000 		.4byte	0x1dd0
 5864 14b6 C2140000 		.4byte	0x14c2
 5865 14ba 24       		.uleb128 0x24
 5866 14bb 01       		.uleb128 0x1
 5867 14bc 50       		.byte	0x50
 5868 14bd 03       		.uleb128 0x3
 5869 14be 0A       		.byte	0xa
 5870 14bf E803     		.2byte	0x3e8
 5871 14c1 00       		.byte	0
 5872 14c2 23       		.uleb128 0x23
 5873 14c3 3A070000 		.4byte	.LVL72
 5874 14c7 361E0000 		.4byte	0x1e36
 5875 14cb D5140000 		.4byte	0x14d5
 5876 14cf 24       		.uleb128 0x24
 5877 14d0 01       		.uleb128 0x1
 5878 14d1 51       		.byte	0x51
 5879 14d2 01       		.uleb128 0x1
 5880 14d3 30       		.byte	0x30
 5881 14d4 00       		.byte	0
 5882 14d5 23       		.uleb128 0x23
 5883 14d6 4A070000 		.4byte	.LVL73
 5884 14da 361E0000 		.4byte	0x1e36
 5885 14de ED140000 		.4byte	0x14ed
 5886 14e2 24       		.uleb128 0x24
 5887 14e3 01       		.uleb128 0x1
 5888 14e4 52       		.byte	0x52
 5889 14e5 01       		.uleb128 0x1
 5890 14e6 30       		.byte	0x30
 5891 14e7 24       		.uleb128 0x24
 5892 14e8 01       		.uleb128 0x1
 5893 14e9 51       		.byte	0x51
 5894 14ea 01       		.uleb128 0x1
 5895 14eb 30       		.byte	0x30
 5896 14ec 00       		.byte	0
 5897 14ed 23       		.uleb128 0x23
 5898 14ee 5A070000 		.4byte	.LVL74
 5899 14f2 D01D0000 		.4byte	0x1dd0
 5900 14f6 02150000 		.4byte	0x1502
 5901 14fa 24       		.uleb128 0x24
 5902 14fb 01       		.uleb128 0x1
 5903 14fc 50       		.byte	0x50
 5904 14fd 03       		.uleb128 0x3
 5905 14fe 0A       		.byte	0xa
 5906 14ff 2602     		.2byte	0x226
 5907 1501 00       		.byte	0
 5908 1502 23       		.uleb128 0x23
 5909 1503 6A070000 		.4byte	.LVL75
 5910 1507 361E0000 		.4byte	0x1e36
 5911 150b 1A150000 		.4byte	0x151a
 5912 150f 24       		.uleb128 0x24
ARM GAS  /tmp/ccsMqF3p.s 			page 166


 5913 1510 01       		.uleb128 0x1
 5914 1511 52       		.byte	0x52
 5915 1512 01       		.uleb128 0x1
 5916 1513 30       		.byte	0x30
 5917 1514 24       		.uleb128 0x24
 5918 1515 01       		.uleb128 0x1
 5919 1516 51       		.byte	0x51
 5920 1517 01       		.uleb128 0x1
 5921 1518 30       		.byte	0x30
 5922 1519 00       		.byte	0
 5923 151a 23       		.uleb128 0x23
 5924 151b 7A070000 		.4byte	.LVL76
 5925 151f 361E0000 		.4byte	0x1e36
 5926 1523 32150000 		.4byte	0x1532
 5927 1527 24       		.uleb128 0x24
 5928 1528 01       		.uleb128 0x1
 5929 1529 52       		.byte	0x52
 5930 152a 01       		.uleb128 0x1
 5931 152b 30       		.byte	0x30
 5932 152c 24       		.uleb128 0x24
 5933 152d 01       		.uleb128 0x1
 5934 152e 51       		.byte	0x51
 5935 152f 01       		.uleb128 0x1
 5936 1530 30       		.byte	0x30
 5937 1531 00       		.byte	0
 5938 1532 27       		.uleb128 0x27
 5939 1533 8C070000 		.4byte	.LVL77
 5940 1537 D01D0000 		.4byte	0x1dd0
 5941 153b 23       		.uleb128 0x23
 5942 153c DA070000 		.4byte	.LVL78
 5943 1540 361E0000 		.4byte	0x1e36
 5944 1544 53150000 		.4byte	0x1553
 5945 1548 24       		.uleb128 0x24
 5946 1549 01       		.uleb128 0x1
 5947 154a 52       		.byte	0x52
 5948 154b 01       		.uleb128 0x1
 5949 154c 30       		.byte	0x30
 5950 154d 24       		.uleb128 0x24
 5951 154e 01       		.uleb128 0x1
 5952 154f 51       		.byte	0x51
 5953 1550 01       		.uleb128 0x1
 5954 1551 30       		.byte	0x30
 5955 1552 00       		.byte	0
 5956 1553 23       		.uleb128 0x23
 5957 1554 F2070000 		.4byte	.LVL79
 5958 1558 361E0000 		.4byte	0x1e36
 5959 155c 6B150000 		.4byte	0x156b
 5960 1560 24       		.uleb128 0x24
 5961 1561 01       		.uleb128 0x1
 5962 1562 52       		.byte	0x52
 5963 1563 01       		.uleb128 0x1
 5964 1564 30       		.byte	0x30
 5965 1565 24       		.uleb128 0x24
 5966 1566 01       		.uleb128 0x1
 5967 1567 51       		.byte	0x51
 5968 1568 01       		.uleb128 0x1
 5969 1569 30       		.byte	0x30
ARM GAS  /tmp/ccsMqF3p.s 			page 167


 5970 156a 00       		.byte	0
 5971 156b 23       		.uleb128 0x23
 5972 156c 02080000 		.4byte	.LVL80
 5973 1570 D01D0000 		.4byte	0x1dd0
 5974 1574 80150000 		.4byte	0x1580
 5975 1578 24       		.uleb128 0x24
 5976 1579 01       		.uleb128 0x1
 5977 157a 50       		.byte	0x50
 5978 157b 03       		.uleb128 0x3
 5979 157c 0A       		.byte	0xa
 5980 157d E803     		.2byte	0x3e8
 5981 157f 00       		.byte	0
 5982 1580 23       		.uleb128 0x23
 5983 1581 12080000 		.4byte	.LVL81
 5984 1585 361E0000 		.4byte	0x1e36
 5985 1589 98150000 		.4byte	0x1598
 5986 158d 24       		.uleb128 0x24
 5987 158e 01       		.uleb128 0x1
 5988 158f 52       		.byte	0x52
 5989 1590 01       		.uleb128 0x1
 5990 1591 30       		.byte	0x30
 5991 1592 24       		.uleb128 0x24
 5992 1593 01       		.uleb128 0x1
 5993 1594 51       		.byte	0x51
 5994 1595 01       		.uleb128 0x1
 5995 1596 30       		.byte	0x30
 5996 1597 00       		.byte	0
 5997 1598 23       		.uleb128 0x23
 5998 1599 3A080000 		.4byte	.LVL82
 5999 159d 361E0000 		.4byte	0x1e36
 6000 15a1 AB150000 		.4byte	0x15ab
 6001 15a5 24       		.uleb128 0x24
 6002 15a6 01       		.uleb128 0x1
 6003 15a7 51       		.byte	0x51
 6004 15a8 01       		.uleb128 0x1
 6005 15a9 30       		.byte	0x30
 6006 15aa 00       		.byte	0
 6007 15ab 23       		.uleb128 0x23
 6008 15ac 4A080000 		.4byte	.LVL83
 6009 15b0 D01D0000 		.4byte	0x1dd0
 6010 15b4 C0150000 		.4byte	0x15c0
 6011 15b8 24       		.uleb128 0x24
 6012 15b9 01       		.uleb128 0x1
 6013 15ba 50       		.byte	0x50
 6014 15bb 03       		.uleb128 0x3
 6015 15bc 0A       		.byte	0xa
 6016 15bd 2602     		.2byte	0x226
 6017 15bf 00       		.byte	0
 6018 15c0 23       		.uleb128 0x23
 6019 15c1 5A080000 		.4byte	.LVL84
 6020 15c5 361E0000 		.4byte	0x1e36
 6021 15c9 D8150000 		.4byte	0x15d8
 6022 15cd 24       		.uleb128 0x24
 6023 15ce 01       		.uleb128 0x1
 6024 15cf 52       		.byte	0x52
 6025 15d0 01       		.uleb128 0x1
 6026 15d1 30       		.byte	0x30
ARM GAS  /tmp/ccsMqF3p.s 			page 168


 6027 15d2 24       		.uleb128 0x24
 6028 15d3 01       		.uleb128 0x1
 6029 15d4 51       		.byte	0x51
 6030 15d5 01       		.uleb128 0x1
 6031 15d6 30       		.byte	0x30
 6032 15d7 00       		.byte	0
 6033 15d8 23       		.uleb128 0x23
 6034 15d9 6A080000 		.4byte	.LVL85
 6035 15dd 361E0000 		.4byte	0x1e36
 6036 15e1 F0150000 		.4byte	0x15f0
 6037 15e5 24       		.uleb128 0x24
 6038 15e6 01       		.uleb128 0x1
 6039 15e7 52       		.byte	0x52
 6040 15e8 01       		.uleb128 0x1
 6041 15e9 30       		.byte	0x30
 6042 15ea 24       		.uleb128 0x24
 6043 15eb 01       		.uleb128 0x1
 6044 15ec 51       		.byte	0x51
 6045 15ed 01       		.uleb128 0x1
 6046 15ee 30       		.byte	0x30
 6047 15ef 00       		.byte	0
 6048 15f0 23       		.uleb128 0x23
 6049 15f1 7A080000 		.4byte	.LVL86
 6050 15f5 D01D0000 		.4byte	0x1dd0
 6051 15f9 05160000 		.4byte	0x1605
 6052 15fd 24       		.uleb128 0x24
 6053 15fe 01       		.uleb128 0x1
 6054 15ff 50       		.byte	0x50
 6055 1600 03       		.uleb128 0x3
 6056 1601 0A       		.byte	0xa
 6057 1602 E803     		.2byte	0x3e8
 6058 1604 00       		.byte	0
 6059 1605 23       		.uleb128 0x23
 6060 1606 A2080000 		.4byte	.LVL87
 6061 160a 361E0000 		.4byte	0x1e36
 6062 160e 18160000 		.4byte	0x1618
 6063 1612 24       		.uleb128 0x24
 6064 1613 01       		.uleb128 0x1
 6065 1614 51       		.byte	0x51
 6066 1615 01       		.uleb128 0x1
 6067 1616 30       		.byte	0x30
 6068 1617 00       		.byte	0
 6069 1618 23       		.uleb128 0x23
 6070 1619 C6080000 		.4byte	.LVL88
 6071 161d 361E0000 		.4byte	0x1e36
 6072 1621 2B160000 		.4byte	0x162b
 6073 1625 24       		.uleb128 0x24
 6074 1626 01       		.uleb128 0x1
 6075 1627 51       		.byte	0x51
 6076 1628 01       		.uleb128 0x1
 6077 1629 30       		.byte	0x30
 6078 162a 00       		.byte	0
 6079 162b 23       		.uleb128 0x23
 6080 162c D6080000 		.4byte	.LVL89
 6081 1630 D01D0000 		.4byte	0x1dd0
 6082 1634 40160000 		.4byte	0x1640
 6083 1638 24       		.uleb128 0x24
ARM GAS  /tmp/ccsMqF3p.s 			page 169


 6084 1639 01       		.uleb128 0x1
 6085 163a 50       		.byte	0x50
 6086 163b 03       		.uleb128 0x3
 6087 163c 0A       		.byte	0xa
 6088 163d DC05     		.2byte	0x5dc
 6089 163f 00       		.byte	0
 6090 1640 23       		.uleb128 0x23
 6091 1641 F2080000 		.4byte	.LVL90
 6092 1645 361E0000 		.4byte	0x1e36
 6093 1649 58160000 		.4byte	0x1658
 6094 164d 24       		.uleb128 0x24
 6095 164e 01       		.uleb128 0x1
 6096 164f 52       		.byte	0x52
 6097 1650 01       		.uleb128 0x1
 6098 1651 30       		.byte	0x30
 6099 1652 24       		.uleb128 0x24
 6100 1653 01       		.uleb128 0x1
 6101 1654 51       		.byte	0x51
 6102 1655 01       		.uleb128 0x1
 6103 1656 30       		.byte	0x30
 6104 1657 00       		.byte	0
 6105 1658 23       		.uleb128 0x23
 6106 1659 02090000 		.4byte	.LVL91
 6107 165d 361E0000 		.4byte	0x1e36
 6108 1661 70160000 		.4byte	0x1670
 6109 1665 24       		.uleb128 0x24
 6110 1666 01       		.uleb128 0x1
 6111 1667 52       		.byte	0x52
 6112 1668 01       		.uleb128 0x1
 6113 1669 30       		.byte	0x30
 6114 166a 24       		.uleb128 0x24
 6115 166b 01       		.uleb128 0x1
 6116 166c 51       		.byte	0x51
 6117 166d 01       		.uleb128 0x1
 6118 166e 30       		.byte	0x30
 6119 166f 00       		.byte	0
 6120 1670 23       		.uleb128 0x23
 6121 1671 12090000 		.4byte	.LVL92
 6122 1675 D01D0000 		.4byte	0x1dd0
 6123 1679 85160000 		.4byte	0x1685
 6124 167d 24       		.uleb128 0x24
 6125 167e 01       		.uleb128 0x1
 6126 167f 50       		.byte	0x50
 6127 1680 03       		.uleb128 0x3
 6128 1681 0A       		.byte	0xa
 6129 1682 E803     		.2byte	0x3e8
 6130 1684 00       		.byte	0
 6131 1685 23       		.uleb128 0x23
 6132 1686 36090000 		.4byte	.LVL93
 6133 168a 361E0000 		.4byte	0x1e36
 6134 168e 98160000 		.4byte	0x1698
 6135 1692 24       		.uleb128 0x24
 6136 1693 01       		.uleb128 0x1
 6137 1694 51       		.byte	0x51
 6138 1695 01       		.uleb128 0x1
 6139 1696 30       		.byte	0x30
 6140 1697 00       		.byte	0
ARM GAS  /tmp/ccsMqF3p.s 			page 170


 6141 1698 23       		.uleb128 0x23
 6142 1699 46090000 		.4byte	.LVL94
 6143 169d 361E0000 		.4byte	0x1e36
 6144 16a1 B0160000 		.4byte	0x16b0
 6145 16a5 24       		.uleb128 0x24
 6146 16a6 01       		.uleb128 0x1
 6147 16a7 52       		.byte	0x52
 6148 16a8 01       		.uleb128 0x1
 6149 16a9 30       		.byte	0x30
 6150 16aa 24       		.uleb128 0x24
 6151 16ab 01       		.uleb128 0x1
 6152 16ac 51       		.byte	0x51
 6153 16ad 01       		.uleb128 0x1
 6154 16ae 30       		.byte	0x30
 6155 16af 00       		.byte	0
 6156 16b0 23       		.uleb128 0x23
 6157 16b1 56090000 		.4byte	.LVL95
 6158 16b5 D01D0000 		.4byte	0x1dd0
 6159 16b9 C5160000 		.4byte	0x16c5
 6160 16bd 24       		.uleb128 0x24
 6161 16be 01       		.uleb128 0x1
 6162 16bf 50       		.byte	0x50
 6163 16c0 03       		.uleb128 0x3
 6164 16c1 0A       		.byte	0xa
 6165 16c2 2602     		.2byte	0x226
 6166 16c4 00       		.byte	0
 6167 16c5 23       		.uleb128 0x23
 6168 16c6 66090000 		.4byte	.LVL96
 6169 16ca 361E0000 		.4byte	0x1e36
 6170 16ce DD160000 		.4byte	0x16dd
 6171 16d2 24       		.uleb128 0x24
 6172 16d3 01       		.uleb128 0x1
 6173 16d4 52       		.byte	0x52
 6174 16d5 01       		.uleb128 0x1
 6175 16d6 30       		.byte	0x30
 6176 16d7 24       		.uleb128 0x24
 6177 16d8 01       		.uleb128 0x1
 6178 16d9 51       		.byte	0x51
 6179 16da 01       		.uleb128 0x1
 6180 16db 30       		.byte	0x30
 6181 16dc 00       		.byte	0
 6182 16dd 23       		.uleb128 0x23
 6183 16de 76090000 		.4byte	.LVL97
 6184 16e2 361E0000 		.4byte	0x1e36
 6185 16e6 F5160000 		.4byte	0x16f5
 6186 16ea 24       		.uleb128 0x24
 6187 16eb 01       		.uleb128 0x1
 6188 16ec 52       		.byte	0x52
 6189 16ed 01       		.uleb128 0x1
 6190 16ee 30       		.byte	0x30
 6191 16ef 24       		.uleb128 0x24
 6192 16f0 01       		.uleb128 0x1
 6193 16f1 51       		.byte	0x51
 6194 16f2 01       		.uleb128 0x1
 6195 16f3 30       		.byte	0x30
 6196 16f4 00       		.byte	0
 6197 16f5 23       		.uleb128 0x23
ARM GAS  /tmp/ccsMqF3p.s 			page 171


 6198 16f6 86090000 		.4byte	.LVL98
 6199 16fa D01D0000 		.4byte	0x1dd0
 6200 16fe 0A170000 		.4byte	0x170a
 6201 1702 24       		.uleb128 0x24
 6202 1703 01       		.uleb128 0x1
 6203 1704 50       		.byte	0x50
 6204 1705 03       		.uleb128 0x3
 6205 1706 0A       		.byte	0xa
 6206 1707 E803     		.2byte	0x3e8
 6207 1709 00       		.byte	0
 6208 170a 23       		.uleb128 0x23
 6209 170b AE090000 		.4byte	.LVL99
 6210 170f 361E0000 		.4byte	0x1e36
 6211 1713 1D170000 		.4byte	0x171d
 6212 1717 24       		.uleb128 0x24
 6213 1718 01       		.uleb128 0x1
 6214 1719 51       		.byte	0x51
 6215 171a 01       		.uleb128 0x1
 6216 171b 30       		.byte	0x30
 6217 171c 00       		.byte	0
 6218 171d 23       		.uleb128 0x23
 6219 171e D2090000 		.4byte	.LVL100
 6220 1722 361E0000 		.4byte	0x1e36
 6221 1726 30170000 		.4byte	0x1730
 6222 172a 24       		.uleb128 0x24
 6223 172b 01       		.uleb128 0x1
 6224 172c 51       		.byte	0x51
 6225 172d 01       		.uleb128 0x1
 6226 172e 30       		.byte	0x30
 6227 172f 00       		.byte	0
 6228 1730 23       		.uleb128 0x23
 6229 1731 E2090000 		.4byte	.LVL101
 6230 1735 D01D0000 		.4byte	0x1dd0
 6231 1739 45170000 		.4byte	0x1745
 6232 173d 24       		.uleb128 0x24
 6233 173e 01       		.uleb128 0x1
 6234 173f 50       		.byte	0x50
 6235 1740 03       		.uleb128 0x3
 6236 1741 0A       		.byte	0xa
 6237 1742 DC05     		.2byte	0x5dc
 6238 1744 00       		.byte	0
 6239 1745 23       		.uleb128 0x23
 6240 1746 FC090000 		.4byte	.LVL102
 6241 174a 361E0000 		.4byte	0x1e36
 6242 174e 5D170000 		.4byte	0x175d
 6243 1752 24       		.uleb128 0x24
 6244 1753 01       		.uleb128 0x1
 6245 1754 52       		.byte	0x52
 6246 1755 01       		.uleb128 0x1
 6247 1756 30       		.byte	0x30
 6248 1757 24       		.uleb128 0x24
 6249 1758 01       		.uleb128 0x1
 6250 1759 51       		.byte	0x51
 6251 175a 01       		.uleb128 0x1
 6252 175b 30       		.byte	0x30
 6253 175c 00       		.byte	0
 6254 175d 23       		.uleb128 0x23
ARM GAS  /tmp/ccsMqF3p.s 			page 172


 6255 175e 0C0A0000 		.4byte	.LVL103
 6256 1762 361E0000 		.4byte	0x1e36
 6257 1766 75170000 		.4byte	0x1775
 6258 176a 24       		.uleb128 0x24
 6259 176b 01       		.uleb128 0x1
 6260 176c 52       		.byte	0x52
 6261 176d 01       		.uleb128 0x1
 6262 176e 30       		.byte	0x30
 6263 176f 24       		.uleb128 0x24
 6264 1770 01       		.uleb128 0x1
 6265 1771 51       		.byte	0x51
 6266 1772 01       		.uleb128 0x1
 6267 1773 30       		.byte	0x30
 6268 1774 00       		.byte	0
 6269 1775 23       		.uleb128 0x23
 6270 1776 1C0A0000 		.4byte	.LVL104
 6271 177a D01D0000 		.4byte	0x1dd0
 6272 177e 8A170000 		.4byte	0x178a
 6273 1782 24       		.uleb128 0x24
 6274 1783 01       		.uleb128 0x1
 6275 1784 50       		.byte	0x50
 6276 1785 03       		.uleb128 0x3
 6277 1786 0A       		.byte	0xa
 6278 1787 E803     		.2byte	0x3e8
 6279 1789 00       		.byte	0
 6280 178a 23       		.uleb128 0x23
 6281 178b 4E0A0000 		.4byte	.LVL105
 6282 178f 361E0000 		.4byte	0x1e36
 6283 1793 9D170000 		.4byte	0x179d
 6284 1797 24       		.uleb128 0x24
 6285 1798 01       		.uleb128 0x1
 6286 1799 51       		.byte	0x51
 6287 179a 01       		.uleb128 0x1
 6288 179b 30       		.byte	0x30
 6289 179c 00       		.byte	0
 6290 179d 23       		.uleb128 0x23
 6291 179e 7A0A0000 		.4byte	.LVL106
 6292 17a2 361E0000 		.4byte	0x1e36
 6293 17a6 B0170000 		.4byte	0x17b0
 6294 17aa 24       		.uleb128 0x24
 6295 17ab 01       		.uleb128 0x1
 6296 17ac 51       		.byte	0x51
 6297 17ad 01       		.uleb128 0x1
 6298 17ae 30       		.byte	0x30
 6299 17af 00       		.byte	0
 6300 17b0 23       		.uleb128 0x23
 6301 17b1 8A0A0000 		.4byte	.LVL107
 6302 17b5 D01D0000 		.4byte	0x1dd0
 6303 17b9 C5170000 		.4byte	0x17c5
 6304 17bd 24       		.uleb128 0x24
 6305 17be 01       		.uleb128 0x1
 6306 17bf 50       		.byte	0x50
 6307 17c0 03       		.uleb128 0x3
 6308 17c1 0A       		.byte	0xa
 6309 17c2 E803     		.2byte	0x3e8
 6310 17c4 00       		.byte	0
 6311 17c5 23       		.uleb128 0x23
ARM GAS  /tmp/ccsMqF3p.s 			page 173


 6312 17c6 A40A0000 		.4byte	.LVL108
 6313 17ca 361E0000 		.4byte	0x1e36
 6314 17ce DD170000 		.4byte	0x17dd
 6315 17d2 24       		.uleb128 0x24
 6316 17d3 01       		.uleb128 0x1
 6317 17d4 52       		.byte	0x52
 6318 17d5 01       		.uleb128 0x1
 6319 17d6 30       		.byte	0x30
 6320 17d7 24       		.uleb128 0x24
 6321 17d8 01       		.uleb128 0x1
 6322 17d9 51       		.byte	0x51
 6323 17da 01       		.uleb128 0x1
 6324 17db 30       		.byte	0x30
 6325 17dc 00       		.byte	0
 6326 17dd 23       		.uleb128 0x23
 6327 17de B40A0000 		.4byte	.LVL109
 6328 17e2 361E0000 		.4byte	0x1e36
 6329 17e6 F5170000 		.4byte	0x17f5
 6330 17ea 24       		.uleb128 0x24
 6331 17eb 01       		.uleb128 0x1
 6332 17ec 52       		.byte	0x52
 6333 17ed 01       		.uleb128 0x1
 6334 17ee 30       		.byte	0x30
 6335 17ef 24       		.uleb128 0x24
 6336 17f0 01       		.uleb128 0x1
 6337 17f1 51       		.byte	0x51
 6338 17f2 01       		.uleb128 0x1
 6339 17f3 30       		.byte	0x30
 6340 17f4 00       		.byte	0
 6341 17f5 23       		.uleb128 0x23
 6342 17f6 C40A0000 		.4byte	.LVL110
 6343 17fa D01D0000 		.4byte	0x1dd0
 6344 17fe 0A180000 		.4byte	0x180a
 6345 1802 24       		.uleb128 0x24
 6346 1803 01       		.uleb128 0x1
 6347 1804 50       		.byte	0x50
 6348 1805 03       		.uleb128 0x3
 6349 1806 0A       		.byte	0xa
 6350 1807 E803     		.2byte	0x3e8
 6351 1809 00       		.byte	0
 6352 180a 23       		.uleb128 0x23
 6353 180b EC0A0000 		.4byte	.LVL111
 6354 180f 361E0000 		.4byte	0x1e36
 6355 1813 1D180000 		.4byte	0x181d
 6356 1817 24       		.uleb128 0x24
 6357 1818 01       		.uleb128 0x1
 6358 1819 51       		.byte	0x51
 6359 181a 01       		.uleb128 0x1
 6360 181b 30       		.byte	0x30
 6361 181c 00       		.byte	0
 6362 181d 23       		.uleb128 0x23
 6363 181e FC0A0000 		.4byte	.LVL112
 6364 1822 361E0000 		.4byte	0x1e36
 6365 1826 35180000 		.4byte	0x1835
 6366 182a 24       		.uleb128 0x24
 6367 182b 01       		.uleb128 0x1
 6368 182c 52       		.byte	0x52
ARM GAS  /tmp/ccsMqF3p.s 			page 174


 6369 182d 01       		.uleb128 0x1
 6370 182e 30       		.byte	0x30
 6371 182f 24       		.uleb128 0x24
 6372 1830 01       		.uleb128 0x1
 6373 1831 51       		.byte	0x51
 6374 1832 01       		.uleb128 0x1
 6375 1833 30       		.byte	0x30
 6376 1834 00       		.byte	0
 6377 1835 23       		.uleb128 0x23
 6378 1836 0C0B0000 		.4byte	.LVL113
 6379 183a D01D0000 		.4byte	0x1dd0
 6380 183e 4A180000 		.4byte	0x184a
 6381 1842 24       		.uleb128 0x24
 6382 1843 01       		.uleb128 0x1
 6383 1844 50       		.byte	0x50
 6384 1845 03       		.uleb128 0x3
 6385 1846 0A       		.byte	0xa
 6386 1847 2602     		.2byte	0x226
 6387 1849 00       		.byte	0
 6388 184a 23       		.uleb128 0x23
 6389 184b 1C0B0000 		.4byte	.LVL114
 6390 184f 361E0000 		.4byte	0x1e36
 6391 1853 62180000 		.4byte	0x1862
 6392 1857 24       		.uleb128 0x24
 6393 1858 01       		.uleb128 0x1
 6394 1859 52       		.byte	0x52
 6395 185a 01       		.uleb128 0x1
 6396 185b 30       		.byte	0x30
 6397 185c 24       		.uleb128 0x24
 6398 185d 01       		.uleb128 0x1
 6399 185e 51       		.byte	0x51
 6400 185f 01       		.uleb128 0x1
 6401 1860 30       		.byte	0x30
 6402 1861 00       		.byte	0
 6403 1862 23       		.uleb128 0x23
 6404 1863 2C0B0000 		.4byte	.LVL115
 6405 1867 361E0000 		.4byte	0x1e36
 6406 186b 7A180000 		.4byte	0x187a
 6407 186f 24       		.uleb128 0x24
 6408 1870 01       		.uleb128 0x1
 6409 1871 52       		.byte	0x52
 6410 1872 01       		.uleb128 0x1
 6411 1873 30       		.byte	0x30
 6412 1874 24       		.uleb128 0x24
 6413 1875 01       		.uleb128 0x1
 6414 1876 51       		.byte	0x51
 6415 1877 01       		.uleb128 0x1
 6416 1878 30       		.byte	0x30
 6417 1879 00       		.byte	0
 6418 187a 27       		.uleb128 0x27
 6419 187b 3E0B0000 		.4byte	.LVL116
 6420 187f D01D0000 		.4byte	0x1dd0
 6421 1883 27       		.uleb128 0x27
 6422 1884 640B0000 		.4byte	.LVL117
 6423 1888 361E0000 		.4byte	0x1e36
 6424 188c 23       		.uleb128 0x23
 6425 188d 7C0B0000 		.4byte	.LVL118
ARM GAS  /tmp/ccsMqF3p.s 			page 175


 6426 1891 361E0000 		.4byte	0x1e36
 6427 1895 A4180000 		.4byte	0x18a4
 6428 1899 24       		.uleb128 0x24
 6429 189a 01       		.uleb128 0x1
 6430 189b 52       		.byte	0x52
 6431 189c 01       		.uleb128 0x1
 6432 189d 30       		.byte	0x30
 6433 189e 24       		.uleb128 0x24
 6434 189f 01       		.uleb128 0x1
 6435 18a0 51       		.byte	0x51
 6436 18a1 01       		.uleb128 0x1
 6437 18a2 30       		.byte	0x30
 6438 18a3 00       		.byte	0
 6439 18a4 23       		.uleb128 0x23
 6440 18a5 8C0B0000 		.4byte	.LVL119
 6441 18a9 D01D0000 		.4byte	0x1dd0
 6442 18ad B9180000 		.4byte	0x18b9
 6443 18b1 24       		.uleb128 0x24
 6444 18b2 01       		.uleb128 0x1
 6445 18b3 50       		.byte	0x50
 6446 18b4 03       		.uleb128 0x3
 6447 18b5 0A       		.byte	0xa
 6448 18b6 8813     		.2byte	0x1388
 6449 18b8 00       		.byte	0
 6450 18b9 23       		.uleb128 0x23
 6451 18ba AE0B0000 		.4byte	.LVL120
 6452 18be 361E0000 		.4byte	0x1e36
 6453 18c2 CC180000 		.4byte	0x18cc
 6454 18c6 24       		.uleb128 0x24
 6455 18c7 01       		.uleb128 0x1
 6456 18c8 51       		.byte	0x51
 6457 18c9 01       		.uleb128 0x1
 6458 18ca 30       		.byte	0x30
 6459 18cb 00       		.byte	0
 6460 18cc 23       		.uleb128 0x23
 6461 18cd BE0B0000 		.4byte	.LVL121
 6462 18d1 361E0000 		.4byte	0x1e36
 6463 18d5 E4180000 		.4byte	0x18e4
 6464 18d9 24       		.uleb128 0x24
 6465 18da 01       		.uleb128 0x1
 6466 18db 52       		.byte	0x52
 6467 18dc 01       		.uleb128 0x1
 6468 18dd 30       		.byte	0x30
 6469 18de 24       		.uleb128 0x24
 6470 18df 01       		.uleb128 0x1
 6471 18e0 51       		.byte	0x51
 6472 18e1 01       		.uleb128 0x1
 6473 18e2 30       		.byte	0x30
 6474 18e3 00       		.byte	0
 6475 18e4 23       		.uleb128 0x23
 6476 18e5 CE0B0000 		.4byte	.LVL122
 6477 18e9 D01D0000 		.4byte	0x1dd0
 6478 18ed F9180000 		.4byte	0x18f9
 6479 18f1 24       		.uleb128 0x24
 6480 18f2 01       		.uleb128 0x1
 6481 18f3 50       		.byte	0x50
 6482 18f4 03       		.uleb128 0x3
ARM GAS  /tmp/ccsMqF3p.s 			page 176


 6483 18f5 0A       		.byte	0xa
 6484 18f6 2602     		.2byte	0x226
 6485 18f8 00       		.byte	0
 6486 18f9 23       		.uleb128 0x23
 6487 18fa DE0B0000 		.4byte	.LVL123
 6488 18fe 361E0000 		.4byte	0x1e36
 6489 1902 11190000 		.4byte	0x1911
 6490 1906 24       		.uleb128 0x24
 6491 1907 01       		.uleb128 0x1
 6492 1908 52       		.byte	0x52
 6493 1909 01       		.uleb128 0x1
 6494 190a 30       		.byte	0x30
 6495 190b 24       		.uleb128 0x24
 6496 190c 01       		.uleb128 0x1
 6497 190d 51       		.byte	0x51
 6498 190e 01       		.uleb128 0x1
 6499 190f 30       		.byte	0x30
 6500 1910 00       		.byte	0
 6501 1911 23       		.uleb128 0x23
 6502 1912 EE0B0000 		.4byte	.LVL124
 6503 1916 361E0000 		.4byte	0x1e36
 6504 191a 29190000 		.4byte	0x1929
 6505 191e 24       		.uleb128 0x24
 6506 191f 01       		.uleb128 0x1
 6507 1920 52       		.byte	0x52
 6508 1921 01       		.uleb128 0x1
 6509 1922 30       		.byte	0x30
 6510 1923 24       		.uleb128 0x24
 6511 1924 01       		.uleb128 0x1
 6512 1925 51       		.byte	0x51
 6513 1926 01       		.uleb128 0x1
 6514 1927 30       		.byte	0x30
 6515 1928 00       		.byte	0
 6516 1929 23       		.uleb128 0x23
 6517 192a FE0B0000 		.4byte	.LVL125
 6518 192e D01D0000 		.4byte	0x1dd0
 6519 1932 3E190000 		.4byte	0x193e
 6520 1936 24       		.uleb128 0x24
 6521 1937 01       		.uleb128 0x1
 6522 1938 50       		.byte	0x50
 6523 1939 03       		.uleb128 0x3
 6524 193a 0A       		.byte	0xa
 6525 193b E803     		.2byte	0x3e8
 6526 193d 00       		.byte	0
 6527 193e 23       		.uleb128 0x23
 6528 193f 220C0000 		.4byte	.LVL126
 6529 1943 361E0000 		.4byte	0x1e36
 6530 1947 51190000 		.4byte	0x1951
 6531 194b 24       		.uleb128 0x24
 6532 194c 01       		.uleb128 0x1
 6533 194d 51       		.byte	0x51
 6534 194e 01       		.uleb128 0x1
 6535 194f 30       		.byte	0x30
 6536 1950 00       		.byte	0
 6537 1951 23       		.uleb128 0x23
 6538 1952 460C0000 		.4byte	.LVL127
 6539 1956 361E0000 		.4byte	0x1e36
ARM GAS  /tmp/ccsMqF3p.s 			page 177


 6540 195a 64190000 		.4byte	0x1964
 6541 195e 24       		.uleb128 0x24
 6542 195f 01       		.uleb128 0x1
 6543 1960 51       		.byte	0x51
 6544 1961 01       		.uleb128 0x1
 6545 1962 30       		.byte	0x30
 6546 1963 00       		.byte	0
 6547 1964 27       		.uleb128 0x27
 6548 1965 760C0000 		.4byte	.LVL128
 6549 1969 D01D0000 		.4byte	0x1dd0
 6550 196d 23       		.uleb128 0x23
 6551 196e 860C0000 		.4byte	.LVL129
 6552 1972 361E0000 		.4byte	0x1e36
 6553 1976 85190000 		.4byte	0x1985
 6554 197a 24       		.uleb128 0x24
 6555 197b 01       		.uleb128 0x1
 6556 197c 52       		.byte	0x52
 6557 197d 01       		.uleb128 0x1
 6558 197e 30       		.byte	0x30
 6559 197f 24       		.uleb128 0x24
 6560 1980 01       		.uleb128 0x1
 6561 1981 51       		.byte	0x51
 6562 1982 01       		.uleb128 0x1
 6563 1983 30       		.byte	0x30
 6564 1984 00       		.byte	0
 6565 1985 23       		.uleb128 0x23
 6566 1986 960C0000 		.4byte	.LVL130
 6567 198a 361E0000 		.4byte	0x1e36
 6568 198e 9D190000 		.4byte	0x199d
 6569 1992 24       		.uleb128 0x24
 6570 1993 01       		.uleb128 0x1
 6571 1994 52       		.byte	0x52
 6572 1995 01       		.uleb128 0x1
 6573 1996 30       		.byte	0x30
 6574 1997 24       		.uleb128 0x24
 6575 1998 01       		.uleb128 0x1
 6576 1999 51       		.byte	0x51
 6577 199a 01       		.uleb128 0x1
 6578 199b 30       		.byte	0x30
 6579 199c 00       		.byte	0
 6580 199d 23       		.uleb128 0x23
 6581 199e A60C0000 		.4byte	.LVL131
 6582 19a2 D01D0000 		.4byte	0x1dd0
 6583 19a6 B2190000 		.4byte	0x19b2
 6584 19aa 24       		.uleb128 0x24
 6585 19ab 01       		.uleb128 0x1
 6586 19ac 50       		.byte	0x50
 6587 19ad 03       		.uleb128 0x3
 6588 19ae 0A       		.byte	0xa
 6589 19af E803     		.2byte	0x3e8
 6590 19b1 00       		.byte	0
 6591 19b2 23       		.uleb128 0x23
 6592 19b3 B60C0000 		.4byte	.LVL132
 6593 19b7 361E0000 		.4byte	0x1e36
 6594 19bb CA190000 		.4byte	0x19ca
 6595 19bf 24       		.uleb128 0x24
 6596 19c0 01       		.uleb128 0x1
ARM GAS  /tmp/ccsMqF3p.s 			page 178


 6597 19c1 52       		.byte	0x52
 6598 19c2 01       		.uleb128 0x1
 6599 19c3 30       		.byte	0x30
 6600 19c4 24       		.uleb128 0x24
 6601 19c5 01       		.uleb128 0x1
 6602 19c6 51       		.byte	0x51
 6603 19c7 01       		.uleb128 0x1
 6604 19c8 30       		.byte	0x30
 6605 19c9 00       		.byte	0
 6606 19ca 23       		.uleb128 0x23
 6607 19cb DE0C0000 		.4byte	.LVL133
 6608 19cf 361E0000 		.4byte	0x1e36
 6609 19d3 DD190000 		.4byte	0x19dd
 6610 19d7 24       		.uleb128 0x24
 6611 19d8 01       		.uleb128 0x1
 6612 19d9 51       		.byte	0x51
 6613 19da 01       		.uleb128 0x1
 6614 19db 30       		.byte	0x30
 6615 19dc 00       		.byte	0
 6616 19dd 23       		.uleb128 0x23
 6617 19de EE0C0000 		.4byte	.LVL134
 6618 19e2 D01D0000 		.4byte	0x1dd0
 6619 19e6 F2190000 		.4byte	0x19f2
 6620 19ea 24       		.uleb128 0x24
 6621 19eb 01       		.uleb128 0x1
 6622 19ec 50       		.byte	0x50
 6623 19ed 03       		.uleb128 0x3
 6624 19ee 0A       		.byte	0xa
 6625 19ef 2602     		.2byte	0x226
 6626 19f1 00       		.byte	0
 6627 19f2 23       		.uleb128 0x23
 6628 19f3 FE0C0000 		.4byte	.LVL135
 6629 19f7 361E0000 		.4byte	0x1e36
 6630 19fb 0A1A0000 		.4byte	0x1a0a
 6631 19ff 24       		.uleb128 0x24
 6632 1a00 01       		.uleb128 0x1
 6633 1a01 52       		.byte	0x52
 6634 1a02 01       		.uleb128 0x1
 6635 1a03 30       		.byte	0x30
 6636 1a04 24       		.uleb128 0x24
 6637 1a05 01       		.uleb128 0x1
 6638 1a06 51       		.byte	0x51
 6639 1a07 01       		.uleb128 0x1
 6640 1a08 30       		.byte	0x30
 6641 1a09 00       		.byte	0
 6642 1a0a 23       		.uleb128 0x23
 6643 1a0b 0E0D0000 		.4byte	.LVL136
 6644 1a0f 361E0000 		.4byte	0x1e36
 6645 1a13 221A0000 		.4byte	0x1a22
 6646 1a17 24       		.uleb128 0x24
 6647 1a18 01       		.uleb128 0x1
 6648 1a19 52       		.byte	0x52
 6649 1a1a 01       		.uleb128 0x1
 6650 1a1b 30       		.byte	0x30
 6651 1a1c 24       		.uleb128 0x24
 6652 1a1d 01       		.uleb128 0x1
 6653 1a1e 51       		.byte	0x51
ARM GAS  /tmp/ccsMqF3p.s 			page 179


 6654 1a1f 01       		.uleb128 0x1
 6655 1a20 30       		.byte	0x30
 6656 1a21 00       		.byte	0
 6657 1a22 23       		.uleb128 0x23
 6658 1a23 1E0D0000 		.4byte	.LVL137
 6659 1a27 D01D0000 		.4byte	0x1dd0
 6660 1a2b 371A0000 		.4byte	0x1a37
 6661 1a2f 24       		.uleb128 0x24
 6662 1a30 01       		.uleb128 0x1
 6663 1a31 50       		.byte	0x50
 6664 1a32 03       		.uleb128 0x3
 6665 1a33 0A       		.byte	0xa
 6666 1a34 E803     		.2byte	0x3e8
 6667 1a36 00       		.byte	0
 6668 1a37 23       		.uleb128 0x23
 6669 1a38 420D0000 		.4byte	.LVL138
 6670 1a3c 361E0000 		.4byte	0x1e36
 6671 1a40 4A1A0000 		.4byte	0x1a4a
 6672 1a44 24       		.uleb128 0x24
 6673 1a45 01       		.uleb128 0x1
 6674 1a46 51       		.byte	0x51
 6675 1a47 01       		.uleb128 0x1
 6676 1a48 30       		.byte	0x30
 6677 1a49 00       		.byte	0
 6678 1a4a 23       		.uleb128 0x23
 6679 1a4b 660D0000 		.4byte	.LVL139
 6680 1a4f 361E0000 		.4byte	0x1e36
 6681 1a53 5D1A0000 		.4byte	0x1a5d
 6682 1a57 24       		.uleb128 0x24
 6683 1a58 01       		.uleb128 0x1
 6684 1a59 51       		.byte	0x51
 6685 1a5a 01       		.uleb128 0x1
 6686 1a5b 30       		.byte	0x30
 6687 1a5c 00       		.byte	0
 6688 1a5d 27       		.uleb128 0x27
 6689 1a5e 8C0D0000 		.4byte	.LVL140
 6690 1a62 D01D0000 		.4byte	0x1dd0
 6691 1a66 23       		.uleb128 0x23
 6692 1a67 9C0D0000 		.4byte	.LVL141
 6693 1a6b 361E0000 		.4byte	0x1e36
 6694 1a6f 7E1A0000 		.4byte	0x1a7e
 6695 1a73 24       		.uleb128 0x24
 6696 1a74 01       		.uleb128 0x1
 6697 1a75 52       		.byte	0x52
 6698 1a76 01       		.uleb128 0x1
 6699 1a77 30       		.byte	0x30
 6700 1a78 24       		.uleb128 0x24
 6701 1a79 01       		.uleb128 0x1
 6702 1a7a 51       		.byte	0x51
 6703 1a7b 01       		.uleb128 0x1
 6704 1a7c 30       		.byte	0x30
 6705 1a7d 00       		.byte	0
 6706 1a7e 23       		.uleb128 0x23
 6707 1a7f AC0D0000 		.4byte	.LVL142
 6708 1a83 361E0000 		.4byte	0x1e36
 6709 1a87 961A0000 		.4byte	0x1a96
 6710 1a8b 24       		.uleb128 0x24
ARM GAS  /tmp/ccsMqF3p.s 			page 180


 6711 1a8c 01       		.uleb128 0x1
 6712 1a8d 52       		.byte	0x52
 6713 1a8e 01       		.uleb128 0x1
 6714 1a8f 30       		.byte	0x30
 6715 1a90 24       		.uleb128 0x24
 6716 1a91 01       		.uleb128 0x1
 6717 1a92 51       		.byte	0x51
 6718 1a93 01       		.uleb128 0x1
 6719 1a94 30       		.byte	0x30
 6720 1a95 00       		.byte	0
 6721 1a96 23       		.uleb128 0x23
 6722 1a97 BC0D0000 		.4byte	.LVL143
 6723 1a9b D01D0000 		.4byte	0x1dd0
 6724 1a9f AB1A0000 		.4byte	0x1aab
 6725 1aa3 24       		.uleb128 0x24
 6726 1aa4 01       		.uleb128 0x1
 6727 1aa5 50       		.byte	0x50
 6728 1aa6 03       		.uleb128 0x3
 6729 1aa7 0A       		.byte	0xa
 6730 1aa8 E803     		.2byte	0x3e8
 6731 1aaa 00       		.byte	0
 6732 1aab 23       		.uleb128 0x23
 6733 1aac CC0D0000 		.4byte	.LVL144
 6734 1ab0 361E0000 		.4byte	0x1e36
 6735 1ab4 C31A0000 		.4byte	0x1ac3
 6736 1ab8 24       		.uleb128 0x24
 6737 1ab9 01       		.uleb128 0x1
 6738 1aba 52       		.byte	0x52
 6739 1abb 01       		.uleb128 0x1
 6740 1abc 30       		.byte	0x30
 6741 1abd 24       		.uleb128 0x24
 6742 1abe 01       		.uleb128 0x1
 6743 1abf 51       		.byte	0x51
 6744 1ac0 01       		.uleb128 0x1
 6745 1ac1 30       		.byte	0x30
 6746 1ac2 00       		.byte	0
 6747 1ac3 23       		.uleb128 0x23
 6748 1ac4 EE0D0000 		.4byte	.LVL145
 6749 1ac8 361E0000 		.4byte	0x1e36
 6750 1acc D61A0000 		.4byte	0x1ad6
 6751 1ad0 24       		.uleb128 0x24
 6752 1ad1 01       		.uleb128 0x1
 6753 1ad2 51       		.byte	0x51
 6754 1ad3 01       		.uleb128 0x1
 6755 1ad4 30       		.byte	0x30
 6756 1ad5 00       		.byte	0
 6757 1ad6 23       		.uleb128 0x23
 6758 1ad7 FE0D0000 		.4byte	.LVL146
 6759 1adb D01D0000 		.4byte	0x1dd0
 6760 1adf EB1A0000 		.4byte	0x1aeb
 6761 1ae3 24       		.uleb128 0x24
 6762 1ae4 01       		.uleb128 0x1
 6763 1ae5 50       		.byte	0x50
 6764 1ae6 03       		.uleb128 0x3
 6765 1ae7 0A       		.byte	0xa
 6766 1ae8 2602     		.2byte	0x226
 6767 1aea 00       		.byte	0
ARM GAS  /tmp/ccsMqF3p.s 			page 181


 6768 1aeb 23       		.uleb128 0x23
 6769 1aec 0E0E0000 		.4byte	.LVL147
 6770 1af0 361E0000 		.4byte	0x1e36
 6771 1af4 031B0000 		.4byte	0x1b03
 6772 1af8 24       		.uleb128 0x24
 6773 1af9 01       		.uleb128 0x1
 6774 1afa 52       		.byte	0x52
 6775 1afb 01       		.uleb128 0x1
 6776 1afc 30       		.byte	0x30
 6777 1afd 24       		.uleb128 0x24
 6778 1afe 01       		.uleb128 0x1
 6779 1aff 51       		.byte	0x51
 6780 1b00 01       		.uleb128 0x1
 6781 1b01 30       		.byte	0x30
 6782 1b02 00       		.byte	0
 6783 1b03 23       		.uleb128 0x23
 6784 1b04 1E0E0000 		.4byte	.LVL148
 6785 1b08 361E0000 		.4byte	0x1e36
 6786 1b0c 1B1B0000 		.4byte	0x1b1b
 6787 1b10 24       		.uleb128 0x24
 6788 1b11 01       		.uleb128 0x1
 6789 1b12 52       		.byte	0x52
 6790 1b13 01       		.uleb128 0x1
 6791 1b14 30       		.byte	0x30
 6792 1b15 24       		.uleb128 0x24
 6793 1b16 01       		.uleb128 0x1
 6794 1b17 51       		.byte	0x51
 6795 1b18 01       		.uleb128 0x1
 6796 1b19 30       		.byte	0x30
 6797 1b1a 00       		.byte	0
 6798 1b1b 23       		.uleb128 0x23
 6799 1b1c 2E0E0000 		.4byte	.LVL149
 6800 1b20 D01D0000 		.4byte	0x1dd0
 6801 1b24 301B0000 		.4byte	0x1b30
 6802 1b28 24       		.uleb128 0x24
 6803 1b29 01       		.uleb128 0x1
 6804 1b2a 50       		.byte	0x50
 6805 1b2b 03       		.uleb128 0x3
 6806 1b2c 0A       		.byte	0xa
 6807 1b2d E803     		.2byte	0x3e8
 6808 1b2f 00       		.byte	0
 6809 1b30 23       		.uleb128 0x23
 6810 1b31 3E0E0000 		.4byte	.LVL150
 6811 1b35 361E0000 		.4byte	0x1e36
 6812 1b39 481B0000 		.4byte	0x1b48
 6813 1b3d 24       		.uleb128 0x24
 6814 1b3e 01       		.uleb128 0x1
 6815 1b3f 52       		.byte	0x52
 6816 1b40 01       		.uleb128 0x1
 6817 1b41 30       		.byte	0x30
 6818 1b42 24       		.uleb128 0x24
 6819 1b43 01       		.uleb128 0x1
 6820 1b44 51       		.byte	0x51
 6821 1b45 01       		.uleb128 0x1
 6822 1b46 30       		.byte	0x30
 6823 1b47 00       		.byte	0
 6824 1b48 23       		.uleb128 0x23
ARM GAS  /tmp/ccsMqF3p.s 			page 182


 6825 1b49 600E0000 		.4byte	.LVL151
 6826 1b4d 361E0000 		.4byte	0x1e36
 6827 1b51 5B1B0000 		.4byte	0x1b5b
 6828 1b55 24       		.uleb128 0x24
 6829 1b56 01       		.uleb128 0x1
 6830 1b57 51       		.byte	0x51
 6831 1b58 01       		.uleb128 0x1
 6832 1b59 30       		.byte	0x30
 6833 1b5a 00       		.byte	0
 6834 1b5b 23       		.uleb128 0x23
 6835 1b5c 700E0000 		.4byte	.LVL152
 6836 1b60 D01D0000 		.4byte	0x1dd0
 6837 1b64 701B0000 		.4byte	0x1b70
 6838 1b68 24       		.uleb128 0x24
 6839 1b69 01       		.uleb128 0x1
 6840 1b6a 50       		.byte	0x50
 6841 1b6b 03       		.uleb128 0x3
 6842 1b6c 0A       		.byte	0xa
 6843 1b6d 2602     		.2byte	0x226
 6844 1b6f 00       		.byte	0
 6845 1b70 23       		.uleb128 0x23
 6846 1b71 800E0000 		.4byte	.LVL153
 6847 1b75 361E0000 		.4byte	0x1e36
 6848 1b79 881B0000 		.4byte	0x1b88
 6849 1b7d 24       		.uleb128 0x24
 6850 1b7e 01       		.uleb128 0x1
 6851 1b7f 52       		.byte	0x52
 6852 1b80 01       		.uleb128 0x1
 6853 1b81 30       		.byte	0x30
 6854 1b82 24       		.uleb128 0x24
 6855 1b83 01       		.uleb128 0x1
 6856 1b84 51       		.byte	0x51
 6857 1b85 01       		.uleb128 0x1
 6858 1b86 30       		.byte	0x30
 6859 1b87 00       		.byte	0
 6860 1b88 23       		.uleb128 0x23
 6861 1b89 900E0000 		.4byte	.LVL154
 6862 1b8d 361E0000 		.4byte	0x1e36
 6863 1b91 A01B0000 		.4byte	0x1ba0
 6864 1b95 24       		.uleb128 0x24
 6865 1b96 01       		.uleb128 0x1
 6866 1b97 52       		.byte	0x52
 6867 1b98 01       		.uleb128 0x1
 6868 1b99 30       		.byte	0x30
 6869 1b9a 24       		.uleb128 0x24
 6870 1b9b 01       		.uleb128 0x1
 6871 1b9c 51       		.byte	0x51
 6872 1b9d 01       		.uleb128 0x1
 6873 1b9e 30       		.byte	0x30
 6874 1b9f 00       		.byte	0
 6875 1ba0 23       		.uleb128 0x23
 6876 1ba1 A00E0000 		.4byte	.LVL155
 6877 1ba5 D01D0000 		.4byte	0x1dd0
 6878 1ba9 B51B0000 		.4byte	0x1bb5
 6879 1bad 24       		.uleb128 0x24
 6880 1bae 01       		.uleb128 0x1
 6881 1baf 50       		.byte	0x50
ARM GAS  /tmp/ccsMqF3p.s 			page 183


 6882 1bb0 03       		.uleb128 0x3
 6883 1bb1 0A       		.byte	0xa
 6884 1bb2 8813     		.2byte	0x1388
 6885 1bb4 00       		.byte	0
 6886 1bb5 23       		.uleb128 0x23
 6887 1bb6 C00E0000 		.4byte	.LVL156
 6888 1bba 361E0000 		.4byte	0x1e36
 6889 1bbe CD1B0000 		.4byte	0x1bcd
 6890 1bc2 24       		.uleb128 0x24
 6891 1bc3 01       		.uleb128 0x1
 6892 1bc4 52       		.byte	0x52
 6893 1bc5 01       		.uleb128 0x1
 6894 1bc6 30       		.byte	0x30
 6895 1bc7 24       		.uleb128 0x24
 6896 1bc8 01       		.uleb128 0x1
 6897 1bc9 51       		.byte	0x51
 6898 1bca 01       		.uleb128 0x1
 6899 1bcb 30       		.byte	0x30
 6900 1bcc 00       		.byte	0
 6901 1bcd 23       		.uleb128 0x23
 6902 1bce D00E0000 		.4byte	.LVL157
 6903 1bd2 361E0000 		.4byte	0x1e36
 6904 1bd6 E51B0000 		.4byte	0x1be5
 6905 1bda 24       		.uleb128 0x24
 6906 1bdb 01       		.uleb128 0x1
 6907 1bdc 52       		.byte	0x52
 6908 1bdd 01       		.uleb128 0x1
 6909 1bde 30       		.byte	0x30
 6910 1bdf 24       		.uleb128 0x24
 6911 1be0 01       		.uleb128 0x1
 6912 1be1 51       		.byte	0x51
 6913 1be2 01       		.uleb128 0x1
 6914 1be3 30       		.byte	0x30
 6915 1be4 00       		.byte	0
 6916 1be5 23       		.uleb128 0x23
 6917 1be6 E60E0000 		.4byte	.LVL158
 6918 1bea D01D0000 		.4byte	0x1dd0
 6919 1bee FA1B0000 		.4byte	0x1bfa
 6920 1bf2 24       		.uleb128 0x24
 6921 1bf3 01       		.uleb128 0x1
 6922 1bf4 50       		.byte	0x50
 6923 1bf5 03       		.uleb128 0x3
 6924 1bf6 0A       		.byte	0xa
 6925 1bf7 E803     		.2byte	0x3e8
 6926 1bf9 00       		.byte	0
 6927 1bfa 23       		.uleb128 0x23
 6928 1bfb 0A0F0000 		.4byte	.LVL159
 6929 1bff 361E0000 		.4byte	0x1e36
 6930 1c03 0D1C0000 		.4byte	0x1c0d
 6931 1c07 24       		.uleb128 0x24
 6932 1c08 01       		.uleb128 0x1
 6933 1c09 51       		.byte	0x51
 6934 1c0a 01       		.uleb128 0x1
 6935 1c0b 30       		.byte	0x30
 6936 1c0c 00       		.byte	0
 6937 1c0d 23       		.uleb128 0x23
 6938 1c0e 1A0F0000 		.4byte	.LVL160
ARM GAS  /tmp/ccsMqF3p.s 			page 184


 6939 1c12 361E0000 		.4byte	0x1e36
 6940 1c16 251C0000 		.4byte	0x1c25
 6941 1c1a 24       		.uleb128 0x24
 6942 1c1b 01       		.uleb128 0x1
 6943 1c1c 52       		.byte	0x52
 6944 1c1d 01       		.uleb128 0x1
 6945 1c1e 30       		.byte	0x30
 6946 1c1f 24       		.uleb128 0x24
 6947 1c20 01       		.uleb128 0x1
 6948 1c21 51       		.byte	0x51
 6949 1c22 01       		.uleb128 0x1
 6950 1c23 30       		.byte	0x30
 6951 1c24 00       		.byte	0
 6952 1c25 23       		.uleb128 0x23
 6953 1c26 2C0F0000 		.4byte	.LVL161
 6954 1c2a D01D0000 		.4byte	0x1dd0
 6955 1c2e 3A1C0000 		.4byte	0x1c3a
 6956 1c32 24       		.uleb128 0x24
 6957 1c33 01       		.uleb128 0x1
 6958 1c34 50       		.byte	0x50
 6959 1c35 03       		.uleb128 0x3
 6960 1c36 0A       		.byte	0xa
 6961 1c37 2602     		.2byte	0x226
 6962 1c39 00       		.byte	0
 6963 1c3a 23       		.uleb128 0x23
 6964 1c3b 3C0F0000 		.4byte	.LVL162
 6965 1c3f 361E0000 		.4byte	0x1e36
 6966 1c43 521C0000 		.4byte	0x1c52
 6967 1c47 24       		.uleb128 0x24
 6968 1c48 01       		.uleb128 0x1
 6969 1c49 52       		.byte	0x52
 6970 1c4a 01       		.uleb128 0x1
 6971 1c4b 30       		.byte	0x30
 6972 1c4c 24       		.uleb128 0x24
 6973 1c4d 01       		.uleb128 0x1
 6974 1c4e 51       		.byte	0x51
 6975 1c4f 01       		.uleb128 0x1
 6976 1c50 30       		.byte	0x30
 6977 1c51 00       		.byte	0
 6978 1c52 23       		.uleb128 0x23
 6979 1c53 4C0F0000 		.4byte	.LVL163
 6980 1c57 361E0000 		.4byte	0x1e36
 6981 1c5b 6A1C0000 		.4byte	0x1c6a
 6982 1c5f 24       		.uleb128 0x24
 6983 1c60 01       		.uleb128 0x1
 6984 1c61 52       		.byte	0x52
 6985 1c62 01       		.uleb128 0x1
 6986 1c63 30       		.byte	0x30
 6987 1c64 24       		.uleb128 0x24
 6988 1c65 01       		.uleb128 0x1
 6989 1c66 51       		.byte	0x51
 6990 1c67 01       		.uleb128 0x1
 6991 1c68 30       		.byte	0x30
 6992 1c69 00       		.byte	0
 6993 1c6a 23       		.uleb128 0x23
 6994 1c6b 5E0F0000 		.4byte	.LVL164
 6995 1c6f D01D0000 		.4byte	0x1dd0
ARM GAS  /tmp/ccsMqF3p.s 			page 185


 6996 1c73 7F1C0000 		.4byte	0x1c7f
 6997 1c77 24       		.uleb128 0x24
 6998 1c78 01       		.uleb128 0x1
 6999 1c79 50       		.byte	0x50
 7000 1c7a 03       		.uleb128 0x3
 7001 1c7b 0A       		.byte	0xa
 7002 1c7c E803     		.2byte	0x3e8
 7003 1c7e 00       		.byte	0
 7004 1c7f 23       		.uleb128 0x23
 7005 1c80 860F0000 		.4byte	.LVL165
 7006 1c84 361E0000 		.4byte	0x1e36
 7007 1c88 921C0000 		.4byte	0x1c92
 7008 1c8c 24       		.uleb128 0x24
 7009 1c8d 01       		.uleb128 0x1
 7010 1c8e 51       		.byte	0x51
 7011 1c8f 01       		.uleb128 0x1
 7012 1c90 30       		.byte	0x30
 7013 1c91 00       		.byte	0
 7014 1c92 23       		.uleb128 0x23
 7015 1c93 AA0F0000 		.4byte	.LVL166
 7016 1c97 361E0000 		.4byte	0x1e36
 7017 1c9b A51C0000 		.4byte	0x1ca5
 7018 1c9f 24       		.uleb128 0x24
 7019 1ca0 01       		.uleb128 0x1
 7020 1ca1 51       		.byte	0x51
 7021 1ca2 01       		.uleb128 0x1
 7022 1ca3 30       		.byte	0x30
 7023 1ca4 00       		.byte	0
 7024 1ca5 25       		.uleb128 0x25
 7025 1ca6 BC0F0000 		.4byte	.LVL167
 7026 1caa D01D0000 		.4byte	0x1dd0
 7027 1cae 24       		.uleb128 0x24
 7028 1caf 01       		.uleb128 0x1
 7029 1cb0 50       		.byte	0x50
 7030 1cb1 03       		.uleb128 0x3
 7031 1cb2 0A       		.byte	0xa
 7032 1cb3 E803     		.2byte	0x3e8
 7033 1cb5 00       		.byte	0
 7034 1cb6 00       		.byte	0
 7035 1cb7 28       		.uleb128 0x28
 7036 1cb8 69040000 		.4byte	.LASF178
 7037 1cbc 01       		.byte	0x1
 7038 1cbd 24       		.byte	0x24
 7039 1cbe 680C0000 		.4byte	0xc68
 7040 1cc2 05       		.uleb128 0x5
 7041 1cc3 03       		.byte	0x3
 7042 1cc4 00000000 		.4byte	pwmcfg
 7043 1cc8 28       		.uleb128 0x28
 7044 1cc9 17080000 		.4byte	.LASF179
 7045 1ccd 01       		.byte	0x1
 7046 1cce 43       		.byte	0x43
 7047 1ccf 680C0000 		.4byte	0xc68
 7048 1cd3 05       		.uleb128 0x5
 7049 1cd4 03       		.byte	0x3
 7050 1cd5 00000000 		.4byte	pwmcfg1
 7051 1cd9 10       		.uleb128 0x10
 7052 1cda 4B050000 		.4byte	0x54b
ARM GAS  /tmp/ccsMqF3p.s 			page 186


 7053 1cde E91C0000 		.4byte	0x1ce9
 7054 1ce2 11       		.uleb128 0x11
 7055 1ce3 34040000 		.4byte	0x434
 7056 1ce7 28       		.byte	0x28
 7057 1ce8 00       		.byte	0
 7058 1ce9 28       		.uleb128 0x28
 7059 1cea 5D050000 		.4byte	.LASF180
 7060 1cee 01       		.byte	0x1
 7061 1cef AC       		.byte	0xac
 7062 1cf0 D91C0000 		.4byte	0x1cd9
 7063 1cf4 05       		.uleb128 0x5
 7064 1cf5 03       		.byte	0x3
 7065 1cf6 00000000 		.4byte	waThread2
 7066 1cfa 29       		.uleb128 0x29
 7067 1cfb FD000000 		.4byte	.LASF181
 7068 1cff 18       		.byte	0x18
 7069 1d00 9606     		.2byte	0x696
 7070 1d02 061D0000 		.4byte	0x1d06
 7071 1d06 0F       		.uleb128 0xf
 7072 1d07 C3000000 		.4byte	0xc3
 7073 1d0b 2A       		.uleb128 0x2a
 7074 1d0c 636800   		.ascii	"ch\000"
 7075 1d0f 08       		.byte	0x8
 7076 1d10 D201     		.2byte	0x1d2
 7077 1d12 E7030000 		.4byte	0x3e7
 7078 1d16 29       		.uleb128 0x29
 7079 1d17 84010000 		.4byte	.LASF182
 7080 1d1b 15       		.byte	0x15
 7081 1d1c F201     		.2byte	0x1f2
 7082 1d1e 0A0B0000 		.4byte	0xb0a
 7083 1d22 29       		.uleb128 0x29
 7084 1d23 21020000 		.4byte	.LASF183
 7085 1d27 15       		.byte	0x15
 7086 1d28 FA01     		.2byte	0x1fa
 7087 1d2a 0A0B0000 		.4byte	0xb0a
 7088 1d2e 2A       		.uleb128 0x2a
 7089 1d2f 53443200 		.ascii	"SD2\000"
 7090 1d33 17       		.byte	0x17
 7091 1d34 4701     		.2byte	0x147
 7092 1d36 AB0C0000 		.4byte	0xcab
 7093 1d3a 2B       		.uleb128 0x2b
 7094 1d3b 33050000 		.4byte	.LASF184
 7095 1d3f 01       		.byte	0x1
 7096 1d40 BE       		.byte	0xbe
 7097 1d41 25000000 		.4byte	0x25
 7098 1d45 05       		.uleb128 0x5
 7099 1d46 03       		.byte	0x3
 7100 1d47 00000000 		.4byte	table
 7101 1d4b 2B       		.uleb128 0x2b
 7102 1d4c 5D020000 		.4byte	.LASF185
 7103 1d50 01       		.byte	0x1
 7104 1d51 BF       		.byte	0xbf
 7105 1d52 25000000 		.4byte	0x25
 7106 1d56 05       		.uleb128 0x5
 7107 1d57 03       		.byte	0x3
 7108 1d58 00000000 		.4byte	temp
 7109 1d5c 2B       		.uleb128 0x2b
ARM GAS  /tmp/ccsMqF3p.s 			page 187


 7110 1d5d 74010000 		.4byte	.LASF186
 7111 1d61 01       		.byte	0x1
 7112 1d62 C0       		.byte	0xc0
 7113 1d63 25000000 		.4byte	0x25
 7114 1d67 05       		.uleb128 0x5
 7115 1d68 03       		.byte	0x3
 7116 1d69 00000000 		.4byte	PosFx
 7117 1d6d 2B       		.uleb128 0x2b
 7118 1d6e F6010000 		.4byte	.LASF187
 7119 1d72 01       		.byte	0x1
 7120 1d73 C1       		.byte	0xc1
 7121 1d74 25000000 		.4byte	0x25
 7122 1d78 05       		.uleb128 0x5
 7123 1d79 03       		.byte	0x3
 7124 1d7a 00000000 		.4byte	PosFy
 7125 1d7e 2B       		.uleb128 0x2b
 7126 1d7f 1A060000 		.4byte	.LASF188
 7127 1d83 01       		.byte	0x1
 7128 1d84 C2       		.byte	0xc2
 7129 1d85 25000000 		.4byte	0x25
 7130 1d89 05       		.uleb128 0x5
 7131 1d8a 03       		.byte	0x3
 7132 1d8b 00000000 		.4byte	PosCx
 7133 1d8f 2B       		.uleb128 0x2b
 7134 1d90 9A030000 		.4byte	.LASF189
 7135 1d94 01       		.byte	0x1
 7136 1d95 C3       		.byte	0xc3
 7137 1d96 25000000 		.4byte	0x25
 7138 1d9a 05       		.uleb128 0x5
 7139 1d9b 03       		.byte	0x3
 7140 1d9c 00000000 		.4byte	PosCy
 7141 1da0 2C       		.uleb128 0x2c
 7142 1da1 7300     		.ascii	"s\000"
 7143 1da3 01       		.byte	0x1
 7144 1da4 C4       		.byte	0xc4
 7145 1da5 9A080000 		.4byte	0x89a
 7146 1da9 05       		.uleb128 0x5
 7147 1daa 03       		.byte	0x3
 7148 1dab 00000000 		.4byte	s
 7149 1daf 2D       		.uleb128 0x2d
 7150 1db0 92080000 		.4byte	.LASF205
 7151 1db4 1B       		.byte	0x1b
 7152 1db5 29       		.byte	0x29
 7153 1db6 25000000 		.4byte	0x25
 7154 1dba CA1D0000 		.4byte	0x1dca
 7155 1dbe 0D       		.uleb128 0xd
 7156 1dbf CA1D0000 		.4byte	0x1dca
 7157 1dc3 0D       		.uleb128 0xd
 7158 1dc4 DD070000 		.4byte	0x7dd
 7159 1dc8 2E       		.uleb128 0x2e
 7160 1dc9 00       		.byte	0
 7161 1dca 0A       		.uleb128 0xa
 7162 1dcb 04       		.byte	0x4
 7163 1dcc 7C090000 		.4byte	0x97c
 7164 1dd0 2F       		.uleb128 0x2f
 7165 1dd1 70040000 		.4byte	.LASF192
 7166 1dd5 0F       		.byte	0xf
ARM GAS  /tmp/ccsMqF3p.s 			page 188


 7167 1dd6 0901     		.2byte	0x109
 7168 1dd8 E21D0000 		.4byte	0x1de2
 7169 1ddc 0D       		.uleb128 0xd
 7170 1ddd 3C010000 		.4byte	0x13c
 7171 1de1 00       		.byte	0
 7172 1de2 30       		.uleb128 0x30
 7173 1de3 12030000 		.4byte	.LASF190
 7174 1de7 19       		.byte	0x19
 7175 1de8 E9       		.byte	0xe9
 7176 1de9 31       		.uleb128 0x31
 7177 1dea 65010000 		.4byte	.LASF191
 7178 1dee 1A       		.byte	0x1a
 7179 1def 3101     		.2byte	0x131
 7180 1df1 2F       		.uleb128 0x2f
 7181 1df2 AE060000 		.4byte	.LASF193
 7182 1df6 13       		.byte	0x13
 7183 1df7 6D01     		.2byte	0x16d
 7184 1df9 0D1E0000 		.4byte	0x1e0d
 7185 1dfd 0D       		.uleb128 0xd
 7186 1dfe D30A0000 		.4byte	0xad3
 7187 1e02 0D       		.uleb128 0xd
 7188 1e03 BD0A0000 		.4byte	0xabd
 7189 1e07 0D       		.uleb128 0xd
 7190 1e08 C80A0000 		.4byte	0xac8
 7191 1e0c 00       		.byte	0
 7192 1e0d 2F       		.uleb128 0x2f
 7193 1e0e 39010000 		.4byte	.LASF194
 7194 1e12 14       		.byte	0x14
 7195 1e13 2101     		.2byte	0x121
 7196 1e15 241E0000 		.4byte	0x1e24
 7197 1e19 0D       		.uleb128 0xd
 7198 1e1a 9A0B0000 		.4byte	0xb9a
 7199 1e1e 0D       		.uleb128 0xd
 7200 1e1f 740C0000 		.4byte	0xc74
 7201 1e23 00       		.byte	0
 7202 1e24 2F       		.uleb128 0x2f
 7203 1e25 50060000 		.4byte	.LASF195
 7204 1e29 14       		.byte	0x14
 7205 1e2a 2801     		.2byte	0x128
 7206 1e2c 361E0000 		.4byte	0x1e36
 7207 1e30 0D       		.uleb128 0xd
 7208 1e31 9A0B0000 		.4byte	0xb9a
 7209 1e35 00       		.byte	0
 7210 1e36 2F       		.uleb128 0x2f
 7211 1e37 64080000 		.4byte	.LASF196
 7212 1e3b 14       		.byte	0x14
 7213 1e3c 2401     		.2byte	0x124
 7214 1e3e 521E0000 		.4byte	0x1e52
 7215 1e42 0D       		.uleb128 0xd
 7216 1e43 9A0B0000 		.4byte	0xb9a
 7217 1e47 0D       		.uleb128 0xd
 7218 1e48 AC0B0000 		.4byte	0xbac
 7219 1e4c 0D       		.uleb128 0xd
 7220 1e4d C40B0000 		.4byte	0xbc4
 7221 1e51 00       		.byte	0
 7222 1e52 2F       		.uleb128 0x2f
 7223 1e53 BC020000 		.4byte	.LASF197
ARM GAS  /tmp/ccsMqF3p.s 			page 189


 7224 1e57 14       		.byte	0x14
 7225 1e58 2A01     		.2byte	0x12a
 7226 1e5a 691E0000 		.4byte	0x1e69
 7227 1e5e 0D       		.uleb128 0xd
 7228 1e5f 9A0B0000 		.4byte	0xb9a
 7229 1e63 0D       		.uleb128 0xd
 7230 1e64 AC0B0000 		.4byte	0xbac
 7231 1e68 00       		.byte	0
 7232 1e69 2F       		.uleb128 0x2f
 7233 1e6a 27060000 		.4byte	.LASF198
 7234 1e6e 16       		.byte	0x16
 7235 1e6f 1801     		.2byte	0x118
 7236 1e71 801E0000 		.4byte	0x1e80
 7237 1e75 0D       		.uleb128 0xd
 7238 1e76 801E0000 		.4byte	0x1e80
 7239 1e7a 0D       		.uleb128 0xd
 7240 1e7b 861E0000 		.4byte	0x1e86
 7241 1e7f 00       		.byte	0
 7242 1e80 0A       		.uleb128 0xa
 7243 1e81 04       		.byte	0x4
 7244 1e82 AB0C0000 		.4byte	0xcab
 7245 1e86 0A       		.uleb128 0xa
 7246 1e87 04       		.byte	0x4
 7247 1e88 8C1E0000 		.4byte	0x1e8c
 7248 1e8c 17       		.uleb128 0x17
 7249 1e8d 6B0D0000 		.4byte	0xd6b
 7250 1e91 32       		.uleb128 0x32
 7251 1e92 91010000 		.4byte	.LASF199
 7252 1e96 0F       		.byte	0xf
 7253 1e97 F3       		.byte	0xf3
 7254 1e98 3B020000 		.4byte	0x23b
 7255 1e9c 0D       		.uleb128 0xd
 7256 1e9d 18030000 		.4byte	0x318
 7257 1ea1 0D       		.uleb128 0xd
 7258 1ea2 2C000000 		.4byte	0x2c
 7259 1ea6 0D       		.uleb128 0xd
 7260 1ea7 05010000 		.4byte	0x105
 7261 1eab 0D       		.uleb128 0xd
 7262 1eac 00080000 		.4byte	0x800
 7263 1eb0 0D       		.uleb128 0xd
 7264 1eb1 18030000 		.4byte	0x318
 7265 1eb5 00       		.byte	0
 7266 1eb6 00       		.byte	0
 7267              		.section	.debug_abbrev,"",%progbits
 7268              	.Ldebug_abbrev0:
 7269 0000 01       		.uleb128 0x1
 7270 0001 11       		.uleb128 0x11
 7271 0002 01       		.byte	0x1
 7272 0003 25       		.uleb128 0x25
 7273 0004 0E       		.uleb128 0xe
 7274 0005 13       		.uleb128 0x13
 7275 0006 0B       		.uleb128 0xb
 7276 0007 03       		.uleb128 0x3
 7277 0008 0E       		.uleb128 0xe
 7278 0009 1B       		.uleb128 0x1b
 7279 000a 0E       		.uleb128 0xe
 7280 000b 55       		.uleb128 0x55
ARM GAS  /tmp/ccsMqF3p.s 			page 190


 7281 000c 17       		.uleb128 0x17
 7282 000d 11       		.uleb128 0x11
 7283 000e 01       		.uleb128 0x1
 7284 000f 10       		.uleb128 0x10
 7285 0010 17       		.uleb128 0x17
 7286 0011 00       		.byte	0
 7287 0012 00       		.byte	0
 7288 0013 02       		.uleb128 0x2
 7289 0014 24       		.uleb128 0x24
 7290 0015 00       		.byte	0
 7291 0016 0B       		.uleb128 0xb
 7292 0017 0B       		.uleb128 0xb
 7293 0018 3E       		.uleb128 0x3e
 7294 0019 0B       		.uleb128 0xb
 7295 001a 03       		.uleb128 0x3
 7296 001b 08       		.uleb128 0x8
 7297 001c 00       		.byte	0
 7298 001d 00       		.byte	0
 7299 001e 03       		.uleb128 0x3
 7300 001f 16       		.uleb128 0x16
 7301 0020 00       		.byte	0
 7302 0021 03       		.uleb128 0x3
 7303 0022 0E       		.uleb128 0xe
 7304 0023 3A       		.uleb128 0x3a
 7305 0024 0B       		.uleb128 0xb
 7306 0025 3B       		.uleb128 0x3b
 7307 0026 0B       		.uleb128 0xb
 7308 0027 49       		.uleb128 0x49
 7309 0028 13       		.uleb128 0x13
 7310 0029 00       		.byte	0
 7311 002a 00       		.byte	0
 7312 002b 04       		.uleb128 0x4
 7313 002c 24       		.uleb128 0x24
 7314 002d 00       		.byte	0
 7315 002e 0B       		.uleb128 0xb
 7316 002f 0B       		.uleb128 0xb
 7317 0030 3E       		.uleb128 0x3e
 7318 0031 0B       		.uleb128 0xb
 7319 0032 03       		.uleb128 0x3
 7320 0033 0E       		.uleb128 0xe
 7321 0034 00       		.byte	0
 7322 0035 00       		.byte	0
 7323 0036 05       		.uleb128 0x5
 7324 0037 13       		.uleb128 0x13
 7325 0038 01       		.byte	0x1
 7326 0039 03       		.uleb128 0x3
 7327 003a 0E       		.uleb128 0xe
 7328 003b 0B       		.uleb128 0xb
 7329 003c 0B       		.uleb128 0xb
 7330 003d 3A       		.uleb128 0x3a
 7331 003e 0B       		.uleb128 0xb
 7332 003f 3B       		.uleb128 0x3b
 7333 0040 0B       		.uleb128 0xb
 7334 0041 01       		.uleb128 0x1
 7335 0042 13       		.uleb128 0x13
 7336 0043 00       		.byte	0
 7337 0044 00       		.byte	0
ARM GAS  /tmp/ccsMqF3p.s 			page 191


 7338 0045 06       		.uleb128 0x6
 7339 0046 0D       		.uleb128 0xd
 7340 0047 00       		.byte	0
 7341 0048 03       		.uleb128 0x3
 7342 0049 0E       		.uleb128 0xe
 7343 004a 3A       		.uleb128 0x3a
 7344 004b 0B       		.uleb128 0xb
 7345 004c 3B       		.uleb128 0x3b
 7346 004d 0B       		.uleb128 0xb
 7347 004e 49       		.uleb128 0x49
 7348 004f 13       		.uleb128 0x13
 7349 0050 38       		.uleb128 0x38
 7350 0051 0B       		.uleb128 0xb
 7351 0052 00       		.byte	0
 7352 0053 00       		.byte	0
 7353 0054 07       		.uleb128 0x7
 7354 0055 0D       		.uleb128 0xd
 7355 0056 00       		.byte	0
 7356 0057 03       		.uleb128 0x3
 7357 0058 08       		.uleb128 0x8
 7358 0059 3A       		.uleb128 0x3a
 7359 005a 0B       		.uleb128 0xb
 7360 005b 3B       		.uleb128 0x3b
 7361 005c 0B       		.uleb128 0xb
 7362 005d 49       		.uleb128 0x49
 7363 005e 13       		.uleb128 0x13
 7364 005f 38       		.uleb128 0x38
 7365 0060 0B       		.uleb128 0xb
 7366 0061 00       		.byte	0
 7367 0062 00       		.byte	0
 7368 0063 08       		.uleb128 0x8
 7369 0064 0D       		.uleb128 0xd
 7370 0065 00       		.byte	0
 7371 0066 03       		.uleb128 0x3
 7372 0067 08       		.uleb128 0x8
 7373 0068 3A       		.uleb128 0x3a
 7374 0069 0B       		.uleb128 0xb
 7375 006a 3B       		.uleb128 0x3b
 7376 006b 05       		.uleb128 0x5
 7377 006c 49       		.uleb128 0x49
 7378 006d 13       		.uleb128 0x13
 7379 006e 38       		.uleb128 0x38
 7380 006f 0B       		.uleb128 0xb
 7381 0070 00       		.byte	0
 7382 0071 00       		.byte	0
 7383 0072 09       		.uleb128 0x9
 7384 0073 0D       		.uleb128 0xd
 7385 0074 00       		.byte	0
 7386 0075 03       		.uleb128 0x3
 7387 0076 0E       		.uleb128 0xe
 7388 0077 3A       		.uleb128 0x3a
 7389 0078 0B       		.uleb128 0xb
 7390 0079 3B       		.uleb128 0x3b
 7391 007a 05       		.uleb128 0x5
 7392 007b 49       		.uleb128 0x49
 7393 007c 13       		.uleb128 0x13
 7394 007d 38       		.uleb128 0x38
ARM GAS  /tmp/ccsMqF3p.s 			page 192


 7395 007e 0B       		.uleb128 0xb
 7396 007f 00       		.byte	0
 7397 0080 00       		.byte	0
 7398 0081 0A       		.uleb128 0xa
 7399 0082 0F       		.uleb128 0xf
 7400 0083 00       		.byte	0
 7401 0084 0B       		.uleb128 0xb
 7402 0085 0B       		.uleb128 0xb
 7403 0086 49       		.uleb128 0x49
 7404 0087 13       		.uleb128 0x13
 7405 0088 00       		.byte	0
 7406 0089 00       		.byte	0
 7407 008a 0B       		.uleb128 0xb
 7408 008b 13       		.uleb128 0x13
 7409 008c 01       		.byte	0x1
 7410 008d 03       		.uleb128 0x3
 7411 008e 0E       		.uleb128 0xe
 7412 008f 0B       		.uleb128 0xb
 7413 0090 0B       		.uleb128 0xb
 7414 0091 3A       		.uleb128 0x3a
 7415 0092 0B       		.uleb128 0xb
 7416 0093 3B       		.uleb128 0x3b
 7417 0094 05       		.uleb128 0x5
 7418 0095 01       		.uleb128 0x1
 7419 0096 13       		.uleb128 0x13
 7420 0097 00       		.byte	0
 7421 0098 00       		.byte	0
 7422 0099 0C       		.uleb128 0xc
 7423 009a 15       		.uleb128 0x15
 7424 009b 01       		.byte	0x1
 7425 009c 27       		.uleb128 0x27
 7426 009d 19       		.uleb128 0x19
 7427 009e 01       		.uleb128 0x1
 7428 009f 13       		.uleb128 0x13
 7429 00a0 00       		.byte	0
 7430 00a1 00       		.byte	0
 7431 00a2 0D       		.uleb128 0xd
 7432 00a3 05       		.uleb128 0x5
 7433 00a4 00       		.byte	0
 7434 00a5 49       		.uleb128 0x49
 7435 00a6 13       		.uleb128 0x13
 7436 00a7 00       		.byte	0
 7437 00a8 00       		.byte	0
 7438 00a9 0E       		.uleb128 0xe
 7439 00aa 0F       		.uleb128 0xf
 7440 00ab 00       		.byte	0
 7441 00ac 0B       		.uleb128 0xb
 7442 00ad 0B       		.uleb128 0xb
 7443 00ae 00       		.byte	0
 7444 00af 00       		.byte	0
 7445 00b0 0F       		.uleb128 0xf
 7446 00b1 35       		.uleb128 0x35
 7447 00b2 00       		.byte	0
 7448 00b3 49       		.uleb128 0x49
 7449 00b4 13       		.uleb128 0x13
 7450 00b5 00       		.byte	0
 7451 00b6 00       		.byte	0
ARM GAS  /tmp/ccsMqF3p.s 			page 193


 7452 00b7 10       		.uleb128 0x10
 7453 00b8 01       		.uleb128 0x1
 7454 00b9 01       		.byte	0x1
 7455 00ba 49       		.uleb128 0x49
 7456 00bb 13       		.uleb128 0x13
 7457 00bc 01       		.uleb128 0x1
 7458 00bd 13       		.uleb128 0x13
 7459 00be 00       		.byte	0
 7460 00bf 00       		.byte	0
 7461 00c0 11       		.uleb128 0x11
 7462 00c1 21       		.uleb128 0x21
 7463 00c2 00       		.byte	0
 7464 00c3 49       		.uleb128 0x49
 7465 00c4 13       		.uleb128 0x13
 7466 00c5 2F       		.uleb128 0x2f
 7467 00c6 0B       		.uleb128 0xb
 7468 00c7 00       		.byte	0
 7469 00c8 00       		.byte	0
 7470 00c9 12       		.uleb128 0x12
 7471 00ca 13       		.uleb128 0x13
 7472 00cb 01       		.byte	0x1
 7473 00cc 0B       		.uleb128 0xb
 7474 00cd 0B       		.uleb128 0xb
 7475 00ce 3A       		.uleb128 0x3a
 7476 00cf 0B       		.uleb128 0xb
 7477 00d0 3B       		.uleb128 0x3b
 7478 00d1 05       		.uleb128 0x5
 7479 00d2 01       		.uleb128 0x1
 7480 00d3 13       		.uleb128 0x13
 7481 00d4 00       		.byte	0
 7482 00d5 00       		.byte	0
 7483 00d6 13       		.uleb128 0x13
 7484 00d7 16       		.uleb128 0x16
 7485 00d8 00       		.byte	0
 7486 00d9 03       		.uleb128 0x3
 7487 00da 0E       		.uleb128 0xe
 7488 00db 3A       		.uleb128 0x3a
 7489 00dc 0B       		.uleb128 0xb
 7490 00dd 3B       		.uleb128 0x3b
 7491 00de 05       		.uleb128 0x5
 7492 00df 49       		.uleb128 0x49
 7493 00e0 13       		.uleb128 0x13
 7494 00e1 00       		.byte	0
 7495 00e2 00       		.byte	0
 7496 00e3 14       		.uleb128 0x14
 7497 00e4 17       		.uleb128 0x17
 7498 00e5 01       		.byte	0x1
 7499 00e6 0B       		.uleb128 0xb
 7500 00e7 0B       		.uleb128 0xb
 7501 00e8 3A       		.uleb128 0x3a
 7502 00e9 0B       		.uleb128 0xb
 7503 00ea 3B       		.uleb128 0x3b
 7504 00eb 0B       		.uleb128 0xb
 7505 00ec 01       		.uleb128 0x1
 7506 00ed 13       		.uleb128 0x13
 7507 00ee 00       		.byte	0
 7508 00ef 00       		.byte	0
ARM GAS  /tmp/ccsMqF3p.s 			page 194


 7509 00f0 15       		.uleb128 0x15
 7510 00f1 0D       		.uleb128 0xd
 7511 00f2 00       		.byte	0
 7512 00f3 03       		.uleb128 0x3
 7513 00f4 0E       		.uleb128 0xe
 7514 00f5 3A       		.uleb128 0x3a
 7515 00f6 0B       		.uleb128 0xb
 7516 00f7 3B       		.uleb128 0x3b
 7517 00f8 0B       		.uleb128 0xb
 7518 00f9 49       		.uleb128 0x49
 7519 00fa 13       		.uleb128 0x13
 7520 00fb 00       		.byte	0
 7521 00fc 00       		.byte	0
 7522 00fd 16       		.uleb128 0x16
 7523 00fe 0D       		.uleb128 0xd
 7524 00ff 00       		.byte	0
 7525 0100 03       		.uleb128 0x3
 7526 0101 0E       		.uleb128 0xe
 7527 0102 3A       		.uleb128 0x3a
 7528 0103 0B       		.uleb128 0xb
 7529 0104 3B       		.uleb128 0x3b
 7530 0105 05       		.uleb128 0x5
 7531 0106 49       		.uleb128 0x49
 7532 0107 13       		.uleb128 0x13
 7533 0108 00       		.byte	0
 7534 0109 00       		.byte	0
 7535 010a 17       		.uleb128 0x17
 7536 010b 26       		.uleb128 0x26
 7537 010c 00       		.byte	0
 7538 010d 49       		.uleb128 0x49
 7539 010e 13       		.uleb128 0x13
 7540 010f 00       		.byte	0
 7541 0110 00       		.byte	0
 7542 0111 18       		.uleb128 0x18
 7543 0112 15       		.uleb128 0x15
 7544 0113 01       		.byte	0x1
 7545 0114 27       		.uleb128 0x27
 7546 0115 19       		.uleb128 0x19
 7547 0116 49       		.uleb128 0x49
 7548 0117 13       		.uleb128 0x13
 7549 0118 01       		.uleb128 0x1
 7550 0119 13       		.uleb128 0x13
 7551 011a 00       		.byte	0
 7552 011b 00       		.byte	0
 7553 011c 19       		.uleb128 0x19
 7554 011d 13       		.uleb128 0x13
 7555 011e 01       		.byte	0x1
 7556 011f 0B       		.uleb128 0xb
 7557 0120 0B       		.uleb128 0xb
 7558 0121 3A       		.uleb128 0x3a
 7559 0122 0B       		.uleb128 0xb
 7560 0123 3B       		.uleb128 0x3b
 7561 0124 0B       		.uleb128 0xb
 7562 0125 01       		.uleb128 0x1
 7563 0126 13       		.uleb128 0x13
 7564 0127 00       		.byte	0
 7565 0128 00       		.byte	0
ARM GAS  /tmp/ccsMqF3p.s 			page 195


 7566 0129 1A       		.uleb128 0x1a
 7567 012a 04       		.uleb128 0x4
 7568 012b 01       		.byte	0x1
 7569 012c 0B       		.uleb128 0xb
 7570 012d 0B       		.uleb128 0xb
 7571 012e 3A       		.uleb128 0x3a
 7572 012f 0B       		.uleb128 0xb
 7573 0130 3B       		.uleb128 0x3b
 7574 0131 0B       		.uleb128 0xb
 7575 0132 01       		.uleb128 0x1
 7576 0133 13       		.uleb128 0x13
 7577 0134 00       		.byte	0
 7578 0135 00       		.byte	0
 7579 0136 1B       		.uleb128 0x1b
 7580 0137 28       		.uleb128 0x28
 7581 0138 00       		.byte	0
 7582 0139 03       		.uleb128 0x3
 7583 013a 0E       		.uleb128 0xe
 7584 013b 1C       		.uleb128 0x1c
 7585 013c 0D       		.uleb128 0xd
 7586 013d 00       		.byte	0
 7587 013e 00       		.byte	0
 7588 013f 1C       		.uleb128 0x1c
 7589 0140 2E       		.uleb128 0x2e
 7590 0141 01       		.byte	0x1
 7591 0142 03       		.uleb128 0x3
 7592 0143 0E       		.uleb128 0xe
 7593 0144 3A       		.uleb128 0x3a
 7594 0145 0B       		.uleb128 0xb
 7595 0146 3B       		.uleb128 0x3b
 7596 0147 0B       		.uleb128 0xb
 7597 0148 27       		.uleb128 0x27
 7598 0149 19       		.uleb128 0x19
 7599 014a 20       		.uleb128 0x20
 7600 014b 0B       		.uleb128 0xb
 7601 014c 01       		.uleb128 0x1
 7602 014d 13       		.uleb128 0x13
 7603 014e 00       		.byte	0
 7604 014f 00       		.byte	0
 7605 0150 1D       		.uleb128 0x1d
 7606 0151 05       		.uleb128 0x5
 7607 0152 00       		.byte	0
 7608 0153 03       		.uleb128 0x3
 7609 0154 0E       		.uleb128 0xe
 7610 0155 3A       		.uleb128 0x3a
 7611 0156 0B       		.uleb128 0xb
 7612 0157 3B       		.uleb128 0x3b
 7613 0158 0B       		.uleb128 0xb
 7614 0159 49       		.uleb128 0x49
 7615 015a 13       		.uleb128 0x13
 7616 015b 00       		.byte	0
 7617 015c 00       		.byte	0
 7618 015d 1E       		.uleb128 0x1e
 7619 015e 2E       		.uleb128 0x2e
 7620 015f 01       		.byte	0x1
 7621 0160 03       		.uleb128 0x3
 7622 0161 0E       		.uleb128 0xe
ARM GAS  /tmp/ccsMqF3p.s 			page 196


 7623 0162 3A       		.uleb128 0x3a
 7624 0163 0B       		.uleb128 0xb
 7625 0164 3B       		.uleb128 0x3b
 7626 0165 0B       		.uleb128 0xb
 7627 0166 27       		.uleb128 0x27
 7628 0167 19       		.uleb128 0x19
 7629 0168 11       		.uleb128 0x11
 7630 0169 01       		.uleb128 0x1
 7631 016a 12       		.uleb128 0x12
 7632 016b 06       		.uleb128 0x6
 7633 016c 40       		.uleb128 0x40
 7634 016d 18       		.uleb128 0x18
 7635 016e 9742     		.uleb128 0x2117
 7636 0170 19       		.uleb128 0x19
 7637 0171 01       		.uleb128 0x1
 7638 0172 13       		.uleb128 0x13
 7639 0173 00       		.byte	0
 7640 0174 00       		.byte	0
 7641 0175 1F       		.uleb128 0x1f
 7642 0176 05       		.uleb128 0x5
 7643 0177 00       		.byte	0
 7644 0178 03       		.uleb128 0x3
 7645 0179 0E       		.uleb128 0xe
 7646 017a 3A       		.uleb128 0x3a
 7647 017b 0B       		.uleb128 0xb
 7648 017c 3B       		.uleb128 0x3b
 7649 017d 0B       		.uleb128 0xb
 7650 017e 49       		.uleb128 0x49
 7651 017f 13       		.uleb128 0x13
 7652 0180 02       		.uleb128 0x2
 7653 0181 18       		.uleb128 0x18
 7654 0182 00       		.byte	0
 7655 0183 00       		.byte	0
 7656 0184 20       		.uleb128 0x20
 7657 0185 05       		.uleb128 0x5
 7658 0186 00       		.byte	0
 7659 0187 03       		.uleb128 0x3
 7660 0188 08       		.uleb128 0x8
 7661 0189 3A       		.uleb128 0x3a
 7662 018a 0B       		.uleb128 0xb
 7663 018b 3B       		.uleb128 0x3b
 7664 018c 0B       		.uleb128 0xb
 7665 018d 49       		.uleb128 0x49
 7666 018e 13       		.uleb128 0x13
 7667 018f 02       		.uleb128 0x2
 7668 0190 17       		.uleb128 0x17
 7669 0191 00       		.byte	0
 7670 0192 00       		.byte	0
 7671 0193 21       		.uleb128 0x21
 7672 0194 1D       		.uleb128 0x1d
 7673 0195 01       		.byte	0x1
 7674 0196 31       		.uleb128 0x31
 7675 0197 13       		.uleb128 0x13
 7676 0198 11       		.uleb128 0x11
 7677 0199 01       		.uleb128 0x1
 7678 019a 12       		.uleb128 0x12
 7679 019b 06       		.uleb128 0x6
ARM GAS  /tmp/ccsMqF3p.s 			page 197


 7680 019c 58       		.uleb128 0x58
 7681 019d 0B       		.uleb128 0xb
 7682 019e 59       		.uleb128 0x59
 7683 019f 0B       		.uleb128 0xb
 7684 01a0 01       		.uleb128 0x1
 7685 01a1 13       		.uleb128 0x13
 7686 01a2 00       		.byte	0
 7687 01a3 00       		.byte	0
 7688 01a4 22       		.uleb128 0x22
 7689 01a5 05       		.uleb128 0x5
 7690 01a6 00       		.byte	0
 7691 01a7 31       		.uleb128 0x31
 7692 01a8 13       		.uleb128 0x13
 7693 01a9 02       		.uleb128 0x2
 7694 01aa 18       		.uleb128 0x18
 7695 01ab 00       		.byte	0
 7696 01ac 00       		.byte	0
 7697 01ad 23       		.uleb128 0x23
 7698 01ae 898201   		.uleb128 0x4109
 7699 01b1 01       		.byte	0x1
 7700 01b2 11       		.uleb128 0x11
 7701 01b3 01       		.uleb128 0x1
 7702 01b4 31       		.uleb128 0x31
 7703 01b5 13       		.uleb128 0x13
 7704 01b6 01       		.uleb128 0x1
 7705 01b7 13       		.uleb128 0x13
 7706 01b8 00       		.byte	0
 7707 01b9 00       		.byte	0
 7708 01ba 24       		.uleb128 0x24
 7709 01bb 8A8201   		.uleb128 0x410a
 7710 01be 00       		.byte	0
 7711 01bf 02       		.uleb128 0x2
 7712 01c0 18       		.uleb128 0x18
 7713 01c1 9142     		.uleb128 0x2111
 7714 01c3 18       		.uleb128 0x18
 7715 01c4 00       		.byte	0
 7716 01c5 00       		.byte	0
 7717 01c6 25       		.uleb128 0x25
 7718 01c7 898201   		.uleb128 0x4109
 7719 01ca 01       		.byte	0x1
 7720 01cb 11       		.uleb128 0x11
 7721 01cc 01       		.uleb128 0x1
 7722 01cd 31       		.uleb128 0x31
 7723 01ce 13       		.uleb128 0x13
 7724 01cf 00       		.byte	0
 7725 01d0 00       		.byte	0
 7726 01d1 26       		.uleb128 0x26
 7727 01d2 2E       		.uleb128 0x2e
 7728 01d3 01       		.byte	0x1
 7729 01d4 3F       		.uleb128 0x3f
 7730 01d5 19       		.uleb128 0x19
 7731 01d6 03       		.uleb128 0x3
 7732 01d7 0E       		.uleb128 0xe
 7733 01d8 3A       		.uleb128 0x3a
 7734 01d9 0B       		.uleb128 0xb
 7735 01da 3B       		.uleb128 0x3b
 7736 01db 0B       		.uleb128 0xb
ARM GAS  /tmp/ccsMqF3p.s 			page 198


 7737 01dc 27       		.uleb128 0x27
 7738 01dd 19       		.uleb128 0x19
 7739 01de 49       		.uleb128 0x49
 7740 01df 13       		.uleb128 0x13
 7741 01e0 11       		.uleb128 0x11
 7742 01e1 01       		.uleb128 0x1
 7743 01e2 12       		.uleb128 0x12
 7744 01e3 06       		.uleb128 0x6
 7745 01e4 40       		.uleb128 0x40
 7746 01e5 18       		.uleb128 0x18
 7747 01e6 9742     		.uleb128 0x2117
 7748 01e8 19       		.uleb128 0x19
 7749 01e9 01       		.uleb128 0x1
 7750 01ea 13       		.uleb128 0x13
 7751 01eb 00       		.byte	0
 7752 01ec 00       		.byte	0
 7753 01ed 27       		.uleb128 0x27
 7754 01ee 898201   		.uleb128 0x4109
 7755 01f1 00       		.byte	0
 7756 01f2 11       		.uleb128 0x11
 7757 01f3 01       		.uleb128 0x1
 7758 01f4 31       		.uleb128 0x31
 7759 01f5 13       		.uleb128 0x13
 7760 01f6 00       		.byte	0
 7761 01f7 00       		.byte	0
 7762 01f8 28       		.uleb128 0x28
 7763 01f9 34       		.uleb128 0x34
 7764 01fa 00       		.byte	0
 7765 01fb 03       		.uleb128 0x3
 7766 01fc 0E       		.uleb128 0xe
 7767 01fd 3A       		.uleb128 0x3a
 7768 01fe 0B       		.uleb128 0xb
 7769 01ff 3B       		.uleb128 0x3b
 7770 0200 0B       		.uleb128 0xb
 7771 0201 49       		.uleb128 0x49
 7772 0202 13       		.uleb128 0x13
 7773 0203 02       		.uleb128 0x2
 7774 0204 18       		.uleb128 0x18
 7775 0205 00       		.byte	0
 7776 0206 00       		.byte	0
 7777 0207 29       		.uleb128 0x29
 7778 0208 34       		.uleb128 0x34
 7779 0209 00       		.byte	0
 7780 020a 03       		.uleb128 0x3
 7781 020b 0E       		.uleb128 0xe
 7782 020c 3A       		.uleb128 0x3a
 7783 020d 0B       		.uleb128 0xb
 7784 020e 3B       		.uleb128 0x3b
 7785 020f 05       		.uleb128 0x5
 7786 0210 49       		.uleb128 0x49
 7787 0211 13       		.uleb128 0x13
 7788 0212 3F       		.uleb128 0x3f
 7789 0213 19       		.uleb128 0x19
 7790 0214 3C       		.uleb128 0x3c
 7791 0215 19       		.uleb128 0x19
 7792 0216 00       		.byte	0
 7793 0217 00       		.byte	0
ARM GAS  /tmp/ccsMqF3p.s 			page 199


 7794 0218 2A       		.uleb128 0x2a
 7795 0219 34       		.uleb128 0x34
 7796 021a 00       		.byte	0
 7797 021b 03       		.uleb128 0x3
 7798 021c 08       		.uleb128 0x8
 7799 021d 3A       		.uleb128 0x3a
 7800 021e 0B       		.uleb128 0xb
 7801 021f 3B       		.uleb128 0x3b
 7802 0220 05       		.uleb128 0x5
 7803 0221 49       		.uleb128 0x49
 7804 0222 13       		.uleb128 0x13
 7805 0223 3F       		.uleb128 0x3f
 7806 0224 19       		.uleb128 0x19
 7807 0225 3C       		.uleb128 0x3c
 7808 0226 19       		.uleb128 0x19
 7809 0227 00       		.byte	0
 7810 0228 00       		.byte	0
 7811 0229 2B       		.uleb128 0x2b
 7812 022a 34       		.uleb128 0x34
 7813 022b 00       		.byte	0
 7814 022c 03       		.uleb128 0x3
 7815 022d 0E       		.uleb128 0xe
 7816 022e 3A       		.uleb128 0x3a
 7817 022f 0B       		.uleb128 0xb
 7818 0230 3B       		.uleb128 0x3b
 7819 0231 0B       		.uleb128 0xb
 7820 0232 49       		.uleb128 0x49
 7821 0233 13       		.uleb128 0x13
 7822 0234 3F       		.uleb128 0x3f
 7823 0235 19       		.uleb128 0x19
 7824 0236 02       		.uleb128 0x2
 7825 0237 18       		.uleb128 0x18
 7826 0238 00       		.byte	0
 7827 0239 00       		.byte	0
 7828 023a 2C       		.uleb128 0x2c
 7829 023b 34       		.uleb128 0x34
 7830 023c 00       		.byte	0
 7831 023d 03       		.uleb128 0x3
 7832 023e 08       		.uleb128 0x8
 7833 023f 3A       		.uleb128 0x3a
 7834 0240 0B       		.uleb128 0xb
 7835 0241 3B       		.uleb128 0x3b
 7836 0242 0B       		.uleb128 0xb
 7837 0243 49       		.uleb128 0x49
 7838 0244 13       		.uleb128 0x13
 7839 0245 3F       		.uleb128 0x3f
 7840 0246 19       		.uleb128 0x19
 7841 0247 02       		.uleb128 0x2
 7842 0248 18       		.uleb128 0x18
 7843 0249 00       		.byte	0
 7844 024a 00       		.byte	0
 7845 024b 2D       		.uleb128 0x2d
 7846 024c 2E       		.uleb128 0x2e
 7847 024d 01       		.byte	0x1
 7848 024e 3F       		.uleb128 0x3f
 7849 024f 19       		.uleb128 0x19
 7850 0250 03       		.uleb128 0x3
ARM GAS  /tmp/ccsMqF3p.s 			page 200


 7851 0251 0E       		.uleb128 0xe
 7852 0252 3A       		.uleb128 0x3a
 7853 0253 0B       		.uleb128 0xb
 7854 0254 3B       		.uleb128 0x3b
 7855 0255 0B       		.uleb128 0xb
 7856 0256 27       		.uleb128 0x27
 7857 0257 19       		.uleb128 0x19
 7858 0258 49       		.uleb128 0x49
 7859 0259 13       		.uleb128 0x13
 7860 025a 3C       		.uleb128 0x3c
 7861 025b 19       		.uleb128 0x19
 7862 025c 01       		.uleb128 0x1
 7863 025d 13       		.uleb128 0x13
 7864 025e 00       		.byte	0
 7865 025f 00       		.byte	0
 7866 0260 2E       		.uleb128 0x2e
 7867 0261 18       		.uleb128 0x18
 7868 0262 00       		.byte	0
 7869 0263 00       		.byte	0
 7870 0264 00       		.byte	0
 7871 0265 2F       		.uleb128 0x2f
 7872 0266 2E       		.uleb128 0x2e
 7873 0267 01       		.byte	0x1
 7874 0268 3F       		.uleb128 0x3f
 7875 0269 19       		.uleb128 0x19
 7876 026a 03       		.uleb128 0x3
 7877 026b 0E       		.uleb128 0xe
 7878 026c 3A       		.uleb128 0x3a
 7879 026d 0B       		.uleb128 0xb
 7880 026e 3B       		.uleb128 0x3b
 7881 026f 05       		.uleb128 0x5
 7882 0270 27       		.uleb128 0x27
 7883 0271 19       		.uleb128 0x19
 7884 0272 3C       		.uleb128 0x3c
 7885 0273 19       		.uleb128 0x19
 7886 0274 01       		.uleb128 0x1
 7887 0275 13       		.uleb128 0x13
 7888 0276 00       		.byte	0
 7889 0277 00       		.byte	0
 7890 0278 30       		.uleb128 0x30
 7891 0279 2E       		.uleb128 0x2e
 7892 027a 00       		.byte	0
 7893 027b 3F       		.uleb128 0x3f
 7894 027c 19       		.uleb128 0x19
 7895 027d 03       		.uleb128 0x3
 7896 027e 0E       		.uleb128 0xe
 7897 027f 3A       		.uleb128 0x3a
 7898 0280 0B       		.uleb128 0xb
 7899 0281 3B       		.uleb128 0x3b
 7900 0282 0B       		.uleb128 0xb
 7901 0283 27       		.uleb128 0x27
 7902 0284 19       		.uleb128 0x19
 7903 0285 3C       		.uleb128 0x3c
 7904 0286 19       		.uleb128 0x19
 7905 0287 00       		.byte	0
 7906 0288 00       		.byte	0
 7907 0289 31       		.uleb128 0x31
ARM GAS  /tmp/ccsMqF3p.s 			page 201


 7908 028a 2E       		.uleb128 0x2e
 7909 028b 00       		.byte	0
 7910 028c 3F       		.uleb128 0x3f
 7911 028d 19       		.uleb128 0x19
 7912 028e 03       		.uleb128 0x3
 7913 028f 0E       		.uleb128 0xe
 7914 0290 3A       		.uleb128 0x3a
 7915 0291 0B       		.uleb128 0xb
 7916 0292 3B       		.uleb128 0x3b
 7917 0293 05       		.uleb128 0x5
 7918 0294 27       		.uleb128 0x27
 7919 0295 19       		.uleb128 0x19
 7920 0296 3C       		.uleb128 0x3c
 7921 0297 19       		.uleb128 0x19
 7922 0298 00       		.byte	0
 7923 0299 00       		.byte	0
 7924 029a 32       		.uleb128 0x32
 7925 029b 2E       		.uleb128 0x2e
 7926 029c 01       		.byte	0x1
 7927 029d 3F       		.uleb128 0x3f
 7928 029e 19       		.uleb128 0x19
 7929 029f 03       		.uleb128 0x3
 7930 02a0 0E       		.uleb128 0xe
 7931 02a1 3A       		.uleb128 0x3a
 7932 02a2 0B       		.uleb128 0xb
 7933 02a3 3B       		.uleb128 0x3b
 7934 02a4 0B       		.uleb128 0xb
 7935 02a5 27       		.uleb128 0x27
 7936 02a6 19       		.uleb128 0x19
 7937 02a7 49       		.uleb128 0x49
 7938 02a8 13       		.uleb128 0x13
 7939 02a9 3C       		.uleb128 0x3c
 7940 02aa 19       		.uleb128 0x19
 7941 02ab 00       		.byte	0
 7942 02ac 00       		.byte	0
 7943 02ad 00       		.byte	0
 7944              		.section	.debug_loc,"",%progbits
 7945              	.Ldebug_loc0:
 7946              	.LLST0:
 7947 0000 00000000 		.4byte	.LVL4
 7948 0004 16000000 		.4byte	.LVL5
 7949 0008 0100     		.2byte	0x1
 7950 000a 50       		.byte	0x50
 7951 000b 16000000 		.4byte	.LVL5
 7952 000f 34000000 		.4byte	.LFE223
 7953 0013 0400     		.2byte	0x4
 7954 0015 F3       		.byte	0xf3
 7955 0016 01       		.uleb128 0x1
 7956 0017 50       		.byte	0x50
 7957 0018 9F       		.byte	0x9f
 7958 0019 00000000 		.4byte	0
 7959 001d 00000000 		.4byte	0
 7960              		.section	.debug_aranges,"",%progbits
 7961 0000 44000000 		.4byte	0x44
 7962 0004 0200     		.2byte	0x2
 7963 0006 00000000 		.4byte	.Ldebug_info0
 7964 000a 04       		.byte	0x4
ARM GAS  /tmp/ccsMqF3p.s 			page 202


 7965 000b 00       		.byte	0
 7966 000c 0000     		.2byte	0
 7967 000e 0000     		.2byte	0
 7968 0010 00000000 		.4byte	.LFB219
 7969 0014 10000000 		.4byte	.LFE219-.LFB219
 7970 0018 00000000 		.4byte	.LFB220
 7971 001c 10000000 		.4byte	.LFE220-.LFB220
 7972 0020 00000000 		.4byte	.LFB221
 7973 0024 10000000 		.4byte	.LFE221-.LFB221
 7974 0028 00000000 		.4byte	.LFB222
 7975 002c 10000000 		.4byte	.LFE222-.LFB222
 7976 0030 00000000 		.4byte	.LFB223
 7977 0034 34000000 		.4byte	.LFE223-.LFB223
 7978 0038 00000000 		.4byte	.LFB224
 7979 003c D60F0000 		.4byte	.LFE224-.LFB224
 7980 0040 00000000 		.4byte	0
 7981 0044 00000000 		.4byte	0
 7982              		.section	.debug_ranges,"",%progbits
 7983              	.Ldebug_ranges0:
 7984 0000 00000000 		.4byte	.LFB219
 7985 0004 10000000 		.4byte	.LFE219
 7986 0008 00000000 		.4byte	.LFB220
 7987 000c 10000000 		.4byte	.LFE220
 7988 0010 00000000 		.4byte	.LFB221
 7989 0014 10000000 		.4byte	.LFE221
 7990 0018 00000000 		.4byte	.LFB222
 7991 001c 10000000 		.4byte	.LFE222
 7992 0020 00000000 		.4byte	.LFB223
 7993 0024 34000000 		.4byte	.LFE223
 7994 0028 00000000 		.4byte	.LFB224
 7995 002c D60F0000 		.4byte	.LFE224
 7996 0030 00000000 		.4byte	0
 7997 0034 00000000 		.4byte	0
 7998              		.section	.debug_line,"",%progbits
 7999              	.Ldebug_line0:
 8000 0000 50060000 		.section	.debug_str,"MS",%progbits,1
 8000      02000F03 
 8000      00000201 
 8000      FB0E0D00 
 8000      01010101 
 8001              	.LASF104:
 8002 0000 7466756E 		.ascii	"tfunc_t\000"
 8002      635F7400 
 8003              	.LASF146:
 8004 0008 70776D63 		.ascii	"pwmchannel_t\000"
 8004      68616E6E 
 8004      656C5F74 
 8004      00
 8005              	.LASF53:
 8006 0015 72656164 		.ascii	"ready_list_t\000"
 8006      795F6C69 
 8006      73745F74 
 8006      00
 8007              	.LASF83:
 8008 0022 44494552 		.ascii	"DIER\000"
 8008      00
 8009              	.LASF2:
ARM GAS  /tmp/ccsMqF3p.s 			page 203


 8010 0027 73697A65 		.ascii	"size_t\000"
 8010      5F7400
 8011              	.LASF49:
 8012 002e 6E657874 		.ascii	"next\000"
 8012      00
 8013              	.LASF59:
 8014 0033 64656C74 		.ascii	"delta\000"
 8014      6100
 8015              	.LASF92:
 8016 0039 7264796D 		.ascii	"rdymsg\000"
 8016      736700
 8017              	.LASF19:
 8018 0040 75696E74 		.ascii	"uint64_t\000"
 8018      36345F74 
 8018      00
 8019              	.LASF3:
 8020 0049 5F5F7569 		.ascii	"__uint8_t\000"
 8020      6E74385F 
 8020      7400
 8021              	.LASF52:
 8022 0053 70726576 		.ascii	"prev\000"
 8022      00
 8023              	.LASF176:
 8024 0058 70776D63 		.ascii	"pwmc2cb\000"
 8024      32636200 
 8025              	.LASF51:
 8026 0060 63685F74 		.ascii	"ch_threads_queue\000"
 8026      68726561 
 8026      64735F71 
 8026      75657565 
 8026      00
 8027              	.LASF64:
 8028 0071 73797374 		.ascii	"system_debug_t\000"
 8028      656D5F64 
 8028      65627567 
 8028      5F7400
 8029              	.LASF120:
 8030 0080 715F7761 		.ascii	"q_waiting\000"
 8030      6974696E 
 8030      6700
 8031              	.LASF131:
 8032 008a 696F706F 		.ascii	"ioportmask_t\000"
 8032      72746D61 
 8032      736B5F74 
 8032      00
 8033              	.LASF8:
 8034 0097 5F5F696E 		.ascii	"__int32_t\000"
 8034      7433325F 
 8034      7400
 8035              	.LASF48:
 8036 00a1 63685F74 		.ascii	"ch_threads_list\000"
 8036      68726561 
 8036      64735F6C 
 8036      69737400 
 8037              	.LASF14:
 8038 00b1 6C6F6E67 		.ascii	"long long unsigned int\000"
 8038      206C6F6E 
ARM GAS  /tmp/ccsMqF3p.s 			page 204


 8038      6720756E 
 8038      7369676E 
 8038      65642069 
 8039              	.LASF172:
 8040 00c8 70776D70 		.ascii	"pwmpcb\000"
 8040      636200
 8041              	.LASF93:
 8042 00cf 65786974 		.ascii	"exitcode\000"
 8042      636F6465 
 8042      00
 8043              	.LASF164:
 8044 00d8 72786D61 		.ascii	"rxmask\000"
 8044      736B00
 8045              	.LASF96:
 8046 00df 73656E74 		.ascii	"sentmsg\000"
 8046      6D736700 
 8047              	.LASF61:
 8048 00e7 76697274 		.ascii	"virtual_timers_list_t\000"
 8048      75616C5F 
 8048      74696D65 
 8048      72735F6C 
 8048      6973745F 
 8049              	.LASF181:
 8050 00fd 49544D5F 		.ascii	"ITM_RxBuffer\000"
 8050      52784275 
 8050      66666572 
 8050      00
 8051              	.LASF60:
 8052 010a 66756E63 		.ascii	"func\000"
 8052      00
 8053              	.LASF118:
 8054 010f 696F5F71 		.ascii	"io_queue_t\000"
 8054      75657565 
 8054      5F7400
 8055              	.LASF87:
 8056 011a 42445452 		.ascii	"BDTR\000"
 8056      00
 8057              	.LASF152:
 8058 011f 66726571 		.ascii	"frequency\000"
 8058      75656E63 
 8058      7900
 8059              	.LASF136:
 8060 0129 50574D5F 		.ascii	"PWM_READY\000"
 8060      52454144 
 8060      5900
 8061              	.LASF171:
 8062 0133 72656164 		.ascii	"readt\000"
 8062      7400
 8063              	.LASF194:
 8064 0139 70776D53 		.ascii	"pwmStart\000"
 8064      74617274 
 8064      00
 8065              	.LASF84:
 8066 0142 43434D52 		.ascii	"CCMR1\000"
 8066      3100
 8067              	.LASF85:
 8068 0148 43434D52 		.ascii	"CCMR2\000"
ARM GAS  /tmp/ccsMqF3p.s 			page 205


 8068      3200
 8069              	.LASF89:
 8070 014e 43434D52 		.ascii	"CCMR3\000"
 8070      3300
 8071              	.LASF1:
 8072 0154 7369676E 		.ascii	"signed char\000"
 8072      65642063 
 8072      68617200 
 8073              	.LASF73:
 8074 0160 42535252 		.ascii	"BSRR\000"
 8074      00
 8075              	.LASF191:
 8076 0165 63685379 		.ascii	"chSysInit\000"
 8076      73496E69 
 8076      7400
 8077              	.LASF76:
 8078 016f 47545052 		.ascii	"GTPR\000"
 8078      00
 8079              	.LASF186:
 8080 0174 506F7346 		.ascii	"PosFx\000"
 8080      7800
 8081              	.LASF145:
 8082 017a 70776D6D 		.ascii	"pwmmode_t\000"
 8082      6F64655F 
 8082      7400
 8083              	.LASF182:
 8084 0184 50574D44 		.ascii	"PWMD1\000"
 8084      3100
 8085              	.LASF70:
 8086 018a 76746C69 		.ascii	"vtlist\000"
 8086      737400
 8087              	.LASF199:
 8088 0191 63685468 		.ascii	"chThdCreateStatic\000"
 8088      64437265 
 8088      61746553 
 8088      74617469 
 8088      6300
 8089              	.LASF40:
 8090 01a3 6D736771 		.ascii	"msgqueue\000"
 8090      75657565 
 8090      00
 8091              	.LASF36:
 8092 01ac 73746174 		.ascii	"state\000"
 8092      6500
 8093              	.LASF142:
 8094 01b2 6368616E 		.ascii	"channels\000"
 8094      6E656C73 
 8094      00
 8095              	.LASF9:
 8096 01bb 6C6F6E67 		.ascii	"long int\000"
 8096      20696E74 
 8096      00
 8097              	.LASF21:
 8098 01c4 74737461 		.ascii	"tstate_t\000"
 8098      74655F74 
 8098      00
 8099              	.LASF0:
ARM GAS  /tmp/ccsMqF3p.s 			page 206


 8100 01cd 756E7369 		.ascii	"unsigned int\000"
 8100      676E6564 
 8100      20696E74 
 8100      00
 8101              	.LASF86:
 8102 01da 43434552 		.ascii	"CCER\000"
 8102      00
 8103              	.LASF12:
 8104 01df 6C6F6E67 		.ascii	"long long int\000"
 8104      206C6F6E 
 8104      6720696E 
 8104      7400
 8105              	.LASF122:
 8106 01ed 715F6275 		.ascii	"q_buffer\000"
 8106      66666572 
 8106      00
 8107              	.LASF187:
 8108 01f6 506F7346 		.ascii	"PosFy\000"
 8108      7900
 8109              	.LASF16:
 8110 01fc 75696E74 		.ascii	"uint16_t\000"
 8110      31365F74 
 8110      00
 8111              	.LASF127:
 8112 0205 715F6C69 		.ascii	"q_link\000"
 8112      6E6B00
 8113              	.LASF173:
 8114 020c 70776D63 		.ascii	"pwmc1cb\000"
 8114      31636200 
 8115              	.LASF110:
 8116 0214 77666C61 		.ascii	"wflags\000"
 8116      677300
 8117              	.LASF33:
 8118 021b 6F6C6465 		.ascii	"older\000"
 8118      7200
 8119              	.LASF183:
 8120 0221 50574D44 		.ascii	"PWMD3\000"
 8120      3300
 8121              	.LASF55:
 8122 0227 63757272 		.ascii	"current\000"
 8122      656E7400 
 8123              	.LASF10:
 8124 022f 5F5F7569 		.ascii	"__uint32_t\000"
 8124      6E743332 
 8124      5F7400
 8125              	.LASF78:
 8126 023a 72656761 		.ascii	"regarm_t\000"
 8126      726D5F74 
 8126      00
 8127              	.LASF39:
 8128 0243 77616974 		.ascii	"waiting\000"
 8128      696E6700 
 8129              	.LASF128:
 8130 024b 716E6F74 		.ascii	"qnotify_t\000"
 8130      6966795F 
 8130      7400
 8131              	.LASF105:
ARM GAS  /tmp/ccsMqF3p.s 			page 207


 8132 0255 6D757465 		.ascii	"mutex_t\000"
 8132      785F7400 
 8133              	.LASF185:
 8134 025d 74656D70 		.ascii	"temp\000"
 8134      00
 8135              	.LASF117:
 8136 0262 42617365 		.ascii	"BaseSequentialStream\000"
 8136      53657175 
 8136      656E7469 
 8136      616C5374 
 8136      7265616D 
 8137              	.LASF112:
 8138 0277 6576656E 		.ascii	"event_source_t\000"
 8138      745F736F 
 8138      75726365 
 8138      5F7400
 8139              	.LASF27:
 8140 0286 636E745F 		.ascii	"cnt_t\000"
 8140      7400
 8141              	.LASF163:
 8142 028c 75736172 		.ascii	"usart\000"
 8142      7400
 8143              	.LASF202:
 8144 0292 2F686F6D 		.ascii	"/home/jerson/ChibiOS/rt_stm32f100rb_onion\000"
 8144      652F6A65 
 8144      72736F6E 
 8144      2F436869 
 8144      62694F53 
 8145              	.LASF197:
 8146 02bc 70776D45 		.ascii	"pwmEnableChannelNotification\000"
 8146      6E61626C 
 8146      65436861 
 8146      6E6E656C 
 8146      4E6F7469 
 8147              	.LASF167:
 8148 02d9 53657269 		.ascii	"SerialDriverVMT\000"
 8148      616C4472 
 8148      69766572 
 8148      564D5400 
 8149              	.LASF97:
 8150 02e9 77747365 		.ascii	"wtsemp\000"
 8150      6D7000
 8151              	.LASF175:
 8152 02f0 70776D70 		.ascii	"pwmp2cb\000"
 8152      32636200 
 8153              	.LASF161:
 8154 02f8 69717565 		.ascii	"iqueue\000"
 8154      756500
 8155              	.LASF95:
 8156 02ff 77747472 		.ascii	"wttrp\000"
 8156      7000
 8157              	.LASF75:
 8158 0305 4750494F 		.ascii	"GPIO_TypeDef\000"
 8158      5F547970 
 8158      65446566 
 8158      00
 8159              	.LASF190:
ARM GAS  /tmp/ccsMqF3p.s 			page 208


 8160 0312 68616C49 		.ascii	"halInit\000"
 8160      6E697400 
 8161              	.LASF47:
 8162 031a 63685F74 		.ascii	"ch_thread\000"
 8162      68726561 
 8162      6400
 8163              	.LASF169:
 8164 0324 67657474 		.ascii	"gett\000"
 8164      00
 8165              	.LASF34:
 8166 0329 6E616D65 		.ascii	"name\000"
 8166      00
 8167              	.LASF30:
 8168 032e 71756575 		.ascii	"queue\000"
 8168      6500
 8169              	.LASF44:
 8170 0334 6D706F6F 		.ascii	"mpool\000"
 8170      6C00
 8171              	.LASF160:
 8172 033a 6576656E 		.ascii	"event\000"
 8172      7400
 8173              	.LASF82:
 8174 0340 534D4352 		.ascii	"SMCR\000"
 8174      00
 8175              	.LASF71:
 8176 0345 6D61696E 		.ascii	"mainthread\000"
 8176      74687265 
 8176      616400
 8177              	.LASF24:
 8178 0350 6D73675F 		.ascii	"msg_t\000"
 8178      7400
 8179              	.LASF74:
 8180 0356 4C434B52 		.ascii	"LCKR\000"
 8180      00
 8181              	.LASF41:
 8182 035b 6570656E 		.ascii	"epending\000"
 8182      64696E67 
 8182      00
 8183              	.LASF67:
 8184 0364 63685F73 		.ascii	"ch_system_t\000"
 8184      79737465 
 8184      6D5F7400 
 8185              	.LASF150:
 8186 0370 63616C6C 		.ascii	"callback\000"
 8186      6261636B 
 8186      00
 8187              	.LASF77:
 8188 0379 55534152 		.ascii	"USART_TypeDef\000"
 8188      545F5479 
 8188      70654465 
 8188      6600
 8189              	.LASF170:
 8190 0387 77726974 		.ascii	"writet\000"
 8190      657400
 8191              	.LASF91:
 8192 038e 73746D33 		.ascii	"stm32_tim_t\000"
 8192      325F7469 
ARM GAS  /tmp/ccsMqF3p.s 			page 209


 8192      6D5F7400 
 8193              	.LASF189:
 8194 039a 506F7343 		.ascii	"PosCy\000"
 8194      7900
 8195              	.LASF54:
 8196 03a0 63685F72 		.ascii	"ch_ready_list\000"
 8196      65616479 
 8196      5F6C6973 
 8196      7400
 8197              	.LASF25:
 8198 03ae 6576656E 		.ascii	"eventmask_t\000"
 8198      746D6173 
 8198      6B5F7400 
 8199              	.LASF165:
 8200 03ba 73706565 		.ascii	"speed\000"
 8200      6400
 8201              	.LASF174:
 8202 03c0 70776D70 		.ascii	"pwmp\000"
 8202      00
 8203              	.LASF79:
 8204 03c5 73746B61 		.ascii	"stkalign_t\000"
 8204      6C69676E 
 8204      5F7400
 8205              	.LASF177:
 8206 03d0 54687265 		.ascii	"Thread2\000"
 8206      61643200 
 8207              	.LASF115:
 8208 03d8 77726974 		.ascii	"write\000"
 8208      6500
 8209              	.LASF129:
 8210 03de 696E7075 		.ascii	"input_queue_t\000"
 8210      745F7175 
 8210      6575655F 
 8210      7400
 8211              	.LASF168:
 8212 03ec 70757474 		.ascii	"putt\000"
 8212      00
 8213              	.LASF119:
 8214 03f1 696F5F71 		.ascii	"io_queue\000"
 8214      75657565 
 8214      00
 8215              	.LASF72:
 8216 03fa 73697A65 		.ascii	"sizetype\000"
 8216      74797065 
 8216      00
 8217              	.LASF45:
 8218 0403 74687265 		.ascii	"thread_reference_t\000"
 8218      61645F72 
 8218      65666572 
 8218      656E6365 
 8218      5F7400
 8219              	.LASF132:
 8220 0416 696F6D6F 		.ascii	"iomode_t\000"
 8220      64655F74 
 8220      00
 8221              	.LASF62:
 8222 041f 63685F76 		.ascii	"ch_virtual_timers_list\000"
ARM GAS  /tmp/ccsMqF3p.s 			page 210


 8222      69727475 
 8222      616C5F74 
 8222      696D6572 
 8222      735F6C69 
 8223              	.LASF121:
 8224 0436 715F636F 		.ascii	"q_counter\000"
 8224      756E7465 
 8224      7200
 8225              	.LASF130:
 8226 0440 6F757470 		.ascii	"output_queue_t\000"
 8226      75745F71 
 8226      75657565 
 8226      5F7400
 8227              	.LASF124:
 8228 044f 715F7772 		.ascii	"q_wrptr\000"
 8228      70747200 
 8229              	.LASF80:
 8230 0457 706F7274 		.ascii	"port_context\000"
 8230      5F636F6E 
 8230      74657874 
 8230      00
 8231              	.LASF31:
 8232 0464 7072696F 		.ascii	"prio\000"
 8232      00
 8233              	.LASF178:
 8234 0469 70776D63 		.ascii	"pwmcfg\000"
 8234      666700
 8235              	.LASF192:
 8236 0470 63685468 		.ascii	"chThdSleep\000"
 8236      64536C65 
 8236      657000
 8237              	.LASF166:
 8238 047b 53657269 		.ascii	"SerialConfig\000"
 8238      616C436F 
 8238      6E666967 
 8238      00
 8239              	.LASF13:
 8240 0488 5F5F7569 		.ascii	"__uint64_t\000"
 8240      6E743634 
 8240      5F7400
 8241              	.LASF108:
 8242 0493 6C697374 		.ascii	"listener\000"
 8242      656E6572 
 8242      00
 8243              	.LASF144:
 8244 049c 70776D63 		.ascii	"pwmcallback_t\000"
 8244      616C6C62 
 8244      61636B5F 
 8244      7400
 8245              	.LASF22:
 8246 04aa 74726566 		.ascii	"trefs_t\000"
 8246      735F7400 
 8247              	.LASF81:
 8248 04b2 706F7274 		.ascii	"port_intctx\000"
 8248      5F696E74 
 8248      63747800 
 8249              	.LASF57:
ARM GAS  /tmp/ccsMqF3p.s 			page 211


 8250 04be 76697274 		.ascii	"virtual_timer_t\000"
 8250      75616C5F 
 8250      74696D65 
 8250      725F7400 
 8251              	.LASF156:
 8252 04ce 53445F53 		.ascii	"SD_STOP\000"
 8252      544F5000 
 8253              	.LASF23:
 8254 04d6 74707269 		.ascii	"tprio_t\000"
 8254      6F5F7400 
 8255              	.LASF125:
 8256 04de 715F7264 		.ascii	"q_rdptr\000"
 8256      70747200 
 8257              	.LASF65:
 8258 04e6 63685F73 		.ascii	"ch_system_debug\000"
 8258      79737465 
 8258      6D5F6465 
 8258      62756700 
 8259              	.LASF113:
 8260 04f6 5F426F6F 		.ascii	"_Bool\000"
 8260      6C00
 8261              	.LASF17:
 8262 04fc 696E7433 		.ascii	"int32_t\000"
 8262      325F7400 
 8263              	.LASF4:
 8264 0504 756E7369 		.ascii	"unsigned char\000"
 8264      676E6564 
 8264      20636861 
 8264      7200
 8265              	.LASF135:
 8266 0512 50574D5F 		.ascii	"PWM_STOP\000"
 8266      53544F50 
 8266      00
 8267              	.LASF38:
 8268 051b 72656673 		.ascii	"refs\000"
 8268      00
 8269              	.LASF5:
 8270 0520 73686F72 		.ascii	"short int\000"
 8270      7420696E 
 8270      7400
 8271              	.LASF63:
 8272 052a 6C617374 		.ascii	"lasttime\000"
 8272      74696D65 
 8272      00
 8273              	.LASF184:
 8274 0533 7461626C 		.ascii	"table\000"
 8274      6500
 8275              	.LASF99:
 8276 0539 65776D61 		.ascii	"ewmask\000"
 8276      736B00
 8277              	.LASF162:
 8278 0540 6F717565 		.ascii	"oqueue\000"
 8278      756500
 8279              	.LASF147:
 8280 0547 70776D63 		.ascii	"pwmchnmsk_t\000"
 8280      686E6D73 
 8280      6B5F7400 
ARM GAS  /tmp/ccsMqF3p.s 			page 212


 8281              	.LASF68:
 8282 0553 63685F73 		.ascii	"ch_system\000"
 8282      79737465 
 8282      6D00
 8283              	.LASF180:
 8284 055d 77615468 		.ascii	"waThread2\000"
 8284      72656164 
 8284      3200
 8285              	.LASF50:
 8286 0567 74687265 		.ascii	"threads_queue_t\000"
 8286      6164735F 
 8286      71756575 
 8286      655F7400 
 8287              	.LASF100:
 8288 0577 63685F73 		.ascii	"ch_semaphore\000"
 8288      656D6170 
 8288      686F7265 
 8288      00
 8289              	.LASF90:
 8290 0584 43435852 		.ascii	"CCXR\000"
 8290      00
 8291              	.LASF155:
 8292 0589 53445F55 		.ascii	"SD_UNINIT\000"
 8292      4E494E49 
 8292      5400
 8293              	.LASF109:
 8294 0593 6576656E 		.ascii	"events\000"
 8294      747300
 8295              	.LASF114:
 8296 059a 42617365 		.ascii	"BaseSequentialStreamVMT\000"
 8296      53657175 
 8296      656E7469 
 8296      616C5374 
 8296      7265616D 
 8297              	.LASF98:
 8298 05b2 77746D74 		.ascii	"wtmtxp\000"
 8298      787000
 8299              	.LASF158:
 8300 05b9 73647374 		.ascii	"sdstate_t\000"
 8300      6174655F 
 8300      7400
 8301              	.LASF141:
 8302 05c3 656E6162 		.ascii	"enabled\000"
 8302      6C656400 
 8303              	.LASF102:
 8304 05cb 6F776E65 		.ascii	"owner\000"
 8304      7200
 8305              	.LASF159:
 8306 05d1 53657269 		.ascii	"SerialDriver\000"
 8306      616C4472 
 8306      69766572 
 8306      00
 8307              	.LASF43:
 8308 05de 7265616C 		.ascii	"realprio\000"
 8308      7072696F 
 8308      00
 8309              	.LASF11:
ARM GAS  /tmp/ccsMqF3p.s 			page 213


 8310 05e7 6C6F6E67 		.ascii	"long unsigned int\000"
 8310      20756E73 
 8310      69676E65 
 8310      6420696E 
 8310      7400
 8311              	.LASF35:
 8312 05f9 77616261 		.ascii	"wabase\000"
 8312      736500
 8313              	.LASF116:
 8314 0600 72656164 		.ascii	"read\000"
 8314      00
 8315              	.LASF103:
 8316 0605 63686172 		.ascii	"char\000"
 8316      00
 8317              	.LASF6:
 8318 060a 5F5F7569 		.ascii	"__uint16_t\000"
 8318      6E743136 
 8318      5F7400
 8319              	.LASF149:
 8320 0615 6D6F6465 		.ascii	"mode\000"
 8320      00
 8321              	.LASF188:
 8322 061a 506F7343 		.ascii	"PosCx\000"
 8322      7800
 8323              	.LASF139:
 8324 0620 636F6E66 		.ascii	"config\000"
 8324      696700
 8325              	.LASF198:
 8326 0627 73645374 		.ascii	"sdStart\000"
 8326      61727400 
 8327              	.LASF88:
 8328 062f 444D4152 		.ascii	"DMAR\000"
 8328      00
 8329              	.LASF29:
 8330 0634 74687265 		.ascii	"thread_t\000"
 8330      61645F74 
 8330      00
 8331              	.LASF28:
 8332 063d 73797374 		.ascii	"systime_t\000"
 8332      696D655F 
 8332      7400
 8333              	.LASF56:
 8334 0647 76746675 		.ascii	"vtfunc_t\000"
 8334      6E635F74 
 8334      00
 8335              	.LASF195:
 8336 0650 70776D45 		.ascii	"pwmEnablePeriodicNotification\000"
 8336      6E61626C 
 8336      65506572 
 8336      696F6469 
 8336      634E6F74 
 8337              	.LASF140:
 8338 066e 70657269 		.ascii	"period\000"
 8338      6F6400
 8339              	.LASF66:
 8340 0675 70616E69 		.ascii	"panic_msg\000"
 8340      635F6D73 
ARM GAS  /tmp/ccsMqF3p.s 			page 214


 8340      6700
 8341              	.LASF133:
 8342 067f 696F706F 		.ascii	"ioportid_t\000"
 8342      72746964 
 8342      5F7400
 8343              	.LASF106:
 8344 068a 6576656E 		.ascii	"event_listener_t\000"
 8344      745F6C69 
 8344      7374656E 
 8344      65725F74 
 8344      00
 8345              	.LASF7:
 8346 069b 73686F72 		.ascii	"short unsigned int\000"
 8346      7420756E 
 8346      7369676E 
 8346      65642069 
 8346      6E7400
 8347              	.LASF193:
 8348 06ae 5F70616C 		.ascii	"_pal_lld_setgroupmode\000"
 8348      5F6C6C64 
 8348      5F736574 
 8348      67726F75 
 8348      706D6F64 
 8349              	.LASF58:
 8350 06c4 63685F76 		.ascii	"ch_virtual_timer\000"
 8350      69727475 
 8350      616C5F74 
 8350      696D6572 
 8350      00
 8351              	.LASF151:
 8352 06d5 50574D43 		.ascii	"PWMChannelConfig\000"
 8352      68616E6E 
 8352      656C436F 
 8352      6E666967 
 8352      00
 8353              	.LASF203:
 8354 06e6 63685265 		.ascii	"chRegSetThreadName\000"
 8354      67536574 
 8354      54687265 
 8354      61644E61 
 8354      6D6500
 8355              	.LASF157:
 8356 06f9 53445F52 		.ascii	"SD_READY\000"
 8356      45414459 
 8356      00
 8357              	.LASF32:
 8358 0702 6E657765 		.ascii	"newer\000"
 8358      7200
 8359              	.LASF26:
 8360 0708 6576656E 		.ascii	"eventflags_t\000"
 8360      74666C61 
 8360      67735F74 
 8360      00
 8361              	.LASF201:
 8362 0715 6D61696E 		.ascii	"main.c\000"
 8362      2E6300
 8363              	.LASF154:
ARM GAS  /tmp/ccsMqF3p.s 			page 215


 8364 071c 50574D43 		.ascii	"PWMConfig\000"
 8364      6F6E6669 
 8364      6700
 8365              	.LASF123:
 8366 0726 715F746F 		.ascii	"q_top\000"
 8366      7000
 8367              	.LASF101:
 8368 072c 63685F6D 		.ascii	"ch_mutex\000"
 8368      75746578 
 8368      00
 8369              	.LASF126:
 8370 0735 715F6E6F 		.ascii	"q_notify\000"
 8370      74696679 
 8370      00
 8371              	.LASF69:
 8372 073e 726C6973 		.ascii	"rlist\000"
 8372      7400
 8373              	.LASF111:
 8374 0744 6576656E 		.ascii	"event_source\000"
 8374      745F736F 
 8374      75726365 
 8374      00
 8375              	.LASF15:
 8376 0751 75696E74 		.ascii	"uint8_t\000"
 8376      385F7400 
 8377              	.LASF138:
 8378 0759 50574D44 		.ascii	"PWMDriver\000"
 8378      72697665 
 8378      7200
 8379              	.LASF200:
 8380 0763 474E5520 		.ascii	"GNU C 4.8.2 -mcpu=cortex-m3 -mno-thumb-interwork -m"
 8380      4320342E 
 8380      382E3220 
 8380      2D6D6370 
 8380      753D636F 
 8381 0796 7468756D 		.ascii	"thumb -ggdb -O2 -fomit-frame-pointer -falign-functi"
 8381      62202D67 
 8381      67646220 
 8381      2D4F3220 
 8381      2D666F6D 
 8382 07c9 6F6E733D 		.ascii	"ons=16 -ffunction-sections -fdata-sections -fno-com"
 8382      3136202D 
 8382      6666756E 
 8382      6374696F 
 8382      6E2D7365 
 8383 07fc 6D6F6E20 		.ascii	"mon -flto\000"
 8383      2D666C74 
 8383      6F00
 8384              	.LASF37:
 8385 0806 666C6167 		.ascii	"flags\000"
 8385      7300
 8386              	.LASF137:
 8387 080c 70776D73 		.ascii	"pwmstate_t\000"
 8387      74617465 
 8387      5F7400
 8388              	.LASF179:
 8389 0817 70776D63 		.ascii	"pwmcfg1\000"
ARM GAS  /tmp/ccsMqF3p.s 			page 216


 8389      66673100 
 8390              	.LASF148:
 8391 081f 70776D63 		.ascii	"pwmcnt_t\000"
 8391      6E745F74 
 8391      00
 8392              	.LASF94:
 8393 0828 77746F62 		.ascii	"wtobjp\000"
 8393      6A7000
 8394              	.LASF46:
 8395 082f 74687265 		.ascii	"threads_list_t\000"
 8395      6164735F 
 8395      6C697374 
 8395      5F7400
 8396              	.LASF20:
 8397 083e 746D6F64 		.ascii	"tmode_t\000"
 8397      655F7400 
 8398              	.LASF143:
 8399 0846 636C6F63 		.ascii	"clock\000"
 8399      6B00
 8400              	.LASF204:
 8401 084c 6D61696E 		.ascii	"main\000"
 8401      00
 8402              	.LASF42:
 8403 0851 6D74786C 		.ascii	"mtxlist\000"
 8403      69737400 
 8404              	.LASF134:
 8405 0859 50574D5F 		.ascii	"PWM_UNINIT\000"
 8405      554E494E 
 8405      495400
 8406              	.LASF196:
 8407 0864 70776D45 		.ascii	"pwmEnableChannel\000"
 8407      6E61626C 
 8407      65436861 
 8407      6E6E656C 
 8407      00
 8408              	.LASF18:
 8409 0875 75696E74 		.ascii	"uint32_t\000"
 8409      33325F74 
 8409      00
 8410              	.LASF107:
 8411 087e 6576656E 		.ascii	"event_listener\000"
 8411      745F6C69 
 8411      7374656E 
 8411      657200
 8412              	.LASF153:
 8413 088d 64696572 		.ascii	"dier\000"
 8413      00
 8414              	.LASF205:
 8415 0892 63687072 		.ascii	"chprintf\000"
 8415      696E7466 
 8415      00
 8416              		.comm	__gnu_lto_v1,1,1
 8417              		.ident	"GCC: (4.8.2-14ubuntu1+6) 4.8.2"
ARM GAS  /tmp/ccsMqF3p.s 			page 217


DEFINED SYMBOLS
                            *ABS*:0000000000000000 main.c
     /tmp/ccsMqF3p.s:988    .text.pwmpcb:0000000000000000 $t
     /tmp/ccsMqF3p.s:993    .text.pwmpcb:0000000000000000 pwmpcb
     /tmp/ccsMqF3p.s:1012   .text.pwmc1cb:0000000000000000 $t
     /tmp/ccsMqF3p.s:1017   .text.pwmc1cb:0000000000000000 pwmc1cb
     /tmp/ccsMqF3p.s:1035   .text.pwmp2cb:0000000000000000 $t
     /tmp/ccsMqF3p.s:1040   .text.pwmp2cb:0000000000000000 pwmp2cb
     /tmp/ccsMqF3p.s:1058   .text.pwmc2cb:0000000000000000 $t
     /tmp/ccsMqF3p.s:1063   .text.pwmc2cb:0000000000000000 pwmc2cb
     /tmp/ccsMqF3p.s:1081   .text.Thread2:0000000000000000 $t
     /tmp/ccsMqF3p.s:1086   .text.Thread2:0000000000000000 Thread2
     /tmp/ccsMqF3p.s:3112   .rodata.str1.4:0000000000000000 .LC0
     /tmp/ccsMqF3p.s:3115   .rodata.str1.4:000000000000000c .LC1
     /tmp/ccsMqF3p.s:1128   .text.startup.main:0000000000000000 $t
     /tmp/ccsMqF3p.s:1134   .text.startup.main:0000000000000000 main
     /tmp/ccsMqF3p.s:3125   .data.pwmcfg1:0000000000000000 .LANCHOR0
     /tmp/ccsMqF3p.s:3072   .data.pwmcfg:0000000000000000 .LANCHOR1
     /tmp/ccsMqF3p.s:3098   .bss.table:0000000000000000 .LANCHOR3
     /tmp/ccsMqF3p.s:3150   .data.s:0000000000000000 .LANCHOR6
     /tmp/ccsMqF3p.s:3065   .bss.waThread2:0000000000000000 .LANCHOR2
     /tmp/ccsMqF3p.s:3091   .bss.PosFx:0000000000000000 .LANCHOR4
     /tmp/ccsMqF3p.s:3105   .bss.PosFy:0000000000000000 .LANCHOR5
     /tmp/ccsMqF3p.s:3144   .bss.PosCy:0000000000000000 .LANCHOR7
     /tmp/ccsMqF3p.s:3157   .bss.PosCx:0000000000000000 .LANCHOR8
     /tmp/ccsMqF3p.s:1477   .text.startup.main:00000000000002c0 $d
     /tmp/ccsMqF3p.s:1487   .text.startup.main:00000000000002d0 $t
     /tmp/ccsMqF3p.s:3153   .data.s:0000000000000000 s
     /tmp/ccsMqF3p.s:3147   .bss.PosCy:0000000000000000 PosCy
     /tmp/ccsMqF3p.s:3160   .bss.PosCx:0000000000000000 PosCx
     /tmp/ccsMqF3p.s:3108   .bss.PosFy:0000000000000000 PosFy
     /tmp/ccsMqF3p.s:3094   .bss.PosFx:0000000000000000 PosFx
     /tmp/ccsMqF3p.s:3121   .bss.temp:0000000000000000 temp
     /tmp/ccsMqF3p.s:3101   .bss.table:0000000000000000 table
     /tmp/ccsMqF3p.s:3064   .bss.waThread2:0000000000000000 $d
     /tmp/ccsMqF3p.s:3068   .bss.waThread2:0000000000000000 waThread2
     /tmp/ccsMqF3p.s:3071   .data.pwmcfg:0000000000000000 $d
     /tmp/ccsMqF3p.s:3075   .data.pwmcfg:0000000000000000 pwmcfg
     /tmp/ccsMqF3p.s:3090   .bss.PosFx:0000000000000000 $d
     /tmp/ccsMqF3p.s:3097   .bss.table:0000000000000000 $d
     /tmp/ccsMqF3p.s:3104   .bss.PosFy:0000000000000000 $d
     /tmp/ccsMqF3p.s:3111   .rodata.str1.4:0000000000000000 $d
     /tmp/ccsMqF3p.s:3118   .bss.temp:0000000000000000 $d
     /tmp/ccsMqF3p.s:3124   .data.pwmcfg1:0000000000000000 $d
     /tmp/ccsMqF3p.s:3128   .data.pwmcfg1:0000000000000000 pwmcfg1
     /tmp/ccsMqF3p.s:3143   .bss.PosCy:0000000000000000 $d
     /tmp/ccsMqF3p.s:3156   .bss.PosCx:0000000000000000 $d
                            *COM*:0000000000000001 __gnu_lto_v1
                     .debug_frame:0000000000000010 $d

UNDEFINED SYMBOLS
ch
SD2
chprintf
chThdSleep
halInit
chSysInit
ARM GAS  /tmp/ccsMqF3p.s 			page 218


_pal_lld_setgroupmode
PWMD1
pwmStart
pwmEnablePeriodicNotification
pwmEnableChannel
pwmEnableChannelNotification
PWMD3
sdStart
chThdCreateStatic
