ARM GAS  /tmp/ccGrz3Xa.s 			page 1


   1              		.syntax unified
   2              		.cpu cortex-m3
   3              		.fpu softvfp
   4              		.eabi_attribute 20, 1
   5              		.eabi_attribute 21, 1
   6              		.eabi_attribute 23, 3
   7              		.eabi_attribute 24, 1
   8              		.eabi_attribute 25, 1
   9              		.eabi_attribute 26, 1
  10              		.eabi_attribute 30, 2
  11              		.eabi_attribute 34, 1
  12              		.eabi_attribute 18, 4
  13              		.thumb
  14              		.file	"main.c"
  15              		.text
  16              	.Ltext0:
  17              		.section	.gnu.lto_.jmpfuncs.3f2b612c2a24cb3c,"",%progbits
  18 0000 789C6362 		.ascii	"x\234cb`b\300\006r\371\031\030\304\2014\033\003\003"
  18      6062C006 
  18      72F91918 
  18      C481341B 
  18      0303
  19 0012 23500933 		.ascii	"#P\0113\003\013\003#S\004c&#\303\013v\006\006&\246j"
  19      030B0323 
  19      53046326 
  19      23C30B76 
  19      060626A6 
  20 0027 865F0D1D 		.ascii	"\206_\015\035\015\002\231\214\214\271\214`\015`\221"
  20      0D02998C 
  20      8CB98C60 
  20      0D6091
  21 0036 19201126 		.ascii	"\031 \021&9\006\306\271\0153\0342\031\231\3012\3540"
  21      3906C6B9 
  21      0D331C32 
  21      1999C132 
  21      EC30
  22 0048 9D1DEA0C 		.ascii	"\235\035\352\014\014\314\010\235,\271\214`\255`IV\030"
  22      0CCC089D 
  22      2CB98C60 
  22      AD604956 
  22      18
  23 0059 0368219A 		.ascii	"\003h!\232\"&\354\212\240\206.c\301o\350\300\230F\211"
  23      2226EC8A 
  23      A0862E63 
  23      C16FE8C0 
  23      984689
  24 006c 2983D331 		.ascii	")\203\3231\240h\247{\344\021e(\003M\323\327\035\356"
  24      A068A77B 
  24      E4116528 
  24      034DD3D7 
  24      1DEE
  25 007e 91127C34 		.ascii	"\221\022|4q\342`\016\276\021\347\341\321\3642\210\252"
  25      71E2600E 
  25      BE11E7E1 
  25      D1F43288 
  25      AA
  26 008f 9A0149D2 		.ascii	"\232\001I\322\2039\370\006A\352\033qIz4\275\014\276"
ARM GAS  /tmp/ccGrz3Xa.s 			page 2


  26      8339F806 
  26      41EA1B71 
  26      497A34BD 
  26      0CBE
  27 00a1 F43298FD 		.ascii	"\3642\230\375\315\212P\304\236\013i\337\203\3458N0\301"
  27      CD8A50C4 
  27      9E0B69DF 
  27      83E5384E 
  27      30C1
  28 00b3 54353242 		.ascii	"T52B;\003`U\234\311\320\356\001H\216\013\304\300\322"
  28      3B036055 
  28      9CC9D0EE 
  28      01488E0B 
  28      C4C0D2
  29 00c6 7500C971 		.ascii	"u\000\311q\243\312a\270\223(?0bQ\204E\010.\302\223\313"
  29      A3CA61B8 
  29      93283F30 
  29      62518445 
  29      082EC293 
  30 00db C882A988 		.ascii	"\310\202\251\210\011\217\3058\243\016S\021\026!d\213"
  30      098FC538 
  30      A30E5311 
  30      1621648B 
  31 00eb 5921B90B 		.ascii	"Y!\271\013d\002o\303\214\226\006\026\230q\015\015\214"
  31      64026FC3 
  31      8C960616 
  31      98710D0D 
  31      8C
  32 00fc 50261F1B 		.ascii	"P&\037\033\016\025\034\204\02440\021R!\200E\301\004"
  32      0E151C84 
  32      14343011 
  32      52218045 
  32      C104
  33 010e 92146073 		.ascii	"\222\024`s\004\212\002\026B\012\2609\022E\001< X\260"
  33      048A0216 
  33      420AB039 
  33      1245013C 
  33      2058B0
  34 0121 2B702020 		.ascii	"+p  \257@@\236\220\037\011y\221\220\017\341\036d\302"
  34      AF40409E 
  34      901F0979 
  34      91900FE1 
  34      1E64C2
  35 0134 2ECF8824 		.ascii	".\317\210$\017\004b\311\371\271\245y\231\311\211\311"
  35      0F0462C9 
  35      F9B9A579 
  35      99C989C9 
  36 0144 99F9790A 		.ascii	"\231\371y\012\301!\276\306F\012\274\\\014\0003ff9"
  36      C121BEC6 
  36      460ABC5C 
  36      0C003366 
  36      6639
  37              		.text
  38              		.section	.gnu.lto_.inline.3f2b612c2a24cb3c,"",%progbits
  39 0000 789CC593 		.ascii	"x\234\305\223A\016\203 \020E?\303\200i\2531]u\351\215"
  39      410E8320 
  39      10453FC3 
ARM GAS  /tmp/ccGrz3Xa.s 			page 3


  39      8069AB31 
  39      5D75E98D 
  40 0014 7AA61EA1 		.ascii	"z\246\036\241G\360\036=@\267\246G\350\276W0\005\004"
  40      47F01E3D 
  40      40B7A647 
  40      E8BE5730 
  40      0504
  41 0026 A30183A6 		.ascii	"\243\001\203\246Mt\301\014\317\307\017,\206@H}\017\036"
  41      4D74C10C 
  41      CFC70F2C 
  41      8640487D 
  41      0F1E
  42 0038 AA06580A 		.ascii	"\252\006X\012\020u5t\3338Y\304\210b$c\3048\364g\303"
  42      10753574 
  42      DB3859C4 
  42      88622463 
  42      C438F467 
  43 004d B86D4C3F 		.ascii	"\270mL?\034<\011\223'Ka\267\005^\272\377\024\246\177"
  43      1C3C0993 
  43      274B61B7 
  43      055EBAFF 
  43      14A67F
  44 0060 AB5BF7BC 		.ascii	"\253[\367\274\314%\256\214hS|\235\321\373u\015\036\267"
  44      CC25AE8C 
  44      68537C9D 
  44      D1FB750D 
  44      1EB7
  45 0072 93E6273F 		.ascii	"\223\346'?}\031der\224B4\005{\302\307\232\244\253\344"
  45      7D196465 
  45      72944234 
  45      057BC2C7 
  45      9AA4ABE4 
  46 0086 15D1EC28 		.ascii	"\025\321\354({\3121\265\031\0342\2626\266\310\333\242"
  46      7BCA31B5 
  46      191C32B2 
  46      36B6C8DB 
  46      A2
  47 0097 477BE75B 		.ascii	"G{\347[\377\365-\326V\216+o+o'\350\262,\035\225\236"
  47      FFF52DD6 
  47      568E2B6F 
  47      2B6F27E8 
  47      B22C1D95 
  48 00ac CA656A23 		.ascii	"\312ej#R\262\256\001\345\006^\226v\232C\341\012>\014"
  48      52B2AE01 
  48      E5065E96 
  48      769A43E1 
  48      0A3E0C
  49 00bf 6E4CB3FF 		.ascii	"nL\263\377\002\334\253\212cX\360\005\253U4\364"
  49      02DCAB8A 
  49      6358F005 
  49      AB5534F4 
  50              		.text
  51              		.section	.gnu.lto_.pureconst.3f2b612c2a24cb3c,"",%progbits
  52 0000 789C6362 		.ascii	"x\234cb`b\340e\200\0006\006)F)&)f)\0263v3\000\006:\000"
  52      6062E065 
  52      80003606 
  52      29462926 
ARM GAS  /tmp/ccGrz3Xa.s 			page 4


  52      29662916 
  53 001b FD       		.ascii	"\375"
  54              		.text
  55              		.section	.gnu.lto_pwmpcb.3f2b612c2a24cb3c,"",%progbits
  56 0000 789C6362 		.ascii	"x\234cb`b@\007\222@<\003\2109\201\230\221\231\201\221"
  56      60624007 
  56      92403C03 
  56      88398198 
  56      91998191 
  57 0014 69C23906 		.ascii	"i\3029\006\206F\016&FF\020\203\201\221\241\236\211\261"
  57      86460E26 
  57      46461083 
  57      8191A19E 
  57      89B1
  58 0026 3E9211AC 		.ascii	">\222\021\254v=\323\201\007\377\377\257\273\263\345"
  58      763DD381 
  58      07FFFFAF 
  58      BBB3E5
  59 0035 91355029 		.ascii	"\2215P)\003\003+CKC\303\004\005\006\206d\260|\010\220"
  59      03032B43 
  59      4B43C304 
  59      05068664 
  59      B07C0890 
  60 0049 04690A65 		.ascii	"\004i\012ed\002\321\314g\031\016\355\270\321\307\230"
  60      6402D1CC 
  60      67190EED 
  60      B8D1C798 
  61 0059 C8B89091 		.ascii	"\310\270\220\221\225A\233aUC\013c&#\303l\206Y@\2121"
  61      95419B61 
  61      55430B63 
  61      2623C36C 
  61      8659408A 
  62 006e 02483035 		.ascii	"\002H05Lhi`a\0003\301\026$A\354\001\21307\200\304.2"
  62      4C686960 
  62      610033C1 
  62      162441EC 
  62      018B3037 
  63 0086 343ED8CD 		.ascii	"4>\330\315\0041\002\006B\030\031A\346\203\244\331s\023"
  63      04310206 
  63      42181941 
  63      E683A4D9 
  63      7313
  64 0098 33F3F492 		.ascii	"3\363\364\222\031\000W\223(\366"
  64      19005793 
  64      28F6
  65              		.text
  66              		.section	.gnu.lto_pwmc1cb.3f2b612c2a24cb3c,"",%progbits
  67 0000 789C5D4D 		.ascii	"x\234]M;\012\302@\024\234ykP\217`g/x\020\353\010Z\306"
  67      3B0AC240 
  67      149C796B 
  67      508F6067 
  67      2F7810EB 
  68 0017 5429F40A 		.ascii	"T)\364\012\331\300\036 X\211V\266\026\332n)\226\202"
  68      D9C01E20 
  68      588956B6 
  68      16DA6E29 
  68      9682
ARM GAS  /tmp/ccGrz3Xa.s 			page 5


  69 0029 8237081E 		.ascii	"\2027\010\036\303&\276\335`\343\203y3\314\274\217@\360"
  69      C326BEDD 
  69      60E38379 
  69      33CCBC8F 
  69      40F0
  70 003b 5F23C54E 		.ascii	"_#\305N1T\320\200R?\201j d\020 Ja\271d\234\275\310\265"
  70      3154D080 
  70      523F816A 
  70      20641020 
  70      4A61B964 
  71 0053 69DBF3C7 		.ascii	"i\333\363\307\277g:\012$p\326\326c \217y\252=,\315)"
  71      BF673A0A 
  71      2470D6D6 
  71      63208F79 
  71      AA3D2CCD 
  72 0068 81CD0337 		.ascii	"\201\315\0037\357\267\314xd\202\011N\326\261 \016\330"
  72      EFB7CC78 
  72      6482094E 
  72      D6B1200E 
  72      D8
  73 0079 2B71A14D 		.ascii	"+q\241Ml\355l\017Q\306\007\253\356Ot\214\015\336\013"
  73      6CED6C0F 
  73      51C607AB 
  73      EE4F748C 
  73      0DDE0B
  74 008c 557397EE 		.ascii	"Us\227\356\304\257R2\334\017q\177\235\025\233i\216/"
  74      C4AF5232 
  74      DC0F717F 
  74      9D159B69 
  74      8E2F
  75 009e 6A4A291A 		.ascii	"jJ)\032"
  76              		.text
  77              		.section	.gnu.lto_pwmp2cb.3f2b612c2a24cb3c,"",%progbits
  78 0000 789C5D4D 		.ascii	"x\234]M1\012\302@\020\234\3313\030\237`g/\370\232\010"
  78      310AC240 
  78      109CD933 
  78      189F6067 
  78      2FF89A08 
  79 0014 5AC65429 		.ascii	"Z\306T)\264\267\312\005\356\001)\203\202`k\241\255v"
  79      B4B7CA05 
  79      EE012983 
  79      82606BA1 
  79      AD76
  80 0026 62AF606B 		.ascii	"b\257`k\025\374\205U\334\273`\343\302\354\016\2733;"
  80      15FC8555 
  80      DCBB60E3 
  80      C2EC0EBB 
  80      333B
  81 0038 02C17F0D 		.ascii	"\002\301\177\015\025\265b\240\240\001\245z\000e,\244"
  81      15B562A0 
  81      A001A57A 
  81      00652CA4 
  82 0048 27200A61 		.ascii	"' \012a1g\320\236\344\332\264\355\361uy\257U\012Dp\326"
  82      3167D09E 
  82      E4DAB4ED 
  82      F17579AF 
  82      550A4470 
ARM GAS  /tmp/ccGrz3Xa.s 			page 6


  83 005d 5623200B 		.ascii	"V# \013\367D\2737M)~\232;n\347z\307\224{F\030\343`\035"
  83      F744BB37 
  83      4D297E9A 
  83      3B6EE77A 
  83      C7947B46 
  84 0075 73628B8D 		.ascii	"sb\213\215\016\316\264\211\255\234\355!\320\020\260"
  84      0ECEB489 
  84      AD9CED21 
  84      D010B0
  85 0084 E872C2C6 		.ascii	"\350r\302\306\330X\331\023e\363\221\356\305\257\022"
  85      D858D913 
  85      65F391EE 
  85      C5AF12
  86 0093 D2FFF796 		.ascii	"\322\377\367\226\3762\315W\223\014_rC)K"
  86      FE32CD57 
  86      930C5F72 
  86      43294B
  87              		.text
  88              		.section	.gnu.lto_pwmc2cb.3f2b612c2a24cb3c,"",%progbits
  89 0000 789C5D4D 		.ascii	"x\234]M1\012\302@\020\234\331\030\214O\260\263\027|"
  89      310AC240 
  89      109CD918 
  89      8C4FB0B3 
  89      177C
  90 0012 4D042D63 		.ascii	"M\004-c\252\024\372\205\\\340\036p\245h!\266\026\332"
  90      AA14FA85 
  90      5CE01E70 
  90      A56821B6 
  90      16DA
  91 0024 6A27F60A 		.ascii	"j'\366\012v\226\301G\330\236{\027l\\\230\335awfG \370"
  91      7696C147 
  91      D89E7B17 
  91      6C5C98DD 
  91      61776647 
  92 003a AFA162AD 		.ascii	"\257\241b\255\030(\230\200\342\036@\223\011\031\010"
  92      18289880 
  92      E21E4093 
  92      091908
  93 0049 885A58CF 		.ascii	"\210ZX\317\031\265'\271\266\336\037?\227w\255R \205"
  93      19B527B9 
  93      B6DE1F3F 
  93      9777AD52 
  93      2085
  94 005b 35C68D80 		.ascii	"5\306\215\2002\336s\355\3014\245\204\231\334q;\277v"
  94      32DE73ED 
  94      C134A584 
  94      99DC713B 
  94      BF76
  95 006d 2CB8678A 		.ascii	",\270g\2121\016\306\262\"\266\330\350\340L\233\030g"
  95      310EC6B2 
  95      22B6D8E8 
  95      E04C9B18 
  95      67
  96 007e 4D0F91C6 		.ascii	"M\017\221\306\200E\227\0237\211\311\224=\321\264^\272"
  96      80459713 
  96      3789C994 
  96      3DD1B45E 
ARM GAS  /tmp/ccGrz3Xa.s 			page 7


  96      BA
  97 008f 17BFCAC9 		.ascii	"\027\277\312\311\360?X\372\313\242ZMJ|\001\240\257)"
  97      F03F58FA 
  97      CBA25A4D 
  97      4A7C01A0 
  97      AF29
  98 00a1 B4       		.ascii	"\264"
  99              		.text
 100              		.section	.gnu.lto_Thread2.3f2b612c2a24cb3c,"",%progbits
 101 0000 789C6551 		.ascii	"x\234eQ\277k\024Q\020\236y\273w\267^\314\257F\221\300"
 101      BF6B1451 
 101      109E79BB 
 101      77B75ECC 
 101      AF4691C0 
 102 0014 71043BF1 		.ascii	"q\004;\361\016\222*\235\371\003\304\"\027\324r\363\262"
 102      0E922A9D 
 102      F903C422 
 102      17D472F3 
 102      B2
 103 0025 240FDC3D 		.ascii	"$\017\334=\270\037\205Xdr$\020H\220#(\204\004\321\010"
 103      B81F8558 
 103      64722410 
 103      48902328 
 103      8404D108 
 104 0039 A7609140 		.ascii	"\247`\221@\312\244\271&E85\242\235Xli!\202\240\215\205"
 104      CAA4B926 
 104      453835A2 
 104      9D586C69 
 104      2182A08D 
 105 004e E7BCF7F6 		.ascii	"\347\274\367\366V\324\201}ofv\346\233\357\233'@\300"
 105      56D4817D 
 105      6F6676E6 
 105      9BEF9B27 
 105      40C0
 106 0060 BF769DBF 		.ascii	"\277v\235\277\253\234\276\3057f\000E\373-\300\252'\320"
 106      AB9CBEC5 
 106      37660045 
 106      FB2DC0AA 
 106      27D0
 107 0072 B18E83AE 		.ascii	"\261\216\203\256u\\\233\231EX\021\216\213+w\321\364"
 107      755C9B99 
 107      4558118E 
 107      8B2B77D1 
 107      F4
 108 0083 1F8A6EDC 		.ascii	"\037\212n\334\357\037\034\367:[x(\274,(\223\317\300"
 108      EF1F1CF7 
 108      3A5B7828 
 108      BC2C2893 
 108      CFC0
 109 0095 1A51BB08 		.ascii	"\032Q\273\010 MX\341\023a\036\005\240s\006-\017`\022"
 109      204D58E1 
 109      13611E05 
 109      A073062D 
 109      0F6012
 110 00a8 F689B6BB 		.ascii	"\366\211\266\273'\233[W\350Y\253M\277\372}T\310\005"
 110      279B5B57 
 110      E859AB4D 
ARM GAS  /tmp/ccGrz3Xa.s 			page 8


 110      BFFA7D54 
 110      C805
 111 00ba 79D43D77 		.ascii	"y\324=w8\020Es9\356\337\214\037\300O\332\241\356\207"
 111      38104573 
 111      39EEDF8C 
 111      1FC04FDA 
 111      A1EE87
 112 00cd CDCB0ADD 		.ascii	"\315\313\012\335\002\214>\241\235\033\212\251\373\270"
 112      028C3EA1 
 112      9D1B8AA9 
 112      FBB8
 113 00db CF27DB1B 		.ascii	"\317'\333\033h}\374\364\360\365\221\223\222\260N\267"
 113      687DFCF4 
 113      F0F59193 
 113      92B04EB7 
 114 00eb F7FD7DC6 		.ascii	"\367\375}\306\307\3478\311E\266Z\242\241\267\204\331"
 114      C7E738C9 
 114      45B65AA2 
 114      A1B784D9 
 115 00fb 6BF08A88 		.ascii	"k\360\212\210\342\037\361\243\011V`#\032R\230\335\203"
 115      E21FF1A3 
 115      09566023 
 115      1A5298DD 
 115      83
 116 010c DD55A231 		.ascii	"\335U\2421\2059=xC{^h\27249\317PZ@\203\370R\317_\320"
 116      85393D78 
 116      437B5E68 
 116      BA3439CF 
 116      505A4083 
 117 0125 90896FB8 		.ascii	"\220\211o\270\364\336\215\370\370\202\303\004\3646\313"
 117      F4DE8DF8 
 117      F882C304 
 117      F436CB
 118 0134 4C412FF0 		.ascii	"LA/\360h\215\003\011\216H{\255\314\270s\374M\260N\037"
 118      688D0309 
 118      8E487BAD 
 118      CCB873FC 
 118      4DB04E1F 
 119 0148 3B58F823 		.ascii	";X\370#Q\333<:\300/\342\234\303z\374\3454;\370\227\262"
 119      51DB3C3A 
 119      C02FE29C 
 119      C37AFCE5 
 119      343BF897 
 120 015d CC4B14E9 		.ascii	"\314K\024\351\3026\210\036\363\230\241\0201)\264\370"
 120      C236881E 
 120      F398A110 
 120      3129B4F8 
 121 016d F494B317 		.ascii	"\364\224\263\027\0130c\2678<\030\241p\004\340\034\326"
 121      0B3063B7 
 121      383C18A1 
 121      7004E01C 
 121      D6
 122 017e E2AFC17F 		.ascii	"\342\257\301\177\300\243\222'\017\0260\3669\307\305"
 122      C0A39227 
 122      0F1630F6 
 122      39C7C5
 123 018d E3965205 		.ascii	"\343\226R\005]M\011+\230\010\312\205\276\212J\022\334"
ARM GAS  /tmp/ccGrz3Xa.s 			page 9


 123      5D4D092B 
 123      9808CA85 
 123      BE8A4A12 
 123      DC
 124 019e C80F837C 		.ascii	"\310\017\203|=\210\026\247\232~\255\001\205R\251\\\255"
 124      3D8816A7 
 124      9A7EAD01 
 124      8552A95C 
 124      AD
 125 01af 976B8DB2 		.ascii	"\227k\215\262\212\344\275\346bP\226\313\265`I\325\033"
 125      8AE4BDE6 
 125      625096CB 
 125      B56049D5 
 125      1B
 126 01c0 B5FBA565 		.ascii	"\265\373\245e\270$\253a3R\322\227\252\032\025\347*7"
 126      B824AB61 
 126      3352D297 
 126      AA1A15E7 
 126      2A37
 127 01d2 A7A78AC3 		.ascii	"\247\247\212\303y\370\015\250#\247\036"
 127      79F80DA8 
 127      23A71E
 128              		.text
 129              		.section	.gnu.lto_main.3f2b612c2a24cb3c,"",%progbits
 130 0000 789CAD5C 		.ascii	"x\234\255\\it\024\327\225~\357Uk\227\220\330\367}\023"
 130      697414D7 
 130      957EEF55 
 130      6B9790D8 
 130      F77D13
 131 0013 080BC426 		.ascii	"\010\013\304&\026\333\200\035\217\3559'v\022[Nrr2\347"
 131      16DB801D 
 131      8FED3927 
 131      76125B4E 
 131      727232E7 
 132 0027 38F21CAC 		.ascii	"8\362\034\254\3140\223\330\363#99\011-\304\030\201%"
 132      CC3093D8 
 132      F3233939 
 132      092DC418 
 132      8125
 133 0039 108AB13B 		.ascii	"\020\212\261;,F@\014Z\000\031\011P\263\014\0222\213"
 133      2C46400C 
 133      5A001909 
 133      50B30C12 
 133      328B
 134 004b D8F1B133 		.ascii	"\330\361\2613V\000\031\031O\220@ )\020C[\302\364\324"
 134      56001919 
 134      4F904020 
 134      2910435B 
 134      C2F4D4
 135 005e BDB5BC52 		.ascii	"\275\265\274RuW\253\253_\365\217\257\253\337\273\367"
 135      7557ABAB 
 135      5FF58FAF 
 135      ABDFBBF7 
 136 006e D6DDDE7D 		.ascii	"\326\335\336}\267\236\272\305\010#\346\327\033\022!"
 136      B79EBAC5 
 136      0823E6D7 
 136      1B1221
ARM GAS  /tmp/ccGrz3Xa.s 			page 10


 137 007d 1BFF8D90 		.ascii	"\033\377\215\220\177\221\257\351\263\204\262\242\213"
 137      7F91AFE9 
 137      B384B2A2 
 137      8B
 138 008a 84E4C632 		.ascii	"\204\344\3062:R\271\220\230+\1772q\307G\001&\272h\224"
 138      3A52B990 
 138      982B7F32 
 138      71C74701 
 138      26BA6894 
 139 009e 321CC5A2 		.ascii	"2\034\305\242q8\006\207\243i\2142\034\303bq8\016\207"
 139      71380687 
 139      A3698C32 
 139      1CC36271 
 139      380E87
 140 00b1 63699C32 		.ascii	"ci\2342\034\307\342q8\001\207\343i\2022\234\300\022"
 140      1CC7E271 
 140      380187E3 
 140      6982329C 
 140      C012
 141 00c3 71380987 		.ascii	"q8\011\207\023i\2222\234\304\372\340p2\016\367\241\311"
 141      13699232 
 141      9CC4FAE0 
 141      70320EF7 
 141      A1C9
 142 00d5 CA70324B 		.ascii	"\312p2K\301\341\2768\234B\373*\303}Y?\034\356\217\303"
 142      C1E1BE38 
 142      9C42FB2A 
 142      C37D593F 
 142      1CEE8FC3 
 143 00e9 FD687F65 		.ascii	"\375h\177e\270\177\334\210/b\211;v\000\342@\304A\210"
 143      B87FDC88 
 143      2F62893B 
 143      7600E240 
 143      C44188
 144 00fc 83118720 		.ascii	"\203\021\207 \016E\034\2068\\\241\247#\024\001\003\265"
 144      0E451C86 
 144      385CA1A7 
 144      23140103 
 144      B5
 145 010d 8B41DAC5 		.ascii	"\213A\332\305`\355b\210v1T\273\030\246]\014\327.F(\016"
 145      60ED6288 
 145      763154BB 
 145      18A65D0C 
 145      D72E4628 
 146 0122 5C329249 		.ascii	"\\2\222I\250\336\223\250\336\223t1\214\322Qlt\347@y"
 146      A8DE93A8 
 146      DE937431 
 146      8CD2516C 
 146      74E74079 
 147 0136 7476C93C 		.ascii	"tv\311<yt4\033\223\227\012\237\012'\311\237\306\320"
 147      7974341B 
 147      93970A9F 
 147      0A27C99F 
 147      C6D0
 148 0148 998A88B1 		.ascii	"\231\212\210\261l\334\325xyx\374\201O\210<>\216\216"
 148      6CDCD578 
 148      7978FC81 
ARM GAS  /tmp/ccGrz3Xa.s 			page 11


 148      4F883C3E 
 148      8E8E
 149 015a 57C6C7B3 		.ascii	"W\306\307\263\011\365\222<\376\314\305\2630^O\350,\274"
 149      09F5923C 
 149      FECCC5B3 
 149      305E4FE8 
 149      2CBC
 150 016c D5043609 		.ascii	"\325\0046\011o5\021o5Q\375\224\216\237&\261\311(+U\221"
 150      6F35116F 
 150      3551FD94 
 150      8E9F26B1 
 150      C9282B55 
 151 0181 3599A62A 		.ascii	"5\231\246*\262R\331\024P!>\015\324I\234\302\246\242"
 151      B252D914 
 151      50213E0D 
 151      D4499CC2 
 151      A6A2
 152 0193 2269A8C8 		.ascii	"\"i\250\310T\232\246\020\245\261i\006Q\323\330\023("
 152      549AA610 
 152      A5B16906 
 152      51D3D813 
 152      28
 153 01a4 2A5D11F5 		.ascii	"*]\021\365\004MW\250\322\331\214\317\007\311\343\323"
 153      044D57A8 
 153      D2D98CCF 
 153      07C9E3D3 
 154 01b4 8F66CAC3 		.ascii	"\217f\312\303\323\331\014\344\311@\236\0314C!\312P\214"
 154      D3D90CE4 
 154      C9409E19 
 154      344321CA 
 154      508C
 155 01c6 5B3253D1 		.ascii	"[2S\321\231\316bc\321\212\370\331`R\342l6\007M[\242"
 155      99CE6263 
 155      D18AF8D9 
 155      6052E26C 
 155      36074D5B 
 156 01db 98769CD0 		.ascii	"\230v\234\320\247\220|\016\313D\331sQ\366\\\226\211"
 156      A7907C0E 
 156      CB44D973 
 156      51F65C96 
 156      89
 157 01ec B2E7A1EC 		.ascii	"\262\347\241\354L:O\221=\217-@\242\371H4\237-@\242\205"
 157      4C3A4F91 
 157      3D8F2D40 
 157      A2F94834 
 157      9F2D40A2 
 158 0201 48B4802E 		.ascii	"H\264\200.T\210\026*\021XR\247\212\246O\261Q\350\201"
 158      5488162A 
 158      115852A7 
 158      8AA64FB1 
 158      51E881
 159 0214 A7D1034F 		.ascii	"\247\321\003O\263Q\212>\213P\237EZ8)Y\316$WTtLl\\|B"
 159      B3518A3E 
 159      8B509F45 
 159      5A382959 
 159      CE245754 
 160 022e 62529FE4 		.ascii	"bR\237\344\224\276\375\372\017\0308h\360\220\241\303"
ARM GAS  /tmp/ccGrz3Xa.s 			page 12


 160      94BEFDFA 
 160      0F183868 
 160      F090A1C3 
 161 023e 868F18F9 		.ascii	"\206\217\030\371\344\250\321c\306\216\033_O&L\23449"
 161      E4A8D163 
 161      C68E1B5F 
 161      4F264C9C 
 161      3439
 162 0250 75CAD4B4 		.ascii	"u\312\324\264iO\244O\237\2211s\326\354\343d\316\334"
 162      694FA44F 
 162      9F913173 
 162      D6ECE364 
 162      CEDC
 163 0262 CC79F317 		.ascii	"\314y\363\027,\254#O=\275\210.\377)\205U\2270\216ls"
 163      2CAC234F 
 163      3DBD882E 
 163      FF298555 
 163      97308E6C 
 164 0277 BB8B9AFF 		.ascii	"\273\213\232\377V]<tM\311\212\"\367c\277\237\346Py}"
 164      565D3C74 
 164      4DC98A22 
 164      F763BF9F 
 164      E650797D 
 165 028b C653924D 		.ascii	"\306S\222M\311O\344\017t\014\2761W\317\005\253p\326"
 165      C94FE40F 
 165      740CBE31 
 165      57CF05AB 
 165      70D6
 166 029d 35BDBFD6 		.ascii	"5\275\277\326\304\331/<NwU\251;\256\304\375\310\357"
 166      C4D92F3C 
 166      4E7755A9 
 166      3BAEC4FD 
 166      C8EF
 167 02af 97906D58 		.ascii	"\227\220mX\230l\353\377\366\203\006\367\312:\277\177"
 167      986CEBFF 
 167      F68306F7 
 167      CA3ABF7F 
 168 02bf 11B28D8B 		.ascii	"\021\262\215\213\354nS\3034o\353\306uC\317\3660ofP\316"
 168      EC6E53C3 
 168      346FEBC6 
 168      7543CFF6 
 168      306F6650 
 169 02d4 65348075 		.ascii	"e4\200u\303\227\033L\254\013,X\251\231\365O[\3373\261"
 169      C3971B4C 
 169      AC0B2C58 
 169      A999F54F 
 169      5BDF33B1 
 170 02e8 3E131E6B 		.ascii	">\023\036kq\335\201/\012\006\257ivk\254\022#\377\314"
 170      71DD812F 
 170      0A06AF69 
 170      766BAC12 
 170      23FFCC
 171 02fb 59631556 		.ascii	"Yc\025V\203\256\006N\377\315\022c$]\214\274\024\226"
 171      83AE064E 
 171      FFCD1263 
 171      245D8CBC 
 171      1496
ARM GAS  /tmp/ccGrz3Xa.s 			page 13


 172 030d 938AEB0E 		.ascii	"\223\212\353\016\2674l\243\356bwn\247\337\237\214\234"
 172      B7346CA3 
 172      EE62776E 
 172      A7DF9F8C 
 172      9C
 173 031e AFF5C659 		.ascii	"\257\365\306Y\311\352\232\375\376\202\373%_\255\245"
 173      C9EA9AFD 
 173      FE82FB25 
 173      5FADA5
 174 032d 1BD94569 		.ascii	"\033\331Ei:y\235n\243\343H\006\221\371g\002\314\002"
 174      3A799D6E 
 174      A3E34806 
 174      91F96702 
 174      CC02
 175 033f 98033017 		.ascii	"\230\0030\027 \023`>\300\002\200\205\000\213\000\026"
 175      2013603E 
 175      C0028085 
 175      008B0016 
 176 034f 032C0178 		.ascii	"\003,\001x\026\340{\000\317\001<\017\360\002\300\213"
 176      16E07B00 
 176      CF013C0F 
 176      F002C08B 
 177 035f 00DF0778 		.ascii	"\000\337\007x\011\340e\200\037\002\374\010\340\025\200"
 177      09E06580 
 177      1F02FC08 
 177      E01580
 178 036e D7D4FB2F 		.ascii	"\327\324\373/\225\337w\310\357o\312\357\037\311\357"
 178      95DF77C8 
 178      EF6FCAEF 
 178      1FC9EF
 179 037d 39F2FB2E 		.ascii	"9\362\373.\371\375\227\362{\231\374\376+ \3765\300["
 179      F9FD97F2 
 179      7B99FCFE 
 179      2B20FE35 
 179      C05B
 180 038f 00BF07F8 		.ascii	"\000\277\007\370\003\300r\200\\\012\270\0021\017q\025"
 180      03C07280 
 180      5C0AB802 
 180      310F7115 
 181 039f 5519F3E1 		.ascii	"U\031\363\341\242Z\276X\215\343k\020\337E,\000\214Z"
 181      A25ABE58 
 181      8DE36B10 
 181      DF452C00 
 181      8C5A
 182 03b1 87D74588 		.ascii	"\207\327E\210\353\021\337G\374\000\321\203\270\021q"
 182      EB11DF47 
 182      FC00D183 
 182      B81171
 183 03c0 13E266C4 		.ascii	"\023\342f\304\022\252*\272\015.\016\310\027\333q|\007"
 183      12AA2ABA 
 183      0D2E0EC8 
 183      17DB717C 
 183      07
 184 03d1 E29F113F 		.ascii	"\342\237\021?B\371\245x]\206X\216\3701\342>\304*\304"
 184      42F9A578 
 184      5D86588E 
 184      F831E23E 
ARM GAS  /tmp/ccGrz3Xa.s 			page 14


 184      C42AC4
 185 03e4 5AAA9A5B 		.ascii	"Z\252\232[\247\251}\012\307O#6 ~\006S\373\344\251\317"
 185      A7A97D0A 
 185      C74F2336 
 185      207E0653 
 185      FBE4A9CF 
 186 03f8 35E2BF68 		.ascii	"5\342\277h\304W\221\340\032b\023\342-\215\346\266F\323"
 186      C45791E0 
 186      1A6213E2 
 186      2D8DE6B6 
 186      46D3
 187 040a 86E37710 		.ascii	"\206\343w\020\357\"\266#v \376\035\310*d\262\373\370"
 187      EF22B623 
 187      7620FE1D 
 187      C82A64B2 
 187      FBF8
 188 041c F11F88DF 		.ascii	"\361\037\210\337 >D\364!~\213\370X\023\356\327\270V"
 188      203E44F4 
 188      217E8BF8 
 188      5813EED7 
 188      B856
 189 042e 3175249F 		.ascii	"1u$\237\251#\253\231z\337\002\006,\205\210k\021\213"
 189      A923AB99 
 189      7ADF0206 
 189      2C85886B 
 189      118B
 190 0440 10D72316 		.ascii	"\020\327#\026#~\240\261{4\366\255L\315\207\022\246\371"
 190      237EA0B1 
 190      7B34F6AD 
 190      4CCD8712 
 190      A6F9
 191 0452 59A3D9AE 		.ascii	"Y\243\331\256I.E\3362\304r\304\003\210\007\021k\020"
 191      492E45DE 
 191      32C472C4 
 191      03880711 
 191      6B10
 192 0464 0F211E46 		.ascii	"\017!\036F<\202X\247I>\016\027{\344\213\0238~\022\361"
 192      3C8258A7 
 192      493E0E17 
 192      7BE48B13 
 192      387E12F1 
 193 0478 14E269C4 		.ascii	"\024\342i\304\006\304K\210\227\021?E\274\212x\015\261"
 193      06C44B88 
 193      97113F45 
 193      BC8A780D 
 193      B1
 194 0489 09F13A62 		.ascii	"\011\361:b3\342W\2107\265\273\264\300E\245|\321\216"
 194      33E25788 
 194      37B5BBB4 
 194      C045A57C 
 194      D18E
 195 049b E31D889D 		.ascii	"\343\035\210\235\210\335\210\217\020\277C\364#\272%"
 195      88DD888F 
 195      10BF43F4 
 195      23BA25
 196 04aa 4C69C477 		.ascii	"Li\304w$\325\352U\222\352\231u\222*\271HR=\263\036)"
 196      24D5EA55 
ARM GAS  /tmp/ccGrz3Xa.s 			page 15


 196      92EA9975 
 196      922AB948 
 196      523DB31E 
 197 04bf 8B11FF88 		.ascii	"\213\021\377\210\370\036\342\006\304M\210\233\021\267"
 197      F81EE206 
 197      C44D889B 
 197      11B7
 198 04cd 206E452C 		.ascii	" nE,A\334\206\270S\223\271KR\265-\303\361r\304\012\304"
 198      41DC86B8 
 198      5393B94B 
 198      52B52DC3 
 198      F172C40A 
 199 04e2 DD887B10 		.ascii	"\335\210{\020\253\021\367#\036@\254C<\216X\217x\002"
 199      AB11F723 
 199      1E40AC43 
 199      3C8E588F 
 199      7802
 200 04f4 F124E229 		.ascii	"\361$\342)\304s\232-\3475[\344W\024Y)\027\3361\004\312"
 200      C4739A2D 
 200      E7355BE4 
 200      57145929 
 200      17DE3104 
 201 0509 96FC7A15 		.ascii	"\226\374z\0251\213\312}\252t\211\3445W\234\216~\235"
 201      318BCA7D 
 201      AA7489E4 
 201      35579C8E 
 201      7E9D
 202 051b D6D02879 		.ascii	"\326\320(y\360w\244\313\235\357N\311\241\321\331j\365"
 202      F077A4CB 
 202      9DEF4EC9 
 202      A1D1D96A 
 202      F5
 203 052c CDA13184 		.ascii	"\315\2411\204\000\325\356U1\301\250\230\221\352\235"
 203      00D5EE55 
 203      31C1A898 
 203      91EA9D
 204 053b E6CAE703 		.ascii	"\346\312\347\003\210b\263\251\204DP*\343\334E+\335."
 204      8862B3A9 
 204      8444502A 
 204      E3DC452B 
 204      DD2E
 205 054d BC742935 		.ascii	"\274t)54\036\342\221\200\334%\336\300[Xr\263\000\356"
 205      341EE291 
 205      80DC25DE 
 205      C05B5872 
 205      B300EE
 206 0560 4336B895 		.ascii	"C6\270\225\267\370h\316}\330\006wl\000\367\021\033\334"
 206      B7F868CE 
 206      7DD80677 
 206      6C00F711 
 206      1BDC
 207 0572 2901DC47 		.ascii	")\001\334Gmp+[N\274\213s\377\217\015\356\305\001\334"
 207      6D702B5B 
 207      4EBC8B73 
 207      FF8F0DEE 
 207      C501DC
 208 0585 C76C70BB 		.ascii	"\307lp\273i\000{\255\035v\026`y\203\035\366\300\240"
ARM GAS  /tmp/ccGrz3Xa.s 			page 16


 208      69007BAD 
 208      1D761660 
 208      79831DF6 
 208      C0A0
 209 0597 9DB1C31E 		.ascii	"\235\261\303\036\030\265\263v\330\003\303v\241WvO(\366"
 209      18B5B376 
 209      D803C376 
 209      A157764F 
 209      28F6
 210 05a9 8B76D883 		.ascii	"\213v\330\203\370\356\257v\370\003\215\277b\353\366"
 210      F8EEAF76 
 210      F8038DBF 
 210      62EBF6
 211 05b8 D4C4FFDF 		.ascii	"\324\304\377\337\315_\006)\033\211\331T\351\205`$6\207"
 211      CD5F0629 
 211      1B89D954 
 211      E9856024 
 211      3687
 212 05ca 262DA34C 		.ascii	"&-\243L%Rh\334?\316\241}\226QI\035\314\241\311 le\363"
 212      255268DC 
 212      3FCEA17D 
 212      9651491D 
 212      CCA1C920 
 213 05e1 F596E400 		.ascii	"\365\226\344\000a)\331\3709\230\260\034\332W\2517\255"
 213      6129D9F8 
 213      3998B01C 
 213      DA57A937 
 213      AD
 214 05f2 A7E303F8 		.ascii	"\247\343\003\370\372e\323h\013>\260\241\277\362\346"
 214      FA65D368 
 214      0B3EB0A1 
 214      BFF2E6
 215 0601 02290314 		.ascii	"\002)\003\024Sn\235\016\274\373\300l\250i\241\244\344"
 215      536E9D0E 
 215      BCFBC06C 
 215      A869A1A4 
 215      E4
 216 0612 D0410A7B 		.ascii	"\320A\012{[x\236p\005\363D\224\331\023w\302\363\204"
 216      5B789E70 
 216      05F34494 
 216      D91377C2 
 216      F384
 217 0624 CBEC89BB 		.ascii	"\313\354\211\273\341y\302\025\332\023\355\341y\302e"
 217      E179C215 
 217      DA13EDE1 
 217      79C265
 218 0633 E1894741 		.ascii	"\341\211GA<18[n\315\015\354C\226\321h\003\373P`\037"
 218      3C31385B 
 218      6ECD0DEC 
 218      4396D168 
 218      03FB5060 
 219 0648 06EC1EF7 		.ascii	"\006\354\036\367\356\365\373h\000\377\360l\032\247\363"
 219      EEF5FB68 
 219      00FFF06C 
 219      1AA7F3
 220 0657 CB7EFB59 		.ascii	"\313~\373Y\016\035\261\214\306\030D\214lP\026\007\264"
 220      0E1DB18C 
ARM GAS  /tmp/ccGrz3Xa.s 			page 17


 220      C618448C 
 220      6C501607 
 220      B4
 221 0668 A82AD14F 		.ascii	"\250*\321Os\350\250l\032o \032\015\367\031\2434\350"
 221      73E8A86C 
 221      1A6F201A 
 221      0DF719A3 
 221      34E8
 222 067a 59729AA7 		.ascii	"Yr\232\247J\027H\275\327\267\253\237B\223F\312\335+"
 222      4A1748BD 
 222      D7B7AB9F 
 222      429346CA 
 222      DD2B
 223 068c 65B2B19B 		.ascii	"e\262\261\233\310F\371m\234i\371+\032\374B}\270\200"
 223      C846F96D 
 223      9C69F92B 
 223      1AFC427D 
 223      B880
 224 069e 91B1105E 		.ascii	"\221\261\020^Y\304\025O\371\002E\304R\232\021\246\024"
 224      59C4154F 
 224      F90245C4 
 224      529A11A6 
 224      14
 225 06af ED19E502 		.ascii	"\355\031\345\002\311\333+i\3143e~ \"Q\312\314\021}f"
 225      C9DB2B69 
 225      CC33657E 
 225      202251CA 
 225      CC117D66 
 226 06c3 963CA9EE 		.ascii	"\226<\251\356\230\2044\220\225wr\223\364)5\200\374\225"
 226      98843490 
 226      95777293 
 226      F4293580 
 226      FC95
 227 06d5 257F1C20 		.ascii	"%\177\034 \333\266\302\353-?\253zS\326&\327\015\276"
 227      DBB6C2EB 
 227      2D3FAB7A 
 227      53D626D7 
 227      0DBE
 228 06e7 E45E1DBF 		.ascii	"\344^\035\277\014\243\002\354\343u\233\010\325\205D"
 228      0CA302EC 
 228      E3759B08 
 228      D58544
 229 06f6 290EBAD2 		.ascii	")\016\272\322\310\255\233#b\335\\\231\037o\021m\266"
 229      C8AD9B23 
 229      62DD5C99 
 229      1F6F116D 
 229      B6
 230 0707 2E539EB4 		.ascii	".S\236\264\260.3\210u\321\252u>\373\3261]H\214j\235"
 230      B02E3388 
 230      75D1AA75 
 230      3EFBD631 
 230      5D488C6A 
 231 071c A742B76E 		.ascii	"\247B\267n\276\210u\013d~\274E\214\331\272\205\362\244"
 231      BE88750B 
 231      647EBC45 
 231      8CD9BA85 
 231      F2A4
ARM GAS  /tmp/ccGrz3Xa.s 			page 18


 232 072e 85750B83 		.ascii	"\205u\013\203X\027\253\305\256\302\266u\222.$NM\356"
 232      5817ABC5 
 232      AEC2B675 
 232      922E244E 
 232      4DEE
 233 0740 C68A8893 		.ascii	"\306\212\210\223[\276\243\222\336\336\326\012\026\251"
 233      5BBEA392 
 233      DEDED60A 
 233      16A9
 234 074e 90586D85 		.ascii	"\220Xm\205\354\325\275\274H\304\313\213e\376\340+d\211"
 234      ECD5BDBC 
 234      48C4CB8B 
 234      65FEE02B 
 234      6489
 235 0760 3C69E1E5 		.ascii	"<i\341\345%A\274\034\257yy\257m/\273t!\011\332\012\341"
 235      2541BC1C 
 235      AF7979AF 
 235      6D2FBB74 
 235      2109DA0A 
 236 0775 D63D2B62 		.ascii	"\326=+b\335\367d\376\340+\3449y\322\302\272\347\202"
 236      DDF764FE 
 236      E02BE439 
 236      79D2C2BA 
 236      E782
 237 0787 5897A8AD 		.ascii	"X\227\250\255\020\373\326E\351B\222\264\025R\251[\367"
 237      10FBD645 
 237      E94292B4 
 237      1552A95B 
 237      F7
 238 0798 BC88752F 		.ascii	"\274\210u/\310\374\301W\310\213\362\244\205u/\006\261"
 238      C8FCC157 
 238      C88BF2A4 
 238      85752F06 
 238      B1
 239 07a9 AE8F16BB 		.ascii	"\256\217\026\273J\333\326E\353B\222\265\025R)\260B\306"
 239      4ADBD645 
 239      EB4292B5 
 239      155229B0 
 239      42C6
 240 07bb 682BA432 		.ascii	"h+\2442\342\025\222\242\255\220*\335\313\337\027\361"
 240      E21592A2 
 240      AD902ADD 
 240      CBDF17F1 
 241 07cb F24B327F 		.ascii	"\362K2\177\360"
 241      F0
 242 07d0 15F2B23C 		.ascii	"\025\362\262<i\341\345\227\203x9E\363r\225m/\307\350"
 242      69E1E597 
 242      83783945 
 242      F372956D 
 242      2FC7E8
 243 07e3 42FA6A2B 		.ascii	"B\372j+\204[\367C\021\353~$\363\007_!\257\310\223\026"
 243      845BF743 
 243      11EB7E24 
 243      F3075F21 
 243      AFC89316 
 244 07f7 D6BD12C4 		.ascii	"\326\275\022\304\272~\332\012\261o]\254.\244\277\232"
 244      BA7EDA0A 
ARM GAS  /tmp/ccGrz3Xa.s 			page 19


 244      B16F5DAC 
 244      2EA4BF9A 
 245 0807 439E6A81 		.ascii	"C\236j\201\034Z\214\226\2548\323Z\3154\205_\013G\027"
 245      1C5A8C96 
 245      AC38D35A 
 245      CD34855F 
 245      0B4717
 246 081a 42CE9361 		.ascii	"B\316\223a:G!)\310]\011t\023`\346\015\365V\312h]\365"
 246      3A472129 
 246      C85D0974 
 246      1360E60D 
 246      F556CA68 
 247 0830 6732D704 		.ascii	"g2\327\004}{\177C\256~\206\331\243\375\265I\206\223"
 247      7D7B7F43 
 247      AE7E86D9 
 247      A3FDB549 
 247      8693
 248 0842 09C6C9FF 		.ascii	"\011\306\311\377\325'%\234L4Nv\352\223.\234L2Nv\351"
 248      D527259C 
 248      4C344E76 
 248      EA932E9C 
 248      4C324E76 
 249 0857 935138D9 		.ascii	"\223Q8\331\3078\371\336 m2\032'\223\215\223\037\352"
 249      C738F9DE 
 249      206D321A 
 249      27938D93 
 249      1FEA
 250 0869 93313899 		.ascii	"\22318\231b\234\364\352\223\2618\331\267GX\007\020\227"
 250      629CF4EA 
 250      93B138D9 
 250      B7475807 
 250      1097
 251 087b 748EE4C6 		.ascii	"t\216\344\306*~AC!\312\215\007CG\271_`\224\231\022\026"
 251      2A7E4143 
 251      21CA8D07 
 251      4347B95F 
 251      60949912 
 252 0890 6FEB4116 		.ascii	"o\353A\026\212\263\177pNE\233\201&m\022T\2215!E\006"
 252      8AB37F70 
 252      4E459B81 
 252      266D1254 
 252      91352145 
 253 08a5 51C6A52A 		.ascii	"Q\306\245*\223\1778re\006\231\224ITE\036\261\253L\264"
 253      937F3872 
 253      65069994 
 253      4954451E 
 253      B1AB4CB4 
 254 08b9 AA4C6968 		.ascii	"\252Lih\316\220\312\0146)\223\244\212<fW\031-L\015\241"
 254      CE90CA0C 
 254      362993A4 
 254      8A3C6657 
 254      192D4C0D 
 255 08ce 398328C3 		.ascii	"9\203(\303\267\361!&e\372\250\"k#\015Skh\316\220\312"
 255      B7F12126 
 255      65FAA822 
 255      6B230D53 
 255      6B68CE90 
ARM GAS  /tmp/ccGrz3Xa.s 			page 20


 256 08e3 0C352993 		.ascii	"\0145)\223\254\212\274\021i\230\362\277\216\\\231a&"
 256      AC8ABC11 
 256      6998F2BF 
 256      8E5C9961 
 256      26
 257 08f4 65525491 		.ascii	"eRT\2217#\015Sih\316 \312\360\035{\270I\231\276\252"
 257      37230D53 
 257      6968CE20 
 257      CAF01D7B 
 257      B84999BE 
 258 0909 C89648C3 		.ascii	"\310\226H\303\324\020\2323\2442#\310e\322C\2338mf\244"
 258      D4109A33 
 258      A43223C8 
 258      65D2439B 
 258      386D66A4 
 259 091d 3C43A1A0 		.ascii	"<C\241\240{w\335\240Z}\236\036^Eo 'Z\370\2765\035\357"
 259      7B77DDA0 
 259      5A7D9E1E 
 259      5E456F20 
 259      275AF8BE 
 260 0934 697C65D1 		.ascii	"i|e\321'I\252zv;\212\034\037\"\001\303\361\246\367\365"
 260      2749AA7A 
 260      763B8A1C 
 260      1F2201C3 
 260      F1A6F7F5 
 261 0948 9D63E952 		.ascii	"\235c\351R\372\246\221|4i\217\206}\356LQ?\215\244\226"
 261      FAA6917C 
 261      34698F86 
 261      7DEE4C51 
 261      3F8DA496 
 262 095c 06D78598 		.ascii	"\006\327\205\230t\221\271^\324x\352,x\372\023\263\376"
 262      7491B95E 
 262      D478EA2C 
 262      78FA13B3 
 262      FE
 263 096d F2BEFB73 		.ascii	"\362\276\373s~'\3404\2523\206\324K\022\034Ux\333\304"
 263      7E27E034 
 263      AA3386D4 
 263      4B121C55 
 263      78DBC4
 264 0980 0F6DDE29 		.ascii	"\017m\336)9\224 x\336\201\015`\373\260\0107o8\216T\373"
 264      39942078 
 264      DE810D60 
 264      FBB00837 
 264      6F388E54 
 265 0995 BFF648FB 		.ascii	"\277\366H\373?\027>e]\"+K\216\006\03231[\335\214\201"
 265      3F173E65 
 265      5D222B4B 
 265      8E061A33 
 265      315BDD8C 
 266 09aa 32AA3546 		.ascii	"2\2525FVz\022\006\346JcG\227\336\371\234\242idj\016"
 266      567A1206 
 266      E64A6347 
 266      97DEF99C 
 266      A269646A 
 267 09bf 9DAC8728 		.ascii	"\235\254\207(U\027\000.T\331\223\324[k5Xn\236\326\350"
 267      5517002E 
ARM GAS  /tmp/ccGrz3Xa.s 			page 21


 267      54D993D4 
 267      5B6B3558 
 267      6E9ED6E8 
 268 09d3 224E5310 		.ascii	"\"NS\020\203\372\264\252\335ya\336^={\033(\220\340t"
 268      83FAB4AA 
 268      DD7961DE 
 268      5E3D7B1B 
 268      2890E074 
 269 09e7 D14BA86E 		.ascii	"\321K\250n\340\031O\357\321\0039z\350j\235\010\235\347"
 269      E0194FEF 
 269      D103397A 
 269      E86A9D08 
 269      9DE7
 270 09f9 9E78E84A 		.ascii	"\236x\350J\357\211\207\356lo\241\333\351RB\007\251\177"
 270      EF8987EE 
 270      6C6FA1DB 
 270      E9524207 
 270      A97F
 271 0a0b DE91D4BF 		.ascii	"\336\221\324\277\340H\352\337w \365\357\213\373\257"
 271      E048EADF 
 271      7720F5EF 
 271      8BFBAF
 272 0a1a 31DCD457 		.ascii	"1\334\324W\252\310Xr\361,\301\252\346{\300K\354\347"
 272      AAC85872 
 272      F12CC1AA 
 272      E67BC04B 
 272      ECE7
 273 0a2c 11D4B5BF 		.ascii	"\021\324\265\277\204]\327\344\272\234\300\357\004\234"
 273      845DD7E4 
 273      BA9CC0EF 
 273      049C
 274 0a3a C6BA368E 		.ascii	"\306\2726\216l\211\307\272\326\364nXq\351%\270_:\021"
 274      6C89C7BA 
 274      D6F46E58 
 274      71E925B8 
 274      5F3A11
 275 0a4d 5CDFC371 		.ascii	"\\\337\303q\302\301\315\357\022\017\356-;u\315\323]"
 275      C2C1CDEF 
 275      120FEE2D 
 275      3B75CDD3 
 275      5D
 276 0a5e EFD2DC7C 		.ascii	"\357\322\334|U\274\256]\243 \306T\327\252\364\224i\242"
 276      55BCAE5D 
 276      A320C654 
 276      D7AAF494 
 276      69A2
 277 0a70 40225ED7 		.ascii	"@\"^\327\232x]\273\353\310\272\354\026\017]k\267x\350"
 277      9A785DBB 
 277      EBC8BAEC 
 277      160F5D6B 
 277      B778E8
 278 0a83 7C76EA5A 		.ascii	"|v\352Z\267#\251\377\310\011\377y\375\342\376k\360\213"
 278      B723A9FF 
 278      C809FF79 
 278      FDE2FE6B 
 278      F08B
 279 0a95 FBCF6F23 		.ascii	"\373\317o#\365\275\336\355i\246nT\322\271\246,\003\323"
ARM GAS  /tmp/ccGrz3Xa.s 			page 22


 279      F5BDDEED 
 279      69A66E54 
 279      D2B9A62C 
 279      03D3
 280 0aa7 90678ACE 		.ascii	"\220g\212\316\255\235\366\312\365g\274^\021=;\276\326"
 280      AD9DF6CA 
 280      F567BC5E 
 280      113D3BBE 
 280      D6
 281 0ab8 D3FB5604 		.ascii	"\323\373V\004\025\361\266\235N/\201\337\0118yE|\225"
 281      15F1B69D 
 281      4E2F81DF 
 281      09387945 
 281      7C95
 282 0aca 3E434A4E 		.ascii	">CJN\023\232E'\220\275\022\236\000yw\234\323\025k\243"
 282      139A4527 
 282      90BD129E 
 282      0079779C 
 282      D3156BA3 
 283 0ade F6CF80F8 		.ascii	"\366\317\200\370I\317\035\012\022\320\323\372YO2\237"
 283      49CF1D0A 
 283      12D0D3FA 
 283      594F329F 
 284 0aee 549381BF 		.ascii	"T\223\201\277\262\350D\362\005E%.\017\322\350\356F\240"
 284      B2E844F2 
 284      0545252E 
 284      0FD2E8EE 
 284      46A0
 285 0b00 023F866A 		.ascii	"\002?\206j\247 A?P\351\241^\007\205\371\236\352m\241"
 285      A720413F 
 285      50E9A15E 
 285      0785F99E 
 285      EA6DA1
 286 0b13 7C36887E 		.ascii	"|6\210~\223H=\223\365\313\313\317\253\335?J\243\374"
 286      93483D93 
 286      F5CBCBCF 
 286      ABDD3F4A 
 286      A3FC
 287 0b25 3B05BFEA 		.ascii	";\005\277\352\367\300-(\231\207\011\010\2142&\223i\220"
 287      F7C02D28 
 287      99870908 
 287      8C322693 
 287      6990
 288 0b37 0057BC3B 		.ascii	"\000W\274;\317\351\025\364\276x\005\375\007\0051\250"
 288      CFE915F4 
 288      BE7805FD 
 288      070531A8 
 289 0b47 73673A51 		.ascii	"sg:Q+\350A\335\234o(\220\210W\320o\250\272x\345\326"
 289      2BE841DD 
 289      9C6F2890 
 289      8857D06F 
 289      A8BA78E5 
 290 0b5c D660C0C3 		.ascii	"\326`\300\303\220\006\270\3021\300GA\214\245\001\337"
 290      9006B8C2 
 290      31C04741 
 290      8CA501DF 
 291 0b6c 5220B16D 		.ascii	"R \261m\200\313l\300\267\224o\274;\323\3047\336]\222"
ARM GAS  /tmp/ccGrz3Xa.s 			page 23


 291      80CB6CC0 
 291      B7946FBC 
 291      3BD3C437 
 291      DE5D92
 292 0b7f 70F5D992 		.ascii	"p\365\331\222\024~\3659\323\270\353\023\375!\362q\330"
 292      147EF539 
 292      D3B8EB13 
 292      FD21F271 
 292      D8
 293 0b90 75232F5F 		.ascii	"u#/_\367\263\237\002\243aI\2548s9:\324\343uOi @\331"
 293      F7B39F02 
 293      A36149AC 
 293      3873393A 
 293      D4E3754F 
 294 0ba8 474AF738 		.ascii	"GJ\3678\261\217\224\005\032\037\301>\\.\036\311\326"
 294      B18F9405 
 294      1A1FC13E 
 294      5C2E1EC9 
 294      D6
 295 0bb9 72F148EE 		.ascii	"r\361H\356\266\021Ioc\305\254\210\367\221T\245\020\255"
 295      B611496F 
 295      63C5AC88 
 295      F79154A5 
 295      10AD
 296 0bcb 38E3DDDB 		.ascii	"8\343\335\333\255/\221U,\202t\310g\300\330#\035:\343"
 296      AD2F9155 
 296      2C8274C8 
 296      67C0D823 
 296      1D3AE3
 297 0bde B5C9D516 		.ascii	"\265\311\325\026\022\203n2\311F\221\253\015\277\254"
 297      12836E32 
 297      C94691AB 
 297      0DBFAC
 298 0bed C8926D68 		.ascii	"\310\222mh\245\022\022\375\216+k&\232J\036\342\326x"
 298      A51212FD 
 298      8E2B6B26 
 298      9A4A1EE2 
 298      D678
 299 0bff C5B79717 		.ascii	"\305\267\227\027\226\002&\\\031\013\031\210\261,,k\031"
 299      9602265C 
 299      190B1988 
 299      B12C2C6B 
 299      19
 300 0c10 908857C6 		.ascii	"\220\210W\306\265L\257\214\236Jn@QH\003\302\252\214"
 300      B54CAF8C 
 300      9E4A6E40 
 300      514803C2 
 300      AA8C
 301 0c22 EB1988B1 		.ascii	"\353\031\210\2614\240\230\001\211xe,f\274/\253\024_"
 301      34A09801 
 301      8978652C 
 301      66BC2FAB 
 301      145F
 302 0c34 4F0D95E2 		.ascii	"O\015\225\342\353\251\266\267\365t-\201WFO\025\257\214"
 302      EBA9B6B7 
 302      F5742D81 
 302      57464F15 
ARM GAS  /tmp/ccGrz3Xa.s 			page 24


 302      AF8C
 303 0c46 1F44B214 		.ascii	"\037D\262\024<\014\030\005*\243\207)\225\361\254#\225"
 303      3C0C1805 
 303      2AA38729 
 303      95F1AC23 
 303      95
 304 0c57 F19C1395 		.ascii	"\361\234\023\225\321S-\036\311\322j\361H^\014\2672*"
 304      D1532D1E 
 304      C9D26AF1 
 304      485E0CB7 
 304      322A
 305 0c69 B5204DAF 		.ascii	"\265 M\257o\007\357\353\211\276\325\"\2504 \250\274"
 305      6F07EFEB 
 305      89BED522 
 305      A83420A8 
 305      BC
 306 0c7a 4D2EB1E0 		.ascii	"M.\261\340\351G\314\025\354\304M^\301\2662\3404\026"
 306      E947CC15 
 306      ECC44D5E 
 306      C1B632E0 
 306      3416
 307 0c8c A769641B 		.ascii	"\247id\033E\205:u\242ma\347\030Wg{\330\005Un\"\177\316"
 307      45853A75 
 307      A26D61E7 
 307      1857677B 
 307      D805556E 
 308 0ca3 EF049C46 		.ascii	"\357\004\234Fu\236 \203\360\030\343ja\037\0072\355\232"
 308      759E2083 
 308      F018E36A 
 308      611F0732 
 308      ED9A
 309 0cb5 1399E6AD 		.ascii	"\023\231\346\255\371\204\212\027\215\032\361T\273nc"
 309      F9848A17 
 309      8D1AF154 
 309      BB6E63
 310 0cc4 13BEE23D 		.ascii	"\023\276\342=\374\265^\252K\305\367\2322\006bL\347\030"
 310      FCB55EAA 
 310      4BC5F79A 
 310      3206624C 
 310      E718
 311 0cd6 FCE8AB9C 		.ascii	"\374\350\253\234\001\211\370^S\316\364\330\335v\"v\276"
 311      0189F85E 
 311      53CEF4D8 
 311      DD762276 
 311      BE
 312 0ce7 C30EC42E 		.ascii	"\303\016\304.\377\210x\354\356\366\026;\343AF\207#\311"
 312      FF8878EC 
 312      EEF6163B 
 312      E3414687 
 312      23C9
 313 0cf9 EF7324F9 		.ascii	"\357s$\371\2179\221\374\307\304\035\330m+\371ky\362"
 313      8F3991FC 
 313      C7C41DD8 
 313      6D2BF96B 
 313      79F2
 314 0d0b 1F104FFE 		.ascii	"\037\020O\376\203\014\304\230\372\024\236\3745\014H"
 314      830CC498 
ARM GAS  /tmp/ccGrz3Xa.s 			page 25


 314      FA149EFC 
 314      350C48
 315 0d1a C493BF86 		.ascii	"\304\223\277\2067Z\215\006\003\016\2117Z\207\031\210"
 315      375A8D06 
 315      030E8937 
 315      5A871988 
 316 0d2a B134E008 		.ascii	"\2614\340\010\003\022\361F\353\010o\264|\265N,\274\033"
 316      0312F146 
 316      EB086FB4 
 316      7CB54E2C 
 316      BC1B
 317 0d3c E279B33A 		.ascii	"\342y\263:\360\273\304!\236Ao\\\325;\255\272\2607eC"
 317      F0BBC421 
 317      9E416F5C 
 317      D53BADBA 
 317      B0376543 
 318 0d50 A7759C01 		.ascii	"\247u\234\001#vZ~\355E\227+\302?\216\011\325r\365\024"
 318      23765A7E 
 318      ED45972B 
 318      C23F8E09 
 318      D572F514 
 319 0d64 0B929487 		.ascii	"\013\222\224\207)\337\215s\346/\216\204\3774\225\256"
 319      29DF8D73 
 319      E62F8E84 
 319      FF3495AE 
 320 0d74 9D7DE5DF 		.ascii	"\235}\345\337\324U<\301D\216\276N2\220`8[2\236\011\235"
 320      D4553CC1 
 320      448EBE4E 
 320      32906038 
 320      5B329E09 
 321 0d89 64418E96 		.ascii	"dA\216\226\246\223}\014u\350\324\217\276NE\240\002?"
 321      A6937D0C 
 321      75E8D48F 
 321      BE4E45A0 
 321      023F
 322 0d9b FA3ACD40 		.ascii	"\372:\315@\202\241\2335\250\327\300`\276\247z[\371_"
 322      82A19B35 
 322      A8D7C060 
 322      BEA77A5B 
 322      F95F
 323 0dad 1183E937 		.ascii	"\021\203\3517\203l`\330rl\254t\242\271\335\024\230o"
 323      836C60D8 
 323      726CAC74 
 323      A2B9DD14 
 323      986F
 324 0dbf 1134B72D 		.ascii	"\0214\267-\0164\267-\342\213\347\303p\027\017\370\257"
 324      0E34B72D 
 324      E28BE7C3 
 324      70170FF8 
 324      AF
 325 0dd0 4CD87F58 		.ascii	"L\330\177X\371n\363G\314K\342\225\3572\0031\246\276"
 325      F96EF347 
 325      CC4BE295 
 325      EF320331 
 325      A6BE
 326 0de2 853F627E 		.ascii	"\205?b~\312\200D\274\362}j\250|\267\0358|k\023\217\335"
 326      CA8044BC 
ARM GAS  /tmp/ccGrz3Xa.s 			page 26


 326      F27D6AA8 
 326      7CB71D38 
 326      7C6B138F 
 327 0df7 9EDE6267 		.ascii	"\236\336bg\3548\274\216\344\376!'r\277\261\335\201#"
 327      EC38BC8E 
 327      E4FE2127 
 327      72BFB1DD 
 327      8123
 328 0e09 AF7671FF 		.ascii	"\257vq\377\035\265\261q\\\361u\360\254\275*\336p\\c"
 328      1DB5B171 
 328      5CF175F0 
 328      ACBD2ADE 
 328      705C63
 329 0e1c 20C6F260 		.ascii	" \306\362`\244\211\001\211x\303\321d8\331\271\307\015"
 329      A4890189 
 329      78C3D164 
 329      38D9B9C7 
 329      0D
 330 0e2d B82EBEEC 		.ascii	"\270.\276\354\232\031\210\2614\340+\006$\342\313\356"
 330      9A1988B1 
 330      34E02B06 
 330      24E2CBEE 
 331 0e3d 2BC3C9CE 		.ascii	"+\303\311\316=\007Nv\356\211\247\315\271\336\322\246"
 331      3D074E76 
 331      EE89A7CD 
 331      B9DED2A6 
 332 0e4d C7C9CE7D 		.ascii	"\307\311\316}~\262s3\222~\243\205\001\243a/\354\355"
 332      7EB27333 
 332      927EA385 
 332      01A3612F 
 332      ECED
 333 0e5f 64C7DC66 		.ascii	"d\307\334f\264\250';\227\034)\000\215N\024\000\357\003"
 333      B4A8273B 
 333      971C2900 
 333      8D4E1400 
 333      EF03
 334 0e71 0722F940 		.ascii	"\007\"\371@<\222W\355\024\200\306\207|\375\264\213\027"
 334      3C9257ED 
 334      1480C687 
 334      7CFDB48B 
 334      17
 335 0e82 800E0662 		.ascii	"\200\016\006b,\267\255N\006$\342\005\240\223?n_w\244"
 335      2CB7AD4E 
 335      0624E205 
 335      A0933F6E 
 335      5F77A4
 336 0e95 6FE972A0 		.ascii	"o\351r\240o\351\022\017\335m;{\337]GR\277\335\011\377"
 336      6FE9120F 
 336      DD6D3B7B 
 336      DF5D4752 
 336      BFDD09FF 
 337 0ea9 F9BA1DE8 		.ascii	"\371\272\035\350\035\036\213\373\357[;\251\357\361\363"
 337      1D1E8BFB 
 337      EF5B3BA9 
 337      EFF1F3
 338 0eb8 D4EF164F 		.ascii	"\324\357\026O\375G\014\304\240>\371\223\003S\377;\006"
 338      FD470CC4 
ARM GAS  /tmp/ccGrz3Xa.s 			page 27


 338      A03EF993 
 338      0353FF3B 
 338      06
 339 0ec9 24E2A9FF 		.ascii	"$\342\251\377\035\337\373\274\006\003\374\342{\237["
 339      1DDFFBBC 
 339      0603FCE2 
 339      7B9F5B
 340 0ed8 02319606 		.ascii	"\0021\226\006\344J@\"\276\367\345J\274e\362;\3202\371"
 340      E44A4022 
 340      BEF7E54A 
 340      BC65F23B 
 340      D032F9
 341 0eeb C5D3263F 		.ascii	"\305\323&?\303\306\336\347\335^\220\252\371\344\035"
 341      C3C6DEE7 
 341      DD5E90AA 
 341      F9E41D
 342 0efa 2982BF6A 		.ascii	")\202\277j\254\222\200\321\306\336\327S\032\010P\012"
 342      AC9280D1 
 342      C6DED753 
 342      1A08500A 
 343 0f0a 40C1BEFD 		.ascii	"@\301\276\375\201\277\370\265_\001\012\003\255\217\240"
 343      81BFF8B5 
 343      5F010A03 
 343      AD8FA0
 344 0f19 FBDD5110 		.ascii	"\373\335Q\020%\036\313\035\211\302\261\364\364\026\313"
 344      251ECB1D 
 344      89C2B1F4 
 344      F416CB
 345 0f28 1E7FF1DD 		.ascii	"\036\177\361\335Y`\366|o\207\024\332\243}\026\315\200"
 345      5960F67C 
 345      6F8714DA 
 345      A37D16CD 
 345      80
 346 0f39 430AE572 		.ascii	"C\012\345r&\351\214\246\312\345,RtQ\371\026{\343\203"
 346      26E98CA6 
 346      CAE52C52 
 346      7451F916 
 346      7BE383
 347 0f4c B3FAE2F9 		.ascii	"\263\372\342\371\214\206s\003\345\357\266\006&\274#"
 347      8C867303 
 347      E5EFB606 
 347      26BC23
 348 0f5b 31BCB2E8 		.ascii	"1\274\262\350l\370\362:\366`\345\005\3035\312u\026y"
 348      6CF8F23A 
 348      F660E505 
 348      C335CA75 
 348      1679
 349 0f6d 18EA0F31 		.ascii	"\030\352\0171E\026<\201\177\210Yy'7\216\337\0118\271"
 349      45163C81 
 349      7F885979 
 349      27378EDF 
 349      0938B9
 350 0f80 42AFD225 		.ascii	"B\257\322%d\377`\232E\347\220B\252\376\350\271`\250"
 350      64FF609A 
 350      45E79042 
 350      AAFEE8B9 
 350      60A8
ARM GAS  /tmp/ccGrz3Xa.s 			page 28


 351 0f92 46BD5E12 		.ascii	"F\275^\0229\263)\226@\202\341P\304\370"
 351      39B32996 
 351      4082E150 
 351      C4F8
 352 0fa0 37ED6229 		.ascii	"7\355b)\310\231\310\\\362\177\304\364u\245?F\240\002"
 352      C899C85C 
 352      F27FC4F4 
 352      75A53F46 
 352      A002
 353 0fb2 3FB3794F 		.ascii	"?\263yO\002\011\206\265jPo\203\004\363=\325\343_W\332"
 353      020986B5 
 353      6A506F83 
 353      04F33DD5 
 353      E35F57DA 
 354 0fc6 104CBF4C 		.ascii	"\020L\277Lr\225\340\231\315ng\226\356\036G\226n\205"
 354      7295E099 
 354      CD6E6796 
 354      EE1E4796 
 354      6E85
 355 0fd8 134BB742 		.ascii	"\023K\267B|\351zm,\335+\276\275\005z*o\222\204w\357"
 355      7CE97A6D 
 355      2CDD2BBE 
 355      BD057A2A 
 355      6F928477 
 356 0fed CD1288B1 		.ascii	"\315\022\210\261|\360\333\"\001\211\370\356\275E2|'"
 356      7CF0DB22 
 356      0189F8EE 
 356      BD45327C 
 356      27
 357 0ffe 811B     		.ascii	"\201\033"
 358 1000 B035A401 		.ascii	"\2605\244\001a\355\336%\022\210\2614`\233\004$\342\273"
 358      61EDDE25 
 358      1288B134 
 358      609B0424 
 358      E2BB
 359 1012 F736C9F0 		.ascii	"\3676\311\360\235\004\007\362\246\241R<oj\355l\337\236"
 359      9D0407F2 
 359      A6A1523C 
 359      6F6AED6C 
 359      DF9E
 360 1024 2ABE7DEF 		.ascii	"*\276}\357\014\273l\032\266\357]\0220\012<\272\356\222"
 360      0CBB6C1A 
 360      B6EF5D12 
 360      300A3CBA 
 360      EE92
 361 1036 B472304F 		.ascii	"\264r0O\253\231\276*^3\313\204jf\271\004\022\014E\311"
 361      AB99BE2A 
 361      5E33CB84 
 361      6A66B904 
 361      120C45C9 
 362 104a 78CE5D1E 		.ascii	"x\316]\036\254&\315\327j&?\347\256\020\252\231\273%"
 362      AC26CDD7 
 362      6A263FE7 
 362      AE10AA99 
 362      BB25
 363 105c 9010BC66 		.ascii	"\220\020\274f\356\221`\276\247z\374\234{O0\375\026h"
 363      EE9160BE 
ARM GAS  /tmp/ccGrz3Xa.s 			page 29


 363      A77AFC9C 
 363      7B4F30FD 
 363      1668
 364 106e 35F38233 		.ascii	"5\363\20235\363\242\0235\323W\355@\356\347\037\024\317"
 364      35F3A213 
 364      35D357ED 
 364      40EEE71F 
 364      14CF
 365 1080 FDBFDAA9 		.ascii	"\375\277\332\251\231\236\032^r\252\305k\346~\011\304"
 365      999E1A5E 
 365      72AAC56B 
 365      E67E09C4 
 366 1090 583EEC1F 		.ascii	"X>\354\037\220\200D\274f\036\220\364\33059\262\337\325"
 366      908044BC 
 366      661E90F4 
 366      D83539B2 
 366      DFD5
 367 10a2 38B1DFD5 		.ascii	"8\261\337\325\210\307\256\265\267\330\031\237\366\333"
 367      88C7AEB5 
 367      B7D8199F 
 367      F6DB
 368 10b0 9CC9FE3B 		.ascii	"\234\311\376;Nx\320{\304\211\312\177D\334\203\035v\262"
 368      4E78D07B 
 368      C489CA7F 
 368      44DC831D 
 368      76B2
 369 10c2 BFF118CF 		.ascii	"\277\361\030\317\376:\361\354?.\201\030\313\015\267"
 369      FE3AF1EC 
 369      3F2E8118 
 369      CB0DB7
 370 10d1 5E0212F1 		.ascii	"^\002\022\361\354\257\347\035\203\317`\300\011\361\216"
 370      ECAFE71D 
 370      83CF60C0 
 370      09F18E
 371 10e0 E1A40462 		.ascii	"\341\244\004b,\0158%\001\211x\307p\212w\014\236Z\007"
 371      2C0D3825 
 371      018978C7 
 371      708A770C 
 371      9E5A07
 372 10f3 F2A6B456 		.ascii	"\362\246\264V<o\036\333\351\030|\265\274c8\027\311\003"
 372      3C6F1EDB 
 372      E9187CB5 
 372      BC633817 
 372      C903
 373 1105 FF790918 		.ascii	"\377y\011\030\005\036\370\317\353\035\303B\350\030\224"
 373      051EF8CF 
 373      EB1DC342 
 373      E81894
 374 1114 CBC5E400 		.ascii	"\313\305\344\000U\2379\237\"\267\206\340#\247\247\255"
 374      559F399F 
 374      22B786E0 
 374      23A7A7AD 
 375 1124 4B8FDF52 		.ascii	"K\217\337R\373\217\204o\332x\"\324\233\012\363\017\247"
 375      FB8F846F 
 375      DA7822D4 
 375      9B0AF30F 
 375      A7
ARM GAS  /tmp/ccGrz3Xa.s 			page 30


 376 1135 9F265DCA 		.ascii	"\237&]\312\017\247;\365\037N\347\330\377^\336/m|\317"
 376      0FA73BF5 
 376      1F4EE7D8 
 376      FF5EDE2F 
 376      6D7CCF
 377 1148 F96DFD3E 		.ascii	"\371m\375>2\237Q\225E$\025;\207\265\325\037;Q;\327\315"
 377      329F5195 
 377      4524153B 
 377      87B5D51F 
 377      3B513BD7 
 378 115d 72E2A8F9 		.ascii	"r\342\250\371f\201K|\015\334\024_\003\033\003\255\351"
 378      66814B7C 
 378      0DDC145F 
 378      031B03AD 
 378      E9
 379 116e B906F227 		.ascii	"\271\006\362'\033\276\230\324R\360\202\346\345_\011"
 379      1BBE98D4 
 379      52F082E6 
 379      E55F09
 380 117d 97CE5FCB 		.ascii	"\227\316_\313BLm\003\377i\341[\362\274x\331|K\217\332"
 380      424C6D03 
 380      FF69E15B 
 380      F2BC78D9 
 380      7C4B8FDA 
 381 1191 874E44CD 		.ascii	"\207ND\315\327\342@\324\362o\213G\255\254\267\250\031"
 381      D7E240D4 
 381      F26F8B47 
 381      ADACB7A8 
 381      19
 382 11a2 7B86DDCE 		.ascii	"{\206\335\316\344\375\036'<\330\330\346\200\007[\333"
 382      E4FD1E27 
 382      3CD8D8E6 
 382      80075BDB 
 383 11b2 1C3865E8 		.ascii	"\0348e\350\315\203=N\031\332y\336\377^8\357\377 \013"
 383      CD833D4E 
 383      19DA79DE 
 383      FF5E38EF 
 383      FF200B
 384 11c5 31EDB73C 		.ascii	"1\355\267<\357\227\313\363\342y\277\234\237/tp\325s"
 384      EF97CBF3 
 384      E279BF9C 
 384      9F2F7470 
 384      D573
 385 11d7 C57F0DB6 		.ascii	"\305\177\015\266\202\202\030K\355\363(\220\210w\013"
 385      8282184B 
 385      EDF32890 
 385      88770B
 386 11e6 79947799 		.ascii	"y\224w\231\035\016dLC\207X\306\340\377\227\322d,\245"
 386      1D0E644C 
 386      438758C6 
 386      E0FF97D2 
 386      642CA5
 387 11f9 ABC2FC91 		.ascii	"\253\302\374\221\247\314\326\256\273.\237\002\243\311"
 387      A7CCD6AE 
 387      BB2E9F02 
 387      A3C9
 388 1207 9FAB294C 		.ascii	"\237\253)L\340\215\232O\375\214\230Z\2065\024(p\266"
ARM GAS  /tmp/ccGrz3Xa.s 			page 31


 388      E08D9A4F 
 388      FD8C985A 
 388      86351428 
 388      70B6
 389 1219 45AB91FA 		.ascii	"E\253\221\372\344\273\024\010\214\005tE\233>Y@\201\000"
 389      E4BB1408 
 389      8C057445 
 389      9B3E5940 
 389      8100
 390 122b 02E0B2CE 		.ascii	"\002\340\262\316s \323\253\304Y\361*\201K\345\036\317"
 390      7320D3AB 
 390      C459F12A 
 390      814BE51E 
 390      CF
 391 123c B775E2F9 		.ascii	"\267u\342\371VDA\214\345.\261\236\002\211x\276\255\347"
 391      5644418C 
 391      E52EB19E 
 391      028978BE 
 391      ADE7
 392 124e F9E6B9EF 		.ascii	"\371\346\271\357\304\316|_\274B]\014\267\306\343\316"
 392      C4CE7C5F 
 392      BC425D0C 
 392      B7C6E3CE 
 393 125e FC80BBFD 		.ascii	"\374\200\273\375}\361_\255~@A\214\3452\367P \021/S\036"
 393      7DF15FAD 
 393      7E40418C 
 393      E532F750 
 393      20112F53 
 394 1273 AAE74DA3 		.ascii	"\252\347M\243\301\200\215\342y\263\211\202\030K\003"
 394      C1808DE2 
 394      79B38982 
 394      184B03
 395 1282 36532011 		.ascii	"6S \021\317\233\315<o|\017\234\350\015\036\212\327\251"
 395      CF9BCD3C 
 395      6F7C0F9C 
 395      E80D1E8A 
 395      D7A9
 396 1294 D2877A9D 		.ascii	"\322\207z\235*\261\250S\346V\276G\235\332F\201\321\344"
 396      2AB1A853 
 396      E656BE47 
 396      9DDA4681 
 396      D1E4
 397 12a6 CFED1426 		.ascii	"\317\355\024&\254\352\324\016\012\024\026u\352\317\024"
 397      ACEAD40E 
 397      0A141675 
 397      EACF14
 398 12b5 082CEAD4 		.ascii	"\010,\352\324G\024\010z\255S\037\361:\325\352L\235\362"
 398      4714087A 
 398      AD531FF1 
 398      3AD5EA4C 
 398      9DF2
 399 12c7 76F17C2B 		.ascii	"v\361|+\025\317\2672\012b,\353T9\005\022\361|+\347\371"
 399      15CFB732 
 399      0A622CEB 
 399      54390512 
 399      F17C2BE7 
 400 12dc D6D8E544 		.ascii	"\326\330\345D'\325%^\247\356\330\351E;\234\211\236\347"
ARM GAS  /tmp/ccGrz3Xa.s 			page 32


 400      27D5255E 
 400      A7EED8E9 
 400      453B9C89 
 400      9EE7
 401 12ee 318FDEC7 		.ascii	"1\217\336\307\342\321\333GA\214e\364\252(\220\210G\257"
 401      E2D1DB47 
 401      418C65F4 
 401      AA289088 
 401      47AF
 402 1300 CAD0D53C 		.ascii	"\312\320\325<v\242\253y,\036\275n;\321{\354\314\223"
 402      76A2AB79 
 402      2C1EBD6E 
 402      3BD17BEC 
 402      CC93
 403 1312 84DF9127 		.ascii	"\204\337\221'\350\355\205\016\354\323\333\223\204=\270"
 403      E8ED850E 
 403      ECD3DB93 
 403      843DB8
 404 1321 664EF84F 		.ascii	"fN\370O\320^\317\216\302\241\241\316|\202\374\273T\355"
 404      D05ECF8E 
 404      C2A1A1CE 
 404      7C82FCBB 
 404      54ED
 405 1333 F5AAF677 		.ascii	"\365\252\366w\226\230e\257\347\374Gz6\211\371\257\327"
 405      969865AF 
 405      E7FC477A 
 405      3689F9AF 
 405      D7
 406 1344 7FF1EFFF 		.ascii	"\177\361\357\377\232>#\346\007\377\371\366\263\277I"
 406      9A3E23E6 
 406      07FFF9F6 
 406      B3BF49
 407 1353 CF80F77F 		.ascii	"\317\200\367\177\372M\372L\374\374\333\364Y\370\371"
 407      FA4DFA4C 
 407      FCFCDBF4 
 407      59F8F9
 408 1362 B7E9B3D5 		.ascii	"\267\351\263\325\317sT\272\271\352{\246\364v\372<\225"
 408      CF7354BA 
 408      B9EA7BA6 
 408      F476FA3C 
 408      95
 409 1373 667EACC2 		.ascii	"f~\254\302\2331\343\377\001\215.z]"
 409      9B31E3FF 
 409      018D2E7A 
 409      5D
 410              		.text
 411              		.section	.gnu.lto_.symbol_nodes.3f2b612c2a24cb3c,"",%progbits
 412 0000 789C4D92 		.ascii	"x\234M\222MoRA\024\206\347\\\270\320o]\324\357\257\277"
 412      4D6F5241 
 412      1486E75C 
 412      B8D06F5D 
 412      D4EFAFBF 
 413 0014 A6BF649A 		.ascii	"\246\277d\232\334D\243\304\306\235\033c\264\223@R\014"
 413      DC44A3C4 
 413      C69D1B63 
 413      B4934052 
 413      0C
ARM GAS  /tmp/ccGrz3Xa.s 			page 33


 414 0025 4D2029B1 		.ascii	"M )\261M\240\355ltc\342F\027V\3731\012\012\225jQ\260"
 414      4DA0ED6C 
 414      7463E246 
 414      1756FB31 
 414      0A0A956A 
 415 003b 9050EF9D 		.ascii	"\220P\357\235;\347\235\262y\237\363>\314\271\003\271"
 415      3BE79DB2 
 415      799FF33E 
 415      CCB903B9 
 416 004b 81084423 		.ascii	"\201\010D#'\322O\360\211$\211'\357\204\220\362\331\303"
 416      27D24FF0 
 416      89248927 
 416      EF8490F2 
 416      D9C3
 417 005d 7BC12EC9 		.ascii	"{\301.\311\340\334\370\205d\346\334\270G2{n<$)x|{7<"
 417      E0DCF885 
 417      64E6DCB8 
 417      47327B6E 
 417      3C242978 
 418 0075 A59C9022 		.ascii	"\245\234\220\"\374Kq!\202\016\311\320\311\347o\202\360"
 418      FC4B7121 
 418      820EC9D0 
 418      C9E76F82 
 418      F0
 419 0086 988244EE 		.ascii	"\230\202D\356S\230\225\231\260O\224L\237)\233L\007\224"
 419      53989599 
 419      B04F944C 
 419      9F299B4C 
 419      0794
 420 0098 49C2503E 		.ascii	"I\302P>\214\313o4\225D\213\246\223\370N3I\374\240\331"
 420      8CCB6F34 
 420      95448BA6 
 420      93F84E33 
 420      49FCA0D9 
 421 00ac 24DA3497 		.ascii	"$\3324\227\304W\232\217\203\206$s\351#\226\226\210\376"
 421      C4579A8F 
 421      83862473 
 421      E9239696 
 421      88FE
 422 00be 91CCFBE9 		.ascii	"\221\314\373\3517\311)?\015HN\373\351\017\311\031?\235"
 422      37C9293F 
 422      0D484EFB 
 422      E90FC919 
 422      3F9D
 423 00d0 909CF5D3 		.ascii	"\220\234\365\323/\222s~\352\221\234\367\323O\222\013"
 423      2F92737E 
 423      EA919CF7 
 423      D34F920B 
 424 00e0 7E3A2279 		.ascii	"~:\"y\301O]\222\0271e\262\227\204y\361\241\220\317d"
 424      C14F5D92 
 424      173165B2 
 424      978479F1 
 424      A190CF64 
 425 00f4 1745F432 		.ascii	"\027E\3642\201\374m\021\355O(\223\277%\224\315\233B"
 425      81FC6D11 
 425      ED4F2893 
 425      BF2594CD 
ARM GAS  /tmp/ccGrz3Xa.s 			page 34


 425      9B42
 426 0106 BB342EA3 		.ascii	"\2734.\243\2034\225K\355\322\270\214\356\037\335\261"
 426      8334954B 
 426      EDD2B88C 
 426      EE1FDDB1 
 427 0116 DEA57669 		.ascii	"\336\245vi\\F\017\234w\251]\032\227\321#\347m\336\020"
 427      5C460F9C 
 427      77A95D1A 
 427      97D123E7 
 427      6DDE10
 428 0129 DAE67561 		.ascii	"\332\346ual^\026Q!\311kB\025\234/8_p~\331y\233W\205"
 428      6C5E1651 
 428      21C96B42 
 428      159C2F38 
 428      5F707ED9 
 429 0141 B6794598 		.ascii	"\266yE\230\345\324\233\301\326\253\247\013\366\233\303"
 429      E5D49BC1 
 429      D6ABA70B 
 429      F69BC3
 430 0150 94168519 		.ascii	"\224\026\205\031rgF\260c\3301\272\011\223\232\260\215"
 430      726746B0 
 430      63D831BA 
 430      09939AB0 
 430      8D
 431 0161 CE6057B6 		.ascii	"\316`W\266\331:\212\255\342.*\302\026aK\350@\272\304"
 431      D93A8AAD 
 431      E22E2AC2 
 431      16614BE8 
 431      40BAC4
 432 0174 56ADA2AB 		.ascii	"V\255\242\253n\237\356\345,\325R\212\355:w\252\016["
 432      6E9FEEE5 
 432      2CD5528A 
 432      ED3A77AA 
 432      0E5B
 433 0186 87DDE0CE 		.ascii	"\207\335\340\3164x\213i\362f}\210\315\006\326\300\266"
 433      34788B69 
 433      F2667D88 
 433      CD06D6C0 
 433      B6
 434 0197 70ABCEF6 		.ascii	"p\253\316\366\3705\331\3579\2127w\271S=\330\036\354"
 434      F835D9EF 
 434      398A3777 
 434      B9533DD8 
 434      1EEC
 435 01a9 313A9039 		.ascii	"1:\2209f\253O`\373\240\001\316\016\261y\202\373M\360"
 435      66AB4F60 
 435      FBA001CE 
 435      0EB17982 
 435      FB4DF0
 436 01bc 6F9CA1F3 		.ascii	"o\234\241\363\264\262\303V\355p\0072\212\255.\302\226"
 436      B4B2C356 
 436      ED700732 
 436      8AAD2EC2 
 436      96
 437 01cd 40AB385B 		.ascii	"@\2538[\346NU`+\260k\260U\330*l\015\035\310\324\360"
 437      E64E5560 
 437      2BB06BB0 
ARM GAS  /tmp/ccGrz3Xa.s 			page 35


 437      55D82A6C 
 437      0D1DC8D4 
 438 01e2 DC75D83A 		.ascii	"\334u\330:h\003g7\261\271\001\333\200mb_kg\367\343\254"
 438      68036737 
 438      B1B901DB 
 438      806D625F 
 438      6B67F7E3 
 439 01f7 7D87DA29 		.ascii	"}\207\332)\305\357d\233;\323\001u\331\352\036w\252\317"
 439      C5EF649B 
 439      3BD30175 
 439      D9EA1E77 
 439      AACF
 440 0209 A4FB6CD5 		.ascii	"\244\373l\325\000v\010;\204\035\241\003\231\0216\217"
 440      0076083B 
 440      841DA103 
 440      9911368F 
 441 0219 6127A033 		.ascii	"a'\2403\234]\321|\242\250\037\277\267\357_TJ)\276s\211"
 441      9C5DD17C 
 441      A2A81FBF 
 441      B7EF5F54 
 441      4A29BE73 
 442 022e 3BB30A5B 		.ascii	";\263\012[\206-\243\2530\251\012\333h\015\266\012\252"
 442      862DA3AB 
 442      30A90ADB 
 442      680DB60A 
 442      AA
 443 023f B15575EE 		.ascii	"\261Uu\356\264\247\015\330M\354k\200\232l\265\301\255"
 443      B4A70DD8 
 443      4DEC6B80 
 443      9A6CB5C1 
 443      AD
 444 0250 3CB560DB 		.ascii	"<\265`\333\350<u`\273\350@Q\017\277\310\222\370\017"
 444      E83C7560 
 444      BBE84051 
 444      0FBFC892 
 444      F80F
 445 0262 CA5C6B56 		.ascii	"\312\\kV"
 446              		.text
 447              		.section	.gnu.lto_.refs.3f2b612c2a24cb3c,"",%progbits
 448 0000 789C8D50 		.ascii	"x\234\215P\213\022\302 \014K\342\334t\012\014\276\331"
 448      8B12C220 
 448      0C4BE2DC 
 448      740A0CBE 
 448      D9
 449 0011 7FF2F746 		.ascii	"\177\362\367F69\317\307t\344z\320\264\015\271\012\302"
 449      3639CFC7 
 449      74E47AD0 
 449      B40DB90A 
 449      C2
 450 0022 8D588E3A 		.ascii	"\215X\216:\034\325\3379\350\244s\015c\324\245\206\321"
 450      1CD5DF39 
 450      E8A4730D 
 450      63D4A586 
 450      D1
 451 0033 EBAA8EE1 		.ascii	"\353\252\216\341\025\010\214L\277\002\001\023\222\225"
 451      15088C4C 
 451      BF020113 
ARM GAS  /tmp/ccGrz3Xa.s 			page 36


 451      9295
 452 0041 B0EAF9F5 		.ascii	"\260\352\371\365\3010\233s\216\321uN\333,\012\342\027"
 452      C1309B73 
 452      8ED1754E 
 452      DB2C0AE2 
 452      17
 453 0052 CDD65558 		.ascii	"\315\326UX\230W\326\371{mc\352\371c\266\376\376\251"
 453      9857D6F9 
 453      7B6D63EA 
 453      F963B6FE 
 453      FEA9
 454 0064 3F6ED2E3 		.ascii	"?n\322\343nyl\256\2327\206\272k\351P\367\014\0213\002"
 454      6E796CAE 
 454      9A3786BA 
 454      6BE950F7 
 454      0C113302 
 455 0078 BC0A5F   		.ascii	"\274\012_"
 456              		.text
 457              		.section	.gnu.lto_.decls.3f2b612c2a24cb3c,"",%progbits
 458 0000 789CDD5D 		.ascii	"x\234\335]yt\024U\272\257\252\336\322\020\331\024\\"
 458      79741455 
 458      BAAFAADE 
 458      D210D914 
 458      5C
 459 0011 1E8E99C5 		.ascii	"\036\216\231\3057\216\216\204\305\347\3509o\334\202"
 459      378E8E84 
 459      C5E7E839 
 459      6FDC82
 460 0020 A3CC0872 		.ascii	"\243\314\010r\022\234\3217oN,:\015\3113\033\335\035"
 460      129CD137 
 460      6F4E2C3A 
 460      0DC9331B 
 460      DD1D
 461 0032 9679EF1C 		.ascii	"\226y\357\034\213\000AA%\254!@BP\366M\366M\226\026\025"
 461      8B004141 
 461      25AC2140 
 461      4250F64D 
 461      F64D9616 
 462 0047 42642021 		.ascii	"Bd !!\001\"\030\342 \210\242,2C\000\311\373\356w\253"
 462      21012218 
 462      E22088A2 
 462      2C324300 
 462      C9FBEE77 
 463 005c BAABAAAB 		.ascii	"\272\253\252\253\272n5\370\376x}ro\335\256\276\367W"
 463      BA6E35F8 
 463      FE787D72 
 463      6FDDAEBE 
 463      F757
 464 006e DF76BFFB 		.ascii	"\337v\277\373\335[\267*\002'pU\016\216k\207\317+\257"
 464      DD5BB72A 
 464      02277055 
 464      0E8E6B87 
 464      CF2BAF
 465 0081 735C5147 		.ascii	"s\\QG\216\363p\034\367\004\244\316\220\340'n\001\244"
 465      8EF3701C 
 465      F704A4CE 
 465      90E0276E 
ARM GAS  /tmp/ccGrz3Xa.s 			page 37


 465      01A4
 466 0093 BB058EBB 		.ascii	"\273\005\216\273\007ROH\257\012\264N\031\034]p\234\003"
 466      07524F48 
 466      AF0AB44E 
 466      191C5D70 
 466      9C03
 467 00a5 C727E158 		.ascii	"\307'\341X\001\307\025\220VB\332\005\211|\272B\332\015"
 467      01C71590 
 467      5642DA05 
 467      897CBA42 
 467      DA0D
 468 00b7 E5BD90F6 		.ascii	"\345\275\220\366C\252\205\324\000\351\010\244fH\237"
 468      43AA85D4 
 468      00E908A4 
 468      66489F
 469 00c6 43FA1ED2 		.ascii	"C\372\036\322U\202\005\027\353\000\2513\244\256\220"
 469      55820517 
 469      EB00A933 
 469      A4AE90
 470 00d5 7A40FA19 		.ascii	"z@\372\031\244\373!u\002\234_\302\361W\220\036\202\364"
 470      A4FB2175 
 470      029C5FC2 
 470      F157901E 
 470      82F4
 471 00e7 30A45448 		.ascii	"0\244TH\217CJ\203T\002\351MH\223!\275\015i\012\244\031"
 471      8F434A83 
 471      5402E94D 
 471      489321BD 
 471      0D690AA4 
 472 00fc 90663938 		.ascii	"\220f98\315\207\320\341\204c\022\034W\311\264\022^x"
 472      CD87D0E1 
 472      8463121C 
 472      57C9B412 
 472      5E78
 473 010e 48DB047A 		.ascii	"H\333\004z\334+p1\237\375q\332m\227\333\3557hW\313p"
 473      DC2B7031 
 473      9FFD71DA 
 473      6D97DBED 
 473      376857CB 
 474 0123 BD5A8376 		.ascii	"\275Z\203v\015\014\327k0hGd\335\015\216\335\241\302"
 474      0D0CD76B 
 474      30684764 
 474      DD0D8EDD 
 474      A1C2
 475 0135 9F782AB7 		.ascii	"\237x*\267dH\263A\016\345\220\376\000\251?\244\271D"
 475      6448B341 
 475      0EE590FE 
 475      00A93FA4 
 475      B944
 476 0147 BEF0FB3C 		.ascii	"\276\360\373<\207V\277-\220*\034T\357\237\011\364\370"
 476      8756BF2D 
 476      902A1C54 
 476      EF9F09F4 
 476      F8
 477 0158 7BC8FE48 		.ascii	"{\310\376H\022Oi\"\327\250tP\335\021\035\0222\210\016"
 477      124F6922 
 477      D7A87450 
ARM GAS  /tmp/ccGrz3Xa.s 			page 38


 477      DD111D12 
 477      32880E
 478 016b 7EA99335 		.ascii	"~\251\2235\321\361\203\034m\243\320Q\352\240|\220\252"
 478      D1F1831C 
 478      6DA3D051 
 478      EAA07C90 
 478      AA
 479 017c 0B21FB39 		.ascii	"\013!\3739\244E\216\250\315\334\011\345\305\016jg\304"
 479      A4458EA8 
 479      CDDC09E5 
 479      C50E6A67 
 479      C4
 480 018d 96BA41F9 		.ascii	"\226\272A\371\0318>\001i\211\203\332\336eHK\241\334"
 480      19383E01 
 480      698983DA 
 480      DE65484B 
 480      A1DC
 481 019f 11D23299 		.ascii	"\021\3222\231~b{n(/w\304\332\3455!*\307\177\347\250"
 481      7E627B6E 
 481      282F77C4 
 481      DAE53521 
 481      2AC77FE7 
 482 01b4 6D131E09 		.ascii	"m\023\036\011\177\217A\272\227\\K\346\231\350d\023\244"
 482      7F8F41BA 
 482      975C4BE6 
 482      99E86413 
 482      A4
 483 01c5 57044A2F 		.ascii	"W\004J/\341\341~\331\016{\310vI\354\223\330,\261Ub\263"
 483      E1E17ED9 
 483      0E7BC876 
 483      49EC93D8 
 483      2CB15562 
 484 01da C47677CB 		.ascii	"\304vw\313\262\350\316Q\373\233!\333\351\343\262\315"
 484      B2E8CE51 
 484      FB9B21DB 
 484      E9E3B2CD 
 485 01ea A6CAF279 		.ascii	"\246\312\362yX\266\325\225\220VAZ\015\351}Hk \255\205"
 485      58B6D595 
 485      9056415A 
 485      0DE97D48 
 485      6B20AD85 
 486 01fe B40ED27A 		.ascii	"\264\016\322zH\033T\366<E'\327\216\334$I*\226\252J\244"
 486      481B54F6 
 486      3C4527D7 
 486      8EDC2449 
 486      2A96AA4A 
 487 0213 E7AB3B75 		.ascii	"\347\253;u\343\246J\360I\251\006\011\277\314\213|'/"
 487      E3A64AF0 
 487      49A90609 
 487      BFCC8B7C 
 487      272F
 488 0225 D7E2C152 		.ascii	"\327\342\301R\262\227\373\037\250}?\267P\222J[\026]"
 488      B297FB1F 
 488      A87D3FB7 
 488      50924A5B 
 488      165D
 489 0237 3CE390A4 		.ascii	"<\343\220\244$\221\177\227\357\006\032\373\031\017\252"
ARM GAS  /tmp/ccGrz3Xa.s 			page 39


 489      24917F97 
 489      EF061AFB 
 489      190FAA
 490 0246 59060D4B 		.ascii	"Y\006\015K%\251\365\316X;\342,qE~!/@\276\030\360D~\021"
 490      25A9F5CE 
 490      583BE22C 
 490      71457E21 
 490      2F40BE18 
 491 025e FF20BD92 		.ascii	"\377 \275\222\024\376\347\304d\311I\317s\362/\006\237"
 491      14FEE7C4 
 491      64C949CF 
 491      73F22F06 
 491      9F
 492 026f 9F7255C0 		.ascii	"\237rU\300D\370\332\336\205wKU\273y#\236\240\002\257"
 492      44F8DADE 
 492      85774B55 
 492      BB79239E 
 492      A002AF
 493 0282 BABC2428 		.ascii	"\272\274$(\227O\341\210\321=\312\033\021\251\255%\362"
 493      974FE188 
 493      D13DCA1B 
 493      11A9AD25 
 493      F2
 494 0293 2B90C895 		.ascii	"+\220\310\225z\"\353(\221+\231\210\254\337\273\217\227"
 494      7A22EB28 
 494      912B9988 
 494      ACDFBB8F 
 494      97
 495 02a4 A6256B68 		.ascii	"\246%kh\354\301\315D\032K\200\310\220\227{#\372K\204"
 495      ECC1CD44 
 495      1A4B80C8 
 495      90977B23 
 495      FA4B84
 496 02b7 94148512 		.ascii	"\224\024\205\022gT\015\025%\215\227\370bh#\362ky/p1"
 496      67540D15 
 496      258D97F8 
 496      626823F2 
 496      6B792F70 
 497 02cc 86D75C5E 		.ascii	"\206\327\\^\344]^5\005\370]\251@\340\360g\271@\234v"
 497      E45D5E35 
 497      05F85DA9 
 497      40E0F067 
 497      B9409C76 
 498 02e0 67E3CB91 		.ascii	"g\343\313\221\226k\370\036Xr`\017\205\023OvT\312\032"
 498      966BF81E 
 498      5872600F 
 498      85134F76 
 498      54CA1A
 499 02f3 5664EA5B 		.ascii	"Vd\352[\026\205\357\232\035\245>I\201\343\243\324O\235"
 499      1685EF9A 
 499      1DA53E49 
 499      81E3A3D4 
 499      4F9D
 500 0305 B4EA2130 		.ascii	"\264\352!0\242H\003\311\264\201\310o\341\357\207\234"
 500      A24803C9 
 500      B481C86F 
 500      E1EF879C 
ARM GAS  /tmp/ccGrz3Xa.s 			page 40


 501 0315 D752CF7B 		.ascii	"\327R\317{\243\205v\236h\261\222\327\012\200\001[\021"
 501      A385769E 
 501      68B192D7 
 501      0A80015B 
 501      11
 502 0326 E5E4CAC7 		.ascii	"\345\344\312\307\320\242?@A6\360zI\362:IZ\320b\247\256"
 502      D0A23F40 
 502      4136F07A 
 502      49F23A49 
 502      5AD062A7 
 503 033b 99C83781 		.ascii	"\231\3107\201!G?\021\301\257\245\244\210\374K\321\256"
 503      21473F11 
 503      C1AFA5A4 
 503      88FC4BD1 
 503      AE
 504 034c 6C06F17E 		.ascii	"l\006\361~\024B\340N S\304J\215\252\313E\015\236\306"
 504      1442E04E 
 504      2053C44A 
 504      8DAACB45 
 504      0D9EC6
 505 035f 725B165D 		.ascii	"r[\026]\235\035\333\2754\246K\2113#f7\243\011\211\374"
 505      9D1DDBBD 
 505      34A64B89 
 505      33236637 
 505      A30989FC 
 506 0373 D638289F 		.ascii	"\3268(\237\334\274T>TK\345\357\266\245\222\242\226\212"
 506      DCBC543E 
 506      544BE5EF 
 506      B6A592A2 
 506      968A
 507 0385 B44E92BC 		.ascii	"\264N\222\274n\213\336,\261\364\346\365\007?\256\343"
 507      6E8BDE2C 
 507      B1F4E6F5 
 507      073FAEE3 
 508 0395 C7616FFE 		.ascii	"\307ao\376\024\215p\236``\315,PUSk\272\023\207t\000"
 508      148D709E 
 508      6060CD2C 
 508      5055536B 
 508      BA138774 
 509 03aa 61DE4D14 		.ascii	"a\336M\024\246\245\342\323\315\264S\324!\320rA\337)"
 509      A6A5E2D3 
 509      CDB453D4 
 509      21D07241 
 509      DF29
 510 03bc DCBA4EE1 		.ascii	"\334\272N\341\326\032:|%W\272B\\\013\377\272|\206|\361"
 510      D61A3A7C 
 510      2557BA42 
 510      5C0BFFBA 
 510      7C867CF1 
 511 03d0 70FFE7ED 		.ascii	"p\377\347\355\314l\241\306\334(\251\035\262\032\325"
 511      CC6CA1C6 
 511      DC28A91D 
 511      B21AD5
 512 03df 3EB5516D 		.ascii	">\265Qm\020\030\214*I\215\307\251\215\212\251\253}\032"
 512      10188C2A 
 512      498DC7A9 
 512      8D8AA9AB 
ARM GAS  /tmp/ccGrz3Xa.s 			page 41


 512      7D1A
 513 03f1 A7931C35 		.ascii	"\247\223\0345\340\212\211\213#j.\266\330\346\302V\327"
 513      E08A898B 
 513      236A2EB6 
 513      D8E6C256 
 513      D7
 514 0402 88CFC209 		.ascii	"\210\317\302\011\006\305\310\337e7/\225H\017,\215Zt"
 514      06C5C8DF 
 514      65372F95 
 514      480F2C8D 
 514      5A74
 515 0414 17055188 		.ascii	"\027\005Q\210Zt[\375\246\007\321\242[\321\242\233\215"
 515      5A745BFD 
 515      A607D1A2 
 515      5BD1A29B 
 515      8D
 516 0425 BA0613D0 		.ascii	"\272\006\023\320\324I\233\177\215@\247\020\350T\302"
 516      D4499B7F 
 516      8D40A710 
 516      E854C2
 517 0434 40159397 		.ascii	"@\025\223\227<\216@g\020\350\333\230>\346\320\3651\207"
 517      3C8E4067 
 517      10E8DB98 
 517      3EE6D0F5 
 517      3187
 518 0446 D6E61DDE 		.ascii	"\326\346\035\336h\241\275]\033\334\335\372\312L6t\\"
 518      68A1BD5D 
 518      1BDCDDFA 
 518      CA4C3674 
 518      5C
 519 0457 6D436D2C 		.ascii	"mCm,6\324E\215\307\251m\350\246{\302\267\361\314\250"
 519      36D4458D 
 519      C7A96DE8 
 519      A67BC2B7 
 519      F1CCA8
 520 046a D546FF3E 		.ascii	"\325F\377>\247\346\352\206m\256R\324\\Y\367\214x\343"
 520      A7E6EA86 
 520      6DAE52D4 
 520      5C59F78C 
 520      78E3
 521 047c E8F7F158 		.ascii	"\350\367\361X\222\203\006\375\270\230\020\313\227\324"
 521      928306FD 
 521      B89810CB 
 521      97D4
 522 048a 2C8F7330 		.ascii	",\217s0\260|\227\251\"o\216\345\353\361X\376\344\026"
 522      B07C97A9 
 522      226F8EE5 
 522      EBF158FE 
 522      E416
 523 049c B27C4DCD 		.ascii	"\262|M\315\362$\333,\247p\332\217\322\237D~5\377S\310"
 523      F224DB2C 
 523      A770DA8F 
 523      D29F447E 
 523      35FF53C8 
 524 04b0 C3985763 		.ascii	"\303\230Wc\336\204\371g\230\177\203\371E\314\257BnI"
 524      DE84F967 
 524      987F83F9 
ARM GAS  /tmp/ccGrz3Xa.s 			page 42


 524      45CCAF42 
 524      6E49
 525 04c2 E732359D 		.ascii	"\34725\235\245H\347\342\004\003;)|}or\251\250\314\223"
 525      A548E7E2 
 525      04033B29 
 525      7C7D6F72 
 525      A9A8CC93 
 526 04d6 DC1641C1 		.ascii	"\334\026A\301\2219\007ytX\343\0052\367[\353\320:,K\030"
 526      91390779 
 526      7458E305 
 526      32F75BEB 
 526      D03A2C4B 
 527 04eb 810B6393 		.ascii	"\201\013c\223\211\202n\026\265\261\344\016\022\264\220"
 527      89826E16 
 527      B5B1E40E 
 527      12B490
 528 04fa F3D6B3A8 		.ascii	"\363\326\263\250\315%\025\246S=\365\014\256\212W\256"
 528      CD2515A6 
 528      533DF50C 
 528      AE8A57AE 
 529 050a 7D478485 		.ascii	"}G\204\205\360\321\037\370\024\221\177\013\351\377\233"
 529      F0D11FF8 
 529      14917F0B 
 529      E9FF9B
 530 0519 31FDE618 		.ascii	"1\375\346\030\020Gc\223)z\372/\211)\364\2545\365\227"
 530      10476393 
 530      297AFA2F 
 530      8929F4AC 
 530      35F597
 531 052c BFC239A0 		.ascii	"\277\3029\240\310O\026:\002\340\271\010`B\201y\370\252"
 531      C84F163A 
 531      02E0B908 
 531      60428179 
 531      F8AA
 532 053e BFBAB7A5 		.ascii	"\277\272\267\245 \234\012P\377\250.\257\324?ID>\013"
 532      209C0A50 
 532      FFA82EAF 
 532      D43F4944 
 532      3E0B
 533 0550 25719141 		.ascii	"%q\221A\022\032\020\201\273\206M\312u\222h\231\333Z"
 533      121A1081 
 533      BB864DCA 
 533      75926899 
 533      DB5A
 534 0562 FBD06C49 		.ascii	"\373\320lI\352B\177\262\022\007L\362k\346\361D\231\006"
 534      EA427FB2 
 534      12074CF2 
 534      6BE6F144 
 534      9906
 535 0574 577C4A1D 		.ascii	"W|J\035f(\203\370\364\206\251\374x\014\224+\220\362"
 535      662883F8 
 535      F486A9FC 
 535      780C942B 
 535      90F2
 536 0586 2AA7B10D 		.ascii	"*\247\261\015>e\006$pk\260IU,\345W~E)\257bRd\335$j\206"
 536      3E650624 
 536      706BB049 
ARM GAS  /tmp/ccGrz3Xa.s 			page 43


 536      552CE557 
 536      7E4529AF 
 537 05a1 223F5320 		.ascii	"\"?S \021\326tA\220a\023\323\344\241\032\350\211\024"
 537      11D67441 
 537      906113D3 
 537      E4A11AE8 
 537      8914
 538 05b3 4CE03E8C 		.ascii	"L\340>\214\320hsfb\364Q3+\362\357\012d>\375\236@\374"
 538      D0687366 
 538      62F45133 
 538      2BF2EF0A 
 538      643EFD9E 
 539 05c9 CD4241E5 		.ascii	"\315BA\345o\004n\217S\321\251\221\344\254Yh\253\231"
 539      6F046E8F 
 539      53D1A991 
 539      E4AC5968 
 539      AB99
 540 05db 8722615F 		.ascii	"\207\"a_\306X?%2\361Y*\220 h\277\3230\232b\200\232:"
 540      C6583F25 
 540      32F1592A 
 540      902068BF 
 540      D3309A62 
 541 05f2 E9930FE5 		.ascii	"\351\223\017\345\025\221\025\010\325\2200T\305\344\355"
 541      15911508 
 541      D5903054 
 541      C5E4ED
 542 0601 34305B8D 		.ascii	"40[\215@\307\235\372\300\314\243\013\314<\332\360\311"
 542      40C79DFA 
 542      C0CCA30B 
 542      CC3CDAF0 
 542      C9
 543 0612 E38D16E4 		.ascii	"\343\215\026\344\265\225\037\267\272\300\235\321\253"
 543      B5951FB7 
 543      BAC09DD1 
 543      AB
 544 061f CED6AC43 		.ascii	"\316\326\254Cj\231\323z\346\241r)<\336\301\340\304\317"
 544      6A99D37A 
 544      E6A17229 
 544      3CDEC1E0 
 544      C4CF
 545 0631 E1B5D6EB 		.ascii	"\341\265\326\353;\320\345\323\325r\007Z\317\324\201"
 545      3BD0E5D3 
 545      D572075A 
 545      CFD481
 546 0640 36D694B1 		.ascii	"6\326\224\261\371\361\310J\334/\360\362\225.r\371-\372"
 546      F9F1C84A 
 546      DC2FF0F2 
 546      952E72F9 
 546      2DFA
 547 0652 CB6FFCBA 		.ascii	"\313o\374\272\372\317\364\362[\230.\277\265iF\354\345"
 547      FACFF4F2 
 547      5B982EBF 
 547      B56946EC 
 547      E5
 548 0663 45FE89EE 		.ascii	"E\376\211\356\361,\343\362\3513=\347\343E\266c?=\344"
 548      F12CE3F2 
 548      E9333DE7 
ARM GAS  /tmp/ccGrz3Xa.s 			page 44


 548      E345B663 
 548      3F3DE4
 549 0676 D29BC693 		.ascii	"\322\233\306\223\352%\012e\366\025\251\000\363\216\010"
 549      EA250A65 
 549      F615A900 
 549      F38E08
 550 0685 F509B909 		.ascii	"\365\011\271\011`\363\314_\226A@\365\246[\241\341\204"
 550      60F3CC5F 
 550      964140F5 
 550      A65BA1E1 
 550      84
 551 0696 6DC4148D 		.ascii	"m\304\024\215 \2667\241\343\241`'Y\300\314g\257\341"
 551      20B637A1 
 551      E3A16027 
 551      59C0CC67 
 551      AFE1
 552 06a8 9D6AB0BF 		.ascii	"\235j\260\277\333\006\323RV\253\006;\315\002f>\233\010"
 552      DB06D352 
 552      56AB063B 
 552      CD02663E 
 552      9B08
 553 06ba 1F52839D 		.ascii	"\037R\203\235\265\015\246\245\254A\015v\216\005\314"
 553      B50DA6A5 
 553      AC410D76 
 553      8E05CC
 554 06c9 3C3C0E37 		.ascii	"<<\0167\252\301.\330\006\323RvD\015v\231\005,\305\200"
 554      AAC12ED8 
 554      06D35276 
 554      440D7699 
 554      052CC580 
 555 06dd B2C8C72C 		.ascii	"\262\310\307,\010\335,\250\202\320+.\305!\330\264i."
 555      08DD2CA8 
 555      82D02B2E 
 555      C521D8B4 
 555      692E
 556 06ef 8A71CD65 		.ascii	"\212q\315e\327\201i\370&\303\367C\333\344~A\307\320"
 556      D78169F8 
 556      26C3F743 
 556      DBE47E41 
 556      C7D0
 557 0701 7616C438 		.ascii	"v\026\3048\006S\372\251j@\236\340\266\013\246UK%\001"
 557      0653FAA9 
 557      6A409EE0 
 557      B60BA655 
 557      4B2501
 558 0714 4B68B59C 		.ascii	"Kh\265\234\334Y\021T\253\331w\031\327\025\371\2438\260"
 558      DC591154 
 558      ABD97719 
 558      D715F9A3 
 558      38B0
 559 0726 1F13BC11 		.ascii	"\037\023\274\021*hY)\321u\362\311n\355\022u\344c\325"
 559      2A685929 
 559      D175F2C9 
 559      6EED1275 
 559      E463D5
 560 0739 D4CC129A 		.ascii	"\324\314\022\232\324\226P\312\"\2468]\241\326LL\341"
 560      D49650CA 
ARM GAS  /tmp/ccGrz3Xa.s 			page 45


 560      22A6385D 
 560      A1D64C4C 
 560      E1
 561 074a 12E90D7E 		.ascii	"\022\351\015~\354\332\236q\243C\360\316\367.G\357\374"
 561      ECDA9E71 
 561      A343F0CE 
 561      F72E47EF 
 561      FC
 562 075b 390EDC33 		.ascii	"9\016\3343\335\206\021\000\023\326\324I\007\225p\242"
 562      DD861100 
 562      13D6D449 
 562      079570A2 
 563 076b 15C1AA12 		.ascii	"\025\301\252\022\007\253\252\370\264'\011\266O!\320"
 563      07ABAAF8 
 563      B42709B6 
 563      4F21D0
 564 077a 32B77ECC 		.ascii	"2\267~\314\360\352\302\011\257v\300\367z\243\205v\345"
 564      F0EAC209 
 564      AF76C0F7 
 564      7AA38576 
 564      E5
 565 078b A3BFD1F0 		.ascii	"\243\277\321\360#\2661\323\374\011\265\3467\330\326"
 565      23B631D3 
 565      FC09B5E6 
 565      37D8D6
 566 079a BCA68390 		.ascii	"\274\246\203\220\000\244W\231\024\036\353`\277q\263"
 566      00A45799 
 566      141EEB60 
 566      BF71B3
 567 07a9 FEE0CEDF 		.ascii	"\376\340\316\337b\230v\026\345\372A\214\\\267\332\274"
 567      62987616 
 567      E5FA418C 
 567      5CB7DABC 
 568 07b9 7323701F 		.ascii	"s#p\037\353\271\320\\7\216\303\214x\241\352\324\255"
 568      EBB9D05C 
 568      378EC38C 
 568      78A1EAD4 
 568      AD
 569 07ca AB25699C 		.ascii	"\253%i\234\333\006"
 569      DB06
 570 07d0 1B536436 		.ascii	"\033Sd6\276C6jn\001\033\207l\263\221\244c\343|\002l"
 570      BE43366A 
 570      6E011B87 
 570      6CB391A4 
 570      63E37C02 
 571 07e5 ECA26C7C 		.ascii	"\354\242l|\217l\034\271\005l\264\330f\243\213\212\015"
 571      8F6C1CB9 
 571      056CB4D8 
 571      66A38B8A 
 571      0D
 572 07f6 9CD20DD8 		.ascii	"\234\322\015\330\212c\302\355\334\264\370Q-\241\247"
 572      8A63C2ED 
 572      DCB4F851 
 572      2DA1A7
 573 0805 4DB85D3B 		.ascii	"M\270];\255?|\200,\026\220\323\326\023\331K\007\346"
 573      AD3F7C80 
 573      2C1690D3 
ARM GAS  /tmp/ccGrz3Xa.s 			page 46


 573      D613D94B 
 573      07E6
 574 0817 C9D3417A 		.ascii	"\311\323Az\007\347\024\322N\332&\022\347I\341\322\203"
 574      07E714D2 
 574      4EDA2612 
 574      E749E1D2 
 574      83
 575 0828 38FA50B0 		.ascii	"8\372P\260on\012\2548<\177\2122W}\022\303\202\233\204"
 575      6F6E0AAC 
 575      383C7F8A 
 575      32577D12 
 575      C3829B84 
 576 083c DB7E50EF 		.ascii	"\333~P\357\245uA\364,\0237\020\231\305\357Q|\3538\007"
 576      A57541F4 
 576      2C133710 
 576      99C5EF51 
 576      7CEB3807 
 577 0850 21E87A8C 		.ascii	"!\350z\214\261\314\024tq4\235dG\252\230\351\260\330"
 577      B1CC1474 
 577      71349D64 
 577      47AA98E9 
 577      B0D8
 578 0862 A1F24953 		.ascii	"\241\362IS<7\245\003\260\237#Ol\225c\012\252\210\231"
 578      3C37A503 
 578      B09F234F 
 578      6C95630A 
 578      AA8899
 579 0875 37850833 		.ascii	"7\205\0103\344)lkW\257*X\311\310H\005^v\262C?\345\271"
 579      E4296C6B 
 579      57AF2A58 
 579      C9C84805 
 579      5E76B243 
 580 088c D65222CB 		.ascii	"\326R\"\313\221\374fm\244\315\247\274\270\366T\201\223"
 580      91FC666D 
 580      A4CDA7BC 
 580      B8F65481 
 580      93
 581 089d A7C5B862 		.ascii	"\247\305\270bAZ\032\015]\326&z\302_\335\333\316=\316"
 581      415A1A0D 
 581      5DD6267A 
 581      C25FDDDB 
 581      CE3DCE
 582 08b0 3DCA54BF 		.ascii	"=\312T\277\324Ad\371\261G\257\364\003z\017a\343&\037"
 582      D44164F9 
 582      B147AFF4 
 582      037A0F61 
 582      E3261F
 583 08c3 38CE8890 		.ascii	"8\316\210\220X#H\375\307\314\250&\251\215\352\300\315"
 583      582348FD 
 583      C7CCA826 
 583      A98DEAC0 
 583      CD
 584 08d4 990018D5 		.ascii	"\231\000\030\325\231\347i\240je\004Rd\361\261\013^\371"
 584      99E769A0 
 584      6A650452 
 584      64F1B10B 
 584      5EF9
ARM GAS  /tmp/ccGrz3Xa.s 			page 47


 585 08e6 305EB94C 		.ascii	"0^\271Lo\005?\334\250\236\310\217E\301\2261Y\301e\003"
 585      6F053FDC 
 585      A89EC88F 
 585      45C19631 
 585      59C16503 
 586 08fa 2B284BD0 		.ascii	"+(K\320\012\300\244\225\005M\032(_\211\020iS\0132\334"
 586      0AC0A495 
 586      054D1A28 
 586      5F891069 
 586      530B32DC 
 587 090e 7586054D 		.ascii	"u\206\005M\255`\224\225\335S\304Y\317w\220U\301\033"
 587      AD609495 
 587      DD53C459 
 587      CF779055 
 587      C11B
 588 0920 31A64525 		.ascii	"1\246E%\2432\255\250\030a\204q\220\310y\216\203,\211"
 588      A332ADA8 
 588      18618471 
 588      90C8798E 
 588      832C89
 589 0933 CDC5BCC2 		.ascii	"\315\305\274\302\301\260\020_\0315\013e\371\317\016"
 589      C1B0105F 
 589      19350B65 
 589      F9CF0E
 590 0942 DF298CD6 		.ascii	"\337)\214\3267Km}%I7g}\020f\015\300u\036\033kt\007?"
 590      374B6D7D 
 590      25493767 
 590      7D10660D 
 590      C0751E1B 
 591 095a 513AEE42 		.ascii	"Q:\356B\354\270o'\351\245\273B\260\275 &p\345\211\262"
 591      ECB86F27 
 591      E9A5BB42 
 591      B0BD2026 
 591      70E589B2 
 592 096e 12F94050 		.ascii	"\022\371@P\236\304\020u\246\030H=\342\341[~O=<\353="
 592      9EC41075 
 592      A618483D 
 592      E2E15B7E 
 592      4F3D3CEB 
 593 0983 90B6FAFD 		.ascii	"\220\266\372\375c\345\025\350\345hk\357\352\244\301"
 593      63E515E8 
 593      E5686BEF 
 593      EAA4C1
 594 0992 B080B616 		.ascii	"\260\200\266\026\233\254\322w\344\271\255ay\001m\025"
 594      9BACD277 
 594      E4B9AD61 
 594      79016D15 
 595 09a2 433F2E0E 		.ascii	"C?.\016\2577\\\201^\025\337\004\343\012T\243\303U\252"
 595      AF375C81 
 595      5E15DF04 
 595      E30A54A3 
 595      C355AA
 596 09b5 1EF23EF6 		.ascii	"\036\362>\366\2205\352^!p\037\262\010\377\0013[\004"
 596      9035EA5E 
 596      21701FB2 
 596      08FF0133 
 596      5B04
ARM GAS  /tmp/ccGrz3Xa.s 			page 48


 597 09c7 3F7488AE 		.ascii	"?t\210\256\375+k\371\373\364xF\236H\203\247V&L\330\353"
 597      FD2B6BF9 
 597      FBF47846 
 597      9E4883A7 
 597      56264CD8 
 598 09dc 3164A246 		.ascii	"1d\242Fz\210\205\270\336\346`\363\247+\302\235\205!"
 598      7A8885B8 
 598      DEE660F3 
 598      A72BC29D 
 598      8521
 599 09ee 4A330BDE 		.ascii	"J3\013\336cf\314\026\2077\327+\361!]\350\376\3026\236"
 599      6366CC16 
 599      8737D72B 
 599      F1215DE8 
 599      FEC2369E 
 600 0a02 96BEC3D3 		.ascii	"\226\276\303\3235!\3357,pO1\353>z_\007<\"\256+\314\303"
 600      3521DD37 
 600      2C704F31 
 600      EB3E7A5F 
 600      073C22AE 
 601 0a19 1B064B30 		.ascii	"\033\006K0_\207\371!\314\0330o\304\3748\346_a\376-\346"
 601      5F87F921 
 601      CC1B306F 
 601      C4FC38E6 
 601      5F61FE2D 
 602 0a2e 9730BF82 		.ascii	"\2270\277\202\3712\364\254\3530\337\200\371&\314\267"
 602      F932F4AC 
 602      EB30DF80 
 602      F926CCB7 
 603 0a3e 60BE8DC5 		.ascii	"`\276\215\305\343\352\202@\201\273\230d\367\366\231"
 603      E3EA8240 
 603      81BB9864 
 603      F7F699
 604 0a4d 468A2D47 		.ascii	"F\212-G\217\355z\034\335\241b6\327X\000\343\014_\323"
 604      8FED7A1C 
 604      DDA16236 
 604      D75800E3 
 604      0C5FD3
 605 0a60 F6800DDA 		.ascii	"\366\200\015\332\271\377\021\011\212\302x\375b\357-"
 605      B9FF1109 
 605      8AC278FD 
 605      62EF2D
 606 0a6f F0AD227F 		.ascii	"\360\255\"\177\021]\201\0356\364r\371d*?}\234T\335["
 606      115D811D 
 606      36F472F9 
 606      642A3F7D 
 606      9C54DD5B 
 607 0a83 216C8A97 		.ascii	"!l\212\227A0F\253i\306\0066Ee`S\321\300\246\241\221"
 607      413046AB 
 607      69C60636 
 607      45656053 
 607      D1C0A6A1 
 608 0a98 CCC07C07 		.ascii	"\314\300|\007\232\304.\314?b1\214\311B\314P<\361&\226"
 608      9AC42ECC 
 608      3F62318C 
 608      C942CC50 
 608      3CF12696 
ARM GAS  /tmp/ccGrz3Xa.s 			page 49


 609 0aac 2335A44E 		.ascii	"#5\244NT\221\372&\222:I{\333l\226\327\356=x\255\260"
 609      5491FA26 
 609      923A497B 
 609      DB6C96D7 
 609      EE3D78AD 
 610 0ac1 3F699F7D 		.ascii	"?i\237}\247\324\022\346=\\\011\316\265'\024[\314\265"
 610      A7D412E6 
 610      3D5C09CE 
 610      B527145B 
 610      CCB5
 611 0ad3 C357DC82 		.ascii	"\303W\334\202\310\357ux\310NA\235\3010\200\340\3367"
 611      C8EF7578 
 611      C84E419D 
 611      C13080E0 
 611      DE37
 612 0ae5 68AC99EB 		.ascii	"h\254\231\353^(\351L\226\250\310\3718#\017n\254\020"
 612      5E28E94C 
 612      96A8C8F9 
 612      38230F6E 
 612      AC10
 613 0af7 B8C55E1A 		.ascii	"\270\305^\032\2019\275\321sk\242\347xU\325-\321\323"
 613      8139BDD1 
 613      736BA2E7 
 613      7855D52D 
 613      D1D3
 614 0b09 CA6306E4 		.ascii	"\312c\006\344k\334M\263Q\342`\336\205#\317~\207\303"
 614      6BDC4DB3 
 614      51E260DE 
 614      8523CF7E 
 614      87C3
 615 0b1b B099C89F 		.ascii	"\260\231\310\237\023\004\255\360\215\326\010\314o|\205"
 615      1304ADF0 
 615      8DD608CC 
 615      6F7C85
 616 0b2a 7FD84B82 		.ascii	"\177\330K\202a\313\333Nr\177\235\276\272\356\276\225"
 616      61CBDB4E 
 616      727F9DBE 
 616      BAEEBE95 
 617 0b3a 3844D7E3 		.ascii	"8D\327\343\340\177R'}F\234\360F\014V\033\021\343;\273"
 617      E07F5227 
 617      7D469CF0 
 617      460C561B 
 617      11E33BBB 
 618 0b4e 18027715 		.ascii	"\030\002w\025\233\034u\350w\314\223m\010G\231\346\000"
 618      9B1C75E8 
 618      77CC936D 
 618      084799E6 
 618      00
 619 0b5f 6DAA3980 		.ascii	"m\2529\200\300\215\353\240\340%0\007\030?\016w!\240"
 619      C08DEBA0 
 619      E0253007 
 619      183F0E77 
 619      21A0
 620 0b71 D31B17D7 		.ascii	"\323\033\027\327\351\201\367\307\315\334\326[\321!\310"
 620      E981F7C7 
 620      CDDCD65B 
 620      D121C8
ARM GAS  /tmp/ccGrz3Xa.s 			page 50


 621 0b80 D49364D3 		.ascii	"\324\223d\323\021\377\240LK\310\026!\201+\263\015\247"
 621      11FFA04C 
 621      4BC81621 
 621      812BB30D 
 621      A7
 622 0b91 E9A3E11B 		.ascii	"\351\243\341\033~\342\012)V\025\013V\234\033\0138F("
 622      7EE20A29 
 622      56150B56 
 622      9C1B0B38 
 622      4628
 623 0ba3 608B6D83 		.ascii	"`\213m\203i\011\233\241\006[\315\002\026g\371\275l\317"
 623      69099BA1 
 623      065BCD02 
 623      1667F9BD 
 623      6CCF
 624 0bb5 3CCB1D77 		.ascii	"<\313\035w&7H\211v\277vh\266j\351\026\205\032M\310\302"
 624      26374889 
 624      76BF7668 
 624      B66AE916 
 624      851A4DC8 
 625 0bca 5EAC9E4A 		.ascii	"^\254\236JY\354\325\222\273P\375\002\322\205\316bp\266"
 625      59ECD592 
 625      BB50FD02 
 625      D285CE62 
 625      70B6
 626 0bdc A983B60B 		.ascii	"\251\203\266\013\351\256L\3502\273\362yGG\223\316\022"
 626      E9AE4CE8 
 626      32BBF279 
 626      474793CE 
 626      12
 627 0bed F39BC085 		.ascii	"\363\233\300\205m\313W\253\254\362\022M\320\266\217"
 627      6DCB57AB 
 627      ACF2124D 
 627      D0B68F
 628 0bfc 052EC540 		.ascii	"\005.\305@]F\037\265?\020\371ft\233\237\341\010z\002"
 628      5D461FB5 
 628      3F10F966 
 628      749B9FE1 
 628      087A02
 629 0c0f F393987F 		.ascii	"\363\223\230\177\201\371)\314Oc\376\025\346\027\325"
 629      81F929CC 
 629      4F63FE15 
 629      E617D5
 630 0c1e A3EC8F83 		.ascii	"\243\354\217\203*p\265\035t\003\245\326\257Y\365B\211"
 630      2A70B51D 
 630      7403A5D6 
 630      AF59F542 
 630      89
 631 0c2f 8C9466BB 		.ascii	"\214\224f\273\205\314\334\365\343\324]\377\003]m\223"
 631      85CCDCF5 
 631      E3D45DFF 
 631      035D6D93 
 632 0c3f CE4EA851 		.ascii	"\316N\250Q\376X\354~\311\304\256f\016\302\305\262\013"
 632      FE58EC7E 
 632      C9C4AE66 
 632      0EC2C5B2 
 632      0B
ARM GAS  /tmp/ccGrz3Xa.s 			page 51


 633 0c50 814157AE 		.ascii	"\201AW\256\024\331\235\255}>B\273\014\202[\030\035]"
 633      14D99DAD 
 633      7D3E42BB 
 633      0C825B18 
 633      1D5D
 634 0c62 B1A45995 		.ascii	"\261\244Y\225\303\032f\346\177\335\021\275\347\227\354"
 634      C31A66E6 
 634      7FDD11BD 
 634      E797EC
 635 0c71 8D163A47 		.ascii	"\215\026:G\2708\247\347B{Y\2718\330Tid/\264\303Mi\023"
 635      B838A7E7 
 635      427B59B9 
 635      38D85469 
 635      642FB4C3 
 636 0c88 B8F34C68 		.ascii	"\270\363Lh\257\232\241\031\355%5z\302,\002\3323j\014"
 636      AF9AA119 
 636      ED25357A 
 636      C22C02DA 
 636      336A0C
 637 0c9b 8D9B2F4C 		.ascii	"\215\233/L\222\327\311\212\235\304\032\026w\264\034"
 637      92D7C98A 
 637      9DC41A16 
 637      77B41C
 638 0caa 78B54044 		.ascii	"x\265@D`\023\234\272A\367\203\326j\272)\222\374b1\360"
 638      60139CBA 
 638      41F783D6 
 638      6ABA2992 
 638      FC6231F0 
 639 0cbe C250B9AB 		.ascii	"\302P\271\253\265Z\210.\300X\215\227+1\336dYM\331\200"
 639      B55A882E 
 639      C0588D97 
 639      2B31DE64 
 639      594DD980 
 640 0cd2 CC101A6C 		.ascii	"\314\020\032l\006\2752]\265\204\0152^\276\201\221\332"
 640      06BD325D 
 640      B5840D32 
 640      5EBE8191 
 640      DA
 641 0ce3 66DB7029 		.ascii	"f\333p)\032\270CZ\270m,pf\2439\3005h\341v\332\206\323"
 641      1AB8435A 
 641      B86D2C70 
 641      66A339C0 
 641      3568E176 
 642 0cfa 52D7A885 		.ascii	"R\327\250\205\333\315\002g6\240\003\334\021-\334\036"
 642      DBCD0267 
 642      36A003DC 
 642      112DDC1E 
 643 0d0a DB705AEA 		.ascii	"\333pZ\352\216i\341jX\340\214\006u\243\217\332\200E"
 643      8E69E16A 
 643      58E08C06 
 643      75A38FDA 
 643      8045
 644 0d1c BEC449CC 		.ascii	"\276\304I\314k\242\2238\257I\230\277\205\371;\230\227"
 644      6BA29338 
 644      AF4998BF 
 644      85F93B98 
 644      97
ARM GAS  /tmp/ccGrz3Xa.s 			page 52


 645 0d2d 623E0DF3 		.ascii	"b>\015\363\031N\206Y\330X\247j\245\362`G\206YQ\241\211"
 645      194E8659 
 645      D858A76A 
 645      A5F26047 
 645      865951A1 
 646 0d42 1454B322 		.ascii	"\024T\263\"\352\362\004\356\260\036\317(\320\037\315"
 646      EAF204EE 
 646      B01ECF28 
 646      D01FCD
 647 0d51 2C86E8E3 		.ascii	",\206\350\343\246\"\277\004\243\322\245\270\005{\034"
 647      A622BF04 
 647      A3D2A5B8 
 647      057B1C
 648 0d60 4E40F7A0 		.ascii	"N@\367\240??\204\371e\314\257b~\003s\011ER\306\"\222"
 648      3F3F84F9 
 648      65CCAF62 
 648      7E037309 
 648      4552C622 
 649 0d75 05D1CDDA 		.ascii	"\005\321\315\332\032\247\245v\351d\207\205\334~M\304"
 649      1AA7A576 
 649      E9648785 
 649      DC7E4DC4 
 650 0d85 DFF49001 		.ascii	"\337\364\220\001\3468\355\272\364\271Nc\227\336\335"
 650      E638EDBA 
 650      F4B94E63 
 650      97DEDD
 651 0d94 82D472A7 		.ascii	"\202\324r\2471\251\254\376\265m\347\321{\266\341`[\201"
 651      31A9ACFE 
 651      B56DE7D1 
 651      7BB6E160 
 651      5B81
 652 0da6 EEB5CDAE 		.ascii	"\356\265\315\256{\025\371\371N\334C\253s\261-e\255G"
 652      7B15F9F9 
 652      4EDC43AB 
 652      73B12D65 
 652      AD47
 653 0db8 F3E5ADB9 		.ascii	"\363\345\255\271\326>\026\302\254\317\233+\355M\250"
 653      D63E16C2 
 653      ACCF9B2B 
 653      ED4DA8
 654 0dc7 81F60B77 		.ascii	"\201\366\013w\323e\230\367\234dV\275.9\241Y\365b\247"
 654      D36598F7 
 654      9C6456BD 
 654      2E39A159 
 654      F562A7
 655 0dda 6E56BD91 		.ascii	"nV\275\221\316\252\311y\353Y\365\216\344\330Yuu\262"
 655      CEAAC979 
 655      EB59F58E 
 655      E4D85975 
 655      75B2
 656 0dec E1ACBA2E 		.ascii	"\341\254\272.\331\376\254:J\034X<v\374\245\316\370\263"
 656      D9FEAC3A 
 656      4A1C583C 
 656      76FCA5CE 
 656      F8B3
 657 0dfe EA2A67DC 		.ascii	"\352*g\334\316\2461'\215\006\210\306\012v\232\336\344"
 657      CEA63127 
ARM GAS  /tmp/ccGrz3Xa.s 			page 53


 657      8D0688C6 
 657      0A769ADE 
 657      E4
 658 0e0f AAD23E90 		.ascii	"\252\322>\220]\345P\020\037\211h$\274\243\231O1\012"
 658      5DE55010 
 658      1F896824 
 658      BCA3994F 
 658      310A
 659 0e21 F3347545 		.ascii	"\3634uE~-0bY\215T\\\257\037\267\313\217\341\223\333"
 659      7E2D3062 
 659      598D545C 
 659      AF1FB7CB 
 659      8FE193DB 
 660 0e35 EB992C6A 		.ascii	"\353\231,j\343\261J9p\247{\213\233\321>\326'6\332\002"
 660      E3B14A39 
 660      70A77B8B 
 660      9BD13ED6 
 660      2736DA02 
 661 0e49 5EED313B 		.ascii	"^\3551;\313\204\341\035e\370P\347\026T\367)\235m&x\373"
 661      CB84E11D 
 661      65F850E7 
 661      1654F729 
 661      9D6D2678 
 662 0e5e E55BDB2C 		.ascii	"\345[\333,\244hX8.\213$\301\271\342N\247\356\261\236"
 662      A4685838 
 662      2E8B24C1 
 662      B9E24EA7 
 662      EEB19E
 663 0e71 794E86E7 		.ascii	"yN\206\347\024#\335\265\356_\226\242C\330\341\304\015"
 663      1423DDB5 
 663      EE5F96A2 
 663      43D8E1C4 
 663      0D
 664 0e82 0D3A91E8 		.ascii	"\015:\221\350\346\177\344Zft\354v\232\317\377t\277\011"
 664      E67FE45A 
 664      6674EC76 
 664      9ACFFF74 
 664      BF09
 665 0e94 DCB8DB18 		.ascii	"\334\270\333\030d\026g\227uYk\335k;\212I\267P\374\177"
 665      64166797 
 665      75596BDD 
 665      6B3B8A49 
 665      B750FC7F 
 666 0ea8 B44F983E 		.ascii	"\264O\230>\261 \333@{\023\231\357\356A\327\372\326m"
 666      B120DB40 
 666      7B1399EF 
 666      EE41D7FA 
 666      D66D
 667 0eba C6F79C4C 		.ascii	"\306\367\234L1\0107\373\364=\240\251\011{\300>6\237"
 667      310837FB 
 667      F43DA0A9 
 667      097BC03E 
 667      369F
 668 0ecc DA54696F 		.ascii	"\332Tioo\177\270}\026\032\355~4\332\212\333n\211\321"
 668      6F7FB87D 
 668      161AED7E 
 668      34DA8ADB 
ARM GAS  /tmp/ccGrz3Xa.s 			page 54


 668      6E89D1
 669 0edf 2E41987D 		.ascii	".A\230}\011\367\273kMJ?\336\201\272\375\010\007\034"
 669      09F7BB6B 
 669      4D4A3FDE 
 669      81BAFD08 
 669      071C
 670 0ef1 3B782946 		.ascii	";x)F2RX\330\247\212\255j\320\305~\212\241B\255A\250"
 670      325258D8 
 670      A78AAD6A 
 670      D0C57E8A 
 670      A142AD41 
 671 0f06 20695E30 		.ascii	" i^0\201\017\263\331\036\352\353L\206z\245\023\011\334"
 671      810FB3D9 
 671      1EEAEB4C 
 671      867AA513 
 671      09DC
 672 0f18 4ABDC56A 		.ascii	"J\275\305j/k\021*\223\233j\315\270\276D\335\336F\026"
 672      2F6B112A 
 672      939B6ACD 
 672      B8BE44DD 
 672      DE4616
 673 0f2b FB8F7387 		.ascii	"\373\217s\207n\233\032l+\013\230\321\354X%p*\352\015"
 673      6E9B1A6C 
 673      2B0B98D1 
 673      EC582570 
 673      2AEA0D
 674 0f3e 28EA8D28 		.ascii	"(\352\215(\352\315\230o\307\374c\314\3531?\254V\001"
 674      EACD986F 
 674      C7FC63CC 
 674      EB313FAC 
 674      5601
 675 0f50 CC2062EC 		.ascii	"\314 b\354\221\016\004*\354\350\210\301\331C7\323\326"
 675      910E042A 
 675      ECE888C1 
 675      D94337D3 
 675      D6
 676 0f61 FBEAF0B8 		.ascii	"\373\352\360\270\032\011\250J\330\375\336\240\242$C"
 676      1A09A84A 
 676      D8FDDEA0 
 676      A22443
 677 0f70 82C87FE0 		.ascii	"\202\310\177\340\024\254\301\342,\226\316:ak8ZO\207"
 677      14ACC1E2 
 677      2C96CE3A 
 677      616B385A 
 677      4F87
 678 0f82 A366ECD9 		.ascii	"\243f\354\331\007oM\317nf\221G\034;\235\177\202\306"
 678      076F4DCF 
 678      6E669147 
 678      1C3B9D7F 
 678      82C6
 679 0f94 7CCC1B16 		.ascii	"|\314\033\026\303\345M\370\320a\013r"
 679      C3E54DF8 
 679      D0610B72 
 680 0fa0 F1450C17 		.ascii	"\361E\014\027v\267+\302tA\257\005\243\240)\316\272\360"
 680      76B72BC2 
 680      7441AF05 
 680      A3A029CE 
ARM GAS  /tmp/ccGrz3Xa.s 			page 55


 680      BAF0
 681 0fb2 AE13DA20 		.ascii	"\256\023\332 \343<\213H\342,\0157U\316g\332l&\271\025"
 681      E33C8B48 
 681      E22C0D37 
 681      55CE67DA 
 681      6C26B915 
 682 0fc6 B05723D2 		.ascii	"\260W#\322i9\376\335\205|\032\021\237\306!\347\275N"
 682      6939FEDD 
 682      857C1A11 
 682      9FC621E7 
 682      BD4E
 683 0fd8 96D1BC16 		.ascii	"\226\321\274\026\207H\344\254~\310\231\336\214C\316"
 683      8748E4AC 
 683      7EC899DE 
 683      8C43CE
 684 0fe7 59A6A592 		.ascii	"Y\246\245\222\231\315\312-\3637\320\312\247\240|\317"
 684      99CDCA2D 
 684      F337D0CA 
 684      A7A07CCF 
 685 0ff7 26BCC431 		.ascii	"&\274\3041\213v\031\0126"
 685      8B76190A 
 685      36
 686 1000 D536588A 		.ascii	"\3256X\212\006lv\024L\340\336G\341X\200\305Y\336\230"
 686      066C7614 
 686      4CE0DE47 
 686      E15880C5 
 686      59DE98
 687 1013 A306DB60 		.ascii	"\243\006\333`\033LK\331<5\233o\262\260\031gi\243RM\331"
 687      1B4C4BD9 
 687      3C359B6F 
 687      B2B01967 
 687      69A3524D 
 688 1028 5616CAE2 		.ascii	"V\026\312\342,l\254Q\203\355`\0013\273W\001`\353\324"
 688      2C6CAC51 
 688      83ED6001 
 688      33BB5701 
 688      60EBD4
 689 103b 601FD906 		.ascii	"`\037\331\006\323R\266A\015\266\217\005,\305\234\262"
 689      D352B641 
 689      0DB68F05 
 689      2CC59CB2 
 690 104b 4D6AB003 		.ascii	"Mj\260\003\266\301\264\224mQ\203\035b\0013\333q\003"
 690      B6C1B494 
 690      6D51831D 
 690      620133DB 
 690      7103
 691 105d 60DBD460 		.ascii	"`\333\324`\215\266\301\264\224mW\203\035c\0013[\352"
 691      8DB6C1B4 
 691      946D5783 
 691      1D630133 
 691      5BEA
 692 106f 1E3F36BC 		.ascii	"\036?6\274\363\317\245b4&\246\250\212[\321-s\253\253"
 692      F3CFA562 
 692      3426A6A8 
 692      8A5BD12D 
 692      73ABAB
 693 1082 AD10E2AC 		.ascii	"\255\020\342\254\206Opu\225KJ\234\244\377*p'\364t\033"
ARM GAS  /tmp/ccGrz3Xa.s 			page 56


 693      864F7075 
 693      954B4A9C 
 693      A4FF2A70 
 693      27F4741B 
 694 1096 AE479BED 		.ascii	"\256G\233\355\023\"\353\246j)\264\262H\341)s\260Cj\260"
 694      1322EBA6 
 694      6A29B4B2 
 694      48E12973 
 694      B0436AB0 
 695 10aa D32C60CF 		.ascii	"\323,`\317\233+\273A\015\366\265m0-e\215j\260\363,`"
 695      9B2BBB41 
 695      0DF6B56D 
 695      302D658D 
 695      6AB0F32C 
 696 10bf 83CD293B 		.ascii	"\203\315);\242\006\273d\033LM\331\330\360\261\250\345"
 696      A206BB64 
 696      1B4C4DD9 
 696      D8F0B1A8 
 696      E5
 697 10d0 90F98FC6 		.ascii	"\220\371\217\306tts M5\225\351\304L\225\246\273\354"
 697      74747320 
 697      4D3595E9 
 697      C44C95A6 
 697      BBEC
 698 10e2 46E2335C 		.ascii	"F\3423\\\306\221\270z\021&Z\213\254\216\351\331\326"
 698      C691B87A 
 698      11265A8B 
 698      AC8EE9D9 
 698      D6
 699 10f3 1021175F 		.ascii	"\020!\027_6\220\241\321G=\322\212\374\327\030\016\177"
 699      3690A1D1 
 699      473DD28A 
 699      FCD7180E 
 699      7F
 700 1104 8381E939 		.ascii	"\203\201\3519\314\277\305\374<\346\0271\277\204\371"
 700      CCBFC5FC 
 700      3CE61731 
 700      BF84F9
 701 1113 65CCFF89 		.ascii	"e\314\377\211y\033\346\3270\377\001\363v\314\307\272"
 701      791BE6D7 
 701      30FF01F3 
 701      76CCC7BA 
 702 1123 705914F3 		.ascii	"pY\024\363\211\230\277\211\371d\314\337\306|\012\346"
 702      8998BF89 
 702      F964CCDF 
 702      C67C0AE6 
 703 1133 535D0C41 		.ascii	"S]\014A\360\227\352 \370F'\206\010\207}i\273J%\204\005"
 703      F097EA20 
 703      F8462786 
 703      08877D69 
 703      BB4A2584 
 704 1148 28847791 		.ascii	"(\204w\221\205\325\230\037\305\374\030\346\237c\376"
 704      85D5981F 
 704      C5FC18E6 
 704      9F63FE
 705 1157 05E6A758 		.ascii	"\005\346\247Xb\367y&\213\243\2123z\343\013\236>u&\003"
 705      62F77926 
ARM GAS  /tmp/ccGrz3Xa.s 			page 57


 705      8BA38A33 
 705      7AE30B9E 
 705      3E752603 
 706 116b 84EF5010 		.ascii	"\204\357P\020\252\005\031b\266m\243*71\252\007,\210"
 706      AA051962 
 706      B66DA32A 
 706      3731AA07 
 706      2C88
 707 117d 2D731913 		.ascii	"-s\031\023\313\276:3\327\225\340K\244\346\2704K&\014"
 707      CBBE3A33 
 707      D795E04B 
 707      A4E6B834 
 707      4B260C
 708 1190 AB7FAF2A 		.ascii	"\253\177\257*\020\344Q\0079\370\234y\365\344\037H\360"
 708      10E45107 
 708      39F89C79 
 708      F5E41F48 
 708      F0
 709 11a1 69F56484 		.ascii	"i\365d\204\310\317w\031\256\377ij\341:\274K\377\312"
 709      C8CF7719 
 709      AEFF696A 
 709      E13ABC4B 
 709      FFCA
 710 11b3 91431889 		.ascii	"\221C\030\211\222\363\326\213\037;\016i#\363M\235y\031"
 710      92F3D68B 
 710      1F3B0E69 
 710      23F34D9D 
 710      7919
 711 11c5 33814814 		.ascii	"3\201H\024\360\032\247%\327\276\252\274@j\273\036L\363"
 711      F01AA725 
 711      D7BEAABC 
 711      406ABB1E 
 711      4CF3
 712 11d7 AE288B48 		.ascii	"\256(\213H\024\300ND\301D\276\001\343=;`\2755`\377P"
 712      14C04E44 
 712      C144BE01 
 712      E33D3B60 
 712      BD3560FF 
 713 11ec 531666A1 		.ascii	"S\026f\241,\356\023\025\221\227N\270\360\245\023\350"
 713      2CEE1315 
 713      91974EB8 
 713      F0A513E8 
 714 11fc 261661BE 		.ascii	"&\026a\276\004\363\245j\227!p\037w\326\317\302\250~"
 714      04F3A56A 
 714      9721701F 
 714      77D6CFC2 
 714      A87E
 715 120e 54785145 		.ascii	"TxQEr\326\210fVZa\322AD~\235\211/\302y\255I+\326\033"
 715      72D68866 
 715      565A61D2 
 715      41447E9D 
 715      892FC279 
 716 1227 244D9B4F 		.ascii	"$M\233O\376'\235R\255r\221)U\235\216[\246\373\317k\364"
 716      FE279D52 
 716      AD729129 
 716      559D8E5B 
 716      A6FBCF6B 
ARM GAS  /tmp/ccGrz3Xa.s 			page 58


 717 123c 86FCCF46 		.ascii	"\206\374\317F4\3445\326\206\014#\357\265\306\031\252"
 717      34E435D6 
 717      860C23EF 
 717      B5C619AA 
 718 124c 2915843F 		.ascii	")\025\204?H\302\232\304\014\031\360\2567\252\243\037"
 718      48C29AC4 
 718      0C19F0AE 
 718      37AAA31F 
 719 125c DB60291A 		.ascii	"\333`)\032\260\033j\260/Y\300\342L\251J\233T`gm\203"
 719      B01B6AB0 
 719      2F59C0E2 
 719      4CA94A9B 
 719      5460676D 
 720 1271 69299BA6 		.ascii	"i)\233\246\006\373\226\005,\316\224jF\223j~\3666\366"
 720      06FB9605 
 720      2CCE946A 
 720      46936A7E 
 720      F636F6
 721 1284 573B605A 		.ascii	"W;`Z\312f\251)\273\304B\031\373p\03255\221_\213\035"
 721      CA66A929 
 721      BBC44219 
 721      FB701A35 
 721      35915F8B 
 722 1299 781D76B1 		.ascii	"x\035v\261\015\230o\302|\013\346\3330\337\216\371\016"
 722      0D986FC2 
 722      7C0BE6DB 
 722      30DF8EF9 
 722      0E
 723 12aa 960EB852 		.ascii	"\226\016\270R;L\260o\230\276\320\336\366 }\304{\227"
 723      3B4CB06F 
 723      98BED0DE 
 723      F6207DC4 
 723      7B97
 724 12bc 8BB0BCB4 		.ascii	"\213\260\274\264\313-X}\272\217\253\224\302\027Z\352"
 724      CB2D587D 
 724      BA8FAB94 
 724      C2175AEA 
 725 12cc DF3BFBF0 		.ascii	"\337;\373\360lr\323J\272\321\376:O\007A\230\364\352"
 725      6C72D34A 
 725      BAD1FE3A 
 725      4F074198 
 725      F4EA
 726 12de AEF00BEE 		.ascii	"\256\360\013\356=I\232\206\373P\344m\\\037b\215\335"
 726      3D499A86 
 726      FB50E46D 
 726      5C1F628D 
 726      DD
 727 12ef AEFB0C09 		.ascii	"\256\373\014\011W^\011\362\257\334\"\322\273\245\245"
 727      575E09F2 
 727      AFDC22D2 
 727      BBA5A5
 728 12fe 9203875E 		.ascii	"\222\003\207^Nn\243\241\365#\227\346]\334H\330\371\360"
 728      4E6EA3A1 
 728      F52397E6 
 728      5DDC48D8 
 728      F9F0
 729 1310 F1EFC986 		.ascii	"\361\357\311\206\000\351:y\025\037\275\233!p\237\030"
ARM GAS  /tmp/ccGrz3Xa.s 			page 59


 729      00E93A79 
 729      151FBD9B 
 729      21709F18 
 730 1320 93D59EF5 		.ascii	"\223\325\236\365<\015V\004n?\326\330kJ\226\034\322\310"
 730      3C0D5604 
 730      6E3FD6D8 
 730      6B4A961C 
 730      D2C8
 731 1332 747D200D 		.ascii	"t} \015\276+B\327^=]\325\206t]\315\252\226\316\203\004"
 731      BE2B42D7 
 731      5E3D5DD5 
 731      86745DCD 
 731      AA96CE83 
 732 1347 159AEA8C 		.ascii	"\025\232\352\214i\232\352\177^\271\275S\343\"\346\276"
 732      699AEA7F 
 732      5EB9BD53 
 732      E322E6BE 
 733 1357 3F119AF6 		.ascii	"?\021\232\366\353i\372\233!M\307\374Z\232\2162\322T"
 733      EB69FA9B 
 733      214DC7FC 
 733      5A9A8E32 
 733      D254
 734 1369 9B084DB5 		.ascii	"\233\010M\265z\232\352\014i\372\207\216\246\223\214"
 734      7A9AEA0C 
 734      69FA878E 
 734      A6938C
 735 1378 34352442 		.ascii	"45$BS\203\236\246\303\2614U\235\014\257=P\023\261)]"
 735      53839EA6 
 735      C3B13455 
 735      9D0CAF3D 
 735      5013B129 
 736 138d 5CE88CF3 		.ascii	"\\\350\214\363rQ\227\262/A\211\005E\376\217\202n\330"
 736      725197B2 
 736      2F418905 
 736      45FE8F82 
 736      6ED8
 737 139f 91A95AB7 		.ascii	"\221\251Z\267\224\364\020\234j\213\374\021\023V\242"
 737      94F4109C 
 737      6A8BFC11 
 737      1356A2
 738 13ae 183A125B 		.ascii	"\030:\022[J[\326/\251\031\000\375q<\355\217\354\301"
 738      4A5BD62F 
 738      A91900FD 
 738      713CED8F 
 738      ECC1
 739 13c0 EB67FAE0 		.ascii	"\353g\372\340\265\025C#U\364*p\023\273\362\\\354`)\362"
 739      B5154323 
 739      55F42A70 
 739      13BBF25C 
 739      EC6029F2 
 740 13d4 27628505 		.ascii	"'b\205\005\224\034^^ST.\355\036/\265\267\277nCZ-.\363"
 740      941C5E5E 
 740      53542EED 
 740      1E2FB5B7 
 740      BF6E435A 
 741 13eb FDB0ACCF 		.ascii	"\375\260\254\317\233\035]q\354\036\0324|\201A\303\341"
 741      9B1D5D71 
ARM GAS  /tmp/ccGrz3Xa.s 			page 60


 741      EC1E1A34 
 741      7C8141C3 
 741      E1
 742 13fc AE864143 		.ascii	"\256\206AC\374'\333\277\324\007\015\273\366`\320\360"
 742      FC27DBBF 
 742      D4070DBB 
 742      F660D0F0 
 743 140c 2553F45B 		.ascii	"%S\364[\277g%\363\273\325u\217\254\236\355j\374ruM5"
 743      BF6725F3 
 743      BBD5758F 
 743      AC9EED6A 
 743      FC72754D 
 744 1421 98B1A2B9 		.ascii	"\230\261\242\271\177\243\247\262\242\004\251\374\206"
 744      7FA3A7B2 
 744      A204A9FC 
 744      86
 745 142e 89CAF97B 		.ascii	"\211\312\371{\344\015\337\344\305\3270<\360\012dB!:"
 745      E40DDFE4 
 745      C5D7303C 
 745      F00A6442 
 745      213A
 746 1440 DD6748DF 		.ascii	"\335gH\337\027\015\376\3206X\212\021\330>\004kd\001"
 746      170DFED0 
 746      36588A11 
 746      D83E046B 
 746      6401
 747 1452 33BF59A3 		.ascii	"3\277Y\243\200\035A\260f\333`):\361E\203\351oq\374\376"
 747      801D41B0 
 747      66DB6029 
 747      3AF14583 
 747      E96F71FC 
 748 1467 0EF3F398 		.ascii	"\016\363\363\230_`\031\313\277r\251\366n\027\343\306"
 748      5F6019CB 
 748      BF72A9F6 
 748      6E17E3C6 
 749 1477 912FED8B 		.ascii	"\221/\355\213\335\350\2436\\\221?\215!\310\031\026\222"
 749      DDE8A336 
 749      5C913F8D 
 749      21C81916 
 749      92
 750 1488 5AA32445 		.ascii	"Z\243$E\234@\223\366\215\002\002W\334\315\330\005\\"
 750      9C4093F6 
 750      8D020257 
 750      DCCDD805 
 750      5C
 751 1499 3274016D 		.ascii	"2t\001m;O\276\220\2103\272\254wF\304uG\276\264\320\225"
 751      3B4FBE90 
 751      8833BAAC 
 751      7746C475 
 751      47BEB4D0 
 752 14ae C8C8F72D 		.ascii	"\310\310\367-\364\273\316YM6\241\264\315\220\322\365"
 752      F4BBCE59 
 752      4D36A1B4 
 752      CD90D2F5 
 753 14be 4B8E3D51 		.ascii	"K\216=QaF)y\202\316\214\324k\006\223~\3237\253.\025"
 753      61462979 
 753      82CE8CD4 
ARM GAS  /tmp/ccGrz3Xa.s 			page 61


 753      6B06937E 
 753      D337AB2E 
 754 14d3 D4DF75B3 		.ascii	"\324\337u\263(\0229\231\373\264\360T\372\272O\311M\302"
 754      28123999 
 754      FBB4F054 
 754      FABA4FC9 
 754      4DC2
 755 14e5 9479DDF4 		.ascii	"\224y\335\364\021\334\034\227\356\335\017\272E\005\035"
 755      11DC1C97 
 755      EEDD0FBA 
 755      45051D
 756 14f4 89B1F25A 		.ascii	"\211\261\362Zh\"\257\361n#yMX\275\2337s\356q\024[\342"
 756      6822AFF1 
 756      6E23794D 
 756      58BD9B37 
 756      73EE7114 
 757 150a D6498B6C 		.ascii	"\326I\213l\365\213|\221g\230:\3026\231\020\366\246!"
 757      F58B7C91 
 757      67983AC2 
 757      369910F6 
 757      A621
 758 151c 615776D6 		.ascii	"aWv\326\015L\200\260\311z\302\214,NG\330N\023\302\336"
 758      0D4C80B0 
 758      C97AC28C 
 758      2C4E47D8 
 758      4E13C2DE 
 759 1530 31222CBC 		.ascii	"1\",\274\246\376-\211/\035\333\322\336~\237\022\322"
 759      A6FE2D89 
 759      2F1DDBD2 
 759      DE7E9F12 
 759      D2
 760 1541 349B0094 		.ascii	"4\233\000\224\032\002L\213\002\260\3635-._\362\315u"
 760      1A024C8B 
 760      02B0F335 
 760      2D2E5FF2 
 760      CD75
 761 1553 1D5F6D26 		.ascii	"\035_m&d\3154\024\370\371\366\257\376\222\200\300\313"
 761      64CD3414 
 761      F8F9F6AF 
 761      FE9280C0 
 761      CB
 762 1564 DCF11E7B 		.ascii	"\334\361\036{Ye\342\013\225\273\320\223\361\325P\345"
 762      5965E20B 
 762      95BBD093 
 762      F1D550E5 
 763 1574 D8178A6F 		.ascii	"\330\027\212o\327\367\205\225\372\276\240\2339i_\203"
 763      D7F78595 
 763      FABEA09B 
 763      39695F83 
 764 1584 CE70EFFE 		.ascii	"\316p\357\376\360$\274w_\341\306'\371c\256\227\300\354"
 764      F024BC77 
 764      5FE1C627 
 764      F963AE97 
 764      C0EC
 765 1596 49AD925D 		.ascii	"I\255\222].#\353\232s\273\261\026\026\030j\241\356\203"
 765      2E23EB9A 
 765      73BBB116 
ARM GAS  /tmp/ccGrz3Xa.s 			page 62


 765      16186AA1 
 765      EE83
 766 15a8 9A418978 		.ascii	"\232A\211x\332\367\334\372\330T\340jL\256\274\320\360"
 766      DAF7DCFA 
 766      D854E06A 
 766      4CAEBCD0 
 766      F0
 767 15b9 CA4776D6 		.ascii	"\312Gv\326\3746\242\177\012(p\347L \026k!~\306- \020"
 767      FC36A27F 
 767      0A2870E7 
 767      4C20166B 
 767      217EC62D 
 768 15cf 33AFB6BD 		.ascii	"3\257\266\275\274\252\230\020/]i\347\333\035\312\377"
 768      BCAA9810 
 768      2F5D69E7 
 768      DB1DCAFF 
 769 15df C9B91C41 		.ascii	"\311\271\034AQVv4\377\004\007=j\024P\006+k\255{}\271"
 769      51567634 
 769      FF04073D 
 769      6A145006 
 769      2B6BAD7B 
 770 15f5 064CDE59 		.ascii	"\006L\336Y\033\003\026\263L\264\\\017\026n\370\\\"}"
 770      1B0316B3 
 770      4CB45C0F 
 770      166EF85C 
 770      227D
 771 1607 4E22CC29 		.ascii	"N\"\314)@\355\326@+\265@\341Z\230&\267><\273X\222\326"
 771      40EDD640 
 771      2BB540E1 
 771      5A9826B7 
 771      3E3CBB58 
 772 161d 825A80AA 		.ascii	"\202Z\200\252'\351\312\266\300M\270C\007f\260\006\276"
 772      27E9CAB6 
 772      C04DB843 
 772      0766B006 
 772      BE
 773 162e 5A8F162E 		.ascii	"Z\217\026._\346\205i\210<=Z\207TM\321\003\305\356\346"
 773      5FE68569 
 773      883C3D5A 
 773      87544DD1 
 773      03C5EEE6 
 774 1642 5C23E33C 		.ascii	"\\#\343<\302\255\227\336\010\277J[\322M:\262q\226\016"
 774      C2AD97DE 
 774      08BF4A5B 
 774      D24D3AB2 
 774      71960E
 775 1655 E2E8761D 		.ascii	"\342\350v\035\371\373\367d\352L6\356\3747wUzC\012\317"
 775      F9FBF764 
 775      EA4C36EE 
 775      FC377755 
 775      7A430ACF 
 776 1669 F72AFBFB 		.ascii	"\367*\373\373\344\311.\335\320C\001\237\242\233\261"
 776      E4C92EDD 
 776      D043019F 
 776      A29BB1
 777 1678 22110A3D 		.ascii	"\"\021\012=\233B\267\337\321M]2,\241\2646\212\272\376"
 777      9B42B7DF 
ARM GAS  /tmp/ccGrz3Xa.s 			page 63


 777      D14D5D32 
 777      2CA1B436 
 777      8ABAFE
 778 168b 02AFC02A 		.ascii	"\002\257\300*\363U\031\204\217\003\302\311 /\313\215"
 778      F3551984 
 778      8F03C2C9 
 778      202FCB8D 
 779 169b A3AD8484 		.ascii	"\243\255\204\204Z9\354\265\342\350.&U\205\303\352\257"
 779      5A39ECB5 
 779      E2E82E26 
 779      5585C3EA 
 779      AF
 780 16ac 11559595 		.ascii	"\021U\225\225\314\344\245*\320\374\215\366v^Q\326,k"
 780      CCE4A52A 
 780      D0FC8DF6 
 780      765E51D6 
 780      2C6B
 781 16be 656DBB69 		.ascii	"em\273ieU\224D\304Z{\013\265\265\266\344'\012l\303\377"
 781      65559444 
 781      C45A7B0B 
 781      B5B5B6E4 
 781      270A6CC3 
 782 16d3 2F6D81F3 		.ascii	"/m\201\363\230\333Z\373\327\225*\347a4\015\213\370 "
 782      98DB5AFB 
 782      D7952AE7 
 782      61340D8B 
 782      F820
 783 16e5 F21C46E4 		.ascii	"\362\034F\344\345\\\337/\220_I\360\261\233h\270\362"
 783      E55CDF2F 
 783      905F49F0 
 783      B19B68B8 
 783      F2
 784 16f6 0EAD03B4 		.ascii	"\016\255\003\264\004\022\270\345\330d\257;\346\005'"
 784      0412B8E5 
 784      D864AF3B 
 784      E60527
 785 1705 2DAFD17D 		.ascii	"-\257\321}\374\344'\253)\235\024\236\332l\372rp\343"
 785      FCE427AB 
 785      299D149E 
 785      DA6CFA72 
 785      70E3
 786 1717 2710EA9B 		.ascii	"'\020\352\233N*\377F\007I\337`M\272\026H\340>\304&\007"
 786      4E2AFF46 
 786      0749DF60 
 786      4DBA1648 
 786      E03EC426 
 787 172c 6249AFFD 		.ascii	"bI\257\375\013%\375\000\023\351\233\233\324\3576Q\336"
 787      0B25FD00 
 787      13E99B9B 
 787      D4EF3651 
 787      DE
 788 173d B244DACA 		.ascii	"\262D\332\312\3275\272\335\313\251MP\215W\034\336B\327"
 788      D735BADD 
 788      CBA94D50 
 788      8D571CDE 
 788      42D7
 789 174f 7949D40D 		.ascii	"yI\324\015\261\270\036\314\326\014RR\336\370K\337\340"
ARM GAS  /tmp/ccGrz3Xa.s 			page 64


 789      B1B81ECC 
 789      D60C5252 
 789      DEF84BDF 
 789      E0
 790 1760 5C671B2C 		.ascii	"\\g\033,ECY}\231\366-4\365,xqv\301\311\257\326\245`"
 790      4543597D 
 790      99F62D34 
 790      F52C7871 
 790      76C1C9AF 
 791 1777 876D8369 		.ascii	"\207m\203i\211;\026\005\023\270\203\021\325\306\001"
 791      893B1605 
 791      13B88311 
 791      D5C601
 792 1786 635F1E8F 		.ascii	"c_\036\217\332\010\364Q7\231\233\326\271\311\244\371"
 792      DA08F451 
 792      37999BD6 
 792      B9C9A4F9 
 793 1796 10E6F598 		.ascii	"\020\346\365\2307`~\030\363F\267\346^WS\244\217\030"
 793      37607E18 
 793      F346B7E6 
 793      5E5753A4 
 793      8F18
 794 17a8 5AA29549 		.ascii	"Z\242\225IH\341r\363\336atO\265m\372\351\261\374\004"
 794      48E172F3 
 794      DE61744F 
 794      B56DFAE9 
 794      B1FC04
 795 17bb EC1CC7B0 		.ascii	"\354\034\307\260s\034\267\356\034\032\034\201\273\204"
 795      731CB7EE 
 795      1C1A1C81 
 795      BB84
 796 17c9 2D8EC7F6 		.ascii	"-\216\307\366\2153\377"
 796      8D33FF
 797 17d0 41FBC671 		.ascii	"A\373\306q\206\276Q\034>>+\361\177\340\000}\374\357"
 797      86BE511C 
 797      3E3E2BF1 
 797      7FE0007D 
 797      FCEF
 798 17e2 CA7F0068 		.ascii	"\312\177\000hE6&u\267dC\377_\034\346`\223S\006|\274"
 798      45362675 
 798      B76443FF 
 798      5F1CE660 
 798      9353067C 
 799 17f7 4CF938C5 		.ascii	"L\3718\305\304G\305,\305\362O\272\243\357_:\025\337"
 799      C447C52C 
 799      C5F24FBA 
 799      A3EF5F3A 
 799      15DF
 800 1809 BE4C155A 		.ascii	"\276L\025Z\034\256\244\367\277(\330\"\333`Z\313_\333"
 800      1CAEA4F7 
 800      BF28D822 
 800      DB605ACB 
 800      5FDB
 801 181b 38EF2EA9 		.ascii	"8\357.\251\352C^\371\177G+\"<\313\325Y\357\345\312x"
 801      EA435EF9 
 801      7F472B22 
 801      3CCBD559 
ARM GAS  /tmp/ccGrz3Xa.s 			page 65


 801      EFE5CA78 
 802 182f EB1AF5EF 		.ascii	"\353\032\365\357|\264\232\346\203\305\235\030+\277\236"
 802      7CB49AE6 
 802      83C59D18 
 802      2BBF9E
 803 183e F01C4E6F 		.ascii	"\360\034No\326\352Te=\325\027\270mz\272\355\271'\362"
 803      D6EA5465 
 803      3DD517B8 
 803      6D7ABAED 
 803      B927F2
 804 1851 0EC75794 		.ascii	"\016\307W\224\367B\343\335\232],\200\354/\2629\245\362"
 804      F742E3DD 
 804      9A5D2C80 
 804      EC2FB239 
 804      A5F2
 805 1863 02A7D10B 		.ascii	"\002\247\321\013\234\301\336\376\025\346g1\377\006\363"
 805      9CC1DEFE 
 805      15E66731 
 805      FF06F3
 806 1872 0B6E8695 		.ascii	"\013n\206\225+\242\374\01065\250\343\011\033\324\371"
 806      2BA2FC08 
 806      3635A8E3 
 806      091BD4F9 
 807 1882 5883B203 		.ascii	"X\203\262\003\2465\250\313\032\203\022\371\257\335:"
 807      A635A8CB 
 807      1A8312F9 
 807      AFDD3A
 808 1891 3C9B0635 		.ascii	"<\233\0065\243\014w\032P\353\374\250;o\023\254K<\245"
 808      A30C771A 
 808      50EBFCA8 
 808      3B6F13AC 
 808      4B3CA5
 809 18a4 1C5729E5 		.ascii	"\034W)\345sTJ\013\252\340\022\346\337c~Y\353\216\367"
 809      73544A0B 
 809      AAE012E6 
 809      DF637E59 
 809      EB8EF7
 810 18b7 77D7B963 		.ascii	"w\327\271c\215\3573\032\034\324\342\221\350\336V\366"
 810      8DEF331A 
 810      1CD4E291 
 810      E8DE56F6 
 811 18c7 97C89D53 		.ascii	"\227\310\235S^\"\327\206N\254\336\330\211\305{\211\\"
 811      5E22D786 
 811      4EACDED8 
 811      89C57B89 
 811      5C
 812 18d8 2B36B96E 		.ascii	"+6\271n\020ceR'v\335\332\211\215\037\027.\237\2638\352"
 812      10636552 
 812      2776DDDA 
 812      898D1F17 
 812      2E9FB338 
 813 18ed 8CC745BA 		.ascii	"\214\307E\272\366\021\301\374\266\206\346\215\337\027"
 813      F611C1FC 
 813      B686E68D 
 813      DF17
 814 18fb 2364D8B4 		.ascii	"#d\330\264Qc\315]Wi\356\006j\256]\253\247\353z=\031"
 814      5163CD5D 
ARM GAS  /tmp/ccGrz3Xa.s 			page 66


 814      5769EE06 
 814      6AAE5DAB 
 814      A7EB7A3D 
 815 1910 5D2FCE4B 		.ascii	"]/\316K\347\2666+\201\031\375\3277R\017\035^\225\346"
 815      E7B6362B 
 815      8119FDD7 
 815      37520F1D 
 815      5E95E6
 816 1923 1FDD1801 		.ascii	"\037\335\030\001\246\304c`\257\212\201}\310@\015\232"
 816      A6C46360 
 816      AF8A817D 
 816      C8400D9A 
 817 1933 DB51CCAF 		.ascii	"\333Q\314\257`>\316\243air\017\335\024J\033N\023\324"
 817      603ECEA3 
 817      6169720F 
 817      DD144A1B 
 817      4E13D4
 818 1946 091ECDBC 		.ascii	"\011\036\315\274\271\212\314\302/\246\316\034'U\003"
 818      B98ACCC2 
 818      2FA6CE1C 
 818      275503
 819 1955 4B301BBB 		.ascii	"K0\033\273O~\024\364\035=T\214\362&\002\322O\270\031"
 819      4F7E14F4 
 819      1D3D548C 
 819      F22602D2 
 819      4FB819
 820 1968 3D2AA468 		.ascii	"=*\244hw\242K\202\0248\\z 9\262J\200\230\363-1'\311"
 820      77A24B82 
 820      14385C7A 
 820      2039B24A 
 820      8098F32D 
 821 197f D4C5604D 		.ascii	"\324\305`M\323c-\262\304z\313\014k\226\036k\205%\326"
 821      D3632DB2 
 821      C47ACB0C 
 821      6B961E6B 
 821      8525D6
 822 1992 3BC65887 		.ascii	";\306X\207\302\345\357|\300K%t\325!\211\233H\037\355"
 822      C2E5EF7C 
 822      C04B2574 
 822      D521899B 
 822      481FED
 823 19a5 95C6F223 		.ascii	"\225\306\362#\":6y\017\277\310\227z\222\310H\326C\275"
 823      223A3679 
 823      0FBFC897 
 823      7A92C848 
 823      D643BD
 824 19b8 B1536300 		.ascii	"\261Sc\000\244\202rQZVJ<Q\366f=\3251\017\021OWQ-7\223"
 824      A4827251 
 824      5A564A3C 
 824      51F6663D 
 824      D5310F11 
 825 19d2 453093DE 		.ascii	"E0\223\336\263\225\027K\350\226|K!\3144\026B8|\343S"
 825      B395174B 
 825      E8967C4B 
 825      21CC3416 
 825      42387CE3 
 826 19e7 9D407759 		.ascii	"\235@wYb\225\305`\261<\324>X\201\351 \303\224{\354\356"
ARM GAS  /tmp/ccGrz3Xa.s 			page 67


 826      6295C560 
 826      B13CD43E 
 826      5881E920 
 826      C3947BEC 
 827 19fc 849CE331 		.ascii	"\204\234\3431\336\011\0313b\351\332\315\366\230m\364"
 827      DE091933 
 827      62E9DACD 
 827      F6986DF4 
 828 1a0c FAD8C483 		.ascii	"\372\330\304\203\220VsM[\265\230D<\270\034m\332\352"
 828      9056734D 
 828      5BB59844 
 828      3CB81C6D 
 828      DAEA
 829 1a1e B338AD2A 		.ascii	"\2638\255*\242\255\350n\201\226\362\177\234}`\245\262"
 829      A2ADE86E 
 829      8196F27F 
 829      9C7D60A5 
 829      B2
 830 1a2f 0D65EC78 		.ascii	"\015e\354x\033+\240\363=\272\025\362&A\267mS\340\276"
 830      1B2BA0F3 
 830      3DBA15F2 
 830      2641B76D 
 830      53E0BE
 831 1a42 E8A11D69 		.ascii	"\350\241\035i\344\275\007Md\357\001\255\376\031\006"
 831      E4BD074D 
 831      64EF01AD 
 831      FE1906
 832 1a51 0A951EB3 		.ascii	"\012\225\036\263\275\007\262\373\227\357\362\037U\357"
 832      BD07B2FB 
 832      97EFF21F 
 832      55EF
 833 1a5f 3D208D34 		.ascii	"= \2154\235a\201G\263H\252\223\013Y`5\343e\241\307|"
 833      9D618147 
 833      B348AA93 
 833      0B596035 
 833      E365A1C7 
 834 1a74 23295D72 		.ascii	"#)]r7k\271\310T\017\323\342\264Zl\332\352r\034\355-"
 834      376BB9C8 
 834      540FD3E2 
 834      B45A6CDA 
 834      EA721CED 
 835 1a89 316D3539 		.ascii	"1m59\316\265\226\232\266*\211\323j\231i\253kq(\\n\332"
 835      CEB5969A 
 835      B62A89D3 
 835      6A9969AB 
 835      6B71285C 
 836 1a9f 8AF816B3 		.ascii	"\212\370\026\263V+\242\255R\270\371\340\373J\245\011"
 836      562BA2AD 
 836      52B8F9E0 
 836      FB4AA509 
 837 1aaf 4244CD47 		.ascii	"BD\315G\324[L\350\3570\036\325\014\034\027.\346\343"
 837      D45B4CE8 
 837      EF301ED5 
 837      0C1C172E 
 837      E6E3
 838 1ac1 550A6F9F 		.ascii	"U\012o\237.u\210\013\023n\264\254q\336\262\306U\313"
 838      2E75880B 
ARM GAS  /tmp/ccGrz3Xa.s 			page 68


 838      136EB4AC 
 838      71DEB2C6 
 838      55CB
 839 1ad3 1A336659 		.ascii	"\0323fY\325\250\264\254\261\305\274\006w_\257^\251\005"
 839      D5A8B4AC 
 839      B1C5BC06 
 839      775FAF5E 
 839      A905
 840 1ae5 C1D46C31 		.ascii	"\301\324l175'\337\227[\224\345'\345\314\240?\220#\346"
 840      373527DF 
 840      975B94E5 
 840      27E5CCA0 
 840      3F9023E6 
 841 1af9 F6CAE692 		.ascii	"\366\312\346\2223\260\324?\2203\322\037p?7\350\245\224"
 841      33B0D43F 
 841      9033D21F 
 841      703F37E8 
 841      A594
 842 1b0b 34AEB3FA 		.ascii	"4\256\263\372\334\037\007\016\351\233Z\024\014\244\346"
 842      DC1F070E 
 842      E99B5A14 
 842      0CA4E6
 843 1b1a E60C4D1D 		.ascii	"\346\014M\035\356\363\245\212\201\274\207\363\013\362"
 843      EEF3A58A 
 843      81BC87F3 
 843      0BF2
 844 1b28 FD0FFBC5 		.ascii	"\375\017\373\305\2419\251\217\364z\254W\337\010t0\224"
 844      A139A98F 
 844      F47AAC57 
 844      DF087430 
 844      94
 845 1b39 95E51F06 		.ascii	"\225\345\037\006\260\356`\316_\375\231\241{\261\245"
 845      B0EE60CE 
 845      5FFD99A1 
 845      7BB1A5
 846 1b48 F26BBE7F 		.ascii	"\362k\276\177\024\001\201J9\371!\250\344)\202\343c\231"
 846      1401814A 
 846      39F921A8 
 846      E42982E3 
 846      6399
 847 1b5a A1878D6A 		.ascii	"\241\207\215j\345\211\276\354\234|\177j&\000\212E\271"
 847      E589BEEC 
 847      9C7C7F6A 
 847      26008A45 
 847      B9
 848 1b6b A1CCD098 		.ascii	"\241\314\320\230B\177\020Zy33\345v\256Q\201\234\220"
 848      427F105A 
 848      793333E5 
 848      76AE5181 
 848      9C90
 849 1b7d DF19F08B 		.ascii	"\337\031\360\213Y})\233\276\202\274\274\202\374\324"
 849      597D299B 
 849      BE82BCBC 
 849      82FCD4
 850 1b8c C2824028 		.ascii	"\302\202@(\230\372t\372\300\264\201\243\311\271\302"
 850      98FA74FA 
 850      C0B481A3 
ARM GAS  /tmp/ccGrz3Xa.s 			page 69


 850      C9B9C2
 851 1b9b 9C5C7F20 		.ascii	"\234\\\177 \230\372\\ZZ\252/[\301q\345\005\207g\206"
 851      98FA5C5A 
 851      5AAA2F5B 
 851      C171E505 
 851      876786
 852 1bae 3C00D5AF 		.ascii	"<\000\325\257of\010P\345\222\243\260(\344\030\356\017"
 852      6F660850 
 852      E592A3B0 
 852      28E418EE 
 852      0F
 853 1bbf FD844206 		.ascii	"\375\204B\006B\021\312|\331\3011\301\010\031\244\234"
 853      4211CA7C 
 853      D9C131C1 
 853      0819A49C 
 854 1bcf 93074C26 		.ascii	"\223\007L&\021r\372<\232\031\352@)#E'\200\204\234\200"
 854      1172FA3C 
 854      9A19EA40 
 854      29234527 
 854      80849C80 
 855 1be3 12722391 		.ascii	"\022r#\221!\027\2412\344\030\231\027\352i\200\353\037"
 855      2117A132 
 855      E4189917 
 855      EA6980EB 
 855      1F
 856 1bf4 E9CF0F11 		.ascii	"\351\317\017\021\324NX\312\014\026\024\005|\000\235"
 856      D44E58CA 
 856      0C161405 
 856      7C009D
 857 1c03 ACFEDA85 		.ascii	"\254\376\332\205~\311\315\011\206\374\371\376@f\250"
 857      7EC9CD09 
 857      86FCF9FE 
 857      4066A8
 858 1c12 93F68433 		.ascii	"\223\366\2043\337?:\224\024\312&W\002\206|\331\231\264"
 858      DF3F3A94 
 858      14CA2657 
 858      02867CD9 
 858      99B4
 859 1c24 7C8F1123 		.ascii	"|\217\021#\276\354,\270\\gZ#\2309\242\310_\004\327\353"
 859      BEEC2CB8 
 859      5C675A23 
 859      9839A2C8 
 859      5F04D7EB 
 860 1c38 1269249F 		.ascii	"\022i$\237r\026\006\374#]X\364\204\012\0039\0052\273"
 860      721606FC 
 860      235D58F4 
 860      840A0339 
 860      0532BB
 861 1c4b 445032BB 		.ascii	"DP2\273\244\350$?%\023\261g\372\012\362C@\307\317\343"
 861      A4E8243F 
 861      2513B167 
 861      FA0AF243 
 861      40C7CFE3 
 862 1c5f 2824DB57 		.ascii	"($\333W\020\360\303\325;b\003\200\360\205F\377\322\252"
 862      10F0C3D5 
 862      3B620380 
 862      F08546FF 
ARM GAS  /tmp/ccGrz3Xa.s 			page 70


 862      D2AA
 863 1c71 7EE6C8DF 		.ascii	"~\346\310\337\344A\233\244\200\1778X`fH\010<\"\004\376"
 863      E4419BA4 
 863      807F3858 
 863      60664808 
 863      3C2204FE 
 864 1c85 4D083C2A 		.ascii	"M\010<*\004~#\004\036\023\002\217;\002}zC\352#\344\006"
 864      047E2304 
 864      1E13028F 
 864      3B027D7A 
 864      43EA23E4 
 865 1c9a 8460A103 		.ascii	"\204`\241\003@]`K\376\200\253 7\013\244\343\313\026"
 865      405D604B 
 865      FE80AB20 
 865      370BA4E3 
 865      CB16
 866 1cac 4144629E 		.ascii	"ADb\236\277C0\364\232\230\2333<_\346\345\321G\"\274"
 866      BF4330F4 
 866      9A989B33 
 866      3C5FE6E5 
 866      D14722BC 
 867 1cc0 90A27B94 		.ascii	"\220\242{\2248T\014\372\223B\301\220\030\002\231\270"
 867      38540CFA 
 867      9342C190 
 867      180299B8 
 868 1cd0 F0E809E5 		.ascii	"\360\350\011\345\025d\221o\303r\305\341AO(\340\037\026"
 868      1564916F 
 868      C372C5E1 
 868      414F28E0 
 868      1F16
 869 1ce2 04BEC9C1 		.ascii	"\004\276\311\301\035\310\032\003\266\224\344\037\235"
 869      1DC81A03 
 869      B694E41F 
 869      9D
 870 1cef 13F24125 		.ascii	"\023\362A%\367\250P\301\320\377*\354&k\002\252\370\003"
 870      F7A850C1 
 870      D0FF2AEC 
 870      266B02AA 
 870      F803
 871 1d01 FE7CA24E 		.ascii	"\376|\242N\327\250P(P\350\011\202\326\240A2\010;\350"
 871      D7A85028 
 871      50E80982 
 871      D6A04132 
 871      083BE8
 872 1d14 CF130BB3 		.ascii	"\317\023\013\263\201\275\273\215\224\344'\034\273|\240"
 872      81BDBB8D 
 872      94E4271C 
 872      BB7CA0
 873 1d23 E3900372 		.ascii	"\343\220\003r\000\206S\205I\320.\257\010\204l\324&/"
 873      00865385 
 873      49D02EAF 
 873      08846CD4 
 873      262F
 874 1d35 349AB429 		.ascii	"4\232\264)\030\005\006\341\301Z\204\243\020\234.\354"
 874      180506E1 
 874      C15A84A3 
 874      109C2EEC 
ARM GAS  /tmp/ccGrz3Xa.s 			page 71


 875 1d45 88E69227 		.ascii	"\210\346\222'\006_\203S\376Q\244\300\027uR\324M\254"
 875      065F8353 
 875      FE51A4C0 
 875      177552D4 
 875      4DAC
 876 1d57 2833D459 		.ascii	"(3\324Ye\000\344\214g\224\230\023\312\311\037\236\004"
 876      6500E48C 
 876      67949813 
 876      CAC91F9E 
 876      04
 877 1d68 F4A21524 		.ascii	"\364\242\025$\371\013\375\371\320\177\207{\000\222\324"
 877      F90BFDF9 
 877      D07F877B 
 877      0092D4
 878 1d77 008588B9 		.ascii	"\000\205\210\271D\375\256\274\302\202\202\334$\305\032"
 878      44FDAEBC 
 878      C28282DC 
 878      24C51A
 879 1d86 DDD4A6A9 		.ascii	"\335\324\246\251\005\243\320\010!Xp\3419o0K\226\260"
 879      05A3D008 
 879      215870E1 
 879      396F304B 
 879      96B0
 880 1d98 37A37FE6 		.ascii	"7\243\177\346K\203\006\014\0320\304\003\245\214!/\016"
 880      4B83060C 
 880      1A30C403 
 880      A58C212F 
 880      0E
 881 1da9 4E8263FA 		.ascii	"N\202c\372\263O\367\177\305\304}!)\244\277\334\226\223"
 881      B34FF77F 
 881      C5C47D21 
 881      29A4BFDC 
 881      9693
 882 1dbb 0F3D4D31 		.ascii	"\017=M1\337\016`\237r1I)zGd\312<@\311WP\004\326\031"
 882      DF0E609F 
 882      72314929 
 882      7A4764CA 
 882      3C40C957 
 883 1dd3 481A9139 		.ascii	"H\032\2219\264h\030\250\3055\"3TP\350\201*\201\302P"
 883      B46818A8 
 883      C5352233 
 883      5450E881 
 883      2A81C250 
 884 1de7 008E812C 		.ascii	"\000\216\201,8zG\344\027\204r\206\215\001\224\021\231"
 884      387A47E4 
 884      17847286 
 884      8D019411 
 884      99
 885 1df8 B4E81E01 		.ascii	"\264\350\036\001\342\310\177\315\235\203\230\235\012"
 885      E2C87FCD 
 885      9D83989D 
 885      0A
 886 1e05 8A42AACB 		.ascii	"\212B\252\313\272\013\260 \344\014\025\012\206j=\021"
 886      BA0BB020 
 886      E40C150A 
 886      866A3D11 
 887 1e15 F484D4B4 		.ascii	"\364\204\324\264\201\031\0032R3\206\300\337\300~}\177"
ARM GAS  /tmp/ccGrz3Xa.s 			page 72


 887      81190332 
 887      523386C0 
 887      DFC07E7D 
 887      7F
 888 1e26 D767F468 		.ascii	"\327g\364hp\201y\375\372\016\353\323\273\367\350\241"
 888      708179FD 
 888      FA0EEBD3 
 888      BBF7E8A1 
 889 1e36 84899732 		.ascii	"\204\211\2272\236N\037\2229\004<K\177\3770!#]\350\237"
 889      9E4E1F92 
 889      39043C4B 
 889      7FFF3021 
 889      235DE89F 
 890 1e4a EE78263D 		.ascii	"\356x&=\335\221\226\336\007R_H\375\234\317\015\031\234"
 890      DD9196DE 
 890      07525F48 
 890      FD9CCF0D 
 890      199C
 891 1e5c EE2A0A8A 		.ascii	"\356*\012\212\201\220;0\232\350\256\247\261h\012G\021"
 891      81903B30 
 891      9AE8AEA7 
 891      B1680A47 
 891      11
 892 1e6d A3F10EFE 		.ascii	"\243\361\016\376\323@\352\277{E\253\321^\205T\244\276"
 892      D340EABF 
 892      7B45ABD1 
 892      5E8554A4 
 892      BE
 893 1e7e F042FFD4 		.ascii	"\360B\377\324!\003\006\216\354\2434\312\314\315%\036"
 893      2103068E 
 893      ECA334CA 
 893      CCCD251E 
 894 1e8e A1031465 		.ascii	"\241\003\024e\265t\000\014Y/I\244H\024Cp\251f\274\303"
 894      B574000C 
 894      592F49A4 
 894      48144370 
 894      A966BCC3 
 895 1ea2 027E603B 		.ascii	"\002~`;\3377&\011\232\240\215\272\013a\334(\310\272"
 895      DF372609 
 895      9AA08DBA 
 895      0B61DC28 
 895      C8BA
 896 1eb4 8D7C1773 		.ascii	"\215|\027ss\207\212>\260\264$\245\330\005\232\246e\213"
 896      73878A3E 
 896      B0B424A5 
 896      D8059AA6 
 896      658B
 897 1ec6 F9F9FEDC 		.ascii	"\371\371\376\334\264\202\374a9\303\275P\217v*'9\200"
 897      B482FC61 
 897      39C3BD50 
 897      8F762A27 
 897      3980
 898 1ed8 59E38F41 		.ascii	"Y\343\217A\207/\320\327\231\225\343\017\220\213\321"
 898      872FD0D7 
 898      9995E30F 
 898      908BD1
 899 1ee7 AA6E1F1E 		.ascii	"\252n\037\036:\022\344\354\374<b\301\036\177\27684\327"
ARM GAS  /tmp/ccGrz3Xa.s 			page 73


 899      3A12E4EC 
 899      FC3C62C1 
 899      1E7FBE38 
 899      34D7
 900 1ef9 9F958CE7 		.ascii	"\237\225\214\347\260%t0_n\201\357\265_[\261\214\342"
 900      B0257430 
 900      5F6E81EF 
 900      B55F5BB1 
 900      8CE2
 901 1f0b CF04EF4D 		.ascii	"\317\004\357M\234P\344\013\320\22110-\335\331\177\300"
 901      9C50E40B 
 901      D0913130 
 901      2DDDD97F 
 901      C0
 902 1f1c B3E98E67 		.ascii	"\263\351\216g\237Kw\245\245\015L\357\203y_gZ\032\234"
 902      9F4B77A5 
 902      A50D4CEF 
 902      83795F67 
 902      5A1A9C
 903 1f2f 4C1B34C4 		.ascii	"L\0334\30418#\315\3614\350&=\015\276C\355g\372\017I"
 903      313823CD 
 903      F134E826 
 903      3D0DBE43 
 903      ED67FA0F 
 904 1f44 77F427CD 		.ascii	"w\364'\315\006>\235.\274H[\365\203\372/\247;\000\264"
 904      063E9D2E 
 904      BC485BF5 
 904      83FA2FA7 
 904      3B00B4
 905 1f57 9F392DA8 		.ascii	"\2379-\250uY\001t<\226u\340\012\026\372\375Y \206>\220"
 905      75590174 
 905      3C9675E0 
 905      0A16FAFD 
 905      5920863E 
 906 1f6c FAC92334 		.ascii	"\372\311#4\025D\362s\203\007\274\250X\012\330\305\013"
 906      1544F273 
 906      8307BCA8 
 906      580AD8C5 
 906      0B
 907 1f7d 909E770C 		.ascii	"\220\236w\014\000{y\261?\320\222\221\236\356|!\355\017"
 907      007B79B1 
 907      3FD09291 
 907      9EEE7C21 
 907      ED0F
 908 1f8f E9A9E657 		.ascii	"\351\251\346W%\000\212\326#W\204\336B5\341\311\023"
 908      25008AD6 
 908      235784DE 
 908      4235E1C9 
 908      13
 909 1fa0 73F27BF9 		.ascii	"s\362{\3718\317\020t\002}\035b`\270\033$\\\350\033\352"
 909      38CF1074 
 909      027D1D62 
 909      60B81B24 
 909      5CE81BEA 
 910 1fb4 24070F91 		.ascii	"$\007\017\221v\037\337Pr,\354K\217>8\336k\340\212d?"
 910      761FDF50 
 910      722CEC4B 
ARM GAS  /tmp/ccGrz3Xa.s 			page 74


 910      8F3E38DE 
 910      6BE08A64 
 911 1fc9 428CCA97 		.ascii	"B\214\312\227=$;+#\327\357/\374i\2242\032\013@\235<"
 911      3D243B2B 
 911      23D7EF2F 
 911      FC699432 
 911      1A0B409D 
 912 1fde E82ED9E0 		.ascii	"\350.\331\340B\300O@\345\024\223\210\205\326\204\012"
 912      42C04F40 
 912      E5149388 
 912      85D6840A 
 913 1fee 773C03EE 		.ascii	"w<\003\3569\003\215/\004\202\311\300\037\3564:\011\261"
 913      39038D2F 
 913      0482C9C0 
 913      1FEE343A 
 913      09B1
 914 2000 4B9282DC 		.ascii	"K\222\202\334\005(}\026MF6BOhXQ\276/3\324\025\211K\203"
 914      05287D16 
 914      4D463642 
 914      4F685851 
 914      BE2F33D4 
 915 2018 FA217F06 		.ascii	"\372!\177\006X~\216\317\023\314\202B \324S\337d\020"
 915      587E8ECF 
 915      13CC8242 
 915      20D453DF 
 915      6410
 916 202a F105393E 		.ascii	"\361\0059>\250S\220\177o\344\307\301h\3659>\365\257"
 916      A853907F 
 916      6FE4C7C1 
 916      68F5393E 
 916      F5AF
 917 203c A44F2006 		.ascii	"\244O \006\270$\242\201\034\030\221\223i\221:\340\356"
 917      B824A281 
 917      1C189193 
 917      69913AE0 
 917      EE
 918 204d 8AF441F5 		.ascii	"\212\364A\365\241\341\201\202\242B\242\000\303Q`\014"
 918      A1E18182 
 918      A242A200 
 918      C351600C 
 919 205d 861BBEEC 		.ascii	"\206\033\276\354\2141\301\001\3719\241\273\014\345C"
 919      8C31C101 
 919      F939A1BB 
 919      0CE543
 920 206c C2293890 		.ascii	"\302)8\220\012\216\214\376}]\244\377\367\303\274\217"
 920      0A8E8CFE 
 920      7D5DA4FF 
 920      F7C3BC8F 
 921 207c 7794286B 		.ascii	"w\224(k\223h\3227l\270\207\036\372t$\003\020D1\376<"
 921      9368D237 
 921      6CB8871E 
 921      FA742403 
 921      104431FE 
 922 2091 1A2ED072 		.ascii	"\032.\320r2\251:F\036\017n\203\323\321\357\036_Q\000"
 922      32A93A46 
 922      1E0F6E83 
 922      D3D1EF1E 
ARM GAS  /tmp/ccGrz3Xa.s 			page 75


 922      5F5100
 923 20a4 86320866 		.ascii	"\2062\010f\310\267\356#s\002\241\"\340\202\204A\001"
 923      C8B7EE23 
 923      7302A122 
 923      E0828441 
 923      01
 924 20b5 6504E901 		.ascii	"e\004\351\001-\014~\350\2549G#\015\315)W\226?7$&\215"
 924      2D0C7EE8 
 924      AC394723 
 924      0DCD2957 
 924      963F3724 
 925 20cb 94B5E224 		.ascii	"\224\265\342$\007G\241\030H\312\025\203!R\303=2D\200"
 925      0747A118 
 925      48CA1583 
 925      2152C33D 
 925      324480
 926 20de 3AC91467 		.ascii	":\311\024g\371\207\026\015\247\003\226\372\214\267P"
 926      F987160D 
 926      A70396FA 
 926      8CB750
 927 20ed CCCFF165 		.ascii	"\314\317\361e\302p\345\310\032:\274\0031gj\207\202/"
 927      C270E5C8 
 927      1A3ABC03 
 927      31676A87 
 927      822F
 928 20ff DB1522EA 		.ascii	"\333\025\"\352\352\320kh0\330\013\213\256\301\005\301"
 928      EAD06B68 
 928      30D80B8B 
 928      AEC105C1 
 929 210f DF8DC67C 		.ascii	"\337\215\306|\014\311\323\306\2702\237\201A\214\017"
 929      0CC9D3C6 
 929      B8329F81 
 929      418C0F
 930 211e E2B7D14E 		.ascii	"\342\267\321N\200-4\212\003!\010\001R\002c@\352\335"
 930      802D348A 
 930      03210801 
 930      52026340 
 930      EADD
 931 2130 7CD9E9FE 		.ascii	"|\331\351\376\341\031\376\020\225\361 \0100\376\027"
 931      E119FE10 
 931      95F12008 
 931      30FE17
 932 213f 7CBEFF6F 		.ascii	"|\276\377o"
 933              		.text
 934              		.section	.gnu.lto_.symtab.3f2b612c2a24cb3c,"",%progbits
 935 0000 6D61696E 		.ascii	"main\000\000\000\000\000\000\000\000\000\000\000\000"
 935      00000000 
 935      00000000 
 935      00000000 
 936 0010 D8020000 		.ascii	"\330\002\000\000table\000\000\000\000\000\000\000\000"
 936      7461626C 
 936      65000000 
 936      00000000 
 936      00
 937 0021 00000000 		.ascii	"\000\000\000\000\206\003\000\000PosFx\000\000\000\000"
 937      86030000 
 937      506F7346 
ARM GAS  /tmp/ccGrz3Xa.s 			page 76


 937      78000000 
 937      00
 938 0032 00000000 		.ascii	"\000\000\000\000\000\000\000\000\211\003\000\000Pos"
 938      00000000 
 938      89030000 
 938      506F73
 939 0041 46790000 		.ascii	"Fy\000\000\000\000\000\000\000\000\000\000\000\000\213"
 939      00000000 
 939      00000000 
 939      00008B
 940 0050 03000050 		.ascii	"\003\000\000PosCy\000\000\000\000\000\000\000\000\000"
 940      6F734379 
 940      00000000 
 940      00000000 
 940      00
 941 0061 0000008D 		.ascii	"\000\000\000\215\003\000\000s\000\000\000\000\000\000"
 941      03000073 
 941      00000000 
 941      0000
 942 006f 00000000 		.ascii	"\000\000\000\000\000\000\217\003\000\000PosCx\000\000"
 942      00008F03 
 942      0000506F 
 942      73437800 
 942      00
 943 0080 00000000 		.ascii	"\000\000\000\000\000\000\000\000\000\000\224\003\000"
 943      00000000 
 943      00009403 
 943      00
 944 008d 0074656D 		.ascii	"\000temp\000\000\000\000\000\000\000\000\000\000\000"
 944      70000000 
 944      00000000 
 944      00000000 
 945 009d 00960300 		.ascii	"\000\226\003\000\000ch\000\000\002\000\000\000\000\000"
 945      00636800 
 945      00020000 
 945      000000
 946 00ac 00000000 		.ascii	"\000\000\000\000C\003\000\000SD2\000\000\002\000\000"
 946      43030000 
 946      53443200 
 946      00020000 
 947 00bc 00000000 		.ascii	"\000\000\000\000\000\000\000'\003\000\000PWMD1\000\000"
 947      00000027 
 947      03000050 
 947      574D4431 
 947      0000
 948 00ce 02000000 		.ascii	"\002\000\000\000\000\000\000\000\000\000+\003\000\000"
 948      00000000 
 948      00002B03 
 948      0000
 949 00dc 50574D44 		.ascii	"PWMD3\000\000\002\000\000\000\000\000\000\000\000\000"
 949      33000002 
 949      00000000 
 949      00000000 
 949      00
 950 00ed 29030000 		.ascii	")\003\000\000chThdSleep\000\000\002\000\000\000\000"
 950      63685468 
 950      64536C65 
ARM GAS  /tmp/ccGrz3Xa.s 			page 77


 950      65700000 
 950      02000000 
 951 0102 00000000 		.ascii	"\000\000\000\000\000\333\002\000\000chprintf\000\000"
 951      00DB0200 
 951      00636870 
 951      72696E74 
 951      660000
 952 0115 02000000 		.ascii	"\002\000\000\000\000\000\000\000\000\000\337\002\000"
 952      00000000 
 952      0000DF02 
 952      00
 953 0122 0070776D 		.ascii	"\000pwmEnableChannel\000\000\002\000\000\000\000\000"
 953      456E6162 
 953      6C654368 
 953      616E6E65 
 953      6C000002 
 954 013b 00000000 		.ascii	"\000\000\000\000\364\002\000\000chThdCreateStatic\000"
 954      F4020000 
 954      63685468 
 954      64437265 
 954      61746553 
 955 0155 00020000 		.ascii	"\000\002\000\000\000\000\000\000\000\000\000\372\002"
 955      00000000 
 955      000000FA 
 955      02
 956 0162 00007364 		.ascii	"\000\000sdStart\000\000\002\000\000\000\000\000\000"
 956      53746172 
 956      74000002 
 956      00000000 
 956      0000
 957 0174 00000005 		.ascii	"\000\000\000\005\003\000\000pwmEnableChannelNotific"
 957      03000070 
 957      776D456E 
 957      61626C65 
 957      4368616E 
 958 0192 6174696F 		.ascii	"ation\000\000\002\000\000\000\000\000\000\000\000\000"
 958      6E000002 
 958      00000000 
 958      00000000 
 958      00
 959 01a3 0A030000 		.ascii	"\012\003\000\000pwmEnablePeriodicNotification\000\000"
 959      70776D45 
 959      6E61626C 
 959      65506572 
 959      696F6469 
 960 01c6 02000000 		.ascii	"\002\000\000\000\000\000\000\000\000\000\017\003\000"
 960      00000000 
 960      00000F03 
 960      00
 961 01d3 0070776D 		.ascii	"\000pwmStart\000\000\002\000\000\000\000\000\000\000"
 961      53746172 
 961      74000002 
 961      00000000 
 961      000000
 962 01e6 00001103 		.ascii	"\000\000\021\003\000\000_pal_lld_setgroupmode\000\000"
 962      00005F70 
 962      616C5F6C 
ARM GAS  /tmp/ccGrz3Xa.s 			page 78


 962      6C645F73 
 962      65746772 
 963 0203 02000000 		.ascii	"\002\000\000\000\000\000\000\000\000\000\026\003\000"
 963      00000000 
 963      00001603 
 963      00
 964 0210 00636853 		.ascii	"\000chSysInit\000\000\002\000\000\000\000\000\000\000"
 964      7973496E 
 964      69740000 
 964      02000000 
 964      00000000 
 965 0224 00002203 		.ascii	"\000\000\"\003\000\000halInit\000\000\002\000\000\000"
 965      00006861 
 965      6C496E69 
 965      74000002 
 965      000000
 966 0237 00000000 		.ascii	"\000\000\000\000\000\000%\003\000\000"
 966      00002503 
 966      0000
 967              		.text
 968              		.section	.gnu.lto_.opts,"",%progbits
 969 0000 272D6D63 		.ascii	"'-mcpu=cortex-m3' '-mno-thumb-interwork' '-mthumb' "
 969      70753D63 
 969      6F727465 
 969      782D6D33 
 969      2720272D 
 970 0033 272D6767 		.ascii	"'-ggdb' '-O2' '-fomit-frame-pointer' '-falign-funct"
 970      64622720 
 970      272D4F32 
 970      2720272D 
 970      666F6D69 
 971 0066 696F6E73 		.ascii	"ions=16' '-ffunction-sections' '-fdata-sections' '-"
 971      3D313627 
 971      20272D66 
 971      66756E63 
 971      74696F6E 
 972 0099 666E6F2D 		.ascii	"fno-common' '-flto'\000"
 972      636F6D6D 
 972      6F6E2720 
 972      272D666C 
 972      746F2700 
 973              		.text
 974              		.cfi_sections	.debug_frame
 975              		.section	.text.pwmpcb,"ax",%progbits
 976              		.align	2
 977              		.p2align 4,,15
 978              		.thumb
 979              		.thumb_func
 980              		.type	pwmpcb, %function
 981              	pwmpcb:
 982              	.LFB219:
 983              		.file 1 "main.c"
 984              		.loc 1 22 0
 985              		.cfi_startproc
 986              		@ args = 0, pretend = 0, frame = 0
 987              		@ frame_needed = 0, uses_anonymous_args = 0
 988              		@ link register save eliminated.
ARM GAS  /tmp/ccGrz3Xa.s 			page 79


 989              	.LVL0:
 990              		.loc 1 26 0
 991 0000 4FF40063 		mov	r3, #2048
 992 0004 C4F20103 		movt	r3, 16385
 993 0008 4FF48072 		mov	r2, #256
 994 000c 1A61     		str	r2, [r3, #16]
 995 000e 7047     		bx	lr
 996              		.cfi_endproc
 997              	.LFE219:
 998              		.size	pwmpcb, .-pwmpcb
 999              		.section	.text.pwmc1cb,"ax",%progbits
 1000              		.align	2
 1001              		.p2align 4,,15
 1002              		.thumb
 1003              		.thumb_func
 1004              		.type	pwmc1cb, %function
 1005              	pwmc1cb:
 1006              	.LFB220:
 1007              		.loc 1 29 0
 1008              		.cfi_startproc
 1009              		@ args = 0, pretend = 0, frame = 0
 1010              		@ frame_needed = 0, uses_anonymous_args = 0
 1011              		@ link register save eliminated.
 1012              	.LVL1:
 1013              		.loc 1 33 0
 1014 0000 4FF40063 		mov	r3, #2048
 1015 0004 C4F20103 		movt	r3, 16385
 1016 0008 4FF48072 		mov	r2, #256
 1017 000c 5A61     		str	r2, [r3, #20]
 1018 000e 7047     		bx	lr
 1019              		.cfi_endproc
 1020              	.LFE220:
 1021              		.size	pwmc1cb, .-pwmc1cb
 1022              		.section	.text.pwmp2cb,"ax",%progbits
 1023              		.align	2
 1024              		.p2align 4,,15
 1025              		.thumb
 1026              		.thumb_func
 1027              		.type	pwmp2cb, %function
 1028              	pwmp2cb:
 1029              	.LFB221:
 1030              		.loc 1 53 0
 1031              		.cfi_startproc
 1032              		@ args = 0, pretend = 0, frame = 0
 1033              		@ frame_needed = 0, uses_anonymous_args = 0
 1034              		@ link register save eliminated.
 1035              	.LVL2:
 1036              		.loc 1 56 0
 1037 0000 4FF40063 		mov	r3, #2048
 1038 0004 C4F20103 		movt	r3, 16385
 1039 0008 4FF48062 		mov	r2, #1024
 1040 000c 1A61     		str	r2, [r3, #16]
 1041 000e 7047     		bx	lr
 1042              		.cfi_endproc
 1043              	.LFE221:
 1044              		.size	pwmp2cb, .-pwmp2cb
 1045              		.section	.text.pwmc2cb,"ax",%progbits
ARM GAS  /tmp/ccGrz3Xa.s 			page 80


 1046              		.align	2
 1047              		.p2align 4,,15
 1048              		.thumb
 1049              		.thumb_func
 1050              		.type	pwmc2cb, %function
 1051              	pwmc2cb:
 1052              	.LFB222:
 1053              		.loc 1 59 0
 1054              		.cfi_startproc
 1055              		@ args = 0, pretend = 0, frame = 0
 1056              		@ frame_needed = 0, uses_anonymous_args = 0
 1057              		@ link register save eliminated.
 1058              	.LVL3:
 1059              		.loc 1 62 0
 1060 0000 4FF40063 		mov	r3, #2048
 1061 0004 C4F20103 		movt	r3, 16385
 1062 0008 4FF48062 		mov	r2, #1024
 1063 000c 5A61     		str	r2, [r3, #20]
 1064 000e 7047     		bx	lr
 1065              		.cfi_endproc
 1066              	.LFE222:
 1067              		.size	pwmc2cb, .-pwmc2cb
 1068              		.section	.text.Thread2,"ax",%progbits
 1069              		.align	2
 1070              		.p2align 4,,15
 1071              		.thumb
 1072              		.thumb_func
 1073              		.type	Thread2, %function
 1074              	Thread2:
 1075              	.LFB223:
 1076              		.loc 1 173 0
 1077              		.cfi_startproc
 1078              		@ Volatile: function does not return.
 1079              		@ args = 0, pretend = 0, frame = 0
 1080              		@ frame_needed = 0, uses_anonymous_args = 0
 1081              	.LVL4:
 1082 0000 08B5     		push	{r3, lr}
 1083              		.cfi_def_cfa_offset 8
 1084              		.cfi_offset 3, -8
 1085              		.cfi_offset 14, -4
 1086              	.LBB4:
 1087              	.LBB5:
 1088              		.file 2 "../os/rt/include/chregistry.h"
 1089              		.loc 2 136 0
 1090 0002 40F20003 		movw	r3, #:lower16:ch
 1091 0006 C0F20003 		movt	r3, #:upper16:ch
 1092 000a 9A69     		ldr	r2, [r3, #24]
 1093 000c 40F20003 		movw	r3, #:lower16:.LC0
 1094 0010 C0F20003 		movt	r3, #:upper16:.LC0
 1095 0014 9361     		str	r3, [r2, #24]
 1096              	.LVL5:
 1097              	.L6:
 1098              	.LBE5:
 1099              	.LBE4:
 1100              		.loc 1 180 0 discriminator 1
 1101 0016 40F20000 		movw	r0, #:lower16:SD2
 1102 001a 40F20001 		movw	r1, #:lower16:.LC1
ARM GAS  /tmp/ccGrz3Xa.s 			page 81


 1103 001e C0F20001 		movt	r1, #:upper16:.LC1
 1104 0022 C0F20000 		movt	r0, #:upper16:SD2
 1105 0026 FFF7FEFF 		bl	chprintf
 1106              	.LVL6:
 1107              		.loc 1 182 0 discriminator 1
 1108 002a 4FF47A70 		mov	r0, #1000
 1109 002e FFF7FEFF 		bl	chThdSleep
 1110              	.LVL7:
 1111 0032 F0E7     		b	.L6
 1112              		.cfi_endproc
 1113              	.LFE223:
 1114              		.size	Thread2, .-Thread2
 1115 0034 AFF30080 		.section	.text.startup.main,"ax",%progbits
 1115      AFF30080 
 1115      AFF30080 
 1116              		.align	2
 1117              		.p2align 4,,15
 1118              		.global	main
 1119              		.thumb
 1120              		.thumb_func
 1121              		.type	main, %function
 1122              	main:
 1123              	.LFB224:
 1124              		.loc 1 200 0
 1125              		.cfi_startproc
 1126              		@ args = 0, pretend = 0, frame = 40
 1127              		@ frame_needed = 0, uses_anonymous_args = 0
 1128 0000 2DE9F04F 		push	{r4, r5, r6, r7, r8, r9, r10, fp, lr}
 1129              		.cfi_def_cfa_offset 36
 1130              		.cfi_offset 4, -36
 1131              		.cfi_offset 5, -32
 1132              		.cfi_offset 6, -28
 1133              		.cfi_offset 7, -24
 1134              		.cfi_offset 8, -20
 1135              		.cfi_offset 9, -16
 1136              		.cfi_offset 10, -12
 1137              		.cfi_offset 11, -8
 1138              		.cfi_offset 14, -4
 1139 0004 8DB0     		sub	sp, sp, #52
 1140              		.cfi_def_cfa_offset 88
 1141              		.loc 1 211 0
 1142 0006 FFF7FEFF 		bl	halInit
 1143              	.LVL8:
 1144              		.loc 1 212 0
 1145 000a FFF7FEFF 		bl	chSysInit
 1146              	.LVL9:
 1147              		.loc 1 215 0
 1148 000e 4FF40060 		mov	r0, #2048
 1149 0012 C4F20100 		movt	r0, 16385
 1150 0016 0121     		movs	r1, #1
 1151 0018 0222     		movs	r2, #2
 1152 001a FFF7FEFF 		bl	_pal_lld_setgroupmode
 1153              	.LVL10:
 1154              		.loc 1 216 0
 1155 001e 0221     		movs	r1, #2
 1156 0020 4FF40060 		mov	r0, #2048
 1157 0024 0A46     		mov	r2, r1
ARM GAS  /tmp/ccGrz3Xa.s 			page 82


 1158 0026 C4F20100 		movt	r0, 16385
 1159 002a FFF7FEFF 		bl	_pal_lld_setgroupmode
 1160              	.LVL11:
 1161              		.loc 1 217 0
 1162 002e 4FF40060 		mov	r0, #2048
 1163 0032 C4F20100 		movt	r0, 16385
 1164 0036 0421     		movs	r1, #4
 1165 0038 0622     		movs	r2, #6
 1166 003a FFF7FEFF 		bl	_pal_lld_setgroupmode
 1167              	.LVL12:
 1168              		.loc 1 218 0
 1169 003e 4FF40060 		mov	r0, #2048
 1170 0042 C4F20100 		movt	r0, 16385
 1171 0046 0821     		movs	r1, #8
 1172 0048 0622     		movs	r2, #6
 1173 004a FFF7FEFF 		bl	_pal_lld_setgroupmode
 1174              	.LVL13:
 1175              		.loc 1 219 0
 1176 004e 4FF40060 		mov	r0, #2048
 1177 0052 C4F20100 		movt	r0, 16385
 1178 0056 1021     		movs	r1, #16
 1179 0058 0622     		movs	r2, #6
 1180 005a FFF7FEFF 		bl	_pal_lld_setgroupmode
 1181              	.LVL14:
 1182              		.loc 1 220 0
 1183 005e 4FF40060 		mov	r0, #2048
 1184 0062 C4F20100 		movt	r0, 16385
 1185 0066 2021     		movs	r1, #32
 1186 0068 0422     		movs	r2, #4
 1187 006a FFF7FEFF 		bl	_pal_lld_setgroupmode
 1188              	.LVL15:
 1189              		.loc 1 221 0
 1190 006e 4FF40060 		mov	r0, #2048
 1191 0072 C4F20100 		movt	r0, 16385
 1192 0076 4021     		movs	r1, #64
 1193 0078 0422     		movs	r2, #4
 1194 007a FFF7FEFF 		bl	_pal_lld_setgroupmode
 1195              	.LVL16:
 1196              		.loc 1 222 0
 1197 007e 4FF40060 		mov	r0, #2048
 1198 0082 C4F20100 		movt	r0, 16385
 1199 0086 8021     		movs	r1, #128
 1200 0088 0422     		movs	r2, #4
 1201 008a FFF7FEFF 		bl	_pal_lld_setgroupmode
 1202              	.LVL17:
 1203              		.loc 1 223 0
 1204 008e 4FF40060 		mov	r0, #2048
 1205 0092 C4F20100 		movt	r0, 16385
 1206 0096 4FF48071 		mov	r1, #256
 1207 009a 0622     		movs	r2, #6
 1208 009c FFF7FEFF 		bl	_pal_lld_setgroupmode
 1209              	.LVL18:
 1210              		.loc 1 224 0
 1211 00a0 4FF40060 		mov	r0, #2048
 1212 00a4 C4F20100 		movt	r0, 16385
 1213 00a8 4FF40071 		mov	r1, #512
 1214 00ac 0622     		movs	r2, #6
ARM GAS  /tmp/ccGrz3Xa.s 			page 83


 1215 00ae FFF7FEFF 		bl	_pal_lld_setgroupmode
 1216              	.LVL19:
 1217              		.loc 1 225 0
 1218 00b2 4FF40060 		mov	r0, #2048
 1219 00b6 C4F20100 		movt	r0, 16385
 1220 00ba 4FF48061 		mov	r1, #1024
 1221 00be 0622     		movs	r2, #6
 1222 00c0 FFF7FEFF 		bl	_pal_lld_setgroupmode
 1223              	.LVL20:
 1224              		.loc 1 226 0
 1225 00c4 4FF40060 		mov	r0, #2048
 1226 00c8 C4F20100 		movt	r0, 16385
 1227 00cc 4FF40061 		mov	r1, #2048
 1228 00d0 0622     		movs	r2, #6
 1229 00d2 FFF7FEFF 		bl	_pal_lld_setgroupmode
 1230              	.LVL21:
 1231              		.loc 1 229 0
 1232 00d6 4FF44060 		mov	r0, #3072
 1233 00da C4F20100 		movt	r0, 16385
 1234 00de 4FF40061 		mov	r1, #2048
 1235 00e2 0622     		movs	r2, #6
 1236 00e4 FFF7FEFF 		bl	_pal_lld_setgroupmode
 1237              	.LVL22:
 1238              		.loc 1 230 0
 1239 00e8 4FF44060 		mov	r0, #3072
 1240 00ec C4F20100 		movt	r0, 16385
 1241 00f0 4FF40041 		mov	r1, #32768
 1242 00f4 0622     		movs	r2, #6
 1243 00f6 FFF7FEFF 		bl	_pal_lld_setgroupmode
 1244              	.LVL23:
 1245              		.loc 1 233 0
 1246 00fa 4FF44060 		mov	r0, #3072
 1247 00fe C4F20100 		movt	r0, 16385
 1248 0102 4FF48061 		mov	r1, #1024
 1249 0106 0622     		movs	r2, #6
 1250 0108 FFF7FEFF 		bl	_pal_lld_setgroupmode
 1251              	.LVL24:
 1252              		.loc 1 234 0
 1253 010c 4FF44060 		mov	r0, #3072
 1254 0110 0622     		movs	r2, #6
 1255 0112 C4F20100 		movt	r0, 16385
 1256 0116 4FF48041 		mov	r1, #16384
 1257 011a FFF7FEFF 		bl	_pal_lld_setgroupmode
 1258              	.LVL25:
 1259              		.loc 1 238 0
 1260 011e 40F20000 		movw	r0, #:lower16:PWMD1
 1261 0122 40F20001 		movw	r1, #:lower16:.LANCHOR0
 1262 0126 C0F20001 		movt	r1, #:upper16:.LANCHOR0
 1263 012a C0F20000 		movt	r0, #:upper16:PWMD1
 1264 012e FFF7FEFF 		bl	pwmStart
 1265              	.LVL26:
 1266              		.loc 1 239 0
 1267 0132 40F20000 		movw	r0, #:lower16:PWMD1
 1268 0136 C0F20000 		movt	r0, #:upper16:PWMD1
 1269 013a FFF7FEFF 		bl	pwmEnablePeriodicNotification
 1270              	.LVL27:
 1271              		.loc 1 240 0
ARM GAS  /tmp/ccGrz3Xa.s 			page 84


 1272 013e 0021     		movs	r1, #0
 1273 0140 40F20000 		movw	r0, #:lower16:PWMD1
 1274 0144 0A46     		mov	r2, r1
 1275 0146 C0F20000 		movt	r0, #:upper16:PWMD1
 1276 014a FFF7FEFF 		bl	pwmEnableChannel
 1277              	.LVL28:
 1278              		.loc 1 241 0
 1279 014e 40F20000 		movw	r0, #:lower16:PWMD1
 1280 0152 C0F20000 		movt	r0, #:upper16:PWMD1
 1281 0156 0021     		movs	r1, #0
 1282 0158 FFF7FEFF 		bl	pwmEnableChannelNotification
 1283              	.LVL29:
 1284              		.loc 1 243 0
 1285 015c 40F20000 		movw	r0, #:lower16:PWMD3
 1286 0160 40F20001 		movw	r1, #:lower16:.LANCHOR1
 1287 0164 C0F20001 		movt	r1, #:upper16:.LANCHOR1
 1288 0168 C0F20000 		movt	r0, #:upper16:PWMD3
 1289 016c FFF7FEFF 		bl	pwmStart
 1290              	.LVL30:
 1291              		.loc 1 244 0
 1292 0170 40F20000 		movw	r0, #:lower16:PWMD3
 1293 0174 C0F20000 		movt	r0, #:upper16:PWMD3
 1294 0178 FFF7FEFF 		bl	pwmEnablePeriodicNotification
 1295              	.LVL31:
 1296              		.loc 1 245 0
 1297 017c 0021     		movs	r1, #0
 1298 017e 40F20000 		movw	r0, #:lower16:PWMD3
 1299 0182 0A46     		mov	r2, r1
 1300 0184 C0F20000 		movt	r0, #:upper16:PWMD3
 1301 0188 FFF7FEFF 		bl	pwmEnableChannel
 1302              	.LVL32:
 1303              		.loc 1 246 0
 1304 018c 40F20000 		movw	r0, #:lower16:PWMD3
 1305 0190 C0F20000 		movt	r0, #:upper16:PWMD3
 1306 0194 0021     		movs	r1, #0
 1307 0196 FFF7FEFF 		bl	pwmEnableChannelNotification
 1308              	.LVL33:
 1309 019a 40F20004 		movw	r4, #:lower16:.LANCHOR3
 1310              		.loc 1 252 0
 1311 019e 40F20000 		movw	r0, #:lower16:SD2
 1312 01a2 C0F20000 		movt	r0, #:upper16:SD2
 1313 01a6 0021     		movs	r1, #0
 1314 01a8 C0F20004 		movt	r4, #:upper16:.LANCHOR3
 1315 01ac FFF7FEFF 		bl	sdStart
 1316              	.LVL34:
 1317 01b0 0B94     		str	r4, [sp, #44]
 1318 01b2 40F20004 		movw	r4, #:lower16:.LANCHOR6
 1319              		.loc 1 258 0
 1320 01b6 0022     		movs	r2, #0
 1321 01b8 0594     		str	r4, [sp, #20]
 1322 01ba 40F20000 		movw	r0, #:lower16:.LANCHOR2
 1323 01be 40F20004 		movw	r4, #:lower16:PWMD3
 1324 01c2 40F20003 		movw	r3, #:lower16:Thread2
 1325              		.loc 1 350 0
 1326 01c6 41F2597E 		movw	lr, #5977
 1327              		.loc 1 258 0
 1328 01ca 0092     		str	r2, [sp]
ARM GAS  /tmp/ccGrz3Xa.s 			page 85


 1329 01cc C0F20003 		movt	r3, #:upper16:Thread2
 1330 01d0 4FF4A471 		mov	r1, #328
 1331 01d4 8122     		movs	r2, #129
 1332 01d6 40F20007 		movw	r7, #:lower16:.LANCHOR4
 1333 01da 0894     		str	r4, [sp, #32]
 1334 01dc C0F20000 		movt	r0, #:upper16:.LANCHOR2
 1335 01e0 40F20004 		movw	r4, #:lower16:.LANCHOR8
 1336 01e4 0997     		str	r7, [sp, #36]
 1337 01e6 0794     		str	r4, [sp, #28]
 1338              		.loc 1 350 0
 1339 01e8 CDF828E0 		str	lr, [sp, #40]
 1340              		.loc 1 258 0
 1341 01ec FFF7FEFF 		bl	chThdCreateStatic
 1342              	.LVL35:
 1343 01f0 0999     		ldr	r1, [sp, #36]
 1344 01f2 0B98     		ldr	r0, [sp, #44]
 1345 01f4 C0F20001 		movt	r1, #:upper16:.LANCHOR4
 1346 01f8 059A     		ldr	r2, [sp, #20]
 1347 01fa DDF820E0 		ldr	lr, [sp, #32]
 1348 01fe 0368     		ldr	r3, [r0]
 1349 0200 0991     		str	r1, [sp, #36]
 1350 0202 0798     		ldr	r0, [sp, #28]
 1351              		.loc 1 350 0
 1352 0204 0A99     		ldr	r1, [sp, #40]
 1353 0206 40F20006 		movw	r6, #:lower16:.LANCHOR5
 1354 020a 40F20005 		movw	r5, #:lower16:.LANCHOR7
 1355 020e 40F20007 		movw	r7, #:lower16:PWMD1
 1356              		.loc 1 346 0
 1357 0212 4FF40064 		mov	r4, #2048
 1358 0216 C0F20002 		movt	r2, #:upper16:.LANCHOR6
 1359 021a C0F2000E 		movt	lr, #:upper16:PWMD3
 1360 021e C0F20000 		movt	r0, #:upper16:.LANCHOR8
 1361              		.loc 1 350 0
 1362 0222 CDF2B711 		movt	r1, 53687
 1363 0226 C0F20006 		movt	r6, #:upper16:.LANCHOR5
 1364 022a C0F20005 		movt	r5, #:upper16:.LANCHOR7
 1365 022e C0F20007 		movt	r7, #:upper16:PWMD1
 1366 0232 0592     		str	r2, [sp, #20]
 1367 0234 CDF820E0 		str	lr, [sp, #32]
 1368 0238 0790     		str	r0, [sp, #28]
 1369              		.loc 1 346 0
 1370 023a C4F20104 		movt	r4, 16385
 1371              		.loc 1 350 0
 1372 023e 0A91     		str	r1, [sp, #40]
 1373              	.L9:
 1374              		.loc 1 269 0 discriminator 1
 1375 0240 002B     		cmp	r3, #0
 1376 0242 59D1     		bne	.L29
 1377              	.L28:
 1378              		.loc 1 271 0
 1379 0244 0423     		movs	r3, #4
 1380 0246 2361     		str	r3, [r4, #16]
 1381              		.loc 1 272 0
 1382 0248 A368     		ldr	r3, [r4, #8]
 1383 024a 9806     		lsls	r0, r3, #26
 1384              		.loc 1 273 0
 1385 024c 42BF     		ittt	mi
ARM GAS  /tmp/ccGrz3Xa.s 			page 86


 1386 024e 0B9A     		ldrmi	r2, [sp, #44]
 1387 0250 0123     		movmi	r3, #1
 1388 0252 1360     		strmi	r3, [r2]
 1389              		.loc 1 274 0
 1390 0254 A368     		ldr	r3, [r4, #8]
 1391 0256 5906     		lsls	r1, r3, #25
 1392              		.loc 1 275 0
 1393 0258 42BF     		ittt	mi
 1394 025a DDF82CE0 		ldrmi	lr, [sp, #44]
 1395 025e 0223     		movmi	r3, #2
 1396 0260 CEF80030 		strmi	r3, [lr]
 1397              		.loc 1 276 0
 1398 0264 A368     		ldr	r3, [r4, #8]
 1399 0266 1A06     		lsls	r2, r3, #24
 1400              		.loc 1 277 0
 1401 0268 42BF     		ittt	mi
 1402 026a 0B98     		ldrmi	r0, [sp, #44]
 1403 026c 0323     		movmi	r3, #3
 1404 026e 0360     		strmi	r3, [r0]
 1405              		.loc 1 278 0
 1406 0270 4FF48022 		mov	r2, #262144
 1407              		.loc 1 279 0
 1408 0274 0823     		movs	r3, #8
 1409              		.loc 1 278 0
 1410 0276 2261     		str	r2, [r4, #16]
 1411              		.loc 1 279 0
 1412 0278 2361     		str	r3, [r4, #16]
 1413              		.loc 1 280 0
 1414 027a A368     		ldr	r3, [r4, #8]
 1415 027c 9B06     		lsls	r3, r3, #26
 1416              		.loc 1 281 0
 1417 027e 42BF     		ittt	mi
 1418 0280 0B99     		ldrmi	r1, [sp, #44]
 1419 0282 0423     		movmi	r3, #4
 1420 0284 0B60     		strmi	r3, [r1]
 1421              		.loc 1 282 0
 1422 0286 A368     		ldr	r3, [r4, #8]
 1423 0288 5806     		lsls	r0, r3, #25
 1424              		.loc 1 283 0
 1425 028a 42BF     		ittt	mi
 1426 028c 0B9A     		ldrmi	r2, [sp, #44]
 1427 028e 0523     		movmi	r3, #5
 1428 0290 1360     		strmi	r3, [r2]
 1429              		.loc 1 284 0
 1430 0292 A368     		ldr	r3, [r4, #8]
 1431              		.loc 1 286 0
 1432 0294 4FF40022 		mov	r2, #524288
 1433              		.loc 1 284 0
 1434 0298 1906     		lsls	r1, r3, #24
 1435              		.loc 1 285 0
 1436 029a 42BF     		ittt	mi
 1437 029c DDF82CE0 		ldrmi	lr, [sp, #44]
 1438 02a0 0623     		movmi	r3, #6
 1439 02a2 CEF80030 		strmi	r3, [lr]
 1440              		.loc 1 287 0
 1441 02a6 1023     		movs	r3, #16
 1442              		.loc 1 286 0
ARM GAS  /tmp/ccGrz3Xa.s 			page 87


 1443 02a8 2261     		str	r2, [r4, #16]
 1444              		.loc 1 287 0
 1445 02aa 2361     		str	r3, [r4, #16]
 1446              		.loc 1 288 0
 1447 02ac A368     		ldr	r3, [r4, #8]
 1448 02ae 9A06     		lsls	r2, r3, #26
 1449              		.loc 1 289 0
 1450 02b0 42BF     		ittt	mi
 1451 02b2 0B98     		ldrmi	r0, [sp, #44]
 1452 02b4 0723     		movmi	r3, #7
 1453 02b6 0360     		strmi	r3, [r0]
 1454              		.loc 1 290 0
 1455 02b8 A368     		ldr	r3, [r4, #8]
 1456 02ba 5B06     		lsls	r3, r3, #25
 1457 02bc 11D4     		bmi	.L17
 1458 02be 0B99     		ldr	r1, [sp, #44]
 1459 02c0 0B68     		ldr	r3, [r1]
 1460              		.loc 1 292 0
 1461 02c2 4FF48011 		mov	r1, #1048576
 1462              		.loc 1 295 0
 1463 02c6 5A1E     		subs	r2, r3, #1
 1464              		.loc 1 292 0
 1465 02c8 2161     		str	r1, [r4, #16]
 1466              		.loc 1 295 0
 1467 02ca 072A     		cmp	r2, #7
 1468 02cc B8D8     		bhi	.L9
 1469 02ce DFE812F0 		tbh	[pc, r2, lsl #1]
 1470              	.L20:
 1471 02d2 1801     		.2byte	(.L19-.L20)/2
 1472 02d4 1001     		.2byte	(.L21-.L20)/2
 1473 02d6 0A01     		.2byte	(.L22-.L20)/2
 1474 02d8 0201     		.2byte	(.L23-.L20)/2
 1475 02da FD00     		.2byte	(.L24-.L20)/2
 1476 02dc F500     		.2byte	(.L25-.L20)/2
 1477 02de EF00     		.2byte	(.L26-.L20)/2
 1478 02e0 0E00     		.2byte	(.L27-.L20)/2
 1479              	.L17:
 1480              		.loc 1 291 0
 1481 02e2 0B98     		ldr	r0, [sp, #44]
 1482 02e4 0822     		movs	r2, #8
 1483              		.loc 1 292 0
 1484 02e6 4FF48013 		mov	r3, #1048576
 1485              		.loc 1 291 0
 1486 02ea 0260     		str	r2, [r0]
 1487              		.loc 1 292 0
 1488 02ec 2361     		str	r3, [r4, #16]
 1489              	.L27:
 1490              		.loc 1 333 0
 1491 02ee 0999     		ldr	r1, [sp, #36]
 1492 02f0 0422     		movs	r2, #4
 1493              		.loc 1 334 0
 1494 02f2 0623     		movs	r3, #6
 1495              		.loc 1 333 0
 1496 02f4 0A60     		str	r2, [r1]
 1497              		.loc 1 334 0
 1498 02f6 3360     		str	r3, [r6]
 1499              	.L29:
ARM GAS  /tmp/ccGrz3Xa.s 			page 88


 1500              		.loc 1 340 0 discriminator 1
 1501 02f8 099B     		ldr	r3, [sp, #36]
 1502 02fa DDF81CE0 		ldr	lr, [sp, #28]
 1503 02fe 1A68     		ldr	r2, [r3]
 1504 0300 DEF80030 		ldr	r3, [lr]
 1505 0304 9A42     		cmp	r2, r3
 1506 0306 00F00181 		beq	.L86
 1507              	.L48:
 1508              		.loc 1 530 0
 1509 030a A368     		ldr	r3, [r4, #8]
 1510 030c D807     		lsls	r0, r3, #31
 1511 030e 02D4     		bmi	.L44
 1512              		.loc 1 530 0 is_stmt 0 discriminator 1
 1513 0310 A368     		ldr	r3, [r4, #8]
 1514 0312 9907     		lsls	r1, r3, #30
 1515 0314 47D5     		bpl	.L45
 1516              	.L44:
 1517              		.loc 1 532 0 is_stmt 1
 1518 0316 0021     		movs	r1, #0
 1519 0318 40F20000 		movw	r0, #:lower16:PWMD1
 1520 031c 0A46     		mov	r2, r1
 1521 031e C0F20000 		movt	r0, #:upper16:PWMD1
 1522 0322 FFF7FEFF 		bl	pwmEnableChannel
 1523              	.LVL36:
 1524              		.loc 1 533 0
 1525 0326 0021     		movs	r1, #0
 1526 0328 40F20000 		movw	r0, #:lower16:PWMD3
 1527 032c 0A46     		mov	r2, r1
 1528 032e C0F20000 		movt	r0, #:upper16:PWMD3
 1529              		.loc 1 534 0
 1530 0332 4FF40079 		mov	r9, #512
 1531              		.loc 1 535 0
 1532 0336 4FF40068 		mov	r8, #2048
 1533              		.loc 1 533 0
 1534 033a FFF7FEFF 		bl	pwmEnableChannel
 1535              	.LVL37:
 1536              		.loc 1 534 0
 1537 033e C4F81090 		str	r9, [r4, #16]
 1538              		.loc 1 536 0
 1539 0342 4FF47A70 		mov	r0, #1000
 1540              		.loc 1 535 0
 1541 0346 C4F81080 		str	r8, [r4, #16]
 1542              		.loc 1 536 0
 1543 034a FFF7FEFF 		bl	chThdSleep
 1544              	.LVL38:
 1545              		.loc 1 539 0
 1546 034e BB68     		ldr	r3, [r7, #8]
 1547 0350 41F2707A 		movw	r10, #6000
 1548 0354 0AFB03F3 		mul	r3, r10, r3
 1549 0358 0A99     		ldr	r1, [sp, #40]
 1550 035a 40F20000 		movw	r0, #:lower16:PWMD1
 1551 035e A1FB0312 		umull	r1, r2, r1, r3
 1552 0362 C0F20000 		movt	r0, #:upper16:PWMD1
 1553 0366 520B     		lsrs	r2, r2, #13
 1554 0368 0021     		movs	r1, #0
 1555 036a FFF7FEFF 		bl	pwmEnableChannel
 1556              	.LVL39:
ARM GAS  /tmp/ccGrz3Xa.s 			page 89


 1557              		.loc 1 540 0
 1558 036e 089A     		ldr	r2, [sp, #32]
 1559 0370 DDF828E0 		ldr	lr, [sp, #40]
 1560 0374 9368     		ldr	r3, [r2, #8]
 1561 0376 40F20000 		movw	r0, #:lower16:PWMD3
 1562 037a 0AFB03F3 		mul	r3, r10, r3
 1563 037e AEFB03E2 		umull	lr, r2, lr, r3
 1564 0382 C0F20000 		movt	r0, #:upper16:PWMD3
 1565 0386 520B     		lsrs	r2, r2, #13
 1566 0388 0021     		movs	r1, #0
 1567 038a FFF7FEFF 		bl	pwmEnableChannel
 1568              	.LVL40:
 1569              		.loc 1 541 0
 1570 038e C4F81090 		str	r9, [r4, #16]
 1571              		.loc 1 543 0
 1572 0392 40F2DC50 		movw	r0, #1500
 1573              		.loc 1 542 0
 1574 0396 C4F81080 		str	r8, [r4, #16]
 1575              		.loc 1 543 0
 1576 039a FFF7FEFF 		bl	chThdSleep
 1577              	.LVL41:
 1578              		.loc 1 544 0
 1579 039e 0798     		ldr	r0, [sp, #28]
 1580 03a0 0368     		ldr	r3, [r0]
 1581 03a2 0133     		adds	r3, r3, #1
 1582 03a4 0360     		str	r3, [r0]
 1583              	.L45:
 1584              		.loc 1 547 0
 1585 03a6 A368     		ldr	r3, [r4, #8]
 1586 03a8 DA07     		lsls	r2, r3, #31
 1587 03aa 02D5     		bpl	.L46
 1588              		.loc 1 547 0 is_stmt 0 discriminator 1
 1589 03ac A368     		ldr	r3, [r4, #8]
 1590 03ae 9B07     		lsls	r3, r3, #30
 1591 03b0 A2D4     		bmi	.L29
 1592              	.L46:
 1593              		.loc 1 549 0 is_stmt 1
 1594 03b2 0021     		movs	r1, #0
 1595 03b4 40F20000 		movw	r0, #:lower16:PWMD1
 1596 03b8 0A46     		mov	r2, r1
 1597 03ba C0F20000 		movt	r0, #:upper16:PWMD1
 1598 03be FFF7FEFF 		bl	pwmEnableChannel
 1599              	.LVL42:
 1600              		.loc 1 550 0
 1601 03c2 0021     		movs	r1, #0
 1602 03c4 40F20000 		movw	r0, #:lower16:PWMD3
 1603 03c8 0A46     		mov	r2, r1
 1604              		.loc 1 551 0
 1605 03ca 4FF40079 		mov	r9, #512
 1606              		.loc 1 552 0
 1607 03ce 4FF40068 		mov	r8, #2048
 1608              		.loc 1 550 0
 1609 03d2 C0F20000 		movt	r0, #:upper16:PWMD3
 1610 03d6 FFF7FEFF 		bl	pwmEnableChannel
 1611              	.LVL43:
 1612              		.loc 1 551 0
 1613 03da C4F81090 		str	r9, [r4, #16]
ARM GAS  /tmp/ccGrz3Xa.s 			page 90


 1614              		.loc 1 553 0
 1615 03de 4FF47A70 		mov	r0, #1000
 1616              		.loc 1 552 0
 1617 03e2 C4F81080 		str	r8, [r4, #16]
 1618              		.loc 1 553 0
 1619 03e6 FFF7FEFF 		bl	chThdSleep
 1620              	.LVL44:
 1621              		.loc 1 556 0
 1622 03ea BB68     		ldr	r3, [r7, #8]
 1623 03ec 4FF47A7A 		mov	r10, #1000
 1624 03f0 0AFB03F3 		mul	r3, r10, r3
 1625 03f4 0A99     		ldr	r1, [sp, #40]
 1626 03f6 40F20000 		movw	r0, #:lower16:PWMD1
 1627 03fa A1FB0312 		umull	r1, r2, r1, r3
 1628 03fe C0F20000 		movt	r0, #:upper16:PWMD1
 1629 0402 520B     		lsrs	r2, r2, #13
 1630 0404 0021     		movs	r1, #0
 1631 0406 FFF7FEFF 		bl	pwmEnableChannel
 1632              	.LVL45:
 1633              		.loc 1 557 0
 1634 040a 0021     		movs	r1, #0
 1635 040c 40F20000 		movw	r0, #:lower16:PWMD3
 1636 0410 0A46     		mov	r2, r1
 1637 0412 C0F20000 		movt	r0, #:upper16:PWMD3
 1638 0416 FFF7FEFF 		bl	pwmEnableChannel
 1639              	.LVL46:
 1640              		.loc 1 558 0
 1641 041a C4F81090 		str	r9, [r4, #16]
 1642              		.loc 1 560 0
 1643 041e 40F22620 		movw	r0, #550
 1644              		.loc 1 559 0
 1645 0422 C4F81080 		str	r8, [r4, #16]
 1646              		.loc 1 560 0
 1647 0426 FFF7FEFF 		bl	chThdSleep
 1648              	.LVL47:
 1649              		.loc 1 563 0
 1650 042a 0021     		movs	r1, #0
 1651 042c 40F20000 		movw	r0, #:lower16:PWMD1
 1652 0430 0A46     		mov	r2, r1
 1653 0432 C0F20000 		movt	r0, #:upper16:PWMD1
 1654 0436 FFF7FEFF 		bl	pwmEnableChannel
 1655              	.LVL48:
 1656              		.loc 1 564 0
 1657 043a 0021     		movs	r1, #0
 1658 043c 40F20000 		movw	r0, #:lower16:PWMD3
 1659 0440 0A46     		mov	r2, r1
 1660 0442 C0F20000 		movt	r0, #:upper16:PWMD3
 1661 0446 FFF7FEFF 		bl	pwmEnableChannel
 1662              	.LVL49:
 1663              		.loc 1 567 0
 1664 044a 5046     		mov	r0, r10
 1665              		.loc 1 565 0
 1666 044c C4F81090 		str	r9, [r4, #16]
 1667              		.loc 1 566 0
 1668 0450 C4F81080 		str	r8, [r4, #16]
 1669              		.loc 1 567 0
 1670 0454 FFF7FEFF 		bl	chThdSleep
ARM GAS  /tmp/ccGrz3Xa.s 			page 91


 1671              	.LVL50:
 1672              		.loc 1 570 0
 1673 0458 BB68     		ldr	r3, [r7, #8]
 1674 045a 41F2707A 		movw	r10, #6000
 1675 045e 0AFB03F3 		mul	r3, r10, r3
 1676 0462 DDF828E0 		ldr	lr, [sp, #40]
 1677 0466 40F20000 		movw	r0, #:lower16:PWMD1
 1678 046a AEFB03E2 		umull	lr, r2, lr, r3
 1679 046e C0F20000 		movt	r0, #:upper16:PWMD1
 1680 0472 520B     		lsrs	r2, r2, #13
 1681 0474 0021     		movs	r1, #0
 1682 0476 FFF7FEFF 		bl	pwmEnableChannel
 1683              	.LVL51:
 1684              		.loc 1 571 0
 1685 047a 0898     		ldr	r0, [sp, #32]
 1686 047c 0A99     		ldr	r1, [sp, #40]
 1687 047e 8368     		ldr	r3, [r0, #8]
 1688 0480 40F20000 		movw	r0, #:lower16:PWMD3
 1689 0484 0AFB03F3 		mul	r3, r10, r3
 1690 0488 A1FB0312 		umull	r1, r2, r1, r3
 1691 048c C0F20000 		movt	r0, #:upper16:PWMD3
 1692 0490 520B     		lsrs	r2, r2, #13
 1693 0492 0021     		movs	r1, #0
 1694 0494 FFF7FEFF 		bl	pwmEnableChannel
 1695              	.LVL52:
 1696              		.loc 1 572 0
 1697 0498 C4F81090 		str	r9, [r4, #16]
 1698              		.loc 1 574 0
 1699 049c 40F2DC50 		movw	r0, #1500
 1700              		.loc 1 573 0
 1701 04a0 C4F81080 		str	r8, [r4, #16]
 1702              		.loc 1 574 0
 1703 04a4 FFF7FEFF 		bl	chThdSleep
 1704              	.LVL53:
 1705              		.loc 1 575 0
 1706 04a8 2B68     		ldr	r3, [r5]
 1707 04aa 0133     		adds	r3, r3, #1
 1708 04ac 2B60     		str	r3, [r5]
 1709 04ae 23E7     		b	.L29
 1710              	.L26:
 1711              		.loc 1 328 0
 1712 04b0 0998     		ldr	r0, [sp, #36]
 1713 04b2 0221     		movs	r1, #2
 1714              		.loc 1 329 0
 1715 04b4 0622     		movs	r2, #6
 1716              		.loc 1 328 0
 1717 04b6 0160     		str	r1, [r0]
 1718              		.loc 1 329 0
 1719 04b8 3260     		str	r2, [r6]
 1720              		.loc 1 330 0
 1721 04ba C1E6     		b	.L9
 1722              	.L25:
 1723              		.loc 1 323 0
 1724 04bc DDF824E0 		ldr	lr, [sp, #36]
 1725 04c0 0621     		movs	r1, #6
 1726              		.loc 1 324 0
 1727 04c2 0422     		movs	r2, #4
ARM GAS  /tmp/ccGrz3Xa.s 			page 92


 1728              		.loc 1 323 0
 1729 04c4 CEF80010 		str	r1, [lr]
 1730              		.loc 1 324 0
 1731 04c8 3260     		str	r2, [r6]
 1732              		.loc 1 325 0
 1733 04ca B9E6     		b	.L9
 1734              	.L24:
 1735              		.loc 1 318 0
 1736 04cc 0998     		ldr	r0, [sp, #36]
 1737 04ce 0422     		movs	r2, #4
 1738 04d0 0260     		str	r2, [r0]
 1739              		.loc 1 319 0
 1740 04d2 3260     		str	r2, [r6]
 1741              		.loc 1 320 0
 1742 04d4 B4E6     		b	.L9
 1743              	.L23:
 1744              		.loc 1 313 0
 1745 04d6 DDF824E0 		ldr	lr, [sp, #36]
 1746 04da 0221     		movs	r1, #2
 1747              		.loc 1 314 0
 1748 04dc 0422     		movs	r2, #4
 1749              		.loc 1 313 0
 1750 04de CEF80010 		str	r1, [lr]
 1751              		.loc 1 314 0
 1752 04e2 3260     		str	r2, [r6]
 1753              		.loc 1 315 0
 1754 04e4 ACE6     		b	.L9
 1755              	.L22:
 1756              		.loc 1 308 0
 1757 04e6 0998     		ldr	r0, [sp, #36]
 1758 04e8 0621     		movs	r1, #6
 1759              		.loc 1 309 0
 1760 04ea 0222     		movs	r2, #2
 1761              		.loc 1 308 0
 1762 04ec 0160     		str	r1, [r0]
 1763              		.loc 1 309 0
 1764 04ee 3260     		str	r2, [r6]
 1765              		.loc 1 310 0
 1766 04f0 A6E6     		b	.L9
 1767              	.L21:
 1768              		.loc 1 303 0
 1769 04f2 DDF824E0 		ldr	lr, [sp, #36]
 1770 04f6 0421     		movs	r1, #4
 1771              		.loc 1 304 0
 1772 04f8 0222     		movs	r2, #2
 1773              		.loc 1 303 0
 1774 04fa CEF80010 		str	r1, [lr]
 1775              		.loc 1 304 0
 1776 04fe 3260     		str	r2, [r6]
 1777              		.loc 1 305 0
 1778 0500 9EE6     		b	.L9
 1779              	.L19:
 1780              		.loc 1 298 0
 1781 0502 0999     		ldr	r1, [sp, #36]
 1782 0504 0222     		movs	r2, #2
 1783 0506 0A60     		str	r2, [r1]
 1784              		.loc 1 299 0
ARM GAS  /tmp/ccGrz3Xa.s 			page 93


 1785 0508 3260     		str	r2, [r6]
 1786              		.loc 1 300 0
 1787 050a 99E6     		b	.L9
 1788              	.L86:
 1789 050c DDF82890 		ldr	r9, [sp, #40]
 1790              	.L51:
 1791              		.loc 1 340 0 discriminator 2
 1792 0510 2A68     		ldr	r2, [r5]
 1793 0512 3368     		ldr	r3, [r6]
 1794 0514 40F20008 		movw	r8, #:lower16:.LANCHOR5
 1795              		.loc 1 344 0 discriminator 2
 1796 0518 40F20000 		movw	r0, #:lower16:PWMD1
 1797 051c 0021     		movs	r1, #0
 1798              		.loc 1 340 0 discriminator 2
 1799 051e 9A42     		cmp	r2, r3
 1800 0520 C0F20008 		movt	r8, #:upper16:.LANCHOR5
 1801              		.loc 1 344 0 discriminator 2
 1802 0524 C0F20000 		movt	r0, #:upper16:PWMD1
 1803 0528 0A46     		mov	r2, r1
 1804              		.loc 1 340 0 discriminator 2
 1805 052a 00F09382 		beq	.L87
 1806              		.loc 1 344 0 discriminator 1
 1807 052e FFF7FEFF 		bl	pwmEnableChannel
 1808              	.LVL54:
 1809              		.loc 1 345 0 discriminator 1
 1810 0532 0021     		movs	r1, #0
 1811 0534 40F20000 		movw	r0, #:lower16:PWMD3
 1812 0538 0A46     		mov	r2, r1
 1813              		.loc 1 347 0 discriminator 1
 1814 053a 4FF40068 		mov	r8, #2048
 1815              		.loc 1 346 0 discriminator 1
 1816 053e 4FF4007A 		mov	r10, #512
 1817              		.loc 1 345 0 discriminator 1
 1818 0542 C0F20000 		movt	r0, #:upper16:PWMD3
 1819 0546 FFF7FEFF 		bl	pwmEnableChannel
 1820              	.LVL55:
 1821              		.loc 1 346 0 discriminator 1
 1822 054a C4F810A0 		str	r10, [r4, #16]
 1823              		.loc 1 348 0 discriminator 1
 1824 054e 4FF47A70 		mov	r0, #1000
 1825              		.loc 1 347 0 discriminator 1
 1826 0552 C4F81080 		str	r8, [r4, #16]
 1827              		.loc 1 348 0 discriminator 1
 1828 0556 FFF7FEFF 		bl	chThdSleep
 1829              	.LVL56:
 1830              		.loc 1 350 0 discriminator 1
 1831 055a BB68     		ldr	r3, [r7, #8]
 1832 055c 4FF47A7B 		mov	fp, #1000
 1833 0560 0BFB03F3 		mul	r3, fp, r3
 1834 0564 A9FB03E2 		umull	lr, r2, r9, r3
 1835 0568 40F20000 		movw	r0, #:lower16:PWMD1
 1836 056c 520B     		lsrs	r2, r2, #13
 1837 056e C0F20000 		movt	r0, #:upper16:PWMD1
 1838 0572 0021     		movs	r1, #0
 1839 0574 FFF7FEFF 		bl	pwmEnableChannel
 1840              	.LVL57:
 1841              		.loc 1 351 0 discriminator 1
ARM GAS  /tmp/ccGrz3Xa.s 			page 94


 1842 0578 0021     		movs	r1, #0
 1843 057a 40F20000 		movw	r0, #:lower16:PWMD3
 1844 057e 0A46     		mov	r2, r1
 1845 0580 C0F20000 		movt	r0, #:upper16:PWMD3
 1846 0584 FFF7FEFF 		bl	pwmEnableChannel
 1847              	.LVL58:
 1848              		.loc 1 352 0 discriminator 1
 1849 0588 C4F810A0 		str	r10, [r4, #16]
 1850              		.loc 1 354 0 discriminator 1
 1851 058c 40F22620 		movw	r0, #550
 1852              		.loc 1 353 0 discriminator 1
 1853 0590 C4F81080 		str	r8, [r4, #16]
 1854              		.loc 1 354 0 discriminator 1
 1855 0594 FFF7FEFF 		bl	chThdSleep
 1856              	.LVL59:
 1857              		.loc 1 356 0 discriminator 1
 1858 0598 0021     		movs	r1, #0
 1859 059a 40F20000 		movw	r0, #:lower16:PWMD1
 1860 059e 0A46     		mov	r2, r1
 1861 05a0 C0F20000 		movt	r0, #:upper16:PWMD1
 1862 05a4 FFF7FEFF 		bl	pwmEnableChannel
 1863              	.LVL60:
 1864              		.loc 1 357 0 discriminator 1
 1865 05a8 0021     		movs	r1, #0
 1866 05aa 40F20000 		movw	r0, #:lower16:PWMD3
 1867 05ae C0F20000 		movt	r0, #:upper16:PWMD3
 1868 05b2 0A46     		mov	r2, r1
 1869 05b4 FFF7FEFF 		bl	pwmEnableChannel
 1870              	.LVL61:
 1871              		.loc 1 358 0 discriminator 1
 1872 05b8 C4F810A0 		str	r10, [r4, #16]
 1873              		.loc 1 360 0 discriminator 1
 1874 05bc 5846     		mov	r0, fp
 1875              		.loc 1 359 0 discriminator 1
 1876 05be C4F81080 		str	r8, [r4, #16]
 1877              		.loc 1 360 0 discriminator 1
 1878 05c2 FFF7FEFF 		bl	chThdSleep
 1879              	.LVL62:
 1880 05c6 059B     		ldr	r3, [sp, #20]
 1881 05c8 B846     		mov	r8, r7
 1882 05ca 1B78     		ldrb	r3, [r3]	@ zero_extendqisi2
 1883 05cc 0693     		str	r3, [sp, #24]
 1884              	.L30:
 1885              		.loc 1 362 0 discriminator 1
 1886 05ce 069B     		ldr	r3, [sp, #24]
 1887 05d0 002B     		cmp	r3, #0
 1888 05d2 00F0D580 		beq	.L32
 1889              		.loc 1 363 0
 1890 05d6 2A68     		ldr	r2, [r5]
 1891 05d8 3368     		ldr	r3, [r6]
 1892 05da 9A42     		cmp	r2, r3
 1893 05dc 70D0     		beq	.L88
 1894              	.L31:
 1895              		.loc 1 389 0
 1896 05de A168     		ldr	r1, [r4, #8]
 1897 05e0 C807     		lsls	r0, r1, #31
 1898 05e2 02D4     		bmi	.L33
ARM GAS  /tmp/ccGrz3Xa.s 			page 95


 1899              		.loc 1 389 0 is_stmt 0 discriminator 1
 1900 05e4 A168     		ldr	r1, [r4, #8]
 1901 05e6 8907     		lsls	r1, r1, #30
 1902 05e8 5AD5     		bpl	.L34
 1903              	.L33:
 1904              		.loc 1 391 0 is_stmt 1
 1905 05ea 0132     		adds	r2, r2, #1
 1906 05ec 9342     		cmp	r3, r2
 1907 05ee 00F0E181 		beq	.L89
 1908              		.loc 1 409 0
 1909 05f2 2A68     		ldr	r2, [r5]
 1910 05f4 3368     		ldr	r3, [r6]
 1911 05f6 0132     		adds	r2, r2, #1
 1912 05f8 9A42     		cmp	r2, r3
 1913 05fa 42D0     		beq	.L37
 1914              	.L50:
 1915              		.loc 1 411 0
 1916 05fc D8F80830 		ldr	r3, [r8, #8]
 1917 0600 41F27077 		movw	r7, #6000
 1918 0604 07FB03F3 		mul	r3, r7, r3
 1919 0608 A9FB03E2 		umull	lr, r2, r9, r3
 1920 060c 40F20000 		movw	r0, #:lower16:PWMD1
 1921 0610 0021     		movs	r1, #0
 1922 0612 520B     		lsrs	r2, r2, #13
 1923 0614 C0F20000 		movt	r0, #:upper16:PWMD1
 1924 0618 FFF7FEFF 		bl	pwmEnableChannel
 1925              	.LVL63:
 1926              		.loc 1 412 0
 1927 061c 0898     		ldr	r0, [sp, #32]
 1928              		.loc 1 413 0
 1929 061e 4FF4007A 		mov	r10, #512
 1930              		.loc 1 412 0
 1931 0622 8368     		ldr	r3, [r0, #8]
 1932 0624 40F20000 		movw	r0, #:lower16:PWMD3
 1933 0628 07FB03F3 		mul	r3, r7, r3
 1934 062c A9FB0312 		umull	r1, r2, r9, r3
 1935 0630 C0F20000 		movt	r0, #:upper16:PWMD3
 1936 0634 520B     		lsrs	r2, r2, #13
 1937 0636 0021     		movs	r1, #0
 1938              		.loc 1 414 0
 1939 0638 4FF40067 		mov	r7, #2048
 1940              		.loc 1 412 0
 1941 063c FFF7FEFF 		bl	pwmEnableChannel
 1942              	.LVL64:
 1943              		.loc 1 413 0
 1944 0640 C4F810A0 		str	r10, [r4, #16]
 1945              		.loc 1 415 0
 1946 0644 40F2DC50 		movw	r0, #1500
 1947              		.loc 1 414 0
 1948 0648 2761     		str	r7, [r4, #16]
 1949              		.loc 1 415 0
 1950 064a FFF7FEFF 		bl	chThdSleep
 1951              	.LVL65:
 1952              		.loc 1 416 0
 1953 064e 2B68     		ldr	r3, [r5]
 1954              		.loc 1 418 0
 1955 0650 0021     		movs	r1, #0
ARM GAS  /tmp/ccGrz3Xa.s 			page 96


 1956 0652 40F20000 		movw	r0, #:lower16:PWMD1
 1957              		.loc 1 416 0
 1958 0656 0133     		adds	r3, r3, #1
 1959              		.loc 1 418 0
 1960 0658 0A46     		mov	r2, r1
 1961 065a C0F20000 		movt	r0, #:upper16:PWMD1
 1962              		.loc 1 416 0
 1963 065e 2B60     		str	r3, [r5]
 1964              		.loc 1 418 0
 1965 0660 FFF7FEFF 		bl	pwmEnableChannel
 1966              	.LVL66:
 1967              		.loc 1 419 0
 1968 0664 0021     		movs	r1, #0
 1969 0666 40F20000 		movw	r0, #:lower16:PWMD3
 1970 066a C0F20000 		movt	r0, #:upper16:PWMD3
 1971 066e 0A46     		mov	r2, r1
 1972 0670 FFF7FEFF 		bl	pwmEnableChannel
 1973              	.LVL67:
 1974              		.loc 1 420 0
 1975 0674 C4F810A0 		str	r10, [r4, #16]
 1976              		.loc 1 422 0
 1977 0678 4FF47A70 		mov	r0, #1000
 1978              		.loc 1 421 0
 1979 067c 2761     		str	r7, [r4, #16]
 1980              		.loc 1 422 0
 1981 067e FFF7FEFF 		bl	chThdSleep
 1982              	.LVL68:
 1983              	.L37:
 1984              		.loc 1 425 0
 1985 0682 079F     		ldr	r7, [sp, #28]
 1986 0684 3A68     		ldr	r2, [r7]
 1987 0686 099F     		ldr	r7, [sp, #36]
 1988 0688 3B68     		ldr	r3, [r7]
 1989 068a 40F20007 		movw	r7, #:lower16:.LANCHOR8
 1990 068e 9A42     		cmp	r2, r3
 1991 0690 C0F20007 		movt	r7, #:upper16:.LANCHOR8
 1992 0694 04DD     		ble	.L34
 1993              		.loc 1 425 0 is_stmt 0 discriminator 1
 1994 0696 2A68     		ldr	r2, [r5]
 1995 0698 3368     		ldr	r3, [r6]
 1996 069a 9A42     		cmp	r2, r3
 1997 069c 00F01A83 		beq	.L90
 1998              	.L34:
 1999              		.loc 1 456 0 is_stmt 1
 2000 06a0 A368     		ldr	r3, [r4, #8]
 2001 06a2 DB07     		lsls	r3, r3, #31
 2002 06a4 77D5     		bpl	.L40
 2003              		.loc 1 456 0 is_stmt 0 discriminator 1
 2004 06a6 A368     		ldr	r3, [r4, #8]
 2005 06a8 9F07     		lsls	r7, r3, #30
 2006 06aa 74D5     		bpl	.L40
 2007 06ac 059B     		ldr	r3, [sp, #20]
 2008 06ae 1B78     		ldrb	r3, [r3]	@ zero_extendqisi2
 2009 06b0 0693     		str	r3, [sp, #24]
 2010              		.loc 1 362 0 is_stmt 1
 2011 06b2 069B     		ldr	r3, [sp, #24]
 2012 06b4 002B     		cmp	r3, #0
ARM GAS  /tmp/ccGrz3Xa.s 			page 97


 2013 06b6 63D0     		beq	.L32
 2014              		.loc 1 363 0
 2015 06b8 2A68     		ldr	r2, [r5]
 2016 06ba 3368     		ldr	r3, [r6]
 2017 06bc 9A42     		cmp	r2, r3
 2018 06be 8ED1     		bne	.L31
 2019              	.L88:
 2020              		.loc 1 365 0
 2021 06c0 0021     		movs	r1, #0
 2022 06c2 40F20000 		movw	r0, #:lower16:PWMD1
 2023 06c6 0A46     		mov	r2, r1
 2024 06c8 C0F20000 		movt	r0, #:upper16:PWMD1
 2025 06cc FFF7FEFF 		bl	pwmEnableChannel
 2026              	.LVL69:
 2027              		.loc 1 366 0
 2028 06d0 0021     		movs	r1, #0
 2029 06d2 40F20000 		movw	r0, #:lower16:PWMD3
 2030 06d6 0A46     		mov	r2, r1
 2031              		.loc 1 368 0
 2032 06d8 4FF40067 		mov	r7, #2048
 2033              		.loc 1 367 0
 2034 06dc 4FF4007A 		mov	r10, #512
 2035              		.loc 1 366 0
 2036 06e0 C0F20000 		movt	r0, #:upper16:PWMD3
 2037 06e4 FFF7FEFF 		bl	pwmEnableChannel
 2038              	.LVL70:
 2039              		.loc 1 367 0
 2040 06e8 C4F810A0 		str	r10, [r4, #16]
 2041              		.loc 1 369 0
 2042 06ec 4FF47A70 		mov	r0, #1000
 2043              		.loc 1 368 0
 2044 06f0 2761     		str	r7, [r4, #16]
 2045              		.loc 1 369 0
 2046 06f2 FFF7FEFF 		bl	chThdSleep
 2047              	.LVL71:
 2048              		.loc 1 372 0
 2049 06f6 D8F80830 		ldr	r3, [r8, #8]
 2050 06fa 4FF47A7B 		mov	fp, #1000
 2051 06fe 0BFB03F3 		mul	r3, fp, r3
 2052 0702 A9FB03E2 		umull	lr, r2, r9, r3
 2053 0706 40F20000 		movw	r0, #:lower16:PWMD1
 2054 070a 520B     		lsrs	r2, r2, #13
 2055 070c C0F20000 		movt	r0, #:upper16:PWMD1
 2056 0710 0021     		movs	r1, #0
 2057 0712 FFF7FEFF 		bl	pwmEnableChannel
 2058              	.LVL72:
 2059              		.loc 1 373 0
 2060 0716 0021     		movs	r1, #0
 2061 0718 40F20000 		movw	r0, #:lower16:PWMD3
 2062 071c 0A46     		mov	r2, r1
 2063 071e C0F20000 		movt	r0, #:upper16:PWMD3
 2064 0722 FFF7FEFF 		bl	pwmEnableChannel
 2065              	.LVL73:
 2066              		.loc 1 374 0
 2067 0726 C4F810A0 		str	r10, [r4, #16]
 2068              		.loc 1 376 0
 2069 072a 40F22620 		movw	r0, #550
ARM GAS  /tmp/ccGrz3Xa.s 			page 98


 2070              		.loc 1 375 0
 2071 072e 2761     		str	r7, [r4, #16]
 2072              		.loc 1 376 0
 2073 0730 FFF7FEFF 		bl	chThdSleep
 2074              	.LVL74:
 2075              		.loc 1 379 0
 2076 0734 0021     		movs	r1, #0
 2077 0736 40F20000 		movw	r0, #:lower16:PWMD1
 2078 073a 0A46     		mov	r2, r1
 2079 073c C0F20000 		movt	r0, #:upper16:PWMD1
 2080 0740 FFF7FEFF 		bl	pwmEnableChannel
 2081              	.LVL75:
 2082              		.loc 1 380 0
 2083 0744 0021     		movs	r1, #0
 2084 0746 40F20000 		movw	r0, #:lower16:PWMD3
 2085 074a 0A46     		mov	r2, r1
 2086 074c C0F20000 		movt	r0, #:upper16:PWMD3
 2087 0750 FFF7FEFF 		bl	pwmEnableChannel
 2088              	.LVL76:
 2089              		.loc 1 381 0
 2090 0754 C4F810A0 		str	r10, [r4, #16]
 2091              		.loc 1 383 0
 2092 0758 5846     		mov	r0, fp
 2093              		.loc 1 382 0
 2094 075a 2761     		str	r7, [r4, #16]
 2095              		.loc 1 383 0
 2096 075c FFF7FEFF 		bl	chThdSleep
 2097              	.LVL77:
 2098              		.loc 1 388 0
 2099 0760 40F20000 		movw	r0, #:lower16:.LANCHOR7
 2100 0764 40F20001 		movw	r1, #:lower16:.LANCHOR5
 2101 0768 C0F20001 		movt	r1, #:upper16:.LANCHOR5
 2102 076c C0F20000 		movt	r0, #:upper16:.LANCHOR7
 2103 0770 0B68     		ldr	r3, [r1]
 2104 0772 0268     		ldr	r2, [r0]
 2105              		.loc 1 385 0
 2106 0774 059F     		ldr	r7, [sp, #20]
 2107 0776 0021     		movs	r1, #0
 2108              		.loc 1 388 0
 2109 0778 9A42     		cmp	r2, r3
 2110              		.loc 1 385 0
 2111 077a 3970     		strb	r1, [r7]
 2112              		.loc 1 388 0
 2113 077c 7FF42FAF 		bne	.L31
 2114              	.L32:
 2115              		.loc 1 528 0
 2116 0780 DDF81CE0 		ldr	lr, [sp, #28]
 2117 0784 0998     		ldr	r0, [sp, #36]
 2118 0786 DEF80020 		ldr	r2, [lr]
 2119 078a 0368     		ldr	r3, [r0]
 2120 078c 4746     		mov	r7, r8
 2121 078e 9A42     		cmp	r2, r3
 2122 0790 3FF4BEAE 		beq	.L51
 2123 0794 B9E5     		b	.L48
 2124              	.L40:
 2125              		.loc 1 458 0
 2126 0796 0021     		movs	r1, #0
ARM GAS  /tmp/ccGrz3Xa.s 			page 99


 2127 0798 40F20000 		movw	r0, #:lower16:PWMD1
 2128 079c 0A46     		mov	r2, r1
 2129 079e C0F20000 		movt	r0, #:upper16:PWMD1
 2130 07a2 FFF7FEFF 		bl	pwmEnableChannel
 2131              	.LVL78:
 2132              		.loc 1 459 0
 2133 07a6 0021     		movs	r1, #0
 2134 07a8 40F20000 		movw	r0, #:lower16:PWMD3
 2135              		.loc 1 461 0
 2136 07ac 4FF40067 		mov	r7, #2048
 2137              		.loc 1 460 0
 2138 07b0 4FF4007A 		mov	r10, #512
 2139              		.loc 1 459 0
 2140 07b4 0A46     		mov	r2, r1
 2141 07b6 C0F20000 		movt	r0, #:upper16:PWMD3
 2142 07ba FFF7FEFF 		bl	pwmEnableChannel
 2143              	.LVL79:
 2144              		.loc 1 460 0
 2145 07be C4F810A0 		str	r10, [r4, #16]
 2146              		.loc 1 462 0
 2147 07c2 4FF47A70 		mov	r0, #1000
 2148              		.loc 1 461 0
 2149 07c6 2761     		str	r7, [r4, #16]
 2150              		.loc 1 462 0
 2151 07c8 FFF7FEFF 		bl	chThdSleep
 2152              	.LVL80:
 2153              		.loc 1 465 0
 2154 07cc 0021     		movs	r1, #0
 2155 07ce 40F20000 		movw	r0, #:lower16:PWMD1
 2156 07d2 C0F20000 		movt	r0, #:upper16:PWMD1
 2157 07d6 0A46     		mov	r2, r1
 2158 07d8 FFF7FEFF 		bl	pwmEnableChannel
 2159              	.LVL81:
 2160              		.loc 1 466 0
 2161 07dc DDF820E0 		ldr	lr, [sp, #32]
 2162 07e0 4FF47A7B 		mov	fp, #1000
 2163 07e4 DEF80830 		ldr	r3, [lr, #8]
 2164 07e8 0021     		movs	r1, #0
 2165 07ea 0BFB03F3 		mul	r3, fp, r3
 2166 07ee A9FB0302 		umull	r0, r2, r9, r3
 2167 07f2 40F20000 		movw	r0, #:lower16:PWMD3
 2168 07f6 520B     		lsrs	r2, r2, #13
 2169 07f8 C0F20000 		movt	r0, #:upper16:PWMD3
 2170 07fc FFF7FEFF 		bl	pwmEnableChannel
 2171              	.LVL82:
 2172              		.loc 1 467 0
 2173 0800 C4F810A0 		str	r10, [r4, #16]
 2174              		.loc 1 469 0
 2175 0804 40F22620 		movw	r0, #550
 2176              		.loc 1 468 0
 2177 0808 2761     		str	r7, [r4, #16]
 2178              		.loc 1 469 0
 2179 080a FFF7FEFF 		bl	chThdSleep
 2180              	.LVL83:
 2181              		.loc 1 472 0
 2182 080e 0021     		movs	r1, #0
 2183 0810 40F20000 		movw	r0, #:lower16:PWMD1
ARM GAS  /tmp/ccGrz3Xa.s 			page 100


 2184 0814 0A46     		mov	r2, r1
 2185 0816 C0F20000 		movt	r0, #:upper16:PWMD1
 2186 081a FFF7FEFF 		bl	pwmEnableChannel
 2187              	.LVL84:
 2188              		.loc 1 473 0
 2189 081e 0021     		movs	r1, #0
 2190 0820 40F20000 		movw	r0, #:lower16:PWMD3
 2191 0824 0A46     		mov	r2, r1
 2192 0826 C0F20000 		movt	r0, #:upper16:PWMD3
 2193 082a FFF7FEFF 		bl	pwmEnableChannel
 2194              	.LVL85:
 2195              		.loc 1 474 0
 2196 082e C4F810A0 		str	r10, [r4, #16]
 2197              		.loc 1 476 0
 2198 0832 5846     		mov	r0, fp
 2199              		.loc 1 475 0
 2200 0834 2761     		str	r7, [r4, #16]
 2201              		.loc 1 476 0
 2202 0836 FFF7FEFF 		bl	chThdSleep
 2203              	.LVL86:
 2204              		.loc 1 479 0
 2205 083a D8F80820 		ldr	r2, [r8, #8]
 2206 083e 41F27073 		movw	r3, #6000
 2207 0842 03FB02F2 		mul	r2, r3, r2
 2208 0846 A9FB0212 		umull	r1, r2, r9, r2
 2209 084a 40F20000 		movw	r0, #:lower16:PWMD1
 2210 084e 0021     		movs	r1, #0
 2211 0850 520B     		lsrs	r2, r2, #13
 2212 0852 C0F20000 		movt	r0, #:upper16:PWMD1
 2213 0856 0393     		str	r3, [sp, #12]
 2214 0858 FFF7FEFF 		bl	pwmEnableChannel
 2215              	.LVL87:
 2216              		.loc 1 480 0
 2217 085c DDF820E0 		ldr	lr, [sp, #32]
 2218 0860 039B     		ldr	r3, [sp, #12]
 2219 0862 DEF80820 		ldr	r2, [lr, #8]
 2220 0866 40F20000 		movw	r0, #:lower16:PWMD3
 2221 086a 03FB02F2 		mul	r2, r3, r2
 2222 086e A9FB0212 		umull	r1, r2, r9, r2
 2223 0872 C0F20000 		movt	r0, #:upper16:PWMD3
 2224 0876 520B     		lsrs	r2, r2, #13
 2225 0878 0021     		movs	r1, #0
 2226 087a FFF7FEFF 		bl	pwmEnableChannel
 2227              	.LVL88:
 2228              		.loc 1 481 0
 2229 087e C4F810A0 		str	r10, [r4, #16]
 2230              		.loc 1 483 0
 2231 0882 40F2DC50 		movw	r0, #1500
 2232              		.loc 1 482 0
 2233 0886 2761     		str	r7, [r4, #16]
 2234              		.loc 1 483 0
 2235 0888 FFF7FEFF 		bl	chThdSleep
 2236              	.LVL89:
 2237              		.loc 1 484 0
 2238 088c 079A     		ldr	r2, [sp, #28]
 2239 088e DDF81CE0 		ldr	lr, [sp, #28]
 2240 0892 1368     		ldr	r3, [r2]
ARM GAS  /tmp/ccGrz3Xa.s 			page 101


 2241              		.loc 1 487 0
 2242 0894 0021     		movs	r1, #0
 2243 0896 40F20000 		movw	r0, #:lower16:PWMD1
 2244              		.loc 1 484 0
 2245 089a 0133     		adds	r3, r3, #1
 2246              		.loc 1 487 0
 2247 089c 0A46     		mov	r2, r1
 2248 089e C0F20000 		movt	r0, #:upper16:PWMD1
 2249              		.loc 1 484 0
 2250 08a2 CEF80030 		str	r3, [lr]
 2251              		.loc 1 487 0
 2252 08a6 FFF7FEFF 		bl	pwmEnableChannel
 2253              	.LVL90:
 2254              		.loc 1 488 0
 2255 08aa 0021     		movs	r1, #0
 2256 08ac 40F20000 		movw	r0, #:lower16:PWMD3
 2257 08b0 0A46     		mov	r2, r1
 2258 08b2 C0F20000 		movt	r0, #:upper16:PWMD3
 2259 08b6 FFF7FEFF 		bl	pwmEnableChannel
 2260              	.LVL91:
 2261              		.loc 1 489 0
 2262 08ba C4F810A0 		str	r10, [r4, #16]
 2263              		.loc 1 491 0
 2264 08be 5846     		mov	r0, fp
 2265              		.loc 1 490 0
 2266 08c0 2761     		str	r7, [r4, #16]
 2267              		.loc 1 491 0
 2268 08c2 FFF7FEFF 		bl	chThdSleep
 2269              	.LVL92:
 2270              		.loc 1 494 0
 2271 08c6 D8F80830 		ldr	r3, [r8, #8]
 2272 08ca 40F20000 		movw	r0, #:lower16:PWMD1
 2273 08ce 0BFB03F3 		mul	r3, fp, r3
 2274 08d2 A9FB0312 		umull	r1, r2, r9, r3
 2275 08d6 C0F20000 		movt	r0, #:upper16:PWMD1
 2276 08da 520B     		lsrs	r2, r2, #13
 2277 08dc 0021     		movs	r1, #0
 2278 08de FFF7FEFF 		bl	pwmEnableChannel
 2279              	.LVL93:
 2280              		.loc 1 495 0
 2281 08e2 0021     		movs	r1, #0
 2282 08e4 40F20000 		movw	r0, #:lower16:PWMD3
 2283 08e8 0A46     		mov	r2, r1
 2284 08ea C0F20000 		movt	r0, #:upper16:PWMD3
 2285 08ee FFF7FEFF 		bl	pwmEnableChannel
 2286              	.LVL94:
 2287              		.loc 1 496 0
 2288 08f2 C4F810A0 		str	r10, [r4, #16]
 2289              		.loc 1 498 0
 2290 08f6 40F22620 		movw	r0, #550
 2291              		.loc 1 497 0
 2292 08fa 2761     		str	r7, [r4, #16]
 2293              		.loc 1 498 0
 2294 08fc FFF7FEFF 		bl	chThdSleep
 2295              	.LVL95:
 2296              		.loc 1 501 0
 2297 0900 0021     		movs	r1, #0
ARM GAS  /tmp/ccGrz3Xa.s 			page 102


 2298 0902 40F20000 		movw	r0, #:lower16:PWMD1
 2299 0906 0A46     		mov	r2, r1
 2300 0908 C0F20000 		movt	r0, #:upper16:PWMD1
 2301 090c FFF7FEFF 		bl	pwmEnableChannel
 2302              	.LVL96:
 2303              		.loc 1 502 0
 2304 0910 0021     		movs	r1, #0
 2305 0912 40F20000 		movw	r0, #:lower16:PWMD3
 2306 0916 0A46     		mov	r2, r1
 2307 0918 C0F20000 		movt	r0, #:upper16:PWMD3
 2308 091c FFF7FEFF 		bl	pwmEnableChannel
 2309              	.LVL97:
 2310              		.loc 1 503 0
 2311 0920 C4F810A0 		str	r10, [r4, #16]
 2312              		.loc 1 505 0
 2313 0924 5846     		mov	r0, fp
 2314              		.loc 1 504 0
 2315 0926 2761     		str	r7, [r4, #16]
 2316              		.loc 1 505 0
 2317 0928 FFF7FEFF 		bl	chThdSleep
 2318              	.LVL98:
 2319              		.loc 1 508 0
 2320 092c D8F80820 		ldr	r2, [r8, #8]
 2321 0930 41F28833 		movw	r3, #5000
 2322 0934 03FB02F2 		mul	r2, r3, r2
 2323 0938 A9FB02E2 		umull	lr, r2, r9, r2
 2324 093c 40F20000 		movw	r0, #:lower16:PWMD1
 2325 0940 0021     		movs	r1, #0
 2326 0942 520B     		lsrs	r2, r2, #13
 2327 0944 C0F20000 		movt	r0, #:upper16:PWMD1
 2328 0948 0393     		str	r3, [sp, #12]
 2329 094a FFF7FEFF 		bl	pwmEnableChannel
 2330              	.LVL99:
 2331              		.loc 1 509 0
 2332 094e 0898     		ldr	r0, [sp, #32]
 2333 0950 039B     		ldr	r3, [sp, #12]
 2334 0952 8268     		ldr	r2, [r0, #8]
 2335 0954 40F20000 		movw	r0, #:lower16:PWMD3
 2336 0958 03FB02F2 		mul	r2, r3, r2
 2337 095c A9FB0212 		umull	r1, r2, r9, r2
 2338 0960 C0F20000 		movt	r0, #:upper16:PWMD3
 2339 0964 520B     		lsrs	r2, r2, #13
 2340 0966 0021     		movs	r1, #0
 2341 0968 FFF7FEFF 		bl	pwmEnableChannel
 2342              	.LVL100:
 2343              		.loc 1 510 0
 2344 096c C4F810A0 		str	r10, [r4, #16]
 2345              		.loc 1 512 0
 2346 0970 40F2DC50 		movw	r0, #1500
 2347              		.loc 1 511 0
 2348 0974 2761     		str	r7, [r4, #16]
 2349              		.loc 1 512 0
 2350 0976 FFF7FEFF 		bl	chThdSleep
 2351              	.LVL101:
 2352              		.loc 1 513 0
 2353 097a 2B68     		ldr	r3, [r5]
 2354              		.loc 1 516 0
ARM GAS  /tmp/ccGrz3Xa.s 			page 103


 2355 097c 0021     		movs	r1, #0
 2356 097e 40F20000 		movw	r0, #:lower16:PWMD1
 2357              		.loc 1 513 0
 2358 0982 0133     		adds	r3, r3, #1
 2359              		.loc 1 516 0
 2360 0984 0A46     		mov	r2, r1
 2361 0986 C0F20000 		movt	r0, #:upper16:PWMD1
 2362              		.loc 1 513 0
 2363 098a 2B60     		str	r3, [r5]
 2364              		.loc 1 516 0
 2365 098c FFF7FEFF 		bl	pwmEnableChannel
 2366              	.LVL102:
 2367              		.loc 1 517 0
 2368 0990 0021     		movs	r1, #0
 2369 0992 40F20000 		movw	r0, #:lower16:PWMD3
 2370 0996 C0F20000 		movt	r0, #:upper16:PWMD3
 2371 099a 0A46     		mov	r2, r1
 2372 099c FFF7FEFF 		bl	pwmEnableChannel
 2373              	.LVL103:
 2374              		.loc 1 518 0
 2375 09a0 C4F810A0 		str	r10, [r4, #16]
 2376              		.loc 1 520 0
 2377 09a4 5846     		mov	r0, fp
 2378              		.loc 1 519 0
 2379 09a6 2761     		str	r7, [r4, #16]
 2380              		.loc 1 520 0
 2381 09a8 FFF7FEFF 		bl	chThdSleep
 2382              	.LVL104:
 2383              		.loc 1 522 0
 2384 09ac 059F     		ldr	r7, [sp, #20]
 2385 09ae 0123     		movs	r3, #1
 2386 09b0 3B70     		strb	r3, [r7]
 2387 09b2 0CE6     		b	.L30
 2388              	.L89:
 2389              		.loc 1 393 0
 2390 09b4 D8F80830 		ldr	r3, [r8, #8]
 2391 09b8 41F27077 		movw	r7, #6000
 2392 09bc 07FB03F3 		mul	r3, r7, r3
 2393 09c0 A9FB03E2 		umull	lr, r2, r9, r3
 2394 09c4 40F20000 		movw	r0, #:lower16:PWMD1
 2395 09c8 0021     		movs	r1, #0
 2396 09ca 520B     		lsrs	r2, r2, #13
 2397 09cc C0F20000 		movt	r0, #:upper16:PWMD1
 2398 09d0 FFF7FEFF 		bl	pwmEnableChannel
 2399              	.LVL105:
 2400              		.loc 1 394 0
 2401 09d4 0898     		ldr	r0, [sp, #32]
 2402              		.loc 1 395 0
 2403 09d6 4FF4007A 		mov	r10, #512
 2404              		.loc 1 394 0
 2405 09da 8368     		ldr	r3, [r0, #8]
 2406 09dc 40F20000 		movw	r0, #:lower16:PWMD3
 2407 09e0 07FB03F3 		mul	r3, r7, r3
 2408 09e4 A9FB0312 		umull	r1, r2, r9, r3
 2409              		.loc 1 396 0
 2410 09e8 4FF40067 		mov	r7, #2048
 2411              		.loc 1 394 0
ARM GAS  /tmp/ccGrz3Xa.s 			page 104


 2412 09ec 520B     		lsrs	r2, r2, #13
 2413 09ee 0021     		movs	r1, #0
 2414 09f0 C0F20000 		movt	r0, #:upper16:PWMD3
 2415 09f4 FFF7FEFF 		bl	pwmEnableChannel
 2416              	.LVL106:
 2417              		.loc 1 395 0
 2418 09f8 C4F810A0 		str	r10, [r4, #16]
 2419              		.loc 1 397 0
 2420 09fc 4FF47A70 		mov	r0, #1000
 2421              		.loc 1 396 0
 2422 0a00 2761     		str	r7, [r4, #16]
 2423              		.loc 1 397 0
 2424 0a02 FFF7FEFF 		bl	chThdSleep
 2425              	.LVL107:
 2426              		.loc 1 398 0
 2427 0a06 2B68     		ldr	r3, [r5]
 2428              		.loc 1 400 0
 2429 0a08 0021     		movs	r1, #0
 2430 0a0a 40F20000 		movw	r0, #:lower16:PWMD1
 2431              		.loc 1 398 0
 2432 0a0e 0133     		adds	r3, r3, #1
 2433              		.loc 1 400 0
 2434 0a10 0A46     		mov	r2, r1
 2435 0a12 C0F20000 		movt	r0, #:upper16:PWMD1
 2436              		.loc 1 398 0
 2437 0a16 2B60     		str	r3, [r5]
 2438              		.loc 1 400 0
 2439 0a18 FFF7FEFF 		bl	pwmEnableChannel
 2440              	.LVL108:
 2441              		.loc 1 401 0
 2442 0a1c 0021     		movs	r1, #0
 2443 0a1e 40F20000 		movw	r0, #:lower16:PWMD3
 2444 0a22 0A46     		mov	r2, r1
 2445 0a24 C0F20000 		movt	r0, #:upper16:PWMD3
 2446 0a28 FFF7FEFF 		bl	pwmEnableChannel
 2447              	.LVL109:
 2448              		.loc 1 402 0
 2449 0a2c C4F810A0 		str	r10, [r4, #16]
 2450              		.loc 1 404 0
 2451 0a30 4FF47A70 		mov	r0, #1000
 2452              		.loc 1 403 0
 2453 0a34 2761     		str	r7, [r4, #16]
 2454              		.loc 1 404 0
 2455 0a36 FFF7FEFF 		bl	chThdSleep
 2456              	.LVL110:
 2457              		.loc 1 409 0
 2458 0a3a 2A68     		ldr	r2, [r5]
 2459 0a3c 3368     		ldr	r3, [r6]
 2460 0a3e 511C     		adds	r1, r2, #1
 2461              		.loc 1 406 0
 2462 0a40 059F     		ldr	r7, [sp, #20]
 2463 0a42 0020     		movs	r0, #0
 2464              		.loc 1 409 0
 2465 0a44 9942     		cmp	r1, r3
 2466              		.loc 1 406 0
 2467 0a46 3870     		strb	r0, [r7]
 2468              		.loc 1 409 0
ARM GAS  /tmp/ccGrz3Xa.s 			page 105


 2469 0a48 3FF41BAE 		beq	.L37
 2470              		.loc 1 409 0 is_stmt 0 discriminator 1
 2471 0a4c 9A42     		cmp	r2, r3
 2472 0a4e 7FF4D5AD 		bne	.L50
 2473 0a52 16E6     		b	.L37
 2474              	.L87:
 2475              		.loc 1 582 0 is_stmt 1
 2476 0a54 FFF7FEFF 		bl	pwmEnableChannel
 2477              	.LVL111:
 2478              		.loc 1 583 0
 2479 0a58 0021     		movs	r1, #0
 2480 0a5a 40F20000 		movw	r0, #:lower16:PWMD3
 2481              		.loc 1 584 0
 2482 0a5e 4FF4007A 		mov	r10, #512
 2483              		.loc 1 585 0
 2484 0a62 4FF4006B 		mov	fp, #2048
 2485              		.loc 1 583 0
 2486 0a66 0A46     		mov	r2, r1
 2487 0a68 C0F20000 		movt	r0, #:upper16:PWMD3
 2488 0a6c FFF7FEFF 		bl	pwmEnableChannel
 2489              	.LVL112:
 2490              		.loc 1 584 0
 2491 0a70 C4F810A0 		str	r10, [r4, #16]
 2492              		.loc 1 586 0
 2493 0a74 41F28830 		movw	r0, #5000
 2494              		.loc 1 585 0
 2495 0a78 C4F810B0 		str	fp, [r4, #16]
 2496              		.loc 1 586 0
 2497 0a7c FFF7FEFF 		bl	chThdSleep
 2498              	.LVL113:
 2499              		.loc 1 589 0
 2500 0a80 BB68     		ldr	r3, [r7, #8]
 2501 0a82 4FF47A70 		mov	r0, #1000
 2502 0a86 00FB03F3 		mul	r3, r0, r3
 2503 0a8a 0A99     		ldr	r1, [sp, #40]
 2504 0a8c 40F20000 		movw	r0, #:lower16:PWMD1
 2505 0a90 A1FB0312 		umull	r1, r2, r1, r3
 2506 0a94 C0F20000 		movt	r0, #:upper16:PWMD1
 2507 0a98 520B     		lsrs	r2, r2, #13
 2508 0a9a 0021     		movs	r1, #0
 2509 0a9c FFF7FEFF 		bl	pwmEnableChannel
 2510              	.LVL114:
 2511              		.loc 1 590 0
 2512 0aa0 0021     		movs	r1, #0
 2513 0aa2 40F20000 		movw	r0, #:lower16:PWMD3
 2514 0aa6 0A46     		mov	r2, r1
 2515 0aa8 C0F20000 		movt	r0, #:upper16:PWMD3
 2516 0aac FFF7FEFF 		bl	pwmEnableChannel
 2517              	.LVL115:
 2518              		.loc 1 591 0
 2519 0ab0 C4F810A0 		str	r10, [r4, #16]
 2520              		.loc 1 593 0
 2521 0ab4 40F22620 		movw	r0, #550
 2522              		.loc 1 592 0
 2523 0ab8 C4F810B0 		str	fp, [r4, #16]
 2524              		.loc 1 593 0
 2525 0abc FFF7FEFF 		bl	chThdSleep
ARM GAS  /tmp/ccGrz3Xa.s 			page 106


 2526              	.LVL116:
 2527              		.loc 1 596 0
 2528 0ac0 0021     		movs	r1, #0
 2529 0ac2 40F20000 		movw	r0, #:lower16:PWMD1
 2530 0ac6 0A46     		mov	r2, r1
 2531 0ac8 C0F20000 		movt	r0, #:upper16:PWMD1
 2532 0acc FFF7FEFF 		bl	pwmEnableChannel
 2533              	.LVL117:
 2534              		.loc 1 597 0
 2535 0ad0 0021     		movs	r1, #0
 2536 0ad2 40F20000 		movw	r0, #:lower16:PWMD3
 2537 0ad6 0A46     		mov	r2, r1
 2538 0ad8 C0F20000 		movt	r0, #:upper16:PWMD3
 2539 0adc FFF7FEFF 		bl	pwmEnableChannel
 2540              	.LVL118:
 2541              		.loc 1 598 0
 2542 0ae0 C4F810A0 		str	r10, [r4, #16]
 2543              		.loc 1 600 0
 2544 0ae4 4FF47A70 		mov	r0, #1000
 2545              		.loc 1 599 0
 2546 0ae8 C4F810B0 		str	fp, [r4, #16]
 2547              		.loc 1 600 0
 2548 0aec FFF7FEFF 		bl	chThdSleep
 2549              	.LVL119:
 2550              		.loc 1 603 0
 2551 0af0 BB68     		ldr	r3, [r7, #8]
 2552 0af2 41F27072 		movw	r2, #6000
 2553 0af6 02FB03F3 		mul	r3, r2, r3
 2554 0afa DDF828E0 		ldr	lr, [sp, #40]
 2555 0afe 40F20000 		movw	r0, #:lower16:PWMD1
 2556 0b02 AEFB03E2 		umull	lr, r2, lr, r3
 2557 0b06 C0F20000 		movt	r0, #:upper16:PWMD1
 2558 0b0a 520B     		lsrs	r2, r2, #13
 2559 0b0c 0021     		movs	r1, #0
 2560 0b0e FFF7FEFF 		bl	pwmEnableChannel
 2561              	.LVL120:
 2562              		.loc 1 604 0
 2563 0b12 0898     		ldr	r0, [sp, #32]
 2564 0b14 41F27071 		movw	r1, #6000
 2565 0b18 8368     		ldr	r3, [r0, #8]
 2566 0b1a DDF828E0 		ldr	lr, [sp, #40]
 2567 0b1e 01FB03F3 		mul	r3, r1, r3
 2568 0b22 AEFB03E2 		umull	lr, r2, lr, r3
 2569 0b26 40F20000 		movw	r0, #:lower16:PWMD3
 2570 0b2a 0021     		movs	r1, #0
 2571 0b2c 520B     		lsrs	r2, r2, #13
 2572 0b2e C0F20000 		movt	r0, #:upper16:PWMD3
 2573 0b32 FFF7FEFF 		bl	pwmEnableChannel
 2574              	.LVL121:
 2575              		.loc 1 607 0
 2576 0b36 4EF26039 		movw	r9, #58208
 2577 0b3a D8F80000 		ldr	r0, [r8]
 2578 0b3e C0F21609 		movt	r9, 22
 2579 0b42 09FB00F0 		mul	r0, r9, r0
 2580 0b46 44F6D358 		movw	r8, #19923
 2581 0b4a C1F26208 		movt	r8, 4194
 2582 0b4e 00F2E730 		addw	r0, r0, #999
ARM GAS  /tmp/ccGrz3Xa.s 			page 107


 2583 0b52 A8FB0010 		umull	r1, r0, r8, r0
 2584              		.loc 1 605 0
 2585 0b56 C4F810A0 		str	r10, [r4, #16]
 2586              		.loc 1 607 0
 2587 0b5a C0F38F10 		ubfx	r0, r0, #6, #16
 2588              		.loc 1 606 0
 2589 0b5e C4F810B0 		str	fp, [r4, #16]
 2590              		.loc 1 607 0
 2591 0b62 FFF7FEFF 		bl	chThdSleep
 2592              	.LVL122:
 2593              		.loc 1 610 0
 2594 0b66 0021     		movs	r1, #0
 2595 0b68 40F20000 		movw	r0, #:lower16:PWMD1
 2596 0b6c 0A46     		mov	r2, r1
 2597 0b6e C0F20000 		movt	r0, #:upper16:PWMD1
 2598 0b72 FFF7FEFF 		bl	pwmEnableChannel
 2599              	.LVL123:
 2600              		.loc 1 611 0
 2601 0b76 089A     		ldr	r2, [sp, #32]
 2602 0b78 4FF47A7E 		mov	lr, #1000
 2603 0b7c 9368     		ldr	r3, [r2, #8]
 2604 0b7e 0A99     		ldr	r1, [sp, #40]
 2605 0b80 0EFB03F3 		mul	r3, lr, r3
 2606 0b84 A1FB0312 		umull	r1, r2, r1, r3
 2607 0b88 40F20000 		movw	r0, #:lower16:PWMD3
 2608 0b8c 520B     		lsrs	r2, r2, #13
 2609 0b8e 0021     		movs	r1, #0
 2610 0b90 C0F20000 		movt	r0, #:upper16:PWMD3
 2611 0b94 FFF7FEFF 		bl	pwmEnableChannel
 2612              	.LVL124:
 2613              		.loc 1 612 0
 2614 0b98 C4F810A0 		str	r10, [r4, #16]
 2615              		.loc 1 614 0
 2616 0b9c 40F22620 		movw	r0, #550
 2617              		.loc 1 613 0
 2618 0ba0 C4F810B0 		str	fp, [r4, #16]
 2619              		.loc 1 614 0
 2620 0ba4 FFF7FEFF 		bl	chThdSleep
 2621              	.LVL125:
 2622              		.loc 1 617 0
 2623 0ba8 BB68     		ldr	r3, [r7, #8]
 2624 0baa 41F27072 		movw	r2, #6000
 2625 0bae 02FB03F3 		mul	r3, r2, r3
 2626 0bb2 DDF828E0 		ldr	lr, [sp, #40]
 2627 0bb6 40F20000 		movw	r0, #:lower16:PWMD1
 2628 0bba AEFB03E2 		umull	lr, r2, lr, r3
 2629 0bbe C0F20000 		movt	r0, #:upper16:PWMD1
 2630 0bc2 520B     		lsrs	r2, r2, #13
 2631 0bc4 0021     		movs	r1, #0
 2632 0bc6 FFF7FEFF 		bl	pwmEnableChannel
 2633              	.LVL126:
 2634              		.loc 1 618 0
 2635 0bca 0898     		ldr	r0, [sp, #32]
 2636 0bcc 41F27071 		movw	r1, #6000
 2637 0bd0 8368     		ldr	r3, [r0, #8]
 2638 0bd2 DDF828E0 		ldr	lr, [sp, #40]
 2639 0bd6 01FB03F3 		mul	r3, r1, r3
ARM GAS  /tmp/ccGrz3Xa.s 			page 108


 2640 0bda AEFB03E2 		umull	lr, r2, lr, r3
 2641 0bde 40F20000 		movw	r0, #:lower16:PWMD3
 2642 0be2 520B     		lsrs	r2, r2, #13
 2643 0be4 C0F20000 		movt	r0, #:upper16:PWMD3
 2644 0be8 0021     		movs	r1, #0
 2645 0bea FFF7FEFF 		bl	pwmEnableChannel
 2646              	.LVL127:
 2647              		.loc 1 621 0
 2648 0bee 0999     		ldr	r1, [sp, #36]
 2649 0bf0 0868     		ldr	r0, [r1]
 2650              		.loc 1 619 0
 2651 0bf2 C4F810A0 		str	r10, [r4, #16]
 2652              		.loc 1 621 0
 2653 0bf6 09FB00F0 		mul	r0, r9, r0
 2654 0bfa 00F2E730 		addw	r0, r0, #999
 2655 0bfe A8FB0020 		umull	r2, r0, r8, r0
 2656              		.loc 1 620 0
 2657 0c02 C4F810B0 		str	fp, [r4, #16]
 2658              		.loc 1 621 0
 2659 0c06 C0F38F10 		ubfx	r0, r0, #6, #16
 2660 0c0a FFF7FEFF 		bl	chThdSleep
 2661              	.LVL128:
 2662              		.loc 1 624 0
 2663 0c0e 0021     		movs	r1, #0
 2664 0c10 40F20000 		movw	r0, #:lower16:PWMD1
 2665 0c14 0A46     		mov	r2, r1
 2666 0c16 C0F20000 		movt	r0, #:upper16:PWMD1
 2667 0c1a FFF7FEFF 		bl	pwmEnableChannel
 2668              	.LVL129:
 2669              		.loc 1 625 0
 2670 0c1e DDF820E0 		ldr	lr, [sp, #32]
 2671 0c22 4FF47A71 		mov	r1, #1000
 2672 0c26 DEF80830 		ldr	r3, [lr, #8]
 2673 0c2a DDF828E0 		ldr	lr, [sp, #40]
 2674 0c2e 01FB03F3 		mul	r3, r1, r3
 2675 0c32 AEFB03E2 		umull	lr, r2, lr, r3
 2676 0c36 40F20000 		movw	r0, #:lower16:PWMD3
 2677 0c3a 520B     		lsrs	r2, r2, #13
 2678 0c3c 0021     		movs	r1, #0
 2679 0c3e C0F20000 		movt	r0, #:upper16:PWMD3
 2680 0c42 FFF7FEFF 		bl	pwmEnableChannel
 2681              	.LVL130:
 2682              		.loc 1 626 0
 2683 0c46 C4F810A0 		str	r10, [r4, #16]
 2684              		.loc 1 628 0
 2685 0c4a 40F22620 		movw	r0, #550
 2686              		.loc 1 627 0
 2687 0c4e C4F810B0 		str	fp, [r4, #16]
 2688              		.loc 1 628 0
 2689 0c52 FFF7FEFF 		bl	chThdSleep
 2690              	.LVL131:
 2691              		.loc 1 631 0
 2692 0c56 0021     		movs	r1, #0
 2693 0c58 40F20000 		movw	r0, #:lower16:PWMD1
 2694 0c5c 0A46     		mov	r2, r1
 2695 0c5e C0F20000 		movt	r0, #:upper16:PWMD1
 2696 0c62 FFF7FEFF 		bl	pwmEnableChannel
ARM GAS  /tmp/ccGrz3Xa.s 			page 109


 2697              	.LVL132:
 2698              		.loc 1 632 0
 2699 0c66 0898     		ldr	r0, [sp, #32]
 2700 0c68 4FF47A71 		mov	r1, #1000
 2701 0c6c 8368     		ldr	r3, [r0, #8]
 2702 0c6e DDF828E0 		ldr	lr, [sp, #40]
 2703 0c72 01FB03F3 		mul	r3, r1, r3
 2704 0c76 AEFB03E2 		umull	lr, r2, lr, r3
 2705 0c7a 40F20000 		movw	r0, #:lower16:PWMD3
 2706 0c7e 520B     		lsrs	r2, r2, #13
 2707 0c80 0021     		movs	r1, #0
 2708 0c82 C0F20000 		movt	r0, #:upper16:PWMD3
 2709 0c86 FFF7FEFF 		bl	pwmEnableChannel
 2710              	.LVL133:
 2711              		.loc 1 633 0
 2712 0c8a C4F810A0 		str	r10, [r4, #16]
 2713              		.loc 1 635 0
 2714 0c8e 40F22620 		movw	r0, #550
 2715              		.loc 1 634 0
 2716 0c92 C4F810B0 		str	fp, [r4, #16]
 2717              		.loc 1 635 0
 2718 0c96 FFF7FEFF 		bl	chThdSleep
 2719              	.LVL134:
 2720              		.loc 1 638 0
 2721 0c9a 0021     		movs	r1, #0
 2722 0c9c 40F20000 		movw	r0, #:lower16:PWMD1
 2723 0ca0 0A46     		mov	r2, r1
 2724 0ca2 C0F20000 		movt	r0, #:upper16:PWMD1
 2725 0ca6 FFF7FEFF 		bl	pwmEnableChannel
 2726              	.LVL135:
 2727              		.loc 1 639 0
 2728 0caa 0021     		movs	r1, #0
 2729 0cac 40F20000 		movw	r0, #:lower16:PWMD3
 2730 0cb0 C0F20000 		movt	r0, #:upper16:PWMD3
 2731 0cb4 0A46     		mov	r2, r1
 2732 0cb6 FFF7FEFF 		bl	pwmEnableChannel
 2733              	.LVL136:
 2734              		.loc 1 640 0
 2735 0cba C4F810A0 		str	r10, [r4, #16]
 2736              		.loc 1 642 0
 2737 0cbe 41F28830 		movw	r0, #5000
 2738              		.loc 1 641 0
 2739 0cc2 C4F810B0 		str	fp, [r4, #16]
 2740              		.loc 1 642 0
 2741 0cc6 FFF7FEFF 		bl	chThdSleep
 2742              	.LVL137:
 2743              		.loc 1 644 0
 2744 0cca 0B98     		ldr	r0, [sp, #44]
 2745 0ccc 0023     		movs	r3, #0
 2746 0cce 0360     		str	r3, [r0]
 2747              		.loc 1 645 0
 2748 0cd0 FFF7B8BA 		b	.L28
 2749              	.L90:
 2750              		.loc 1 427 0
 2751 0cd4 0021     		movs	r1, #0
 2752 0cd6 40F20000 		movw	r0, #:lower16:PWMD1
 2753 0cda 0A46     		mov	r2, r1
ARM GAS  /tmp/ccGrz3Xa.s 			page 110


 2754 0cdc C0F20000 		movt	r0, #:upper16:PWMD1
 2755 0ce0 FFF7FEFF 		bl	pwmEnableChannel
 2756              	.LVL138:
 2757              		.loc 1 428 0
 2758 0ce4 0021     		movs	r1, #0
 2759 0ce6 40F20000 		movw	r0, #:lower16:PWMD3
 2760 0cea 0A46     		mov	r2, r1
 2761              		.loc 1 429 0
 2762 0cec 4FF4007B 		mov	fp, #512
 2763              		.loc 1 430 0
 2764 0cf0 4FF4006A 		mov	r10, #2048
 2765              		.loc 1 428 0
 2766 0cf4 C0F20000 		movt	r0, #:upper16:PWMD3
 2767 0cf8 FFF7FEFF 		bl	pwmEnableChannel
 2768              	.LVL139:
 2769              		.loc 1 429 0
 2770 0cfc C4F810B0 		str	fp, [r4, #16]
 2771              		.loc 1 431 0
 2772 0d00 4FF47A70 		mov	r0, #1000
 2773              		.loc 1 430 0
 2774 0d04 C4F810A0 		str	r10, [r4, #16]
 2775              		.loc 1 431 0
 2776 0d08 FFF7FEFF 		bl	chThdSleep
 2777              	.LVL140:
 2778              		.loc 1 433 0
 2779 0d0c D8F80820 		ldr	r2, [r8, #8]
 2780 0d10 4FF47A73 		mov	r3, #1000
 2781 0d14 03FB02F2 		mul	r2, r3, r2
 2782 0d18 A9FB02E2 		umull	lr, r2, r9, r2
 2783 0d1c 40F20000 		movw	r0, #:lower16:PWMD1
 2784 0d20 520B     		lsrs	r2, r2, #13
 2785 0d22 C0F20000 		movt	r0, #:upper16:PWMD1
 2786 0d26 0021     		movs	r1, #0
 2787 0d28 0393     		str	r3, [sp, #12]
 2788 0d2a FFF7FEFF 		bl	pwmEnableChannel
 2789              	.LVL141:
 2790              		.loc 1 434 0
 2791 0d2e 0021     		movs	r1, #0
 2792 0d30 40F20000 		movw	r0, #:lower16:PWMD3
 2793 0d34 0A46     		mov	r2, r1
 2794 0d36 C0F20000 		movt	r0, #:upper16:PWMD3
 2795 0d3a FFF7FEFF 		bl	pwmEnableChannel
 2796              	.LVL142:
 2797              		.loc 1 435 0
 2798 0d3e C4F810B0 		str	fp, [r4, #16]
 2799              		.loc 1 437 0
 2800 0d42 40F22620 		movw	r0, #550
 2801              		.loc 1 436 0
 2802 0d46 C4F810A0 		str	r10, [r4, #16]
 2803              		.loc 1 437 0
 2804 0d4a FFF7FEFF 		bl	chThdSleep
 2805              	.LVL143:
 2806              		.loc 1 439 0
 2807 0d4e 0021     		movs	r1, #0
 2808 0d50 40F20000 		movw	r0, #:lower16:PWMD1
 2809 0d54 0A46     		mov	r2, r1
 2810 0d56 C0F20000 		movt	r0, #:upper16:PWMD1
ARM GAS  /tmp/ccGrz3Xa.s 			page 111


 2811 0d5a FFF7FEFF 		bl	pwmEnableChannel
 2812              	.LVL144:
 2813              		.loc 1 440 0
 2814 0d5e 0021     		movs	r1, #0
 2815 0d60 40F20000 		movw	r0, #:lower16:PWMD3
 2816 0d64 0A46     		mov	r2, r1
 2817 0d66 C0F20000 		movt	r0, #:upper16:PWMD3
 2818 0d6a FFF7FEFF 		bl	pwmEnableChannel
 2819              	.LVL145:
 2820              		.loc 1 443 0
 2821 0d6e 039B     		ldr	r3, [sp, #12]
 2822              		.loc 1 441 0
 2823 0d70 C4F810B0 		str	fp, [r4, #16]
 2824              		.loc 1 443 0
 2825 0d74 1846     		mov	r0, r3
 2826              		.loc 1 442 0
 2827 0d76 C4F810A0 		str	r10, [r4, #16]
 2828              		.loc 1 443 0
 2829 0d7a FFF7FEFF 		bl	chThdSleep
 2830              	.LVL146:
 2831              		.loc 1 445 0
 2832 0d7e D8F80820 		ldr	r2, [r8, #8]
 2833 0d82 41F2707C 		movw	ip, #6000
 2834 0d86 0CFB02F2 		mul	r2, ip, r2
 2835 0d8a A9FB0202 		umull	r0, r2, r9, r2
 2836 0d8e 40F20000 		movw	r0, #:lower16:PWMD1
 2837 0d92 520B     		lsrs	r2, r2, #13
 2838 0d94 C0F20000 		movt	r0, #:upper16:PWMD1
 2839 0d98 0021     		movs	r1, #0
 2840 0d9a CDF810C0 		str	ip, [sp, #16]
 2841 0d9e FFF7FEFF 		bl	pwmEnableChannel
 2842              	.LVL147:
 2843              		.loc 1 446 0
 2844 0da2 0899     		ldr	r1, [sp, #32]
 2845 0da4 DDF810C0 		ldr	ip, [sp, #16]
 2846 0da8 8A68     		ldr	r2, [r1, #8]
 2847 0daa 40F20000 		movw	r0, #:lower16:PWMD3
 2848 0dae 0CFB02F2 		mul	r2, ip, r2
 2849 0db2 A9FB02E2 		umull	lr, r2, r9, r2
 2850 0db6 C0F20000 		movt	r0, #:upper16:PWMD3
 2851 0dba 520B     		lsrs	r2, r2, #13
 2852 0dbc 0021     		movs	r1, #0
 2853 0dbe FFF7FEFF 		bl	pwmEnableChannel
 2854              	.LVL148:
 2855              		.loc 1 449 0
 2856 0dc2 039B     		ldr	r3, [sp, #12]
 2857              		.loc 1 447 0
 2858 0dc4 C4F810B0 		str	fp, [r4, #16]
 2859              		.loc 1 449 0
 2860 0dc8 1846     		mov	r0, r3
 2861              		.loc 1 448 0
 2862 0dca C4F810A0 		str	r10, [r4, #16]
 2863              		.loc 1 449 0
 2864 0dce FFF7FEFF 		bl	chThdSleep
 2865              	.LVL149:
 2866              		.loc 1 450 0
 2867 0dd2 3B68     		ldr	r3, [r7]
ARM GAS  /tmp/ccGrz3Xa.s 			page 112


 2868              		.loc 1 451 0
 2869 0dd4 0022     		movs	r2, #0
 2870              		.loc 1 450 0
 2871 0dd6 013B     		subs	r3, r3, #1
 2872 0dd8 3B60     		str	r3, [r7]
 2873              		.loc 1 451 0
 2874 0dda 059F     		ldr	r7, [sp, #20]
 2875 0ddc 3A70     		strb	r2, [r7]
 2876 0dde 5FE4     		b	.L34
 2877              		.cfi_endproc
 2878              	.LFE224:
 2879              		.size	main, .-main
 2880              		.global	s
 2881              		.global	PosCy
 2882              		.global	PosCx
 2883              		.global	PosFy
 2884              		.global	PosFx
 2885              		.global	temp
 2886              		.global	table
 2887              		.section	.bss.waThread2,"aw",%nobits
 2888              		.align	3
 2889              		.set	.LANCHOR2,. + 0
 2890              		.type	waThread2, %object
 2891              		.size	waThread2, 328
 2892              	waThread2:
 2893 0000 00000000 		.space	328
 2893      00000000 
 2893      00000000 
 2893      00000000 
 2893      00000000 
 2894              		.section	.data.pwmcfg,"aw",%progbits
 2895              		.align	2
 2896              		.set	.LANCHOR1,. + 0
 2897              		.type	pwmcfg, %object
 2898              		.size	pwmcfg, 52
 2899              	pwmcfg:
 2900 0000 10270000 		.word	10000
 2901 0004 F4010000 		.word	500
 2902 0008 00000000 		.word	pwmpcb
 2903 000c 01000000 		.word	1
 2904 0010 00000000 		.word	pwmc1cb
 2905 0014 00000000 		.word	0
 2906 0018 00000000 		.word	0
 2907 001c 00000000 		.word	0
 2908 0020 00000000 		.word	0
 2909 0024 00000000 		.word	0
 2910 0028 00000000 		.word	0
 2911 002c 00000000 		.word	0
 2912 0030 00000000 		.word	0
 2913              		.section	.bss.PosFx,"aw",%nobits
 2914              		.align	2
 2915              		.set	.LANCHOR4,. + 0
 2916              		.type	PosFx, %object
 2917              		.size	PosFx, 4
 2918              	PosFx:
 2919 0000 00000000 		.space	4
 2920              		.section	.bss.table,"aw",%nobits
ARM GAS  /tmp/ccGrz3Xa.s 			page 113


 2921              		.align	2
 2922              		.set	.LANCHOR3,. + 0
 2923              		.type	table, %object
 2924              		.size	table, 4
 2925              	table:
 2926 0000 00000000 		.space	4
 2927              		.section	.bss.PosFy,"aw",%nobits
 2928              		.align	2
 2929              		.set	.LANCHOR5,. + 0
 2930              		.type	PosFy, %object
 2931              		.size	PosFy, 4
 2932              	PosFy:
 2933 0000 00000000 		.space	4
 2934              		.section	.rodata.str1.4,"aMS",%progbits,1
 2935              		.align	2
 2936              	.LC0:
 2937 0000 73656E64 		.ascii	"send2uart\000"
 2937      32756172 
 2937      7400
 2938 000a 0000     		.space	2
 2939              	.LC1:
 2940 000c 636F6D75 		.ascii	"comunicacion STM32 \015\012\000"
 2940      6E696361 
 2940      63696F6E 
 2940      2053544D 
 2940      3332200D 
 2941 0022 0000     		.section	.bss.temp,"aw",%nobits
 2942              		.align	2
 2943              		.type	temp, %object
 2944              		.size	temp, 4
 2945              	temp:
 2946 0000 00000000 		.space	4
 2947              		.section	.data.pwmcfg1,"aw",%progbits
 2948              		.align	2
 2949              		.set	.LANCHOR0,. + 0
 2950              		.type	pwmcfg1, %object
 2951              		.size	pwmcfg1, 52
 2952              	pwmcfg1:
 2953 0000 10270000 		.word	10000
 2954 0004 F4010000 		.word	500
 2955 0008 00000000 		.word	pwmp2cb
 2956 000c 01000000 		.word	1
 2957 0010 00000000 		.word	pwmc2cb
 2958 0014 00000000 		.word	0
 2959 0018 00000000 		.word	0
 2960 001c 00000000 		.word	0
 2961 0020 00000000 		.word	0
 2962 0024 00000000 		.word	0
 2963 0028 00000000 		.word	0
 2964 002c 00000000 		.word	0
 2965 0030 00000000 		.word	0
 2966              		.section	.bss.PosCy,"aw",%nobits
 2967              		.align	2
 2968              		.set	.LANCHOR7,. + 0
 2969              		.type	PosCy, %object
 2970              		.size	PosCy, 4
 2971              	PosCy:
ARM GAS  /tmp/ccGrz3Xa.s 			page 114


 2972 0000 00000000 		.space	4
 2973              		.section	.data.s,"aw",%progbits
 2974              		.set	.LANCHOR6,. + 0
 2975              		.type	s, %object
 2976              		.size	s, 1
 2977              	s:
 2978 0000 01       		.byte	1
 2979              		.section	.bss.PosCx,"aw",%nobits
 2980              		.align	2
 2981              		.set	.LANCHOR8,. + 0
 2982              		.type	PosCx, %object
 2983              		.size	PosCx, 4
 2984              	PosCx:
 2985 0000 00000000 		.space	4
 2986              		.text
 2987              	.Letext0:
 2988              		.file 3 "/usr/lib/gcc/arm-none-eabi/4.8.2/include/stddef.h"
 2989              		.file 4 "/usr/include/newlib/machine/_default_types.h"
 2990              		.file 5 "/usr/include/newlib/stdint.h"
 2991              		.file 6 "../os/common/ports/ARMCMx/compilers/GCC/chtypes.h"
 2992              		.file 7 "../os/rt/include/chsystypes.h"
 2993              		.file 8 "../os/rt/include/chschd.h"
 2994              		.file 9 "../os/common/ext/CMSIS/ST/STM32F1xx/stm32f100xb.h"
 2995              		.file 10 "../os/common/ports/ARMCMx/chcore.h"
 2996              		.file 11 "../os/common/ports/ARMCMx/chcore_v7m.h"
 2997              		.file 12 "../os/hal/ports/STM32/LLD/TIMv1/stm32_tim.h"
 2998              		.file 13 "../os/rt/include/chsem.h"
 2999              		.file 14 "../os/rt/include/chmtx.h"
 3000              		.file 15 "../os/rt/include/chthreads.h"
 3001              		.file 16 "../os/rt/include/chevents.h"
 3002              		.file 17 "../os/hal/include/hal_streams.h"
 3003              		.file 18 "../os/hal/include/hal_queues.h"
 3004              		.file 19 "../os/hal/ports/STM32/LLD/GPIOv1/hal_pal_lld.h"
 3005              		.file 20 "../os/hal/include/hal_pwm.h"
 3006              		.file 21 "../os/hal/ports/STM32/LLD/TIMv1/hal_pwm_lld.h"
 3007              		.file 22 "../os/hal/include/hal_serial.h"
 3008              		.file 23 "../os/hal/ports/STM32/LLD/USARTv1/hal_serial_lld.h"
 3009              		.file 24 "../os/common/ext/CMSIS/include/core_cm3.h"
 3010              		.file 25 "../os/hal/include/hal.h"
 3011              		.file 26 "../os/rt/include/chsys.h"
 3012              		.file 27 "../os/hal/lib/streams/chprintf.h"
 3013              		.section	.debug_info,"",%progbits
 3014              	.Ldebug_info0:
 3015 0000 191D0000 		.4byte	0x1d19
 3016 0004 0400     		.2byte	0x4
 3017 0006 00000000 		.4byte	.Ldebug_abbrev0
 3018 000a 04       		.byte	0x4
 3019 000b 01       		.uleb128 0x1
 3020 000c 63070000 		.4byte	.LASF200
 3021 0010 01       		.byte	0x1
 3022 0011 15070000 		.4byte	.LASF201
 3023 0015 92020000 		.4byte	.LASF202
 3024 0019 00000000 		.4byte	.Ldebug_ranges0+0
 3025 001d 00000000 		.4byte	0
 3026 0021 00000000 		.4byte	.Ldebug_line0
 3027 0025 02       		.uleb128 0x2
 3028 0026 04       		.byte	0x4
ARM GAS  /tmp/ccGrz3Xa.s 			page 115


 3029 0027 05       		.byte	0x5
 3030 0028 696E7400 		.ascii	"int\000"
 3031 002c 03       		.uleb128 0x3
 3032 002d 27000000 		.4byte	.LASF2
 3033 0031 03       		.byte	0x3
 3034 0032 D4       		.byte	0xd4
 3035 0033 37000000 		.4byte	0x37
 3036 0037 04       		.uleb128 0x4
 3037 0038 04       		.byte	0x4
 3038 0039 07       		.byte	0x7
 3039 003a CD010000 		.4byte	.LASF0
 3040 003e 04       		.uleb128 0x4
 3041 003f 01       		.byte	0x1
 3042 0040 06       		.byte	0x6
 3043 0041 54010000 		.4byte	.LASF1
 3044 0045 03       		.uleb128 0x3
 3045 0046 49000000 		.4byte	.LASF3
 3046 004a 04       		.byte	0x4
 3047 004b 1C       		.byte	0x1c
 3048 004c 50000000 		.4byte	0x50
 3049 0050 04       		.uleb128 0x4
 3050 0051 01       		.byte	0x1
 3051 0052 08       		.byte	0x8
 3052 0053 04050000 		.4byte	.LASF4
 3053 0057 04       		.uleb128 0x4
 3054 0058 02       		.byte	0x2
 3055 0059 05       		.byte	0x5
 3056 005a 20050000 		.4byte	.LASF5
 3057 005e 03       		.uleb128 0x3
 3058 005f 0A060000 		.4byte	.LASF6
 3059 0063 04       		.byte	0x4
 3060 0064 26       		.byte	0x26
 3061 0065 69000000 		.4byte	0x69
 3062 0069 04       		.uleb128 0x4
 3063 006a 02       		.byte	0x2
 3064 006b 07       		.byte	0x7
 3065 006c 9B060000 		.4byte	.LASF7
 3066 0070 03       		.uleb128 0x3
 3067 0071 97000000 		.4byte	.LASF8
 3068 0075 04       		.byte	0x4
 3069 0076 37       		.byte	0x37
 3070 0077 7B000000 		.4byte	0x7b
 3071 007b 04       		.uleb128 0x4
 3072 007c 04       		.byte	0x4
 3073 007d 05       		.byte	0x5
 3074 007e BB010000 		.4byte	.LASF9
 3075 0082 03       		.uleb128 0x3
 3076 0083 2F020000 		.4byte	.LASF10
 3077 0087 04       		.byte	0x4
 3078 0088 38       		.byte	0x38
 3079 0089 8D000000 		.4byte	0x8d
 3080 008d 04       		.uleb128 0x4
 3081 008e 04       		.byte	0x4
 3082 008f 07       		.byte	0x7
 3083 0090 E7050000 		.4byte	.LASF11
 3084 0094 04       		.uleb128 0x4
 3085 0095 08       		.byte	0x8
ARM GAS  /tmp/ccGrz3Xa.s 			page 116


 3086 0096 05       		.byte	0x5
 3087 0097 DF010000 		.4byte	.LASF12
 3088 009b 03       		.uleb128 0x3
 3089 009c 88040000 		.4byte	.LASF13
 3090 00a0 04       		.byte	0x4
 3091 00a1 4E       		.byte	0x4e
 3092 00a2 A6000000 		.4byte	0xa6
 3093 00a6 04       		.uleb128 0x4
 3094 00a7 08       		.byte	0x8
 3095 00a8 07       		.byte	0x7
 3096 00a9 B1000000 		.4byte	.LASF14
 3097 00ad 03       		.uleb128 0x3
 3098 00ae 51070000 		.4byte	.LASF15
 3099 00b2 05       		.byte	0x5
 3100 00b3 2A       		.byte	0x2a
 3101 00b4 45000000 		.4byte	0x45
 3102 00b8 03       		.uleb128 0x3
 3103 00b9 FC010000 		.4byte	.LASF16
 3104 00bd 05       		.byte	0x5
 3105 00be 36       		.byte	0x36
 3106 00bf 5E000000 		.4byte	0x5e
 3107 00c3 03       		.uleb128 0x3
 3108 00c4 FC040000 		.4byte	.LASF17
 3109 00c8 05       		.byte	0x5
 3110 00c9 41       		.byte	0x41
 3111 00ca 70000000 		.4byte	0x70
 3112 00ce 03       		.uleb128 0x3
 3113 00cf 75080000 		.4byte	.LASF18
 3114 00d3 05       		.byte	0x5
 3115 00d4 42       		.byte	0x42
 3116 00d5 82000000 		.4byte	0x82
 3117 00d9 03       		.uleb128 0x3
 3118 00da 40000000 		.4byte	.LASF19
 3119 00de 05       		.byte	0x5
 3120 00df 4E       		.byte	0x4e
 3121 00e0 9B000000 		.4byte	0x9b
 3122 00e4 03       		.uleb128 0x3
 3123 00e5 3E080000 		.4byte	.LASF20
 3124 00e9 06       		.byte	0x6
 3125 00ea 3C       		.byte	0x3c
 3126 00eb AD000000 		.4byte	0xad
 3127 00ef 03       		.uleb128 0x3
 3128 00f0 C4010000 		.4byte	.LASF21
 3129 00f4 06       		.byte	0x6
 3130 00f5 3D       		.byte	0x3d
 3131 00f6 AD000000 		.4byte	0xad
 3132 00fa 03       		.uleb128 0x3
 3133 00fb AA040000 		.4byte	.LASF22
 3134 00ff 06       		.byte	0x6
 3135 0100 3E       		.byte	0x3e
 3136 0101 AD000000 		.4byte	0xad
 3137 0105 03       		.uleb128 0x3
 3138 0106 D6040000 		.4byte	.LASF23
 3139 010a 06       		.byte	0x6
 3140 010b 40       		.byte	0x40
 3141 010c CE000000 		.4byte	0xce
 3142 0110 03       		.uleb128 0x3
ARM GAS  /tmp/ccGrz3Xa.s 			page 117


 3143 0111 50030000 		.4byte	.LASF24
 3144 0115 06       		.byte	0x6
 3145 0116 41       		.byte	0x41
 3146 0117 C3000000 		.4byte	0xc3
 3147 011b 03       		.uleb128 0x3
 3148 011c AE030000 		.4byte	.LASF25
 3149 0120 06       		.byte	0x6
 3150 0121 43       		.byte	0x43
 3151 0122 CE000000 		.4byte	0xce
 3152 0126 03       		.uleb128 0x3
 3153 0127 08070000 		.4byte	.LASF26
 3154 012b 06       		.byte	0x6
 3155 012c 44       		.byte	0x44
 3156 012d CE000000 		.4byte	0xce
 3157 0131 03       		.uleb128 0x3
 3158 0132 86020000 		.4byte	.LASF27
 3159 0136 06       		.byte	0x6
 3160 0137 45       		.byte	0x45
 3161 0138 C3000000 		.4byte	0xc3
 3162 013c 03       		.uleb128 0x3
 3163 013d 3D060000 		.4byte	.LASF28
 3164 0141 07       		.byte	0x7
 3165 0142 35       		.byte	0x35
 3166 0143 B8000000 		.4byte	0xb8
 3167 0147 03       		.uleb128 0x3
 3168 0148 34060000 		.4byte	.LASF29
 3169 014c 07       		.byte	0x7
 3170 014d 3F       		.byte	0x3f
 3171 014e 52010000 		.4byte	0x152
 3172 0152 05       		.uleb128 0x5
 3173 0153 1A030000 		.4byte	.LASF47
 3174 0157 44       		.byte	0x44
 3175 0158 08       		.byte	0x8
 3176 0159 9A       		.byte	0x9a
 3177 015a 30020000 		.4byte	0x230
 3178 015e 06       		.uleb128 0x6
 3179 015f 2E030000 		.4byte	.LASF30
 3180 0163 08       		.byte	0x8
 3181 0164 9B       		.byte	0x9b
 3182 0165 65020000 		.4byte	0x265
 3183 0169 00       		.byte	0
 3184 016a 06       		.uleb128 0x6
 3185 016b 64040000 		.4byte	.LASF31
 3186 016f 08       		.byte	0x8
 3187 0170 9C       		.byte	0x9c
 3188 0171 05010000 		.4byte	0x105
 3189 0175 08       		.byte	0x8
 3190 0176 07       		.uleb128 0x7
 3191 0177 63747800 		.ascii	"ctx\000"
 3192 017b 08       		.byte	0x8
 3193 017c 9D       		.byte	0x9d
 3194 017d 56050000 		.4byte	0x556
 3195 0181 0C       		.byte	0xc
 3196 0182 06       		.uleb128 0x6
 3197 0183 02070000 		.4byte	.LASF32
 3198 0187 08       		.byte	0x8
 3199 0188 9F       		.byte	0x9f
ARM GAS  /tmp/ccGrz3Xa.s 			page 118


 3200 0189 3B020000 		.4byte	0x23b
 3201 018d 10       		.byte	0x10
 3202 018e 06       		.uleb128 0x6
 3203 018f 1B020000 		.4byte	.LASF33
 3204 0193 08       		.byte	0x8
 3205 0194 A0       		.byte	0xa0
 3206 0195 3B020000 		.4byte	0x23b
 3207 0199 14       		.byte	0x14
 3208 019a 06       		.uleb128 0x6
 3209 019b 29030000 		.4byte	.LASF34
 3210 019f 08       		.byte	0x8
 3211 01a0 A7       		.byte	0xa7
 3212 01a1 DD070000 		.4byte	0x7dd
 3213 01a5 18       		.byte	0x18
 3214 01a6 06       		.uleb128 0x6
 3215 01a7 F9050000 		.4byte	.LASF35
 3216 01ab 08       		.byte	0x8
 3217 01ac B0       		.byte	0xb0
 3218 01ad EF070000 		.4byte	0x7ef
 3219 01b1 1C       		.byte	0x1c
 3220 01b2 06       		.uleb128 0x6
 3221 01b3 AC010000 		.4byte	.LASF36
 3222 01b7 08       		.byte	0x8
 3223 01b8 B5       		.byte	0xb5
 3224 01b9 EF000000 		.4byte	0xef
 3225 01bd 20       		.byte	0x20
 3226 01be 06       		.uleb128 0x6
 3227 01bf 06080000 		.4byte	.LASF37
 3228 01c3 08       		.byte	0x8
 3229 01c4 B9       		.byte	0xb9
 3230 01c5 E4000000 		.4byte	0xe4
 3231 01c9 21       		.byte	0x21
 3232 01ca 06       		.uleb128 0x6
 3233 01cb 1B050000 		.4byte	.LASF38
 3234 01cf 08       		.byte	0x8
 3235 01d0 BE       		.byte	0xbe
 3236 01d1 FA000000 		.4byte	0xfa
 3237 01d5 22       		.byte	0x22
 3238 01d6 08       		.uleb128 0x8
 3239 01d7 7500     		.ascii	"u\000"
 3240 01d9 08       		.byte	0x8
 3241 01da 0F01     		.2byte	0x10f
 3242 01dc 12070000 		.4byte	0x712
 3243 01e0 24       		.byte	0x24
 3244 01e1 09       		.uleb128 0x9
 3245 01e2 43020000 		.4byte	.LASF39
 3246 01e6 08       		.byte	0x8
 3247 01e7 1401     		.2byte	0x114
 3248 01e9 41020000 		.4byte	0x241
 3249 01ed 28       		.byte	0x28
 3250 01ee 09       		.uleb128 0x9
 3251 01ef A3010000 		.4byte	.LASF40
 3252 01f3 08       		.byte	0x8
 3253 01f4 1A01     		.2byte	0x11a
 3254 01f6 65020000 		.4byte	0x265
 3255 01fa 2C       		.byte	0x2c
 3256 01fb 09       		.uleb128 0x9
ARM GAS  /tmp/ccGrz3Xa.s 			page 119


 3257 01fc 5B030000 		.4byte	.LASF41
 3258 0200 08       		.byte	0x8
 3259 0201 2001     		.2byte	0x120
 3260 0203 1B010000 		.4byte	0x11b
 3261 0207 34       		.byte	0x34
 3262 0208 09       		.uleb128 0x9
 3263 0209 51080000 		.4byte	.LASF42
 3264 020d 08       		.byte	0x8
 3265 020e 2701     		.2byte	0x127
 3266 0210 D7070000 		.4byte	0x7d7
 3267 0214 38       		.byte	0x38
 3268 0215 09       		.uleb128 0x9
 3269 0216 DE050000 		.4byte	.LASF43
 3270 021a 08       		.byte	0x8
 3271 021b 2B01     		.2byte	0x12b
 3272 021d 05010000 		.4byte	0x105
 3273 0221 3C       		.byte	0x3c
 3274 0222 09       		.uleb128 0x9
 3275 0223 34030000 		.4byte	.LASF44
 3276 0227 08       		.byte	0x8
 3277 0228 3201     		.2byte	0x132
 3278 022a 18030000 		.4byte	0x318
 3279 022e 40       		.byte	0x40
 3280 022f 00       		.byte	0
 3281 0230 03       		.uleb128 0x3
 3282 0231 03040000 		.4byte	.LASF45
 3283 0235 07       		.byte	0x7
 3284 0236 44       		.byte	0x44
 3285 0237 3B020000 		.4byte	0x23b
 3286 023b 0A       		.uleb128 0xa
 3287 023c 04       		.byte	0x4
 3288 023d 47010000 		.4byte	0x147
 3289 0241 03       		.uleb128 0x3
 3290 0242 2F080000 		.4byte	.LASF46
 3291 0246 07       		.byte	0x7
 3292 0247 49       		.byte	0x49
 3293 0248 4C020000 		.4byte	0x24c
 3294 024c 05       		.uleb128 0x5
 3295 024d A1000000 		.4byte	.LASF48
 3296 0251 04       		.byte	0x4
 3297 0252 08       		.byte	0x8
 3298 0253 88       		.byte	0x88
 3299 0254 65020000 		.4byte	0x265
 3300 0258 06       		.uleb128 0x6
 3301 0259 2E000000 		.4byte	.LASF49
 3302 025d 08       		.byte	0x8
 3303 025e 89       		.byte	0x89
 3304 025f 3B020000 		.4byte	0x23b
 3305 0263 00       		.byte	0
 3306 0264 00       		.byte	0
 3307 0265 03       		.uleb128 0x3
 3308 0266 67050000 		.4byte	.LASF50
 3309 026a 07       		.byte	0x7
 3310 026b 50       		.byte	0x50
 3311 026c 70020000 		.4byte	0x270
 3312 0270 05       		.uleb128 0x5
 3313 0271 60000000 		.4byte	.LASF51
ARM GAS  /tmp/ccGrz3Xa.s 			page 120


 3314 0275 08       		.byte	0x8
 3315 0276 08       		.byte	0x8
 3316 0277 8F       		.byte	0x8f
 3317 0278 95020000 		.4byte	0x295
 3318 027c 06       		.uleb128 0x6
 3319 027d 2E000000 		.4byte	.LASF49
 3320 0281 08       		.byte	0x8
 3321 0282 90       		.byte	0x90
 3322 0283 3B020000 		.4byte	0x23b
 3323 0287 00       		.byte	0
 3324 0288 06       		.uleb128 0x6
 3325 0289 53000000 		.4byte	.LASF52
 3326 028d 08       		.byte	0x8
 3327 028e 91       		.byte	0x91
 3328 028f 3B020000 		.4byte	0x23b
 3329 0293 04       		.byte	0x4
 3330 0294 00       		.byte	0
 3331 0295 03       		.uleb128 0x3
 3332 0296 15000000 		.4byte	.LASF53
 3333 029a 07       		.byte	0x7
 3334 029b 57       		.byte	0x57
 3335 029c A0020000 		.4byte	0x2a0
 3336 02a0 0B       		.uleb128 0xb
 3337 02a1 A0030000 		.4byte	.LASF54
 3338 02a5 1C       		.byte	0x1c
 3339 02a6 08       		.byte	0x8
 3340 02a7 6A01     		.2byte	0x16a
 3341 02a9 FC020000 		.4byte	0x2fc
 3342 02ad 09       		.uleb128 0x9
 3343 02ae 2E030000 		.4byte	.LASF30
 3344 02b2 08       		.byte	0x8
 3345 02b3 6B01     		.2byte	0x16b
 3346 02b5 65020000 		.4byte	0x265
 3347 02b9 00       		.byte	0
 3348 02ba 09       		.uleb128 0x9
 3349 02bb 64040000 		.4byte	.LASF31
 3350 02bf 08       		.byte	0x8
 3351 02c0 6C01     		.2byte	0x16c
 3352 02c2 05010000 		.4byte	0x105
 3353 02c6 08       		.byte	0x8
 3354 02c7 08       		.uleb128 0x8
 3355 02c8 63747800 		.ascii	"ctx\000"
 3356 02cc 08       		.byte	0x8
 3357 02cd 6E01     		.2byte	0x16e
 3358 02cf 56050000 		.4byte	0x556
 3359 02d3 0C       		.byte	0xc
 3360 02d4 09       		.uleb128 0x9
 3361 02d5 02070000 		.4byte	.LASF32
 3362 02d9 08       		.byte	0x8
 3363 02da 7101     		.2byte	0x171
 3364 02dc 3B020000 		.4byte	0x23b
 3365 02e0 10       		.byte	0x10
 3366 02e1 09       		.uleb128 0x9
 3367 02e2 1B020000 		.4byte	.LASF33
 3368 02e6 08       		.byte	0x8
 3369 02e7 7201     		.2byte	0x172
 3370 02e9 3B020000 		.4byte	0x23b
ARM GAS  /tmp/ccGrz3Xa.s 			page 121


 3371 02ed 14       		.byte	0x14
 3372 02ee 09       		.uleb128 0x9
 3373 02ef 27020000 		.4byte	.LASF55
 3374 02f3 08       		.byte	0x8
 3375 02f4 7501     		.2byte	0x175
 3376 02f6 3B020000 		.4byte	0x23b
 3377 02fa 18       		.byte	0x18
 3378 02fb 00       		.byte	0
 3379 02fc 03       		.uleb128 0x3
 3380 02fd 47060000 		.4byte	.LASF56
 3381 0301 07       		.byte	0x7
 3382 0302 5C       		.byte	0x5c
 3383 0303 07030000 		.4byte	0x307
 3384 0307 0A       		.uleb128 0xa
 3385 0308 04       		.byte	0x4
 3386 0309 0D030000 		.4byte	0x30d
 3387 030d 0C       		.uleb128 0xc
 3388 030e 18030000 		.4byte	0x318
 3389 0312 0D       		.uleb128 0xd
 3390 0313 18030000 		.4byte	0x318
 3391 0317 00       		.byte	0
 3392 0318 0E       		.uleb128 0xe
 3393 0319 04       		.byte	0x4
 3394 031a 03       		.uleb128 0x3
 3395 031b BE040000 		.4byte	.LASF57
 3396 031f 07       		.byte	0x7
 3397 0320 61       		.byte	0x61
 3398 0321 25030000 		.4byte	0x325
 3399 0325 0B       		.uleb128 0xb
 3400 0326 C4060000 		.4byte	.LASF58
 3401 032a 14       		.byte	0x14
 3402 032b 08       		.byte	0x8
 3403 032c 4501     		.2byte	0x145
 3404 032e 74030000 		.4byte	0x374
 3405 0332 09       		.uleb128 0x9
 3406 0333 2E000000 		.4byte	.LASF49
 3407 0337 08       		.byte	0x8
 3408 0338 4601     		.2byte	0x146
 3409 033a F5070000 		.4byte	0x7f5
 3410 033e 00       		.byte	0
 3411 033f 09       		.uleb128 0x9
 3412 0340 53000000 		.4byte	.LASF52
 3413 0344 08       		.byte	0x8
 3414 0345 4701     		.2byte	0x147
 3415 0347 F5070000 		.4byte	0x7f5
 3416 034b 04       		.byte	0x4
 3417 034c 09       		.uleb128 0x9
 3418 034d 33000000 		.4byte	.LASF59
 3419 0351 08       		.byte	0x8
 3420 0352 4801     		.2byte	0x148
 3421 0354 3C010000 		.4byte	0x13c
 3422 0358 08       		.byte	0x8
 3423 0359 09       		.uleb128 0x9
 3424 035a 0A010000 		.4byte	.LASF60
 3425 035e 08       		.byte	0x8
 3426 035f 4901     		.2byte	0x149
 3427 0361 FC020000 		.4byte	0x2fc
ARM GAS  /tmp/ccGrz3Xa.s 			page 122


 3428 0365 0C       		.byte	0xc
 3429 0366 08       		.uleb128 0x8
 3430 0367 70617200 		.ascii	"par\000"
 3431 036b 08       		.byte	0x8
 3432 036c 4B01     		.2byte	0x14b
 3433 036e 18030000 		.4byte	0x318
 3434 0372 10       		.byte	0x10
 3435 0373 00       		.byte	0
 3436 0374 03       		.uleb128 0x3
 3437 0375 E7000000 		.4byte	.LASF61
 3438 0379 07       		.byte	0x7
 3439 037a 66       		.byte	0x66
 3440 037b 7F030000 		.4byte	0x37f
 3441 037f 0B       		.uleb128 0xb
 3442 0380 1F040000 		.4byte	.LASF62
 3443 0384 0C       		.byte	0xc
 3444 0385 08       		.byte	0x8
 3445 0386 5501     		.2byte	0x155
 3446 0388 C1030000 		.4byte	0x3c1
 3447 038c 09       		.uleb128 0x9
 3448 038d 2E000000 		.4byte	.LASF49
 3449 0391 08       		.byte	0x8
 3450 0392 5601     		.2byte	0x156
 3451 0394 F5070000 		.4byte	0x7f5
 3452 0398 00       		.byte	0
 3453 0399 09       		.uleb128 0x9
 3454 039a 53000000 		.4byte	.LASF52
 3455 039e 08       		.byte	0x8
 3456 039f 5801     		.2byte	0x158
 3457 03a1 F5070000 		.4byte	0x7f5
 3458 03a5 04       		.byte	0x4
 3459 03a6 09       		.uleb128 0x9
 3460 03a7 33000000 		.4byte	.LASF59
 3461 03ab 08       		.byte	0x8
 3462 03ac 5A01     		.2byte	0x15a
 3463 03ae 3C010000 		.4byte	0x13c
 3464 03b2 08       		.byte	0x8
 3465 03b3 09       		.uleb128 0x9
 3466 03b4 2A050000 		.4byte	.LASF63
 3467 03b8 08       		.byte	0x8
 3468 03b9 6201     		.2byte	0x162
 3469 03bb 3C010000 		.4byte	0x13c
 3470 03bf 0A       		.byte	0xa
 3471 03c0 00       		.byte	0
 3472 03c1 03       		.uleb128 0x3
 3473 03c2 71000000 		.4byte	.LASF64
 3474 03c6 07       		.byte	0x7
 3475 03c7 6B       		.byte	0x6b
 3476 03c8 CC030000 		.4byte	0x3cc
 3477 03cc 0B       		.uleb128 0xb
 3478 03cd E6040000 		.4byte	.LASF65
 3479 03d1 04       		.byte	0x4
 3480 03d2 08       		.byte	0x8
 3481 03d3 7C01     		.2byte	0x17c
 3482 03d5 E7030000 		.4byte	0x3e7
 3483 03d9 09       		.uleb128 0x9
 3484 03da 75060000 		.4byte	.LASF66
ARM GAS  /tmp/ccGrz3Xa.s 			page 123


 3485 03de 08       		.byte	0x8
 3486 03df 8401     		.2byte	0x184
 3487 03e1 FB070000 		.4byte	0x7fb
 3488 03e5 00       		.byte	0
 3489 03e6 00       		.byte	0
 3490 03e7 03       		.uleb128 0x3
 3491 03e8 64030000 		.4byte	.LASF67
 3492 03ec 07       		.byte	0x7
 3493 03ed 70       		.byte	0x70
 3494 03ee F2030000 		.4byte	0x3f2
 3495 03f2 0B       		.uleb128 0xb
 3496 03f3 53050000 		.4byte	.LASF68
 3497 03f7 70       		.byte	0x70
 3498 03f8 08       		.byte	0x8
 3499 03f9 9C01     		.2byte	0x19c
 3500 03fb 34040000 		.4byte	0x434
 3501 03ff 09       		.uleb128 0x9
 3502 0400 3E070000 		.4byte	.LASF69
 3503 0404 08       		.byte	0x8
 3504 0405 A001     		.2byte	0x1a0
 3505 0407 95020000 		.4byte	0x295
 3506 040b 00       		.byte	0
 3507 040c 09       		.uleb128 0x9
 3508 040d 8A010000 		.4byte	.LASF70
 3509 0411 08       		.byte	0x8
 3510 0412 A401     		.2byte	0x1a4
 3511 0414 74030000 		.4byte	0x374
 3512 0418 1C       		.byte	0x1c
 3513 0419 08       		.uleb128 0x8
 3514 041a 64626700 		.ascii	"dbg\000"
 3515 041e 08       		.byte	0x8
 3516 041f A801     		.2byte	0x1a8
 3517 0421 C1030000 		.4byte	0x3c1
 3518 0425 28       		.byte	0x28
 3519 0426 09       		.uleb128 0x9
 3520 0427 45030000 		.4byte	.LASF71
 3521 042b 08       		.byte	0x8
 3522 042c AC01     		.2byte	0x1ac
 3523 042e 47010000 		.4byte	0x147
 3524 0432 2C       		.byte	0x2c
 3525 0433 00       		.byte	0
 3526 0434 04       		.uleb128 0x4
 3527 0435 04       		.byte	0x4
 3528 0436 07       		.byte	0x7
 3529 0437 FA030000 		.4byte	.LASF72
 3530 043b 0F       		.uleb128 0xf
 3531 043c CE000000 		.4byte	0xce
 3532 0440 10       		.uleb128 0x10
 3533 0441 CE000000 		.4byte	0xce
 3534 0445 50040000 		.4byte	0x450
 3535 0449 11       		.uleb128 0x11
 3536 044a 34040000 		.4byte	0x434
 3537 044e 01       		.byte	0x1
 3538 044f 00       		.byte	0
 3539 0450 10       		.uleb128 0x10
 3540 0451 CE000000 		.4byte	0xce
 3541 0455 60040000 		.4byte	0x460
ARM GAS  /tmp/ccGrz3Xa.s 			page 124


 3542 0459 11       		.uleb128 0x11
 3543 045a 34040000 		.4byte	0x434
 3544 045e 03       		.byte	0x3
 3545 045f 00       		.byte	0
 3546 0460 12       		.uleb128 0x12
 3547 0461 1C       		.byte	0x1c
 3548 0462 09       		.byte	0x9
 3549 0463 5B01     		.2byte	0x15b
 3550 0465 C5040000 		.4byte	0x4c5
 3551 0469 08       		.uleb128 0x8
 3552 046a 43524C00 		.ascii	"CRL\000"
 3553 046e 09       		.byte	0x9
 3554 046f 5D01     		.2byte	0x15d
 3555 0471 3B040000 		.4byte	0x43b
 3556 0475 00       		.byte	0
 3557 0476 08       		.uleb128 0x8
 3558 0477 43524800 		.ascii	"CRH\000"
 3559 047b 09       		.byte	0x9
 3560 047c 5E01     		.2byte	0x15e
 3561 047e 3B040000 		.4byte	0x43b
 3562 0482 04       		.byte	0x4
 3563 0483 08       		.uleb128 0x8
 3564 0484 49445200 		.ascii	"IDR\000"
 3565 0488 09       		.byte	0x9
 3566 0489 5F01     		.2byte	0x15f
 3567 048b 3B040000 		.4byte	0x43b
 3568 048f 08       		.byte	0x8
 3569 0490 08       		.uleb128 0x8
 3570 0491 4F445200 		.ascii	"ODR\000"
 3571 0495 09       		.byte	0x9
 3572 0496 6001     		.2byte	0x160
 3573 0498 3B040000 		.4byte	0x43b
 3574 049c 0C       		.byte	0xc
 3575 049d 09       		.uleb128 0x9
 3576 049e 60010000 		.4byte	.LASF73
 3577 04a2 09       		.byte	0x9
 3578 04a3 6101     		.2byte	0x161
 3579 04a5 3B040000 		.4byte	0x43b
 3580 04a9 10       		.byte	0x10
 3581 04aa 08       		.uleb128 0x8
 3582 04ab 42525200 		.ascii	"BRR\000"
 3583 04af 09       		.byte	0x9
 3584 04b0 6201     		.2byte	0x162
 3585 04b2 3B040000 		.4byte	0x43b
 3586 04b6 14       		.byte	0x14
 3587 04b7 09       		.uleb128 0x9
 3588 04b8 56030000 		.4byte	.LASF74
 3589 04bc 09       		.byte	0x9
 3590 04bd 6301     		.2byte	0x163
 3591 04bf 3B040000 		.4byte	0x43b
 3592 04c3 18       		.byte	0x18
 3593 04c4 00       		.byte	0
 3594 04c5 13       		.uleb128 0x13
 3595 04c6 05030000 		.4byte	.LASF75
 3596 04ca 09       		.byte	0x9
 3597 04cb 6401     		.2byte	0x164
 3598 04cd 60040000 		.4byte	0x460
ARM GAS  /tmp/ccGrz3Xa.s 			page 125


 3599 04d1 12       		.uleb128 0x12
 3600 04d2 1C       		.byte	0x1c
 3601 04d3 09       		.byte	0x9
 3602 04d4 0D02     		.2byte	0x20d
 3603 04d6 34050000 		.4byte	0x534
 3604 04da 08       		.uleb128 0x8
 3605 04db 535200   		.ascii	"SR\000"
 3606 04de 09       		.byte	0x9
 3607 04df 0F02     		.2byte	0x20f
 3608 04e1 3B040000 		.4byte	0x43b
 3609 04e5 00       		.byte	0
 3610 04e6 08       		.uleb128 0x8
 3611 04e7 445200   		.ascii	"DR\000"
 3612 04ea 09       		.byte	0x9
 3613 04eb 1002     		.2byte	0x210
 3614 04ed 3B040000 		.4byte	0x43b
 3615 04f1 04       		.byte	0x4
 3616 04f2 08       		.uleb128 0x8
 3617 04f3 42525200 		.ascii	"BRR\000"
 3618 04f7 09       		.byte	0x9
 3619 04f8 1102     		.2byte	0x211
 3620 04fa 3B040000 		.4byte	0x43b
 3621 04fe 08       		.byte	0x8
 3622 04ff 08       		.uleb128 0x8
 3623 0500 43523100 		.ascii	"CR1\000"
 3624 0504 09       		.byte	0x9
 3625 0505 1202     		.2byte	0x212
 3626 0507 3B040000 		.4byte	0x43b
 3627 050b 0C       		.byte	0xc
 3628 050c 08       		.uleb128 0x8
 3629 050d 43523200 		.ascii	"CR2\000"
 3630 0511 09       		.byte	0x9
 3631 0512 1302     		.2byte	0x213
 3632 0514 3B040000 		.4byte	0x43b
 3633 0518 10       		.byte	0x10
 3634 0519 08       		.uleb128 0x8
 3635 051a 43523300 		.ascii	"CR3\000"
 3636 051e 09       		.byte	0x9
 3637 051f 1402     		.2byte	0x214
 3638 0521 3B040000 		.4byte	0x43b
 3639 0525 14       		.byte	0x14
 3640 0526 09       		.uleb128 0x9
 3641 0527 6F010000 		.4byte	.LASF76
 3642 052b 09       		.byte	0x9
 3643 052c 1502     		.2byte	0x215
 3644 052e 3B040000 		.4byte	0x43b
 3645 0532 18       		.byte	0x18
 3646 0533 00       		.byte	0
 3647 0534 13       		.uleb128 0x13
 3648 0535 79030000 		.4byte	.LASF77
 3649 0539 09       		.byte	0x9
 3650 053a 1602     		.2byte	0x216
 3651 053c D1040000 		.4byte	0x4d1
 3652 0540 03       		.uleb128 0x3
 3653 0541 3A020000 		.4byte	.LASF78
 3654 0545 0A       		.byte	0xa
 3655 0546 65       		.byte	0x65
ARM GAS  /tmp/ccGrz3Xa.s 			page 126


 3656 0547 18030000 		.4byte	0x318
 3657 054b 03       		.uleb128 0x3
 3658 054c C5030000 		.4byte	.LASF79
 3659 0550 0A       		.byte	0xa
 3660 0551 6D       		.byte	0x6d
 3661 0552 D9000000 		.4byte	0xd9
 3662 0556 05       		.uleb128 0x5
 3663 0557 57040000 		.4byte	.LASF80
 3664 055b 04       		.byte	0x4
 3665 055c 0A       		.byte	0xa
 3666 055d 89       		.byte	0x89
 3667 055e 6E050000 		.4byte	0x56e
 3668 0562 07       		.uleb128 0x7
 3669 0563 737000   		.ascii	"sp\000"
 3670 0566 0A       		.byte	0xa
 3671 0567 8A       		.byte	0x8a
 3672 0568 EA050000 		.4byte	0x5ea
 3673 056c 00       		.byte	0
 3674 056d 00       		.byte	0
 3675 056e 0B       		.uleb128 0xb
 3676 056f B2040000 		.4byte	.LASF81
 3677 0573 24       		.byte	0x24
 3678 0574 0B       		.byte	0xb
 3679 0575 5901     		.2byte	0x159
 3680 0577 EA050000 		.4byte	0x5ea
 3681 057b 08       		.uleb128 0x8
 3682 057c 723400   		.ascii	"r4\000"
 3683 057f 0B       		.byte	0xb
 3684 0580 6C01     		.2byte	0x16c
 3685 0582 40050000 		.4byte	0x540
 3686 0586 00       		.byte	0
 3687 0587 08       		.uleb128 0x8
 3688 0588 723500   		.ascii	"r5\000"
 3689 058b 0B       		.byte	0xb
 3690 058c 6D01     		.2byte	0x16d
 3691 058e 40050000 		.4byte	0x540
 3692 0592 04       		.byte	0x4
 3693 0593 08       		.uleb128 0x8
 3694 0594 723600   		.ascii	"r6\000"
 3695 0597 0B       		.byte	0xb
 3696 0598 6E01     		.2byte	0x16e
 3697 059a 40050000 		.4byte	0x540
 3698 059e 08       		.byte	0x8
 3699 059f 08       		.uleb128 0x8
 3700 05a0 723700   		.ascii	"r7\000"
 3701 05a3 0B       		.byte	0xb
 3702 05a4 6F01     		.2byte	0x16f
 3703 05a6 40050000 		.4byte	0x540
 3704 05aa 0C       		.byte	0xc
 3705 05ab 08       		.uleb128 0x8
 3706 05ac 723800   		.ascii	"r8\000"
 3707 05af 0B       		.byte	0xb
 3708 05b0 7001     		.2byte	0x170
 3709 05b2 40050000 		.4byte	0x540
 3710 05b6 10       		.byte	0x10
 3711 05b7 08       		.uleb128 0x8
 3712 05b8 723900   		.ascii	"r9\000"
ARM GAS  /tmp/ccGrz3Xa.s 			page 127


 3713 05bb 0B       		.byte	0xb
 3714 05bc 7101     		.2byte	0x171
 3715 05be 40050000 		.4byte	0x540
 3716 05c2 14       		.byte	0x14
 3717 05c3 08       		.uleb128 0x8
 3718 05c4 72313000 		.ascii	"r10\000"
 3719 05c8 0B       		.byte	0xb
 3720 05c9 7201     		.2byte	0x172
 3721 05cb 40050000 		.4byte	0x540
 3722 05cf 18       		.byte	0x18
 3723 05d0 08       		.uleb128 0x8
 3724 05d1 72313100 		.ascii	"r11\000"
 3725 05d5 0B       		.byte	0xb
 3726 05d6 7301     		.2byte	0x173
 3727 05d8 40050000 		.4byte	0x540
 3728 05dc 1C       		.byte	0x1c
 3729 05dd 08       		.uleb128 0x8
 3730 05de 6C7200   		.ascii	"lr\000"
 3731 05e1 0B       		.byte	0xb
 3732 05e2 7401     		.2byte	0x174
 3733 05e4 40050000 		.4byte	0x540
 3734 05e8 20       		.byte	0x20
 3735 05e9 00       		.byte	0
 3736 05ea 0A       		.uleb128 0xa
 3737 05eb 04       		.byte	0x4
 3738 05ec 6E050000 		.4byte	0x56e
 3739 05f0 12       		.uleb128 0x12
 3740 05f1 60       		.byte	0x60
 3741 05f2 0C       		.byte	0xc
 3742 05f3 A101     		.2byte	0x1a1
 3743 05f5 FC060000 		.4byte	0x6fc
 3744 05f9 08       		.uleb128 0x8
 3745 05fa 43523100 		.ascii	"CR1\000"
 3746 05fe 0C       		.byte	0xc
 3747 05ff A201     		.2byte	0x1a2
 3748 0601 3B040000 		.4byte	0x43b
 3749 0605 00       		.byte	0
 3750 0606 08       		.uleb128 0x8
 3751 0607 43523200 		.ascii	"CR2\000"
 3752 060b 0C       		.byte	0xc
 3753 060c A301     		.2byte	0x1a3
 3754 060e 3B040000 		.4byte	0x43b
 3755 0612 04       		.byte	0x4
 3756 0613 09       		.uleb128 0x9
 3757 0614 40030000 		.4byte	.LASF82
 3758 0618 0C       		.byte	0xc
 3759 0619 A401     		.2byte	0x1a4
 3760 061b 3B040000 		.4byte	0x43b
 3761 061f 08       		.byte	0x8
 3762 0620 09       		.uleb128 0x9
 3763 0621 22000000 		.4byte	.LASF83
 3764 0625 0C       		.byte	0xc
 3765 0626 A501     		.2byte	0x1a5
 3766 0628 3B040000 		.4byte	0x43b
 3767 062c 0C       		.byte	0xc
 3768 062d 08       		.uleb128 0x8
 3769 062e 535200   		.ascii	"SR\000"
ARM GAS  /tmp/ccGrz3Xa.s 			page 128


 3770 0631 0C       		.byte	0xc
 3771 0632 A601     		.2byte	0x1a6
 3772 0634 3B040000 		.4byte	0x43b
 3773 0638 10       		.byte	0x10
 3774 0639 08       		.uleb128 0x8
 3775 063a 45475200 		.ascii	"EGR\000"
 3776 063e 0C       		.byte	0xc
 3777 063f A701     		.2byte	0x1a7
 3778 0641 3B040000 		.4byte	0x43b
 3779 0645 14       		.byte	0x14
 3780 0646 09       		.uleb128 0x9
 3781 0647 42010000 		.4byte	.LASF84
 3782 064b 0C       		.byte	0xc
 3783 064c A801     		.2byte	0x1a8
 3784 064e 3B040000 		.4byte	0x43b
 3785 0652 18       		.byte	0x18
 3786 0653 09       		.uleb128 0x9
 3787 0654 48010000 		.4byte	.LASF85
 3788 0658 0C       		.byte	0xc
 3789 0659 A901     		.2byte	0x1a9
 3790 065b 3B040000 		.4byte	0x43b
 3791 065f 1C       		.byte	0x1c
 3792 0660 09       		.uleb128 0x9
 3793 0661 DA010000 		.4byte	.LASF86
 3794 0665 0C       		.byte	0xc
 3795 0666 AA01     		.2byte	0x1aa
 3796 0668 3B040000 		.4byte	0x43b
 3797 066c 20       		.byte	0x20
 3798 066d 08       		.uleb128 0x8
 3799 066e 434E5400 		.ascii	"CNT\000"
 3800 0672 0C       		.byte	0xc
 3801 0673 AB01     		.2byte	0x1ab
 3802 0675 3B040000 		.4byte	0x43b
 3803 0679 24       		.byte	0x24
 3804 067a 08       		.uleb128 0x8
 3805 067b 50534300 		.ascii	"PSC\000"
 3806 067f 0C       		.byte	0xc
 3807 0680 AC01     		.2byte	0x1ac
 3808 0682 3B040000 		.4byte	0x43b
 3809 0686 28       		.byte	0x28
 3810 0687 08       		.uleb128 0x8
 3811 0688 41525200 		.ascii	"ARR\000"
 3812 068c 0C       		.byte	0xc
 3813 068d AD01     		.2byte	0x1ad
 3814 068f 3B040000 		.4byte	0x43b
 3815 0693 2C       		.byte	0x2c
 3816 0694 08       		.uleb128 0x8
 3817 0695 52435200 		.ascii	"RCR\000"
 3818 0699 0C       		.byte	0xc
 3819 069a AE01     		.2byte	0x1ae
 3820 069c 3B040000 		.4byte	0x43b
 3821 06a0 30       		.byte	0x30
 3822 06a1 08       		.uleb128 0x8
 3823 06a2 43435200 		.ascii	"CCR\000"
 3824 06a6 0C       		.byte	0xc
 3825 06a7 AF01     		.2byte	0x1af
 3826 06a9 FC060000 		.4byte	0x6fc
ARM GAS  /tmp/ccGrz3Xa.s 			page 129


 3827 06ad 34       		.byte	0x34
 3828 06ae 09       		.uleb128 0x9
 3829 06af 1A010000 		.4byte	.LASF87
 3830 06b3 0C       		.byte	0xc
 3831 06b4 B001     		.2byte	0x1b0
 3832 06b6 3B040000 		.4byte	0x43b
 3833 06ba 44       		.byte	0x44
 3834 06bb 08       		.uleb128 0x8
 3835 06bc 44435200 		.ascii	"DCR\000"
 3836 06c0 0C       		.byte	0xc
 3837 06c1 B101     		.2byte	0x1b1
 3838 06c3 3B040000 		.4byte	0x43b
 3839 06c7 48       		.byte	0x48
 3840 06c8 09       		.uleb128 0x9
 3841 06c9 2F060000 		.4byte	.LASF88
 3842 06cd 0C       		.byte	0xc
 3843 06ce B201     		.2byte	0x1b2
 3844 06d0 3B040000 		.4byte	0x43b
 3845 06d4 4C       		.byte	0x4c
 3846 06d5 08       		.uleb128 0x8
 3847 06d6 4F5200   		.ascii	"OR\000"
 3848 06d9 0C       		.byte	0xc
 3849 06da B301     		.2byte	0x1b3
 3850 06dc 3B040000 		.4byte	0x43b
 3851 06e0 50       		.byte	0x50
 3852 06e1 09       		.uleb128 0x9
 3853 06e2 4E010000 		.4byte	.LASF89
 3854 06e6 0C       		.byte	0xc
 3855 06e7 B401     		.2byte	0x1b4
 3856 06e9 3B040000 		.4byte	0x43b
 3857 06ed 54       		.byte	0x54
 3858 06ee 09       		.uleb128 0x9
 3859 06ef 84050000 		.4byte	.LASF90
 3860 06f3 0C       		.byte	0xc
 3861 06f4 B501     		.2byte	0x1b5
 3862 06f6 01070000 		.4byte	0x701
 3863 06fa 58       		.byte	0x58
 3864 06fb 00       		.byte	0
 3865 06fc 0F       		.uleb128 0xf
 3866 06fd 50040000 		.4byte	0x450
 3867 0701 0F       		.uleb128 0xf
 3868 0702 40040000 		.4byte	0x440
 3869 0706 13       		.uleb128 0x13
 3870 0707 8E030000 		.4byte	.LASF91
 3871 070b 0C       		.byte	0xc
 3872 070c B601     		.2byte	0x1b6
 3873 070e F0050000 		.4byte	0x5f0
 3874 0712 14       		.uleb128 0x14
 3875 0713 04       		.byte	0x4
 3876 0714 08       		.byte	0x8
 3877 0715 D2       		.byte	0xd2
 3878 0716 75070000 		.4byte	0x775
 3879 071a 15       		.uleb128 0x15
 3880 071b 39000000 		.4byte	.LASF92
 3881 071f 08       		.byte	0x8
 3882 0720 D9       		.byte	0xd9
 3883 0721 10010000 		.4byte	0x110
ARM GAS  /tmp/ccGrz3Xa.s 			page 130


 3884 0725 15       		.uleb128 0x15
 3885 0726 CF000000 		.4byte	.LASF93
 3886 072a 08       		.byte	0x8
 3887 072b E0       		.byte	0xe0
 3888 072c 10010000 		.4byte	0x110
 3889 0730 15       		.uleb128 0x15
 3890 0731 28080000 		.4byte	.LASF94
 3891 0735 08       		.byte	0x8
 3892 0736 E7       		.byte	0xe7
 3893 0737 18030000 		.4byte	0x318
 3894 073b 15       		.uleb128 0x15
 3895 073c FF020000 		.4byte	.LASF95
 3896 0740 08       		.byte	0x8
 3897 0741 EE       		.byte	0xee
 3898 0742 75070000 		.4byte	0x775
 3899 0746 15       		.uleb128 0x15
 3900 0747 DF000000 		.4byte	.LASF96
 3901 074b 08       		.byte	0x8
 3902 074c F3       		.byte	0xf3
 3903 074d 10010000 		.4byte	0x110
 3904 0751 15       		.uleb128 0x15
 3905 0752 E9020000 		.4byte	.LASF97
 3906 0756 08       		.byte	0x8
 3907 0757 FC       		.byte	0xfc
 3908 0758 A0070000 		.4byte	0x7a0
 3909 075c 16       		.uleb128 0x16
 3910 075d B2050000 		.4byte	.LASF98
 3911 0761 08       		.byte	0x8
 3912 0762 0501     		.2byte	0x105
 3913 0764 D7070000 		.4byte	0x7d7
 3914 0768 16       		.uleb128 0x16
 3915 0769 39050000 		.4byte	.LASF99
 3916 076d 08       		.byte	0x8
 3917 076e 0D01     		.2byte	0x10d
 3918 0770 1B010000 		.4byte	0x11b
 3919 0774 00       		.byte	0
 3920 0775 0A       		.uleb128 0xa
 3921 0776 04       		.byte	0x4
 3922 0777 30020000 		.4byte	0x230
 3923 077b 05       		.uleb128 0x5
 3924 077c 77050000 		.4byte	.LASF100
 3925 0780 0C       		.byte	0xc
 3926 0781 0D       		.byte	0xd
 3927 0782 34       		.byte	0x34
 3928 0783 A0070000 		.4byte	0x7a0
 3929 0787 06       		.uleb128 0x6
 3930 0788 2E030000 		.4byte	.LASF30
 3931 078c 0D       		.byte	0xd
 3932 078d 35       		.byte	0x35
 3933 078e 65020000 		.4byte	0x265
 3934 0792 00       		.byte	0
 3935 0793 07       		.uleb128 0x7
 3936 0794 636E7400 		.ascii	"cnt\000"
 3937 0798 0D       		.byte	0xd
 3938 0799 37       		.byte	0x37
 3939 079a 31010000 		.4byte	0x131
 3940 079e 08       		.byte	0x8
ARM GAS  /tmp/ccGrz3Xa.s 			page 131


 3941 079f 00       		.byte	0
 3942 07a0 0A       		.uleb128 0xa
 3943 07a1 04       		.byte	0x4
 3944 07a2 7B070000 		.4byte	0x77b
 3945 07a6 05       		.uleb128 0x5
 3946 07a7 2C070000 		.4byte	.LASF101
 3947 07ab 10       		.byte	0x10
 3948 07ac 0E       		.byte	0xe
 3949 07ad 39       		.byte	0x39
 3950 07ae D7070000 		.4byte	0x7d7
 3951 07b2 06       		.uleb128 0x6
 3952 07b3 2E030000 		.4byte	.LASF30
 3953 07b7 0E       		.byte	0xe
 3954 07b8 3A       		.byte	0x3a
 3955 07b9 65020000 		.4byte	0x265
 3956 07bd 00       		.byte	0
 3957 07be 06       		.uleb128 0x6
 3958 07bf CB050000 		.4byte	.LASF102
 3959 07c3 0E       		.byte	0xe
 3960 07c4 3C       		.byte	0x3c
 3961 07c5 3B020000 		.4byte	0x23b
 3962 07c9 08       		.byte	0x8
 3963 07ca 06       		.uleb128 0x6
 3964 07cb 2E000000 		.4byte	.LASF49
 3965 07cf 0E       		.byte	0xe
 3966 07d0 3E       		.byte	0x3e
 3967 07d1 16080000 		.4byte	0x816
 3968 07d5 0C       		.byte	0xc
 3969 07d6 00       		.byte	0
 3970 07d7 0A       		.uleb128 0xa
 3971 07d8 04       		.byte	0x4
 3972 07d9 A6070000 		.4byte	0x7a6
 3973 07dd 0A       		.uleb128 0xa
 3974 07de 04       		.byte	0x4
 3975 07df E3070000 		.4byte	0x7e3
 3976 07e3 17       		.uleb128 0x17
 3977 07e4 E8070000 		.4byte	0x7e8
 3978 07e8 04       		.uleb128 0x4
 3979 07e9 01       		.byte	0x1
 3980 07ea 08       		.byte	0x8
 3981 07eb 05060000 		.4byte	.LASF103
 3982 07ef 0A       		.uleb128 0xa
 3983 07f0 04       		.byte	0x4
 3984 07f1 4B050000 		.4byte	0x54b
 3985 07f5 0A       		.uleb128 0xa
 3986 07f6 04       		.byte	0x4
 3987 07f7 1A030000 		.4byte	0x31a
 3988 07fb 0F       		.uleb128 0xf
 3989 07fc DD070000 		.4byte	0x7dd
 3990 0800 03       		.uleb128 0x3
 3991 0801 00000000 		.4byte	.LASF104
 3992 0805 0F       		.byte	0xf
 3993 0806 40       		.byte	0x40
 3994 0807 07030000 		.4byte	0x307
 3995 080b 03       		.uleb128 0x3
 3996 080c 55020000 		.4byte	.LASF105
 3997 0810 0E       		.byte	0xe
ARM GAS  /tmp/ccGrz3Xa.s 			page 132


 3998 0811 34       		.byte	0x34
 3999 0812 A6070000 		.4byte	0x7a6
 4000 0816 0A       		.uleb128 0xa
 4001 0817 04       		.byte	0x4
 4002 0818 0B080000 		.4byte	0x80b
 4003 081c 03       		.uleb128 0x3
 4004 081d 8A060000 		.4byte	.LASF106
 4005 0821 10       		.byte	0x10
 4006 0822 34       		.byte	0x34
 4007 0823 27080000 		.4byte	0x827
 4008 0827 05       		.uleb128 0x5
 4009 0828 7E080000 		.4byte	.LASF107
 4010 082c 14       		.byte	0x14
 4011 082d 10       		.byte	0x10
 4012 082e 39       		.byte	0x39
 4013 082f 70080000 		.4byte	0x870
 4014 0833 06       		.uleb128 0x6
 4015 0834 2E000000 		.4byte	.LASF49
 4016 0838 10       		.byte	0x10
 4017 0839 3A       		.byte	0x3a
 4018 083a 70080000 		.4byte	0x870
 4019 083e 00       		.byte	0
 4020 083f 06       		.uleb128 0x6
 4021 0840 93040000 		.4byte	.LASF108
 4022 0844 10       		.byte	0x10
 4023 0845 3D       		.byte	0x3d
 4024 0846 3B020000 		.4byte	0x23b
 4025 084a 04       		.byte	0x4
 4026 084b 06       		.uleb128 0x6
 4027 084c 93050000 		.4byte	.LASF109
 4028 0850 10       		.byte	0x10
 4029 0851 3F       		.byte	0x3f
 4030 0852 1B010000 		.4byte	0x11b
 4031 0856 08       		.byte	0x8
 4032 0857 06       		.uleb128 0x6
 4033 0858 06080000 		.4byte	.LASF37
 4034 085c 10       		.byte	0x10
 4035 085d 41       		.byte	0x41
 4036 085e 26010000 		.4byte	0x126
 4037 0862 0C       		.byte	0xc
 4038 0863 06       		.uleb128 0x6
 4039 0864 14020000 		.4byte	.LASF110
 4040 0868 10       		.byte	0x10
 4041 0869 43       		.byte	0x43
 4042 086a 26010000 		.4byte	0x126
 4043 086e 10       		.byte	0x10
 4044 086f 00       		.byte	0
 4045 0870 0A       		.uleb128 0xa
 4046 0871 04       		.byte	0x4
 4047 0872 1C080000 		.4byte	0x81c
 4048 0876 05       		.uleb128 0x5
 4049 0877 44070000 		.4byte	.LASF111
 4050 087b 04       		.byte	0x4
 4051 087c 10       		.byte	0x10
 4052 087d 4A       		.byte	0x4a
 4053 087e 8F080000 		.4byte	0x88f
 4054 0882 06       		.uleb128 0x6
ARM GAS  /tmp/ccGrz3Xa.s 			page 133


 4055 0883 2E000000 		.4byte	.LASF49
 4056 0887 10       		.byte	0x10
 4057 0888 4B       		.byte	0x4b
 4058 0889 70080000 		.4byte	0x870
 4059 088d 00       		.byte	0
 4060 088e 00       		.byte	0
 4061 088f 03       		.uleb128 0x3
 4062 0890 77020000 		.4byte	.LASF112
 4063 0894 10       		.byte	0x10
 4064 0895 4E       		.byte	0x4e
 4065 0896 76080000 		.4byte	0x876
 4066 089a 04       		.uleb128 0x4
 4067 089b 01       		.byte	0x1
 4068 089c 02       		.byte	0x2
 4069 089d F6040000 		.4byte	.LASF113
 4070 08a1 0A       		.uleb128 0xa
 4071 08a2 04       		.byte	0x4
 4072 08a3 AD000000 		.4byte	0xad
 4073 08a7 05       		.uleb128 0x5
 4074 08a8 9A050000 		.4byte	.LASF114
 4075 08ac 10       		.byte	0x10
 4076 08ad 11       		.byte	0x11
 4077 08ae 46       		.byte	0x46
 4078 08af E4080000 		.4byte	0x8e4
 4079 08b3 06       		.uleb128 0x6
 4080 08b4 D8030000 		.4byte	.LASF115
 4081 08b8 11       		.byte	0x11
 4082 08b9 47       		.byte	0x47
 4083 08ba 08090000 		.4byte	0x908
 4084 08be 00       		.byte	0
 4085 08bf 06       		.uleb128 0x6
 4086 08c0 00060000 		.4byte	.LASF116
 4087 08c4 11       		.byte	0x11
 4088 08c5 47       		.byte	0x47
 4089 08c6 27090000 		.4byte	0x927
 4090 08ca 04       		.byte	0x4
 4091 08cb 07       		.uleb128 0x7
 4092 08cc 70757400 		.ascii	"put\000"
 4093 08d0 11       		.byte	0x11
 4094 08d1 47       		.byte	0x47
 4095 08d2 41090000 		.4byte	0x941
 4096 08d6 08       		.byte	0x8
 4097 08d7 07       		.uleb128 0x7
 4098 08d8 67657400 		.ascii	"get\000"
 4099 08dc 11       		.byte	0x11
 4100 08dd 47       		.byte	0x47
 4101 08de 56090000 		.4byte	0x956
 4102 08e2 0C       		.byte	0xc
 4103 08e3 00       		.byte	0
 4104 08e4 18       		.uleb128 0x18
 4105 08e5 2C000000 		.4byte	0x2c
 4106 08e9 FD080000 		.4byte	0x8fd
 4107 08ed 0D       		.uleb128 0xd
 4108 08ee 18030000 		.4byte	0x318
 4109 08f2 0D       		.uleb128 0xd
 4110 08f3 FD080000 		.4byte	0x8fd
 4111 08f7 0D       		.uleb128 0xd
ARM GAS  /tmp/ccGrz3Xa.s 			page 134


 4112 08f8 2C000000 		.4byte	0x2c
 4113 08fc 00       		.byte	0
 4114 08fd 0A       		.uleb128 0xa
 4115 08fe 04       		.byte	0x4
 4116 08ff 03090000 		.4byte	0x903
 4117 0903 17       		.uleb128 0x17
 4118 0904 AD000000 		.4byte	0xad
 4119 0908 0A       		.uleb128 0xa
 4120 0909 04       		.byte	0x4
 4121 090a E4080000 		.4byte	0x8e4
 4122 090e 18       		.uleb128 0x18
 4123 090f 2C000000 		.4byte	0x2c
 4124 0913 27090000 		.4byte	0x927
 4125 0917 0D       		.uleb128 0xd
 4126 0918 18030000 		.4byte	0x318
 4127 091c 0D       		.uleb128 0xd
 4128 091d A1080000 		.4byte	0x8a1
 4129 0921 0D       		.uleb128 0xd
 4130 0922 2C000000 		.4byte	0x2c
 4131 0926 00       		.byte	0
 4132 0927 0A       		.uleb128 0xa
 4133 0928 04       		.byte	0x4
 4134 0929 0E090000 		.4byte	0x90e
 4135 092d 18       		.uleb128 0x18
 4136 092e 10010000 		.4byte	0x110
 4137 0932 41090000 		.4byte	0x941
 4138 0936 0D       		.uleb128 0xd
 4139 0937 18030000 		.4byte	0x318
 4140 093b 0D       		.uleb128 0xd
 4141 093c AD000000 		.4byte	0xad
 4142 0940 00       		.byte	0
 4143 0941 0A       		.uleb128 0xa
 4144 0942 04       		.byte	0x4
 4145 0943 2D090000 		.4byte	0x92d
 4146 0947 18       		.uleb128 0x18
 4147 0948 10010000 		.4byte	0x110
 4148 094c 56090000 		.4byte	0x956
 4149 0950 0D       		.uleb128 0xd
 4150 0951 18030000 		.4byte	0x318
 4151 0955 00       		.byte	0
 4152 0956 0A       		.uleb128 0xa
 4153 0957 04       		.byte	0x4
 4154 0958 47090000 		.4byte	0x947
 4155 095c 19       		.uleb128 0x19
 4156 095d 04       		.byte	0x4
 4157 095e 11       		.byte	0x11
 4158 095f 4F       		.byte	0x4f
 4159 0960 71090000 		.4byte	0x971
 4160 0964 07       		.uleb128 0x7
 4161 0965 766D7400 		.ascii	"vmt\000"
 4162 0969 11       		.byte	0x11
 4163 096a 51       		.byte	0x51
 4164 096b 71090000 		.4byte	0x971
 4165 096f 00       		.byte	0
 4166 0970 00       		.byte	0
 4167 0971 0A       		.uleb128 0xa
 4168 0972 04       		.byte	0x4
ARM GAS  /tmp/ccGrz3Xa.s 			page 135


 4169 0973 77090000 		.4byte	0x977
 4170 0977 17       		.uleb128 0x17
 4171 0978 A7080000 		.4byte	0x8a7
 4172 097c 03       		.uleb128 0x3
 4173 097d 62020000 		.4byte	.LASF117
 4174 0981 11       		.byte	0x11
 4175 0982 53       		.byte	0x53
 4176 0983 5C090000 		.4byte	0x95c
 4177 0987 18       		.uleb128 0x18
 4178 0988 10010000 		.4byte	0x110
 4179 098c A0090000 		.4byte	0x9a0
 4180 0990 0D       		.uleb128 0xd
 4181 0991 18030000 		.4byte	0x318
 4182 0995 0D       		.uleb128 0xd
 4183 0996 AD000000 		.4byte	0xad
 4184 099a 0D       		.uleb128 0xd
 4185 099b 3C010000 		.4byte	0x13c
 4186 099f 00       		.byte	0
 4187 09a0 0A       		.uleb128 0xa
 4188 09a1 04       		.byte	0x4
 4189 09a2 87090000 		.4byte	0x987
 4190 09a6 18       		.uleb128 0x18
 4191 09a7 10010000 		.4byte	0x110
 4192 09ab BA090000 		.4byte	0x9ba
 4193 09af 0D       		.uleb128 0xd
 4194 09b0 18030000 		.4byte	0x318
 4195 09b4 0D       		.uleb128 0xd
 4196 09b5 3C010000 		.4byte	0x13c
 4197 09b9 00       		.byte	0
 4198 09ba 0A       		.uleb128 0xa
 4199 09bb 04       		.byte	0x4
 4200 09bc A6090000 		.4byte	0x9a6
 4201 09c0 18       		.uleb128 0x18
 4202 09c1 2C000000 		.4byte	0x2c
 4203 09c5 DE090000 		.4byte	0x9de
 4204 09c9 0D       		.uleb128 0xd
 4205 09ca 18030000 		.4byte	0x318
 4206 09ce 0D       		.uleb128 0xd
 4207 09cf FD080000 		.4byte	0x8fd
 4208 09d3 0D       		.uleb128 0xd
 4209 09d4 2C000000 		.4byte	0x2c
 4210 09d8 0D       		.uleb128 0xd
 4211 09d9 3C010000 		.4byte	0x13c
 4212 09dd 00       		.byte	0
 4213 09de 0A       		.uleb128 0xa
 4214 09df 04       		.byte	0x4
 4215 09e0 C0090000 		.4byte	0x9c0
 4216 09e4 18       		.uleb128 0x18
 4217 09e5 2C000000 		.4byte	0x2c
 4218 09e9 020A0000 		.4byte	0xa02
 4219 09ed 0D       		.uleb128 0xd
 4220 09ee 18030000 		.4byte	0x318
 4221 09f2 0D       		.uleb128 0xd
 4222 09f3 A1080000 		.4byte	0x8a1
 4223 09f7 0D       		.uleb128 0xd
 4224 09f8 2C000000 		.4byte	0x2c
 4225 09fc 0D       		.uleb128 0xd
ARM GAS  /tmp/ccGrz3Xa.s 			page 136


 4226 09fd 3C010000 		.4byte	0x13c
 4227 0a01 00       		.byte	0
 4228 0a02 0A       		.uleb128 0xa
 4229 0a03 04       		.byte	0x4
 4230 0a04 E4090000 		.4byte	0x9e4
 4231 0a08 0F       		.uleb128 0xf
 4232 0a09 2C000000 		.4byte	0x2c
 4233 0a0d 03       		.uleb128 0x3
 4234 0a0e 0F010000 		.4byte	.LASF118
 4235 0a12 12       		.byte	0x12
 4236 0a13 2A       		.byte	0x2a
 4237 0a14 180A0000 		.4byte	0xa18
 4238 0a18 05       		.uleb128 0x5
 4239 0a19 F1030000 		.4byte	.LASF119
 4240 0a1d 24       		.byte	0x24
 4241 0a1e 12       		.byte	0x12
 4242 0a1f 3B       		.byte	0x3b
 4243 0a20 850A0000 		.4byte	0xa85
 4244 0a24 06       		.uleb128 0x6
 4245 0a25 80000000 		.4byte	.LASF120
 4246 0a29 12       		.byte	0x12
 4247 0a2a 3C       		.byte	0x3c
 4248 0a2b 65020000 		.4byte	0x265
 4249 0a2f 00       		.byte	0
 4250 0a30 06       		.uleb128 0x6
 4251 0a31 36040000 		.4byte	.LASF121
 4252 0a35 12       		.byte	0x12
 4253 0a36 3D       		.byte	0x3d
 4254 0a37 080A0000 		.4byte	0xa08
 4255 0a3b 08       		.byte	0x8
 4256 0a3c 06       		.uleb128 0x6
 4257 0a3d ED010000 		.4byte	.LASF122
 4258 0a41 12       		.byte	0x12
 4259 0a42 3E       		.byte	0x3e
 4260 0a43 A1080000 		.4byte	0x8a1
 4261 0a47 0C       		.byte	0xc
 4262 0a48 06       		.uleb128 0x6
 4263 0a49 26070000 		.4byte	.LASF123
 4264 0a4d 12       		.byte	0x12
 4265 0a4e 3F       		.byte	0x3f
 4266 0a4f A1080000 		.4byte	0x8a1
 4267 0a53 10       		.byte	0x10
 4268 0a54 06       		.uleb128 0x6
 4269 0a55 4F040000 		.4byte	.LASF124
 4270 0a59 12       		.byte	0x12
 4271 0a5a 41       		.byte	0x41
 4272 0a5b A1080000 		.4byte	0x8a1
 4273 0a5f 14       		.byte	0x14
 4274 0a60 06       		.uleb128 0x6
 4275 0a61 DE040000 		.4byte	.LASF125
 4276 0a65 12       		.byte	0x12
 4277 0a66 42       		.byte	0x42
 4278 0a67 A1080000 		.4byte	0x8a1
 4279 0a6b 18       		.byte	0x18
 4280 0a6c 06       		.uleb128 0x6
 4281 0a6d 35070000 		.4byte	.LASF126
 4282 0a71 12       		.byte	0x12
ARM GAS  /tmp/ccGrz3Xa.s 			page 137


 4283 0a72 43       		.byte	0x43
 4284 0a73 850A0000 		.4byte	0xa85
 4285 0a77 1C       		.byte	0x1c
 4286 0a78 06       		.uleb128 0x6
 4287 0a79 05020000 		.4byte	.LASF127
 4288 0a7d 12       		.byte	0x12
 4289 0a7e 44       		.byte	0x44
 4290 0a7f 18030000 		.4byte	0x318
 4291 0a83 20       		.byte	0x20
 4292 0a84 00       		.byte	0
 4293 0a85 03       		.uleb128 0x3
 4294 0a86 4B020000 		.4byte	.LASF128
 4295 0a8a 12       		.byte	0x12
 4296 0a8b 31       		.byte	0x31
 4297 0a8c 900A0000 		.4byte	0xa90
 4298 0a90 0A       		.uleb128 0xa
 4299 0a91 04       		.byte	0x4
 4300 0a92 960A0000 		.4byte	0xa96
 4301 0a96 0C       		.uleb128 0xc
 4302 0a97 A10A0000 		.4byte	0xaa1
 4303 0a9b 0D       		.uleb128 0xd
 4304 0a9c A10A0000 		.4byte	0xaa1
 4305 0aa0 00       		.byte	0
 4306 0aa1 0A       		.uleb128 0xa
 4307 0aa2 04       		.byte	0x4
 4308 0aa3 0D0A0000 		.4byte	0xa0d
 4309 0aa7 03       		.uleb128 0x3
 4310 0aa8 DE030000 		.4byte	.LASF129
 4311 0aac 12       		.byte	0x12
 4312 0aad 7A       		.byte	0x7a
 4313 0aae 0D0A0000 		.4byte	0xa0d
 4314 0ab2 03       		.uleb128 0x3
 4315 0ab3 40040000 		.4byte	.LASF130
 4316 0ab7 12       		.byte	0x12
 4317 0ab8 CA       		.byte	0xca
 4318 0ab9 0D0A0000 		.4byte	0xa0d
 4319 0abd 03       		.uleb128 0x3
 4320 0abe 8A000000 		.4byte	.LASF131
 4321 0ac2 13       		.byte	0x13
 4322 0ac3 92       		.byte	0x92
 4323 0ac4 CE000000 		.4byte	0xce
 4324 0ac8 03       		.uleb128 0x3
 4325 0ac9 16040000 		.4byte	.LASF132
 4326 0acd 13       		.byte	0x13
 4327 0ace 97       		.byte	0x97
 4328 0acf CE000000 		.4byte	0xce
 4329 0ad3 03       		.uleb128 0x3
 4330 0ad4 7F060000 		.4byte	.LASF133
 4331 0ad8 13       		.byte	0x13
 4332 0ad9 A4       		.byte	0xa4
 4333 0ada DE0A0000 		.4byte	0xade
 4334 0ade 0A       		.uleb128 0xa
 4335 0adf 04       		.byte	0x4
 4336 0ae0 C5040000 		.4byte	0x4c5
 4337 0ae4 1A       		.uleb128 0x1a
 4338 0ae5 01       		.byte	0x1
 4339 0ae6 14       		.byte	0x14
ARM GAS  /tmp/ccGrz3Xa.s 			page 138


 4340 0ae7 4A       		.byte	0x4a
 4341 0ae8 FF0A0000 		.4byte	0xaff
 4342 0aec 1B       		.uleb128 0x1b
 4343 0aed 59080000 		.4byte	.LASF134
 4344 0af1 00       		.sleb128 0
 4345 0af2 1B       		.uleb128 0x1b
 4346 0af3 12050000 		.4byte	.LASF135
 4347 0af7 01       		.sleb128 1
 4348 0af8 1B       		.uleb128 0x1b
 4349 0af9 29010000 		.4byte	.LASF136
 4350 0afd 02       		.sleb128 2
 4351 0afe 00       		.byte	0
 4352 0aff 03       		.uleb128 0x3
 4353 0b00 0C080000 		.4byte	.LASF137
 4354 0b04 14       		.byte	0x14
 4355 0b05 4E       		.byte	0x4e
 4356 0b06 E40A0000 		.4byte	0xae4
 4357 0b0a 03       		.uleb128 0x3
 4358 0b0b 59070000 		.4byte	.LASF138
 4359 0b0f 14       		.byte	0x14
 4360 0b10 53       		.byte	0x53
 4361 0b11 150B0000 		.4byte	0xb15
 4362 0b15 0B       		.uleb128 0xb
 4363 0b16 59070000 		.4byte	.LASF138
 4364 0b1a 1C       		.byte	0x1c
 4365 0b1b 15       		.byte	0x15
 4366 0b1c B301     		.2byte	0x1b3
 4367 0b1e 7E0B0000 		.4byte	0xb7e
 4368 0b22 09       		.uleb128 0x9
 4369 0b23 AC010000 		.4byte	.LASF36
 4370 0b27 15       		.byte	0x15
 4371 0b28 B701     		.2byte	0x1b7
 4372 0b2a FF0A0000 		.4byte	0xaff
 4373 0b2e 00       		.byte	0
 4374 0b2f 09       		.uleb128 0x9
 4375 0b30 20060000 		.4byte	.LASF139
 4376 0b34 15       		.byte	0x15
 4377 0b35 BB01     		.2byte	0x1bb
 4378 0b37 740C0000 		.4byte	0xc74
 4379 0b3b 04       		.byte	0x4
 4380 0b3c 09       		.uleb128 0x9
 4381 0b3d 6E060000 		.4byte	.LASF140
 4382 0b41 15       		.byte	0x15
 4383 0b42 BF01     		.2byte	0x1bf
 4384 0b44 C40B0000 		.4byte	0xbc4
 4385 0b48 08       		.byte	0x8
 4386 0b49 09       		.uleb128 0x9
 4387 0b4a C3050000 		.4byte	.LASF141
 4388 0b4e 15       		.byte	0x15
 4389 0b4f C301     		.2byte	0x1c3
 4390 0b51 B80B0000 		.4byte	0xbb8
 4391 0b55 0C       		.byte	0xc
 4392 0b56 09       		.uleb128 0x9
 4393 0b57 B2010000 		.4byte	.LASF142
 4394 0b5b 15       		.byte	0x15
 4395 0b5c C701     		.2byte	0x1c7
 4396 0b5e AC0B0000 		.4byte	0xbac
ARM GAS  /tmp/ccGrz3Xa.s 			page 139


 4397 0b62 10       		.byte	0x10
 4398 0b63 09       		.uleb128 0x9
 4399 0b64 46080000 		.4byte	.LASF143
 4400 0b68 15       		.byte	0x15
 4401 0b69 CF01     		.2byte	0x1cf
 4402 0b6b CE000000 		.4byte	0xce
 4403 0b6f 14       		.byte	0x14
 4404 0b70 08       		.uleb128 0x8
 4405 0b71 74696D00 		.ascii	"tim\000"
 4406 0b75 15       		.byte	0x15
 4407 0b76 D301     		.2byte	0x1d3
 4408 0b78 7F0C0000 		.4byte	0xc7f
 4409 0b7c 18       		.byte	0x18
 4410 0b7d 00       		.byte	0
 4411 0b7e 03       		.uleb128 0x3
 4412 0b7f 9C040000 		.4byte	.LASF144
 4413 0b83 14       		.byte	0x14
 4414 0b84 5A       		.byte	0x5a
 4415 0b85 890B0000 		.4byte	0xb89
 4416 0b89 0A       		.uleb128 0xa
 4417 0b8a 04       		.byte	0x4
 4418 0b8b 8F0B0000 		.4byte	0xb8f
 4419 0b8f 0C       		.uleb128 0xc
 4420 0b90 9A0B0000 		.4byte	0xb9a
 4421 0b94 0D       		.uleb128 0xd
 4422 0b95 9A0B0000 		.4byte	0xb9a
 4423 0b99 00       		.byte	0
 4424 0b9a 0A       		.uleb128 0xa
 4425 0b9b 04       		.byte	0x4
 4426 0b9c 0A0B0000 		.4byte	0xb0a
 4427 0ba0 13       		.uleb128 0x13
 4428 0ba1 7A010000 		.4byte	.LASF145
 4429 0ba5 15       		.byte	0x15
 4430 0ba6 5F01     		.2byte	0x15f
 4431 0ba8 CE000000 		.4byte	0xce
 4432 0bac 13       		.uleb128 0x13
 4433 0bad 08000000 		.4byte	.LASF146
 4434 0bb1 15       		.byte	0x15
 4435 0bb2 6401     		.2byte	0x164
 4436 0bb4 AD000000 		.4byte	0xad
 4437 0bb8 13       		.uleb128 0x13
 4438 0bb9 47050000 		.4byte	.LASF147
 4439 0bbd 15       		.byte	0x15
 4440 0bbe 6901     		.2byte	0x169
 4441 0bc0 CE000000 		.4byte	0xce
 4442 0bc4 13       		.uleb128 0x13
 4443 0bc5 1F080000 		.4byte	.LASF148
 4444 0bc9 15       		.byte	0x15
 4445 0bca 6E01     		.2byte	0x16e
 4446 0bcc CE000000 		.4byte	0xce
 4447 0bd0 12       		.uleb128 0x12
 4448 0bd1 08       		.byte	0x8
 4449 0bd2 15       		.byte	0x15
 4450 0bd3 7301     		.2byte	0x173
 4451 0bd5 F40B0000 		.4byte	0xbf4
 4452 0bd9 09       		.uleb128 0x9
 4453 0bda 15060000 		.4byte	.LASF149
ARM GAS  /tmp/ccGrz3Xa.s 			page 140


 4454 0bde 15       		.byte	0x15
 4455 0bdf 7701     		.2byte	0x177
 4456 0be1 A00B0000 		.4byte	0xba0
 4457 0be5 00       		.byte	0
 4458 0be6 09       		.uleb128 0x9
 4459 0be7 70030000 		.4byte	.LASF150
 4460 0beb 15       		.byte	0x15
 4461 0bec 7D01     		.2byte	0x17d
 4462 0bee 7E0B0000 		.4byte	0xb7e
 4463 0bf2 04       		.byte	0x4
 4464 0bf3 00       		.byte	0
 4465 0bf4 13       		.uleb128 0x13
 4466 0bf5 D5060000 		.4byte	.LASF151
 4467 0bf9 15       		.byte	0x15
 4468 0bfa 7F01     		.2byte	0x17f
 4469 0bfc D00B0000 		.4byte	0xbd0
 4470 0c00 12       		.uleb128 0x12
 4471 0c01 34       		.byte	0x34
 4472 0c02 15       		.byte	0x15
 4473 0c03 8401     		.2byte	0x184
 4474 0c05 580C0000 		.4byte	0xc58
 4475 0c09 09       		.uleb128 0x9
 4476 0c0a 1F010000 		.4byte	.LASF152
 4477 0c0e 15       		.byte	0x15
 4478 0c0f 8A01     		.2byte	0x18a
 4479 0c11 CE000000 		.4byte	0xce
 4480 0c15 00       		.byte	0
 4481 0c16 09       		.uleb128 0x9
 4482 0c17 6E060000 		.4byte	.LASF140
 4483 0c1b 15       		.byte	0x15
 4484 0c1c 9001     		.2byte	0x190
 4485 0c1e C40B0000 		.4byte	0xbc4
 4486 0c22 04       		.byte	0x4
 4487 0c23 09       		.uleb128 0x9
 4488 0c24 70030000 		.4byte	.LASF150
 4489 0c28 15       		.byte	0x15
 4490 0c29 9601     		.2byte	0x196
 4491 0c2b 7E0B0000 		.4byte	0xb7e
 4492 0c2f 08       		.byte	0x8
 4493 0c30 09       		.uleb128 0x9
 4494 0c31 B2010000 		.4byte	.LASF142
 4495 0c35 15       		.byte	0x15
 4496 0c36 9A01     		.2byte	0x19a
 4497 0c38 580C0000 		.4byte	0xc58
 4498 0c3c 0C       		.byte	0xc
 4499 0c3d 08       		.uleb128 0x8
 4500 0c3e 63723200 		.ascii	"cr2\000"
 4501 0c42 15       		.byte	0x15
 4502 0c43 A001     		.2byte	0x1a0
 4503 0c45 CE000000 		.4byte	0xce
 4504 0c49 2C       		.byte	0x2c
 4505 0c4a 09       		.uleb128 0x9
 4506 0c4b 8D080000 		.4byte	.LASF153
 4507 0c4f 15       		.byte	0x15
 4508 0c50 AD01     		.2byte	0x1ad
 4509 0c52 CE000000 		.4byte	0xce
 4510 0c56 30       		.byte	0x30
ARM GAS  /tmp/ccGrz3Xa.s 			page 141


 4511 0c57 00       		.byte	0
 4512 0c58 10       		.uleb128 0x10
 4513 0c59 F40B0000 		.4byte	0xbf4
 4514 0c5d 680C0000 		.4byte	0xc68
 4515 0c61 11       		.uleb128 0x11
 4516 0c62 34040000 		.4byte	0x434
 4517 0c66 03       		.byte	0x3
 4518 0c67 00       		.byte	0
 4519 0c68 13       		.uleb128 0x13
 4520 0c69 1C070000 		.4byte	.LASF154
 4521 0c6d 15       		.byte	0x15
 4522 0c6e AE01     		.2byte	0x1ae
 4523 0c70 000C0000 		.4byte	0xc00
 4524 0c74 0A       		.uleb128 0xa
 4525 0c75 04       		.byte	0x4
 4526 0c76 7A0C0000 		.4byte	0xc7a
 4527 0c7a 17       		.uleb128 0x17
 4528 0c7b 680C0000 		.4byte	0xc68
 4529 0c7f 0A       		.uleb128 0xa
 4530 0c80 04       		.byte	0x4
 4531 0c81 06070000 		.4byte	0x706
 4532 0c85 1A       		.uleb128 0x1a
 4533 0c86 01       		.byte	0x1
 4534 0c87 16       		.byte	0x16
 4535 0c88 58       		.byte	0x58
 4536 0c89 A00C0000 		.4byte	0xca0
 4537 0c8d 1B       		.uleb128 0x1b
 4538 0c8e 89050000 		.4byte	.LASF155
 4539 0c92 00       		.sleb128 0
 4540 0c93 1B       		.uleb128 0x1b
 4541 0c94 CE040000 		.4byte	.LASF156
 4542 0c98 01       		.sleb128 1
 4543 0c99 1B       		.uleb128 0x1b
 4544 0c9a F9060000 		.4byte	.LASF157
 4545 0c9e 02       		.sleb128 2
 4546 0c9f 00       		.byte	0
 4547 0ca0 03       		.uleb128 0x3
 4548 0ca1 B9050000 		.4byte	.LASF158
 4549 0ca5 16       		.byte	0x16
 4550 0ca6 5C       		.byte	0x5c
 4551 0ca7 850C0000 		.4byte	0xc85
 4552 0cab 03       		.uleb128 0x3
 4553 0cac D1050000 		.4byte	.LASF159
 4554 0cb0 16       		.byte	0x16
 4555 0cb1 61       		.byte	0x61
 4556 0cb2 B60C0000 		.4byte	0xcb6
 4557 0cb6 05       		.uleb128 0x5
 4558 0cb7 D1050000 		.4byte	.LASF159
 4559 0cbb 7C       		.byte	0x7c
 4560 0cbc 16       		.byte	0x16
 4561 0cbd 7B       		.byte	0x7b
 4562 0cbe 2D0D0000 		.4byte	0xd2d
 4563 0cc2 07       		.uleb128 0x7
 4564 0cc3 766D7400 		.ascii	"vmt\000"
 4565 0cc7 16       		.byte	0x16
 4566 0cc8 7D       		.byte	0x7d
 4567 0cc9 E40D0000 		.4byte	0xde4
ARM GAS  /tmp/ccGrz3Xa.s 			page 142


 4568 0ccd 00       		.byte	0
 4569 0cce 06       		.uleb128 0x6
 4570 0ccf 3A030000 		.4byte	.LASF160
 4571 0cd3 16       		.byte	0x16
 4572 0cd4 7E       		.byte	0x7e
 4573 0cd5 8F080000 		.4byte	0x88f
 4574 0cd9 04       		.byte	0x4
 4575 0cda 06       		.uleb128 0x6
 4576 0cdb AC010000 		.4byte	.LASF36
 4577 0cdf 16       		.byte	0x16
 4578 0ce0 7E       		.byte	0x7e
 4579 0ce1 A00C0000 		.4byte	0xca0
 4580 0ce5 08       		.byte	0x8
 4581 0ce6 06       		.uleb128 0x6
 4582 0ce7 F8020000 		.4byte	.LASF161
 4583 0ceb 16       		.byte	0x16
 4584 0cec 7E       		.byte	0x7e
 4585 0ced A70A0000 		.4byte	0xaa7
 4586 0cf1 0C       		.byte	0xc
 4587 0cf2 06       		.uleb128 0x6
 4588 0cf3 40050000 		.4byte	.LASF162
 4589 0cf7 16       		.byte	0x16
 4590 0cf8 7E       		.byte	0x7e
 4591 0cf9 B20A0000 		.4byte	0xab2
 4592 0cfd 30       		.byte	0x30
 4593 0cfe 07       		.uleb128 0x7
 4594 0cff 696200   		.ascii	"ib\000"
 4595 0d02 16       		.byte	0x16
 4596 0d03 7E       		.byte	0x7e
 4597 0d04 EF0D0000 		.4byte	0xdef
 4598 0d08 54       		.byte	0x54
 4599 0d09 07       		.uleb128 0x7
 4600 0d0a 6F6200   		.ascii	"ob\000"
 4601 0d0d 16       		.byte	0x16
 4602 0d0e 7E       		.byte	0x7e
 4603 0d0f EF0D0000 		.4byte	0xdef
 4604 0d13 64       		.byte	0x64
 4605 0d14 06       		.uleb128 0x6
 4606 0d15 8C020000 		.4byte	.LASF163
 4607 0d19 16       		.byte	0x16
 4608 0d1a 7E       		.byte	0x7e
 4609 0d1b FF0D0000 		.4byte	0xdff
 4610 0d1f 74       		.byte	0x74
 4611 0d20 06       		.uleb128 0x6
 4612 0d21 D8000000 		.4byte	.LASF164
 4613 0d25 16       		.byte	0x16
 4614 0d26 7E       		.byte	0x7e
 4615 0d27 AD000000 		.4byte	0xad
 4616 0d2b 78       		.byte	0x78
 4617 0d2c 00       		.byte	0
 4618 0d2d 12       		.uleb128 0x12
 4619 0d2e 0C       		.byte	0xc
 4620 0d2f 17       		.byte	0x17
 4621 0d30 0A01     		.2byte	0x10a
 4622 0d32 6B0D0000 		.4byte	0xd6b
 4623 0d36 09       		.uleb128 0x9
 4624 0d37 BA030000 		.4byte	.LASF165
ARM GAS  /tmp/ccGrz3Xa.s 			page 143


 4625 0d3b 17       		.byte	0x17
 4626 0d3c 0E01     		.2byte	0x10e
 4627 0d3e CE000000 		.4byte	0xce
 4628 0d42 00       		.byte	0
 4629 0d43 08       		.uleb128 0x8
 4630 0d44 63723100 		.ascii	"cr1\000"
 4631 0d48 17       		.byte	0x17
 4632 0d49 1301     		.2byte	0x113
 4633 0d4b B8000000 		.4byte	0xb8
 4634 0d4f 04       		.byte	0x4
 4635 0d50 08       		.uleb128 0x8
 4636 0d51 63723200 		.ascii	"cr2\000"
 4637 0d55 17       		.byte	0x17
 4638 0d56 1701     		.2byte	0x117
 4639 0d58 B8000000 		.4byte	0xb8
 4640 0d5c 06       		.byte	0x6
 4641 0d5d 08       		.uleb128 0x8
 4642 0d5e 63723300 		.ascii	"cr3\000"
 4643 0d62 17       		.byte	0x17
 4644 0d63 1B01     		.2byte	0x11b
 4645 0d65 B8000000 		.4byte	0xb8
 4646 0d69 08       		.byte	0x8
 4647 0d6a 00       		.byte	0
 4648 0d6b 13       		.uleb128 0x13
 4649 0d6c 7B040000 		.4byte	.LASF166
 4650 0d70 17       		.byte	0x17
 4651 0d71 1C01     		.2byte	0x11c
 4652 0d73 2D0D0000 		.4byte	0xd2d
 4653 0d77 05       		.uleb128 0x5
 4654 0d78 D9020000 		.4byte	.LASF167
 4655 0d7c 20       		.byte	0x20
 4656 0d7d 16       		.byte	0x16
 4657 0d7e 70       		.byte	0x70
 4658 0d7f E40D0000 		.4byte	0xde4
 4659 0d83 06       		.uleb128 0x6
 4660 0d84 D8030000 		.4byte	.LASF115
 4661 0d88 16       		.byte	0x16
 4662 0d89 71       		.byte	0x71
 4663 0d8a 08090000 		.4byte	0x908
 4664 0d8e 00       		.byte	0
 4665 0d8f 06       		.uleb128 0x6
 4666 0d90 00060000 		.4byte	.LASF116
 4667 0d94 16       		.byte	0x16
 4668 0d95 71       		.byte	0x71
 4669 0d96 27090000 		.4byte	0x927
 4670 0d9a 04       		.byte	0x4
 4671 0d9b 07       		.uleb128 0x7
 4672 0d9c 70757400 		.ascii	"put\000"
 4673 0da0 16       		.byte	0x16
 4674 0da1 71       		.byte	0x71
 4675 0da2 41090000 		.4byte	0x941
 4676 0da6 08       		.byte	0x8
 4677 0da7 07       		.uleb128 0x7
 4678 0da8 67657400 		.ascii	"get\000"
 4679 0dac 16       		.byte	0x16
 4680 0dad 71       		.byte	0x71
 4681 0dae 56090000 		.4byte	0x956
ARM GAS  /tmp/ccGrz3Xa.s 			page 144


 4682 0db2 0C       		.byte	0xc
 4683 0db3 06       		.uleb128 0x6
 4684 0db4 EC030000 		.4byte	.LASF168
 4685 0db8 16       		.byte	0x16
 4686 0db9 71       		.byte	0x71
 4687 0dba A0090000 		.4byte	0x9a0
 4688 0dbe 10       		.byte	0x10
 4689 0dbf 06       		.uleb128 0x6
 4690 0dc0 24030000 		.4byte	.LASF169
 4691 0dc4 16       		.byte	0x16
 4692 0dc5 71       		.byte	0x71
 4693 0dc6 BA090000 		.4byte	0x9ba
 4694 0dca 14       		.byte	0x14
 4695 0dcb 06       		.uleb128 0x6
 4696 0dcc 87030000 		.4byte	.LASF170
 4697 0dd0 16       		.byte	0x16
 4698 0dd1 71       		.byte	0x71
 4699 0dd2 DE090000 		.4byte	0x9de
 4700 0dd6 18       		.byte	0x18
 4701 0dd7 06       		.uleb128 0x6
 4702 0dd8 33010000 		.4byte	.LASF171
 4703 0ddc 16       		.byte	0x16
 4704 0ddd 71       		.byte	0x71
 4705 0dde 020A0000 		.4byte	0xa02
 4706 0de2 1C       		.byte	0x1c
 4707 0de3 00       		.byte	0
 4708 0de4 0A       		.uleb128 0xa
 4709 0de5 04       		.byte	0x4
 4710 0de6 EA0D0000 		.4byte	0xdea
 4711 0dea 17       		.uleb128 0x17
 4712 0deb 770D0000 		.4byte	0xd77
 4713 0def 10       		.uleb128 0x10
 4714 0df0 AD000000 		.4byte	0xad
 4715 0df4 FF0D0000 		.4byte	0xdff
 4716 0df8 11       		.uleb128 0x11
 4717 0df9 34040000 		.4byte	0x434
 4718 0dfd 0F       		.byte	0xf
 4719 0dfe 00       		.byte	0
 4720 0dff 0A       		.uleb128 0xa
 4721 0e00 04       		.byte	0x4
 4722 0e01 34050000 		.4byte	0x534
 4723 0e05 1C       		.uleb128 0x1c
 4724 0e06 E6060000 		.4byte	.LASF203
 4725 0e0a 02       		.byte	0x2
 4726 0e0b 85       		.byte	0x85
 4727 0e0c 03       		.byte	0x3
 4728 0e0d 1D0E0000 		.4byte	0xe1d
 4729 0e11 1D       		.uleb128 0x1d
 4730 0e12 29030000 		.4byte	.LASF34
 4731 0e16 02       		.byte	0x2
 4732 0e17 85       		.byte	0x85
 4733 0e18 DD070000 		.4byte	0x7dd
 4734 0e1c 00       		.byte	0
 4735 0e1d 1E       		.uleb128 0x1e
 4736 0e1e C8000000 		.4byte	.LASF172
 4737 0e22 01       		.byte	0x1
 4738 0e23 16       		.byte	0x16
ARM GAS  /tmp/ccGrz3Xa.s 			page 145


 4739 0e24 00000000 		.4byte	.LFB219
 4740 0e28 10000000 		.4byte	.LFE219-.LFB219
 4741 0e2c 01       		.uleb128 0x1
 4742 0e2d 9C       		.byte	0x9c
 4743 0e2e 400E0000 		.4byte	0xe40
 4744 0e32 1F       		.uleb128 0x1f
 4745 0e33 C0030000 		.4byte	.LASF174
 4746 0e37 01       		.byte	0x1
 4747 0e38 16       		.byte	0x16
 4748 0e39 9A0B0000 		.4byte	0xb9a
 4749 0e3d 01       		.uleb128 0x1
 4750 0e3e 50       		.byte	0x50
 4751 0e3f 00       		.byte	0
 4752 0e40 1E       		.uleb128 0x1e
 4753 0e41 0C020000 		.4byte	.LASF173
 4754 0e45 01       		.byte	0x1
 4755 0e46 1D       		.byte	0x1d
 4756 0e47 00000000 		.4byte	.LFB220
 4757 0e4b 10000000 		.4byte	.LFE220-.LFB220
 4758 0e4f 01       		.uleb128 0x1
 4759 0e50 9C       		.byte	0x9c
 4760 0e51 630E0000 		.4byte	0xe63
 4761 0e55 1F       		.uleb128 0x1f
 4762 0e56 C0030000 		.4byte	.LASF174
 4763 0e5a 01       		.byte	0x1
 4764 0e5b 1D       		.byte	0x1d
 4765 0e5c 9A0B0000 		.4byte	0xb9a
 4766 0e60 01       		.uleb128 0x1
 4767 0e61 50       		.byte	0x50
 4768 0e62 00       		.byte	0
 4769 0e63 1E       		.uleb128 0x1e
 4770 0e64 F0020000 		.4byte	.LASF175
 4771 0e68 01       		.byte	0x1
 4772 0e69 35       		.byte	0x35
 4773 0e6a 00000000 		.4byte	.LFB221
 4774 0e6e 10000000 		.4byte	.LFE221-.LFB221
 4775 0e72 01       		.uleb128 0x1
 4776 0e73 9C       		.byte	0x9c
 4777 0e74 860E0000 		.4byte	0xe86
 4778 0e78 1F       		.uleb128 0x1f
 4779 0e79 C0030000 		.4byte	.LASF174
 4780 0e7d 01       		.byte	0x1
 4781 0e7e 35       		.byte	0x35
 4782 0e7f 9A0B0000 		.4byte	0xb9a
 4783 0e83 01       		.uleb128 0x1
 4784 0e84 50       		.byte	0x50
 4785 0e85 00       		.byte	0
 4786 0e86 1E       		.uleb128 0x1e
 4787 0e87 58000000 		.4byte	.LASF176
 4788 0e8b 01       		.byte	0x1
 4789 0e8c 3B       		.byte	0x3b
 4790 0e8d 00000000 		.4byte	.LFB222
 4791 0e91 10000000 		.4byte	.LFE222-.LFB222
 4792 0e95 01       		.uleb128 0x1
 4793 0e96 9C       		.byte	0x9c
 4794 0e97 A90E0000 		.4byte	0xea9
 4795 0e9b 1F       		.uleb128 0x1f
ARM GAS  /tmp/ccGrz3Xa.s 			page 146


 4796 0e9c C0030000 		.4byte	.LASF174
 4797 0ea0 01       		.byte	0x1
 4798 0ea1 3B       		.byte	0x3b
 4799 0ea2 9A0B0000 		.4byte	0xb9a
 4800 0ea6 01       		.uleb128 0x1
 4801 0ea7 50       		.byte	0x50
 4802 0ea8 00       		.byte	0
 4803 0ea9 1E       		.uleb128 0x1e
 4804 0eaa D0030000 		.4byte	.LASF177
 4805 0eae 01       		.byte	0x1
 4806 0eaf AD       		.byte	0xad
 4807 0eb0 00000000 		.4byte	.LFB223
 4808 0eb4 34000000 		.4byte	.LFE223-.LFB223
 4809 0eb8 01       		.uleb128 0x1
 4810 0eb9 9C       		.byte	0x9c
 4811 0eba 160F0000 		.4byte	0xf16
 4812 0ebe 20       		.uleb128 0x20
 4813 0ebf 61726700 		.ascii	"arg\000"
 4814 0ec3 01       		.byte	0x1
 4815 0ec4 AD       		.byte	0xad
 4816 0ec5 18030000 		.4byte	0x318
 4817 0ec9 00000000 		.4byte	.LLST0
 4818 0ecd 21       		.uleb128 0x21
 4819 0ece 050E0000 		.4byte	0xe05
 4820 0ed2 02000000 		.4byte	.LBB4
 4821 0ed6 14000000 		.4byte	.LBE4-.LBB4
 4822 0eda 01       		.byte	0x1
 4823 0edb B1       		.byte	0xb1
 4824 0edc ED0E0000 		.4byte	0xeed
 4825 0ee0 22       		.uleb128 0x22
 4826 0ee1 110E0000 		.4byte	0xe11
 4827 0ee5 06       		.uleb128 0x6
 4828 0ee6 03       		.byte	0x3
 4829 0ee7 00000000 		.4byte	.LC0
 4830 0eeb 9F       		.byte	0x9f
 4831 0eec 00       		.byte	0
 4832 0eed 23       		.uleb128 0x23
 4833 0eee 2A000000 		.4byte	.LVL6
 4834 0ef2 151C0000 		.4byte	0x1c15
 4835 0ef6 040F0000 		.4byte	0xf04
 4836 0efa 24       		.uleb128 0x24
 4837 0efb 01       		.uleb128 0x1
 4838 0efc 51       		.byte	0x51
 4839 0efd 05       		.uleb128 0x5
 4840 0efe 03       		.byte	0x3
 4841 0eff 0C000000 		.4byte	.LC1
 4842 0f03 00       		.byte	0
 4843 0f04 25       		.uleb128 0x25
 4844 0f05 32000000 		.4byte	.LVL7
 4845 0f09 361C0000 		.4byte	0x1c36
 4846 0f0d 24       		.uleb128 0x24
 4847 0f0e 01       		.uleb128 0x1
 4848 0f0f 50       		.byte	0x50
 4849 0f10 03       		.uleb128 0x3
 4850 0f11 0A       		.byte	0xa
 4851 0f12 E803     		.2byte	0x3e8
 4852 0f14 00       		.byte	0
ARM GAS  /tmp/ccGrz3Xa.s 			page 147


 4853 0f15 00       		.byte	0
 4854 0f16 26       		.uleb128 0x26
 4855 0f17 4C080000 		.4byte	.LASF204
 4856 0f1b 01       		.byte	0x1
 4857 0f1c C8       		.byte	0xc8
 4858 0f1d 25000000 		.4byte	0x25
 4859 0f21 00000000 		.4byte	.LFB224
 4860 0f25 E00D0000 		.4byte	.LFE224-.LFB224
 4861 0f29 01       		.uleb128 0x1
 4862 0f2a 9C       		.byte	0x9c
 4863 0f2b 1D1B0000 		.4byte	0x1b1d
 4864 0f2f 27       		.uleb128 0x27
 4865 0f30 0A000000 		.4byte	.LVL8
 4866 0f34 481C0000 		.4byte	0x1c48
 4867 0f38 27       		.uleb128 0x27
 4868 0f39 0E000000 		.4byte	.LVL9
 4869 0f3d 4F1C0000 		.4byte	0x1c4f
 4870 0f41 23       		.uleb128 0x23
 4871 0f42 1E000000 		.4byte	.LVL10
 4872 0f46 571C0000 		.4byte	0x1c57
 4873 0f4a 590F0000 		.4byte	0xf59
 4874 0f4e 24       		.uleb128 0x24
 4875 0f4f 01       		.uleb128 0x1
 4876 0f50 52       		.byte	0x52
 4877 0f51 01       		.uleb128 0x1
 4878 0f52 32       		.byte	0x32
 4879 0f53 24       		.uleb128 0x24
 4880 0f54 01       		.uleb128 0x1
 4881 0f55 51       		.byte	0x51
 4882 0f56 01       		.uleb128 0x1
 4883 0f57 31       		.byte	0x31
 4884 0f58 00       		.byte	0
 4885 0f59 23       		.uleb128 0x23
 4886 0f5a 2E000000 		.4byte	.LVL11
 4887 0f5e 571C0000 		.4byte	0x1c57
 4888 0f62 710F0000 		.4byte	0xf71
 4889 0f66 24       		.uleb128 0x24
 4890 0f67 01       		.uleb128 0x1
 4891 0f68 52       		.byte	0x52
 4892 0f69 01       		.uleb128 0x1
 4893 0f6a 32       		.byte	0x32
 4894 0f6b 24       		.uleb128 0x24
 4895 0f6c 01       		.uleb128 0x1
 4896 0f6d 51       		.byte	0x51
 4897 0f6e 01       		.uleb128 0x1
 4898 0f6f 32       		.byte	0x32
 4899 0f70 00       		.byte	0
 4900 0f71 23       		.uleb128 0x23
 4901 0f72 3E000000 		.4byte	.LVL12
 4902 0f76 571C0000 		.4byte	0x1c57
 4903 0f7a 890F0000 		.4byte	0xf89
 4904 0f7e 24       		.uleb128 0x24
 4905 0f7f 01       		.uleb128 0x1
 4906 0f80 52       		.byte	0x52
 4907 0f81 01       		.uleb128 0x1
 4908 0f82 36       		.byte	0x36
 4909 0f83 24       		.uleb128 0x24
ARM GAS  /tmp/ccGrz3Xa.s 			page 148


 4910 0f84 01       		.uleb128 0x1
 4911 0f85 51       		.byte	0x51
 4912 0f86 01       		.uleb128 0x1
 4913 0f87 34       		.byte	0x34
 4914 0f88 00       		.byte	0
 4915 0f89 23       		.uleb128 0x23
 4916 0f8a 4E000000 		.4byte	.LVL13
 4917 0f8e 571C0000 		.4byte	0x1c57
 4918 0f92 A10F0000 		.4byte	0xfa1
 4919 0f96 24       		.uleb128 0x24
 4920 0f97 01       		.uleb128 0x1
 4921 0f98 52       		.byte	0x52
 4922 0f99 01       		.uleb128 0x1
 4923 0f9a 36       		.byte	0x36
 4924 0f9b 24       		.uleb128 0x24
 4925 0f9c 01       		.uleb128 0x1
 4926 0f9d 51       		.byte	0x51
 4927 0f9e 01       		.uleb128 0x1
 4928 0f9f 38       		.byte	0x38
 4929 0fa0 00       		.byte	0
 4930 0fa1 23       		.uleb128 0x23
 4931 0fa2 5E000000 		.4byte	.LVL14
 4932 0fa6 571C0000 		.4byte	0x1c57
 4933 0faa B90F0000 		.4byte	0xfb9
 4934 0fae 24       		.uleb128 0x24
 4935 0faf 01       		.uleb128 0x1
 4936 0fb0 52       		.byte	0x52
 4937 0fb1 01       		.uleb128 0x1
 4938 0fb2 36       		.byte	0x36
 4939 0fb3 24       		.uleb128 0x24
 4940 0fb4 01       		.uleb128 0x1
 4941 0fb5 51       		.byte	0x51
 4942 0fb6 01       		.uleb128 0x1
 4943 0fb7 40       		.byte	0x40
 4944 0fb8 00       		.byte	0
 4945 0fb9 23       		.uleb128 0x23
 4946 0fba 6E000000 		.4byte	.LVL15
 4947 0fbe 571C0000 		.4byte	0x1c57
 4948 0fc2 D20F0000 		.4byte	0xfd2
 4949 0fc6 24       		.uleb128 0x24
 4950 0fc7 01       		.uleb128 0x1
 4951 0fc8 52       		.byte	0x52
 4952 0fc9 01       		.uleb128 0x1
 4953 0fca 34       		.byte	0x34
 4954 0fcb 24       		.uleb128 0x24
 4955 0fcc 01       		.uleb128 0x1
 4956 0fcd 51       		.byte	0x51
 4957 0fce 02       		.uleb128 0x2
 4958 0fcf 08       		.byte	0x8
 4959 0fd0 20       		.byte	0x20
 4960 0fd1 00       		.byte	0
 4961 0fd2 23       		.uleb128 0x23
 4962 0fd3 7E000000 		.4byte	.LVL16
 4963 0fd7 571C0000 		.4byte	0x1c57
 4964 0fdb EB0F0000 		.4byte	0xfeb
 4965 0fdf 24       		.uleb128 0x24
 4966 0fe0 01       		.uleb128 0x1
ARM GAS  /tmp/ccGrz3Xa.s 			page 149


 4967 0fe1 52       		.byte	0x52
 4968 0fe2 01       		.uleb128 0x1
 4969 0fe3 34       		.byte	0x34
 4970 0fe4 24       		.uleb128 0x24
 4971 0fe5 01       		.uleb128 0x1
 4972 0fe6 51       		.byte	0x51
 4973 0fe7 02       		.uleb128 0x2
 4974 0fe8 08       		.byte	0x8
 4975 0fe9 40       		.byte	0x40
 4976 0fea 00       		.byte	0
 4977 0feb 23       		.uleb128 0x23
 4978 0fec 8E000000 		.4byte	.LVL17
 4979 0ff0 571C0000 		.4byte	0x1c57
 4980 0ff4 04100000 		.4byte	0x1004
 4981 0ff8 24       		.uleb128 0x24
 4982 0ff9 01       		.uleb128 0x1
 4983 0ffa 52       		.byte	0x52
 4984 0ffb 01       		.uleb128 0x1
 4985 0ffc 34       		.byte	0x34
 4986 0ffd 24       		.uleb128 0x24
 4987 0ffe 01       		.uleb128 0x1
 4988 0fff 51       		.byte	0x51
 4989 1000 02       		.uleb128 0x2
 4990 1001 08       		.byte	0x8
 4991 1002 80       		.byte	0x80
 4992 1003 00       		.byte	0
 4993 1004 23       		.uleb128 0x23
 4994 1005 A0000000 		.4byte	.LVL18
 4995 1009 571C0000 		.4byte	0x1c57
 4996 100d 1E100000 		.4byte	0x101e
 4997 1011 24       		.uleb128 0x24
 4998 1012 01       		.uleb128 0x1
 4999 1013 52       		.byte	0x52
 5000 1014 01       		.uleb128 0x1
 5001 1015 36       		.byte	0x36
 5002 1016 24       		.uleb128 0x24
 5003 1017 01       		.uleb128 0x1
 5004 1018 51       		.byte	0x51
 5005 1019 03       		.uleb128 0x3
 5006 101a 0A       		.byte	0xa
 5007 101b 0001     		.2byte	0x100
 5008 101d 00       		.byte	0
 5009 101e 23       		.uleb128 0x23
 5010 101f B2000000 		.4byte	.LVL19
 5011 1023 571C0000 		.4byte	0x1c57
 5012 1027 38100000 		.4byte	0x1038
 5013 102b 24       		.uleb128 0x24
 5014 102c 01       		.uleb128 0x1
 5015 102d 52       		.byte	0x52
 5016 102e 01       		.uleb128 0x1
 5017 102f 36       		.byte	0x36
 5018 1030 24       		.uleb128 0x24
 5019 1031 01       		.uleb128 0x1
 5020 1032 51       		.byte	0x51
 5021 1033 03       		.uleb128 0x3
 5022 1034 0A       		.byte	0xa
 5023 1035 0002     		.2byte	0x200
ARM GAS  /tmp/ccGrz3Xa.s 			page 150


 5024 1037 00       		.byte	0
 5025 1038 23       		.uleb128 0x23
 5026 1039 C4000000 		.4byte	.LVL20
 5027 103d 571C0000 		.4byte	0x1c57
 5028 1041 52100000 		.4byte	0x1052
 5029 1045 24       		.uleb128 0x24
 5030 1046 01       		.uleb128 0x1
 5031 1047 52       		.byte	0x52
 5032 1048 01       		.uleb128 0x1
 5033 1049 36       		.byte	0x36
 5034 104a 24       		.uleb128 0x24
 5035 104b 01       		.uleb128 0x1
 5036 104c 51       		.byte	0x51
 5037 104d 03       		.uleb128 0x3
 5038 104e 0A       		.byte	0xa
 5039 104f 0004     		.2byte	0x400
 5040 1051 00       		.byte	0
 5041 1052 23       		.uleb128 0x23
 5042 1053 D6000000 		.4byte	.LVL21
 5043 1057 571C0000 		.4byte	0x1c57
 5044 105b 6C100000 		.4byte	0x106c
 5045 105f 24       		.uleb128 0x24
 5046 1060 01       		.uleb128 0x1
 5047 1061 52       		.byte	0x52
 5048 1062 01       		.uleb128 0x1
 5049 1063 36       		.byte	0x36
 5050 1064 24       		.uleb128 0x24
 5051 1065 01       		.uleb128 0x1
 5052 1066 51       		.byte	0x51
 5053 1067 03       		.uleb128 0x3
 5054 1068 0A       		.byte	0xa
 5055 1069 0008     		.2byte	0x800
 5056 106b 00       		.byte	0
 5057 106c 23       		.uleb128 0x23
 5058 106d E8000000 		.4byte	.LVL22
 5059 1071 571C0000 		.4byte	0x1c57
 5060 1075 86100000 		.4byte	0x1086
 5061 1079 24       		.uleb128 0x24
 5062 107a 01       		.uleb128 0x1
 5063 107b 52       		.byte	0x52
 5064 107c 01       		.uleb128 0x1
 5065 107d 36       		.byte	0x36
 5066 107e 24       		.uleb128 0x24
 5067 107f 01       		.uleb128 0x1
 5068 1080 51       		.byte	0x51
 5069 1081 03       		.uleb128 0x3
 5070 1082 0A       		.byte	0xa
 5071 1083 0008     		.2byte	0x800
 5072 1085 00       		.byte	0
 5073 1086 23       		.uleb128 0x23
 5074 1087 FA000000 		.4byte	.LVL23
 5075 108b 571C0000 		.4byte	0x1c57
 5076 108f A0100000 		.4byte	0x10a0
 5077 1093 24       		.uleb128 0x24
 5078 1094 01       		.uleb128 0x1
 5079 1095 52       		.byte	0x52
 5080 1096 01       		.uleb128 0x1
ARM GAS  /tmp/ccGrz3Xa.s 			page 151


 5081 1097 36       		.byte	0x36
 5082 1098 24       		.uleb128 0x24
 5083 1099 01       		.uleb128 0x1
 5084 109a 51       		.byte	0x51
 5085 109b 03       		.uleb128 0x3
 5086 109c 0A       		.byte	0xa
 5087 109d 0080     		.2byte	0x8000
 5088 109f 00       		.byte	0
 5089 10a0 23       		.uleb128 0x23
 5090 10a1 0C010000 		.4byte	.LVL24
 5091 10a5 571C0000 		.4byte	0x1c57
 5092 10a9 BA100000 		.4byte	0x10ba
 5093 10ad 24       		.uleb128 0x24
 5094 10ae 01       		.uleb128 0x1
 5095 10af 52       		.byte	0x52
 5096 10b0 01       		.uleb128 0x1
 5097 10b1 36       		.byte	0x36
 5098 10b2 24       		.uleb128 0x24
 5099 10b3 01       		.uleb128 0x1
 5100 10b4 51       		.byte	0x51
 5101 10b5 03       		.uleb128 0x3
 5102 10b6 0A       		.byte	0xa
 5103 10b7 0004     		.2byte	0x400
 5104 10b9 00       		.byte	0
 5105 10ba 23       		.uleb128 0x23
 5106 10bb 1E010000 		.4byte	.LVL25
 5107 10bf 571C0000 		.4byte	0x1c57
 5108 10c3 D4100000 		.4byte	0x10d4
 5109 10c7 24       		.uleb128 0x24
 5110 10c8 01       		.uleb128 0x1
 5111 10c9 52       		.byte	0x52
 5112 10ca 01       		.uleb128 0x1
 5113 10cb 36       		.byte	0x36
 5114 10cc 24       		.uleb128 0x24
 5115 10cd 01       		.uleb128 0x1
 5116 10ce 51       		.byte	0x51
 5117 10cf 03       		.uleb128 0x3
 5118 10d0 0A       		.byte	0xa
 5119 10d1 0040     		.2byte	0x4000
 5120 10d3 00       		.byte	0
 5121 10d4 23       		.uleb128 0x23
 5122 10d5 32010000 		.4byte	.LVL26
 5123 10d9 731C0000 		.4byte	0x1c73
 5124 10dd EB100000 		.4byte	0x10eb
 5125 10e1 24       		.uleb128 0x24
 5126 10e2 01       		.uleb128 0x1
 5127 10e3 51       		.byte	0x51
 5128 10e4 05       		.uleb128 0x5
 5129 10e5 03       		.byte	0x3
 5130 10e6 00000000 		.4byte	.LANCHOR0
 5131 10ea 00       		.byte	0
 5132 10eb 27       		.uleb128 0x27
 5133 10ec 3E010000 		.4byte	.LVL27
 5134 10f0 8A1C0000 		.4byte	0x1c8a
 5135 10f4 23       		.uleb128 0x23
 5136 10f5 4E010000 		.4byte	.LVL28
 5137 10f9 9C1C0000 		.4byte	0x1c9c
ARM GAS  /tmp/ccGrz3Xa.s 			page 152


 5138 10fd 0C110000 		.4byte	0x110c
 5139 1101 24       		.uleb128 0x24
 5140 1102 01       		.uleb128 0x1
 5141 1103 52       		.byte	0x52
 5142 1104 01       		.uleb128 0x1
 5143 1105 30       		.byte	0x30
 5144 1106 24       		.uleb128 0x24
 5145 1107 01       		.uleb128 0x1
 5146 1108 51       		.byte	0x51
 5147 1109 01       		.uleb128 0x1
 5148 110a 30       		.byte	0x30
 5149 110b 00       		.byte	0
 5150 110c 23       		.uleb128 0x23
 5151 110d 5C010000 		.4byte	.LVL29
 5152 1111 B81C0000 		.4byte	0x1cb8
 5153 1115 1F110000 		.4byte	0x111f
 5154 1119 24       		.uleb128 0x24
 5155 111a 01       		.uleb128 0x1
 5156 111b 51       		.byte	0x51
 5157 111c 01       		.uleb128 0x1
 5158 111d 30       		.byte	0x30
 5159 111e 00       		.byte	0
 5160 111f 23       		.uleb128 0x23
 5161 1120 70010000 		.4byte	.LVL30
 5162 1124 731C0000 		.4byte	0x1c73
 5163 1128 36110000 		.4byte	0x1136
 5164 112c 24       		.uleb128 0x24
 5165 112d 01       		.uleb128 0x1
 5166 112e 51       		.byte	0x51
 5167 112f 05       		.uleb128 0x5
 5168 1130 03       		.byte	0x3
 5169 1131 00000000 		.4byte	.LANCHOR1
 5170 1135 00       		.byte	0
 5171 1136 27       		.uleb128 0x27
 5172 1137 7C010000 		.4byte	.LVL31
 5173 113b 8A1C0000 		.4byte	0x1c8a
 5174 113f 23       		.uleb128 0x23
 5175 1140 8C010000 		.4byte	.LVL32
 5176 1144 9C1C0000 		.4byte	0x1c9c
 5177 1148 57110000 		.4byte	0x1157
 5178 114c 24       		.uleb128 0x24
 5179 114d 01       		.uleb128 0x1
 5180 114e 52       		.byte	0x52
 5181 114f 01       		.uleb128 0x1
 5182 1150 30       		.byte	0x30
 5183 1151 24       		.uleb128 0x24
 5184 1152 01       		.uleb128 0x1
 5185 1153 51       		.byte	0x51
 5186 1154 01       		.uleb128 0x1
 5187 1155 30       		.byte	0x30
 5188 1156 00       		.byte	0
 5189 1157 23       		.uleb128 0x23
 5190 1158 9A010000 		.4byte	.LVL33
 5191 115c B81C0000 		.4byte	0x1cb8
 5192 1160 6A110000 		.4byte	0x116a
 5193 1164 24       		.uleb128 0x24
 5194 1165 01       		.uleb128 0x1
ARM GAS  /tmp/ccGrz3Xa.s 			page 153


 5195 1166 51       		.byte	0x51
 5196 1167 01       		.uleb128 0x1
 5197 1168 30       		.byte	0x30
 5198 1169 00       		.byte	0
 5199 116a 23       		.uleb128 0x23
 5200 116b B0010000 		.4byte	.LVL34
 5201 116f CF1C0000 		.4byte	0x1ccf
 5202 1173 7D110000 		.4byte	0x117d
 5203 1177 24       		.uleb128 0x24
 5204 1178 01       		.uleb128 0x1
 5205 1179 51       		.byte	0x51
 5206 117a 01       		.uleb128 0x1
 5207 117b 30       		.byte	0x30
 5208 117c 00       		.byte	0
 5209 117d 23       		.uleb128 0x23
 5210 117e F0010000 		.4byte	.LVL35
 5211 1182 F71C0000 		.4byte	0x1cf7
 5212 1186 B0110000 		.4byte	0x11b0
 5213 118a 24       		.uleb128 0x24
 5214 118b 01       		.uleb128 0x1
 5215 118c 53       		.byte	0x53
 5216 118d 05       		.uleb128 0x5
 5217 118e 03       		.byte	0x3
 5218 118f 00000000 		.4byte	Thread2
 5219 1193 24       		.uleb128 0x24
 5220 1194 01       		.uleb128 0x1
 5221 1195 52       		.byte	0x52
 5222 1196 02       		.uleb128 0x2
 5223 1197 08       		.byte	0x8
 5224 1198 81       		.byte	0x81
 5225 1199 24       		.uleb128 0x24
 5226 119a 01       		.uleb128 0x1
 5227 119b 51       		.byte	0x51
 5228 119c 03       		.uleb128 0x3
 5229 119d 0A       		.byte	0xa
 5230 119e 4801     		.2byte	0x148
 5231 11a0 24       		.uleb128 0x24
 5232 11a1 01       		.uleb128 0x1
 5233 11a2 50       		.byte	0x50
 5234 11a3 05       		.uleb128 0x5
 5235 11a4 03       		.byte	0x3
 5236 11a5 00000000 		.4byte	.LANCHOR2
 5237 11a9 24       		.uleb128 0x24
 5238 11aa 02       		.uleb128 0x2
 5239 11ab 7D       		.byte	0x7d
 5240 11ac 00       		.sleb128 0
 5241 11ad 01       		.uleb128 0x1
 5242 11ae 30       		.byte	0x30
 5243 11af 00       		.byte	0
 5244 11b0 23       		.uleb128 0x23
 5245 11b1 26030000 		.4byte	.LVL36
 5246 11b5 9C1C0000 		.4byte	0x1c9c
 5247 11b9 C8110000 		.4byte	0x11c8
 5248 11bd 24       		.uleb128 0x24
 5249 11be 01       		.uleb128 0x1
 5250 11bf 52       		.byte	0x52
 5251 11c0 01       		.uleb128 0x1
ARM GAS  /tmp/ccGrz3Xa.s 			page 154


 5252 11c1 30       		.byte	0x30
 5253 11c2 24       		.uleb128 0x24
 5254 11c3 01       		.uleb128 0x1
 5255 11c4 51       		.byte	0x51
 5256 11c5 01       		.uleb128 0x1
 5257 11c6 30       		.byte	0x30
 5258 11c7 00       		.byte	0
 5259 11c8 23       		.uleb128 0x23
 5260 11c9 3E030000 		.4byte	.LVL37
 5261 11cd 9C1C0000 		.4byte	0x1c9c
 5262 11d1 E0110000 		.4byte	0x11e0
 5263 11d5 24       		.uleb128 0x24
 5264 11d6 01       		.uleb128 0x1
 5265 11d7 52       		.byte	0x52
 5266 11d8 01       		.uleb128 0x1
 5267 11d9 30       		.byte	0x30
 5268 11da 24       		.uleb128 0x24
 5269 11db 01       		.uleb128 0x1
 5270 11dc 51       		.byte	0x51
 5271 11dd 01       		.uleb128 0x1
 5272 11de 30       		.byte	0x30
 5273 11df 00       		.byte	0
 5274 11e0 23       		.uleb128 0x23
 5275 11e1 4E030000 		.4byte	.LVL38
 5276 11e5 361C0000 		.4byte	0x1c36
 5277 11e9 F5110000 		.4byte	0x11f5
 5278 11ed 24       		.uleb128 0x24
 5279 11ee 01       		.uleb128 0x1
 5280 11ef 50       		.byte	0x50
 5281 11f0 03       		.uleb128 0x3
 5282 11f1 0A       		.byte	0xa
 5283 11f2 E803     		.2byte	0x3e8
 5284 11f4 00       		.byte	0
 5285 11f5 23       		.uleb128 0x23
 5286 11f6 6E030000 		.4byte	.LVL39
 5287 11fa 9C1C0000 		.4byte	0x1c9c
 5288 11fe 08120000 		.4byte	0x1208
 5289 1202 24       		.uleb128 0x24
 5290 1203 01       		.uleb128 0x1
 5291 1204 51       		.byte	0x51
 5292 1205 01       		.uleb128 0x1
 5293 1206 30       		.byte	0x30
 5294 1207 00       		.byte	0
 5295 1208 23       		.uleb128 0x23
 5296 1209 8E030000 		.4byte	.LVL40
 5297 120d 9C1C0000 		.4byte	0x1c9c
 5298 1211 1B120000 		.4byte	0x121b
 5299 1215 24       		.uleb128 0x24
 5300 1216 01       		.uleb128 0x1
 5301 1217 51       		.byte	0x51
 5302 1218 01       		.uleb128 0x1
 5303 1219 30       		.byte	0x30
 5304 121a 00       		.byte	0
 5305 121b 23       		.uleb128 0x23
 5306 121c 9E030000 		.4byte	.LVL41
 5307 1220 361C0000 		.4byte	0x1c36
 5308 1224 30120000 		.4byte	0x1230
ARM GAS  /tmp/ccGrz3Xa.s 			page 155


 5309 1228 24       		.uleb128 0x24
 5310 1229 01       		.uleb128 0x1
 5311 122a 50       		.byte	0x50
 5312 122b 03       		.uleb128 0x3
 5313 122c 0A       		.byte	0xa
 5314 122d DC05     		.2byte	0x5dc
 5315 122f 00       		.byte	0
 5316 1230 23       		.uleb128 0x23
 5317 1231 C2030000 		.4byte	.LVL42
 5318 1235 9C1C0000 		.4byte	0x1c9c
 5319 1239 48120000 		.4byte	0x1248
 5320 123d 24       		.uleb128 0x24
 5321 123e 01       		.uleb128 0x1
 5322 123f 52       		.byte	0x52
 5323 1240 01       		.uleb128 0x1
 5324 1241 30       		.byte	0x30
 5325 1242 24       		.uleb128 0x24
 5326 1243 01       		.uleb128 0x1
 5327 1244 51       		.byte	0x51
 5328 1245 01       		.uleb128 0x1
 5329 1246 30       		.byte	0x30
 5330 1247 00       		.byte	0
 5331 1248 23       		.uleb128 0x23
 5332 1249 DA030000 		.4byte	.LVL43
 5333 124d 9C1C0000 		.4byte	0x1c9c
 5334 1251 60120000 		.4byte	0x1260
 5335 1255 24       		.uleb128 0x24
 5336 1256 01       		.uleb128 0x1
 5337 1257 52       		.byte	0x52
 5338 1258 01       		.uleb128 0x1
 5339 1259 30       		.byte	0x30
 5340 125a 24       		.uleb128 0x24
 5341 125b 01       		.uleb128 0x1
 5342 125c 51       		.byte	0x51
 5343 125d 01       		.uleb128 0x1
 5344 125e 30       		.byte	0x30
 5345 125f 00       		.byte	0
 5346 1260 23       		.uleb128 0x23
 5347 1261 EA030000 		.4byte	.LVL44
 5348 1265 361C0000 		.4byte	0x1c36
 5349 1269 75120000 		.4byte	0x1275
 5350 126d 24       		.uleb128 0x24
 5351 126e 01       		.uleb128 0x1
 5352 126f 50       		.byte	0x50
 5353 1270 03       		.uleb128 0x3
 5354 1271 0A       		.byte	0xa
 5355 1272 E803     		.2byte	0x3e8
 5356 1274 00       		.byte	0
 5357 1275 23       		.uleb128 0x23
 5358 1276 0A040000 		.4byte	.LVL45
 5359 127a 9C1C0000 		.4byte	0x1c9c
 5360 127e 88120000 		.4byte	0x1288
 5361 1282 24       		.uleb128 0x24
 5362 1283 01       		.uleb128 0x1
 5363 1284 51       		.byte	0x51
 5364 1285 01       		.uleb128 0x1
 5365 1286 30       		.byte	0x30
ARM GAS  /tmp/ccGrz3Xa.s 			page 156


 5366 1287 00       		.byte	0
 5367 1288 23       		.uleb128 0x23
 5368 1289 1A040000 		.4byte	.LVL46
 5369 128d 9C1C0000 		.4byte	0x1c9c
 5370 1291 A0120000 		.4byte	0x12a0
 5371 1295 24       		.uleb128 0x24
 5372 1296 01       		.uleb128 0x1
 5373 1297 52       		.byte	0x52
 5374 1298 01       		.uleb128 0x1
 5375 1299 30       		.byte	0x30
 5376 129a 24       		.uleb128 0x24
 5377 129b 01       		.uleb128 0x1
 5378 129c 51       		.byte	0x51
 5379 129d 01       		.uleb128 0x1
 5380 129e 30       		.byte	0x30
 5381 129f 00       		.byte	0
 5382 12a0 23       		.uleb128 0x23
 5383 12a1 2A040000 		.4byte	.LVL47
 5384 12a5 361C0000 		.4byte	0x1c36
 5385 12a9 B5120000 		.4byte	0x12b5
 5386 12ad 24       		.uleb128 0x24
 5387 12ae 01       		.uleb128 0x1
 5388 12af 50       		.byte	0x50
 5389 12b0 03       		.uleb128 0x3
 5390 12b1 0A       		.byte	0xa
 5391 12b2 2602     		.2byte	0x226
 5392 12b4 00       		.byte	0
 5393 12b5 23       		.uleb128 0x23
 5394 12b6 3A040000 		.4byte	.LVL48
 5395 12ba 9C1C0000 		.4byte	0x1c9c
 5396 12be CD120000 		.4byte	0x12cd
 5397 12c2 24       		.uleb128 0x24
 5398 12c3 01       		.uleb128 0x1
 5399 12c4 52       		.byte	0x52
 5400 12c5 01       		.uleb128 0x1
 5401 12c6 30       		.byte	0x30
 5402 12c7 24       		.uleb128 0x24
 5403 12c8 01       		.uleb128 0x1
 5404 12c9 51       		.byte	0x51
 5405 12ca 01       		.uleb128 0x1
 5406 12cb 30       		.byte	0x30
 5407 12cc 00       		.byte	0
 5408 12cd 23       		.uleb128 0x23
 5409 12ce 4A040000 		.4byte	.LVL49
 5410 12d2 9C1C0000 		.4byte	0x1c9c
 5411 12d6 E5120000 		.4byte	0x12e5
 5412 12da 24       		.uleb128 0x24
 5413 12db 01       		.uleb128 0x1
 5414 12dc 52       		.byte	0x52
 5415 12dd 01       		.uleb128 0x1
 5416 12de 30       		.byte	0x30
 5417 12df 24       		.uleb128 0x24
 5418 12e0 01       		.uleb128 0x1
 5419 12e1 51       		.byte	0x51
 5420 12e2 01       		.uleb128 0x1
 5421 12e3 30       		.byte	0x30
 5422 12e4 00       		.byte	0
ARM GAS  /tmp/ccGrz3Xa.s 			page 157


 5423 12e5 23       		.uleb128 0x23
 5424 12e6 58040000 		.4byte	.LVL50
 5425 12ea 361C0000 		.4byte	0x1c36
 5426 12ee F9120000 		.4byte	0x12f9
 5427 12f2 24       		.uleb128 0x24
 5428 12f3 01       		.uleb128 0x1
 5429 12f4 50       		.byte	0x50
 5430 12f5 02       		.uleb128 0x2
 5431 12f6 7A       		.byte	0x7a
 5432 12f7 00       		.sleb128 0
 5433 12f8 00       		.byte	0
 5434 12f9 23       		.uleb128 0x23
 5435 12fa 7A040000 		.4byte	.LVL51
 5436 12fe 9C1C0000 		.4byte	0x1c9c
 5437 1302 0C130000 		.4byte	0x130c
 5438 1306 24       		.uleb128 0x24
 5439 1307 01       		.uleb128 0x1
 5440 1308 51       		.byte	0x51
 5441 1309 01       		.uleb128 0x1
 5442 130a 30       		.byte	0x30
 5443 130b 00       		.byte	0
 5444 130c 23       		.uleb128 0x23
 5445 130d 98040000 		.4byte	.LVL52
 5446 1311 9C1C0000 		.4byte	0x1c9c
 5447 1315 1F130000 		.4byte	0x131f
 5448 1319 24       		.uleb128 0x24
 5449 131a 01       		.uleb128 0x1
 5450 131b 51       		.byte	0x51
 5451 131c 01       		.uleb128 0x1
 5452 131d 30       		.byte	0x30
 5453 131e 00       		.byte	0
 5454 131f 23       		.uleb128 0x23
 5455 1320 A8040000 		.4byte	.LVL53
 5456 1324 361C0000 		.4byte	0x1c36
 5457 1328 34130000 		.4byte	0x1334
 5458 132c 24       		.uleb128 0x24
 5459 132d 01       		.uleb128 0x1
 5460 132e 50       		.byte	0x50
 5461 132f 03       		.uleb128 0x3
 5462 1330 0A       		.byte	0xa
 5463 1331 DC05     		.2byte	0x5dc
 5464 1333 00       		.byte	0
 5465 1334 23       		.uleb128 0x23
 5466 1335 32050000 		.4byte	.LVL54
 5467 1339 9C1C0000 		.4byte	0x1c9c
 5468 133d 4C130000 		.4byte	0x134c
 5469 1341 24       		.uleb128 0x24
 5470 1342 01       		.uleb128 0x1
 5471 1343 52       		.byte	0x52
 5472 1344 01       		.uleb128 0x1
 5473 1345 30       		.byte	0x30
 5474 1346 24       		.uleb128 0x24
 5475 1347 01       		.uleb128 0x1
 5476 1348 51       		.byte	0x51
 5477 1349 01       		.uleb128 0x1
 5478 134a 30       		.byte	0x30
 5479 134b 00       		.byte	0
ARM GAS  /tmp/ccGrz3Xa.s 			page 158


 5480 134c 23       		.uleb128 0x23
 5481 134d 4A050000 		.4byte	.LVL55
 5482 1351 9C1C0000 		.4byte	0x1c9c
 5483 1355 64130000 		.4byte	0x1364
 5484 1359 24       		.uleb128 0x24
 5485 135a 01       		.uleb128 0x1
 5486 135b 52       		.byte	0x52
 5487 135c 01       		.uleb128 0x1
 5488 135d 30       		.byte	0x30
 5489 135e 24       		.uleb128 0x24
 5490 135f 01       		.uleb128 0x1
 5491 1360 51       		.byte	0x51
 5492 1361 01       		.uleb128 0x1
 5493 1362 30       		.byte	0x30
 5494 1363 00       		.byte	0
 5495 1364 23       		.uleb128 0x23
 5496 1365 5A050000 		.4byte	.LVL56
 5497 1369 361C0000 		.4byte	0x1c36
 5498 136d 79130000 		.4byte	0x1379
 5499 1371 24       		.uleb128 0x24
 5500 1372 01       		.uleb128 0x1
 5501 1373 50       		.byte	0x50
 5502 1374 03       		.uleb128 0x3
 5503 1375 0A       		.byte	0xa
 5504 1376 E803     		.2byte	0x3e8
 5505 1378 00       		.byte	0
 5506 1379 23       		.uleb128 0x23
 5507 137a 78050000 		.4byte	.LVL57
 5508 137e 9C1C0000 		.4byte	0x1c9c
 5509 1382 8C130000 		.4byte	0x138c
 5510 1386 24       		.uleb128 0x24
 5511 1387 01       		.uleb128 0x1
 5512 1388 51       		.byte	0x51
 5513 1389 01       		.uleb128 0x1
 5514 138a 30       		.byte	0x30
 5515 138b 00       		.byte	0
 5516 138c 23       		.uleb128 0x23
 5517 138d 88050000 		.4byte	.LVL58
 5518 1391 9C1C0000 		.4byte	0x1c9c
 5519 1395 A4130000 		.4byte	0x13a4
 5520 1399 24       		.uleb128 0x24
 5521 139a 01       		.uleb128 0x1
 5522 139b 52       		.byte	0x52
 5523 139c 01       		.uleb128 0x1
 5524 139d 30       		.byte	0x30
 5525 139e 24       		.uleb128 0x24
 5526 139f 01       		.uleb128 0x1
 5527 13a0 51       		.byte	0x51
 5528 13a1 01       		.uleb128 0x1
 5529 13a2 30       		.byte	0x30
 5530 13a3 00       		.byte	0
 5531 13a4 23       		.uleb128 0x23
 5532 13a5 98050000 		.4byte	.LVL59
 5533 13a9 361C0000 		.4byte	0x1c36
 5534 13ad B9130000 		.4byte	0x13b9
 5535 13b1 24       		.uleb128 0x24
 5536 13b2 01       		.uleb128 0x1
ARM GAS  /tmp/ccGrz3Xa.s 			page 159


 5537 13b3 50       		.byte	0x50
 5538 13b4 03       		.uleb128 0x3
 5539 13b5 0A       		.byte	0xa
 5540 13b6 2602     		.2byte	0x226
 5541 13b8 00       		.byte	0
 5542 13b9 23       		.uleb128 0x23
 5543 13ba A8050000 		.4byte	.LVL60
 5544 13be 9C1C0000 		.4byte	0x1c9c
 5545 13c2 D1130000 		.4byte	0x13d1
 5546 13c6 24       		.uleb128 0x24
 5547 13c7 01       		.uleb128 0x1
 5548 13c8 52       		.byte	0x52
 5549 13c9 01       		.uleb128 0x1
 5550 13ca 30       		.byte	0x30
 5551 13cb 24       		.uleb128 0x24
 5552 13cc 01       		.uleb128 0x1
 5553 13cd 51       		.byte	0x51
 5554 13ce 01       		.uleb128 0x1
 5555 13cf 30       		.byte	0x30
 5556 13d0 00       		.byte	0
 5557 13d1 23       		.uleb128 0x23
 5558 13d2 B8050000 		.4byte	.LVL61
 5559 13d6 9C1C0000 		.4byte	0x1c9c
 5560 13da E9130000 		.4byte	0x13e9
 5561 13de 24       		.uleb128 0x24
 5562 13df 01       		.uleb128 0x1
 5563 13e0 52       		.byte	0x52
 5564 13e1 01       		.uleb128 0x1
 5565 13e2 30       		.byte	0x30
 5566 13e3 24       		.uleb128 0x24
 5567 13e4 01       		.uleb128 0x1
 5568 13e5 51       		.byte	0x51
 5569 13e6 01       		.uleb128 0x1
 5570 13e7 30       		.byte	0x30
 5571 13e8 00       		.byte	0
 5572 13e9 23       		.uleb128 0x23
 5573 13ea C6050000 		.4byte	.LVL62
 5574 13ee 361C0000 		.4byte	0x1c36
 5575 13f2 FD130000 		.4byte	0x13fd
 5576 13f6 24       		.uleb128 0x24
 5577 13f7 01       		.uleb128 0x1
 5578 13f8 50       		.byte	0x50
 5579 13f9 02       		.uleb128 0x2
 5580 13fa 7B       		.byte	0x7b
 5581 13fb 00       		.sleb128 0
 5582 13fc 00       		.byte	0
 5583 13fd 23       		.uleb128 0x23
 5584 13fe 1C060000 		.4byte	.LVL63
 5585 1402 9C1C0000 		.4byte	0x1c9c
 5586 1406 10140000 		.4byte	0x1410
 5587 140a 24       		.uleb128 0x24
 5588 140b 01       		.uleb128 0x1
 5589 140c 51       		.byte	0x51
 5590 140d 01       		.uleb128 0x1
 5591 140e 30       		.byte	0x30
 5592 140f 00       		.byte	0
 5593 1410 23       		.uleb128 0x23
ARM GAS  /tmp/ccGrz3Xa.s 			page 160


 5594 1411 40060000 		.4byte	.LVL64
 5595 1415 9C1C0000 		.4byte	0x1c9c
 5596 1419 23140000 		.4byte	0x1423
 5597 141d 24       		.uleb128 0x24
 5598 141e 01       		.uleb128 0x1
 5599 141f 51       		.byte	0x51
 5600 1420 01       		.uleb128 0x1
 5601 1421 30       		.byte	0x30
 5602 1422 00       		.byte	0
 5603 1423 23       		.uleb128 0x23
 5604 1424 4E060000 		.4byte	.LVL65
 5605 1428 361C0000 		.4byte	0x1c36
 5606 142c 38140000 		.4byte	0x1438
 5607 1430 24       		.uleb128 0x24
 5608 1431 01       		.uleb128 0x1
 5609 1432 50       		.byte	0x50
 5610 1433 03       		.uleb128 0x3
 5611 1434 0A       		.byte	0xa
 5612 1435 DC05     		.2byte	0x5dc
 5613 1437 00       		.byte	0
 5614 1438 23       		.uleb128 0x23
 5615 1439 64060000 		.4byte	.LVL66
 5616 143d 9C1C0000 		.4byte	0x1c9c
 5617 1441 50140000 		.4byte	0x1450
 5618 1445 24       		.uleb128 0x24
 5619 1446 01       		.uleb128 0x1
 5620 1447 52       		.byte	0x52
 5621 1448 01       		.uleb128 0x1
 5622 1449 30       		.byte	0x30
 5623 144a 24       		.uleb128 0x24
 5624 144b 01       		.uleb128 0x1
 5625 144c 51       		.byte	0x51
 5626 144d 01       		.uleb128 0x1
 5627 144e 30       		.byte	0x30
 5628 144f 00       		.byte	0
 5629 1450 23       		.uleb128 0x23
 5630 1451 74060000 		.4byte	.LVL67
 5631 1455 9C1C0000 		.4byte	0x1c9c
 5632 1459 68140000 		.4byte	0x1468
 5633 145d 24       		.uleb128 0x24
 5634 145e 01       		.uleb128 0x1
 5635 145f 52       		.byte	0x52
 5636 1460 01       		.uleb128 0x1
 5637 1461 30       		.byte	0x30
 5638 1462 24       		.uleb128 0x24
 5639 1463 01       		.uleb128 0x1
 5640 1464 51       		.byte	0x51
 5641 1465 01       		.uleb128 0x1
 5642 1466 30       		.byte	0x30
 5643 1467 00       		.byte	0
 5644 1468 23       		.uleb128 0x23
 5645 1469 82060000 		.4byte	.LVL68
 5646 146d 361C0000 		.4byte	0x1c36
 5647 1471 7D140000 		.4byte	0x147d
 5648 1475 24       		.uleb128 0x24
 5649 1476 01       		.uleb128 0x1
 5650 1477 50       		.byte	0x50
ARM GAS  /tmp/ccGrz3Xa.s 			page 161


 5651 1478 03       		.uleb128 0x3
 5652 1479 0A       		.byte	0xa
 5653 147a E803     		.2byte	0x3e8
 5654 147c 00       		.byte	0
 5655 147d 23       		.uleb128 0x23
 5656 147e D0060000 		.4byte	.LVL69
 5657 1482 9C1C0000 		.4byte	0x1c9c
 5658 1486 95140000 		.4byte	0x1495
 5659 148a 24       		.uleb128 0x24
 5660 148b 01       		.uleb128 0x1
 5661 148c 52       		.byte	0x52
 5662 148d 01       		.uleb128 0x1
 5663 148e 30       		.byte	0x30
 5664 148f 24       		.uleb128 0x24
 5665 1490 01       		.uleb128 0x1
 5666 1491 51       		.byte	0x51
 5667 1492 01       		.uleb128 0x1
 5668 1493 30       		.byte	0x30
 5669 1494 00       		.byte	0
 5670 1495 23       		.uleb128 0x23
 5671 1496 E8060000 		.4byte	.LVL70
 5672 149a 9C1C0000 		.4byte	0x1c9c
 5673 149e AD140000 		.4byte	0x14ad
 5674 14a2 24       		.uleb128 0x24
 5675 14a3 01       		.uleb128 0x1
 5676 14a4 52       		.byte	0x52
 5677 14a5 01       		.uleb128 0x1
 5678 14a6 30       		.byte	0x30
 5679 14a7 24       		.uleb128 0x24
 5680 14a8 01       		.uleb128 0x1
 5681 14a9 51       		.byte	0x51
 5682 14aa 01       		.uleb128 0x1
 5683 14ab 30       		.byte	0x30
 5684 14ac 00       		.byte	0
 5685 14ad 23       		.uleb128 0x23
 5686 14ae F6060000 		.4byte	.LVL71
 5687 14b2 361C0000 		.4byte	0x1c36
 5688 14b6 C2140000 		.4byte	0x14c2
 5689 14ba 24       		.uleb128 0x24
 5690 14bb 01       		.uleb128 0x1
 5691 14bc 50       		.byte	0x50
 5692 14bd 03       		.uleb128 0x3
 5693 14be 0A       		.byte	0xa
 5694 14bf E803     		.2byte	0x3e8
 5695 14c1 00       		.byte	0
 5696 14c2 23       		.uleb128 0x23
 5697 14c3 16070000 		.4byte	.LVL72
 5698 14c7 9C1C0000 		.4byte	0x1c9c
 5699 14cb D5140000 		.4byte	0x14d5
 5700 14cf 24       		.uleb128 0x24
 5701 14d0 01       		.uleb128 0x1
 5702 14d1 51       		.byte	0x51
 5703 14d2 01       		.uleb128 0x1
 5704 14d3 30       		.byte	0x30
 5705 14d4 00       		.byte	0
 5706 14d5 23       		.uleb128 0x23
 5707 14d6 26070000 		.4byte	.LVL73
ARM GAS  /tmp/ccGrz3Xa.s 			page 162


 5708 14da 9C1C0000 		.4byte	0x1c9c
 5709 14de ED140000 		.4byte	0x14ed
 5710 14e2 24       		.uleb128 0x24
 5711 14e3 01       		.uleb128 0x1
 5712 14e4 52       		.byte	0x52
 5713 14e5 01       		.uleb128 0x1
 5714 14e6 30       		.byte	0x30
 5715 14e7 24       		.uleb128 0x24
 5716 14e8 01       		.uleb128 0x1
 5717 14e9 51       		.byte	0x51
 5718 14ea 01       		.uleb128 0x1
 5719 14eb 30       		.byte	0x30
 5720 14ec 00       		.byte	0
 5721 14ed 23       		.uleb128 0x23
 5722 14ee 34070000 		.4byte	.LVL74
 5723 14f2 361C0000 		.4byte	0x1c36
 5724 14f6 02150000 		.4byte	0x1502
 5725 14fa 24       		.uleb128 0x24
 5726 14fb 01       		.uleb128 0x1
 5727 14fc 50       		.byte	0x50
 5728 14fd 03       		.uleb128 0x3
 5729 14fe 0A       		.byte	0xa
 5730 14ff 2602     		.2byte	0x226
 5731 1501 00       		.byte	0
 5732 1502 23       		.uleb128 0x23
 5733 1503 44070000 		.4byte	.LVL75
 5734 1507 9C1C0000 		.4byte	0x1c9c
 5735 150b 1A150000 		.4byte	0x151a
 5736 150f 24       		.uleb128 0x24
 5737 1510 01       		.uleb128 0x1
 5738 1511 52       		.byte	0x52
 5739 1512 01       		.uleb128 0x1
 5740 1513 30       		.byte	0x30
 5741 1514 24       		.uleb128 0x24
 5742 1515 01       		.uleb128 0x1
 5743 1516 51       		.byte	0x51
 5744 1517 01       		.uleb128 0x1
 5745 1518 30       		.byte	0x30
 5746 1519 00       		.byte	0
 5747 151a 23       		.uleb128 0x23
 5748 151b 54070000 		.4byte	.LVL76
 5749 151f 9C1C0000 		.4byte	0x1c9c
 5750 1523 32150000 		.4byte	0x1532
 5751 1527 24       		.uleb128 0x24
 5752 1528 01       		.uleb128 0x1
 5753 1529 52       		.byte	0x52
 5754 152a 01       		.uleb128 0x1
 5755 152b 30       		.byte	0x30
 5756 152c 24       		.uleb128 0x24
 5757 152d 01       		.uleb128 0x1
 5758 152e 51       		.byte	0x51
 5759 152f 01       		.uleb128 0x1
 5760 1530 30       		.byte	0x30
 5761 1531 00       		.byte	0
 5762 1532 23       		.uleb128 0x23
 5763 1533 60070000 		.4byte	.LVL77
 5764 1537 361C0000 		.4byte	0x1c36
ARM GAS  /tmp/ccGrz3Xa.s 			page 163


 5765 153b 46150000 		.4byte	0x1546
 5766 153f 24       		.uleb128 0x24
 5767 1540 01       		.uleb128 0x1
 5768 1541 50       		.byte	0x50
 5769 1542 02       		.uleb128 0x2
 5770 1543 7B       		.byte	0x7b
 5771 1544 00       		.sleb128 0
 5772 1545 00       		.byte	0
 5773 1546 23       		.uleb128 0x23
 5774 1547 A6070000 		.4byte	.LVL78
 5775 154b 9C1C0000 		.4byte	0x1c9c
 5776 154f 5E150000 		.4byte	0x155e
 5777 1553 24       		.uleb128 0x24
 5778 1554 01       		.uleb128 0x1
 5779 1555 52       		.byte	0x52
 5780 1556 01       		.uleb128 0x1
 5781 1557 30       		.byte	0x30
 5782 1558 24       		.uleb128 0x24
 5783 1559 01       		.uleb128 0x1
 5784 155a 51       		.byte	0x51
 5785 155b 01       		.uleb128 0x1
 5786 155c 30       		.byte	0x30
 5787 155d 00       		.byte	0
 5788 155e 23       		.uleb128 0x23
 5789 155f BE070000 		.4byte	.LVL79
 5790 1563 9C1C0000 		.4byte	0x1c9c
 5791 1567 76150000 		.4byte	0x1576
 5792 156b 24       		.uleb128 0x24
 5793 156c 01       		.uleb128 0x1
 5794 156d 52       		.byte	0x52
 5795 156e 01       		.uleb128 0x1
 5796 156f 30       		.byte	0x30
 5797 1570 24       		.uleb128 0x24
 5798 1571 01       		.uleb128 0x1
 5799 1572 51       		.byte	0x51
 5800 1573 01       		.uleb128 0x1
 5801 1574 30       		.byte	0x30
 5802 1575 00       		.byte	0
 5803 1576 23       		.uleb128 0x23
 5804 1577 CC070000 		.4byte	.LVL80
 5805 157b 361C0000 		.4byte	0x1c36
 5806 157f 8B150000 		.4byte	0x158b
 5807 1583 24       		.uleb128 0x24
 5808 1584 01       		.uleb128 0x1
 5809 1585 50       		.byte	0x50
 5810 1586 03       		.uleb128 0x3
 5811 1587 0A       		.byte	0xa
 5812 1588 E803     		.2byte	0x3e8
 5813 158a 00       		.byte	0
 5814 158b 23       		.uleb128 0x23
 5815 158c DC070000 		.4byte	.LVL81
 5816 1590 9C1C0000 		.4byte	0x1c9c
 5817 1594 A3150000 		.4byte	0x15a3
 5818 1598 24       		.uleb128 0x24
 5819 1599 01       		.uleb128 0x1
 5820 159a 52       		.byte	0x52
 5821 159b 01       		.uleb128 0x1
ARM GAS  /tmp/ccGrz3Xa.s 			page 164


 5822 159c 30       		.byte	0x30
 5823 159d 24       		.uleb128 0x24
 5824 159e 01       		.uleb128 0x1
 5825 159f 51       		.byte	0x51
 5826 15a0 01       		.uleb128 0x1
 5827 15a1 30       		.byte	0x30
 5828 15a2 00       		.byte	0
 5829 15a3 23       		.uleb128 0x23
 5830 15a4 00080000 		.4byte	.LVL82
 5831 15a8 9C1C0000 		.4byte	0x1c9c
 5832 15ac B6150000 		.4byte	0x15b6
 5833 15b0 24       		.uleb128 0x24
 5834 15b1 01       		.uleb128 0x1
 5835 15b2 51       		.byte	0x51
 5836 15b3 01       		.uleb128 0x1
 5837 15b4 30       		.byte	0x30
 5838 15b5 00       		.byte	0
 5839 15b6 23       		.uleb128 0x23
 5840 15b7 0E080000 		.4byte	.LVL83
 5841 15bb 361C0000 		.4byte	0x1c36
 5842 15bf CB150000 		.4byte	0x15cb
 5843 15c3 24       		.uleb128 0x24
 5844 15c4 01       		.uleb128 0x1
 5845 15c5 50       		.byte	0x50
 5846 15c6 03       		.uleb128 0x3
 5847 15c7 0A       		.byte	0xa
 5848 15c8 2602     		.2byte	0x226
 5849 15ca 00       		.byte	0
 5850 15cb 23       		.uleb128 0x23
 5851 15cc 1E080000 		.4byte	.LVL84
 5852 15d0 9C1C0000 		.4byte	0x1c9c
 5853 15d4 E3150000 		.4byte	0x15e3
 5854 15d8 24       		.uleb128 0x24
 5855 15d9 01       		.uleb128 0x1
 5856 15da 52       		.byte	0x52
 5857 15db 01       		.uleb128 0x1
 5858 15dc 30       		.byte	0x30
 5859 15dd 24       		.uleb128 0x24
 5860 15de 01       		.uleb128 0x1
 5861 15df 51       		.byte	0x51
 5862 15e0 01       		.uleb128 0x1
 5863 15e1 30       		.byte	0x30
 5864 15e2 00       		.byte	0
 5865 15e3 23       		.uleb128 0x23
 5866 15e4 2E080000 		.4byte	.LVL85
 5867 15e8 9C1C0000 		.4byte	0x1c9c
 5868 15ec FB150000 		.4byte	0x15fb
 5869 15f0 24       		.uleb128 0x24
 5870 15f1 01       		.uleb128 0x1
 5871 15f2 52       		.byte	0x52
 5872 15f3 01       		.uleb128 0x1
 5873 15f4 30       		.byte	0x30
 5874 15f5 24       		.uleb128 0x24
 5875 15f6 01       		.uleb128 0x1
 5876 15f7 51       		.byte	0x51
 5877 15f8 01       		.uleb128 0x1
 5878 15f9 30       		.byte	0x30
ARM GAS  /tmp/ccGrz3Xa.s 			page 165


 5879 15fa 00       		.byte	0
 5880 15fb 23       		.uleb128 0x23
 5881 15fc 3A080000 		.4byte	.LVL86
 5882 1600 361C0000 		.4byte	0x1c36
 5883 1604 0F160000 		.4byte	0x160f
 5884 1608 24       		.uleb128 0x24
 5885 1609 01       		.uleb128 0x1
 5886 160a 50       		.byte	0x50
 5887 160b 02       		.uleb128 0x2
 5888 160c 7B       		.byte	0x7b
 5889 160d 00       		.sleb128 0
 5890 160e 00       		.byte	0
 5891 160f 23       		.uleb128 0x23
 5892 1610 5C080000 		.4byte	.LVL87
 5893 1614 9C1C0000 		.4byte	0x1c9c
 5894 1618 22160000 		.4byte	0x1622
 5895 161c 24       		.uleb128 0x24
 5896 161d 01       		.uleb128 0x1
 5897 161e 51       		.byte	0x51
 5898 161f 01       		.uleb128 0x1
 5899 1620 30       		.byte	0x30
 5900 1621 00       		.byte	0
 5901 1622 23       		.uleb128 0x23
 5902 1623 7E080000 		.4byte	.LVL88
 5903 1627 9C1C0000 		.4byte	0x1c9c
 5904 162b 35160000 		.4byte	0x1635
 5905 162f 24       		.uleb128 0x24
 5906 1630 01       		.uleb128 0x1
 5907 1631 51       		.byte	0x51
 5908 1632 01       		.uleb128 0x1
 5909 1633 30       		.byte	0x30
 5910 1634 00       		.byte	0
 5911 1635 23       		.uleb128 0x23
 5912 1636 8C080000 		.4byte	.LVL89
 5913 163a 361C0000 		.4byte	0x1c36
 5914 163e 4A160000 		.4byte	0x164a
 5915 1642 24       		.uleb128 0x24
 5916 1643 01       		.uleb128 0x1
 5917 1644 50       		.byte	0x50
 5918 1645 03       		.uleb128 0x3
 5919 1646 0A       		.byte	0xa
 5920 1647 DC05     		.2byte	0x5dc
 5921 1649 00       		.byte	0
 5922 164a 23       		.uleb128 0x23
 5923 164b AA080000 		.4byte	.LVL90
 5924 164f 9C1C0000 		.4byte	0x1c9c
 5925 1653 62160000 		.4byte	0x1662
 5926 1657 24       		.uleb128 0x24
 5927 1658 01       		.uleb128 0x1
 5928 1659 52       		.byte	0x52
 5929 165a 01       		.uleb128 0x1
 5930 165b 30       		.byte	0x30
 5931 165c 24       		.uleb128 0x24
 5932 165d 01       		.uleb128 0x1
 5933 165e 51       		.byte	0x51
 5934 165f 01       		.uleb128 0x1
 5935 1660 30       		.byte	0x30
ARM GAS  /tmp/ccGrz3Xa.s 			page 166


 5936 1661 00       		.byte	0
 5937 1662 23       		.uleb128 0x23
 5938 1663 BA080000 		.4byte	.LVL91
 5939 1667 9C1C0000 		.4byte	0x1c9c
 5940 166b 7A160000 		.4byte	0x167a
 5941 166f 24       		.uleb128 0x24
 5942 1670 01       		.uleb128 0x1
 5943 1671 52       		.byte	0x52
 5944 1672 01       		.uleb128 0x1
 5945 1673 30       		.byte	0x30
 5946 1674 24       		.uleb128 0x24
 5947 1675 01       		.uleb128 0x1
 5948 1676 51       		.byte	0x51
 5949 1677 01       		.uleb128 0x1
 5950 1678 30       		.byte	0x30
 5951 1679 00       		.byte	0
 5952 167a 23       		.uleb128 0x23
 5953 167b C6080000 		.4byte	.LVL92
 5954 167f 361C0000 		.4byte	0x1c36
 5955 1683 8E160000 		.4byte	0x168e
 5956 1687 24       		.uleb128 0x24
 5957 1688 01       		.uleb128 0x1
 5958 1689 50       		.byte	0x50
 5959 168a 02       		.uleb128 0x2
 5960 168b 7B       		.byte	0x7b
 5961 168c 00       		.sleb128 0
 5962 168d 00       		.byte	0
 5963 168e 23       		.uleb128 0x23
 5964 168f E2080000 		.4byte	.LVL93
 5965 1693 9C1C0000 		.4byte	0x1c9c
 5966 1697 A1160000 		.4byte	0x16a1
 5967 169b 24       		.uleb128 0x24
 5968 169c 01       		.uleb128 0x1
 5969 169d 51       		.byte	0x51
 5970 169e 01       		.uleb128 0x1
 5971 169f 30       		.byte	0x30
 5972 16a0 00       		.byte	0
 5973 16a1 23       		.uleb128 0x23
 5974 16a2 F2080000 		.4byte	.LVL94
 5975 16a6 9C1C0000 		.4byte	0x1c9c
 5976 16aa B9160000 		.4byte	0x16b9
 5977 16ae 24       		.uleb128 0x24
 5978 16af 01       		.uleb128 0x1
 5979 16b0 52       		.byte	0x52
 5980 16b1 01       		.uleb128 0x1
 5981 16b2 30       		.byte	0x30
 5982 16b3 24       		.uleb128 0x24
 5983 16b4 01       		.uleb128 0x1
 5984 16b5 51       		.byte	0x51
 5985 16b6 01       		.uleb128 0x1
 5986 16b7 30       		.byte	0x30
 5987 16b8 00       		.byte	0
 5988 16b9 23       		.uleb128 0x23
 5989 16ba 00090000 		.4byte	.LVL95
 5990 16be 361C0000 		.4byte	0x1c36
 5991 16c2 CE160000 		.4byte	0x16ce
 5992 16c6 24       		.uleb128 0x24
ARM GAS  /tmp/ccGrz3Xa.s 			page 167


 5993 16c7 01       		.uleb128 0x1
 5994 16c8 50       		.byte	0x50
 5995 16c9 03       		.uleb128 0x3
 5996 16ca 0A       		.byte	0xa
 5997 16cb 2602     		.2byte	0x226
 5998 16cd 00       		.byte	0
 5999 16ce 23       		.uleb128 0x23
 6000 16cf 10090000 		.4byte	.LVL96
 6001 16d3 9C1C0000 		.4byte	0x1c9c
 6002 16d7 E6160000 		.4byte	0x16e6
 6003 16db 24       		.uleb128 0x24
 6004 16dc 01       		.uleb128 0x1
 6005 16dd 52       		.byte	0x52
 6006 16de 01       		.uleb128 0x1
 6007 16df 30       		.byte	0x30
 6008 16e0 24       		.uleb128 0x24
 6009 16e1 01       		.uleb128 0x1
 6010 16e2 51       		.byte	0x51
 6011 16e3 01       		.uleb128 0x1
 6012 16e4 30       		.byte	0x30
 6013 16e5 00       		.byte	0
 6014 16e6 23       		.uleb128 0x23
 6015 16e7 20090000 		.4byte	.LVL97
 6016 16eb 9C1C0000 		.4byte	0x1c9c
 6017 16ef FE160000 		.4byte	0x16fe
 6018 16f3 24       		.uleb128 0x24
 6019 16f4 01       		.uleb128 0x1
 6020 16f5 52       		.byte	0x52
 6021 16f6 01       		.uleb128 0x1
 6022 16f7 30       		.byte	0x30
 6023 16f8 24       		.uleb128 0x24
 6024 16f9 01       		.uleb128 0x1
 6025 16fa 51       		.byte	0x51
 6026 16fb 01       		.uleb128 0x1
 6027 16fc 30       		.byte	0x30
 6028 16fd 00       		.byte	0
 6029 16fe 23       		.uleb128 0x23
 6030 16ff 2C090000 		.4byte	.LVL98
 6031 1703 361C0000 		.4byte	0x1c36
 6032 1707 12170000 		.4byte	0x1712
 6033 170b 24       		.uleb128 0x24
 6034 170c 01       		.uleb128 0x1
 6035 170d 50       		.byte	0x50
 6036 170e 02       		.uleb128 0x2
 6037 170f 7B       		.byte	0x7b
 6038 1710 00       		.sleb128 0
 6039 1711 00       		.byte	0
 6040 1712 23       		.uleb128 0x23
 6041 1713 4E090000 		.4byte	.LVL99
 6042 1717 9C1C0000 		.4byte	0x1c9c
 6043 171b 25170000 		.4byte	0x1725
 6044 171f 24       		.uleb128 0x24
 6045 1720 01       		.uleb128 0x1
 6046 1721 51       		.byte	0x51
 6047 1722 01       		.uleb128 0x1
 6048 1723 30       		.byte	0x30
 6049 1724 00       		.byte	0
ARM GAS  /tmp/ccGrz3Xa.s 			page 168


 6050 1725 23       		.uleb128 0x23
 6051 1726 6C090000 		.4byte	.LVL100
 6052 172a 9C1C0000 		.4byte	0x1c9c
 6053 172e 38170000 		.4byte	0x1738
 6054 1732 24       		.uleb128 0x24
 6055 1733 01       		.uleb128 0x1
 6056 1734 51       		.byte	0x51
 6057 1735 01       		.uleb128 0x1
 6058 1736 30       		.byte	0x30
 6059 1737 00       		.byte	0
 6060 1738 23       		.uleb128 0x23
 6061 1739 7A090000 		.4byte	.LVL101
 6062 173d 361C0000 		.4byte	0x1c36
 6063 1741 4D170000 		.4byte	0x174d
 6064 1745 24       		.uleb128 0x24
 6065 1746 01       		.uleb128 0x1
 6066 1747 50       		.byte	0x50
 6067 1748 03       		.uleb128 0x3
 6068 1749 0A       		.byte	0xa
 6069 174a DC05     		.2byte	0x5dc
 6070 174c 00       		.byte	0
 6071 174d 23       		.uleb128 0x23
 6072 174e 90090000 		.4byte	.LVL102
 6073 1752 9C1C0000 		.4byte	0x1c9c
 6074 1756 65170000 		.4byte	0x1765
 6075 175a 24       		.uleb128 0x24
 6076 175b 01       		.uleb128 0x1
 6077 175c 52       		.byte	0x52
 6078 175d 01       		.uleb128 0x1
 6079 175e 30       		.byte	0x30
 6080 175f 24       		.uleb128 0x24
 6081 1760 01       		.uleb128 0x1
 6082 1761 51       		.byte	0x51
 6083 1762 01       		.uleb128 0x1
 6084 1763 30       		.byte	0x30
 6085 1764 00       		.byte	0
 6086 1765 23       		.uleb128 0x23
 6087 1766 A0090000 		.4byte	.LVL103
 6088 176a 9C1C0000 		.4byte	0x1c9c
 6089 176e 7D170000 		.4byte	0x177d
 6090 1772 24       		.uleb128 0x24
 6091 1773 01       		.uleb128 0x1
 6092 1774 52       		.byte	0x52
 6093 1775 01       		.uleb128 0x1
 6094 1776 30       		.byte	0x30
 6095 1777 24       		.uleb128 0x24
 6096 1778 01       		.uleb128 0x1
 6097 1779 51       		.byte	0x51
 6098 177a 01       		.uleb128 0x1
 6099 177b 30       		.byte	0x30
 6100 177c 00       		.byte	0
 6101 177d 23       		.uleb128 0x23
 6102 177e AC090000 		.4byte	.LVL104
 6103 1782 361C0000 		.4byte	0x1c36
 6104 1786 91170000 		.4byte	0x1791
 6105 178a 24       		.uleb128 0x24
 6106 178b 01       		.uleb128 0x1
ARM GAS  /tmp/ccGrz3Xa.s 			page 169


 6107 178c 50       		.byte	0x50
 6108 178d 02       		.uleb128 0x2
 6109 178e 7B       		.byte	0x7b
 6110 178f 00       		.sleb128 0
 6111 1790 00       		.byte	0
 6112 1791 23       		.uleb128 0x23
 6113 1792 D4090000 		.4byte	.LVL105
 6114 1796 9C1C0000 		.4byte	0x1c9c
 6115 179a A4170000 		.4byte	0x17a4
 6116 179e 24       		.uleb128 0x24
 6117 179f 01       		.uleb128 0x1
 6118 17a0 51       		.byte	0x51
 6119 17a1 01       		.uleb128 0x1
 6120 17a2 30       		.byte	0x30
 6121 17a3 00       		.byte	0
 6122 17a4 23       		.uleb128 0x23
 6123 17a5 F8090000 		.4byte	.LVL106
 6124 17a9 9C1C0000 		.4byte	0x1c9c
 6125 17ad B7170000 		.4byte	0x17b7
 6126 17b1 24       		.uleb128 0x24
 6127 17b2 01       		.uleb128 0x1
 6128 17b3 51       		.byte	0x51
 6129 17b4 01       		.uleb128 0x1
 6130 17b5 30       		.byte	0x30
 6131 17b6 00       		.byte	0
 6132 17b7 23       		.uleb128 0x23
 6133 17b8 060A0000 		.4byte	.LVL107
 6134 17bc 361C0000 		.4byte	0x1c36
 6135 17c0 CC170000 		.4byte	0x17cc
 6136 17c4 24       		.uleb128 0x24
 6137 17c5 01       		.uleb128 0x1
 6138 17c6 50       		.byte	0x50
 6139 17c7 03       		.uleb128 0x3
 6140 17c8 0A       		.byte	0xa
 6141 17c9 E803     		.2byte	0x3e8
 6142 17cb 00       		.byte	0
 6143 17cc 23       		.uleb128 0x23
 6144 17cd 1C0A0000 		.4byte	.LVL108
 6145 17d1 9C1C0000 		.4byte	0x1c9c
 6146 17d5 E4170000 		.4byte	0x17e4
 6147 17d9 24       		.uleb128 0x24
 6148 17da 01       		.uleb128 0x1
 6149 17db 52       		.byte	0x52
 6150 17dc 01       		.uleb128 0x1
 6151 17dd 30       		.byte	0x30
 6152 17de 24       		.uleb128 0x24
 6153 17df 01       		.uleb128 0x1
 6154 17e0 51       		.byte	0x51
 6155 17e1 01       		.uleb128 0x1
 6156 17e2 30       		.byte	0x30
 6157 17e3 00       		.byte	0
 6158 17e4 23       		.uleb128 0x23
 6159 17e5 2C0A0000 		.4byte	.LVL109
 6160 17e9 9C1C0000 		.4byte	0x1c9c
 6161 17ed FC170000 		.4byte	0x17fc
 6162 17f1 24       		.uleb128 0x24
 6163 17f2 01       		.uleb128 0x1
ARM GAS  /tmp/ccGrz3Xa.s 			page 170


 6164 17f3 52       		.byte	0x52
 6165 17f4 01       		.uleb128 0x1
 6166 17f5 30       		.byte	0x30
 6167 17f6 24       		.uleb128 0x24
 6168 17f7 01       		.uleb128 0x1
 6169 17f8 51       		.byte	0x51
 6170 17f9 01       		.uleb128 0x1
 6171 17fa 30       		.byte	0x30
 6172 17fb 00       		.byte	0
 6173 17fc 23       		.uleb128 0x23
 6174 17fd 3A0A0000 		.4byte	.LVL110
 6175 1801 361C0000 		.4byte	0x1c36
 6176 1805 11180000 		.4byte	0x1811
 6177 1809 24       		.uleb128 0x24
 6178 180a 01       		.uleb128 0x1
 6179 180b 50       		.byte	0x50
 6180 180c 03       		.uleb128 0x3
 6181 180d 0A       		.byte	0xa
 6182 180e E803     		.2byte	0x3e8
 6183 1810 00       		.byte	0
 6184 1811 27       		.uleb128 0x27
 6185 1812 580A0000 		.4byte	.LVL111
 6186 1816 9C1C0000 		.4byte	0x1c9c
 6187 181a 23       		.uleb128 0x23
 6188 181b 700A0000 		.4byte	.LVL112
 6189 181f 9C1C0000 		.4byte	0x1c9c
 6190 1823 32180000 		.4byte	0x1832
 6191 1827 24       		.uleb128 0x24
 6192 1828 01       		.uleb128 0x1
 6193 1829 52       		.byte	0x52
 6194 182a 01       		.uleb128 0x1
 6195 182b 30       		.byte	0x30
 6196 182c 24       		.uleb128 0x24
 6197 182d 01       		.uleb128 0x1
 6198 182e 51       		.byte	0x51
 6199 182f 01       		.uleb128 0x1
 6200 1830 30       		.byte	0x30
 6201 1831 00       		.byte	0
 6202 1832 23       		.uleb128 0x23
 6203 1833 800A0000 		.4byte	.LVL113
 6204 1837 361C0000 		.4byte	0x1c36
 6205 183b 47180000 		.4byte	0x1847
 6206 183f 24       		.uleb128 0x24
 6207 1840 01       		.uleb128 0x1
 6208 1841 50       		.byte	0x50
 6209 1842 03       		.uleb128 0x3
 6210 1843 0A       		.byte	0xa
 6211 1844 8813     		.2byte	0x1388
 6212 1846 00       		.byte	0
 6213 1847 23       		.uleb128 0x23
 6214 1848 A00A0000 		.4byte	.LVL114
 6215 184c 9C1C0000 		.4byte	0x1c9c
 6216 1850 5A180000 		.4byte	0x185a
 6217 1854 24       		.uleb128 0x24
 6218 1855 01       		.uleb128 0x1
 6219 1856 51       		.byte	0x51
 6220 1857 01       		.uleb128 0x1
ARM GAS  /tmp/ccGrz3Xa.s 			page 171


 6221 1858 30       		.byte	0x30
 6222 1859 00       		.byte	0
 6223 185a 23       		.uleb128 0x23
 6224 185b B00A0000 		.4byte	.LVL115
 6225 185f 9C1C0000 		.4byte	0x1c9c
 6226 1863 72180000 		.4byte	0x1872
 6227 1867 24       		.uleb128 0x24
 6228 1868 01       		.uleb128 0x1
 6229 1869 52       		.byte	0x52
 6230 186a 01       		.uleb128 0x1
 6231 186b 30       		.byte	0x30
 6232 186c 24       		.uleb128 0x24
 6233 186d 01       		.uleb128 0x1
 6234 186e 51       		.byte	0x51
 6235 186f 01       		.uleb128 0x1
 6236 1870 30       		.byte	0x30
 6237 1871 00       		.byte	0
 6238 1872 23       		.uleb128 0x23
 6239 1873 C00A0000 		.4byte	.LVL116
 6240 1877 361C0000 		.4byte	0x1c36
 6241 187b 87180000 		.4byte	0x1887
 6242 187f 24       		.uleb128 0x24
 6243 1880 01       		.uleb128 0x1
 6244 1881 50       		.byte	0x50
 6245 1882 03       		.uleb128 0x3
 6246 1883 0A       		.byte	0xa
 6247 1884 2602     		.2byte	0x226
 6248 1886 00       		.byte	0
 6249 1887 23       		.uleb128 0x23
 6250 1888 D00A0000 		.4byte	.LVL117
 6251 188c 9C1C0000 		.4byte	0x1c9c
 6252 1890 9F180000 		.4byte	0x189f
 6253 1894 24       		.uleb128 0x24
 6254 1895 01       		.uleb128 0x1
 6255 1896 52       		.byte	0x52
 6256 1897 01       		.uleb128 0x1
 6257 1898 30       		.byte	0x30
 6258 1899 24       		.uleb128 0x24
 6259 189a 01       		.uleb128 0x1
 6260 189b 51       		.byte	0x51
 6261 189c 01       		.uleb128 0x1
 6262 189d 30       		.byte	0x30
 6263 189e 00       		.byte	0
 6264 189f 23       		.uleb128 0x23
 6265 18a0 E00A0000 		.4byte	.LVL118
 6266 18a4 9C1C0000 		.4byte	0x1c9c
 6267 18a8 B7180000 		.4byte	0x18b7
 6268 18ac 24       		.uleb128 0x24
 6269 18ad 01       		.uleb128 0x1
 6270 18ae 52       		.byte	0x52
 6271 18af 01       		.uleb128 0x1
 6272 18b0 30       		.byte	0x30
 6273 18b1 24       		.uleb128 0x24
 6274 18b2 01       		.uleb128 0x1
 6275 18b3 51       		.byte	0x51
 6276 18b4 01       		.uleb128 0x1
 6277 18b5 30       		.byte	0x30
ARM GAS  /tmp/ccGrz3Xa.s 			page 172


 6278 18b6 00       		.byte	0
 6279 18b7 23       		.uleb128 0x23
 6280 18b8 F00A0000 		.4byte	.LVL119
 6281 18bc 361C0000 		.4byte	0x1c36
 6282 18c0 CC180000 		.4byte	0x18cc
 6283 18c4 24       		.uleb128 0x24
 6284 18c5 01       		.uleb128 0x1
 6285 18c6 50       		.byte	0x50
 6286 18c7 03       		.uleb128 0x3
 6287 18c8 0A       		.byte	0xa
 6288 18c9 E803     		.2byte	0x3e8
 6289 18cb 00       		.byte	0
 6290 18cc 23       		.uleb128 0x23
 6291 18cd 120B0000 		.4byte	.LVL120
 6292 18d1 9C1C0000 		.4byte	0x1c9c
 6293 18d5 DF180000 		.4byte	0x18df
 6294 18d9 24       		.uleb128 0x24
 6295 18da 01       		.uleb128 0x1
 6296 18db 51       		.byte	0x51
 6297 18dc 01       		.uleb128 0x1
 6298 18dd 30       		.byte	0x30
 6299 18de 00       		.byte	0
 6300 18df 23       		.uleb128 0x23
 6301 18e0 360B0000 		.4byte	.LVL121
 6302 18e4 9C1C0000 		.4byte	0x1c9c
 6303 18e8 F2180000 		.4byte	0x18f2
 6304 18ec 24       		.uleb128 0x24
 6305 18ed 01       		.uleb128 0x1
 6306 18ee 51       		.byte	0x51
 6307 18ef 01       		.uleb128 0x1
 6308 18f0 30       		.byte	0x30
 6309 18f1 00       		.byte	0
 6310 18f2 27       		.uleb128 0x27
 6311 18f3 660B0000 		.4byte	.LVL122
 6312 18f7 361C0000 		.4byte	0x1c36
 6313 18fb 23       		.uleb128 0x23
 6314 18fc 760B0000 		.4byte	.LVL123
 6315 1900 9C1C0000 		.4byte	0x1c9c
 6316 1904 13190000 		.4byte	0x1913
 6317 1908 24       		.uleb128 0x24
 6318 1909 01       		.uleb128 0x1
 6319 190a 52       		.byte	0x52
 6320 190b 01       		.uleb128 0x1
 6321 190c 30       		.byte	0x30
 6322 190d 24       		.uleb128 0x24
 6323 190e 01       		.uleb128 0x1
 6324 190f 51       		.byte	0x51
 6325 1910 01       		.uleb128 0x1
 6326 1911 30       		.byte	0x30
 6327 1912 00       		.byte	0
 6328 1913 23       		.uleb128 0x23
 6329 1914 980B0000 		.4byte	.LVL124
 6330 1918 9C1C0000 		.4byte	0x1c9c
 6331 191c 26190000 		.4byte	0x1926
 6332 1920 24       		.uleb128 0x24
 6333 1921 01       		.uleb128 0x1
 6334 1922 51       		.byte	0x51
ARM GAS  /tmp/ccGrz3Xa.s 			page 173


 6335 1923 01       		.uleb128 0x1
 6336 1924 30       		.byte	0x30
 6337 1925 00       		.byte	0
 6338 1926 23       		.uleb128 0x23
 6339 1927 A80B0000 		.4byte	.LVL125
 6340 192b 361C0000 		.4byte	0x1c36
 6341 192f 3B190000 		.4byte	0x193b
 6342 1933 24       		.uleb128 0x24
 6343 1934 01       		.uleb128 0x1
 6344 1935 50       		.byte	0x50
 6345 1936 03       		.uleb128 0x3
 6346 1937 0A       		.byte	0xa
 6347 1938 2602     		.2byte	0x226
 6348 193a 00       		.byte	0
 6349 193b 23       		.uleb128 0x23
 6350 193c CA0B0000 		.4byte	.LVL126
 6351 1940 9C1C0000 		.4byte	0x1c9c
 6352 1944 4E190000 		.4byte	0x194e
 6353 1948 24       		.uleb128 0x24
 6354 1949 01       		.uleb128 0x1
 6355 194a 51       		.byte	0x51
 6356 194b 01       		.uleb128 0x1
 6357 194c 30       		.byte	0x30
 6358 194d 00       		.byte	0
 6359 194e 23       		.uleb128 0x23
 6360 194f EE0B0000 		.4byte	.LVL127
 6361 1953 9C1C0000 		.4byte	0x1c9c
 6362 1957 61190000 		.4byte	0x1961
 6363 195b 24       		.uleb128 0x24
 6364 195c 01       		.uleb128 0x1
 6365 195d 51       		.byte	0x51
 6366 195e 01       		.uleb128 0x1
 6367 195f 30       		.byte	0x30
 6368 1960 00       		.byte	0
 6369 1961 27       		.uleb128 0x27
 6370 1962 0E0C0000 		.4byte	.LVL128
 6371 1966 361C0000 		.4byte	0x1c36
 6372 196a 23       		.uleb128 0x23
 6373 196b 1E0C0000 		.4byte	.LVL129
 6374 196f 9C1C0000 		.4byte	0x1c9c
 6375 1973 82190000 		.4byte	0x1982
 6376 1977 24       		.uleb128 0x24
 6377 1978 01       		.uleb128 0x1
 6378 1979 52       		.byte	0x52
 6379 197a 01       		.uleb128 0x1
 6380 197b 30       		.byte	0x30
 6381 197c 24       		.uleb128 0x24
 6382 197d 01       		.uleb128 0x1
 6383 197e 51       		.byte	0x51
 6384 197f 01       		.uleb128 0x1
 6385 1980 30       		.byte	0x30
 6386 1981 00       		.byte	0
 6387 1982 23       		.uleb128 0x23
 6388 1983 460C0000 		.4byte	.LVL130
 6389 1987 9C1C0000 		.4byte	0x1c9c
 6390 198b 95190000 		.4byte	0x1995
 6391 198f 24       		.uleb128 0x24
ARM GAS  /tmp/ccGrz3Xa.s 			page 174


 6392 1990 01       		.uleb128 0x1
 6393 1991 51       		.byte	0x51
 6394 1992 01       		.uleb128 0x1
 6395 1993 30       		.byte	0x30
 6396 1994 00       		.byte	0
 6397 1995 23       		.uleb128 0x23
 6398 1996 560C0000 		.4byte	.LVL131
 6399 199a 361C0000 		.4byte	0x1c36
 6400 199e AA190000 		.4byte	0x19aa
 6401 19a2 24       		.uleb128 0x24
 6402 19a3 01       		.uleb128 0x1
 6403 19a4 50       		.byte	0x50
 6404 19a5 03       		.uleb128 0x3
 6405 19a6 0A       		.byte	0xa
 6406 19a7 2602     		.2byte	0x226
 6407 19a9 00       		.byte	0
 6408 19aa 23       		.uleb128 0x23
 6409 19ab 660C0000 		.4byte	.LVL132
 6410 19af 9C1C0000 		.4byte	0x1c9c
 6411 19b3 C2190000 		.4byte	0x19c2
 6412 19b7 24       		.uleb128 0x24
 6413 19b8 01       		.uleb128 0x1
 6414 19b9 52       		.byte	0x52
 6415 19ba 01       		.uleb128 0x1
 6416 19bb 30       		.byte	0x30
 6417 19bc 24       		.uleb128 0x24
 6418 19bd 01       		.uleb128 0x1
 6419 19be 51       		.byte	0x51
 6420 19bf 01       		.uleb128 0x1
 6421 19c0 30       		.byte	0x30
 6422 19c1 00       		.byte	0
 6423 19c2 23       		.uleb128 0x23
 6424 19c3 8A0C0000 		.4byte	.LVL133
 6425 19c7 9C1C0000 		.4byte	0x1c9c
 6426 19cb D5190000 		.4byte	0x19d5
 6427 19cf 24       		.uleb128 0x24
 6428 19d0 01       		.uleb128 0x1
 6429 19d1 51       		.byte	0x51
 6430 19d2 01       		.uleb128 0x1
 6431 19d3 30       		.byte	0x30
 6432 19d4 00       		.byte	0
 6433 19d5 23       		.uleb128 0x23
 6434 19d6 9A0C0000 		.4byte	.LVL134
 6435 19da 361C0000 		.4byte	0x1c36
 6436 19de EA190000 		.4byte	0x19ea
 6437 19e2 24       		.uleb128 0x24
 6438 19e3 01       		.uleb128 0x1
 6439 19e4 50       		.byte	0x50
 6440 19e5 03       		.uleb128 0x3
 6441 19e6 0A       		.byte	0xa
 6442 19e7 2602     		.2byte	0x226
 6443 19e9 00       		.byte	0
 6444 19ea 23       		.uleb128 0x23
 6445 19eb AA0C0000 		.4byte	.LVL135
 6446 19ef 9C1C0000 		.4byte	0x1c9c
 6447 19f3 021A0000 		.4byte	0x1a02
 6448 19f7 24       		.uleb128 0x24
ARM GAS  /tmp/ccGrz3Xa.s 			page 175


 6449 19f8 01       		.uleb128 0x1
 6450 19f9 52       		.byte	0x52
 6451 19fa 01       		.uleb128 0x1
 6452 19fb 30       		.byte	0x30
 6453 19fc 24       		.uleb128 0x24
 6454 19fd 01       		.uleb128 0x1
 6455 19fe 51       		.byte	0x51
 6456 19ff 01       		.uleb128 0x1
 6457 1a00 30       		.byte	0x30
 6458 1a01 00       		.byte	0
 6459 1a02 23       		.uleb128 0x23
 6460 1a03 BA0C0000 		.4byte	.LVL136
 6461 1a07 9C1C0000 		.4byte	0x1c9c
 6462 1a0b 1A1A0000 		.4byte	0x1a1a
 6463 1a0f 24       		.uleb128 0x24
 6464 1a10 01       		.uleb128 0x1
 6465 1a11 52       		.byte	0x52
 6466 1a12 01       		.uleb128 0x1
 6467 1a13 30       		.byte	0x30
 6468 1a14 24       		.uleb128 0x24
 6469 1a15 01       		.uleb128 0x1
 6470 1a16 51       		.byte	0x51
 6471 1a17 01       		.uleb128 0x1
 6472 1a18 30       		.byte	0x30
 6473 1a19 00       		.byte	0
 6474 1a1a 23       		.uleb128 0x23
 6475 1a1b CA0C0000 		.4byte	.LVL137
 6476 1a1f 361C0000 		.4byte	0x1c36
 6477 1a23 2F1A0000 		.4byte	0x1a2f
 6478 1a27 24       		.uleb128 0x24
 6479 1a28 01       		.uleb128 0x1
 6480 1a29 50       		.byte	0x50
 6481 1a2a 03       		.uleb128 0x3
 6482 1a2b 0A       		.byte	0xa
 6483 1a2c 8813     		.2byte	0x1388
 6484 1a2e 00       		.byte	0
 6485 1a2f 23       		.uleb128 0x23
 6486 1a30 E40C0000 		.4byte	.LVL138
 6487 1a34 9C1C0000 		.4byte	0x1c9c
 6488 1a38 471A0000 		.4byte	0x1a47
 6489 1a3c 24       		.uleb128 0x24
 6490 1a3d 01       		.uleb128 0x1
 6491 1a3e 52       		.byte	0x52
 6492 1a3f 01       		.uleb128 0x1
 6493 1a40 30       		.byte	0x30
 6494 1a41 24       		.uleb128 0x24
 6495 1a42 01       		.uleb128 0x1
 6496 1a43 51       		.byte	0x51
 6497 1a44 01       		.uleb128 0x1
 6498 1a45 30       		.byte	0x30
 6499 1a46 00       		.byte	0
 6500 1a47 23       		.uleb128 0x23
 6501 1a48 FC0C0000 		.4byte	.LVL139
 6502 1a4c 9C1C0000 		.4byte	0x1c9c
 6503 1a50 5F1A0000 		.4byte	0x1a5f
 6504 1a54 24       		.uleb128 0x24
 6505 1a55 01       		.uleb128 0x1
ARM GAS  /tmp/ccGrz3Xa.s 			page 176


 6506 1a56 52       		.byte	0x52
 6507 1a57 01       		.uleb128 0x1
 6508 1a58 30       		.byte	0x30
 6509 1a59 24       		.uleb128 0x24
 6510 1a5a 01       		.uleb128 0x1
 6511 1a5b 51       		.byte	0x51
 6512 1a5c 01       		.uleb128 0x1
 6513 1a5d 30       		.byte	0x30
 6514 1a5e 00       		.byte	0
 6515 1a5f 23       		.uleb128 0x23
 6516 1a60 0C0D0000 		.4byte	.LVL140
 6517 1a64 361C0000 		.4byte	0x1c36
 6518 1a68 741A0000 		.4byte	0x1a74
 6519 1a6c 24       		.uleb128 0x24
 6520 1a6d 01       		.uleb128 0x1
 6521 1a6e 50       		.byte	0x50
 6522 1a6f 03       		.uleb128 0x3
 6523 1a70 0A       		.byte	0xa
 6524 1a71 E803     		.2byte	0x3e8
 6525 1a73 00       		.byte	0
 6526 1a74 23       		.uleb128 0x23
 6527 1a75 2E0D0000 		.4byte	.LVL141
 6528 1a79 9C1C0000 		.4byte	0x1c9c
 6529 1a7d 871A0000 		.4byte	0x1a87
 6530 1a81 24       		.uleb128 0x24
 6531 1a82 01       		.uleb128 0x1
 6532 1a83 51       		.byte	0x51
 6533 1a84 01       		.uleb128 0x1
 6534 1a85 30       		.byte	0x30
 6535 1a86 00       		.byte	0
 6536 1a87 23       		.uleb128 0x23
 6537 1a88 3E0D0000 		.4byte	.LVL142
 6538 1a8c 9C1C0000 		.4byte	0x1c9c
 6539 1a90 9F1A0000 		.4byte	0x1a9f
 6540 1a94 24       		.uleb128 0x24
 6541 1a95 01       		.uleb128 0x1
 6542 1a96 52       		.byte	0x52
 6543 1a97 01       		.uleb128 0x1
 6544 1a98 30       		.byte	0x30
 6545 1a99 24       		.uleb128 0x24
 6546 1a9a 01       		.uleb128 0x1
 6547 1a9b 51       		.byte	0x51
 6548 1a9c 01       		.uleb128 0x1
 6549 1a9d 30       		.byte	0x30
 6550 1a9e 00       		.byte	0
 6551 1a9f 23       		.uleb128 0x23
 6552 1aa0 4E0D0000 		.4byte	.LVL143
 6553 1aa4 361C0000 		.4byte	0x1c36
 6554 1aa8 B41A0000 		.4byte	0x1ab4
 6555 1aac 24       		.uleb128 0x24
 6556 1aad 01       		.uleb128 0x1
 6557 1aae 50       		.byte	0x50
 6558 1aaf 03       		.uleb128 0x3
 6559 1ab0 0A       		.byte	0xa
 6560 1ab1 2602     		.2byte	0x226
 6561 1ab3 00       		.byte	0
 6562 1ab4 23       		.uleb128 0x23
ARM GAS  /tmp/ccGrz3Xa.s 			page 177


 6563 1ab5 5E0D0000 		.4byte	.LVL144
 6564 1ab9 9C1C0000 		.4byte	0x1c9c
 6565 1abd CC1A0000 		.4byte	0x1acc
 6566 1ac1 24       		.uleb128 0x24
 6567 1ac2 01       		.uleb128 0x1
 6568 1ac3 52       		.byte	0x52
 6569 1ac4 01       		.uleb128 0x1
 6570 1ac5 30       		.byte	0x30
 6571 1ac6 24       		.uleb128 0x24
 6572 1ac7 01       		.uleb128 0x1
 6573 1ac8 51       		.byte	0x51
 6574 1ac9 01       		.uleb128 0x1
 6575 1aca 30       		.byte	0x30
 6576 1acb 00       		.byte	0
 6577 1acc 23       		.uleb128 0x23
 6578 1acd 6E0D0000 		.4byte	.LVL145
 6579 1ad1 9C1C0000 		.4byte	0x1c9c
 6580 1ad5 E41A0000 		.4byte	0x1ae4
 6581 1ad9 24       		.uleb128 0x24
 6582 1ada 01       		.uleb128 0x1
 6583 1adb 52       		.byte	0x52
 6584 1adc 01       		.uleb128 0x1
 6585 1add 30       		.byte	0x30
 6586 1ade 24       		.uleb128 0x24
 6587 1adf 01       		.uleb128 0x1
 6588 1ae0 51       		.byte	0x51
 6589 1ae1 01       		.uleb128 0x1
 6590 1ae2 30       		.byte	0x30
 6591 1ae3 00       		.byte	0
 6592 1ae4 27       		.uleb128 0x27
 6593 1ae5 7E0D0000 		.4byte	.LVL146
 6594 1ae9 361C0000 		.4byte	0x1c36
 6595 1aed 23       		.uleb128 0x23
 6596 1aee A20D0000 		.4byte	.LVL147
 6597 1af2 9C1C0000 		.4byte	0x1c9c
 6598 1af6 001B0000 		.4byte	0x1b00
 6599 1afa 24       		.uleb128 0x24
 6600 1afb 01       		.uleb128 0x1
 6601 1afc 51       		.byte	0x51
 6602 1afd 01       		.uleb128 0x1
 6603 1afe 30       		.byte	0x30
 6604 1aff 00       		.byte	0
 6605 1b00 23       		.uleb128 0x23
 6606 1b01 C20D0000 		.4byte	.LVL148
 6607 1b05 9C1C0000 		.4byte	0x1c9c
 6608 1b09 131B0000 		.4byte	0x1b13
 6609 1b0d 24       		.uleb128 0x24
 6610 1b0e 01       		.uleb128 0x1
 6611 1b0f 51       		.byte	0x51
 6612 1b10 01       		.uleb128 0x1
 6613 1b11 30       		.byte	0x30
 6614 1b12 00       		.byte	0
 6615 1b13 27       		.uleb128 0x27
 6616 1b14 D20D0000 		.4byte	.LVL149
 6617 1b18 361C0000 		.4byte	0x1c36
 6618 1b1c 00       		.byte	0
 6619 1b1d 28       		.uleb128 0x28
ARM GAS  /tmp/ccGrz3Xa.s 			page 178


 6620 1b1e 69040000 		.4byte	.LASF178
 6621 1b22 01       		.byte	0x1
 6622 1b23 24       		.byte	0x24
 6623 1b24 680C0000 		.4byte	0xc68
 6624 1b28 05       		.uleb128 0x5
 6625 1b29 03       		.byte	0x3
 6626 1b2a 00000000 		.4byte	pwmcfg
 6627 1b2e 28       		.uleb128 0x28
 6628 1b2f 17080000 		.4byte	.LASF179
 6629 1b33 01       		.byte	0x1
 6630 1b34 43       		.byte	0x43
 6631 1b35 680C0000 		.4byte	0xc68
 6632 1b39 05       		.uleb128 0x5
 6633 1b3a 03       		.byte	0x3
 6634 1b3b 00000000 		.4byte	pwmcfg1
 6635 1b3f 10       		.uleb128 0x10
 6636 1b40 4B050000 		.4byte	0x54b
 6637 1b44 4F1B0000 		.4byte	0x1b4f
 6638 1b48 11       		.uleb128 0x11
 6639 1b49 34040000 		.4byte	0x434
 6640 1b4d 28       		.byte	0x28
 6641 1b4e 00       		.byte	0
 6642 1b4f 28       		.uleb128 0x28
 6643 1b50 5D050000 		.4byte	.LASF180
 6644 1b54 01       		.byte	0x1
 6645 1b55 AC       		.byte	0xac
 6646 1b56 3F1B0000 		.4byte	0x1b3f
 6647 1b5a 05       		.uleb128 0x5
 6648 1b5b 03       		.byte	0x3
 6649 1b5c 00000000 		.4byte	waThread2
 6650 1b60 29       		.uleb128 0x29
 6651 1b61 FD000000 		.4byte	.LASF181
 6652 1b65 18       		.byte	0x18
 6653 1b66 9606     		.2byte	0x696
 6654 1b68 6C1B0000 		.4byte	0x1b6c
 6655 1b6c 0F       		.uleb128 0xf
 6656 1b6d C3000000 		.4byte	0xc3
 6657 1b71 2A       		.uleb128 0x2a
 6658 1b72 636800   		.ascii	"ch\000"
 6659 1b75 08       		.byte	0x8
 6660 1b76 D201     		.2byte	0x1d2
 6661 1b78 E7030000 		.4byte	0x3e7
 6662 1b7c 29       		.uleb128 0x29
 6663 1b7d 84010000 		.4byte	.LASF182
 6664 1b81 15       		.byte	0x15
 6665 1b82 F201     		.2byte	0x1f2
 6666 1b84 0A0B0000 		.4byte	0xb0a
 6667 1b88 29       		.uleb128 0x29
 6668 1b89 21020000 		.4byte	.LASF183
 6669 1b8d 15       		.byte	0x15
 6670 1b8e FA01     		.2byte	0x1fa
 6671 1b90 0A0B0000 		.4byte	0xb0a
 6672 1b94 2A       		.uleb128 0x2a
 6673 1b95 53443200 		.ascii	"SD2\000"
 6674 1b99 17       		.byte	0x17
 6675 1b9a 4701     		.2byte	0x147
 6676 1b9c AB0C0000 		.4byte	0xcab
ARM GAS  /tmp/ccGrz3Xa.s 			page 179


 6677 1ba0 2B       		.uleb128 0x2b
 6678 1ba1 33050000 		.4byte	.LASF184
 6679 1ba5 01       		.byte	0x1
 6680 1ba6 BE       		.byte	0xbe
 6681 1ba7 25000000 		.4byte	0x25
 6682 1bab 05       		.uleb128 0x5
 6683 1bac 03       		.byte	0x3
 6684 1bad 00000000 		.4byte	table
 6685 1bb1 2B       		.uleb128 0x2b
 6686 1bb2 5D020000 		.4byte	.LASF185
 6687 1bb6 01       		.byte	0x1
 6688 1bb7 BF       		.byte	0xbf
 6689 1bb8 25000000 		.4byte	0x25
 6690 1bbc 05       		.uleb128 0x5
 6691 1bbd 03       		.byte	0x3
 6692 1bbe 00000000 		.4byte	temp
 6693 1bc2 2B       		.uleb128 0x2b
 6694 1bc3 74010000 		.4byte	.LASF186
 6695 1bc7 01       		.byte	0x1
 6696 1bc8 C0       		.byte	0xc0
 6697 1bc9 25000000 		.4byte	0x25
 6698 1bcd 05       		.uleb128 0x5
 6699 1bce 03       		.byte	0x3
 6700 1bcf 00000000 		.4byte	PosFx
 6701 1bd3 2B       		.uleb128 0x2b
 6702 1bd4 F6010000 		.4byte	.LASF187
 6703 1bd8 01       		.byte	0x1
 6704 1bd9 C1       		.byte	0xc1
 6705 1bda 25000000 		.4byte	0x25
 6706 1bde 05       		.uleb128 0x5
 6707 1bdf 03       		.byte	0x3
 6708 1be0 00000000 		.4byte	PosFy
 6709 1be4 2B       		.uleb128 0x2b
 6710 1be5 1A060000 		.4byte	.LASF188
 6711 1be9 01       		.byte	0x1
 6712 1bea C2       		.byte	0xc2
 6713 1beb 25000000 		.4byte	0x25
 6714 1bef 05       		.uleb128 0x5
 6715 1bf0 03       		.byte	0x3
 6716 1bf1 00000000 		.4byte	PosCx
 6717 1bf5 2B       		.uleb128 0x2b
 6718 1bf6 9A030000 		.4byte	.LASF189
 6719 1bfa 01       		.byte	0x1
 6720 1bfb C3       		.byte	0xc3
 6721 1bfc 25000000 		.4byte	0x25
 6722 1c00 05       		.uleb128 0x5
 6723 1c01 03       		.byte	0x3
 6724 1c02 00000000 		.4byte	PosCy
 6725 1c06 2C       		.uleb128 0x2c
 6726 1c07 7300     		.ascii	"s\000"
 6727 1c09 01       		.byte	0x1
 6728 1c0a C4       		.byte	0xc4
 6729 1c0b 9A080000 		.4byte	0x89a
 6730 1c0f 05       		.uleb128 0x5
 6731 1c10 03       		.byte	0x3
 6732 1c11 00000000 		.4byte	s
 6733 1c15 2D       		.uleb128 0x2d
ARM GAS  /tmp/ccGrz3Xa.s 			page 180


 6734 1c16 92080000 		.4byte	.LASF205
 6735 1c1a 1B       		.byte	0x1b
 6736 1c1b 29       		.byte	0x29
 6737 1c1c 25000000 		.4byte	0x25
 6738 1c20 301C0000 		.4byte	0x1c30
 6739 1c24 0D       		.uleb128 0xd
 6740 1c25 301C0000 		.4byte	0x1c30
 6741 1c29 0D       		.uleb128 0xd
 6742 1c2a DD070000 		.4byte	0x7dd
 6743 1c2e 2E       		.uleb128 0x2e
 6744 1c2f 00       		.byte	0
 6745 1c30 0A       		.uleb128 0xa
 6746 1c31 04       		.byte	0x4
 6747 1c32 7C090000 		.4byte	0x97c
 6748 1c36 2F       		.uleb128 0x2f
 6749 1c37 70040000 		.4byte	.LASF192
 6750 1c3b 0F       		.byte	0xf
 6751 1c3c 0901     		.2byte	0x109
 6752 1c3e 481C0000 		.4byte	0x1c48
 6753 1c42 0D       		.uleb128 0xd
 6754 1c43 3C010000 		.4byte	0x13c
 6755 1c47 00       		.byte	0
 6756 1c48 30       		.uleb128 0x30
 6757 1c49 12030000 		.4byte	.LASF190
 6758 1c4d 19       		.byte	0x19
 6759 1c4e E9       		.byte	0xe9
 6760 1c4f 31       		.uleb128 0x31
 6761 1c50 65010000 		.4byte	.LASF191
 6762 1c54 1A       		.byte	0x1a
 6763 1c55 3101     		.2byte	0x131
 6764 1c57 2F       		.uleb128 0x2f
 6765 1c58 AE060000 		.4byte	.LASF193
 6766 1c5c 13       		.byte	0x13
 6767 1c5d 6D01     		.2byte	0x16d
 6768 1c5f 731C0000 		.4byte	0x1c73
 6769 1c63 0D       		.uleb128 0xd
 6770 1c64 D30A0000 		.4byte	0xad3
 6771 1c68 0D       		.uleb128 0xd
 6772 1c69 BD0A0000 		.4byte	0xabd
 6773 1c6d 0D       		.uleb128 0xd
 6774 1c6e C80A0000 		.4byte	0xac8
 6775 1c72 00       		.byte	0
 6776 1c73 2F       		.uleb128 0x2f
 6777 1c74 39010000 		.4byte	.LASF194
 6778 1c78 14       		.byte	0x14
 6779 1c79 2101     		.2byte	0x121
 6780 1c7b 8A1C0000 		.4byte	0x1c8a
 6781 1c7f 0D       		.uleb128 0xd
 6782 1c80 9A0B0000 		.4byte	0xb9a
 6783 1c84 0D       		.uleb128 0xd
 6784 1c85 740C0000 		.4byte	0xc74
 6785 1c89 00       		.byte	0
 6786 1c8a 2F       		.uleb128 0x2f
 6787 1c8b 50060000 		.4byte	.LASF195
 6788 1c8f 14       		.byte	0x14
 6789 1c90 2801     		.2byte	0x128
 6790 1c92 9C1C0000 		.4byte	0x1c9c
ARM GAS  /tmp/ccGrz3Xa.s 			page 181


 6791 1c96 0D       		.uleb128 0xd
 6792 1c97 9A0B0000 		.4byte	0xb9a
 6793 1c9b 00       		.byte	0
 6794 1c9c 2F       		.uleb128 0x2f
 6795 1c9d 64080000 		.4byte	.LASF196
 6796 1ca1 14       		.byte	0x14
 6797 1ca2 2401     		.2byte	0x124
 6798 1ca4 B81C0000 		.4byte	0x1cb8
 6799 1ca8 0D       		.uleb128 0xd
 6800 1ca9 9A0B0000 		.4byte	0xb9a
 6801 1cad 0D       		.uleb128 0xd
 6802 1cae AC0B0000 		.4byte	0xbac
 6803 1cb2 0D       		.uleb128 0xd
 6804 1cb3 C40B0000 		.4byte	0xbc4
 6805 1cb7 00       		.byte	0
 6806 1cb8 2F       		.uleb128 0x2f
 6807 1cb9 BC020000 		.4byte	.LASF197
 6808 1cbd 14       		.byte	0x14
 6809 1cbe 2A01     		.2byte	0x12a
 6810 1cc0 CF1C0000 		.4byte	0x1ccf
 6811 1cc4 0D       		.uleb128 0xd
 6812 1cc5 9A0B0000 		.4byte	0xb9a
 6813 1cc9 0D       		.uleb128 0xd
 6814 1cca AC0B0000 		.4byte	0xbac
 6815 1cce 00       		.byte	0
 6816 1ccf 2F       		.uleb128 0x2f
 6817 1cd0 27060000 		.4byte	.LASF198
 6818 1cd4 16       		.byte	0x16
 6819 1cd5 1801     		.2byte	0x118
 6820 1cd7 E61C0000 		.4byte	0x1ce6
 6821 1cdb 0D       		.uleb128 0xd
 6822 1cdc E61C0000 		.4byte	0x1ce6
 6823 1ce0 0D       		.uleb128 0xd
 6824 1ce1 EC1C0000 		.4byte	0x1cec
 6825 1ce5 00       		.byte	0
 6826 1ce6 0A       		.uleb128 0xa
 6827 1ce7 04       		.byte	0x4
 6828 1ce8 AB0C0000 		.4byte	0xcab
 6829 1cec 0A       		.uleb128 0xa
 6830 1ced 04       		.byte	0x4
 6831 1cee F21C0000 		.4byte	0x1cf2
 6832 1cf2 17       		.uleb128 0x17
 6833 1cf3 6B0D0000 		.4byte	0xd6b
 6834 1cf7 32       		.uleb128 0x32
 6835 1cf8 91010000 		.4byte	.LASF199
 6836 1cfc 0F       		.byte	0xf
 6837 1cfd F3       		.byte	0xf3
 6838 1cfe 3B020000 		.4byte	0x23b
 6839 1d02 0D       		.uleb128 0xd
 6840 1d03 18030000 		.4byte	0x318
 6841 1d07 0D       		.uleb128 0xd
 6842 1d08 2C000000 		.4byte	0x2c
 6843 1d0c 0D       		.uleb128 0xd
 6844 1d0d 05010000 		.4byte	0x105
 6845 1d11 0D       		.uleb128 0xd
 6846 1d12 00080000 		.4byte	0x800
 6847 1d16 0D       		.uleb128 0xd
ARM GAS  /tmp/ccGrz3Xa.s 			page 182


 6848 1d17 18030000 		.4byte	0x318
 6849 1d1b 00       		.byte	0
 6850 1d1c 00       		.byte	0
 6851              		.section	.debug_abbrev,"",%progbits
 6852              	.Ldebug_abbrev0:
 6853 0000 01       		.uleb128 0x1
 6854 0001 11       		.uleb128 0x11
 6855 0002 01       		.byte	0x1
 6856 0003 25       		.uleb128 0x25
 6857 0004 0E       		.uleb128 0xe
 6858 0005 13       		.uleb128 0x13
 6859 0006 0B       		.uleb128 0xb
 6860 0007 03       		.uleb128 0x3
 6861 0008 0E       		.uleb128 0xe
 6862 0009 1B       		.uleb128 0x1b
 6863 000a 0E       		.uleb128 0xe
 6864 000b 55       		.uleb128 0x55
 6865 000c 17       		.uleb128 0x17
 6866 000d 11       		.uleb128 0x11
 6867 000e 01       		.uleb128 0x1
 6868 000f 10       		.uleb128 0x10
 6869 0010 17       		.uleb128 0x17
 6870 0011 00       		.byte	0
 6871 0012 00       		.byte	0
 6872 0013 02       		.uleb128 0x2
 6873 0014 24       		.uleb128 0x24
 6874 0015 00       		.byte	0
 6875 0016 0B       		.uleb128 0xb
 6876 0017 0B       		.uleb128 0xb
 6877 0018 3E       		.uleb128 0x3e
 6878 0019 0B       		.uleb128 0xb
 6879 001a 03       		.uleb128 0x3
 6880 001b 08       		.uleb128 0x8
 6881 001c 00       		.byte	0
 6882 001d 00       		.byte	0
 6883 001e 03       		.uleb128 0x3
 6884 001f 16       		.uleb128 0x16
 6885 0020 00       		.byte	0
 6886 0021 03       		.uleb128 0x3
 6887 0022 0E       		.uleb128 0xe
 6888 0023 3A       		.uleb128 0x3a
 6889 0024 0B       		.uleb128 0xb
 6890 0025 3B       		.uleb128 0x3b
 6891 0026 0B       		.uleb128 0xb
 6892 0027 49       		.uleb128 0x49
 6893 0028 13       		.uleb128 0x13
 6894 0029 00       		.byte	0
 6895 002a 00       		.byte	0
 6896 002b 04       		.uleb128 0x4
 6897 002c 24       		.uleb128 0x24
 6898 002d 00       		.byte	0
 6899 002e 0B       		.uleb128 0xb
 6900 002f 0B       		.uleb128 0xb
 6901 0030 3E       		.uleb128 0x3e
 6902 0031 0B       		.uleb128 0xb
 6903 0032 03       		.uleb128 0x3
 6904 0033 0E       		.uleb128 0xe
ARM GAS  /tmp/ccGrz3Xa.s 			page 183


 6905 0034 00       		.byte	0
 6906 0035 00       		.byte	0
 6907 0036 05       		.uleb128 0x5
 6908 0037 13       		.uleb128 0x13
 6909 0038 01       		.byte	0x1
 6910 0039 03       		.uleb128 0x3
 6911 003a 0E       		.uleb128 0xe
 6912 003b 0B       		.uleb128 0xb
 6913 003c 0B       		.uleb128 0xb
 6914 003d 3A       		.uleb128 0x3a
 6915 003e 0B       		.uleb128 0xb
 6916 003f 3B       		.uleb128 0x3b
 6917 0040 0B       		.uleb128 0xb
 6918 0041 01       		.uleb128 0x1
 6919 0042 13       		.uleb128 0x13
 6920 0043 00       		.byte	0
 6921 0044 00       		.byte	0
 6922 0045 06       		.uleb128 0x6
 6923 0046 0D       		.uleb128 0xd
 6924 0047 00       		.byte	0
 6925 0048 03       		.uleb128 0x3
 6926 0049 0E       		.uleb128 0xe
 6927 004a 3A       		.uleb128 0x3a
 6928 004b 0B       		.uleb128 0xb
 6929 004c 3B       		.uleb128 0x3b
 6930 004d 0B       		.uleb128 0xb
 6931 004e 49       		.uleb128 0x49
 6932 004f 13       		.uleb128 0x13
 6933 0050 38       		.uleb128 0x38
 6934 0051 0B       		.uleb128 0xb
 6935 0052 00       		.byte	0
 6936 0053 00       		.byte	0
 6937 0054 07       		.uleb128 0x7
 6938 0055 0D       		.uleb128 0xd
 6939 0056 00       		.byte	0
 6940 0057 03       		.uleb128 0x3
 6941 0058 08       		.uleb128 0x8
 6942 0059 3A       		.uleb128 0x3a
 6943 005a 0B       		.uleb128 0xb
 6944 005b 3B       		.uleb128 0x3b
 6945 005c 0B       		.uleb128 0xb
 6946 005d 49       		.uleb128 0x49
 6947 005e 13       		.uleb128 0x13
 6948 005f 38       		.uleb128 0x38
 6949 0060 0B       		.uleb128 0xb
 6950 0061 00       		.byte	0
 6951 0062 00       		.byte	0
 6952 0063 08       		.uleb128 0x8
 6953 0064 0D       		.uleb128 0xd
 6954 0065 00       		.byte	0
 6955 0066 03       		.uleb128 0x3
 6956 0067 08       		.uleb128 0x8
 6957 0068 3A       		.uleb128 0x3a
 6958 0069 0B       		.uleb128 0xb
 6959 006a 3B       		.uleb128 0x3b
 6960 006b 05       		.uleb128 0x5
 6961 006c 49       		.uleb128 0x49
ARM GAS  /tmp/ccGrz3Xa.s 			page 184


 6962 006d 13       		.uleb128 0x13
 6963 006e 38       		.uleb128 0x38
 6964 006f 0B       		.uleb128 0xb
 6965 0070 00       		.byte	0
 6966 0071 00       		.byte	0
 6967 0072 09       		.uleb128 0x9
 6968 0073 0D       		.uleb128 0xd
 6969 0074 00       		.byte	0
 6970 0075 03       		.uleb128 0x3
 6971 0076 0E       		.uleb128 0xe
 6972 0077 3A       		.uleb128 0x3a
 6973 0078 0B       		.uleb128 0xb
 6974 0079 3B       		.uleb128 0x3b
 6975 007a 05       		.uleb128 0x5
 6976 007b 49       		.uleb128 0x49
 6977 007c 13       		.uleb128 0x13
 6978 007d 38       		.uleb128 0x38
 6979 007e 0B       		.uleb128 0xb
 6980 007f 00       		.byte	0
 6981 0080 00       		.byte	0
 6982 0081 0A       		.uleb128 0xa
 6983 0082 0F       		.uleb128 0xf
 6984 0083 00       		.byte	0
 6985 0084 0B       		.uleb128 0xb
 6986 0085 0B       		.uleb128 0xb
 6987 0086 49       		.uleb128 0x49
 6988 0087 13       		.uleb128 0x13
 6989 0088 00       		.byte	0
 6990 0089 00       		.byte	0
 6991 008a 0B       		.uleb128 0xb
 6992 008b 13       		.uleb128 0x13
 6993 008c 01       		.byte	0x1
 6994 008d 03       		.uleb128 0x3
 6995 008e 0E       		.uleb128 0xe
 6996 008f 0B       		.uleb128 0xb
 6997 0090 0B       		.uleb128 0xb
 6998 0091 3A       		.uleb128 0x3a
 6999 0092 0B       		.uleb128 0xb
 7000 0093 3B       		.uleb128 0x3b
 7001 0094 05       		.uleb128 0x5
 7002 0095 01       		.uleb128 0x1
 7003 0096 13       		.uleb128 0x13
 7004 0097 00       		.byte	0
 7005 0098 00       		.byte	0
 7006 0099 0C       		.uleb128 0xc
 7007 009a 15       		.uleb128 0x15
 7008 009b 01       		.byte	0x1
 7009 009c 27       		.uleb128 0x27
 7010 009d 19       		.uleb128 0x19
 7011 009e 01       		.uleb128 0x1
 7012 009f 13       		.uleb128 0x13
 7013 00a0 00       		.byte	0
 7014 00a1 00       		.byte	0
 7015 00a2 0D       		.uleb128 0xd
 7016 00a3 05       		.uleb128 0x5
 7017 00a4 00       		.byte	0
 7018 00a5 49       		.uleb128 0x49
ARM GAS  /tmp/ccGrz3Xa.s 			page 185


 7019 00a6 13       		.uleb128 0x13
 7020 00a7 00       		.byte	0
 7021 00a8 00       		.byte	0
 7022 00a9 0E       		.uleb128 0xe
 7023 00aa 0F       		.uleb128 0xf
 7024 00ab 00       		.byte	0
 7025 00ac 0B       		.uleb128 0xb
 7026 00ad 0B       		.uleb128 0xb
 7027 00ae 00       		.byte	0
 7028 00af 00       		.byte	0
 7029 00b0 0F       		.uleb128 0xf
 7030 00b1 35       		.uleb128 0x35
 7031 00b2 00       		.byte	0
 7032 00b3 49       		.uleb128 0x49
 7033 00b4 13       		.uleb128 0x13
 7034 00b5 00       		.byte	0
 7035 00b6 00       		.byte	0
 7036 00b7 10       		.uleb128 0x10
 7037 00b8 01       		.uleb128 0x1
 7038 00b9 01       		.byte	0x1
 7039 00ba 49       		.uleb128 0x49
 7040 00bb 13       		.uleb128 0x13
 7041 00bc 01       		.uleb128 0x1
 7042 00bd 13       		.uleb128 0x13
 7043 00be 00       		.byte	0
 7044 00bf 00       		.byte	0
 7045 00c0 11       		.uleb128 0x11
 7046 00c1 21       		.uleb128 0x21
 7047 00c2 00       		.byte	0
 7048 00c3 49       		.uleb128 0x49
 7049 00c4 13       		.uleb128 0x13
 7050 00c5 2F       		.uleb128 0x2f
 7051 00c6 0B       		.uleb128 0xb
 7052 00c7 00       		.byte	0
 7053 00c8 00       		.byte	0
 7054 00c9 12       		.uleb128 0x12
 7055 00ca 13       		.uleb128 0x13
 7056 00cb 01       		.byte	0x1
 7057 00cc 0B       		.uleb128 0xb
 7058 00cd 0B       		.uleb128 0xb
 7059 00ce 3A       		.uleb128 0x3a
 7060 00cf 0B       		.uleb128 0xb
 7061 00d0 3B       		.uleb128 0x3b
 7062 00d1 05       		.uleb128 0x5
 7063 00d2 01       		.uleb128 0x1
 7064 00d3 13       		.uleb128 0x13
 7065 00d4 00       		.byte	0
 7066 00d5 00       		.byte	0
 7067 00d6 13       		.uleb128 0x13
 7068 00d7 16       		.uleb128 0x16
 7069 00d8 00       		.byte	0
 7070 00d9 03       		.uleb128 0x3
 7071 00da 0E       		.uleb128 0xe
 7072 00db 3A       		.uleb128 0x3a
 7073 00dc 0B       		.uleb128 0xb
 7074 00dd 3B       		.uleb128 0x3b
 7075 00de 05       		.uleb128 0x5
ARM GAS  /tmp/ccGrz3Xa.s 			page 186


 7076 00df 49       		.uleb128 0x49
 7077 00e0 13       		.uleb128 0x13
 7078 00e1 00       		.byte	0
 7079 00e2 00       		.byte	0
 7080 00e3 14       		.uleb128 0x14
 7081 00e4 17       		.uleb128 0x17
 7082 00e5 01       		.byte	0x1
 7083 00e6 0B       		.uleb128 0xb
 7084 00e7 0B       		.uleb128 0xb
 7085 00e8 3A       		.uleb128 0x3a
 7086 00e9 0B       		.uleb128 0xb
 7087 00ea 3B       		.uleb128 0x3b
 7088 00eb 0B       		.uleb128 0xb
 7089 00ec 01       		.uleb128 0x1
 7090 00ed 13       		.uleb128 0x13
 7091 00ee 00       		.byte	0
 7092 00ef 00       		.byte	0
 7093 00f0 15       		.uleb128 0x15
 7094 00f1 0D       		.uleb128 0xd
 7095 00f2 00       		.byte	0
 7096 00f3 03       		.uleb128 0x3
 7097 00f4 0E       		.uleb128 0xe
 7098 00f5 3A       		.uleb128 0x3a
 7099 00f6 0B       		.uleb128 0xb
 7100 00f7 3B       		.uleb128 0x3b
 7101 00f8 0B       		.uleb128 0xb
 7102 00f9 49       		.uleb128 0x49
 7103 00fa 13       		.uleb128 0x13
 7104 00fb 00       		.byte	0
 7105 00fc 00       		.byte	0
 7106 00fd 16       		.uleb128 0x16
 7107 00fe 0D       		.uleb128 0xd
 7108 00ff 00       		.byte	0
 7109 0100 03       		.uleb128 0x3
 7110 0101 0E       		.uleb128 0xe
 7111 0102 3A       		.uleb128 0x3a
 7112 0103 0B       		.uleb128 0xb
 7113 0104 3B       		.uleb128 0x3b
 7114 0105 05       		.uleb128 0x5
 7115 0106 49       		.uleb128 0x49
 7116 0107 13       		.uleb128 0x13
 7117 0108 00       		.byte	0
 7118 0109 00       		.byte	0
 7119 010a 17       		.uleb128 0x17
 7120 010b 26       		.uleb128 0x26
 7121 010c 00       		.byte	0
 7122 010d 49       		.uleb128 0x49
 7123 010e 13       		.uleb128 0x13
 7124 010f 00       		.byte	0
 7125 0110 00       		.byte	0
 7126 0111 18       		.uleb128 0x18
 7127 0112 15       		.uleb128 0x15
 7128 0113 01       		.byte	0x1
 7129 0114 27       		.uleb128 0x27
 7130 0115 19       		.uleb128 0x19
 7131 0116 49       		.uleb128 0x49
 7132 0117 13       		.uleb128 0x13
ARM GAS  /tmp/ccGrz3Xa.s 			page 187


 7133 0118 01       		.uleb128 0x1
 7134 0119 13       		.uleb128 0x13
 7135 011a 00       		.byte	0
 7136 011b 00       		.byte	0
 7137 011c 19       		.uleb128 0x19
 7138 011d 13       		.uleb128 0x13
 7139 011e 01       		.byte	0x1
 7140 011f 0B       		.uleb128 0xb
 7141 0120 0B       		.uleb128 0xb
 7142 0121 3A       		.uleb128 0x3a
 7143 0122 0B       		.uleb128 0xb
 7144 0123 3B       		.uleb128 0x3b
 7145 0124 0B       		.uleb128 0xb
 7146 0125 01       		.uleb128 0x1
 7147 0126 13       		.uleb128 0x13
 7148 0127 00       		.byte	0
 7149 0128 00       		.byte	0
 7150 0129 1A       		.uleb128 0x1a
 7151 012a 04       		.uleb128 0x4
 7152 012b 01       		.byte	0x1
 7153 012c 0B       		.uleb128 0xb
 7154 012d 0B       		.uleb128 0xb
 7155 012e 3A       		.uleb128 0x3a
 7156 012f 0B       		.uleb128 0xb
 7157 0130 3B       		.uleb128 0x3b
 7158 0131 0B       		.uleb128 0xb
 7159 0132 01       		.uleb128 0x1
 7160 0133 13       		.uleb128 0x13
 7161 0134 00       		.byte	0
 7162 0135 00       		.byte	0
 7163 0136 1B       		.uleb128 0x1b
 7164 0137 28       		.uleb128 0x28
 7165 0138 00       		.byte	0
 7166 0139 03       		.uleb128 0x3
 7167 013a 0E       		.uleb128 0xe
 7168 013b 1C       		.uleb128 0x1c
 7169 013c 0D       		.uleb128 0xd
 7170 013d 00       		.byte	0
 7171 013e 00       		.byte	0
 7172 013f 1C       		.uleb128 0x1c
 7173 0140 2E       		.uleb128 0x2e
 7174 0141 01       		.byte	0x1
 7175 0142 03       		.uleb128 0x3
 7176 0143 0E       		.uleb128 0xe
 7177 0144 3A       		.uleb128 0x3a
 7178 0145 0B       		.uleb128 0xb
 7179 0146 3B       		.uleb128 0x3b
 7180 0147 0B       		.uleb128 0xb
 7181 0148 27       		.uleb128 0x27
 7182 0149 19       		.uleb128 0x19
 7183 014a 20       		.uleb128 0x20
 7184 014b 0B       		.uleb128 0xb
 7185 014c 01       		.uleb128 0x1
 7186 014d 13       		.uleb128 0x13
 7187 014e 00       		.byte	0
 7188 014f 00       		.byte	0
 7189 0150 1D       		.uleb128 0x1d
ARM GAS  /tmp/ccGrz3Xa.s 			page 188


 7190 0151 05       		.uleb128 0x5
 7191 0152 00       		.byte	0
 7192 0153 03       		.uleb128 0x3
 7193 0154 0E       		.uleb128 0xe
 7194 0155 3A       		.uleb128 0x3a
 7195 0156 0B       		.uleb128 0xb
 7196 0157 3B       		.uleb128 0x3b
 7197 0158 0B       		.uleb128 0xb
 7198 0159 49       		.uleb128 0x49
 7199 015a 13       		.uleb128 0x13
 7200 015b 00       		.byte	0
 7201 015c 00       		.byte	0
 7202 015d 1E       		.uleb128 0x1e
 7203 015e 2E       		.uleb128 0x2e
 7204 015f 01       		.byte	0x1
 7205 0160 03       		.uleb128 0x3
 7206 0161 0E       		.uleb128 0xe
 7207 0162 3A       		.uleb128 0x3a
 7208 0163 0B       		.uleb128 0xb
 7209 0164 3B       		.uleb128 0x3b
 7210 0165 0B       		.uleb128 0xb
 7211 0166 27       		.uleb128 0x27
 7212 0167 19       		.uleb128 0x19
 7213 0168 11       		.uleb128 0x11
 7214 0169 01       		.uleb128 0x1
 7215 016a 12       		.uleb128 0x12
 7216 016b 06       		.uleb128 0x6
 7217 016c 40       		.uleb128 0x40
 7218 016d 18       		.uleb128 0x18
 7219 016e 9742     		.uleb128 0x2117
 7220 0170 19       		.uleb128 0x19
 7221 0171 01       		.uleb128 0x1
 7222 0172 13       		.uleb128 0x13
 7223 0173 00       		.byte	0
 7224 0174 00       		.byte	0
 7225 0175 1F       		.uleb128 0x1f
 7226 0176 05       		.uleb128 0x5
 7227 0177 00       		.byte	0
 7228 0178 03       		.uleb128 0x3
 7229 0179 0E       		.uleb128 0xe
 7230 017a 3A       		.uleb128 0x3a
 7231 017b 0B       		.uleb128 0xb
 7232 017c 3B       		.uleb128 0x3b
 7233 017d 0B       		.uleb128 0xb
 7234 017e 49       		.uleb128 0x49
 7235 017f 13       		.uleb128 0x13
 7236 0180 02       		.uleb128 0x2
 7237 0181 18       		.uleb128 0x18
 7238 0182 00       		.byte	0
 7239 0183 00       		.byte	0
 7240 0184 20       		.uleb128 0x20
 7241 0185 05       		.uleb128 0x5
 7242 0186 00       		.byte	0
 7243 0187 03       		.uleb128 0x3
 7244 0188 08       		.uleb128 0x8
 7245 0189 3A       		.uleb128 0x3a
 7246 018a 0B       		.uleb128 0xb
ARM GAS  /tmp/ccGrz3Xa.s 			page 189


 7247 018b 3B       		.uleb128 0x3b
 7248 018c 0B       		.uleb128 0xb
 7249 018d 49       		.uleb128 0x49
 7250 018e 13       		.uleb128 0x13
 7251 018f 02       		.uleb128 0x2
 7252 0190 17       		.uleb128 0x17
 7253 0191 00       		.byte	0
 7254 0192 00       		.byte	0
 7255 0193 21       		.uleb128 0x21
 7256 0194 1D       		.uleb128 0x1d
 7257 0195 01       		.byte	0x1
 7258 0196 31       		.uleb128 0x31
 7259 0197 13       		.uleb128 0x13
 7260 0198 11       		.uleb128 0x11
 7261 0199 01       		.uleb128 0x1
 7262 019a 12       		.uleb128 0x12
 7263 019b 06       		.uleb128 0x6
 7264 019c 58       		.uleb128 0x58
 7265 019d 0B       		.uleb128 0xb
 7266 019e 59       		.uleb128 0x59
 7267 019f 0B       		.uleb128 0xb
 7268 01a0 01       		.uleb128 0x1
 7269 01a1 13       		.uleb128 0x13
 7270 01a2 00       		.byte	0
 7271 01a3 00       		.byte	0
 7272 01a4 22       		.uleb128 0x22
 7273 01a5 05       		.uleb128 0x5
 7274 01a6 00       		.byte	0
 7275 01a7 31       		.uleb128 0x31
 7276 01a8 13       		.uleb128 0x13
 7277 01a9 02       		.uleb128 0x2
 7278 01aa 18       		.uleb128 0x18
 7279 01ab 00       		.byte	0
 7280 01ac 00       		.byte	0
 7281 01ad 23       		.uleb128 0x23
 7282 01ae 898201   		.uleb128 0x4109
 7283 01b1 01       		.byte	0x1
 7284 01b2 11       		.uleb128 0x11
 7285 01b3 01       		.uleb128 0x1
 7286 01b4 31       		.uleb128 0x31
 7287 01b5 13       		.uleb128 0x13
 7288 01b6 01       		.uleb128 0x1
 7289 01b7 13       		.uleb128 0x13
 7290 01b8 00       		.byte	0
 7291 01b9 00       		.byte	0
 7292 01ba 24       		.uleb128 0x24
 7293 01bb 8A8201   		.uleb128 0x410a
 7294 01be 00       		.byte	0
 7295 01bf 02       		.uleb128 0x2
 7296 01c0 18       		.uleb128 0x18
 7297 01c1 9142     		.uleb128 0x2111
 7298 01c3 18       		.uleb128 0x18
 7299 01c4 00       		.byte	0
 7300 01c5 00       		.byte	0
 7301 01c6 25       		.uleb128 0x25
 7302 01c7 898201   		.uleb128 0x4109
 7303 01ca 01       		.byte	0x1
ARM GAS  /tmp/ccGrz3Xa.s 			page 190


 7304 01cb 11       		.uleb128 0x11
 7305 01cc 01       		.uleb128 0x1
 7306 01cd 31       		.uleb128 0x31
 7307 01ce 13       		.uleb128 0x13
 7308 01cf 00       		.byte	0
 7309 01d0 00       		.byte	0
 7310 01d1 26       		.uleb128 0x26
 7311 01d2 2E       		.uleb128 0x2e
 7312 01d3 01       		.byte	0x1
 7313 01d4 3F       		.uleb128 0x3f
 7314 01d5 19       		.uleb128 0x19
 7315 01d6 03       		.uleb128 0x3
 7316 01d7 0E       		.uleb128 0xe
 7317 01d8 3A       		.uleb128 0x3a
 7318 01d9 0B       		.uleb128 0xb
 7319 01da 3B       		.uleb128 0x3b
 7320 01db 0B       		.uleb128 0xb
 7321 01dc 27       		.uleb128 0x27
 7322 01dd 19       		.uleb128 0x19
 7323 01de 49       		.uleb128 0x49
 7324 01df 13       		.uleb128 0x13
 7325 01e0 11       		.uleb128 0x11
 7326 01e1 01       		.uleb128 0x1
 7327 01e2 12       		.uleb128 0x12
 7328 01e3 06       		.uleb128 0x6
 7329 01e4 40       		.uleb128 0x40
 7330 01e5 18       		.uleb128 0x18
 7331 01e6 9742     		.uleb128 0x2117
 7332 01e8 19       		.uleb128 0x19
 7333 01e9 01       		.uleb128 0x1
 7334 01ea 13       		.uleb128 0x13
 7335 01eb 00       		.byte	0
 7336 01ec 00       		.byte	0
 7337 01ed 27       		.uleb128 0x27
 7338 01ee 898201   		.uleb128 0x4109
 7339 01f1 00       		.byte	0
 7340 01f2 11       		.uleb128 0x11
 7341 01f3 01       		.uleb128 0x1
 7342 01f4 31       		.uleb128 0x31
 7343 01f5 13       		.uleb128 0x13
 7344 01f6 00       		.byte	0
 7345 01f7 00       		.byte	0
 7346 01f8 28       		.uleb128 0x28
 7347 01f9 34       		.uleb128 0x34
 7348 01fa 00       		.byte	0
 7349 01fb 03       		.uleb128 0x3
 7350 01fc 0E       		.uleb128 0xe
 7351 01fd 3A       		.uleb128 0x3a
 7352 01fe 0B       		.uleb128 0xb
 7353 01ff 3B       		.uleb128 0x3b
 7354 0200 0B       		.uleb128 0xb
 7355 0201 49       		.uleb128 0x49
 7356 0202 13       		.uleb128 0x13
 7357 0203 02       		.uleb128 0x2
 7358 0204 18       		.uleb128 0x18
 7359 0205 00       		.byte	0
 7360 0206 00       		.byte	0
ARM GAS  /tmp/ccGrz3Xa.s 			page 191


 7361 0207 29       		.uleb128 0x29
 7362 0208 34       		.uleb128 0x34
 7363 0209 00       		.byte	0
 7364 020a 03       		.uleb128 0x3
 7365 020b 0E       		.uleb128 0xe
 7366 020c 3A       		.uleb128 0x3a
 7367 020d 0B       		.uleb128 0xb
 7368 020e 3B       		.uleb128 0x3b
 7369 020f 05       		.uleb128 0x5
 7370 0210 49       		.uleb128 0x49
 7371 0211 13       		.uleb128 0x13
 7372 0212 3F       		.uleb128 0x3f
 7373 0213 19       		.uleb128 0x19
 7374 0214 3C       		.uleb128 0x3c
 7375 0215 19       		.uleb128 0x19
 7376 0216 00       		.byte	0
 7377 0217 00       		.byte	0
 7378 0218 2A       		.uleb128 0x2a
 7379 0219 34       		.uleb128 0x34
 7380 021a 00       		.byte	0
 7381 021b 03       		.uleb128 0x3
 7382 021c 08       		.uleb128 0x8
 7383 021d 3A       		.uleb128 0x3a
 7384 021e 0B       		.uleb128 0xb
 7385 021f 3B       		.uleb128 0x3b
 7386 0220 05       		.uleb128 0x5
 7387 0221 49       		.uleb128 0x49
 7388 0222 13       		.uleb128 0x13
 7389 0223 3F       		.uleb128 0x3f
 7390 0224 19       		.uleb128 0x19
 7391 0225 3C       		.uleb128 0x3c
 7392 0226 19       		.uleb128 0x19
 7393 0227 00       		.byte	0
 7394 0228 00       		.byte	0
 7395 0229 2B       		.uleb128 0x2b
 7396 022a 34       		.uleb128 0x34
 7397 022b 00       		.byte	0
 7398 022c 03       		.uleb128 0x3
 7399 022d 0E       		.uleb128 0xe
 7400 022e 3A       		.uleb128 0x3a
 7401 022f 0B       		.uleb128 0xb
 7402 0230 3B       		.uleb128 0x3b
 7403 0231 0B       		.uleb128 0xb
 7404 0232 49       		.uleb128 0x49
 7405 0233 13       		.uleb128 0x13
 7406 0234 3F       		.uleb128 0x3f
 7407 0235 19       		.uleb128 0x19
 7408 0236 02       		.uleb128 0x2
 7409 0237 18       		.uleb128 0x18
 7410 0238 00       		.byte	0
 7411 0239 00       		.byte	0
 7412 023a 2C       		.uleb128 0x2c
 7413 023b 34       		.uleb128 0x34
 7414 023c 00       		.byte	0
 7415 023d 03       		.uleb128 0x3
 7416 023e 08       		.uleb128 0x8
 7417 023f 3A       		.uleb128 0x3a
ARM GAS  /tmp/ccGrz3Xa.s 			page 192


 7418 0240 0B       		.uleb128 0xb
 7419 0241 3B       		.uleb128 0x3b
 7420 0242 0B       		.uleb128 0xb
 7421 0243 49       		.uleb128 0x49
 7422 0244 13       		.uleb128 0x13
 7423 0245 3F       		.uleb128 0x3f
 7424 0246 19       		.uleb128 0x19
 7425 0247 02       		.uleb128 0x2
 7426 0248 18       		.uleb128 0x18
 7427 0249 00       		.byte	0
 7428 024a 00       		.byte	0
 7429 024b 2D       		.uleb128 0x2d
 7430 024c 2E       		.uleb128 0x2e
 7431 024d 01       		.byte	0x1
 7432 024e 3F       		.uleb128 0x3f
 7433 024f 19       		.uleb128 0x19
 7434 0250 03       		.uleb128 0x3
 7435 0251 0E       		.uleb128 0xe
 7436 0252 3A       		.uleb128 0x3a
 7437 0253 0B       		.uleb128 0xb
 7438 0254 3B       		.uleb128 0x3b
 7439 0255 0B       		.uleb128 0xb
 7440 0256 27       		.uleb128 0x27
 7441 0257 19       		.uleb128 0x19
 7442 0258 49       		.uleb128 0x49
 7443 0259 13       		.uleb128 0x13
 7444 025a 3C       		.uleb128 0x3c
 7445 025b 19       		.uleb128 0x19
 7446 025c 01       		.uleb128 0x1
 7447 025d 13       		.uleb128 0x13
 7448 025e 00       		.byte	0
 7449 025f 00       		.byte	0
 7450 0260 2E       		.uleb128 0x2e
 7451 0261 18       		.uleb128 0x18
 7452 0262 00       		.byte	0
 7453 0263 00       		.byte	0
 7454 0264 00       		.byte	0
 7455 0265 2F       		.uleb128 0x2f
 7456 0266 2E       		.uleb128 0x2e
 7457 0267 01       		.byte	0x1
 7458 0268 3F       		.uleb128 0x3f
 7459 0269 19       		.uleb128 0x19
 7460 026a 03       		.uleb128 0x3
 7461 026b 0E       		.uleb128 0xe
 7462 026c 3A       		.uleb128 0x3a
 7463 026d 0B       		.uleb128 0xb
 7464 026e 3B       		.uleb128 0x3b
 7465 026f 05       		.uleb128 0x5
 7466 0270 27       		.uleb128 0x27
 7467 0271 19       		.uleb128 0x19
 7468 0272 3C       		.uleb128 0x3c
 7469 0273 19       		.uleb128 0x19
 7470 0274 01       		.uleb128 0x1
 7471 0275 13       		.uleb128 0x13
 7472 0276 00       		.byte	0
 7473 0277 00       		.byte	0
 7474 0278 30       		.uleb128 0x30
ARM GAS  /tmp/ccGrz3Xa.s 			page 193


 7475 0279 2E       		.uleb128 0x2e
 7476 027a 00       		.byte	0
 7477 027b 3F       		.uleb128 0x3f
 7478 027c 19       		.uleb128 0x19
 7479 027d 03       		.uleb128 0x3
 7480 027e 0E       		.uleb128 0xe
 7481 027f 3A       		.uleb128 0x3a
 7482 0280 0B       		.uleb128 0xb
 7483 0281 3B       		.uleb128 0x3b
 7484 0282 0B       		.uleb128 0xb
 7485 0283 27       		.uleb128 0x27
 7486 0284 19       		.uleb128 0x19
 7487 0285 3C       		.uleb128 0x3c
 7488 0286 19       		.uleb128 0x19
 7489 0287 00       		.byte	0
 7490 0288 00       		.byte	0
 7491 0289 31       		.uleb128 0x31
 7492 028a 2E       		.uleb128 0x2e
 7493 028b 00       		.byte	0
 7494 028c 3F       		.uleb128 0x3f
 7495 028d 19       		.uleb128 0x19
 7496 028e 03       		.uleb128 0x3
 7497 028f 0E       		.uleb128 0xe
 7498 0290 3A       		.uleb128 0x3a
 7499 0291 0B       		.uleb128 0xb
 7500 0292 3B       		.uleb128 0x3b
 7501 0293 05       		.uleb128 0x5
 7502 0294 27       		.uleb128 0x27
 7503 0295 19       		.uleb128 0x19
 7504 0296 3C       		.uleb128 0x3c
 7505 0297 19       		.uleb128 0x19
 7506 0298 00       		.byte	0
 7507 0299 00       		.byte	0
 7508 029a 32       		.uleb128 0x32
 7509 029b 2E       		.uleb128 0x2e
 7510 029c 01       		.byte	0x1
 7511 029d 3F       		.uleb128 0x3f
 7512 029e 19       		.uleb128 0x19
 7513 029f 03       		.uleb128 0x3
 7514 02a0 0E       		.uleb128 0xe
 7515 02a1 3A       		.uleb128 0x3a
 7516 02a2 0B       		.uleb128 0xb
 7517 02a3 3B       		.uleb128 0x3b
 7518 02a4 0B       		.uleb128 0xb
 7519 02a5 27       		.uleb128 0x27
 7520 02a6 19       		.uleb128 0x19
 7521 02a7 49       		.uleb128 0x49
 7522 02a8 13       		.uleb128 0x13
 7523 02a9 3C       		.uleb128 0x3c
 7524 02aa 19       		.uleb128 0x19
 7525 02ab 00       		.byte	0
 7526 02ac 00       		.byte	0
 7527 02ad 00       		.byte	0
 7528              		.section	.debug_loc,"",%progbits
 7529              	.Ldebug_loc0:
 7530              	.LLST0:
 7531 0000 00000000 		.4byte	.LVL4
ARM GAS  /tmp/ccGrz3Xa.s 			page 194


 7532 0004 16000000 		.4byte	.LVL5
 7533 0008 0100     		.2byte	0x1
 7534 000a 50       		.byte	0x50
 7535 000b 16000000 		.4byte	.LVL5
 7536 000f 34000000 		.4byte	.LFE223
 7537 0013 0400     		.2byte	0x4
 7538 0015 F3       		.byte	0xf3
 7539 0016 01       		.uleb128 0x1
 7540 0017 50       		.byte	0x50
 7541 0018 9F       		.byte	0x9f
 7542 0019 00000000 		.4byte	0
 7543 001d 00000000 		.4byte	0
 7544              		.section	.debug_aranges,"",%progbits
 7545 0000 44000000 		.4byte	0x44
 7546 0004 0200     		.2byte	0x2
 7547 0006 00000000 		.4byte	.Ldebug_info0
 7548 000a 04       		.byte	0x4
 7549 000b 00       		.byte	0
 7550 000c 0000     		.2byte	0
 7551 000e 0000     		.2byte	0
 7552 0010 00000000 		.4byte	.LFB219
 7553 0014 10000000 		.4byte	.LFE219-.LFB219
 7554 0018 00000000 		.4byte	.LFB220
 7555 001c 10000000 		.4byte	.LFE220-.LFB220
 7556 0020 00000000 		.4byte	.LFB221
 7557 0024 10000000 		.4byte	.LFE221-.LFB221
 7558 0028 00000000 		.4byte	.LFB222
 7559 002c 10000000 		.4byte	.LFE222-.LFB222
 7560 0030 00000000 		.4byte	.LFB223
 7561 0034 34000000 		.4byte	.LFE223-.LFB223
 7562 0038 00000000 		.4byte	.LFB224
 7563 003c E00D0000 		.4byte	.LFE224-.LFB224
 7564 0040 00000000 		.4byte	0
 7565 0044 00000000 		.4byte	0
 7566              		.section	.debug_ranges,"",%progbits
 7567              	.Ldebug_ranges0:
 7568 0000 00000000 		.4byte	.LFB219
 7569 0004 10000000 		.4byte	.LFE219
 7570 0008 00000000 		.4byte	.LFB220
 7571 000c 10000000 		.4byte	.LFE220
 7572 0010 00000000 		.4byte	.LFB221
 7573 0014 10000000 		.4byte	.LFE221
 7574 0018 00000000 		.4byte	.LFB222
 7575 001c 10000000 		.4byte	.LFE222
 7576 0020 00000000 		.4byte	.LFB223
 7577 0024 34000000 		.4byte	.LFE223
 7578 0028 00000000 		.4byte	.LFB224
 7579 002c E00D0000 		.4byte	.LFE224
 7580 0030 00000000 		.4byte	0
 7581 0034 00000000 		.4byte	0
 7582              		.section	.debug_line,"",%progbits
 7583              	.Ldebug_line0:
 7584 0000 1E060000 		.section	.debug_str,"MS",%progbits,1
 7584      02000F03 
 7584      00000201 
 7584      FB0E0D00 
 7584      01010101 
ARM GAS  /tmp/ccGrz3Xa.s 			page 195


 7585              	.LASF104:
 7586 0000 7466756E 		.ascii	"tfunc_t\000"
 7586      635F7400 
 7587              	.LASF146:
 7588 0008 70776D63 		.ascii	"pwmchannel_t\000"
 7588      68616E6E 
 7588      656C5F74 
 7588      00
 7589              	.LASF53:
 7590 0015 72656164 		.ascii	"ready_list_t\000"
 7590      795F6C69 
 7590      73745F74 
 7590      00
 7591              	.LASF83:
 7592 0022 44494552 		.ascii	"DIER\000"
 7592      00
 7593              	.LASF2:
 7594 0027 73697A65 		.ascii	"size_t\000"
 7594      5F7400
 7595              	.LASF49:
 7596 002e 6E657874 		.ascii	"next\000"
 7596      00
 7597              	.LASF59:
 7598 0033 64656C74 		.ascii	"delta\000"
 7598      6100
 7599              	.LASF92:
 7600 0039 7264796D 		.ascii	"rdymsg\000"
 7600      736700
 7601              	.LASF19:
 7602 0040 75696E74 		.ascii	"uint64_t\000"
 7602      36345F74 
 7602      00
 7603              	.LASF3:
 7604 0049 5F5F7569 		.ascii	"__uint8_t\000"
 7604      6E74385F 
 7604      7400
 7605              	.LASF52:
 7606 0053 70726576 		.ascii	"prev\000"
 7606      00
 7607              	.LASF176:
 7608 0058 70776D63 		.ascii	"pwmc2cb\000"
 7608      32636200 
 7609              	.LASF51:
 7610 0060 63685F74 		.ascii	"ch_threads_queue\000"
 7610      68726561 
 7610      64735F71 
 7610      75657565 
 7610      00
 7611              	.LASF64:
 7612 0071 73797374 		.ascii	"system_debug_t\000"
 7612      656D5F64 
 7612      65627567 
 7612      5F7400
 7613              	.LASF120:
 7614 0080 715F7761 		.ascii	"q_waiting\000"
 7614      6974696E 
 7614      6700
ARM GAS  /tmp/ccGrz3Xa.s 			page 196


 7615              	.LASF131:
 7616 008a 696F706F 		.ascii	"ioportmask_t\000"
 7616      72746D61 
 7616      736B5F74 
 7616      00
 7617              	.LASF8:
 7618 0097 5F5F696E 		.ascii	"__int32_t\000"
 7618      7433325F 
 7618      7400
 7619              	.LASF48:
 7620 00a1 63685F74 		.ascii	"ch_threads_list\000"
 7620      68726561 
 7620      64735F6C 
 7620      69737400 
 7621              	.LASF14:
 7622 00b1 6C6F6E67 		.ascii	"long long unsigned int\000"
 7622      206C6F6E 
 7622      6720756E 
 7622      7369676E 
 7622      65642069 
 7623              	.LASF172:
 7624 00c8 70776D70 		.ascii	"pwmpcb\000"
 7624      636200
 7625              	.LASF93:
 7626 00cf 65786974 		.ascii	"exitcode\000"
 7626      636F6465 
 7626      00
 7627              	.LASF164:
 7628 00d8 72786D61 		.ascii	"rxmask\000"
 7628      736B00
 7629              	.LASF96:
 7630 00df 73656E74 		.ascii	"sentmsg\000"
 7630      6D736700 
 7631              	.LASF61:
 7632 00e7 76697274 		.ascii	"virtual_timers_list_t\000"
 7632      75616C5F 
 7632      74696D65 
 7632      72735F6C 
 7632      6973745F 
 7633              	.LASF181:
 7634 00fd 49544D5F 		.ascii	"ITM_RxBuffer\000"
 7634      52784275 
 7634      66666572 
 7634      00
 7635              	.LASF60:
 7636 010a 66756E63 		.ascii	"func\000"
 7636      00
 7637              	.LASF118:
 7638 010f 696F5F71 		.ascii	"io_queue_t\000"
 7638      75657565 
 7638      5F7400
 7639              	.LASF87:
 7640 011a 42445452 		.ascii	"BDTR\000"
 7640      00
 7641              	.LASF152:
 7642 011f 66726571 		.ascii	"frequency\000"
 7642      75656E63 
ARM GAS  /tmp/ccGrz3Xa.s 			page 197


 7642      7900
 7643              	.LASF136:
 7644 0129 50574D5F 		.ascii	"PWM_READY\000"
 7644      52454144 
 7644      5900
 7645              	.LASF171:
 7646 0133 72656164 		.ascii	"readt\000"
 7646      7400
 7647              	.LASF194:
 7648 0139 70776D53 		.ascii	"pwmStart\000"
 7648      74617274 
 7648      00
 7649              	.LASF84:
 7650 0142 43434D52 		.ascii	"CCMR1\000"
 7650      3100
 7651              	.LASF85:
 7652 0148 43434D52 		.ascii	"CCMR2\000"
 7652      3200
 7653              	.LASF89:
 7654 014e 43434D52 		.ascii	"CCMR3\000"
 7654      3300
 7655              	.LASF1:
 7656 0154 7369676E 		.ascii	"signed char\000"
 7656      65642063 
 7656      68617200 
 7657              	.LASF73:
 7658 0160 42535252 		.ascii	"BSRR\000"
 7658      00
 7659              	.LASF191:
 7660 0165 63685379 		.ascii	"chSysInit\000"
 7660      73496E69 
 7660      7400
 7661              	.LASF76:
 7662 016f 47545052 		.ascii	"GTPR\000"
 7662      00
 7663              	.LASF186:
 7664 0174 506F7346 		.ascii	"PosFx\000"
 7664      7800
 7665              	.LASF145:
 7666 017a 70776D6D 		.ascii	"pwmmode_t\000"
 7666      6F64655F 
 7666      7400
 7667              	.LASF182:
 7668 0184 50574D44 		.ascii	"PWMD1\000"
 7668      3100
 7669              	.LASF70:
 7670 018a 76746C69 		.ascii	"vtlist\000"
 7670      737400
 7671              	.LASF199:
 7672 0191 63685468 		.ascii	"chThdCreateStatic\000"
 7672      64437265 
 7672      61746553 
 7672      74617469 
 7672      6300
 7673              	.LASF40:
 7674 01a3 6D736771 		.ascii	"msgqueue\000"
 7674      75657565 
ARM GAS  /tmp/ccGrz3Xa.s 			page 198


 7674      00
 7675              	.LASF36:
 7676 01ac 73746174 		.ascii	"state\000"
 7676      6500
 7677              	.LASF142:
 7678 01b2 6368616E 		.ascii	"channels\000"
 7678      6E656C73 
 7678      00
 7679              	.LASF9:
 7680 01bb 6C6F6E67 		.ascii	"long int\000"
 7680      20696E74 
 7680      00
 7681              	.LASF21:
 7682 01c4 74737461 		.ascii	"tstate_t\000"
 7682      74655F74 
 7682      00
 7683              	.LASF0:
 7684 01cd 756E7369 		.ascii	"unsigned int\000"
 7684      676E6564 
 7684      20696E74 
 7684      00
 7685              	.LASF86:
 7686 01da 43434552 		.ascii	"CCER\000"
 7686      00
 7687              	.LASF12:
 7688 01df 6C6F6E67 		.ascii	"long long int\000"
 7688      206C6F6E 
 7688      6720696E 
 7688      7400
 7689              	.LASF122:
 7690 01ed 715F6275 		.ascii	"q_buffer\000"
 7690      66666572 
 7690      00
 7691              	.LASF187:
 7692 01f6 506F7346 		.ascii	"PosFy\000"
 7692      7900
 7693              	.LASF16:
 7694 01fc 75696E74 		.ascii	"uint16_t\000"
 7694      31365F74 
 7694      00
 7695              	.LASF127:
 7696 0205 715F6C69 		.ascii	"q_link\000"
 7696      6E6B00
 7697              	.LASF173:
 7698 020c 70776D63 		.ascii	"pwmc1cb\000"
 7698      31636200 
 7699              	.LASF110:
 7700 0214 77666C61 		.ascii	"wflags\000"
 7700      677300
 7701              	.LASF33:
 7702 021b 6F6C6465 		.ascii	"older\000"
 7702      7200
 7703              	.LASF183:
 7704 0221 50574D44 		.ascii	"PWMD3\000"
 7704      3300
 7705              	.LASF55:
 7706 0227 63757272 		.ascii	"current\000"
ARM GAS  /tmp/ccGrz3Xa.s 			page 199


 7706      656E7400 
 7707              	.LASF10:
 7708 022f 5F5F7569 		.ascii	"__uint32_t\000"
 7708      6E743332 
 7708      5F7400
 7709              	.LASF78:
 7710 023a 72656761 		.ascii	"regarm_t\000"
 7710      726D5F74 
 7710      00
 7711              	.LASF39:
 7712 0243 77616974 		.ascii	"waiting\000"
 7712      696E6700 
 7713              	.LASF128:
 7714 024b 716E6F74 		.ascii	"qnotify_t\000"
 7714      6966795F 
 7714      7400
 7715              	.LASF105:
 7716 0255 6D757465 		.ascii	"mutex_t\000"
 7716      785F7400 
 7717              	.LASF185:
 7718 025d 74656D70 		.ascii	"temp\000"
 7718      00
 7719              	.LASF117:
 7720 0262 42617365 		.ascii	"BaseSequentialStream\000"
 7720      53657175 
 7720      656E7469 
 7720      616C5374 
 7720      7265616D 
 7721              	.LASF112:
 7722 0277 6576656E 		.ascii	"event_source_t\000"
 7722      745F736F 
 7722      75726365 
 7722      5F7400
 7723              	.LASF27:
 7724 0286 636E745F 		.ascii	"cnt_t\000"
 7724      7400
 7725              	.LASF163:
 7726 028c 75736172 		.ascii	"usart\000"
 7726      7400
 7727              	.LASF202:
 7728 0292 2F686F6D 		.ascii	"/home/jerson/ChibiOS/rt_stm32f100rb_onion\000"
 7728      652F6A65 
 7728      72736F6E 
 7728      2F436869 
 7728      62694F53 
 7729              	.LASF197:
 7730 02bc 70776D45 		.ascii	"pwmEnableChannelNotification\000"
 7730      6E61626C 
 7730      65436861 
 7730      6E6E656C 
 7730      4E6F7469 
 7731              	.LASF167:
 7732 02d9 53657269 		.ascii	"SerialDriverVMT\000"
 7732      616C4472 
 7732      69766572 
 7732      564D5400 
 7733              	.LASF97:
ARM GAS  /tmp/ccGrz3Xa.s 			page 200


 7734 02e9 77747365 		.ascii	"wtsemp\000"
 7734      6D7000
 7735              	.LASF175:
 7736 02f0 70776D70 		.ascii	"pwmp2cb\000"
 7736      32636200 
 7737              	.LASF161:
 7738 02f8 69717565 		.ascii	"iqueue\000"
 7738      756500
 7739              	.LASF95:
 7740 02ff 77747472 		.ascii	"wttrp\000"
 7740      7000
 7741              	.LASF75:
 7742 0305 4750494F 		.ascii	"GPIO_TypeDef\000"
 7742      5F547970 
 7742      65446566 
 7742      00
 7743              	.LASF190:
 7744 0312 68616C49 		.ascii	"halInit\000"
 7744      6E697400 
 7745              	.LASF47:
 7746 031a 63685F74 		.ascii	"ch_thread\000"
 7746      68726561 
 7746      6400
 7747              	.LASF169:
 7748 0324 67657474 		.ascii	"gett\000"
 7748      00
 7749              	.LASF34:
 7750 0329 6E616D65 		.ascii	"name\000"
 7750      00
 7751              	.LASF30:
 7752 032e 71756575 		.ascii	"queue\000"
 7752      6500
 7753              	.LASF44:
 7754 0334 6D706F6F 		.ascii	"mpool\000"
 7754      6C00
 7755              	.LASF160:
 7756 033a 6576656E 		.ascii	"event\000"
 7756      7400
 7757              	.LASF82:
 7758 0340 534D4352 		.ascii	"SMCR\000"
 7758      00
 7759              	.LASF71:
 7760 0345 6D61696E 		.ascii	"mainthread\000"
 7760      74687265 
 7760      616400
 7761              	.LASF24:
 7762 0350 6D73675F 		.ascii	"msg_t\000"
 7762      7400
 7763              	.LASF74:
 7764 0356 4C434B52 		.ascii	"LCKR\000"
 7764      00
 7765              	.LASF41:
 7766 035b 6570656E 		.ascii	"epending\000"
 7766      64696E67 
 7766      00
 7767              	.LASF67:
 7768 0364 63685F73 		.ascii	"ch_system_t\000"
ARM GAS  /tmp/ccGrz3Xa.s 			page 201


 7768      79737465 
 7768      6D5F7400 
 7769              	.LASF150:
 7770 0370 63616C6C 		.ascii	"callback\000"
 7770      6261636B 
 7770      00
 7771              	.LASF77:
 7772 0379 55534152 		.ascii	"USART_TypeDef\000"
 7772      545F5479 
 7772      70654465 
 7772      6600
 7773              	.LASF170:
 7774 0387 77726974 		.ascii	"writet\000"
 7774      657400
 7775              	.LASF91:
 7776 038e 73746D33 		.ascii	"stm32_tim_t\000"
 7776      325F7469 
 7776      6D5F7400 
 7777              	.LASF189:
 7778 039a 506F7343 		.ascii	"PosCy\000"
 7778      7900
 7779              	.LASF54:
 7780 03a0 63685F72 		.ascii	"ch_ready_list\000"
 7780      65616479 
 7780      5F6C6973 
 7780      7400
 7781              	.LASF25:
 7782 03ae 6576656E 		.ascii	"eventmask_t\000"
 7782      746D6173 
 7782      6B5F7400 
 7783              	.LASF165:
 7784 03ba 73706565 		.ascii	"speed\000"
 7784      6400
 7785              	.LASF174:
 7786 03c0 70776D70 		.ascii	"pwmp\000"
 7786      00
 7787              	.LASF79:
 7788 03c5 73746B61 		.ascii	"stkalign_t\000"
 7788      6C69676E 
 7788      5F7400
 7789              	.LASF177:
 7790 03d0 54687265 		.ascii	"Thread2\000"
 7790      61643200 
 7791              	.LASF115:
 7792 03d8 77726974 		.ascii	"write\000"
 7792      6500
 7793              	.LASF129:
 7794 03de 696E7075 		.ascii	"input_queue_t\000"
 7794      745F7175 
 7794      6575655F 
 7794      7400
 7795              	.LASF168:
 7796 03ec 70757474 		.ascii	"putt\000"
 7796      00
 7797              	.LASF119:
 7798 03f1 696F5F71 		.ascii	"io_queue\000"
 7798      75657565 
ARM GAS  /tmp/ccGrz3Xa.s 			page 202


 7798      00
 7799              	.LASF72:
 7800 03fa 73697A65 		.ascii	"sizetype\000"
 7800      74797065 
 7800      00
 7801              	.LASF45:
 7802 0403 74687265 		.ascii	"thread_reference_t\000"
 7802      61645F72 
 7802      65666572 
 7802      656E6365 
 7802      5F7400
 7803              	.LASF132:
 7804 0416 696F6D6F 		.ascii	"iomode_t\000"
 7804      64655F74 
 7804      00
 7805              	.LASF62:
 7806 041f 63685F76 		.ascii	"ch_virtual_timers_list\000"
 7806      69727475 
 7806      616C5F74 
 7806      696D6572 
 7806      735F6C69 
 7807              	.LASF121:
 7808 0436 715F636F 		.ascii	"q_counter\000"
 7808      756E7465 
 7808      7200
 7809              	.LASF130:
 7810 0440 6F757470 		.ascii	"output_queue_t\000"
 7810      75745F71 
 7810      75657565 
 7810      5F7400
 7811              	.LASF124:
 7812 044f 715F7772 		.ascii	"q_wrptr\000"
 7812      70747200 
 7813              	.LASF80:
 7814 0457 706F7274 		.ascii	"port_context\000"
 7814      5F636F6E 
 7814      74657874 
 7814      00
 7815              	.LASF31:
 7816 0464 7072696F 		.ascii	"prio\000"
 7816      00
 7817              	.LASF178:
 7818 0469 70776D63 		.ascii	"pwmcfg\000"
 7818      666700
 7819              	.LASF192:
 7820 0470 63685468 		.ascii	"chThdSleep\000"
 7820      64536C65 
 7820      657000
 7821              	.LASF166:
 7822 047b 53657269 		.ascii	"SerialConfig\000"
 7822      616C436F 
 7822      6E666967 
 7822      00
 7823              	.LASF13:
 7824 0488 5F5F7569 		.ascii	"__uint64_t\000"
 7824      6E743634 
 7824      5F7400
ARM GAS  /tmp/ccGrz3Xa.s 			page 203


 7825              	.LASF108:
 7826 0493 6C697374 		.ascii	"listener\000"
 7826      656E6572 
 7826      00
 7827              	.LASF144:
 7828 049c 70776D63 		.ascii	"pwmcallback_t\000"
 7828      616C6C62 
 7828      61636B5F 
 7828      7400
 7829              	.LASF22:
 7830 04aa 74726566 		.ascii	"trefs_t\000"
 7830      735F7400 
 7831              	.LASF81:
 7832 04b2 706F7274 		.ascii	"port_intctx\000"
 7832      5F696E74 
 7832      63747800 
 7833              	.LASF57:
 7834 04be 76697274 		.ascii	"virtual_timer_t\000"
 7834      75616C5F 
 7834      74696D65 
 7834      725F7400 
 7835              	.LASF156:
 7836 04ce 53445F53 		.ascii	"SD_STOP\000"
 7836      544F5000 
 7837              	.LASF23:
 7838 04d6 74707269 		.ascii	"tprio_t\000"
 7838      6F5F7400 
 7839              	.LASF125:
 7840 04de 715F7264 		.ascii	"q_rdptr\000"
 7840      70747200 
 7841              	.LASF65:
 7842 04e6 63685F73 		.ascii	"ch_system_debug\000"
 7842      79737465 
 7842      6D5F6465 
 7842      62756700 
 7843              	.LASF113:
 7844 04f6 5F426F6F 		.ascii	"_Bool\000"
 7844      6C00
 7845              	.LASF17:
 7846 04fc 696E7433 		.ascii	"int32_t\000"
 7846      325F7400 
 7847              	.LASF4:
 7848 0504 756E7369 		.ascii	"unsigned char\000"
 7848      676E6564 
 7848      20636861 
 7848      7200
 7849              	.LASF135:
 7850 0512 50574D5F 		.ascii	"PWM_STOP\000"
 7850      53544F50 
 7850      00
 7851              	.LASF38:
 7852 051b 72656673 		.ascii	"refs\000"
 7852      00
 7853              	.LASF5:
 7854 0520 73686F72 		.ascii	"short int\000"
 7854      7420696E 
 7854      7400
ARM GAS  /tmp/ccGrz3Xa.s 			page 204


 7855              	.LASF63:
 7856 052a 6C617374 		.ascii	"lasttime\000"
 7856      74696D65 
 7856      00
 7857              	.LASF184:
 7858 0533 7461626C 		.ascii	"table\000"
 7858      6500
 7859              	.LASF99:
 7860 0539 65776D61 		.ascii	"ewmask\000"
 7860      736B00
 7861              	.LASF162:
 7862 0540 6F717565 		.ascii	"oqueue\000"
 7862      756500
 7863              	.LASF147:
 7864 0547 70776D63 		.ascii	"pwmchnmsk_t\000"
 7864      686E6D73 
 7864      6B5F7400 
 7865              	.LASF68:
 7866 0553 63685F73 		.ascii	"ch_system\000"
 7866      79737465 
 7866      6D00
 7867              	.LASF180:
 7868 055d 77615468 		.ascii	"waThread2\000"
 7868      72656164 
 7868      3200
 7869              	.LASF50:
 7870 0567 74687265 		.ascii	"threads_queue_t\000"
 7870      6164735F 
 7870      71756575 
 7870      655F7400 
 7871              	.LASF100:
 7872 0577 63685F73 		.ascii	"ch_semaphore\000"
 7872      656D6170 
 7872      686F7265 
 7872      00
 7873              	.LASF90:
 7874 0584 43435852 		.ascii	"CCXR\000"
 7874      00
 7875              	.LASF155:
 7876 0589 53445F55 		.ascii	"SD_UNINIT\000"
 7876      4E494E49 
 7876      5400
 7877              	.LASF109:
 7878 0593 6576656E 		.ascii	"events\000"
 7878      747300
 7879              	.LASF114:
 7880 059a 42617365 		.ascii	"BaseSequentialStreamVMT\000"
 7880      53657175 
 7880      656E7469 
 7880      616C5374 
 7880      7265616D 
 7881              	.LASF98:
 7882 05b2 77746D74 		.ascii	"wtmtxp\000"
 7882      787000
 7883              	.LASF158:
 7884 05b9 73647374 		.ascii	"sdstate_t\000"
 7884      6174655F 
ARM GAS  /tmp/ccGrz3Xa.s 			page 205


 7884      7400
 7885              	.LASF141:
 7886 05c3 656E6162 		.ascii	"enabled\000"
 7886      6C656400 
 7887              	.LASF102:
 7888 05cb 6F776E65 		.ascii	"owner\000"
 7888      7200
 7889              	.LASF159:
 7890 05d1 53657269 		.ascii	"SerialDriver\000"
 7890      616C4472 
 7890      69766572 
 7890      00
 7891              	.LASF43:
 7892 05de 7265616C 		.ascii	"realprio\000"
 7892      7072696F 
 7892      00
 7893              	.LASF11:
 7894 05e7 6C6F6E67 		.ascii	"long unsigned int\000"
 7894      20756E73 
 7894      69676E65 
 7894      6420696E 
 7894      7400
 7895              	.LASF35:
 7896 05f9 77616261 		.ascii	"wabase\000"
 7896      736500
 7897              	.LASF116:
 7898 0600 72656164 		.ascii	"read\000"
 7898      00
 7899              	.LASF103:
 7900 0605 63686172 		.ascii	"char\000"
 7900      00
 7901              	.LASF6:
 7902 060a 5F5F7569 		.ascii	"__uint16_t\000"
 7902      6E743136 
 7902      5F7400
 7903              	.LASF149:
 7904 0615 6D6F6465 		.ascii	"mode\000"
 7904      00
 7905              	.LASF188:
 7906 061a 506F7343 		.ascii	"PosCx\000"
 7906      7800
 7907              	.LASF139:
 7908 0620 636F6E66 		.ascii	"config\000"
 7908      696700
 7909              	.LASF198:
 7910 0627 73645374 		.ascii	"sdStart\000"
 7910      61727400 
 7911              	.LASF88:
 7912 062f 444D4152 		.ascii	"DMAR\000"
 7912      00
 7913              	.LASF29:
 7914 0634 74687265 		.ascii	"thread_t\000"
 7914      61645F74 
 7914      00
 7915              	.LASF28:
 7916 063d 73797374 		.ascii	"systime_t\000"
 7916      696D655F 
ARM GAS  /tmp/ccGrz3Xa.s 			page 206


 7916      7400
 7917              	.LASF56:
 7918 0647 76746675 		.ascii	"vtfunc_t\000"
 7918      6E635F74 
 7918      00
 7919              	.LASF195:
 7920 0650 70776D45 		.ascii	"pwmEnablePeriodicNotification\000"
 7920      6E61626C 
 7920      65506572 
 7920      696F6469 
 7920      634E6F74 
 7921              	.LASF140:
 7922 066e 70657269 		.ascii	"period\000"
 7922      6F6400
 7923              	.LASF66:
 7924 0675 70616E69 		.ascii	"panic_msg\000"
 7924      635F6D73 
 7924      6700
 7925              	.LASF133:
 7926 067f 696F706F 		.ascii	"ioportid_t\000"
 7926      72746964 
 7926      5F7400
 7927              	.LASF106:
 7928 068a 6576656E 		.ascii	"event_listener_t\000"
 7928      745F6C69 
 7928      7374656E 
 7928      65725F74 
 7928      00
 7929              	.LASF7:
 7930 069b 73686F72 		.ascii	"short unsigned int\000"
 7930      7420756E 
 7930      7369676E 
 7930      65642069 
 7930      6E7400
 7931              	.LASF193:
 7932 06ae 5F70616C 		.ascii	"_pal_lld_setgroupmode\000"
 7932      5F6C6C64 
 7932      5F736574 
 7932      67726F75 
 7932      706D6F64 
 7933              	.LASF58:
 7934 06c4 63685F76 		.ascii	"ch_virtual_timer\000"
 7934      69727475 
 7934      616C5F74 
 7934      696D6572 
 7934      00
 7935              	.LASF151:
 7936 06d5 50574D43 		.ascii	"PWMChannelConfig\000"
 7936      68616E6E 
 7936      656C436F 
 7936      6E666967 
 7936      00
 7937              	.LASF203:
 7938 06e6 63685265 		.ascii	"chRegSetThreadName\000"
 7938      67536574 
 7938      54687265 
 7938      61644E61 
ARM GAS  /tmp/ccGrz3Xa.s 			page 207


 7938      6D6500
 7939              	.LASF157:
 7940 06f9 53445F52 		.ascii	"SD_READY\000"
 7940      45414459 
 7940      00
 7941              	.LASF32:
 7942 0702 6E657765 		.ascii	"newer\000"
 7942      7200
 7943              	.LASF26:
 7944 0708 6576656E 		.ascii	"eventflags_t\000"
 7944      74666C61 
 7944      67735F74 
 7944      00
 7945              	.LASF201:
 7946 0715 6D61696E 		.ascii	"main.c\000"
 7946      2E6300
 7947              	.LASF154:
 7948 071c 50574D43 		.ascii	"PWMConfig\000"
 7948      6F6E6669 
 7948      6700
 7949              	.LASF123:
 7950 0726 715F746F 		.ascii	"q_top\000"
 7950      7000
 7951              	.LASF101:
 7952 072c 63685F6D 		.ascii	"ch_mutex\000"
 7952      75746578 
 7952      00
 7953              	.LASF126:
 7954 0735 715F6E6F 		.ascii	"q_notify\000"
 7954      74696679 
 7954      00
 7955              	.LASF69:
 7956 073e 726C6973 		.ascii	"rlist\000"
 7956      7400
 7957              	.LASF111:
 7958 0744 6576656E 		.ascii	"event_source\000"
 7958      745F736F 
 7958      75726365 
 7958      00
 7959              	.LASF15:
 7960 0751 75696E74 		.ascii	"uint8_t\000"
 7960      385F7400 
 7961              	.LASF138:
 7962 0759 50574D44 		.ascii	"PWMDriver\000"
 7962      72697665 
 7962      7200
 7963              	.LASF200:
 7964 0763 474E5520 		.ascii	"GNU C 4.8.2 -mcpu=cortex-m3 -mno-thumb-interwork -m"
 7964      4320342E 
 7964      382E3220 
 7964      2D6D6370 
 7964      753D636F 
 7965 0796 7468756D 		.ascii	"thumb -ggdb -O2 -fomit-frame-pointer -falign-functi"
 7965      62202D67 
 7965      67646220 
 7965      2D4F3220 
 7965      2D666F6D 
ARM GAS  /tmp/ccGrz3Xa.s 			page 208


 7966 07c9 6F6E733D 		.ascii	"ons=16 -ffunction-sections -fdata-sections -fno-com"
 7966      3136202D 
 7966      6666756E 
 7966      6374696F 
 7966      6E2D7365 
 7967 07fc 6D6F6E20 		.ascii	"mon -flto\000"
 7967      2D666C74 
 7967      6F00
 7968              	.LASF37:
 7969 0806 666C6167 		.ascii	"flags\000"
 7969      7300
 7970              	.LASF137:
 7971 080c 70776D73 		.ascii	"pwmstate_t\000"
 7971      74617465 
 7971      5F7400
 7972              	.LASF179:
 7973 0817 70776D63 		.ascii	"pwmcfg1\000"
 7973      66673100 
 7974              	.LASF148:
 7975 081f 70776D63 		.ascii	"pwmcnt_t\000"
 7975      6E745F74 
 7975      00
 7976              	.LASF94:
 7977 0828 77746F62 		.ascii	"wtobjp\000"
 7977      6A7000
 7978              	.LASF46:
 7979 082f 74687265 		.ascii	"threads_list_t\000"
 7979      6164735F 
 7979      6C697374 
 7979      5F7400
 7980              	.LASF20:
 7981 083e 746D6F64 		.ascii	"tmode_t\000"
 7981      655F7400 
 7982              	.LASF143:
 7983 0846 636C6F63 		.ascii	"clock\000"
 7983      6B00
 7984              	.LASF204:
 7985 084c 6D61696E 		.ascii	"main\000"
 7985      00
 7986              	.LASF42:
 7987 0851 6D74786C 		.ascii	"mtxlist\000"
 7987      69737400 
 7988              	.LASF134:
 7989 0859 50574D5F 		.ascii	"PWM_UNINIT\000"
 7989      554E494E 
 7989      495400
 7990              	.LASF196:
 7991 0864 70776D45 		.ascii	"pwmEnableChannel\000"
 7991      6E61626C 
 7991      65436861 
 7991      6E6E656C 
 7991      00
 7992              	.LASF18:
 7993 0875 75696E74 		.ascii	"uint32_t\000"
 7993      33325F74 
 7993      00
 7994              	.LASF107:
ARM GAS  /tmp/ccGrz3Xa.s 			page 209


 7995 087e 6576656E 		.ascii	"event_listener\000"
 7995      745F6C69 
 7995      7374656E 
 7995      657200
 7996              	.LASF153:
 7997 088d 64696572 		.ascii	"dier\000"
 7997      00
 7998              	.LASF205:
 7999 0892 63687072 		.ascii	"chprintf\000"
 7999      696E7466 
 7999      00
 8000              		.comm	__gnu_lto_v1,1,1
 8001              		.ident	"GCC: (4.8.2-14ubuntu1+6) 4.8.2"
ARM GAS  /tmp/ccGrz3Xa.s 			page 210


DEFINED SYMBOLS
                            *ABS*:0000000000000000 main.c
     /tmp/ccGrz3Xa.s:976    .text.pwmpcb:0000000000000000 $t
     /tmp/ccGrz3Xa.s:981    .text.pwmpcb:0000000000000000 pwmpcb
     /tmp/ccGrz3Xa.s:1000   .text.pwmc1cb:0000000000000000 $t
     /tmp/ccGrz3Xa.s:1005   .text.pwmc1cb:0000000000000000 pwmc1cb
     /tmp/ccGrz3Xa.s:1023   .text.pwmp2cb:0000000000000000 $t
     /tmp/ccGrz3Xa.s:1028   .text.pwmp2cb:0000000000000000 pwmp2cb
     /tmp/ccGrz3Xa.s:1046   .text.pwmc2cb:0000000000000000 $t
     /tmp/ccGrz3Xa.s:1051   .text.pwmc2cb:0000000000000000 pwmc2cb
     /tmp/ccGrz3Xa.s:1069   .text.Thread2:0000000000000000 $t
     /tmp/ccGrz3Xa.s:1074   .text.Thread2:0000000000000000 Thread2
     /tmp/ccGrz3Xa.s:2936   .rodata.str1.4:0000000000000000 .LC0
     /tmp/ccGrz3Xa.s:2939   .rodata.str1.4:000000000000000c .LC1
     /tmp/ccGrz3Xa.s:1116   .text.startup.main:0000000000000000 $t
     /tmp/ccGrz3Xa.s:1122   .text.startup.main:0000000000000000 main
     /tmp/ccGrz3Xa.s:2949   .data.pwmcfg1:0000000000000000 .LANCHOR0
     /tmp/ccGrz3Xa.s:2896   .data.pwmcfg:0000000000000000 .LANCHOR1
     /tmp/ccGrz3Xa.s:2922   .bss.table:0000000000000000 .LANCHOR3
     /tmp/ccGrz3Xa.s:2974   .data.s:0000000000000000 .LANCHOR6
     /tmp/ccGrz3Xa.s:2889   .bss.waThread2:0000000000000000 .LANCHOR2
     /tmp/ccGrz3Xa.s:2915   .bss.PosFx:0000000000000000 .LANCHOR4
     /tmp/ccGrz3Xa.s:2981   .bss.PosCx:0000000000000000 .LANCHOR8
     /tmp/ccGrz3Xa.s:2929   .bss.PosFy:0000000000000000 .LANCHOR5
     /tmp/ccGrz3Xa.s:2968   .bss.PosCy:0000000000000000 .LANCHOR7
     /tmp/ccGrz3Xa.s:1471   .text.startup.main:00000000000002d2 $d
     /tmp/ccGrz3Xa.s:1481   .text.startup.main:00000000000002e2 $t
     /tmp/ccGrz3Xa.s:2977   .data.s:0000000000000000 s
     /tmp/ccGrz3Xa.s:2971   .bss.PosCy:0000000000000000 PosCy
     /tmp/ccGrz3Xa.s:2984   .bss.PosCx:0000000000000000 PosCx
     /tmp/ccGrz3Xa.s:2932   .bss.PosFy:0000000000000000 PosFy
     /tmp/ccGrz3Xa.s:2918   .bss.PosFx:0000000000000000 PosFx
     /tmp/ccGrz3Xa.s:2945   .bss.temp:0000000000000000 temp
     /tmp/ccGrz3Xa.s:2925   .bss.table:0000000000000000 table
     /tmp/ccGrz3Xa.s:2888   .bss.waThread2:0000000000000000 $d
     /tmp/ccGrz3Xa.s:2892   .bss.waThread2:0000000000000000 waThread2
     /tmp/ccGrz3Xa.s:2895   .data.pwmcfg:0000000000000000 $d
     /tmp/ccGrz3Xa.s:2899   .data.pwmcfg:0000000000000000 pwmcfg
     /tmp/ccGrz3Xa.s:2914   .bss.PosFx:0000000000000000 $d
     /tmp/ccGrz3Xa.s:2921   .bss.table:0000000000000000 $d
     /tmp/ccGrz3Xa.s:2928   .bss.PosFy:0000000000000000 $d
     /tmp/ccGrz3Xa.s:2935   .rodata.str1.4:0000000000000000 $d
     /tmp/ccGrz3Xa.s:2942   .bss.temp:0000000000000000 $d
     /tmp/ccGrz3Xa.s:2948   .data.pwmcfg1:0000000000000000 $d
     /tmp/ccGrz3Xa.s:2952   .data.pwmcfg1:0000000000000000 pwmcfg1
     /tmp/ccGrz3Xa.s:2967   .bss.PosCy:0000000000000000 $d
     /tmp/ccGrz3Xa.s:2980   .bss.PosCx:0000000000000000 $d
                            *COM*:0000000000000001 __gnu_lto_v1
                     .debug_frame:0000000000000010 $d

UNDEFINED SYMBOLS
ch
SD2
chprintf
chThdSleep
halInit
chSysInit
ARM GAS  /tmp/ccGrz3Xa.s 			page 211


_pal_lld_setgroupmode
PWMD1
pwmStart
pwmEnablePeriodicNotification
pwmEnableChannel
pwmEnableChannelNotification
PWMD3
sdStart
chThdCreateStatic
