ARM GAS  /tmp/ccnYHqV1.s 			page 1


   1              		.syntax unified
   2              		.cpu cortex-m3
   3              		.fpu softvfp
   4              		.eabi_attribute 20, 1
   5              		.eabi_attribute 21, 1
   6              		.eabi_attribute 23, 3
   7              		.eabi_attribute 24, 1
   8              		.eabi_attribute 25, 1
   9              		.eabi_attribute 26, 1
  10              		.eabi_attribute 30, 2
  11              		.eabi_attribute 34, 1
  12              		.eabi_attribute 18, 4
  13              		.thumb
  14              		.file	"memstreams.c"
  15              		.text
  16              	.Ltext0:
  17              		.section	.gnu.lto_.jmpfuncs.7dd04ffb3294d428,"",%progbits
  18 0000 789C6362 		.ascii	"x\234cb`b\300\006T\2404+\0033##\023;33\003\003c\031"
  18      6062C006 
  18      54A0342B 
  18      03332323 
  18      133B3333 
  19 0018 23588899 		.ascii	"#X\210\231\035\310\201\363Y\370\031\000\032\264\001"
  19      1DC881F3 
  19      59F81900 
  19      1AB401
  20 0027 55       		.ascii	"U"
  21              		.text
  22              		.section	.gnu.lto_.inline.7dd04ffb3294d428,"",%progbits
  23 0000 789C6362 		.ascii	"x\234cb`b\300\006\032\031!4+\003\003/\017#3\003\220"
  23      6062C006 
  23      1A192134 
  23      2B03032F 
  23      0F233303 
  24 0015 CBEC0026 		.ascii	"\313\354\000&\023\300\244\002\027\333\004=\006\216\013"
  24      13C0A402 
  24      17DB043D 
  24      068E0B
  25 0024 7A4C0C8C 		.ascii	"zL\014\214/\330Y $\210\340\00039\030X\026\310\36300"
  25      2FD85920 
  25      2488E000 
  25      33391858 
  25      16C8F330 
  26 0039 DE601760 		.ascii	"\336`\027`\002\223\014L\033\370%@\00622\360pC\315\203"
  26      02930C4C 
  26      1BF82540 
  26      063232F0 
  26      7043CD83 
  27 004d 98D4C008 		.ascii	"\230\324\300\0105\220\271C\234\201\375\207\032\026\003"
  27      3590B943 
  27      9C81FD87 
  27      1A1603
  28 005c 996788E3 		.ascii	"\231g\210\3436\220\211AP\222\221\005\305@&F\210M@S\271"
  28      36908941 
  28      50929105 
  28      C5402646 
  28      884D4053 
ARM GAS  /tmp/ccnYHqV1.s 			page 2


  29 0071 81DA1838 		.ascii	"\201\332\0308>\340t&\323\005~\036\220\3212 \256\002"
  29      3EE07426 
  29      D3057E1E 
  29      90D13220 
  29      AE02
  30 0083 58500124 		.ascii	"XP\001$\250\0012\201\205\027h\304\004?\020dF\330\002"
  30      A8013281 
  30      851768C4 
  30      043F1064 
  30      46D802
  31 0096 0D061A58 		.ascii	"\015\006\032X\302\302\300\301\316\310\300\304\332\241"
  31      C2C2C0C1 
  31      CEC8C0C4 
  31      DAA1
  32 00a4 CEC0BDC2 		.ascii	"\316\300\275\302\015\0221\000-\3633\312"
  32      0D123100 
  32      2DF333CA 
  33              		.text
  34              		.section	.gnu.lto_.pureconst.7dd04ffb3294d428,"",%progbits
  35 0000 789C6362 		.ascii	"x\234cb`b\340f\200\000V\006)F)&)f)\026)\000\004)\000"
  35      6062E066 
  35      80005606 
  35      29462926 
  35      29662916 
  36 0019 A1       		.ascii	"\241"
  37              		.text
  38              		.section	.gnu.lto__put.7dd04ffb3294d428,"",%progbits
  39 0000 789C8D92 		.ascii	"x\234\215\222\301K\033A\024\306\3377\263\273IL\254\036"
  39      C14B1B41 
  39      14C6DF37 
  39      B3BB494C 
  39      AC1E
  40 0012 BC789314 		.ascii	"\274x\223\024\204*d\017\375+zo@\217k\220\270\220\245"
  40      842A640F 
  40      FD2B7A6F 
  40      408F6B90 
  40      B890A5
  41 0025 A5E93D93 		.ascii	"\245\351=\223DJ\301K(\202\266\0254=\364 \242\226^<\346"
  41      444AC14B 
  41      2882B615 
  41      343DF420 
  41      A2965E3C 
  42 003a 20A5A296 		.ascii	" \245\242\226x\264\247@@/\275\364\326S\343{\263\335"
  42      78B4A740 
  42      402FBDF4 
  42      D653E37B 
  42      B3DD
  43 004c 2D48B10E 		.ascii	"-H\261\016\354\233\331\367\336\357\233\367fF\221\242"
  43      EC9BD9F7 
  43      DEEF9BF7 
  43      664691A2 
  44 005c DBE3317F 		.ascii	"\333\3431\177\253\354~\3043\\\202\352|#jf\225r\266A"
  44      ABEC7EC4 
  44      335C82EA 
  44      7C236A66 
  44      9572B641 
  45 0070 664CFF3C 		.ascii	"fL\377<#2\005\015'\366;\200,\010\324P\332Ac\021V\345"
ARM GAS  /tmp/ccnYHqV1.s 			page 3


  45      2332050D 
  45      27F63B80 
  45      2C08D450 
  45      DA416311 
  46 0086 40F506A3 		.ascii	"@\365\006\243\321\376\372\253\275=\274U\017@!H#\002"
  46      D1FEFAAB 
  46      BD3DBC55 
  46      0F402148 
  46      2302
  47 0098 B9BC8227 		.ascii	"\271\274\202'&\303Fe\305\3448\200\274\370\012b\030w"
  47      26C34665 
  47      C5E43880 
  47      BCF80A62 
  47      1877
  48 00aa 69D598CE 		.ascii	"i\325\230\316L\221\272\306\274\351m|Y\2376;\255\216"
  48      4C91BAC6 
  48      BCE96D7C 
  48      599F363B 
  48      AD8E
  49 00bc F93D1A21 		.ascii	"\371=\032!\204V4\013\252\200\026\370\307\231\261\223"
  49      8456340B 
  49      AA8016F8 
  49      C799B193 
  50 00cc EBDCEEA3 		.ascii	"\353\334\356\243b\013y\312V\352+C\311\254OH\005\350"
  50      620B79CA 
  50      56EA2B43 
  50      C9AC4F48 
  50      05E8
  51 00de 725F013E 		.ascii	"r_\001>\240HUh\242sj}?\032\366\021\007\252p\347i.\204"
  51      A0485568 
  51      A2736A7D 
  51      3F1AF611 
  51      07AA70E7 
  52 00f5 F79EDEB1 		.ascii	"\367\236\336\261p\206Sd\003mE\227\220\310\013\324\317"
  52      70865364 
  52      036D4597 
  52      90C80BD4 
  52      CF
  53 0106 27887717 		.ascii	"'\210w\027\2220_\351\370\2729\236\356\302\324\337j\313"
  53      92305FE9 
  53      F8BA399E 
  53      EEC2D4DF 
  53      6ACB
  54 0118 9CCD27AB 		.ascii	"\234\315'\253E\366\327\260\227\326\222\261\302\352\337"
  54      45F6D7B0 
  54      97D692B1 
  54      C2EADF
  55 0127 C22AADA5 		.ascii	"\302*\255\245\275\326\376\2302\331\252dz\266\306\323"
  55      BDD6FE98 
  55      32D9AA64 
  55      7AB6C6D3 
  56 0137 C389D8CD 		.ascii	"\303\211\330\315\012McL&\224pVTb\272\212\\\334\314\346"
  56      0A4D634C 
  56      26947056 
  56      5462BA8A 
  56      5CDCCCE6 
  57 014b D52055C8 		.ascii	"\325 U\310\317\323.'O\376\267%\336\371\265N\250\002"
ARM GAS  /tmp/ccnYHqV1.s 			page 4


  57      CFD32E27 
  57      4FFEB725 
  57      DEF9B54E 
  57      A802
  58 015d 8392E421 		.ascii	"\203\222\344!>\237'q\340~Z\214''\341\330\233\272\340"
  58      3E9F2771 
  58      E07E5A8C 
  58      2727E1D8 
  58      9BBAE0
  59 0170 C7256E1B 		.ascii	"\307%n\033\276$\010B\374\000\342\201\206\372\361i\312"
  59      BE240842 
  59      FC00E281 
  59      86FAF169 
  59      CA
  60 0181 FA88F4D6 		.ascii	"\372\210\364\326\347\202\\5\004\224\266\036\226J\376"
  60      E7825C35 
  60      0494B61E 
  60      964AFE
  61 0190 B3BABF12 		.ascii	"\263\272\277\022\324\374Z\270\344\327_\276X\016\242"
  61      D4FC5AB8 
  61      E4D75FBE 
  61      580EA2
  62 019f BA1F2D47 		.ascii	"\272\037-G\177\226\245\012\351\250\376\374\006\362\243"
  62      7F96A50A 
  62      E9A8FEFC 
  62      06F2A3
  63 01ae 9C2F     		.ascii	"\234/"
  64              		.text
  65              		.section	.gnu.lto__get.7dd04ffb3294d428,"",%progbits
  66 0000 789C8592 		.ascii	"x\234\205\222\317k\023A\024\307\337wf7\233\304\224\266"
  66      CF6B1341 
  66      14C7DF77 
  66      66379BC4 
  66      94B6
  67 0012 2082278B 		.ascii	" \202'\213\005\021\003\331C\377\012\357\026\364\270"
  67      051103D9 
  67      43FF0AEF 
  67      16F4B8
  68 0021 09252E74 		.ascii	"\011%.tQL\357\231$\012\202\024B)\264h\301\206\352E\220"
  68      514CEF99 
  68      240A8214 
  68      4229B468 
  68      C186EA45 
  69 0036 0AA51E0A 		.ascii	"\012\245\036\012B\016\"\026\242\350\255zJO\205\036\012"
  69      420E2216 
  69      A2E8AD7A 
  69      4A4F851E 
  69      0A
  70 0047 824731BE 		.ascii	"\202G1\2767\223]\261\224:\2207\223\231\367\375\274_"
  70      37935DB1 
  70      943A9037 
  70      9399F7FD 
  70      BC5F
  71 0059 AB48D1E9 		.ascii	"\253H\321\3515\307\277=\276.\363\016\237\240\272\237"
  71      35C7BF3D 
  71      BE2EF30E 
  71      9FA0BA9F 
ARM GAS  /tmp/ccnYHqV1.s 			page 5


  72 0069 895A79A5 		.ascii	"\211Zy\245\274\347 S\324?\006D\246\244\341\271{\017"
  72      BCE72053 
  72      D43F0644 
  72      A6A4E1B9 
  72      7B0F
  73 007b 9003819A 		.ascii	"\220\003\201\232J{h\336\201@p\225z\306\254\014_\036"
  73      4A7B68DE 
  73      81407095 
  73      7AC6AC0C 
  73      5F1E
  74 008d 1D60CDF4 		.ascii	"\035`\315\364[\233\346\327h\004\304\340\200\327@5\320"
  74      5B9BE6D7 
  74      6804C4E0 
  74      80D74035 
  74      D0
  75 009e 6DFE83BC 		.ascii	"m\376\203\274\335\024\376\315`[\365\207\243\321`\347"
  75      DD14FECD 
  75      605BF587 
  75      A3D160E7 
  76 00ae E7E16B4C 		.ascii	"\347\341kLO\200bh\215\004\344\363\311\313\211\011\330"
  76      4F806268 
  76      8D04E4F3 
  76      C9CB8909 
  76      D8
  77 00bf F8793105 		.ascii	"\370y1\005\212\320\343hE\271.\211+\003|zhLw\306\275"
  77      8AD0E368 
  77      45B92E89 
  77      2B037C7A 
  77      684C77C6 
  78 00d4 B84CFAEF 		.ascii	"\270L\372\357>\254^6\233\355\256\371\315\211\304\310"
  78      3EAC5E36 
  78      9BEDAEF9 
  78      CD89C4C8 
  79 00e4 29BAFE37 		.ascii	")\272\3767\217\031\227\207w\272\0275\233\331-\266R\343"
  79      8F199787 
  79      77BA1735 
  79      9BD92DB6 
  79      52E3
  80 00f6 3C94EC7A 		.ascii	"<\224\354z\237T\204-\356M\204\027\034\240.1?Q\373\373"
  80      9F54842D 
  80      EE4D8417 
  80      1CA02E31 
  80      3F51FBFB 
  81 010a FAF117B8 		.ascii	"\372\361\027\270\207:\3742\335\210\021<\243\247\014"
  81      873AFC32 
  81      DD88113C 
  81      A3A70C
  82 0119 CEB38B04 		.ascii	"\316\263\213\004\310Yh5+WDo.\244\222\334y\222T\363\221"
  82      C8596835 
  82      2B57446F 
  82      2EA492DC 
  82      799254F3 
  83 012e DE1FB526 		.ascii	"\336\037\265&\262(\365\261\203]\363\234\010OG\013\366"
  83      B228F5B1 
  83      835DF39C 
  83      084F470B 
  83      F6
ARM GAS  /tmp/ccnYHqV1.s 			page 6


  84 013f E07898E5 		.ascii	"\340x\230\345\022X\260\1776Xe\271t\236t\336f\032v\013"
  84      1258B07F 
  84      365865B9 
  84      749E74DE 
  84      661A760B 
  85 0153 2C9C617B 		.ascii	",\234a{\217.\245\327\005\206\264\2141\223<Iv\022\220"
  85      8F2EA5D7 
  85      0586B48C 
  85      31933C49 
  85      761290
  86 0166 3F06EC53 		.ascii	"?\006\354S\273\357\247}\351\331\276\024,\366qg{\371"
  86      BBEFA77D 
  86      E9D9BE14 
  86      2CF67167 
  86      7BF9
  87 0178 4A0A2832 		.ascii	"J\012(2TT\001\\\3757\335C\231^1u\352?\345\263\334\212"
  87      5454015C 
  87      FD37DD43 
  87      995E3175 
  87      EA3FE5B3 
  88 018e 4E3A3BCB 		.ascii	"N:;\313:%\226l\034W\277g\347\363\225?Kq\266\242o\004"
  88      3A25966C 
  88      1C57BF67 
  88      E7F3953F 
  88      4B71B6A2 
  89 01a4 01691EBB 		.ascii	"\001i\036\273[h\252\215\335\213\254\323\203\335\222"
  89      5B68AA8D 
  89      DD8BACD3 
  89      83DD92
  90 01b3 0C172292 		.ascii	"\014\027\"\2226\314V*\341\275Fx7Z\014\027\343j\330X"
  90      36CC562A 
  90      E1BD4678 
  90      375A0C17 
  90      E36AD858 
  91 01c7 7AB01025 		.ascii	"z\260\020%\2150YH\306\307J\215P\325I\343\376\037\267"
  91      8D305948 
  91      C6C74A8D 
  91      50D549E3 
  91      FE1FB7
  92 01da 36AD9F   		.ascii	"6\255\237"
  93              		.text
  94              		.section	.gnu.lto__reads.7dd04ffb3294d428,"",%progbits
  95 0000 789C8D52 		.ascii	"x\234\215R\317k\023A\030}ofv\263I\023\243\340YJ\005"
  95      CF6B1341 
  95      187D6F66 
  95      76B34913 
  95      A3E0594A 
  96 0015 A12D64C1 		.ascii	"\241-d\301\377\302\273\005=\246!\306\205.\212\361\346"
  96      FFC2BB05 
  96      3DA621C6 
  96      852E8AF1 
  96      E6
  97 0026 A193A487 		.ascii	"\241\223\244\207\024/\245\307\026\204\026\274xP\361"
  97      142FA5C7 
  97      168416BC 
  97      7850F1
  98 0035 E4412107 		.ascii	"\344A!\007\017\026\374\201\320\203zi@<[\360\"\245\260"
ARM GAS  /tmp/ccnYHqV1.s 			page 7


  98      0F16FC81 
  98      D0837A69 
  98      403C5BF0 
  98      22A5B0
  99 0048 7EB39B69 		.ascii	"~\263\233iK)\326\201\375f\366}\337{\363\276\217QP8\275"
  99      4B29D681 
  99      FD66F67D 
  99      DF7BF3BE 
  99      8F515038 
 100 005d AECBF74A 		.ascii	"\256\313\367J\340Y\331\031\200j\355\023\320\213\224"
 100      E059D919 
 100      806AED13 
 100      D08B94
 101 006c D2BB316C 		.ascii	"\322\2731l\305\274\271\002[\3254\005lHw\000\261\254"
 101      C5BCB902 
 101      5BD53405 
 101      6C487700 
 101      B1AC
 102 007e B4E1F26D 		.ascii	"\264\341\362m\346\"/\324h\234e\317\367\337\376\030\362"
 102      E6222FD4 
 102      689C65CF 
 102      F7DFFE18 
 102      F2
 103 008f 529D4809 		.ascii	"R\235H\011\305\2244H\210\300\205\320\205\222`\210\344"
 103      C5943448 
 103      88C085D0 
 103      85926088 
 103      E4
 104 00a0 C4B20455 		.ascii	"\304\262\004U\221_Uu\211\232\013\262\002\254X\2736="
 104      915F5575 
 104      899A0BB2 
 104      02AC58BB 
 104      363D
 105 00b2 832D6BD7 		.ascii	"\203-k\327G\277\237\356\320\256\333\336~\226\325\023"
 105      47BF9FEE 
 105      D0AEDBDE 
 105      7E96D513 
 106 00c2 6A856B44 		.ascii	"j\205kD\213\270\305\204f:\337\002s\272\235V\256sS\242"
 106      8BB8C584 
 106      663ADF02 
 106      73BA9D56 
 106      AE7353A2 
 107 00d6 F3B940E5 		.ascii	"\363\271@\345v\275\003\325\344\226\264\327\3446g\320"
 107      76BD03D5 
 107      E496B4D7 
 107      E43667D0 
 108 00e6 11181FD1 		.ascii	"\021\030\037\321\377\376\347I\255\300;4\363\230K\030"
 108      FFFEE749 
 108      ADC03B34 
 108      F3984B18 
 109 00f6 6E624374 		.ascii	"nbCtKR\341\364u\256\271H\257\3568/\247<%\370\027\205"
 109      4B52E1F4 
 109      75AEB948 
 109      AFEE382F 
 109      A73C25F8 
 110 010c 4794C1EA 		.ascii	"G\224\301\352`\233\236\023\312M\302\004\336\343\335"
 110      609B9E13 
ARM GAS  /tmp/ccnYHqV1.s 			page 8


 110      CA4DC204 
 110      DEE3DD
 111 011b CF5EED04 		.ascii	"\317^\355\004\\:nbATvcq\335\037\037^(JdpR\345\323f\322"
 111      5C3A6E62 
 111      41547663 
 111      71DD1F1F 
 111      5E284A64 
 112 0135 553F4291 		.ascii	"U?B\221a\341\355\365\336e\257\030\345\346x\2669ul\356"
 112      61E1EDF5 
 112      DE65AF18 
 112      E5E678B6 
 112      39756CEE 
 113 0149 F1E08EA7 		.ascii	"\361\340\216\247\224\205\225{\373\214\260\300\200G8"
 113      9485957B 
 113      FB8CB0C0 
 113      804738
 114 0158 B0437B31 		.ascii	"\260C{1a\324\232\264\324a%/\025\271rq\353\327\275\272"
 114      61D49AB4 
 114      D461252F 
 114      15B97271 
 114      EBD7BDBA 
 115 016c 97A8CEE3 		.ascii	"\227\250\316\343\231\265\256\376\374\261\014\265g\325"
 115      99B5AEFE 
 115      FCB10CB5 
 115      67D5
 116 017a 84E87BB8 		.ascii	"\204\350{\270Q\200\377\247#T\340\013z\343,\364Zy\342"
 116      5180FFA7 
 116      2354E00B 
 116      7AE32CF4 
 116      5A79E2
 117 018d 1B280355 		.ascii	"\033(\003U\022B\375\341\027\335\203\240\033\231\353"
 117      1242FDE1 
 117      17DD83A0 
 117      1B99EB
 118 019c FB6AA311 		.ascii	"\373j\243\021\337\353\306w\233K\361R\262\030w\037>h"
 118      DFEBC677 
 118      9B4BF152 
 118      B218771F 
 118      3E68
 119 01ae 37D36E9C 		.ascii	"7\323n\234\266\323\311\261\321\202N\273\367\377\002"
 119      B6D3C9B1 
 119      D1824EBB 
 119      F7FF02
 120 01bd C3D29B1E 		.ascii	"\303\322\233\036"
 121              		.text
 122              		.section	.gnu.lto__writes.7dd04ffb3294d428,"",%progbits
 123 0000 789C8D52 		.ascii	"x\234\215R=K\034Q\024=\347\2757\263\343fW\363\013\202"
 123      3D4B1C51 
 123      143DE7BD 
 123      37B3E366 
 123      57F30B82 
 124 0014 2804A2B0 		.ascii	"(\004\242\260\003\371\027\351#\230r]\214\031pbp\355"
 124      03F917E9 
 124      2398725D 
 124      8C197062 
 124      70ED
 125 0026 52F87637 		.ascii	"R\370v7\205!\215X\211[m )D\022\322\245\020b\221\"\026"
ARM GAS  /tmp/ccnYHqV1.s 			page 9


 125      85218D58 
 125      895B6D20 
 125      294412D2 
 125      A5106291 
 126 003c F9021BAD 		.ascii	"\371\002\033\255\026\202M@Hil\326\373\336\354\323 !"
 126      16824D40 
 126      48696CD6 
 126      FBDEECD3 
 126      2021
 127 004e F1C1DCFB 		.ascii	"\361\301\334\373\346\334{\316\375\230QP\270z\356\312"
 127      E6DC7BCE 
 127      FD985150 
 127      B87AEECA 
 128 005e F34EE03B 		.ascii	"\363N\340;\342\031\201j\375\013\320J\224\322\007)l\331"
 128      E219816A 
 128      FD0BD04A 
 128      94D20729 
 128      6CD9
 129 0070 ECDE82AD 		.ascii	"\354\336\202\255h\232\0026\244\273\200XU\332p\365\001"
 129      689A0236 
 129      A4BB8058 
 129      55DA70F5 
 129      01
 130 0081 BDC85BB5 		.ascii	"\275\310[\265\327\037\014\336\354\376\376\361\230cD"
 130      D71F0CDE 
 130      ECFEFEF1 
 130      986344
 131 0090 4E28E6A4 		.ascii	"N(\346\244AFD\316\304\316\224\004C\"7\216\210QeyU\025"
 131      414644CE 
 131      C4CE9404 
 131      4322378E 
 131      88516579 
 132 00a6 17A83A23 		.ascii	"\027\250:#'\3023k\327\307'\320\263vc\357\303\253}\332"
 132      27C2336B 
 132      D7C727D0 
 132      B37663EF 
 132      C3AB7DDA 
 133 00ba 0DDBFA35 		.ascii	"\015\333\3725\030\214e\324\012\267\211\0061\313\214"
 133      188C65D4 
 133      0AB78906 
 133      31CB8C
 134 00c9 66DCBBC8 		.ascii	"f\334\273\310\\\235\246\341u\356\213um\316P9\257\367"
 134      5C9DA6E1 
 134      75EE8B75 
 134      6DCE5039 
 134      AFF7
 135 00db A1EAECC9 		.ascii	"\241\352\354\311tu\276\344\004\026\004\306g\264\217"
 135      7475BEE4 
 135      041604C6 
 135      67B48F
 136 00ea DE6F550B 		.ascii	"\336oU\013|\201f\032S\031\343.\266D\267$\031N_{\315"
 136      7C81661A 
 136      5319E32E 
 136      B644B724 
 136      194E5F7B 
 137 00ff 390675C7 		.ascii	"9\006u\307\371v#P\242\177QxA\351<\357\274f\340\304R"
 137      F9762350 
ARM GAS  /tmp/ccnYHqV1.s 			page 10


 137      A27F5178 
 137      41E93CEF 
 137      BC66E0C4 
 138 0114 4998C027 		.ascii	"I\230\300'|<nU\377\200K\227C\314\210\312A*]\267\373"
 138      7C3C6E55 
 138      FF804B97 
 138      43CC88CA 
 138      412A5DB7 
 139 0129 3F478B14 		.ascii	"?G\213\024Y\234d\205\260\031N\325NPDX\364vz4\032\024"
 139      599C6485 
 139      B0194ED5 
 139      4E504458 
 139      F4767A34 
 140 013f 13DF1CFF 		.ascii	"\023\337\034\377\336\234\272l\356E\347a\240\214\010"
 140      DE9CBA6C 
 140      EE45E761 
 140      A08C08
 141 014e CBF7F615 		.ascii	"\313\367\366\025q\201\001Oqf\327\354\315\214Ic8\222"
 141      7181014F 
 141      7166D7EC 
 141      CD8C4963 
 141      3892
 142 0160 CF2B4BC9 		.ascii	"\317+K\311L\276\242\257\272\331\275\250Z\231\306\266"
 142      4CBEA2AF 
 142      BAD9BDA8 
 142      5A99C6B6 
 143 0170 B52EFFFF 		.ascii	"\265.\377\377kY\323\201U\025b\230\341^\001^OG\250\300"
 143      6B59D381 
 143      55156298 
 143      E15E015E 
 143      4F47A8C0 
 144 0184 77B4FA27 		.ascii	"w\264\372'q\320\362\201CP\026\252\304\304z\347\204\356"
 144      71D0F281 
 144      435016AA 
 144      C4C47AE7 
 144      84EE
 145 0196 87A05B99 		.ascii	"\207\240[\231\233{\262VK\227\232\351\243\372b\272\230"
 145      9B7BB256 
 145      4B979AE9 
 145      A3FA62BA 
 145      98
 146 01a7 CDA5CD95 		.ascii	"\315\245\315\225\345\371z\336L\363\371|x\2555\240\363"
 146      E5F97ADE 
 146      4CF3F97C 
 146      78AD35A0 
 146      F3
 147 01b8 E693732D 		.ascii	"\346\223s-)\232\020"
 147      299A10
 148              		.text
 149              		.section	.gnu.lto_msObjectInit.7dd04ffb3294d428,"",%progbits
 150 0000 789C8D90 		.ascii	"x\234\215\2201K\003A\020\205\337\233\273\204\003\361"
 150      314B0341 
 150      1085DF9B 
 150      BB8403F1 
 151 0010 07582904 		.ascii	"\007X)\004+\341\356\307\030A\313K\010\361 \213\340\331"
 151      2BE1EEC7 
 151      1841CB4B 
ARM GAS  /tmp/ccnYHqV1.s 			page 11


 151      08F1208B 
 151      E0D9
 152 0022 5964A382 		.ascii	"Yd\243\202\235\244\014\212\202\255E\264Li/\012vvIo\257"
 152      9DA40C8A 
 152      82AD45B4 
 152      4C692F0A 
 152      7676496F 
 153 0037 210871F6 		.ascii	"!\010q\366\366lb\212\014\354\233a\230\357\355\316\012"
 153      F66C628A 
 153      0CEC9B61 
 153      98EFEDCE 
 153      0A
 154 0048 048BB1A1 		.ascii	"\004\213\261\241\347\216\300\266f\006\240\364\337\200"
 154      E78EC0B6 
 154      6606A0F4 
 154      DF80
 155 0056 5E24A42B 		.ascii	"^$\244+@t\205\335\003\026\263\217\362<\231\317\207O"
 155      407485DD 
 155      0316B38F 
 155      F23C99CF 
 155      874F
 156 0068 97C31FDE 		.ascii	"\227\303\037\336\312\232\320\020\241\012\253*\022\251"
 156      CA9AD010 
 156      A10AAB2A 
 156      12A9
 157 0076 043A55C1 		.ascii	"\004:U\301\205\265\375-\240YPuUg\265Gq9x\305\331\354"
 157      85B5FD2D 
 157      A0595075 
 157      5567B547 
 157      713978C5 
 158 008c FCF36A33 		.ascii	"\374\363j3\345=+\330\301\203\325X\317\210\033\\3#\333"
 158      E53D2BD8 
 158      C183D558 
 158      CF881B5C 
 158      3323DB
 159 009f 947DCDFE 		.ascii	"\224}\315\376\245\015\1771N1\263\003kwu\3140,Z\352\363"
 159      A50D7F31 
 159      4E31B303 
 159      6B7775CC 
 159      302C5AEA 
 160 00b4 32FD9A72 		.ascii	"2\375\232r\321'X\356\343\215\332\016v\344\340\373?\031"
 160      D12758EE 
 160      E38DDA0E 
 160      76E4E0FB 
 160      3F19
 161 00c6 2E27A524 		.ascii	".'\245$\253\236\034\255N\006%\031\025\344\350cu\322"
 161      AB9E1CAD 
 161      4E062519 
 161      15E4E863 
 161      75D2
 162 00d8 AFE83A45 		.ascii	"\257\350:E\365\216\336d\\\363\354_\324u%\375OG\324\342"
 162      F58EDE64 
 162      5CF3EC5F 
 162      D47525FD 
 162      4F47D4E2 
 163 00ec 3839CA93 		.ascii	"89\312\223\303\264\223t\262F\222\237\034\267R\223'\246"
 163      C3B49374 
ARM GAS  /tmp/ccnYHqV1.s 			page 12


 163      B246929F 
 163      1CB75293 
 163      27A6
 164 00fe 65CA326E 		.ascii	"e\3122n\342\027\300dl\225"
 164      E217C064 
 164      6C95
 165              		.text
 166              		.section	.gnu.lto_.symbol_nodes.7dd04ffb3294d428,"",%progbits
 167 0000 789C4DC8 		.ascii	"x\234M\310\271\021\2000\020CQi\327\246\015j\243\005"
 167      B9118030 
 167      10435169 
 167      D7A60D6A 
 167      A305
 168 0012 1A902306 		.ascii	"\032\220#\0062\012`H\350\207\006\270s\212 0\201\225"
 168      320A6048 
 168      E88706B8 
 168      738A2030 
 168      8195
 169 0024 FC793218 		.ascii	"\374y2\030Z\374\263\203\002\306\025\220\246\241\261"
 169      5AFCB383 
 169      02C61590 
 169      A6A1B1
 170 0033 9362C19D 		.ascii	"\223b\301\235\262\202\033\345\005o*\374\234{\306\213"
 170      B2821BE5 
 170      056F2AFC 
 170      9C7BC68B 
 171 0043 08723E54 		.ascii	"\010r>T\314oJt\253\260to\355\236\213\017\241\002$\227"
 171      CC6F4A74 
 171      ABB0746F 
 171      ED9E8B0F 
 171      A1022497 
 172              		.text
 173              		.section	.gnu.lto_.refs.7dd04ffb3294d428,"",%progbits
 174 0000 789C6362 		.ascii	"x\234cb`b\340g\200\000F\026&V\026V&f&&&\006&F\006\000"
 174      6062E067 
 174      80004616 
 174      26561656 
 174      26662626 
 175 001a 032D0037 		.ascii	"\003-\0007"
 176              		.text
 177              		.section	.gnu.lto_.decls.7dd04ffb3294d428,"",%progbits
 178 0000 789CBD58 		.ascii	"x\234\275X[l\024U\030>gf\273\355\332\015\"\021Rc\224"
 178      5B6C1455 
 178      183E6766 
 178      BBEDDA0D 
 178      22115263 
 179 0015 A2E00386 		.ascii	"\242\340\003\206N\250<\360\"H\372@}\250\032\025\243"
 179      4EA83CF0 
 179      2248FA40 
 179      7DA81A15 
 179      A3
 180 0026 0F6633DD 		.ascii	"\017f3\335N\3335{\313\316TD\0378\324\012\204\220P\274"
 180      4EDB357B 
 180      CBCE5444 
 180      1F38D40A 
 180      849050BC 
 181 003a 4408E90D 		.ascii	"D\010\351\015\004\243h\270E\001AYZ\305\206\233\324\004"
ARM GAS  /tmp/ccnYHqV1.s 			page 13


 181      04A368B8 
 181      45014159 
 181      5AC5869B 
 181      D404
 182 004c 10086420 		.ascii	"\020\010d \005\274\206B\203\\J]\377s\346\314\356\314"
 182      05BC8642 
 182      835C4A5D 
 182      FF73E6CC 
 182      EECC
 183 005e 746677EB 		.ascii	"tfw\353\203'\375g\317\314\374\377\367\375\347\377\377"
 183      8327FD67 
 183      CFCCFCFF 
 183      F7FDE7FF 
 183      FF
 184 006f 73990A48 		.ascii	"s\231\012H@\323\005\2042\320\316>\200\3200F\310\217"
 184      40D30584 
 184      32D0CE3E 
 184      80D03046 
 184      C88F
 185 0081 109A8772 		.ascii	"\020\232\207r\215\336\367\200\354\0039\0102\000r\036"
 185      8DDEF780 
 185      EC033908 
 185      3200721E 
 186 0091 A41C74E1 		.ascii	"\244\034t\341\017=\214\221\255Q\335\000\310&\220\022"
 186      0F3D8C91 
 186      AD51DD00 
 186      C8269012 
 187 00a1 907E101D 		.ascii	"\220~\020\035d\002H\020\244\017\344\"\3106\020\021d"
 187      64024810 
 187      A40FE422 
 187      C8361011 
 187      64
 188 00b2 046414E4 		.ascii	"\004d\024\344\0162\360\250=\270\204\276\006\331c\207"
 188      0E32F0A8 
 188      3DB884BE 
 188      06D96387 
 189 00c2 663E04B8 		.ascii	"f>\004\270\255\211\347\3441\361E\216\233\261`\357\343"
 189      AD89E7E4 
 189      31F1458E 
 189      9BB160EF 
 189      E3
 190 00d3 BF071CB8 		.ascii	"\277\007\034\270t\\\367Yp\026x\370<\015\214\203x,\266"
 190      745CF759 
 190      701678F8 
 190      3C0D8C83 
 190      782CB6
 191 00e6 C031CAF9 		.ascii	"\3001\312\371\273\343 G@\216:x\006\034<\363\213\340"
 191      BBE32047 
 191      408E3A78 
 191      061C3CF3 
 191      8BE0
 192 00f8 B1C647E0 		.ascii	"\261\306G\340\030&\3179\2203 g\035<\3479\307U\216\247"
 192      1826CF39 
 192      90332067 
 192      1D3CE739 
 192      C7558EA7 
 193 010c 73BE3EFE 		.ascii	"s\276>\376\374\012\3073\2613<.\246]\011\334\224\202"
ARM GAS  /tmp/ccnYHqV1.s 			page 14


 193      FC0AC733 
 193      B1333C2E 
 193      A65D09DC 
 193      9482
 194 011e 948104F0 		.ascii	"\224\201\004\360\330\034OE\235$=\244\377pi\010\257'"
 194      D81C4F45 
 194      9D243DA4 
 194      FF706908 
 194      AF27
 195 0130 E93692C9 		.ascii	"\3516\222\311,ES\320G\004Z\367rB\260\026@+\371Mm?\014"
 195      2C4553D0 
 195      47045AF7 
 195      7242B016 
 195      402BF94D 
 196 0147 EE552CE3 		.ascii	"\356U,\343\011\001T\311:\301\000\362\001\306\014\364"
 196      090154C9 
 196      3AC100F2 
 196      01C60CF4 
 197 0157 0921ED7A 		.ascii	"\011!\355z\307\346\325O\023R&\343M8\000\343{\015\243"
 197      C7E6D54F 
 197      135226E3 
 197      4D3800E3 
 197      7B0DA3
 198 016a 99E83330 		.ascii	"\231\35030m'\344\222\344\240e\255h\350\356\216\037'"
 198      6D27E492 
 198      E4A065AD 
 198      68E8EE8E 
 198      1F27
 199 017c 139F8C3F 		.ascii	"\023\237\214?e\300m\030#\031o\3013\307\013\243\357="
 199      65C06D18 
 199      23196FC1 
 199      33C70BA3 
 199      EF3D
 200 018e BC7B2EF3 		.ascii	"\274{.\363\360s\006\364\215\003H\306\376\200\325?vo"
 200      F07306F4 
 200      8D0348C6 
 200      FE80D53F 
 200      766F
 201 01a0 2A5034B8 		.ascii	"*P4\270\245L\267\351$\303K\371\023zS\212\376w;\267a"
 201      A54CB7E9 
 201      24C34BF9 
 201      137A538A 
 201      FE773BB7 
 202 01b5 52888D78 		.ascii	"R\210\215x\012\353\211\254\304\340\301\374r\263\317"
 202      0AEB89AC 
 202      C4E0C1FC 
 202      72B3CF
 203 01c4 02D54AF4 		.ascii	"\002\325J\364\315\244b].Pe&\002\266\244r\305\227O\262"
 203      CDA4625D 
 203      2E506526 
 203      02B6A472 
 203      C5974FB2 
 204 01d8 406D6381 		.ascii	"@mc\201\372\336-\342E\001\355]\325iD|'\003::&\342\330"
 204      FADE2DE2 
 204      4501ED5D 
 204      D569447C 
 204      27033A3A 
ARM GAS  /tmp/ccnYHqV1.s 			page 15


 205 01ef 11716C8F 		.ascii	"\021ql\217\000{\315;\031{\015\025\243+\343Eb\326@@\247"
 205      007BCD3B 
 205      197B0D15 
 205      A32BE345 
 205      62D64040 
 206 0204 1CF4D3D1 		.ascii	"\034\364\323\321&B\336\207\342\357\027\241\370},V\002"
 206      2642DE87 
 206      E2EF17A1 
 206      F87D2C56 
 206      02
 207 0215 3AC7B47A 		.ascii	":\307\264z\360T\327\0303%nI6\274^a\306\350\202\323\312"
 207      F054D718 
 207      33256E49 
 207      36BC5E61 
 207      C6E882D3 
 208 022a 160E430B 		.ascii	"\026\016C\013\332\023h3M\351\267\203/\324\032\023\005"
 208      DA136833 
 208      4DE9B783 
 208      2FD41A13 
 208      05
 209 023b E5E1E263 		.ascii	"\345\341\342c\370\012\013\326\201\033S6\275\347P\260"
 209      F80A0BD6 
 209      811B5336 
 209      BDE750B0 
 210 024b 7D999EC9 		.ascii	"}\231\236\311L\265MW\003\324\2538\366\273\024\207#F"
 210      4CB54D57 
 210      03D4AB38 
 210      F6BB1487 
 210      2346
 211 025d BA6B8CC8 		.ascii	"\272k\214\310pC-\327\336\015\336\310x_\336\360x\214"
 211      70432DD7 
 211      DE0DDEC8 
 211      785FDEF0 
 211      788C
 212 026f D3CB887B 		.ascii	"\323\313\210{\367\235\3538\257\217\366cp\340^&#\272"
 212      F79DEB38 
 212      AF8FF663 
 212      70E05E26 
 212      23BA
 213 0281 AC4CADC5 		.ascii	"\254L\255\305\314\373\015kN\015\343V\260\221q\037K\326"
 213      CCFB0D6B 
 213      4E0DE356 
 213      B091711F 
 213      4BD6
 214 0293 3AC15987 		.ascii	":\301Y\207%\216:,\261\327VI \327\241\023\360~\357\011"
 214      258E3A2C 
 214      B1D75649 
 214      20D7A113 
 214      F07EEF09 
 215 02a7 D8EB3D01 		.ascii	"\330\353=\001\313\321\252\234\307FIx\241\364\343r\213"
 215      CBD1AA9C 
 215      C7464978 
 215      A1F4E372 
 215      8B
 216 02b8 3F59AC3E 		.ascii	"?Y\254>\243\212\0349\353\022\\\353\372\275\316\316\207"
 216      A38A1C39 
 216      EB125CEB 
ARM GAS  /tmp/ccnYHqV1.s 			page 16


 216      FABDCECE 
 216      87
 217 02c9 48B760CB 		.ascii	"H\267`\313\333\301b\312z\227Rkx \240-\014\332\333\212"
 217      DBC162CA 
 217      7A97526B 
 217      7820A02D 
 217      0CDADB8A 
 218 02dd F9C9CDCE 		.ascii	"\371\311\315\316P3#\300\237\0250\353\263\314\206Vr\200"
 218      503323C0 
 218      9F1530EB 
 218      B3CC8656 
 218      7280
 219 02ef 55491FAF 		.ascii	"UI\037\257\022/+\036\231\303\256U\262_\351'C\220\027"
 219      122F2B1E 
 219      99C3AE55 
 219      B25FE927 
 219      439017
 220 0302 C764E8CB 		.ascii	"\307d\350\313\023\342\237\213LTv\265K{\256v2\336\216"
 220      13E29F8B 
 220      4C5476B5 
 220      4B7BAE76 
 220      32DE8E
 221 0315 67145E91 		.ascii	"g\024^\221\274<99\236douM6\031qL\320\201b\022=@3F\331"
 221      BC3C3939 
 221      9E646F75 
 221      4D361971 
 221      4CD08162 
 222 032f 657CAC80 		.ascii	"e|\254\200\325IK\242o\231\211\226\361O\005\314\362%"
 222      D5494BA2 
 222      6F998996 
 222      F14F05CC 
 222      F225
 223 0341 DACB8A47 		.ascii	"\332\313\212G\345\227\261\211\356\326\323]+\216\270"
 223      E597B189 
 223      EED6D35D 
 223      2B8EB8
 224 0350 2F07329E 		.ascii	"/\0072\2367\3313\302\027\354\271\266\345w\022ZKQ*-\213"
 224      37D933C2 
 224      17ECB9B6 
 224      E577125A 
 224      4B512A2D 
 225 0365 48373601 		.ascii	"H76\001\036D\331U\344\364\007\307f\263\275\354\"\236"
 225      1E44D955 
 225      E4F407C7 
 225      66B3BDEC 
 225      229E
 226 0377 0430A71D 		.ascii	"\0040\247\035y(\010C\375\030\004S\303\210\201\222t\307"
 226      79280843 
 226      FD180453 
 226      C3888192 
 226      74C7
 227 0389 A1203DD9 		.ascii	"\241 =\331\320\347\310\006gk\323P7\370\233\336\261\274"
 227      D0E7C806 
 227      676BD350 
 227      37F89BDE 
 227      B1BC
 228 039b 0B26742F 		.ascii	"\013&t/vs\037\024\260\205\232d\251'\262\252\031\004"
ARM GAS  /tmp/ccnYHqV1.s 			page 17


 228      76731F14 
 228      B0859A64 
 228      A927B2AA 
 228      1904
 229 03ad 6F5D3CB4 		.ascii	"o]<\264\253\311\3707\226\316\337\235^\216\310\225\306"
 229      ABC9F837 
 229      96CEDF9D 
 229      5E8EC895 
 229      C6
 230 03be D3C23E8E 		.ascii	"\323\302>\216\036\013\266\313\216\205\216\3164\257\314"
 230      1E0BB6CB 
 230      8E858ECE 
 230      34AFCC
 231 03cd FC95AB7D 		.ascii	"\374\225\253}\001]g1\245Dn\352\274k4\256`#';\011\011"
 231      015D6731 
 231      A5446EEA 
 231      BC6B34AE 
 231      6023273B 
 232 03e3 F81DE4BD 		.ascii	"\370\035\344\275y\310\207\254\344\267\306M^Y\220|c\036"
 232      79C887AC 
 232      E4B7C64D 
 232      5E59907C 
 232      631E
 233 03f5 F2612BF9 		.ascii	"\362a+\371\275b\310\313\3067\362\375y\310\377\266\222"
 233      BD62C8CB 
 233      C637F2FD 
 233      79C8FFB6 
 233      92
 234 0406 1371BCE4 		.ascii	"\023q\274\344\225\216\344\233U!\343?\3614\270^c\327"
 234      958EE49B 
 234      5521E33F 
 234      F134B85E 
 234      63D7
 235 0418 1BEC7A13 		.ascii	"\033\354z\023\256\331\346\345\317U\253?m\314\237\301"
 235      AED9E6E5 
 235      CF55AB3F 
 235      6DCC9FC1 
 236 0428 FF5A06E9 		.ascii	"\377Z\006\351\235p4\222\315\035l\345\270\301\\\322j"
 236      9D703492 
 236      CD1D6CE5 
 236      B8C15CD2 
 236      6A
 237 0439 EE6B6B8A 		.ascii	"\356kk\212\001+\224&\023\354\303q\203\345\361l]1`\023"
 237      012B9426 
 237      13ECC371 
 237      83E5F16C 
 237      5D316013 
 238 044d 5D3C736B 		.ascii	"]<sk\326\205J\306\227\331\336v\205%\363\016\273\216"
 238      D6854AC6 
 238      97D9DE76 
 238      8525F30E 
 238      BB8E
 239 045f B0EB28BB 		.ascii	"\260\353(\273f\212I\257\236Kov{\343G\034\347vW\350\254"
 239      668A49AF 
 239      9E4B6F76 
 239      7BE3471C 
 239      E77657E8 
ARM GAS  /tmp/ccnYHqV1.s 			page 18


 240 0474 23BA9E75 		.ascii	"#\272\236u.\017\367\373\2143\274\316\262\376\005S;\357"
 240      2E0FF7FB 
 240      8C33BCCE 
 240      B2FE0553 
 240      3BEF
 241 0486 B92FE996 		.ascii	"\271/\351\226\355\354\200y\334\221\361]\266\376y\233"
 241      EDEC8079 
 241      DC91F15D 
 241      B6FE799B 
 242 0496 598E3BE9 		.ascii	"Y\216;\351\035+:\214\343\225\261\023\336+`\312\206\303"
 242      1D2B3A8C 
 242      E395B113 
 242      DE2B60CA 
 242      86C3
 243 04a8 19BB721B 		.ascii	"\031\273r\033\350?\305\230\231\347i\330\375\336\355"
 243      E83FC598 
 243      99E769D8 
 243      FDDEED
 244 04b7 C6C4CFF6 		.ascii	"\306\304\317\366:\304\355lyk\023\306l\232\372v}\340"
 244      3AC4ED6C 
 244      796B13C6 
 244      6C9AFA76 
 244      7DE0
 245 04c9 DCC715EB 		.ascii	"\334\307\025\353I/\375\274\317T\220\364V\354\3309\341"
 245      492FFDBC 
 245      CF5490F4 
 245      56ECD839 
 245      E1
 246 04da 4830969D 		.ascii	"H0\226\235%B@\307Elf\005\276\240\340\206'\350QtA\354"
 246      254240C7 
 246      456C6605 
 246      BEA0E086 
 246      27E85174 
 247 04f0 2065CEC2 		.ascii	" e\316\302Y-x\236\252d\274\3005\343\316/\020[\2069\361"
 247      592D789E 
 247      AA64BCC0 
 247      35E3CE2F 
 247      105B8639 
 248 0505 55AB17D7 		.ascii	"U\253\027\327D\267\177'd\333c\250\207\2348\241_\376"
 248      44B77F27 
 248      64DB63A8 
 248      879C38A1 
 248      5FFE
 249 0517 E3846F19 		.ascii	"\343\204o\031\375\237\006=,`\030\325\257\254\246o\263"
 249      FD9F063D 
 249      2C6018D5 
 249      AFACA66F 
 249      B3
 250 0528 805378D7 		.ascii	"\200Sx\327=\020q\025\332\346\240]de\372\031\323\222"
 250      3D107115 
 250      DAE6A05D 
 250      6465FA19 
 250      D392
 251 053a 2E6DEFA0 		.ascii	".m\357\240\273\004\216\203\273\260\261s\031\207\030"
 251      BB048E83 
 251      BBB0B173 
 251      198718
ARM GAS  /tmp/ccnYHqV1.s 			page 19


 252 0549 66742DF7 		.ascii	"ft-\367\366$6\266\026\343,\313\336\336\310\275\275\211"
 252      F62436B6 
 252      16E32CCB 
 252      DEDEC8BD 
 252      BD89
 253 055b 8DB5DFF8 		.ascii	"\215\265\337\370\356coo\346\336\256\365\033\213\263"
 253      EE636F6F 
 253      E6DEAEF5 
 253      1B8BB3
 254 056a F1B5C49A 		.ascii	"\361\265\304\232cY\247\021\366\232g=B\356$\371xU\225"
 254      6359A711 
 254      F69A673D 
 254      42EE24F9 
 254      785595
 255 057d 9450A566 		.ascii	"\224P\245f9*E#\365\222\252\245\0249\246J1%\306\273U"
 255      392A4523 
 255      F592AAA5 
 255      1439A64A 
 255      3125C6BB 
 256 0592 61546DE8 		.ascii	"aTm\350\204\023\261X\".%\023)M\225\026\274XWS\367\026"
 256      8413B158 
 256      222E2513 
 256      294D9516 
 256      BC585753 
 257 05a8 7D968C44 		.ascii	"}\226\214D\225\224*-\254\251\221\302\315\332\222\244"
 257      95942A2D 
 257      ACA991C2 
 257      CDDA92A4 
 258 05b8 A25635A3 		.ascii	"\242V5\243\222\230\332\024\322\374\013\237[TY\203\036"
 258      9298DA14 
 258      D2FC0B9F 
 258      5B545983 
 258      1E
 259 05c9 915AD494 		.ascii	"\221Z\324\224\024\211\207\243-\015\212\024W\026\033"
 259      148987A3 
 259      2D0D8A14 
 259      57161B
 260 05d8 4C0D91B8 		.ascii	"L\015\221\270\006\252\245\360\363TuH\233\345\246\025"
 260      06AAA5F0 
 260      F3547548 
 260      9BE5A615 
 261 05e8 93C3CD91 		.ascii	"\223\303\315\221\270\"\205\032\224F\271%\252\205L\202"
 261      B822851A 
 261      9446B925 
 261      AA854C82 
 262 05f8 4028C4ED 		.ascii	"@(\304\355J[\24037\244\301\023\336\363\205\222-\232"
 262      4A5BA033 
 262      37A4C113 
 262      DEF38592 
 262      2D9A
 263 060a 1049E27A 		.ascii	"\020I\342z_\250I\321\252\0310Ek\012\207%9\025\233\025"
 263      5FA849D1 
 263      AA193045 
 263      6B0A8725 
 263      39159B15 
 264 061e 4FC49559 		.ascii	"O\304\225Y\212\\\037\221\346T\315\255\252\316\222\202"
 264      8A5C1F91 
ARM GAS  /tmp/ccnYHqV1.s 			page 20


 264      E654CDAD 
 264      AACE9282 
 265 062e 4FC003E8 		.ascii	"O\300\003\350~5\362\266\002\376\207 \004\015\252P\237"
 265      7E35F2B6 
 265      02FE8720 
 265      040DAA50 
 265      9F
 266 063f C4F1D2D0 		.ascii	"\304\361\322\320\342TDS\324\302\001kF\301:%\226H-y\211"
 266      E2544453 
 266      D4C2016B 
 266      46C13A25 
 266      96482D79 
 267 0654 3DA03746 		.ascii	"=\2407F\357\225\272\227K\030\210\217\302\212\340\244"
 267      EF95BA97 
 267      4B18888F 
 267      C28AE0A4 
 268 0664 08EE896F 		.ascii	"\010\356\211o\3064\177}Kc\243\222\362QZQI\250\376Dc"
 268      C6347F7D 
 268      4B63A392 
 268      F2515A51 
 268      49A8FE44 
 269 0679 A3AA68C1 		.ascii	"\243\252h\301\230\372|\375\033JX{6\036\321\304\230\232"
 269      98FA7CFD 
 269      1B4A587B 
 269      361ED1C4 
 269      989A
 270 068b F488642A 		.ascii	"\364\210d*\022o\242\221\204q\305[\242\321\322\306x\245"
 270      126FA291 
 270      8471C55B 
 270      A2D1D2C6 
 270      78A5
 271 069d 9A54C278 		.ascii	"\232T\302x\266\037\334\012'\227\300\013\2559\225X\354"
 271      B61FDC0A 
 271      2797C00B 
 271      AD399558 
 271      EC
 272 06ae 8B2A72E3 		.ascii	"\213*r\343\277\225\0264D"
 272      BF951634 
 272      44
 273              		.text
 274              		.section	.gnu.lto_.symtab.7dd04ffb3294d428,"",%progbits
 275 0000 6D734F62 		.ascii	"msObjectInit\000\000\000\000\000\000\000\000\000\000"
 275      6A656374 
 275      496E6974 
 275      00000000 
 275      00000000 
 276 0016 0000DD00 		.ascii	"\000\000\335\000\000\000"
 276      0000
 277              		.text
 278              		.section	.gnu.lto_.opts,"",%progbits
 279 0000 272D6D63 		.ascii	"'-mcpu=cortex-m3' '-mno-thumb-interwork' '-mthumb' "
 279      70753D63 
 279      6F727465 
 279      782D6D33 
 279      2720272D 
 280 0033 272D6767 		.ascii	"'-ggdb' '-O2' '-fomit-frame-pointer' '-falign-funct"
 280      64622720 
ARM GAS  /tmp/ccnYHqV1.s 			page 21


 280      272D4F32 
 280      2720272D 
 280      666F6D69 
 281 0066 696F6E73 		.ascii	"ions=16' '-ffunction-sections' '-fdata-sections' '-"
 281      3D313627 
 281      20272D66 
 281      66756E63 
 281      74696F6E 
 282 0099 666E6F2D 		.ascii	"fno-common' '-flto'\000"
 282      636F6D6D 
 282      6F6E2720 
 282      272D666C 
 282      746F2700 
 283              		.text
 284              		.cfi_sections	.debug_frame
 285              		.section	.text._put,"ax",%progbits
 286              		.align	2
 287              		.p2align 4,,15
 288              		.thumb
 289              		.thumb_func
 290              		.type	_put, %function
 291              	_put:
 292              	.LFB221:
 293              		.file 1 "../os/hal/lib/streams/memstreams.c"
 294              		.loc 1 66 0
 295              		.cfi_startproc
 296              		@ args = 0, pretend = 0, frame = 0
 297              		@ frame_needed = 0, uses_anonymous_args = 0
 298              		@ link register save eliminated.
 299              	.LVL0:
 300              		.loc 1 69 0
 301 0000 C268     		ldr	r2, [r0, #12]
 302              		.loc 1 66 0
 303 0002 0346     		mov	r3, r0
 304              	.LVL1:
 305              		.loc 1 69 0
 306 0004 8068     		ldr	r0, [r0, #8]
 307              	.LVL2:
 308              		.loc 1 66 0
 309 0006 10B4     		push	{r4}
 310              		.cfi_def_cfa_offset 4
 311              		.cfi_offset 4, -4
 312              		.loc 1 69 0
 313 0008 9042     		cmp	r0, r2
 314              		.loc 1 71 0
 315 000a 1FBF     		itttt	ne
 316 000c 5C68     		ldrne	r4, [r3, #4]
 317              		.loc 1 73 0
 318 000e 0020     		movne	r0, #0
 319              		.loc 1 71 0
 320 0010 A154     		strbne	r1, [r4, r2]
 321              		.loc 1 72 0
 322 0012 DA68     		ldrne	r2, [r3, #12]
 323              		.loc 1 70 0
 324 0014 0EBF     		itee	eq
 325 0016 6FF00100 		mvneq	r0, #1
 326              		.loc 1 72 0
ARM GAS  /tmp/ccnYHqV1.s 			page 22


 327 001a 0132     		addne	r2, r2, #1
 328 001c DA60     		strne	r2, [r3, #12]
 329              		.loc 1 74 0
 330 001e 5DF8044B 		ldr	r4, [sp], #4
 331 0022 7047     		bx	lr
 332              		.cfi_endproc
 333              	.LFE221:
 334              		.size	_put, .-_put
 335 0024 AFF30080 		.section	.text._get,"ax",%progbits
 335      AFF30080 
 335      AFF30080 
 336              		.align	2
 337              		.p2align 4,,15
 338              		.thumb
 339              		.thumb_func
 340              		.type	_get, %function
 341              	_get:
 342              	.LFB222:
 343              		.loc 1 76 0
 344              		.cfi_startproc
 345              		@ args = 0, pretend = 0, frame = 0
 346              		@ frame_needed = 0, uses_anonymous_args = 0
 347              		@ link register save eliminated.
 348              	.LVL3:
 349              		.loc 1 80 0
 350 0000 0369     		ldr	r3, [r0, #16]
 351 0002 C268     		ldr	r2, [r0, #12]
 352 0004 9A42     		cmp	r2, r3
 353              		.loc 1 82 0
 354 0006 1FBF     		itttt	ne
 355 0008 4268     		ldrne	r2, [r0, #4]
 356              		.loc 1 83 0
 357 000a 591C     		addne	r1, r3, #1
 358              		.loc 1 82 0
 359 000c D35C     		ldrbne	r3, [r2, r3]	@ zero_extendqisi2
 360              	.LVL4:
 361              		.loc 1 83 0
 362 000e 0161     		strne	r1, [r0, #16]
 363              		.loc 1 84 0
 364 0010 14BF     		ite	ne
 365 0012 1846     		movne	r0, r3
 366              	.LVL5:
 367              		.loc 1 81 0
 368 0014 6FF00100 		mvneq	r0, #1
 369              		.loc 1 85 0
 370 0018 7047     		bx	lr
 371              		.cfi_endproc
 372              	.LFE222:
 373              		.size	_get, .-_get
 374 001a 00BFAFF3 		.section	.text._reads,"ax",%progbits
 374      0080
 375              		.align	2
 376              		.p2align 4,,15
 377              		.thumb
 378              		.thumb_func
 379              		.type	_reads, %function
 380              	_reads:
ARM GAS  /tmp/ccnYHqV1.s 			page 23


 381              	.LFB220:
 382              		.loc 1 56 0
 383              		.cfi_startproc
 384              		@ args = 0, pretend = 0, frame = 0
 385              		@ frame_needed = 0, uses_anonymous_args = 0
 386              	.LVL6:
 387 0000 70B5     		push	{r4, r5, r6, lr}
 388              		.cfi_def_cfa_offset 16
 389              		.cfi_offset 4, -16
 390              		.cfi_offset 5, -12
 391              		.cfi_offset 6, -8
 392              		.cfi_offset 14, -4
 393              		.loc 1 59 0
 394 0002 0369     		ldr	r3, [r0, #16]
 395 0004 C568     		ldr	r5, [r0, #12]
 396              		.loc 1 61 0
 397 0006 4668     		ldr	r6, [r0, #4]
 398              		.loc 1 59 0
 399 0008 ED1A     		subs	r5, r5, r3
 400 000a AA42     		cmp	r2, r5
 401 000c 38BF     		it	cc
 402 000e 1546     		movcc	r5, r2
 403              		.loc 1 56 0
 404 0010 0446     		mov	r4, r0
 405              	.LVL7:
 406              		.loc 1 61 0
 407 0012 2A46     		mov	r2, r5
 408 0014 0846     		mov	r0, r1
 409              	.LVL8:
 410 0016 F118     		adds	r1, r6, r3
 411              	.LVL9:
 412 0018 FFF7FEFF 		bl	memcpy
 413              	.LVL10:
 414              		.loc 1 62 0
 415 001c 2369     		ldr	r3, [r4, #16]
 416              		.loc 1 64 0
 417 001e 2846     		mov	r0, r5
 418              		.loc 1 62 0
 419 0020 1D44     		add	r5, r5, r3
 420              	.LVL11:
 421 0022 2561     		str	r5, [r4, #16]
 422              		.loc 1 64 0
 423 0024 70BD     		pop	{r4, r5, r6, pc}
 424              		.cfi_endproc
 425              	.LFE220:
 426              		.size	_reads, .-_reads
 427 0026 00BFAFF3 		.section	.text._writes,"ax",%progbits
 427      0080AFF3 
 427      0080
 428              		.align	2
 429              		.p2align 4,,15
 430              		.thumb
 431              		.thumb_func
 432              		.type	_writes, %function
 433              	_writes:
 434              	.LFB219:
 435              		.loc 1 46 0
ARM GAS  /tmp/ccnYHqV1.s 			page 24


 436              		.cfi_startproc
 437              		@ args = 0, pretend = 0, frame = 0
 438              		@ frame_needed = 0, uses_anonymous_args = 0
 439              	.LVL12:
 440 0000 38B5     		push	{r3, r4, r5, lr}
 441              		.cfi_def_cfa_offset 16
 442              		.cfi_offset 3, -16
 443              		.cfi_offset 4, -12
 444              		.cfi_offset 5, -8
 445              		.cfi_offset 14, -4
 446              		.loc 1 49 0
 447 0002 C368     		ldr	r3, [r0, #12]
 448 0004 8568     		ldr	r5, [r0, #8]
 449              		.loc 1 46 0
 450 0006 0446     		mov	r4, r0
 451              	.LVL13:
 452              		.loc 1 49 0
 453 0008 ED1A     		subs	r5, r5, r3
 454              		.loc 1 51 0
 455 000a 4068     		ldr	r0, [r0, #4]
 456              	.LVL14:
 457 000c AA42     		cmp	r2, r5
 458 000e 38BF     		it	cc
 459 0010 1546     		movcc	r5, r2
 460              	.LVL15:
 461 0012 2A46     		mov	r2, r5
 462 0014 1844     		add	r0, r0, r3
 463 0016 FFF7FEFF 		bl	memcpy
 464              	.LVL16:
 465              		.loc 1 52 0
 466 001a E368     		ldr	r3, [r4, #12]
 467              		.loc 1 54 0
 468 001c 2846     		mov	r0, r5
 469              		.loc 1 52 0
 470 001e 1D44     		add	r5, r5, r3
 471              	.LVL17:
 472 0020 E560     		str	r5, [r4, #12]
 473              		.loc 1 54 0
 474 0022 38BD     		pop	{r3, r4, r5, pc}
 475              		.cfi_endproc
 476              	.LFE219:
 477              		.size	_writes, .-_writes
 478 0024 AFF30080 		.section	.text.msObjectInit,"ax",%progbits
 478      AFF30080 
 478      AFF30080 
 479              		.align	2
 480              		.p2align 4,,15
 481              		.global	msObjectInit
 482              		.thumb
 483              		.thumb_func
 484              		.type	msObjectInit, %function
 485              	msObjectInit:
 486              	.LFB223:
 487              		.loc 1 104 0
 488              		.cfi_startproc
 489              		@ args = 0, pretend = 0, frame = 0
 490              		@ frame_needed = 0, uses_anonymous_args = 0
ARM GAS  /tmp/ccnYHqV1.s 			page 25


 491              		@ link register save eliminated.
 492              	.LVL18:
 493 0000 30B4     		push	{r4, r5}
 494              		.cfi_def_cfa_offset 8
 495              		.cfi_offset 4, -8
 496              		.cfi_offset 5, -4
 497              		.loc 1 106 0
 498 0002 40F20004 		movw	r4, #:lower16:.LANCHOR0
 499 0006 C0F20004 		movt	r4, #:upper16:.LANCHOR0
 500              		.loc 1 110 0
 501 000a 0025     		movs	r5, #0
 502              		.loc 1 106 0
 503 000c 0460     		str	r4, [r0]
 504              		.loc 1 110 0
 505 000e 0561     		str	r5, [r0, #16]
 506              		.loc 1 107 0
 507 0010 4160     		str	r1, [r0, #4]
 508              		.loc 1 108 0
 509 0012 8260     		str	r2, [r0, #8]
 510              		.loc 1 109 0
 511 0014 C360     		str	r3, [r0, #12]
 512              		.loc 1 111 0
 513 0016 30BC     		pop	{r4, r5}
 514 0018 7047     		bx	lr
 515              		.cfi_endproc
 516              	.LFE223:
 517              		.size	msObjectInit, .-msObjectInit
 518 001a 00BFAFF3 		.section	.rodata.vmt,"a",%progbits
 518      0080
 519              		.align	2
 520              		.set	.LANCHOR0,. + 0
 521              		.type	vmt, %object
 522              		.size	vmt, 16
 523              	vmt:
 524 0000 00000000 		.word	_writes
 525 0004 00000000 		.word	_reads
 526 0008 00000000 		.word	_put
 527 000c 00000000 		.word	_get
 528              		.text
 529              	.Letext0:
 530              		.file 2 "/usr/lib/gcc/arm-none-eabi/4.8.2/include/stddef.h"
 531              		.file 3 "/usr/include/newlib/machine/_default_types.h"
 532              		.file 4 "/usr/include/newlib/stdint.h"
 533              		.file 5 "../os/common/ports/ARMCMx/compilers/GCC/chtypes.h"
 534              		.file 6 "../os/rt/include/chsystypes.h"
 535              		.file 7 "../os/rt/include/chschd.h"
 536              		.file 8 "../os/common/ports/ARMCMx/chcore.h"
 537              		.file 9 "../os/common/ports/ARMCMx/chcore_v7m.h"
 538              		.file 10 "../os/rt/include/chsem.h"
 539              		.file 11 "../os/rt/include/chmtx.h"
 540              		.file 12 "../os/hal/lib/streams/memstreams.h"
 541              		.file 13 "../os/common/ext/CMSIS/include/core_cm3.h"