ARM GAS  /tmp/ccnYHqV1.s 			page 1


   1              		.syntax unified
   2              		.cpu cortex-m3
   3              		.fpu softvfp
   4              		.eabi_attribute 20, 1
   5              		.eabi_attribute 21, 1
   6              		.eabi_attribute 23, 3
   7              		.eabi_attribute 24, 1
   8              		.eabi_attribute 25, 1
   9              		.eabi_attribute 26, 1
  10              		.eabi_attribute 30, 2
  11              		.eabi_attribute 34, 1
  12              		.eabi_attribute 18, 4
  13              		.thumb
  14              		.file	"memstreams.c"
  15              		.text
  16              	.Ltext0:
  17              		.section	.gnu.lto_.jmpfuncs.7dd04ffb3294d428,"",%progbits
  18 0000 789C6362 		.ascii	"x\234cb`b\300\006T\2404+\0033##\023;33\003\003c\031"
  18      6062C006 
  18      54A0342B 
  18      03332323 
  18      133B3333 
  19 0018 23588899 		.ascii	"#X\210\231\035\310\201\363Y\370\031\000\032\264\001"
  19      1DC881F3 
  19      59F81900 
  19      1AB401
  20 0027 55       		.ascii	"U"
  21              		.text
  22              		.section	.gnu.lto_.inline.7dd04ffb3294d428,"",%progbits
  23 0000 789C6362 		.ascii	"x\234cb`b\300\006\032\031!4+\003\003/\017#3\003\220"
  23      6062C006 
  23      1A192134 
  23      2B03032F 
  23      0F233303 
  24 0015 CBEC0026 		.ascii	"\313\354\000&\023\300\244\002\027\333\004=\006\216\013"
  24      13C0A402 
  24      17DB043D 
  24      068E0B
  25 0024 7A4C0C8C 		.ascii	"zL\014\214/\330Y $\210\340\00039\030X\026\310\36300"
  25      2FD85920 
  25      2488E000 
  25      33391858 
  25      16C8F330 
  26 0039 DE601760 		.ascii	"\336`\027`\002\223\014L\033\370%@\00622\360pC\315\203"
  26      02930C4C 
  26      1BF82540 
  26      063232F0 
  26      7043CD83 
  27 004d 98D4C008 		.ascii	"\230\324\300\0105\220\271C\234\201\375\207\032\026\003"
  27      3590B943 
  27      9C81FD87 
  27      1A1603
  28 005c 996788E3 		.ascii	"\231g\210\3436\220\211AP\222\221\005\305@&F\210M@S\271"
  28      36908941 
  28      50929105 
  28      C5402646 
  28      884D4053 
ARM GAS  /tmp/ccnYHqV1.s 			page 2


  29 0071 81DA1838 		.ascii	"\201\332\0308>\340t&\323\005~\036\220\3212 \256\002"
  29      3EE07426 
  29      D3057E1E 
  29      90D13220 
  29      AE02
  30 0083 58500124 		.ascii	"XP\001$\250\0012\201\205\027h\304\004?\020dF\330\002"
  30      A8013281 
  30      851768C4 
  30      043F1064 
  30      46D802
  31 0096 0D061A58 		.ascii	"\015\006\032X\302\302\300\301\316\310\300\304\332\241"
  31      C2C2C0C1 
  31      CEC8C0C4 
  31      DAA1
  32 00a4 CEC0BDC2 		.ascii	"\316\300\275\302\015\0221\000-\3633\312"
  32      0D123100 
  32      2DF333CA 
  33              		.text
  34              		.section	.gnu.lto_.pureconst.7dd04ffb3294d428,"",%progbits
  35 0000 789C6362 		.ascii	"x\234cb`b\340f\200\000V\006)F)&)f)\026)\000\004)\000"
  35      6062E066 
  35      80005606 
  35      29462926 
  35      29662916 
  36 0019 A1       		.ascii	"\241"
  37              		.text
  38              		.section	.gnu.lto__put.7dd04ffb3294d428,"",%progbits
  39 0000 789C8D92 		.ascii	"x\234\215\222\301K\033A\024\306\3377\263\273IL\254\036"
  39      C14B1B41 
  39      14C6DF37 
  39      B3BB494C 
  39      AC1E
  40 0012 BC789314 		.ascii	"\274x\223\024\204*d\017\375+zo@\217k\220\270\220\245"
  40      842A640F 
  40      FD2B7A6F 
  40      408F6B90 
  40      B890A5
  41 0025 A5E93D93 		.ascii	"\245\351=\223DJ\301K(\202\266\0254=\364 \242\226^<\346"
  41      444AC14B 
  41      2882B615 
  41      343DF420 
  41      A2965E3C 
  42 003a 20A5A296 		.ascii	" \245\242\226x\264\247@@/\275\364\326S\343{\263\335"
  42      78B4A740 
  42      402FBDF4 
  42      D653E37B 
  42      B3DD
  43 004c 2D48B10E 		.ascii	"-H\261\016\354\233\331\367\336\357\233\367fF\221\242"
  43      EC9BD9F7 
  43      DEEF9BF7 
  43      664691A2 
  44 005c DBE3317F 		.ascii	"\333\3431\177\253\354~\3043\\\202\352|#jf\225r\266A"
  44      ABEC7EC4 
  44      335C82EA 
  44      7C236A66 
  44      9572B641 
  45 0070 664CFF3C 		.ascii	"fL\377<#2\005\015'\366;\200,\010\324P\332Ac\021V\345"
ARM GAS  /tmp/ccnYHqV1.s 			page 3


  45      2332050D 
  45      27F63B80 
  45      2C08D450 
  45      DA416311 
  46 0086 40F506A3 		.ascii	"@\365\006\243\321\376\372\253\275=\274U\017@!H#\002"
  46      D1FEFAAB 
  46      BD3DBC55 
  46      0F402148 
  46      2302
  47 0098 B9BC8227 		.ascii	"\271\274\202'&\303Fe\305\3448\200\274\370\012b\030w"
  47      26C34665 
  47      C5E43880 
  47      BCF80A62 
  47      1877
  48 00aa 69D598CE 		.ascii	"i\325\230\316L\221\272\306\274\351m|Y\2376;\255\216"
  48      4C91BAC6 
  48      BCE96D7C 
  48      599F363B 
  48      AD8E
  49 00bc F93D1A21 		.ascii	"\371=\032!\204V4\013\252\200\026\370\307\231\261\223"
  49      8456340B 
  49      AA8016F8 
  49      C799B193 
  50 00cc EBDCEEA3 		.ascii	"\353\334\356\243b\013y\312V\352+C\311\254OH\005\350"
  50      620B79CA 
  50      56EA2B43 
  50      C9AC4F48 
  50      05E8
  51 00de 725F013E 		.ascii	"r_\001>\240HUh\242sj}?\032\366\021\007\252p\347i.\204"
  51      A0485568 
  51      A2736A7D 
  51      3F1AF611 
  51      07AA70E7 
  52 00f5 F79EDEB1 		.ascii	"\367\236\336\261p\206Sd\003mE\227\220\310\013\324\317"
  52      70865364 
  52      036D4597 
  52      90C80BD4 
  52      CF
  53 0106 27887717 		.ascii	"'\210w\027\2220_\351\370\2729\236\356\302\324\337j\313"
  53      92305FE9 
  53      F8BA399E 
  53      EEC2D4DF 
  53      6ACB
  54 0118 9CCD27AB 		.ascii	"\234\315'\253E\366\327\260\227\326\222\261\302\352\337"
  54      45F6D7B0 
  54      97D692B1 
  54      C2EADF
  55 0127 C22AADA5 		.ascii	"\302*\255\245\275\326\376\2302\331\252dz\266\306\323"
  55      BDD6FE98 
  55      32D9AA64 
  55      7AB6C6D3 
  56 0137 C389D8CD 		.ascii	"\303\211\330\315\012McL&\224pVTb\272\212\\\334\314\346"
  56      0A4D634C 
  56      26947056 
  56      5462BA8A 
  56      5CDCCCE6 
  57 014b D52055C8 		.ascii	"\325 U\310\317\323.'O\376\267%\336\371\265N\250\002"
ARM GAS  /tmp/ccnYHqV1.s 			page 4


  57      CFD32E27 
  57      4FFEB725 
  57      DEF9B54E 
  57      A802
  58 015d 8392E421 		.ascii	"\203\222\344!>\237'q\340~Z\214''\341\330\233\272\340"
  58      3E9F2771 
  58      E07E5A8C 
  58      2727E1D8 
  58      9BBAE0
  59 0170 C7256E1B 		.ascii	"\307%n\033\276$\010B\374\000\342\201\206\372\361i\312"
  59      BE240842 
  59      FC00E281 
  59      86FAF169 
  59      CA
  60 0181 FA88F4D6 		.ascii	"\372\210\364\326\347\202\\5\004\224\266\036\226J\376"
  60      E7825C35 
  60      0494B61E 
  60      964AFE
  61 0190 B3BABF12 		.ascii	"\263\272\277\022\324\374Z\270\344\327_\276X\016\242"
  61      D4FC5AB8 
  61      E4D75FBE 
  61      580EA2
  62 019f BA1F2D47 		.ascii	"\272\037-G\177\226\245\012\351\250\376\374\006\362\243"
  62      7F96A50A 
  62      E9A8FEFC 
  62      06F2A3
  63 01ae 9C2F     		.ascii	"\234/"
  64              		.text
  65              		.section	.gnu.lto__get.7dd04ffb3294d428,"",%progbits
  66 0000 789C8592 		.ascii	"x\234\205\222\317k\023A\024\307\337wf7\233\304\224\266"
  66      CF6B1341 
  66      14C7DF77 
  66      66379BC4 
  66      94B6
  67 0012 2082278B 		.ascii	" \202'\213\005\021\003\331C\377\012\357\026\364\270"
  67      051103D9 
  67      43FF0AEF 
  67      16F4B8
  68 0021 09252E74 		.ascii	"\011%.tQL\357\231$\012\202\024B)\264h\301\206\352E\220"
  68      514CEF99 
  68      240A8214 
  68      4229B468 
  68      C186EA45 
  69 0036 0AA51E0A 		.ascii	"\012\245\036\012B\016\"\026\242\350\255zJO\205\036\012"
  69      420E2216 
  69      A2E8AD7A 
  69      4A4F851E 
  69      0A
  70 0047 824731BE 		.ascii	"\202G1\2767\223]\261\224:\2207\223\231\367\375\274_"
  70      37935DB1 
  70      943A9037 
  70      9399F7FD 
  70      BC5F
  71 0059 AB48D1E9 		.ascii	"\253H\321\3515\307\277=\276.\363\016\237\240\272\237"
  71      35C7BF3D 
  71      BE2EF30E 
  71      9FA0BA9F 
ARM GAS  /tmp/ccnYHqV1.s 			page 5


  72 0069 895A79A5 		.ascii	"\211Zy\245\274\347 S\324?\006D\246\244\341\271{\017"
  72      BCE72053 
  72      D43F0644 
  72      A6A4E1B9 
  72      7B0F
  73 007b 9003819A 		.ascii	"\220\003\201\232J{h\336\201@p\225z\306\254\014_\036"
  73      4A7B68DE 
  73      81407095 
  73      7AC6AC0C 
  73      5F1E
  74 008d 1D60CDF4 		.ascii	"\035`\315\364[\233\346\327h\004\304\340\200\327@5\320"
  74      5B9BE6D7 
  74      6804C4E0 
  74      80D74035 
  74      D0
  75 009e 6DFE83BC 		.ascii	"m\376\203\274\335\024\376\315`[\365\207\243\321`\347"
  75      DD14FECD 
  75      605BF587 
  75      A3D160E7 
  76 00ae E7E16B4C 		.ascii	"\347\341kLO\200bh\215\004\344\363\311\313\211\011\330"
  76      4F806268 
  76      8D04E4F3 
  76      C9CB8909 
  76      D8
  77 00bf F8793105 		.ascii	"\370y1\005\212\320\343hE\271.\211+\003|zhLw\306\275"
  77      8AD0E368 
  77      45B92E89 
  77      2B037C7A 
  77      684C77C6 
  78 00d4 B84CFAEF 		.ascii	"\270L\372\357>\254^6\233\355\256\371\315\211\304\310"
  78      3EAC5E36 
  78      9BEDAEF9 
  78      CD89C4C8 
  79 00e4 29BAFE37 		.ascii	")\272\3767\217\031\227\207w\272\0275\233\331-\266R\343"
  79      8F199787 
  79      77BA1735 
  79      9BD92DB6 
  79      52E3
  80 00f6 3C94EC7A 		.ascii	"<\224\354z\237T\204-\356M\204\027\034\240.1?Q\373\373"
  80      9F54842D 
  80      EE4D8417 
  80      1CA02E31 
  80      3F51FBFB 
  81 010a FAF117B8 		.ascii	"\372\361\027\270\207:\3742\335\210\021<\243\247\014"
  81      873AFC32 
  81      DD88113C 
  81      A3A70C
  82 0119 CEB38B04 		.ascii	"\316\263\213\004\310Yh5+WDo.\244\222\334y\222T\363\221"
  82      C8596835 
  82      2B57446F 
  82      2EA492DC 
  82      799254F3 
  83 012e DE1FB526 		.ascii	"\336\037\265&\262(\365\261\203]\363\234\010OG\013\366"
  83      B228F5B1 
  83      835DF39C 
  83      084F470B 
  83      F6
ARM GAS  /tmp/ccnYHqV1.s 			page 6


  84 013f E07898E5 		.ascii	"\340x\230\345\022X\260\1776Xe\271t\236t\336f\032v\013"
  84      1258B07F 
  84      365865B9 
  84      749E74DE 
  84      661A760B 
  85 0153 2C9C617B 		.ascii	",\234a{\217.\245\327\005\206\264\2141\223<Iv\022\220"
  85      8F2EA5D7 
  85      0586B48C 
  85      31933C49 
  85      761290
  86 0166 3F06EC53 		.ascii	"?\006\354S\273\357\247}\351\331\276\024,\366qg{\371"
  86      BBEFA77D 
  86      E9D9BE14 
  86      2CF67167 
  86      7BF9
  87 0178 4A0A2832 		.ascii	"J\012(2TT\001\\\3757\335C\231^1u\352?\345\263\334\212"
  87      5454015C 
  87      FD37DD43 
  87      995E3175 
  87      EA3FE5B3 
  88 018e 4E3A3BCB 		.ascii	"N:;\313:%\226l\034W\277g\347\363\225?Kq\266\242o\004"
  88      3A25966C 
  88      1C57BF67 
  88      E7F3953F 
  88      4B71B6A2 
  89 01a4 01691EBB 		.ascii	"\001i\036\273[h\252\215\335\213\254\323\203\335\222"
  89      5B68AA8D 
  89      DD8BACD3 
  89      83DD92
  90 01b3 0C172292 		.ascii	"\014\027\"\2226\314V*\341\275Fx7Z\014\027\343j\330X"
  90      36CC562A 
  90      E1BD4678 
  90      375A0C17 
  90      E36AD858 
  91 01c7 7AB01025 		.ascii	"z\260\020%\2150YH\306\307J\215P\325I\343\376\037\267"
  91      8D305948 
  91      C6C74A8D 
  91      50D549E3 
  91      FE1FB7
  92 01da 36AD9F   		.ascii	"6\255\237"
  93              		.text
  94              		.section	.gnu.lto__reads.7dd04ffb3294d428,"",%progbits
  95 0000 789C8D52 		.ascii	"x\234\215R\317k\023A\030}ofv\263I\023\243\340YJ\005"
  95      CF6B1341 
  95      187D6F66 
  95      76B34913 
  95      A3E0594A 
  96 0015 A12D64C1 		.ascii	"\241-d\301\377\302\273\005=\246!\306\205.\212\361\346"
  96      FFC2BB05 
  96      3DA621C6 
  96      852E8AF1 
  96      E6
  97 0026 A193A487 		.ascii	"\241\223\244\207\024/\245\307\026\204\026\274xP\361"
  97      142FA5C7 
  97      168416BC 
  97      7850F1
  98 0035 E4412107 		.ascii	"\344A!\007\017\026\374\201\320\203zi@<[\360\"\245\260"
ARM GAS  /tmp/ccnYHqV1.s 			page 7


  98      0F16FC81 
  98      D0837A69 
  98      403C5BF0 
  98      22A5B0
  99 0048 7EB39B69 		.ascii	"~\263\233iK)\326\201\375f\366}\337{\363\276\217QP8\275"
  99      4B29D681 
  99      FD66F67D 
  99      DF7BF3BE 
  99      8F515038 
 100 005d AECBF74A 		.ascii	"\256\313\367J\340Y\331\031\200j\355\023\320\213\224"
 100      E059D919 
 100      806AED13 
 100      D08B94
 101 006c D2BB316C 		.ascii	"\322\2731l\305\274\271\002[\3254\005lHw\000\261\254"
 101      C5BCB902 
 101      5BD53405 
 101      6C487700 
 101      B1AC
 102 007e B4E1F26D 		.ascii	"\264\341\362m\346\"/\324h\234e\317\367\337\376\030\362"
 102      E6222FD4 
 102      689C65CF 
 102      F7DFFE18 
 102      F2
 103 008f 529D4809 		.ascii	"R\235H\011\305\2244H\210\300\205\320\205\222`\210\344"
 103      C5943448 
 103      88C085D0 
 103      85926088 
 103      E4
 104 00a0 C4B20455 		.ascii	"\304\262\004U\221_Uu\211\232\013\262\002\254X\2736="
 104      915F5575 
 104      899A0BB2 
 104      02AC58BB 
 104      363D
 105 00b2 832D6BD7 		.ascii	"\203-k\327G\277\237\356\320\256\333\336~\226\325\023"
 105      47BF9FEE 
 105      D0AEDBDE 
 105      7E96D513 
 106 00c2 6A856B44 		.ascii	"j\205kD\213\270\305\204f:\337\002s\272\235V\256sS\242"
 106      8BB8C584 
 106      663ADF02 
 106      73BA9D56 
 106      AE7353A2 
 107 00d6 F3B940E5 		.ascii	"\363\271@\345v\275\003\325\344\226\264\327\3446g\320"
 107      76BD03D5 
 107      E496B4D7 
 107      E43667D0 
 108 00e6 11181FD1 		.ascii	"\021\030\037\321\377\376\347I\255\300;4\363\230K\030"
 108      FFFEE749 
 108      ADC03B34 
 108      F3984B18 
 109 00f6 6E624374 		.ascii	"nbCtKR\341\364u\256\271H\257\3568/\247<%\370\027\205"
 109      4B52E1F4 
 109      75AEB948 
 109      AFEE382F 
 109      A73C25F8 
 110 010c 4794C1EA 		.ascii	"G\224\301\352`\233\236\023\312M\302\004\336\343\335"
 110      609B9E13 
ARM GAS  /tmp/ccnYHqV1.s 			page 8


 110      CA4DC204 
 110      DEE3DD
 111 011b CF5EED04 		.ascii	"\317^\355\004\\:nbATvcq\335\037\037^(JdpR\345\323f\322"
 111      5C3A6E62 
 111      41547663 
 111      71DD1F1F 
 111      5E284A64 
 112 0135 553F4291 		.ascii	"U?B\221a\341\355\365\336e\257\030\345\346x\2669ul\356"
 112      61E1EDF5 
 112      DE65AF18 
 112      E5E678B6 
 112      39756CEE 
 113 0149 F1E08EA7 		.ascii	"\361\340\216\247\224\205\225{\373\214\260\300\200G8"
 113      9485957B 
 113      FB8CB0C0 
 113      804738
 114 0158 B0437B31 		.ascii	"\260C{1a\324\232\264\324a%/\025\271rq\353\327\275\272"
 114      61D49AB4 
 114      D461252F 
 114      15B97271 
 114      EBD7BDBA 
 115 016c 97A8CEE3 		.ascii	"\227\250\316\343\231\265\256\376\374\261\014\265g\325"
 115      99B5AEFE 
 115      FCB10CB5 
 115      67D5
 116 017a 84E87BB8 		.ascii	"\204\350{\270Q\200\377\247#T\340\013z\343,\364Zy\342"
 116      5180FFA7 
 116      2354E00B 
 116      7AE32CF4 
 116      5A79E2
 117 018d 1B280355 		.ascii	"\033(\003U\022B\375\341\027\335\203\240\033\231\353"
 117      1242FDE1 
 117      17DD83A0 
 117      1B99EB
 118 019c FB6AA311 		.ascii	"\373j\243\021\337\353\306w\233K\361R\262\030w\037>h"
 118      DFEBC677 
 118      9B4BF152 
 118      B218771F 
 118      3E68
 119 01ae 37D36E9C 		.ascii	"7\323n\234\266\323\311\261\321\202N\273\367\377\002"
 119      B6D3C9B1 
 119      D1824EBB 
 119      F7FF02
 120 01bd C3D29B1E 		.ascii	"\303\322\233\036"
 121              		.text
 122              		.section	.gnu.lto__writes.7dd04ffb3294d428,"",%progbits
 123 0000 789C8D52 		.ascii	"x\234\215R=K\034Q\024=\347\2757\263\343fW\363\013\202"
 123      3D4B1C51 
 123      143DE7BD 
 123      37B3E366 
 123      57F30B82 
 124 0014 2804A2B0 		.ascii	"(\004\242\260\003\371\027\351#\230r]\214\031pbp\355"
 124      03F917E9 
 124      2398725D 
 124      8C197062 
 124      70ED
 125 0026 52F87637 		.ascii	"R\370v7\205!\215X\211[m )D\022\322\245\020b\221\"\026"
ARM GAS  /tmp/ccnYHqV1.s 			page 9


 125      85218D58 
 125      895B6D20 
 125      294412D2 
 125      A5106291 
 126 003c F9021BAD 		.ascii	"\371\002\033\255\026\202M@Hil\326\373\336\354\323 !"
 126      16824D40 
 126      48696CD6 
 126      FBDEECD3 
 126      2021
 127 004e F1C1DCFB 		.ascii	"\361\301\334\373\346\334{\316\375\230QP\270z\356\312"
 127      E6DC7BCE 
 127      FD985150 
 127      B87AEECA 
 128 005e F34EE03B 		.ascii	"\363N\340;\342\031\201j\375\013\320J\224\322\007)l\331"
 128      E219816A 
 128      FD0BD04A 
 128      94D20729 
 128      6CD9
 129 0070 ECDE82AD 		.ascii	"\354\336\202\255h\232\0026\244\273\200XU\332p\365\001"
 129      689A0236 
 129      A4BB8058 
 129      55DA70F5 
 129      01
 130 0081 BDC85BB5 		.ascii	"\275\310[\265\327\037\014\336\354\376\376\361\230cD"
 130      D71F0CDE 
 130      ECFEFEF1 
 130      986344
 131 0090 4E28E6A4 		.ascii	"N(\346\244AFD\316\304\316\224\004C\"7\216\210QeyU\025"
 131      414644CE 
 131      C4CE9404 
 131      4322378E 
 131      88516579 
 132 00a6 17A83A23 		.ascii	"\027\250:#'\3023k\327\307'\320\263vc\357\303\253}\332"
 132      27C2336B 
 132      D7C727D0 
 132      B37663EF 
 132      C3AB7DDA 
 133 00ba 0DDBFA35 		.ascii	"\015\333\3725\030\214e\324\012\267\211\0061\313\214"
 133      188C65D4 
 133      0AB78906 
 133      31CB8C
 134 00c9 66DCBBC8 		.ascii	"f\334\273\310\\\235\246\341u\356\213um\316P9\257\367"
 134      5C9DA6E1 
 134      75EE8B75 
 134      6DCE5039 
 134      AFF7
 135 00db A1EAECC9 		.ascii	"\241\352\354\311tu\276\344\004\026\004\306g\264\217"
 135      7475BEE4 
 135      041604C6 
 135      67B48F
 136 00ea DE6F550B 		.ascii	"\336oU\013|\201f\032S\031\343.\266D\267$\031N_{\315"
 136      7C81661A 
 136      5319E32E 
 136      B644B724 
 136      194E5F7B 
 137 00ff 390675C7 		.ascii	"9\006u\307\371v#P\242\177QxA\351<\357\274f\340\304R"
 137      F9762350 
ARM GAS  /tmp/ccnYHqV1.s 			page 10


 137      A27F5178 
 137      41E93CEF 
 137      BC66E0C4 
 138 0114 4998C027 		.ascii	"I\230\300'|<nU\377\200K\227C\314\210\312A*]\267\373"
 138      7C3C6E55 
 138      FF804B97 
 138      43CC88CA 
 138      412A5DB7 
 139 0129 3F478B14 		.ascii	"?G\213\024Y\234d\205\260\031N\325NPDX\364vz4\032\024"
 139      599C6485 
 139      B0194ED5 
 139      4E504458 
 139      F4767A34 
 140 013f 13DF1CFF 		.ascii	"\023\337\034\377\336\234\272l\356E\347a\240\214\010"
 140      DE9CBA6C 
 140      EE45E761 
 140      A08C08
 141 014e CBF7F615 		.ascii	"\313\367\366\025q\201\001Oqf\327\354\315\214Ic8\222"
 141      7181014F 
 141      7166D7EC 
 141      CD8C4963 
 141      3892
 142 0160 CF2B4BC9 		.ascii	"\317+K\311L\276\242\257\272\331\275\250Z\231\306\266"
 142      4CBEA2AF 
 142      BAD9BDA8 
 142      5A99C6B6 
 143 0170 B52EFFFF 		.ascii	"\265.\377\377kY\323\201U\025b\230\341^\001^OG\250\300"
 143      6B59D381 
 143      55156298 
 143      E15E015E 
 143      4F47A8C0 
 144 0184 77B4FA27 		.ascii	"w\264\372'q\320\362\201CP\026\252\304\304z\347\204\356"
 144      71D0F281 
 144      435016AA 
 144      C4C47AE7 
 144      84EE
 145 0196 87A05B99 		.ascii	"\207\240[\231\233{\262VK\227\232\351\243\372b\272\230"
 145      9B7BB256 
 145      4B979AE9 
 145      A3FA62BA 
 145      98
 146 01a7 CDA5CD95 		.ascii	"\315\245\315\225\345\371z\336L\363\371|x\2555\240\363"
 146      E5F97ADE 
 146      4CF3F97C 
 146      78AD35A0 
 146      F3
 147 01b8 E693732D 		.ascii	"\346\223s-)\232\020"
 147      299A10
 148              		.text
 149              		.section	.gnu.lto_msObjectInit.7dd04ffb3294d428,"",%progbits
 150 0000 789C8D90 		.ascii	"x\234\215\2201K\003A\020\205\337\233\273\204\003\361"
 150      314B0341 
 150      1085DF9B 
 150      BB8403F1 
 151 0010 07582904 		.ascii	"\007X)\004+\341\356\307\030A\313K\010\361 \213\340\331"
 151      2BE1EEC7 
 151      1841CB4B 
ARM GAS  /tmp/ccnYHqV1.s 			page 11


 151      08F1208B 
 151      E0D9
 152 0022 5964A382 		.ascii	"Yd\243\202\235\244\014\212\202\255E\264Li/\012vvIo\257"
 152      9DA40C8A 
 152      82AD45B4 
 152      4C692F0A 
 152      7676496F 
 153 0037 210871F6 		.ascii	"!\010q\366\366lb\212\014\354\233a\230\357\355\316\012"
 153      F66C628A 
 153      0CEC9B61 
 153      98EFEDCE 
 153      0A
 154 0048 048BB1A1 		.ascii	"\004\213\261\241\347\216\300\266f\006\240\364\337\200"
 154      E78EC0B6 
 154      6606A0F4 
 154      DF80
 155 0056 5E24A42B 		.ascii	"^$\244+@t\205\335\003\026\263\217\362<\231\317\207O"
 155      407485DD 
 155      0316B38F 
 155      F23C99CF 
 155      874F
 156 0068 97C31FDE 		.ascii	"\227\303\037\336\312\232\320\020\241\012\253*\022\251"
 156      CA9AD010 
 156      A10AAB2A 
 156      12A9
 157 0076 043A55C1 		.ascii	"\004:U\301\205\265\375-\240YPuUg\265Gq9x\305\331\354"
 157      85B5FD2D 
 157      A0595075 
 157      5567B547 
 157      713978C5 
 158 008c FCF36A33 		.ascii	"\374\363j3\345=+\330\301\203\325X\317\210\033\\3#\333"
 158      E53D2BD8 
 158      C183D558 
 158      CF881B5C 
 158      3323DB
 159 009f 947DCDFE 		.ascii	"\224}\315\376\245\015\1771N1\263\003kwu\3140,Z\352\363"
 159      A50D7F31 
 159      4E31B303 
 159      6B7775CC 
 159      302C5AEA 
 160 00b4 32FD9A72 		.ascii	"2\375\232r\321'X\356\343\215\332\016v\344\340\373?\031"
 160      D12758EE 
 160      E38DDA0E 
 160      76E4E0FB 
 160      3F19
 161 00c6 2E27A524 		.ascii	".'\245$\253\236\034\255N\006%\031\025\344\350cu\322"
 161      AB9E1CAD 
 161      4E062519 
 161      15E4E863 
 161      75D2
 162 00d8 AFE83A45 		.ascii	"\257\350:E\365\216\336d\\\363\354_\324u%\375OG\324\342"
 162      F58EDE64 
 162      5CF3EC5F 
 162      D47525FD 
 162      4F47D4E2 
 163 00ec 3839CA93 		.ascii	"89\312\223\303\264\223t\262F\222\237\034\267R\223'\246"
 163      C3B49374 
ARM GAS  /tmp/ccnYHqV1.s 			page 12


 163      B246929F 
 163      1CB75293 
 163      27A6
 164 00fe 65CA326E 		.ascii	"e\3122n\342\027\300dl\225"
 164      E217C064 
 164      6C95
 165              		.text
 166              		.section	.gnu.lto_.symbol_nodes.7dd04ffb3294d428,"",%progbits
 167 0000 789C4DC8 		.ascii	"x\234M\310\271\021\2000\020CQi\327\246\015j\243\005"
 167      B9118030 
 167      10435169 
 167      D7A60D6A 
 167      A305
 168 0012 1A902306 		.ascii	"\032\220#\0062\012`H\350\207\006\270s\212 0\201\225"
 168      320A6048 
 168      E88706B8 
 168      738A2030 
 168      8195
 169 0024 FC793218 		.ascii	"\374y2\030Z\374\263\203\002\306\025\220\246\241\261"
 169      5AFCB383 
 169      02C61590 
 169      A6A1B1
 170 0033 9362C19D 		.ascii	"\223b\301\235\262\202\033\345\005o*\374\234{\306\213"
 170      B2821BE5 
 170      056F2AFC 
 170      9C7BC68B 
 171 0043 08723E54 		.ascii	"\010r>T\314oJt\253\260to\355\236\213\017\241\002$\227"
 171      CC6F4A74 
 171      ABB0746F 
 171      ED9E8B0F 
 171      A1022497 
 172              		.text
 173              		.section	.gnu.lto_.refs.7dd04ffb3294d428,"",%progbits
 174 0000 789C6362 		.ascii	"x\234cb`b\340g\200\000F\026&V\026V&f&&&\006&F\006\000"
 174      6062E067 
 174      80004616 
 174      26561656 
 174      26662626 
 175 001a 032D0037 		.ascii	"\003-\0007"
 176              		.text
 177              		.section	.gnu.lto_.decls.7dd04ffb3294d428,"",%progbits
 178 0000 789CBD58 		.ascii	"x\234\275X[l\024U\030>gf\273\355\332\015\"\021Rc\224"
 178      5B6C1455 
 178      183E6766 
 178      BBEDDA0D 
 178      22115263 
 179 0015 A2E00386 		.ascii	"\242\340\003\206N\250<\360\"H\372@}\250\032\025\243"
 179      4EA83CF0 
 179      2248FA40 
 179      7DA81A15 
 179      A3
 180 0026 0F6633DD 		.ascii	"\017f3\335N\3335{\313\316TD\0378\324\012\204\220P\274"
 180      4EDB357B 
 180      CBCE5444 
 180      1F38D40A 
 180      849050BC 
 181 003a 4408E90D 		.ascii	"D\010\351\015\004\243h\270E\001AYZ\305\206\233\324\004"
ARM GAS  /tmp/ccnYHqV1.s 			page 13


 181      04A368B8 
 181      45014159 
 181      5AC5869B 
 181      D404
 182 004c 10086420 		.ascii	"\020\010d \005\274\206B\203\\J]\377s\346\314\356\314"
 182      05BC8642 
 182      835C4A5D 
 182      FF73E6CC 
 182      EECC
 183 005e 746677EB 		.ascii	"tfw\353\203'\375g\317\314\374\377\367\375\347\377\377"
 183      8327FD67 
 183      CFCCFCFF 
 183      F7FDE7FF 
 183      FF
 184 006f 73990A48 		.ascii	"s\231\012H@\323\005\2042\320\316>\200\3200F\310\217"
 184      40D30584 
 184      32D0CE3E 
 184      80D03046 
 184      C88F
 185 0081 109A8772 		.ascii	"\020\232\207r\215\336\367\200\354\0039\0102\000r\036"
 185      8DDEF780 
 185      EC033908 
 185      3200721E 
 186 0091 A41C74E1 		.ascii	"\244\034t\341\017=\214\221\255Q\335\000\310&\220\022"
 186      0F3D8C91 
 186      AD51DD00 
 186      C8269012 
 187 00a1 907E101D 		.ascii	"\220~\020\035d\002H\020\244\017\344\"\3106\020\021d"
 187      64024810 
 187      A40FE422 
 187      C8361011 
 187      64
 188 00b2 046414E4 		.ascii	"\004d\024\344\0162\360\250=\270\204\276\006\331c\207"
 188      0E32F0A8 
 188      3DB884BE 
 188      06D96387 
 189 00c2 663E04B8 		.ascii	"f>\004\270\255\211\347\3441\361E\216\233\261`\357\343"
 189      AD89E7E4 
 189      31F1458E 
 189      9BB160EF 
 189      E3
 190 00d3 BF071CB8 		.ascii	"\277\007\034\270t\\\367Yp\026x\370<\015\214\203x,\266"
 190      745CF759 
 190      701678F8 
 190      3C0D8C83 
 190      782CB6
 191 00e6 C031CAF9 		.ascii	"\3001\312\371\273\343 G@\216:x\006\034<\363\213\340"
 191      BBE32047 
 191      408E3A78 
 191      061C3CF3 
 191      8BE0
 192 00f8 B1C647E0 		.ascii	"\261\306G\340\030&\3179\2203 g\035<\3479\307U\216\247"
 192      1826CF39 
 192      90332067 
 192      1D3CE739 
 192      C7558EA7 
 193 010c 73BE3EFE 		.ascii	"s\276>\376\374\012\3073\2613<.\246]\011\334\224\202"
ARM GAS  /tmp/ccnYHqV1.s 			page 14


 193      FC0AC733 
 193      B1333C2E 
 193      A65D09DC 
 193      9482
 194 011e 948104F0 		.ascii	"\224\201\004\360\330\034OE\235$=\244\377pi\010\257'"
 194      D81C4F45 
 194      9D243DA4 
 194      FF706908 
 194      AF27
 195 0130 E93692C9 		.ascii	"\3516\222\311,ES\320G\004Z\367rB\260\026@+\371Mm?\014"
 195      2C4553D0 
 195      47045AF7 
 195      7242B016 
 195      402BF94D 
 196 0147 EE552CE3 		.ascii	"\356U,\343\011\001T\311:\301\000\362\001\306\014\364"
 196      090154C9 
 196      3AC100F2 
 196      01C60CF4 
 197 0157 0921ED7A 		.ascii	"\011!\355z\307\346\325O\023R&\343M8\000\343{\015\243"
 197      C7E6D54F 
 197      135226E3 
 197      4D3800E3 
 197      7B0DA3
 198 016a 99E83330 		.ascii	"\231\35030m'\344\222\344\240e\255h\350\356\216\037'"
 198      6D27E492 
 198      E4A065AD 
 198      68E8EE8E 
 198      1F27
 199 017c 139F8C3F 		.ascii	"\023\237\214?e\300m\030#\031o\3013\307\013\243\357="
 199      65C06D18 
 199      23196FC1 
 199      33C70BA3 
 199      EF3D
 200 018e BC7B2EF3 		.ascii	"\274{.\363\360s\006\364\215\003H\306\376\200\325?vo"
 200      F07306F4 
 200      8D0348C6 
 200      FE80D53F 
 200      766F
 201 01a0 2A5034B8 		.ascii	"*P4\270\245L\267\351$\303K\371\023zS\212\376w;\267a"
 201      A54CB7E9 
 201      24C34BF9 
 201      137A538A 
 201      FE773BB7 
 202 01b5 52888D78 		.ascii	"R\210\215x\012\353\211\254\304\340\301\374r\263\317"
 202      0AEB89AC 
 202      C4E0C1FC 
 202      72B3CF
 203 01c4 02D54AF4 		.ascii	"\002\325J\364\315\244b].Pe&\002\266\244r\305\227O\262"
 203      CDA4625D 
 203      2E506526 
 203      02B6A472 
 203      C5974FB2 
 204 01d8 406D6381 		.ascii	"@mc\201\372\336-\342E\001\355]\325iD|'\003::&\342\330"
 204      FADE2DE2 
 204      4501ED5D 
 204      D569447C 
 204      27033A3A 
ARM GAS  /tmp/ccnYHqV1.s 			page 15


 205 01ef 11716C8F 		.ascii	"\021ql\217\000{\315;\031{\015\025\243+\343Eb\326@@\247"
 205      007BCD3B 
 205      197B0D15 
 205      A32BE345 
 205      62D64040 
 206 0204 1CF4D3D1 		.ascii	"\034\364\323\321&B\336\207\342\357\027\241\370},V\002"
 206      2642DE87 
 206      E2EF17A1 
 206      F87D2C56 
 206      02
 207 0215 3AC7B47A 		.ascii	":\307\264z\360T\327\0303%nI6\274^a\306\350\202\323\312"
 207      F054D718 
 207      33256E49 
 207      36BC5E61 
 207      C6E882D3 
 208 022a 160E430B 		.ascii	"\026\016C\013\332\023h3M\351\267\203/\324\032\023\005"
 208      DA136833 
 208      4DE9B783 
 208      2FD41A13 
 208      05
 209 023b E5E1E263 		.ascii	"\345\341\342c\370\012\013\326\201\033S6\275\347P\260"
 209      F80A0BD6 
 209      811B5336 
 209      BDE750B0 
 210 024b 7D999EC9 		.ascii	"}\231\236\311L\265MW\003\324\2538\366\273\024\207#F"
 210      4CB54D57 
 210      03D4AB38 
 210      F6BB1487 
 210      2346
 211 025d BA6B8CC8 		.ascii	"\272k\214\310pC-\327\336\015\336\310x_\336\360x\214"
 211      70432DD7 
 211      DE0DDEC8 
 211      785FDEF0 
 211      788C
 212 026f D3CB887B 		.ascii	"\323\313\210{\367\235\3538\257\217\366cp\340^&#\272"
 212      F79DEB38 
 212      AF8FF663 
 212      70E05E26 
 212      23BA
 213 0281 AC4CADC5 		.ascii	"\254L\255\305\314\373\015kN\015\343V\260\221q\037K\326"
 213      CCFB0D6B 
 213      4E0DE356 
 213      B091711F 
 213      4BD6
 214 0293 3AC15987 		.ascii	":\301Y\207%\216:,\261\327VI \327\241\023\360~\357\011"
 214      258E3A2C 
 214      B1D75649 
 214      20D7A113 
 214      F07EEF09 
 215 02a7 D8EB3D01 		.ascii	"\330\353=\001\313\321\252\234\307FIx\241\364\343r\213"
 215      CBD1AA9C 
 215      C7464978 
 215      A1F4E372 
 215      8B
 216 02b8 3F59AC3E 		.ascii	"?Y\254>\243\212\0349\353\022\\\353\372\275\316\316\207"
 216      A38A1C39 
 216      EB125CEB 
ARM GAS  /tmp/ccnYHqV1.s 			page 16


 216      FABDCECE 
 216      87
 217 02c9 48B760CB 		.ascii	"H\267`\313\333\301b\312z\227Rkx \240-\014\332\333\212"
 217      DBC162CA 
 217      7A97526B 
 217      7820A02D 
 217      0CDADB8A 
 218 02dd F9C9CDCE 		.ascii	"\371\311\315\316P3#\300\237\0250\353\263\314\206Vr\200"
 218      503323C0 
 218      9F1530EB 
 218      B3CC8656 
 218      7280
 219 02ef 55491FAF 		.ascii	"UI\037\257\022/+\036\231\303\256U\262_\351'C\220\027"
 219      122F2B1E 
 219      99C3AE55 
 219      B25FE927 
 219      439017
 220 0302 C764E8CB 		.ascii	"\307d\350\313\023\342\237\213LTv\265K{\256v2\336\216"
 220      13E29F8B 
 220      4C5476B5 
 220      4B7BAE76 
 220      32DE8E
 221 0315 67145E91 		.ascii	"g\024^\221\274<99\236douM6\031qL\320\201b\022=@3F\331"
 221      BC3C3939 
 221      9E646F75 
 221      4D361971 
 221      4CD08162 
 222 032f 657CAC80 		.ascii	"e|\254\200\325IK\242o\231\211\226\361O\005\314\362%"
 222      D5494BA2 
 222      6F998996 
 222      F14F05CC 
 222      F225
 223 0341 DACB8A47 		.ascii	"\332\313\212G\345\227\261\211\356\326\323]+\216\270"
 223      E597B189 
 223      EED6D35D 
 223      2B8EB8
 224 0350 2F07329E 		.ascii	"/\0072\2367\3313\302\027\354\271\266\345w\022ZKQ*-\213"
 224      37D933C2 
 224      17ECB9B6 
 224      E577125A 
 224      4B512A2D 
 225 0365 48373601 		.ascii	"H76\001\036D\331U\344\364\007\307f\263\275\354\"\236"
 225      1E44D955 
 225      E4F407C7 
 225      66B3BDEC 
 225      229E
 226 0377 0430A71D 		.ascii	"\0040\247\035y(\010C\375\030\004S\303\210\201\222t\307"
 226      79280843 
 226      FD180453 
 226      C3888192 
 226      74C7
 227 0389 A1203DD9 		.ascii	"\241 =\331\320\347\310\006gk\323P7\370\233\336\261\274"
 227      D0E7C806 
 227      676BD350 
 227      37F89BDE 
 227      B1BC
 228 039b 0B26742F 		.ascii	"\013&t/vs\037\024\260\205\232d\251'\262\252\031\004"
ARM GAS  /tmp/ccnYHqV1.s 			page 17


 228      76731F14 
 228      B0859A64 
 228      A927B2AA 
 228      1904
 229 03ad 6F5D3CB4 		.ascii	"o]<\264\253\311\3707\226\316\337\235^\216\310\225\306"
 229      ABC9F837 
 229      96CEDF9D 
 229      5E8EC895 
 229      C6
 230 03be D3C23E8E 		.ascii	"\323\302>\216\036\013\266\313\216\205\216\3164\257\314"
 230      1E0BB6CB 
 230      8E858ECE 
 230      34AFCC
 231 03cd FC95AB7D 		.ascii	"\374\225\253}\001]g1\245Dn\352\274k4\256`#';\011\011"
 231      015D6731 
 231      A5446EEA 
 231      BC6B34AE 
 231      6023273B 
 232 03e3 F81DE4BD 		.ascii	"\370\035\344\275y\310\207\254\344\267\306M^Y\220|c\036"
 232      79C887AC 
 232      E4B7C64D 
 232      5E59907C 
 232      631E
 233 03f5 F2612BF9 		.ascii	"\362a+\371\275b\310\313\3067\362\375y\310\377\266\222"
 233      BD62C8CB 
 233      C637F2FD 
 233      79C8FFB6 
 233      92
 234 0406 1371BCE4 		.ascii	"\023q\274\344\225\216\344\233U!\343?\3614\270^c\327"
 234      958EE49B 
 234      5521E33F 
 234      F134B85E 
 234      63D7
 235 0418 1BEC7A13 		.ascii	"\033\354z\023\256\331\346\345\317U\253?m\314\237\301"
 235      AED9E6E5 
 235      CF55AB3F 
 235      6DCC9FC1 
 236 0428 FF5A06E9 		.ascii	"\377Z\006\351\235p4\222\315\035l\345\270\301\\\322j"
 236      9D703492 
 236      CD1D6CE5 
 236      B8C15CD2 
 236      6A
 237 0439 EE6B6B8A 		.ascii	"\356kk\212\001+\224&\023\354\303q\203\345\361l]1`\023"
 237      012B9426 
 237      13ECC371 
 237      83E5F16C 
 237      5D316013 
 238 044d 5D3C736B 		.ascii	"]<sk\326\205J\306\227\331\336v\205%\363\016\273\216"
 238      D6854AC6 
 238      97D9DE76 
 238      8525F30E 
 238      BB8E
 239 045f B0EB28BB 		.ascii	"\260\353(\273f\212I\257\236Kov{\343G\034\347vW\350\254"
 239      668A49AF 
 239      9E4B6F76 
 239      7BE3471C 
 239      E77657E8 
ARM GAS  /tmp/ccnYHqV1.s 			page 18


 240 0474 23BA9E75 		.ascii	"#\272\236u.\017\367\373\2143\274\316\262\376\005S;\357"
 240      2E0FF7FB 
 240      8C33BCCE 
 240      B2FE0553 
 240      3BEF
 241 0486 B92FE996 		.ascii	"\271/\351\226\355\354\200y\334\221\361]\266\376y\233"
 241      EDEC8079 
 241      DC91F15D 
 241      B6FE799B 
 242 0496 598E3BE9 		.ascii	"Y\216;\351\035+:\214\343\225\261\023\336+`\312\206\303"
 242      1D2B3A8C 
 242      E395B113 
 242      DE2B60CA 
 242      86C3
 243 04a8 19BB721B 		.ascii	"\031\273r\033\350?\305\230\231\347i\330\375\336\355"
 243      E83FC598 
 243      99E769D8 
 243      FDDEED
 244 04b7 C6C4CFF6 		.ascii	"\306\304\317\366:\304\355lyk\023\306l\232\372v}\340"
 244      3AC4ED6C 
 244      796B13C6 
 244      6C9AFA76 
 244      7DE0
 245 04c9 DCC715EB 		.ascii	"\334\307\025\353I/\375\274\317T\220\364V\354\3309\341"
 245      492FFDBC 
 245      CF5490F4 
 245      56ECD839 
 245      E1
 246 04da 4830969D 		.ascii	"H0\226\235%B@\307Elf\005\276\240\340\206'\350QtA\354"
 246      254240C7 
 246      456C6605 
 246      BEA0E086 
 246      27E85174 
 247 04f0 2065CEC2 		.ascii	" e\316\302Y-x\236\252d\274\3005\343\316/\020[\2069\361"
 247      592D789E 
 247      AA64BCC0 
 247      35E3CE2F 
 247      105B8639 
 248 0505 55AB17D7 		.ascii	"U\253\027\327D\267\177'd\333c\250\207\2348\241_\376"
 248      44B77F27 
 248      64DB63A8 
 248      879C38A1 
 248      5FFE
 249 0517 E3846F19 		.ascii	"\343\204o\031\375\237\006=,`\030\325\257\254\246o\263"
 249      FD9F063D 
 249      2C6018D5 
 249      AFACA66F 
 249      B3
 250 0528 805378D7 		.ascii	"\200Sx\327=\020q\025\332\346\240]de\372\031\323\222"
 250      3D107115 
 250      DAE6A05D 
 250      6465FA19 
 250      D392
 251 053a 2E6DEFA0 		.ascii	".m\357\240\273\004\216\203\273\260\261s\031\207\030"
 251      BB048E83 
 251      BBB0B173 
 251      198718
ARM GAS  /tmp/ccnYHqV1.s 			page 19


 252 0549 66742DF7 		.ascii	"ft-\367\366$6\266\026\343,\313\336\336\310\275\275\211"
 252      F62436B6 
 252      16E32CCB 
 252      DEDEC8BD 
 252      BD89
 253 055b 8DB5DFF8 		.ascii	"\215\265\337\370\356coo\346\336\256\365\033\213\263"
 253      EE636F6F 
 253      E6DEAEF5 
 253      1B8BB3
 254 056a F1B5C49A 		.ascii	"\361\265\304\232cY\247\021\366\232g=B\356$\371xU\225"
 254      6359A711 
 254      F69A673D 
 254      42EE24F9 
 254      785595
 255 057d 9450A566 		.ascii	"\224P\245f9*E#\365\222\252\245\0249\246J1%\306\273U"
 255      392A4523 
 255      F592AAA5 
 255      1439A64A 
 255      3125C6BB 
 256 0592 61546DE8 		.ascii	"aTm\350\204\023\261X\".%\023)M\225\026\274XWS\367\026"
 256      8413B158 
 256      222E2513 
 256      294D9516 
 256      BC585753 
 257 05a8 7D968C44 		.ascii	"}\226\214D\225\224*-\254\251\221\302\315\332\222\244"
 257      95942A2D 
 257      ACA991C2 
 257      CDDA92A4 
 258 05b8 A25635A3 		.ascii	"\242V5\243\222\230\332\024\322\374\013\237[TY\203\036"
 258      9298DA14 
 258      D2FC0B9F 
 258      5B545983 
 258      1E
 259 05c9 915AD494 		.ascii	"\221Z\324\224\024\211\207\243-\015\212\024W\026\033"
 259      148987A3 
 259      2D0D8A14 
 259      57161B
 260 05d8 4C0D91B8 		.ascii	"L\015\221\270\006\252\245\360\363TuH\233\345\246\025"
 260      06AAA5F0 
 260      F3547548 
 260      9BE5A615 
 261 05e8 93C3CD91 		.ascii	"\223\303\315\221\270\"\205\032\224F\271%\252\205L\202"
 261      B822851A 
 261      9446B925 
 261      AA854C82 
 262 05f8 4028C4ED 		.ascii	"@(\304\355J[\24037\244\301\023\336\363\205\222-\232"
 262      4A5BA033 
 262      37A4C113 
 262      DEF38592 
 262      2D9A
 263 060a 1049E27A 		.ascii	"\020I\342z_\250I\321\252\0310Ek\012\207%9\025\233\025"
 263      5FA849D1 
 263      AA193045 
 263      6B0A8725 
 263      39159B15 
 264 061e 4FC49559 		.ascii	"O\304\225Y\212\\\037\221\346T\315\255\252\316\222\202"
 264      8A5C1F91 
ARM GAS  /tmp/ccnYHqV1.s 			page 20


 264      E654CDAD 
 264      AACE9282 
 265 062e 4FC003E8 		.ascii	"O\300\003\350~5\362\266\002\376\207 \004\015\252P\237"
 265      7E35F2B6 
 265      02FE8720 
 265      040DAA50 
 265      9F
 266 063f C4F1D2D0 		.ascii	"\304\361\322\320\342TDS\324\302\001kF\301:%\226H-y\211"
 266      E2544453 
 266      D4C2016B 
 266      46C13A25 
 266      96482D79 
 267 0654 3DA03746 		.ascii	"=\2407F\357\225\272\227K\030\210\217\302\212\340\244"
 267      EF95BA97 
 267      4B18888F 
 267      C28AE0A4 
 268 0664 08EE896F 		.ascii	"\010\356\211o\3064\177}Kc\243\222\362QZQI\250\376Dc"
 268      C6347F7D 
 268      4B63A392 
 268      F2515A51 
 268      49A8FE44 
 269 0679 A3AA68C1 		.ascii	"\243\252h\301\230\372|\375\033JX{6\036\321\304\230\232"
 269      98FA7CFD 
 269      1B4A587B 
 269      361ED1C4 
 269      989A
 270 068b F488642A 		.ascii	"\364\210d*\022o\242\221\204q\305[\242\321\322\306x\245"
 270      126FA291 
 270      8471C55B 
 270      A2D1D2C6 
 270      78A5
 271 069d 9A54C278 		.ascii	"\232T\302x\266\037\334\012'\227\300\013\2559\225X\354"
 271      B61FDC0A 
 271      2797C00B 
 271      AD399558 
 271      EC
 272 06ae 8B2A72E3 		.ascii	"\213*r\343\277\225\0264D"
 272      BF951634 
 272      44
 273              		.text
 274              		.section	.gnu.lto_.symtab.7dd04ffb3294d428,"",%progbits
 275 0000 6D734F62 		.ascii	"msObjectInit\000\000\000\000\000\000\000\000\000\000"
 275      6A656374 
 275      496E6974 
 275      00000000 
 275      00000000 
 276 0016 0000DD00 		.ascii	"\000\000\335\000\000\000"
 276      0000
 277              		.text
 278              		.section	.gnu.lto_.opts,"",%progbits
 279 0000 272D6D63 		.ascii	"'-mcpu=cortex-m3' '-mno-thumb-interwork' '-mthumb' "
 279      70753D63 
 279      6F727465 
 279      782D6D33 
 279      2720272D 
 280 0033 272D6767 		.ascii	"'-ggdb' '-O2' '-fomit-frame-pointer' '-falign-funct"
 280      64622720 
ARM GAS  /tmp/ccnYHqV1.s 			page 21


 280      272D4F32 
 280      2720272D 
 280      666F6D69 
 281 0066 696F6E73 		.ascii	"ions=16' '-ffunction-sections' '-fdata-sections' '-"
 281      3D313627 
 281      20272D66 
 281      66756E63 
 281      74696F6E 
 282 0099 666E6F2D 		.ascii	"fno-common' '-flto'\000"
 282      636F6D6D 
 282      6F6E2720 
 282      272D666C 
 282      746F2700 
 283              		.text
 284              		.cfi_sections	.debug_frame
 285              		.section	.text._put,"ax",%progbits
 286              		.align	2
 287              		.p2align 4,,15
 288              		.thumb
 289              		.thumb_func
 290              		.type	_put, %function
 291              	_put:
 292              	.LFB221:
 293              		.file 1 "../os/hal/lib/streams/memstreams.c"
 294              		.loc 1 66 0
 295              		.cfi_startproc
 296              		@ args = 0, pretend = 0, frame = 0
 297              		@ frame_needed = 0, uses_anonymous_args = 0
 298              		@ link register save eliminated.
 299              	.LVL0:
 300              		.loc 1 69 0
 301 0000 C268     		ldr	r2, [r0, #12]
 302              		.loc 1 66 0
 303 0002 0346     		mov	r3, r0
 304              	.LVL1:
 305              		.loc 1 69 0
 306 0004 8068     		ldr	r0, [r0, #8]
 307              	.LVL2:
 308              		.loc 1 66 0
 309 0006 10B4     		push	{r4}
 310              		.cfi_def_cfa_offset 4
 311              		.cfi_offset 4, -4
 312              		.loc 1 69 0
 313 0008 9042     		cmp	r0, r2
 314              		.loc 1 71 0
 315 000a 1FBF     		itttt	ne
 316 000c 5C68     		ldrne	r4, [r3, #4]
 317              		.loc 1 73 0
 318 000e 0020     		movne	r0, #0
 319              		.loc 1 71 0
 320 0010 A154     		strbne	r1, [r4, r2]
 321              		.loc 1 72 0
 322 0012 DA68     		ldrne	r2, [r3, #12]
 323              		.loc 1 70 0
 324 0014 0EBF     		itee	eq
 325 0016 6FF00100 		mvneq	r0, #1
 326              		.loc 1 72 0
ARM GAS  /tmp/ccnYHqV1.s 			page 22


 327 001a 0132     		addne	r2, r2, #1
 328 001c DA60     		strne	r2, [r3, #12]
 329              		.loc 1 74 0
 330 001e 5DF8044B 		ldr	r4, [sp], #4
 331 0022 7047     		bx	lr
 332              		.cfi_endproc
 333              	.LFE221:
 334              		.size	_put, .-_put
 335 0024 AFF30080 		.section	.text._get,"ax",%progbits
 335      AFF30080 
 335      AFF30080 
 336              		.align	2
 337              		.p2align 4,,15
 338              		.thumb
 339              		.thumb_func
 340              		.type	_get, %function
 341              	_get:
 342              	.LFB222:
 343              		.loc 1 76 0
 344              		.cfi_startproc
 345              		@ args = 0, pretend = 0, frame = 0
 346              		@ frame_needed = 0, uses_anonymous_args = 0
 347              		@ link register save eliminated.
 348              	.LVL3:
 349              		.loc 1 80 0
 350 0000 0369     		ldr	r3, [r0, #16]
 351 0002 C268     		ldr	r2, [r0, #12]
 352 0004 9A42     		cmp	r2, r3
 353              		.loc 1 82 0
 354 0006 1FBF     		itttt	ne
 355 0008 4268     		ldrne	r2, [r0, #4]
 356              		.loc 1 83 0
 357 000a 591C     		addne	r1, r3, #1
 358              		.loc 1 82 0
 359 000c D35C     		ldrbne	r3, [r2, r3]	@ zero_extendqisi2
 360              	.LVL4:
 361              		.loc 1 83 0
 362 000e 0161     		strne	r1, [r0, #16]
 363              		.loc 1 84 0
 364 0010 14BF     		ite	ne
 365 0012 1846     		movne	r0, r3
 366              	.LVL5:
 367              		.loc 1 81 0
 368 0014 6FF00100 		mvneq	r0, #1
 369              		.loc 1 85 0
 370 0018 7047     		bx	lr
 371              		.cfi_endproc
 372              	.LFE222:
 373              		.size	_get, .-_get
 374 001a 00BFAFF3 		.section	.text._reads,"ax",%progbits
 374      0080
 375              		.align	2
 376              		.p2align 4,,15
 377              		.thumb
 378              		.thumb_func
 379              		.type	_reads, %function
 380              	_reads:
ARM GAS  /tmp/ccnYHqV1.s 			page 23


 381              	.LFB220:
 382              		.loc 1 56 0
 383              		.cfi_startproc
 384              		@ args = 0, pretend = 0, frame = 0
 385              		@ frame_needed = 0, uses_anonymous_args = 0
 386              	.LVL6:
 387 0000 70B5     		push	{r4, r5, r6, lr}
 388              		.cfi_def_cfa_offset 16
 389              		.cfi_offset 4, -16
 390              		.cfi_offset 5, -12
 391              		.cfi_offset 6, -8
 392              		.cfi_offset 14, -4
 393              		.loc 1 59 0
 394 0002 0369     		ldr	r3, [r0, #16]
 395 0004 C568     		ldr	r5, [r0, #12]
 396              		.loc 1 61 0
 397 0006 4668     		ldr	r6, [r0, #4]
 398              		.loc 1 59 0
 399 0008 ED1A     		subs	r5, r5, r3
 400 000a AA42     		cmp	r2, r5
 401 000c 38BF     		it	cc
 402 000e 1546     		movcc	r5, r2
 403              		.loc 1 56 0
 404 0010 0446     		mov	r4, r0
 405              	.LVL7:
 406              		.loc 1 61 0
 407 0012 2A46     		mov	r2, r5
 408 0014 0846     		mov	r0, r1
 409              	.LVL8:
 410 0016 F118     		adds	r1, r6, r3
 411              	.LVL9:
 412 0018 FFF7FEFF 		bl	memcpy
 413              	.LVL10:
 414              		.loc 1 62 0
 415 001c 2369     		ldr	r3, [r4, #16]
 416              		.loc 1 64 0
 417 001e 2846     		mov	r0, r5
 418              		.loc 1 62 0
 419 0020 1D44     		add	r5, r5, r3
 420              	.LVL11:
 421 0022 2561     		str	r5, [r4, #16]
 422              		.loc 1 64 0
 423 0024 70BD     		pop	{r4, r5, r6, pc}
 424              		.cfi_endproc
 425              	.LFE220:
 426              		.size	_reads, .-_reads
 427 0026 00BFAFF3 		.section	.text._writes,"ax",%progbits
 427      0080AFF3 
 427      0080
 428              		.align	2
 429              		.p2align 4,,15
 430              		.thumb
 431              		.thumb_func
 432              		.type	_writes, %function
 433              	_writes:
 434              	.LFB219:
 435              		.loc 1 46 0
ARM GAS  /tmp/ccnYHqV1.s 			page 24


 436              		.cfi_startproc
 437              		@ args = 0, pretend = 0, frame = 0
 438              		@ frame_needed = 0, uses_anonymous_args = 0
 439              	.LVL12:
 440 0000 38B5     		push	{r3, r4, r5, lr}
 441              		.cfi_def_cfa_offset 16
 442              		.cfi_offset 3, -16
 443              		.cfi_offset 4, -12
 444              		.cfi_offset 5, -8
 445              		.cfi_offset 14, -4
 446              		.loc 1 49 0
 447 0002 C368     		ldr	r3, [r0, #12]
 448 0004 8568     		ldr	r5, [r0, #8]
 449              		.loc 1 46 0
 450 0006 0446     		mov	r4, r0
 451              	.LVL13:
 452              		.loc 1 49 0
 453 0008 ED1A     		subs	r5, r5, r3
 454              		.loc 1 51 0
 455 000a 4068     		ldr	r0, [r0, #4]
 456              	.LVL14:
 457 000c AA42     		cmp	r2, r5
 458 000e 38BF     		it	cc
 459 0010 1546     		movcc	r5, r2
 460              	.LVL15:
 461 0012 2A46     		mov	r2, r5
 462 0014 1844     		add	r0, r0, r3
 463 0016 FFF7FEFF 		bl	memcpy
 464              	.LVL16:
 465              		.loc 1 52 0
 466 001a E368     		ldr	r3, [r4, #12]
 467              		.loc 1 54 0
 468 001c 2846     		mov	r0, r5
 469              		.loc 1 52 0
 470 001e 1D44     		add	r5, r5, r3
 471              	.LVL17:
 472 0020 E560     		str	r5, [r4, #12]
 473              		.loc 1 54 0
 474 0022 38BD     		pop	{r3, r4, r5, pc}
 475              		.cfi_endproc
 476              	.LFE219:
 477              		.size	_writes, .-_writes
 478 0024 AFF30080 		.section	.text.msObjectInit,"ax",%progbits
 478      AFF30080 
 478      AFF30080 
 479              		.align	2
 480              		.p2align 4,,15
 481              		.global	msObjectInit
 482              		.thumb
 483              		.thumb_func
 484              		.type	msObjectInit, %function
 485              	msObjectInit:
 486              	.LFB223:
 487              		.loc 1 104 0
 488              		.cfi_startproc
 489              		@ args = 0, pretend = 0, frame = 0
 490              		@ frame_needed = 0, uses_anonymous_args = 0
ARM GAS  /tmp/ccnYHqV1.s 			page 25


 491              		@ link register save eliminated.
 492              	.LVL18:
 493 0000 30B4     		push	{r4, r5}
 494              		.cfi_def_cfa_offset 8
 495              		.cfi_offset 4, -8
 496              		.cfi_offset 5, -4
 497              		.loc 1 106 0
 498 0002 40F20004 		movw	r4, #:lower16:.LANCHOR0
 499 0006 C0F20004 		movt	r4, #:upper16:.LANCHOR0
 500              		.loc 1 110 0
 501 000a 0025     		movs	r5, #0
 502              		.loc 1 106 0
 503 000c 0460     		str	r4, [r0]
 504              		.loc 1 110 0
 505 000e 0561     		str	r5, [r0, #16]
 506              		.loc 1 107 0
 507 0010 4160     		str	r1, [r0, #4]
 508              		.loc 1 108 0
 509 0012 8260     		str	r2, [r0, #8]
 510              		.loc 1 109 0
 511 0014 C360     		str	r3, [r0, #12]
 512              		.loc 1 111 0
 513 0016 30BC     		pop	{r4, r5}
 514 0018 7047     		bx	lr
 515              		.cfi_endproc
 516              	.LFE223:
 517              		.size	msObjectInit, .-msObjectInit
 518 001a 00BFAFF3 		.section	.rodata.vmt,"a",%progbits
 518      0080
 519              		.align	2
 520              		.set	.LANCHOR0,. + 0
 521              		.type	vmt, %object
 522              		.size	vmt, 16
 523              	vmt:
 524 0000 00000000 		.word	_writes
 525 0004 00000000 		.word	_reads
 526 0008 00000000 		.word	_put
 527 000c 00000000 		.word	_get
 528              		.text
 529              	.Letext0:
 530              		.file 2 "/usr/lib/gcc/arm-none-eabi/4.8.2/include/stddef.h"
 531              		.file 3 "/usr/include/newlib/machine/_default_types.h"
 532              		.file 4 "/usr/include/newlib/stdint.h"
 533              		.file 5 "../os/common/ports/ARMCMx/compilers/GCC/chtypes.h"
 534              		.file 6 "../os/rt/include/chsystypes.h"
 535              		.file 7 "../os/rt/include/chschd.h"
 536              		.file 8 "../os/common/ports/ARMCMx/chcore.h"
 537              		.file 9 "../os/common/ports/ARMCMx/chcore_v7m.h"
 538              		.file 10 "../os/rt/include/chsem.h"
 539              		.file 11 "../os/rt/include/chmtx.h"
 540              		.file 12 "../os/hal/lib/streams/memstreams.h"
 541              		.file 13 "../os/common/ext/CMSIS/include/core_cm3.h"
 542              		.section	.debug_info,"",%progbits
 543              	.Ldebug_info0:
 544 0000 F0080000 		.4byte	0x8f0
 545 0004 0400     		.2byte	0x4
 546 0006 00000000 		.4byte	.Ldebug_abbrev0
ARM GAS  /tmp/ccnYHqV1.s 			page 26


 547 000a 04       		.byte	0x4
 548 000b 01       		.uleb128 0x1
 549 000c 0D000000 		.4byte	.LASF102
 550 0010 01       		.byte	0x1
 551 0011 CC020000 		.4byte	.LASF103
 552 0015 F2010000 		.4byte	.LASF104
 553 0019 00000000 		.4byte	.Ldebug_ranges0+0
 554 001d 00000000 		.4byte	0
 555 0021 00000000 		.4byte	.Ldebug_line0
 556 0025 02       		.uleb128 0x2
 557 0026 04       		.byte	0x4
 558 0027 05       		.byte	0x5
 559 0028 696E7400 		.ascii	"int\000"
 560 002c 03       		.uleb128 0x3
 561 002d B0000000 		.4byte	.LASF2
 562 0031 02       		.byte	0x2
 563 0032 D4       		.byte	0xd4
 564 0033 37000000 		.4byte	0x37
 565 0037 04       		.uleb128 0x4
 566 0038 04       		.byte	0x4
 567 0039 07       		.byte	0x7
 568 003a 4C040000 		.4byte	.LASF0
 569 003e 04       		.uleb128 0x4
 570 003f 01       		.byte	0x1
 571 0040 06       		.byte	0x6
 572 0041 78010000 		.4byte	.LASF1
 573 0045 03       		.uleb128 0x3
 574 0046 CD000000 		.4byte	.LASF3
 575 004a 03       		.byte	0x3
 576 004b 1C       		.byte	0x1c
 577 004c 50000000 		.4byte	0x50
 578 0050 04       		.uleb128 0x4
 579 0051 01       		.byte	0x1
 580 0052 08       		.byte	0x8
 581 0053 A5030000 		.4byte	.LASF4
 582 0057 04       		.uleb128 0x4
 583 0058 02       		.byte	0x2
 584 0059 05       		.byte	0x5
 585 005a B3030000 		.4byte	.LASF5
 586 005e 03       		.uleb128 0x3
 587 005f 59040000 		.4byte	.LASF6
 588 0063 03       		.byte	0x3
 589 0064 26       		.byte	0x26
 590 0065 69000000 		.4byte	0x69
 591 0069 04       		.uleb128 0x4
 592 006a 02       		.byte	0x2
 593 006b 07       		.byte	0x7
 594 006c 3F020000 		.4byte	.LASF7
 595 0070 03       		.uleb128 0x3
 596 0071 9E020000 		.4byte	.LASF8
 597 0075 03       		.byte	0x3
 598 0076 37       		.byte	0x37
 599 0077 7B000000 		.4byte	0x7b
 600 007b 04       		.uleb128 0x4
 601 007c 04       		.byte	0x4
 602 007d 05       		.byte	0x5
 603 007e 9A010000 		.4byte	.LASF9
ARM GAS  /tmp/ccnYHqV1.s 			page 27


 604 0082 03       		.uleb128 0x3
 605 0083 C8010000 		.4byte	.LASF10
 606 0087 03       		.byte	0x3
 607 0088 38       		.byte	0x38
 608 0089 8D000000 		.4byte	0x8d
 609 008d 04       		.uleb128 0x4
 610 008e 04       		.byte	0x4
 611 008f 07       		.byte	0x7
 612 0090 23040000 		.4byte	.LASF11
 613 0094 04       		.uleb128 0x4
 614 0095 08       		.byte	0x8
 615 0096 05       		.byte	0x5
 616 0097 6A010000 		.4byte	.LASF12
 617 009b 03       		.uleb128 0x3
 618 009c 52030000 		.4byte	.LASF13
 619 00a0 03       		.byte	0x3
 620 00a1 4E       		.byte	0x4e
 621 00a2 A6000000 		.4byte	0xa6
 622 00a6 04       		.uleb128 0x4
 623 00a7 08       		.byte	0x8
 624 00a8 07       		.byte	0x7
 625 00a9 08010000 		.4byte	.LASF14
 626 00ad 04       		.uleb128 0x4
 627 00ae 04       		.byte	0x4
 628 00af 07       		.byte	0x7
 629 00b0 F8020000 		.4byte	.LASF15
 630 00b4 05       		.uleb128 0x5
 631 00b5 04       		.byte	0x4
 632 00b6 04       		.uleb128 0x4
 633 00b7 01       		.byte	0x1
 634 00b8 08       		.byte	0x8
 635 00b9 41040000 		.4byte	.LASF16
 636 00bd 06       		.uleb128 0x6
 637 00be 04       		.byte	0x4
 638 00bf C3000000 		.4byte	0xc3
 639 00c3 07       		.uleb128 0x7
 640 00c4 B6000000 		.4byte	0xb6
 641 00c8 03       		.uleb128 0x3
 642 00c9 B8040000 		.4byte	.LASF17
 643 00cd 04       		.byte	0x4
 644 00ce 2A       		.byte	0x2a
 645 00cf 45000000 		.4byte	0x45
 646 00d3 03       		.uleb128 0x3
 647 00d4 B8010000 		.4byte	.LASF18
 648 00d8 04       		.byte	0x4
 649 00d9 36       		.byte	0x36
 650 00da 5E000000 		.4byte	0x5e
 651 00de 03       		.uleb128 0x3
 652 00df 9D030000 		.4byte	.LASF19
 653 00e3 04       		.byte	0x4
 654 00e4 41       		.byte	0x41
 655 00e5 70000000 		.4byte	0x70
 656 00e9 03       		.uleb128 0x3
 657 00ea F5030000 		.4byte	.LASF20
 658 00ee 04       		.byte	0x4
 659 00ef 42       		.byte	0x42
 660 00f0 82000000 		.4byte	0x82
ARM GAS  /tmp/ccnYHqV1.s 			page 28


 661 00f4 03       		.uleb128 0x3
 662 00f5 C4000000 		.4byte	.LASF21
 663 00f9 04       		.byte	0x4
 664 00fa 4E       		.byte	0x4e
 665 00fb 9B000000 		.4byte	0x9b
 666 00ff 03       		.uleb128 0x3
 667 0100 7C020000 		.4byte	.LASF22
 668 0104 05       		.byte	0x5
 669 0105 3C       		.byte	0x3c
 670 0106 C8000000 		.4byte	0xc8
 671 010a 03       		.uleb128 0x3
 672 010b A3010000 		.4byte	.LASF23
 673 010f 05       		.byte	0x5
 674 0110 3D       		.byte	0x3d
 675 0111 C8000000 		.4byte	0xc8
 676 0115 03       		.uleb128 0x3
 677 0116 05040000 		.4byte	.LASF24
 678 011a 05       		.byte	0x5
 679 011b 3E       		.byte	0x3e
 680 011c C8000000 		.4byte	0xc8
 681 0120 03       		.uleb128 0x3
 682 0121 72030000 		.4byte	.LASF25
 683 0125 05       		.byte	0x5
 684 0126 40       		.byte	0x40
 685 0127 E9000000 		.4byte	0xe9
 686 012b 03       		.uleb128 0x3
 687 012c 61020000 		.4byte	.LASF26
 688 0130 05       		.byte	0x5
 689 0131 41       		.byte	0x41
 690 0132 DE000000 		.4byte	0xde
 691 0136 03       		.uleb128 0x3
 692 0137 92020000 		.4byte	.LASF27
 693 013b 05       		.byte	0x5
 694 013c 43       		.byte	0x43
 695 013d E9000000 		.4byte	0xe9
 696 0141 03       		.uleb128 0x3
 697 0142 EC010000 		.4byte	.LASF28
 698 0146 05       		.byte	0x5
 699 0147 45       		.byte	0x45
 700 0148 DE000000 		.4byte	0xde
 701 014c 03       		.uleb128 0x3
 702 014d 6D040000 		.4byte	.LASF29
 703 0151 06       		.byte	0x6
 704 0152 35       		.byte	0x35
 705 0153 D3000000 		.4byte	0xd3
 706 0157 03       		.uleb128 0x3
 707 0158 64040000 		.4byte	.LASF30
 708 015c 06       		.byte	0x6
 709 015d 3F       		.byte	0x3f
 710 015e 62010000 		.4byte	0x162
 711 0162 08       		.uleb128 0x8
 712 0163 57020000 		.4byte	.LASF48
 713 0167 44       		.byte	0x44
 714 0168 07       		.byte	0x7
 715 0169 9A       		.byte	0x9a
 716 016a 40020000 		.4byte	0x240
 717 016e 09       		.uleb128 0x9
ARM GAS  /tmp/ccnYHqV1.s 			page 29


 718 016f 2E020000 		.4byte	.LASF31
 719 0173 07       		.byte	0x7
 720 0174 9B       		.byte	0x9b
 721 0175 75020000 		.4byte	0x275
 722 0179 00       		.byte	0
 723 017a 09       		.uleb128 0x9
 724 017b 38030000 		.4byte	.LASF32
 725 017f 07       		.byte	0x7
 726 0180 9C       		.byte	0x9c
 727 0181 20010000 		.4byte	0x120
 728 0185 08       		.byte	0x8
 729 0186 0A       		.uleb128 0xa
 730 0187 63747800 		.ascii	"ctx\000"
 731 018b 07       		.byte	0x7
 732 018c 9D       		.byte	0x9d
 733 018d 58040000 		.4byte	0x458
 734 0191 0C       		.byte	0xc
 735 0192 09       		.uleb128 0x9
 736 0193 B3020000 		.4byte	.LASF33
 737 0197 07       		.byte	0x7
 738 0198 9F       		.byte	0x9f
 739 0199 4B020000 		.4byte	0x24b
 740 019d 10       		.byte	0x10
 741 019e 09       		.uleb128 0x9
 742 019f 46040000 		.4byte	.LASF34
 743 01a3 07       		.byte	0x7
 744 01a4 A0       		.byte	0xa0
 745 01a5 4B020000 		.4byte	0x24b
 746 01a9 14       		.byte	0x14
 747 01aa 09       		.uleb128 0x9
 748 01ab 29020000 		.4byte	.LASF35
 749 01af 07       		.byte	0x7
 750 01b0 A7       		.byte	0xa7
 751 01b1 BD000000 		.4byte	0xbd
 752 01b5 18       		.byte	0x18
 753 01b6 09       		.uleb128 0x9
 754 01b7 35040000 		.4byte	.LASF36
 755 01bb 07       		.byte	0x7
 756 01bc B0       		.byte	0xb0
 757 01bd BD050000 		.4byte	0x5bd
 758 01c1 1C       		.byte	0x1c
 759 01c2 09       		.uleb128 0x9
 760 01c3 94010000 		.4byte	.LASF37
 761 01c7 07       		.byte	0x7
 762 01c8 B5       		.byte	0xb5
 763 01c9 0A010000 		.4byte	0x10a
 764 01cd 20       		.byte	0x20
 765 01ce 09       		.uleb128 0x9
 766 01cf C0040000 		.4byte	.LASF38
 767 01d3 07       		.byte	0x7
 768 01d4 B9       		.byte	0xb9
 769 01d5 FF000000 		.4byte	0xff
 770 01d9 21       		.byte	0x21
 771 01da 09       		.uleb128 0x9
 772 01db 5D030000 		.4byte	.LASF39
 773 01df 07       		.byte	0x7
 774 01e0 BE       		.byte	0xbe
ARM GAS  /tmp/ccnYHqV1.s 			page 30


 775 01e1 15010000 		.4byte	0x115
 776 01e5 22       		.byte	0x22
 777 01e6 0B       		.uleb128 0xb
 778 01e7 7500     		.ascii	"u\000"
 779 01e9 07       		.byte	0x7
 780 01ea 0F01     		.2byte	0x10f
 781 01ec F2040000 		.4byte	0x4f2
 782 01f0 24       		.byte	0x24
 783 01f1 0C       		.uleb128 0xc
 784 01f2 DC010000 		.4byte	.LASF40
 785 01f6 07       		.byte	0x7
 786 01f7 1401     		.2byte	0x114
 787 01f9 51020000 		.4byte	0x251
 788 01fd 28       		.byte	0x28
 789 01fe 0C       		.uleb128 0xc
 790 01ff 8B010000 		.4byte	.LASF41
 791 0203 07       		.byte	0x7
 792 0204 1A01     		.2byte	0x11a
 793 0206 75020000 		.4byte	0x275
 794 020a 2C       		.byte	0x2c
 795 020b 0C       		.uleb128 0xc
 796 020c 67020000 		.4byte	.LASF42
 797 0210 07       		.byte	0x7
 798 0211 2001     		.2byte	0x120
 799 0213 36010000 		.4byte	0x136
 800 0217 34       		.byte	0x34
 801 0218 0C       		.uleb128 0xc
 802 0219 E1040000 		.4byte	.LASF43
 803 021d 07       		.byte	0x7
 804 021e 2701     		.2byte	0x127
 805 0220 B7050000 		.4byte	0x5b7
 806 0224 38       		.byte	0x38
 807 0225 0C       		.uleb128 0xc
 808 0226 EF020000 		.4byte	.LASF44
 809 022a 07       		.byte	0x7
 810 022b 2B01     		.2byte	0x12b
 811 022d 20010000 		.4byte	0x120
 812 0231 3C       		.byte	0x3c
 813 0232 0C       		.uleb128 0xc
 814 0233 34020000 		.4byte	.LASF45
 815 0237 07       		.byte	0x7
 816 0238 3201     		.2byte	0x132
 817 023a B4000000 		.4byte	0xb4
 818 023e 40       		.byte	0x40
 819 023f 00       		.byte	0
 820 0240 03       		.uleb128 0x3
 821 0241 01030000 		.4byte	.LASF46
 822 0245 06       		.byte	0x6
 823 0246 44       		.byte	0x44
 824 0247 4B020000 		.4byte	0x24b
 825 024b 06       		.uleb128 0x6
 826 024c 04       		.byte	0x4
 827 024d 57010000 		.4byte	0x157
 828 0251 03       		.uleb128 0x3
 829 0252 D2040000 		.4byte	.LASF47
 830 0256 06       		.byte	0x6
 831 0257 49       		.byte	0x49
ARM GAS  /tmp/ccnYHqV1.s 			page 31


 832 0258 5C020000 		.4byte	0x25c
 833 025c 08       		.uleb128 0x8
 834 025d 0D040000 		.4byte	.LASF49
 835 0261 04       		.byte	0x4
 836 0262 07       		.byte	0x7
 837 0263 88       		.byte	0x88
 838 0264 75020000 		.4byte	0x275
 839 0268 09       		.uleb128 0x9
 840 0269 5E010000 		.4byte	.LASF50
 841 026d 07       		.byte	0x7
 842 026e 89       		.byte	0x89
 843 026f 4B020000 		.4byte	0x24b
 844 0273 00       		.byte	0
 845 0274 00       		.byte	0
 846 0275 03       		.uleb128 0x3
 847 0276 99040000 		.4byte	.LASF51
 848 027a 06       		.byte	0x6
 849 027b 50       		.byte	0x50
 850 027c 80020000 		.4byte	0x280
 851 0280 08       		.uleb128 0x8
 852 0281 E8000000 		.4byte	.LASF52
 853 0285 08       		.byte	0x8
 854 0286 07       		.byte	0x7
 855 0287 8F       		.byte	0x8f
 856 0288 A5020000 		.4byte	0x2a5
 857 028c 09       		.uleb128 0x9
 858 028d 5E010000 		.4byte	.LASF50
 859 0291 07       		.byte	0x7
 860 0292 90       		.byte	0x90
 861 0293 4B020000 		.4byte	0x24b
 862 0297 00       		.byte	0
 863 0298 09       		.uleb128 0x9
 864 0299 D7000000 		.4byte	.LASF53
 865 029d 07       		.byte	0x7
 866 029e 91       		.byte	0x91
 867 029f 4B020000 		.4byte	0x24b
 868 02a3 04       		.byte	0x4
 869 02a4 00       		.byte	0
 870 02a5 03       		.uleb128 0x3
 871 02a6 00000000 		.4byte	.LASF54
 872 02aa 06       		.byte	0x6
 873 02ab 57       		.byte	0x57
 874 02ac B0020000 		.4byte	0x2b0
 875 02b0 0D       		.uleb128 0xd
 876 02b1 84020000 		.4byte	.LASF55
 877 02b5 1C       		.byte	0x1c
 878 02b6 07       		.byte	0x7
 879 02b7 6A01     		.2byte	0x16a
 880 02b9 0C030000 		.4byte	0x30c
 881 02bd 0C       		.uleb128 0xc
 882 02be 2E020000 		.4byte	.LASF31
 883 02c2 07       		.byte	0x7
 884 02c3 6B01     		.2byte	0x16b
 885 02c5 75020000 		.4byte	0x275
 886 02c9 00       		.byte	0
 887 02ca 0C       		.uleb128 0xc
 888 02cb 38030000 		.4byte	.LASF32
ARM GAS  /tmp/ccnYHqV1.s 			page 32


 889 02cf 07       		.byte	0x7
 890 02d0 6C01     		.2byte	0x16c
 891 02d2 20010000 		.4byte	0x120
 892 02d6 08       		.byte	0x8
 893 02d7 0B       		.uleb128 0xb
 894 02d8 63747800 		.ascii	"ctx\000"
 895 02dc 07       		.byte	0x7
 896 02dd 6E01     		.2byte	0x16e
 897 02df 58040000 		.4byte	0x458
 898 02e3 0C       		.byte	0xc
 899 02e4 0C       		.uleb128 0xc
 900 02e5 B3020000 		.4byte	.LASF33
 901 02e9 07       		.byte	0x7
 902 02ea 7101     		.2byte	0x171
 903 02ec 4B020000 		.4byte	0x24b
 904 02f0 10       		.byte	0x10
 905 02f1 0C       		.uleb128 0xc
 906 02f2 46040000 		.4byte	.LASF34
 907 02f6 07       		.byte	0x7
 908 02f7 7201     		.2byte	0x172
 909 02f9 4B020000 		.4byte	0x24b
 910 02fd 14       		.byte	0x14
 911 02fe 0C       		.uleb128 0xc
 912 02ff 3D030000 		.4byte	.LASF56
 913 0303 07       		.byte	0x7
 914 0304 7501     		.2byte	0x175
 915 0306 4B020000 		.4byte	0x24b
 916 030a 18       		.byte	0x18
 917 030b 00       		.byte	0
 918 030c 03       		.uleb128 0x3
 919 030d 77040000 		.4byte	.LASF57
 920 0311 06       		.byte	0x6
 921 0312 5C       		.byte	0x5c
 922 0313 17030000 		.4byte	0x317
 923 0317 06       		.uleb128 0x6
 924 0318 04       		.byte	0x4
 925 0319 1D030000 		.4byte	0x31d
 926 031d 0E       		.uleb128 0xe
 927 031e 28030000 		.4byte	0x328
 928 0322 0F       		.uleb128 0xf
 929 0323 B4000000 		.4byte	0xb4
 930 0327 00       		.byte	0
 931 0328 03       		.uleb128 0x3
 932 0329 62030000 		.4byte	.LASF58
 933 032d 06       		.byte	0x6
 934 032e 61       		.byte	0x61
 935 032f 33030000 		.4byte	0x333
 936 0333 0D       		.uleb128 0xd
 937 0334 D7030000 		.4byte	.LASF59
 938 0338 14       		.byte	0x14
 939 0339 07       		.byte	0x7
 940 033a 4501     		.2byte	0x145
 941 033c 82030000 		.4byte	0x382
 942 0340 0C       		.uleb128 0xc
 943 0341 5E010000 		.4byte	.LASF50
 944 0345 07       		.byte	0x7
 945 0346 4601     		.2byte	0x146
ARM GAS  /tmp/ccnYHqV1.s 			page 33


 946 0348 C3050000 		.4byte	0x5c3
 947 034c 00       		.byte	0
 948 034d 0C       		.uleb128 0xc
 949 034e D7000000 		.4byte	.LASF53
 950 0352 07       		.byte	0x7
 951 0353 4701     		.2byte	0x147
 952 0355 C3050000 		.4byte	0x5c3
 953 0359 04       		.byte	0x4
 954 035a 0C       		.uleb128 0xc
 955 035b B7000000 		.4byte	.LASF60
 956 035f 07       		.byte	0x7
 957 0360 4801     		.2byte	0x148
 958 0362 4C010000 		.4byte	0x14c
 959 0366 08       		.byte	0x8
 960 0367 0C       		.uleb128 0xc
 961 0368 AC010000 		.4byte	.LASF61
 962 036c 07       		.byte	0x7
 963 036d 4901     		.2byte	0x149
 964 036f 0C030000 		.4byte	0x30c
 965 0373 0C       		.byte	0xc
 966 0374 0B       		.uleb128 0xb
 967 0375 70617200 		.ascii	"par\000"
 968 0379 07       		.byte	0x7
 969 037a 4B01     		.2byte	0x14b
 970 037c B4000000 		.4byte	0xb4
 971 0380 10       		.byte	0x10
 972 0381 00       		.byte	0
 973 0382 03       		.uleb128 0x3
 974 0383 3B010000 		.4byte	.LASF62
 975 0387 06       		.byte	0x6
 976 0388 66       		.byte	0x66
 977 0389 8D030000 		.4byte	0x38d
 978 038d 0D       		.uleb128 0xd
 979 038e 14030000 		.4byte	.LASF63
 980 0392 0C       		.byte	0xc
 981 0393 07       		.byte	0x7
 982 0394 5501     		.2byte	0x155
 983 0396 CF030000 		.4byte	0x3cf
 984 039a 0C       		.uleb128 0xc
 985 039b 5E010000 		.4byte	.LASF50
 986 039f 07       		.byte	0x7
 987 03a0 5601     		.2byte	0x156
 988 03a2 C3050000 		.4byte	0x5c3
 989 03a6 00       		.byte	0
 990 03a7 0C       		.uleb128 0xc
 991 03a8 D7000000 		.4byte	.LASF53
 992 03ac 07       		.byte	0x7
 993 03ad 5801     		.2byte	0x158
 994 03af C3050000 		.4byte	0x5c3
 995 03b3 04       		.byte	0x4
 996 03b4 0C       		.uleb128 0xc
 997 03b5 B7000000 		.4byte	.LASF60
 998 03b9 07       		.byte	0x7
 999 03ba 5A01     		.2byte	0x15a
 1000 03bc 4C010000 		.4byte	0x14c
 1001 03c0 08       		.byte	0x8
 1002 03c1 0C       		.uleb128 0xc
ARM GAS  /tmp/ccnYHqV1.s 			page 34


 1003 03c2 BD030000 		.4byte	.LASF64
 1004 03c6 07       		.byte	0x7
 1005 03c7 6201     		.2byte	0x162
 1006 03c9 4C010000 		.4byte	0x14c
 1007 03cd 0A       		.byte	0xa
 1008 03ce 00       		.byte	0
 1009 03cf 03       		.uleb128 0x3
 1010 03d0 F9000000 		.4byte	.LASF65
 1011 03d4 06       		.byte	0x6
 1012 03d5 6B       		.byte	0x6b
 1013 03d6 DA030000 		.4byte	0x3da
 1014 03da 0D       		.uleb128 0xd
 1015 03db 87030000 		.4byte	.LASF66
 1016 03df 04       		.byte	0x4
 1017 03e0 07       		.byte	0x7
 1018 03e1 7C01     		.2byte	0x17c
 1019 03e3 F5030000 		.4byte	0x3f5
 1020 03e7 0C       		.uleb128 0xc
 1021 03e8 80040000 		.4byte	.LASF67
 1022 03ec 07       		.byte	0x7
 1023 03ed 8401     		.2byte	0x184
 1024 03ef C9050000 		.4byte	0x5c9
 1025 03f3 00       		.byte	0
 1026 03f4 00       		.byte	0
 1027 03f5 03       		.uleb128 0x3
 1028 03f6 70020000 		.4byte	.LASF68
 1029 03fa 06       		.byte	0x6
 1030 03fb 70       		.byte	0x70
 1031 03fc 00040000 		.4byte	0x400
 1032 0400 0D       		.uleb128 0xd
 1033 0401 CD030000 		.4byte	.LASF69
 1034 0405 70       		.byte	0x70
 1035 0406 07       		.byte	0x7
 1036 0407 9C01     		.2byte	0x19c
 1037 0409 42040000 		.4byte	0x442
 1038 040d 0C       		.uleb128 0xc
 1039 040e B2040000 		.4byte	.LASF70
 1040 0412 07       		.byte	0x7
 1041 0413 A001     		.2byte	0x1a0
 1042 0415 A5020000 		.4byte	0x2a5
 1043 0419 00       		.byte	0
 1044 041a 0C       		.uleb128 0xc
 1045 041b 84010000 		.4byte	.LASF71
 1046 041f 07       		.byte	0x7
 1047 0420 A401     		.2byte	0x1a4
 1048 0422 82030000 		.4byte	0x382
 1049 0426 1C       		.byte	0x1c
 1050 0427 0B       		.uleb128 0xb
 1051 0428 64626700 		.ascii	"dbg\000"
 1052 042c 07       		.byte	0x7
 1053 042d A801     		.2byte	0x1a8
 1054 042f CF030000 		.4byte	0x3cf
 1055 0433 28       		.byte	0x28
 1056 0434 0C       		.uleb128 0xc
 1057 0435 28010000 		.4byte	.LASF72
 1058 0439 07       		.byte	0x7
 1059 043a AC01     		.2byte	0x1ac
ARM GAS  /tmp/ccnYHqV1.s 			page 35


 1060 043c 57010000 		.4byte	0x157
 1061 0440 2C       		.byte	0x2c
 1062 0441 00       		.byte	0
 1063 0442 03       		.uleb128 0x3
 1064 0443 D3010000 		.4byte	.LASF73
 1065 0447 08       		.byte	0x8
 1066 0448 65       		.byte	0x65
 1067 0449 B4000000 		.4byte	0xb4
 1068 044d 03       		.uleb128 0x3
 1069 044e A8020000 		.4byte	.LASF74
 1070 0452 08       		.byte	0x8
 1071 0453 6D       		.byte	0x6d
 1072 0454 F4000000 		.4byte	0xf4
 1073 0458 08       		.uleb128 0x8
 1074 0459 2B030000 		.4byte	.LASF75
 1075 045d 04       		.byte	0x4
 1076 045e 08       		.byte	0x8
 1077 045f 89       		.byte	0x89
 1078 0460 70040000 		.4byte	0x470
 1079 0464 0A       		.uleb128 0xa
 1080 0465 737000   		.ascii	"sp\000"
 1081 0468 08       		.byte	0x8
 1082 0469 8A       		.byte	0x8a
 1083 046a EC040000 		.4byte	0x4ec
 1084 046e 00       		.byte	0
 1085 046f 00       		.byte	0
 1086 0470 0D       		.uleb128 0xd
 1087 0471 DC000000 		.4byte	.LASF76
 1088 0475 24       		.byte	0x24
 1089 0476 09       		.byte	0x9
 1090 0477 5901     		.2byte	0x159
 1091 0479 EC040000 		.4byte	0x4ec
 1092 047d 0B       		.uleb128 0xb
 1093 047e 723400   		.ascii	"r4\000"
 1094 0481 09       		.byte	0x9
 1095 0482 6C01     		.2byte	0x16c
 1096 0484 42040000 		.4byte	0x442
 1097 0488 00       		.byte	0
 1098 0489 0B       		.uleb128 0xb
 1099 048a 723500   		.ascii	"r5\000"
 1100 048d 09       		.byte	0x9
 1101 048e 6D01     		.2byte	0x16d
 1102 0490 42040000 		.4byte	0x442
 1103 0494 04       		.byte	0x4
 1104 0495 0B       		.uleb128 0xb
 1105 0496 723600   		.ascii	"r6\000"
 1106 0499 09       		.byte	0x9
 1107 049a 6E01     		.2byte	0x16e
 1108 049c 42040000 		.4byte	0x442
 1109 04a0 08       		.byte	0x8
 1110 04a1 0B       		.uleb128 0xb
 1111 04a2 723700   		.ascii	"r7\000"
 1112 04a5 09       		.byte	0x9
 1113 04a6 6F01     		.2byte	0x16f
 1114 04a8 42040000 		.4byte	0x442
 1115 04ac 0C       		.byte	0xc
 1116 04ad 0B       		.uleb128 0xb
ARM GAS  /tmp/ccnYHqV1.s 			page 36


 1117 04ae 723800   		.ascii	"r8\000"
 1118 04b1 09       		.byte	0x9
 1119 04b2 7001     		.2byte	0x170
 1120 04b4 42040000 		.4byte	0x442
 1121 04b8 10       		.byte	0x10
 1122 04b9 0B       		.uleb128 0xb
 1123 04ba 723900   		.ascii	"r9\000"
 1124 04bd 09       		.byte	0x9
 1125 04be 7101     		.2byte	0x171
 1126 04c0 42040000 		.4byte	0x442
 1127 04c4 14       		.byte	0x14
 1128 04c5 0B       		.uleb128 0xb
 1129 04c6 72313000 		.ascii	"r10\000"
 1130 04ca 09       		.byte	0x9
 1131 04cb 7201     		.2byte	0x172
 1132 04cd 42040000 		.4byte	0x442
 1133 04d1 18       		.byte	0x18
 1134 04d2 0B       		.uleb128 0xb
 1135 04d3 72313100 		.ascii	"r11\000"
 1136 04d7 09       		.byte	0x9
 1137 04d8 7301     		.2byte	0x173
 1138 04da 42040000 		.4byte	0x442
 1139 04de 1C       		.byte	0x1c
 1140 04df 0B       		.uleb128 0xb
 1141 04e0 6C7200   		.ascii	"lr\000"
 1142 04e3 09       		.byte	0x9
 1143 04e4 7401     		.2byte	0x174
 1144 04e6 42040000 		.4byte	0x442
 1145 04ea 20       		.byte	0x20
 1146 04eb 00       		.byte	0
 1147 04ec 06       		.uleb128 0x6
 1148 04ed 04       		.byte	0x4
 1149 04ee 70040000 		.4byte	0x470
 1150 04f2 10       		.uleb128 0x10
 1151 04f3 04       		.byte	0x4
 1152 04f4 07       		.byte	0x7
 1153 04f5 D2       		.byte	0xd2
 1154 04f6 55050000 		.4byte	0x555
 1155 04fa 11       		.uleb128 0x11
 1156 04fb BD000000 		.4byte	.LASF77
 1157 04ff 07       		.byte	0x7
 1158 0500 D9       		.byte	0xd9
 1159 0501 2B010000 		.4byte	0x12b
 1160 0505 11       		.uleb128 0x11
 1161 0506 1F010000 		.4byte	.LASF78
 1162 050a 07       		.byte	0x7
 1163 050b E0       		.byte	0xe0
 1164 050c 2B010000 		.4byte	0x12b
 1165 0510 11       		.uleb128 0x11
 1166 0511 CB040000 		.4byte	.LASF79
 1167 0515 07       		.byte	0x7
 1168 0516 E7       		.byte	0xe7
 1169 0517 B4000000 		.4byte	0xb4
 1170 051b 11       		.uleb128 0x11
 1171 051c 23020000 		.4byte	.LASF80
 1172 0520 07       		.byte	0x7
 1173 0521 EE       		.byte	0xee
ARM GAS  /tmp/ccnYHqV1.s 			page 37


 1174 0522 55050000 		.4byte	0x555
 1175 0526 11       		.uleb128 0x11
 1176 0527 33010000 		.4byte	.LASF81
 1177 052b 07       		.byte	0x7
 1178 052c F3       		.byte	0xf3
 1179 052d 2B010000 		.4byte	0x12b
 1180 0531 11       		.uleb128 0x11
 1181 0532 1C020000 		.4byte	.LASF82
 1182 0536 07       		.byte	0x7
 1183 0537 FC       		.byte	0xfc
 1184 0538 80050000 		.4byte	0x580
 1185 053c 12       		.uleb128 0x12
 1186 053d FE030000 		.4byte	.LASF83
 1187 0541 07       		.byte	0x7
 1188 0542 0501     		.2byte	0x105
 1189 0544 B7050000 		.4byte	0x5b7
 1190 0548 12       		.uleb128 0x12
 1191 0549 C6030000 		.4byte	.LASF84
 1192 054d 07       		.byte	0x7
 1193 054e 0D01     		.2byte	0x10d
 1194 0550 36010000 		.4byte	0x136
 1195 0554 00       		.byte	0
 1196 0555 06       		.uleb128 0x6
 1197 0556 04       		.byte	0x4
 1198 0557 40020000 		.4byte	0x240
 1199 055b 08       		.uleb128 0x8
 1200 055c E8030000 		.4byte	.LASF85
 1201 0560 0C       		.byte	0xc
 1202 0561 0A       		.byte	0xa
 1203 0562 34       		.byte	0x34
 1204 0563 80050000 		.4byte	0x580
 1205 0567 09       		.uleb128 0x9
 1206 0568 2E020000 		.4byte	.LASF31
 1207 056c 0A       		.byte	0xa
 1208 056d 35       		.byte	0x35
 1209 056e 75020000 		.4byte	0x275
 1210 0572 00       		.byte	0
 1211 0573 0A       		.uleb128 0xa
 1212 0574 636E7400 		.ascii	"cnt\000"
 1213 0578 0A       		.byte	0xa
 1214 0579 37       		.byte	0x37
 1215 057a 41010000 		.4byte	0x141
 1216 057e 08       		.byte	0x8
 1217 057f 00       		.byte	0
 1218 0580 06       		.uleb128 0x6
 1219 0581 04       		.byte	0x4
 1220 0582 5B050000 		.4byte	0x55b
 1221 0586 08       		.uleb128 0x8
 1222 0587 A9040000 		.4byte	.LASF86
 1223 058b 10       		.byte	0x10
 1224 058c 0B       		.byte	0xb
 1225 058d 39       		.byte	0x39
 1226 058e B7050000 		.4byte	0x5b7
 1227 0592 09       		.uleb128 0x9
 1228 0593 2E020000 		.4byte	.LASF31
 1229 0597 0B       		.byte	0xb
 1230 0598 3A       		.byte	0x3a
ARM GAS  /tmp/ccnYHqV1.s 			page 38


 1231 0599 75020000 		.4byte	0x275
 1232 059d 00       		.byte	0
 1233 059e 09       		.uleb128 0x9
 1234 059f 1D040000 		.4byte	.LASF87
 1235 05a3 0B       		.byte	0xb
 1236 05a4 3C       		.byte	0x3c
 1237 05a5 4B020000 		.4byte	0x24b
 1238 05a9 08       		.byte	0x8
 1239 05aa 09       		.uleb128 0x9
 1240 05ab 5E010000 		.4byte	.LASF50
 1241 05af 0B       		.byte	0xb
 1242 05b0 3E       		.byte	0x3e
 1243 05b1 D9050000 		.4byte	0x5d9
 1244 05b5 0C       		.byte	0xc
 1245 05b6 00       		.byte	0
 1246 05b7 06       		.uleb128 0x6
 1247 05b8 04       		.byte	0x4
 1248 05b9 86050000 		.4byte	0x586
 1249 05bd 06       		.uleb128 0x6
 1250 05be 04       		.byte	0x4
 1251 05bf 4D040000 		.4byte	0x44d
 1252 05c3 06       		.uleb128 0x6
 1253 05c4 04       		.byte	0x4
 1254 05c5 28030000 		.4byte	0x328
 1255 05c9 13       		.uleb128 0x13
 1256 05ca BD000000 		.4byte	0xbd
 1257 05ce 03       		.uleb128 0x3
 1258 05cf E4010000 		.4byte	.LASF88
 1259 05d3 0B       		.byte	0xb
 1260 05d4 34       		.byte	0x34
 1261 05d5 86050000 		.4byte	0x586
 1262 05d9 06       		.uleb128 0x6
 1263 05da 04       		.byte	0x4
 1264 05db CE050000 		.4byte	0x5ce
 1265 05df 04       		.uleb128 0x4
 1266 05e0 01       		.byte	0x1
 1267 05e1 02       		.byte	0x2
 1268 05e2 97030000 		.4byte	.LASF89
 1269 05e6 06       		.uleb128 0x6
 1270 05e7 04       		.byte	0x4
 1271 05e8 C8000000 		.4byte	0xc8
 1272 05ec 14       		.uleb128 0x14
 1273 05ed 2C000000 		.4byte	0x2c
 1274 05f1 05060000 		.4byte	0x605
 1275 05f5 0F       		.uleb128 0xf
 1276 05f6 B4000000 		.4byte	0xb4
 1277 05fa 0F       		.uleb128 0xf
 1278 05fb 05060000 		.4byte	0x605
 1279 05ff 0F       		.uleb128 0xf
 1280 0600 2C000000 		.4byte	0x2c
 1281 0604 00       		.byte	0
 1282 0605 06       		.uleb128 0x6
 1283 0606 04       		.byte	0x4
 1284 0607 0B060000 		.4byte	0x60b
 1285 060b 07       		.uleb128 0x7
 1286 060c C8000000 		.4byte	0xc8
 1287 0610 06       		.uleb128 0x6
ARM GAS  /tmp/ccnYHqV1.s 			page 39


 1288 0611 04       		.byte	0x4
 1289 0612 EC050000 		.4byte	0x5ec
 1290 0616 14       		.uleb128 0x14
 1291 0617 2C000000 		.4byte	0x2c
 1292 061b 2F060000 		.4byte	0x62f
 1293 061f 0F       		.uleb128 0xf
 1294 0620 B4000000 		.4byte	0xb4
 1295 0624 0F       		.uleb128 0xf
 1296 0625 E6050000 		.4byte	0x5e6
 1297 0629 0F       		.uleb128 0xf
 1298 062a 2C000000 		.4byte	0x2c
 1299 062e 00       		.byte	0
 1300 062f 06       		.uleb128 0x6
 1301 0630 04       		.byte	0x4
 1302 0631 16060000 		.4byte	0x616
 1303 0635 14       		.uleb128 0x14
 1304 0636 2B010000 		.4byte	0x12b
 1305 063a 49060000 		.4byte	0x649
 1306 063e 0F       		.uleb128 0xf
 1307 063f B4000000 		.4byte	0xb4
 1308 0643 0F       		.uleb128 0xf
 1309 0644 C8000000 		.4byte	0xc8
 1310 0648 00       		.byte	0
 1311 0649 06       		.uleb128 0x6
 1312 064a 04       		.byte	0x4
 1313 064b 35060000 		.4byte	0x635
 1314 064f 14       		.uleb128 0x14
 1315 0650 2B010000 		.4byte	0x12b
 1316 0654 5E060000 		.4byte	0x65e
 1317 0658 0F       		.uleb128 0xf
 1318 0659 B4000000 		.4byte	0xb4
 1319 065d 00       		.byte	0
 1320 065e 06       		.uleb128 0x6
 1321 065f 04       		.byte	0x4
 1322 0660 4F060000 		.4byte	0x64f
 1323 0664 08       		.uleb128 0x8
 1324 0665 45030000 		.4byte	.LASF90
 1325 0669 10       		.byte	0x10
 1326 066a 0C       		.byte	0xc
 1327 066b 3D       		.byte	0x3d
 1328 066c A1060000 		.4byte	0x6a1
 1329 0670 09       		.uleb128 0x9
 1330 0671 C6020000 		.4byte	.LASF91
 1331 0675 0C       		.byte	0xc
 1332 0676 3E       		.byte	0x3e
 1333 0677 10060000 		.4byte	0x610
 1334 067b 00       		.byte	0
 1335 067c 09       		.uleb128 0x9
 1336 067d 3C040000 		.4byte	.LASF92
 1337 0681 0C       		.byte	0xc
 1338 0682 3E       		.byte	0x3e
 1339 0683 2F060000 		.4byte	0x62f
 1340 0687 04       		.byte	0x4
 1341 0688 0A       		.uleb128 0xa
 1342 0689 70757400 		.ascii	"put\000"
 1343 068d 0C       		.byte	0xc
 1344 068e 3E       		.byte	0x3e
ARM GAS  /tmp/ccnYHqV1.s 			page 40


 1345 068f 49060000 		.4byte	0x649
 1346 0693 08       		.byte	0x8
 1347 0694 0A       		.uleb128 0xa
 1348 0695 67657400 		.ascii	"get\000"
 1349 0699 0C       		.byte	0xc
 1350 069a 3E       		.byte	0x3e
 1351 069b 5E060000 		.4byte	0x65e
 1352 069f 0C       		.byte	0xc
 1353 06a0 00       		.byte	0
 1354 06a1 15       		.uleb128 0x15
 1355 06a2 14       		.byte	0x14
 1356 06a3 0C       		.byte	0xc
 1357 06a4 46       		.byte	0x46
 1358 06a5 E6060000 		.4byte	0x6e6
 1359 06a9 0A       		.uleb128 0xa
 1360 06aa 766D7400 		.ascii	"vmt\000"
 1361 06ae 0C       		.byte	0xc
 1362 06af 48       		.byte	0x48
 1363 06b0 E6060000 		.4byte	0x6e6
 1364 06b4 00       		.byte	0
 1365 06b5 09       		.uleb128 0x9
 1366 06b6 C1010000 		.4byte	.LASF93
 1367 06ba 0C       		.byte	0xc
 1368 06bb 49       		.byte	0x49
 1369 06bc E6050000 		.4byte	0x5e6
 1370 06c0 04       		.byte	0x4
 1371 06c1 09       		.uleb128 0x9
 1372 06c2 3A020000 		.4byte	.LASF94
 1373 06c6 0C       		.byte	0xc
 1374 06c7 49       		.byte	0x49
 1375 06c8 2C000000 		.4byte	0x2c
 1376 06cc 08       		.byte	0x8
 1377 06cd 0A       		.uleb128 0xa
 1378 06ce 656F7300 		.ascii	"eos\000"
 1379 06d2 0C       		.byte	0xc
 1380 06d3 49       		.byte	0x49
 1381 06d4 2C000000 		.4byte	0x2c
 1382 06d8 0C       		.byte	0xc
 1383 06d9 09       		.uleb128 0x9
 1384 06da 8A040000 		.4byte	.LASF95
 1385 06de 0C       		.byte	0xc
 1386 06df 49       		.byte	0x49
 1387 06e0 2C000000 		.4byte	0x2c
 1388 06e4 10       		.byte	0x10
 1389 06e5 00       		.byte	0
 1390 06e6 06       		.uleb128 0x6
 1391 06e7 04       		.byte	0x4
 1392 06e8 EC060000 		.4byte	0x6ec
 1393 06ec 07       		.uleb128 0x7
 1394 06ed 64060000 		.4byte	0x664
 1395 06f1 03       		.uleb128 0x3
 1396 06f2 7A030000 		.4byte	.LASF96
 1397 06f6 0C       		.byte	0xc
 1398 06f7 4A       		.byte	0x4a
 1399 06f8 A1060000 		.4byte	0x6a1
 1400 06fc 16       		.uleb128 0x16
 1401 06fd 52020000 		.4byte	.LASF97
ARM GAS  /tmp/ccnYHqV1.s 			page 41


 1402 0701 01       		.byte	0x1
 1403 0702 42       		.byte	0x42
 1404 0703 2B010000 		.4byte	0x12b
 1405 0707 00000000 		.4byte	.LFB221
 1406 070b 24000000 		.4byte	.LFE221-.LFB221
 1407 070f 01       		.uleb128 0x1
 1408 0710 9C       		.byte	0x9c
 1409 0711 3E070000 		.4byte	0x73e
 1410 0715 17       		.uleb128 0x17
 1411 0716 697000   		.ascii	"ip\000"
 1412 0719 01       		.byte	0x1
 1413 071a 42       		.byte	0x42
 1414 071b B4000000 		.4byte	0xb4
 1415 071f 00000000 		.4byte	.LLST0
 1416 0723 18       		.uleb128 0x18
 1417 0724 6200     		.ascii	"b\000"
 1418 0726 01       		.byte	0x1
 1419 0727 42       		.byte	0x42
 1420 0728 C8000000 		.4byte	0xc8
 1421 072c 01       		.uleb128 0x1
 1422 072d 51       		.byte	0x51
 1423 072e 19       		.uleb128 0x19
 1424 072f 6D737000 		.ascii	"msp\000"
 1425 0733 01       		.byte	0x1
 1426 0734 43       		.byte	0x43
 1427 0735 3E070000 		.4byte	0x73e
 1428 0739 1E000000 		.4byte	.LLST1
 1429 073d 00       		.byte	0
 1430 073e 06       		.uleb128 0x6
 1431 073f 04       		.byte	0x4
 1432 0740 F1060000 		.4byte	0x6f1
 1433 0744 16       		.uleb128 0x16
 1434 0745 C6040000 		.4byte	.LASF98
 1435 0749 01       		.byte	0x1
 1436 074a 4C       		.byte	0x4c
 1437 074b 2B010000 		.4byte	0x12b
 1438 074f 00000000 		.4byte	.LFB222
 1439 0753 1A000000 		.4byte	.LFE222-.LFB222
 1440 0757 01       		.uleb128 0x1
 1441 0758 9C       		.byte	0x9c
 1442 0759 86070000 		.4byte	0x786
 1443 075d 17       		.uleb128 0x17
 1444 075e 697000   		.ascii	"ip\000"
 1445 0761 01       		.byte	0x1
 1446 0762 4C       		.byte	0x4c
 1447 0763 B4000000 		.4byte	0xb4
 1448 0767 3C000000 		.4byte	.LLST2
 1449 076b 1A       		.uleb128 0x1a
 1450 076c 6200     		.ascii	"b\000"
 1451 076e 01       		.byte	0x1
 1452 076f 4D       		.byte	0x4d
 1453 0770 C8000000 		.4byte	0xc8
 1454 0774 01       		.uleb128 0x1
 1455 0775 53       		.byte	0x53
 1456 0776 19       		.uleb128 0x19
 1457 0777 6D737000 		.ascii	"msp\000"
 1458 077b 01       		.byte	0x1
ARM GAS  /tmp/ccnYHqV1.s 			page 42


 1459 077c 4E       		.byte	0x4e
 1460 077d 3E070000 		.4byte	0x73e
 1461 0781 3C000000 		.4byte	.LLST2
 1462 0785 00       		.byte	0
 1463 0786 16       		.uleb128 0x16
 1464 0787 63010000 		.4byte	.LASF99
 1465 078b 01       		.byte	0x1
 1466 078c 38       		.byte	0x38
 1467 078d 2C000000 		.4byte	0x2c
 1468 0791 00000000 		.4byte	.LFB220
 1469 0795 26000000 		.4byte	.LFE220-.LFB220
 1470 0799 01       		.uleb128 0x1
 1471 079a 9C       		.byte	0x9c
 1472 079b EF070000 		.4byte	0x7ef
 1473 079f 17       		.uleb128 0x17
 1474 07a0 697000   		.ascii	"ip\000"
 1475 07a3 01       		.byte	0x1
 1476 07a4 38       		.byte	0x38
 1477 07a5 B4000000 		.4byte	0xb4
 1478 07a9 5D000000 		.4byte	.LLST4
 1479 07ad 17       		.uleb128 0x17
 1480 07ae 627000   		.ascii	"bp\000"
 1481 07b1 01       		.byte	0x1
 1482 07b2 38       		.byte	0x38
 1483 07b3 E6050000 		.4byte	0x5e6
 1484 07b7 7B000000 		.4byte	.LLST5
 1485 07bb 17       		.uleb128 0x17
 1486 07bc 6E00     		.ascii	"n\000"
 1487 07be 01       		.byte	0x1
 1488 07bf 38       		.byte	0x38
 1489 07c0 2C000000 		.4byte	0x2c
 1490 07c4 A7000000 		.4byte	.LLST6
 1491 07c8 19       		.uleb128 0x19
 1492 07c9 6D737000 		.ascii	"msp\000"
 1493 07cd 01       		.byte	0x1
 1494 07ce 39       		.byte	0x39
 1495 07cf 3E070000 		.4byte	0x73e
 1496 07d3 D0000000 		.4byte	.LLST7
 1497 07d7 1B       		.uleb128 0x1b
 1498 07d8 1C000000 		.4byte	.LVL10
 1499 07dc CF080000 		.4byte	0x8cf
 1500 07e0 1C       		.uleb128 0x1c
 1501 07e1 01       		.uleb128 0x1
 1502 07e2 52       		.byte	0x52
 1503 07e3 02       		.uleb128 0x2
 1504 07e4 75       		.byte	0x75
 1505 07e5 00       		.sleb128 0
 1506 07e6 1C       		.uleb128 0x1c
 1507 07e7 01       		.uleb128 0x1
 1508 07e8 50       		.byte	0x50
 1509 07e9 03       		.uleb128 0x3
 1510 07ea F3       		.byte	0xf3
 1511 07eb 01       		.uleb128 0x1
 1512 07ec 51       		.byte	0x51
 1513 07ed 00       		.byte	0
 1514 07ee 00       		.byte	0
 1515 07ef 16       		.uleb128 0x16
ARM GAS  /tmp/ccnYHqV1.s 			page 43


 1516 07f0 91040000 		.4byte	.LASF100
 1517 07f4 01       		.byte	0x1
 1518 07f5 2E       		.byte	0x2e
 1519 07f6 2C000000 		.4byte	0x2c
 1520 07fa 00000000 		.4byte	.LFB219
 1521 07fe 24000000 		.4byte	.LFE219-.LFB219
 1522 0802 01       		.uleb128 0x1
 1523 0803 9C       		.byte	0x9c
 1524 0804 58080000 		.4byte	0x858
 1525 0808 17       		.uleb128 0x17
 1526 0809 697000   		.ascii	"ip\000"
 1527 080c 01       		.byte	0x1
 1528 080d 2E       		.byte	0x2e
 1529 080e B4000000 		.4byte	0xb4
 1530 0812 EE000000 		.4byte	.LLST8
 1531 0816 17       		.uleb128 0x17
 1532 0817 627000   		.ascii	"bp\000"
 1533 081a 01       		.byte	0x1
 1534 081b 2E       		.byte	0x2e
 1535 081c 05060000 		.4byte	0x605
 1536 0820 0C010000 		.4byte	.LLST9
 1537 0824 17       		.uleb128 0x17
 1538 0825 6E00     		.ascii	"n\000"
 1539 0827 01       		.byte	0x1
 1540 0828 2E       		.byte	0x2e
 1541 0829 2C000000 		.4byte	0x2c
 1542 082d 2D010000 		.4byte	.LLST10
 1543 0831 19       		.uleb128 0x19
 1544 0832 6D737000 		.ascii	"msp\000"
 1545 0836 01       		.byte	0x1
 1546 0837 2F       		.byte	0x2f
 1547 0838 3E070000 		.4byte	0x73e
 1548 083c 56010000 		.4byte	.LLST11
 1549 0840 1B       		.uleb128 0x1b
 1550 0841 1A000000 		.4byte	.LVL16
 1551 0845 CF080000 		.4byte	0x8cf
 1552 0849 1C       		.uleb128 0x1c
 1553 084a 01       		.uleb128 0x1
 1554 084b 52       		.byte	0x52
 1555 084c 02       		.uleb128 0x2
 1556 084d 75       		.byte	0x75
 1557 084e 00       		.sleb128 0
 1558 084f 1C       		.uleb128 0x1c
 1559 0850 01       		.uleb128 0x1
 1560 0851 51       		.byte	0x51
 1561 0852 03       		.uleb128 0x3
 1562 0853 F3       		.byte	0xf3
 1563 0854 01       		.uleb128 0x1
 1564 0855 51       		.byte	0x51
 1565 0856 00       		.byte	0
 1566 0857 00       		.byte	0
 1567 0858 1D       		.uleb128 0x1d
 1568 0859 B9020000 		.4byte	.LASF105
 1569 085d 01       		.byte	0x1
 1570 085e 67       		.byte	0x67
 1571 085f 00000000 		.4byte	.LFB223
 1572 0863 1A000000 		.4byte	.LFE223-.LFB223
ARM GAS  /tmp/ccnYHqV1.s 			page 44


 1573 0867 01       		.uleb128 0x1
 1574 0868 9C       		.byte	0x9c
 1575 0869 A2080000 		.4byte	0x8a2
 1576 086d 18       		.uleb128 0x18
 1577 086e 6D737000 		.ascii	"msp\000"
 1578 0872 01       		.byte	0x1
 1579 0873 67       		.byte	0x67
 1580 0874 3E070000 		.4byte	0x73e
 1581 0878 01       		.uleb128 0x1
 1582 0879 50       		.byte	0x50
 1583 087a 1E       		.uleb128 0x1e
 1584 087b C1010000 		.4byte	.LASF93
 1585 087f 01       		.byte	0x1
 1586 0880 67       		.byte	0x67
 1587 0881 E6050000 		.4byte	0x5e6
 1588 0885 01       		.uleb128 0x1
 1589 0886 51       		.byte	0x51
 1590 0887 1E       		.uleb128 0x1e
 1591 0888 3A020000 		.4byte	.LASF94
 1592 088c 01       		.byte	0x1
 1593 088d 68       		.byte	0x68
 1594 088e 2C000000 		.4byte	0x2c
 1595 0892 01       		.uleb128 0x1
 1596 0893 52       		.byte	0x52
 1597 0894 18       		.uleb128 0x18
 1598 0895 656F7300 		.ascii	"eos\000"
 1599 0899 01       		.byte	0x1
 1600 089a 68       		.byte	0x68
 1601 089b 2C000000 		.4byte	0x2c
 1602 089f 01       		.uleb128 0x1
 1603 08a0 53       		.byte	0x53
 1604 08a1 00       		.byte	0
 1605 08a2 1A       		.uleb128 0x1a
 1606 08a3 766D7400 		.ascii	"vmt\000"
 1607 08a7 01       		.byte	0x1
 1608 08a8 57       		.byte	0x57
 1609 08a9 EC060000 		.4byte	0x6ec
 1610 08ad 05       		.uleb128 0x5
 1611 08ae 03       		.byte	0x3
 1612 08af 00000000 		.4byte	vmt
 1613 08b3 1F       		.uleb128 0x1f
 1614 08b4 51010000 		.4byte	.LASF101
 1615 08b8 0D       		.byte	0xd
 1616 08b9 9606     		.2byte	0x696
 1617 08bb BF080000 		.4byte	0x8bf
 1618 08bf 13       		.uleb128 0x13
 1619 08c0 DE000000 		.4byte	0xde
 1620 08c4 20       		.uleb128 0x20
 1621 08c5 636800   		.ascii	"ch\000"
 1622 08c8 07       		.byte	0x7
 1623 08c9 D201     		.2byte	0x1d2
 1624 08cb F5030000 		.4byte	0x3f5
 1625 08cf 21       		.uleb128 0x21
 1626 08d0 B1010000 		.4byte	.LASF106
 1627 08d4 B4000000 		.4byte	0xb4
 1628 08d8 EC080000 		.4byte	0x8ec
 1629 08dc 0F       		.uleb128 0xf
ARM GAS  /tmp/ccnYHqV1.s 			page 45


 1630 08dd B4000000 		.4byte	0xb4
 1631 08e1 0F       		.uleb128 0xf
 1632 08e2 EC080000 		.4byte	0x8ec
 1633 08e6 0F       		.uleb128 0xf
 1634 08e7 AD000000 		.4byte	0xad
 1635 08eb 00       		.byte	0
 1636 08ec 06       		.uleb128 0x6
 1637 08ed 04       		.byte	0x4
 1638 08ee F2080000 		.4byte	0x8f2
 1639 08f2 22       		.uleb128 0x22
 1640 08f3 00       		.byte	0
 1641              		.section	.debug_abbrev,"",%progbits
 1642              	.Ldebug_abbrev0:
 1643 0000 01       		.uleb128 0x1
 1644 0001 11       		.uleb128 0x11
 1645 0002 01       		.byte	0x1
 1646 0003 25       		.uleb128 0x25
 1647 0004 0E       		.uleb128 0xe
 1648 0005 13       		.uleb128 0x13
 1649 0006 0B       		.uleb128 0xb
 1650 0007 03       		.uleb128 0x3
 1651 0008 0E       		.uleb128 0xe
 1652 0009 1B       		.uleb128 0x1b
 1653 000a 0E       		.uleb128 0xe
 1654 000b 55       		.uleb128 0x55
 1655 000c 17       		.uleb128 0x17
 1656 000d 11       		.uleb128 0x11
 1657 000e 01       		.uleb128 0x1
 1658 000f 10       		.uleb128 0x10
 1659 0010 17       		.uleb128 0x17
 1660 0011 00       		.byte	0
 1661 0012 00       		.byte	0
 1662 0013 02       		.uleb128 0x2
 1663 0014 24       		.uleb128 0x24
 1664 0015 00       		.byte	0
 1665 0016 0B       		.uleb128 0xb
 1666 0017 0B       		.uleb128 0xb
 1667 0018 3E       		.uleb128 0x3e
 1668 0019 0B       		.uleb128 0xb
 1669 001a 03       		.uleb128 0x3
 1670 001b 08       		.uleb128 0x8
 1671 001c 00       		.byte	0
 1672 001d 00       		.byte	0
 1673 001e 03       		.uleb128 0x3
 1674 001f 16       		.uleb128 0x16
 1675 0020 00       		.byte	0
 1676 0021 03       		.uleb128 0x3
 1677 0022 0E       		.uleb128 0xe
 1678 0023 3A       		.uleb128 0x3a
 1679 0024 0B       		.uleb128 0xb
 1680 0025 3B       		.uleb128 0x3b
 1681 0026 0B       		.uleb128 0xb
 1682 0027 49       		.uleb128 0x49
 1683 0028 13       		.uleb128 0x13
 1684 0029 00       		.byte	0
 1685 002a 00       		.byte	0
 1686 002b 04       		.uleb128 0x4
ARM GAS  /tmp/ccnYHqV1.s 			page 46


 1687 002c 24       		.uleb128 0x24
 1688 002d 00       		.byte	0
 1689 002e 0B       		.uleb128 0xb
 1690 002f 0B       		.uleb128 0xb
 1691 0030 3E       		.uleb128 0x3e
 1692 0031 0B       		.uleb128 0xb
 1693 0032 03       		.uleb128 0x3
 1694 0033 0E       		.uleb128 0xe
 1695 0034 00       		.byte	0
 1696 0035 00       		.byte	0
 1697 0036 05       		.uleb128 0x5
 1698 0037 0F       		.uleb128 0xf
 1699 0038 00       		.byte	0
 1700 0039 0B       		.uleb128 0xb
 1701 003a 0B       		.uleb128 0xb
 1702 003b 00       		.byte	0
 1703 003c 00       		.byte	0
 1704 003d 06       		.uleb128 0x6
 1705 003e 0F       		.uleb128 0xf
 1706 003f 00       		.byte	0
 1707 0040 0B       		.uleb128 0xb
 1708 0041 0B       		.uleb128 0xb
 1709 0042 49       		.uleb128 0x49
 1710 0043 13       		.uleb128 0x13
 1711 0044 00       		.byte	0
 1712 0045 00       		.byte	0
 1713 0046 07       		.uleb128 0x7
 1714 0047 26       		.uleb128 0x26
 1715 0048 00       		.byte	0
 1716 0049 49       		.uleb128 0x49
 1717 004a 13       		.uleb128 0x13
 1718 004b 00       		.byte	0
 1719 004c 00       		.byte	0
 1720 004d 08       		.uleb128 0x8
 1721 004e 13       		.uleb128 0x13
 1722 004f 01       		.byte	0x1
 1723 0050 03       		.uleb128 0x3
 1724 0051 0E       		.uleb128 0xe
 1725 0052 0B       		.uleb128 0xb
 1726 0053 0B       		.uleb128 0xb
 1727 0054 3A       		.uleb128 0x3a
 1728 0055 0B       		.uleb128 0xb
 1729 0056 3B       		.uleb128 0x3b
 1730 0057 0B       		.uleb128 0xb
 1731 0058 01       		.uleb128 0x1
 1732 0059 13       		.uleb128 0x13
 1733 005a 00       		.byte	0
 1734 005b 00       		.byte	0
 1735 005c 09       		.uleb128 0x9
 1736 005d 0D       		.uleb128 0xd
 1737 005e 00       		.byte	0
 1738 005f 03       		.uleb128 0x3
 1739 0060 0E       		.uleb128 0xe
 1740 0061 3A       		.uleb128 0x3a
 1741 0062 0B       		.uleb128 0xb
 1742 0063 3B       		.uleb128 0x3b
 1743 0064 0B       		.uleb128 0xb
ARM GAS  /tmp/ccnYHqV1.s 			page 47


 1744 0065 49       		.uleb128 0x49
 1745 0066 13       		.uleb128 0x13
 1746 0067 38       		.uleb128 0x38
 1747 0068 0B       		.uleb128 0xb
 1748 0069 00       		.byte	0
 1749 006a 00       		.byte	0
 1750 006b 0A       		.uleb128 0xa
 1751 006c 0D       		.uleb128 0xd
 1752 006d 00       		.byte	0
 1753 006e 03       		.uleb128 0x3
 1754 006f 08       		.uleb128 0x8
 1755 0070 3A       		.uleb128 0x3a
 1756 0071 0B       		.uleb128 0xb
 1757 0072 3B       		.uleb128 0x3b
 1758 0073 0B       		.uleb128 0xb
 1759 0074 49       		.uleb128 0x49
 1760 0075 13       		.uleb128 0x13
 1761 0076 38       		.uleb128 0x38
 1762 0077 0B       		.uleb128 0xb
 1763 0078 00       		.byte	0
 1764 0079 00       		.byte	0
 1765 007a 0B       		.uleb128 0xb
 1766 007b 0D       		.uleb128 0xd
 1767 007c 00       		.byte	0
 1768 007d 03       		.uleb128 0x3
 1769 007e 08       		.uleb128 0x8
 1770 007f 3A       		.uleb128 0x3a
 1771 0080 0B       		.uleb128 0xb
 1772 0081 3B       		.uleb128 0x3b
 1773 0082 05       		.uleb128 0x5
 1774 0083 49       		.uleb128 0x49
 1775 0084 13       		.uleb128 0x13
 1776 0085 38       		.uleb128 0x38
 1777 0086 0B       		.uleb128 0xb
 1778 0087 00       		.byte	0
 1779 0088 00       		.byte	0
 1780 0089 0C       		.uleb128 0xc
 1781 008a 0D       		.uleb128 0xd
 1782 008b 00       		.byte	0
 1783 008c 03       		.uleb128 0x3
 1784 008d 0E       		.uleb128 0xe
 1785 008e 3A       		.uleb128 0x3a
 1786 008f 0B       		.uleb128 0xb
 1787 0090 3B       		.uleb128 0x3b
 1788 0091 05       		.uleb128 0x5
 1789 0092 49       		.uleb128 0x49
 1790 0093 13       		.uleb128 0x13
 1791 0094 38       		.uleb128 0x38
 1792 0095 0B       		.uleb128 0xb
 1793 0096 00       		.byte	0
 1794 0097 00       		.byte	0
 1795 0098 0D       		.uleb128 0xd
 1796 0099 13       		.uleb128 0x13
 1797 009a 01       		.byte	0x1
 1798 009b 03       		.uleb128 0x3
 1799 009c 0E       		.uleb128 0xe
 1800 009d 0B       		.uleb128 0xb
ARM GAS  /tmp/ccnYHqV1.s 			page 48


 1801 009e 0B       		.uleb128 0xb
 1802 009f 3A       		.uleb128 0x3a
 1803 00a0 0B       		.uleb128 0xb
 1804 00a1 3B       		.uleb128 0x3b
 1805 00a2 05       		.uleb128 0x5
 1806 00a3 01       		.uleb128 0x1
 1807 00a4 13       		.uleb128 0x13
 1808 00a5 00       		.byte	0
 1809 00a6 00       		.byte	0
 1810 00a7 0E       		.uleb128 0xe
 1811 00a8 15       		.uleb128 0x15
 1812 00a9 01       		.byte	0x1
 1813 00aa 27       		.uleb128 0x27
 1814 00ab 19       		.uleb128 0x19
 1815 00ac 01       		.uleb128 0x1
 1816 00ad 13       		.uleb128 0x13
 1817 00ae 00       		.byte	0
 1818 00af 00       		.byte	0
 1819 00b0 0F       		.uleb128 0xf
 1820 00b1 05       		.uleb128 0x5
 1821 00b2 00       		.byte	0
 1822 00b3 49       		.uleb128 0x49
 1823 00b4 13       		.uleb128 0x13
 1824 00b5 00       		.byte	0
 1825 00b6 00       		.byte	0
 1826 00b7 10       		.uleb128 0x10
 1827 00b8 17       		.uleb128 0x17
 1828 00b9 01       		.byte	0x1
 1829 00ba 0B       		.uleb128 0xb
 1830 00bb 0B       		.uleb128 0xb
 1831 00bc 3A       		.uleb128 0x3a
 1832 00bd 0B       		.uleb128 0xb
 1833 00be 3B       		.uleb128 0x3b
 1834 00bf 0B       		.uleb128 0xb
 1835 00c0 01       		.uleb128 0x1
 1836 00c1 13       		.uleb128 0x13
 1837 00c2 00       		.byte	0
 1838 00c3 00       		.byte	0
 1839 00c4 11       		.uleb128 0x11
 1840 00c5 0D       		.uleb128 0xd
 1841 00c6 00       		.byte	0
 1842 00c7 03       		.uleb128 0x3
 1843 00c8 0E       		.uleb128 0xe
 1844 00c9 3A       		.uleb128 0x3a
 1845 00ca 0B       		.uleb128 0xb
 1846 00cb 3B       		.uleb128 0x3b
 1847 00cc 0B       		.uleb128 0xb
 1848 00cd 49       		.uleb128 0x49
 1849 00ce 13       		.uleb128 0x13
 1850 00cf 00       		.byte	0
 1851 00d0 00       		.byte	0
 1852 00d1 12       		.uleb128 0x12
 1853 00d2 0D       		.uleb128 0xd
 1854 00d3 00       		.byte	0
 1855 00d4 03       		.uleb128 0x3
 1856 00d5 0E       		.uleb128 0xe
 1857 00d6 3A       		.uleb128 0x3a
ARM GAS  /tmp/ccnYHqV1.s 			page 49


 1858 00d7 0B       		.uleb128 0xb
 1859 00d8 3B       		.uleb128 0x3b
 1860 00d9 05       		.uleb128 0x5
 1861 00da 49       		.uleb128 0x49
 1862 00db 13       		.uleb128 0x13
 1863 00dc 00       		.byte	0
 1864 00dd 00       		.byte	0
 1865 00de 13       		.uleb128 0x13
 1866 00df 35       		.uleb128 0x35
 1867 00e0 00       		.byte	0
 1868 00e1 49       		.uleb128 0x49
 1869 00e2 13       		.uleb128 0x13
 1870 00e3 00       		.byte	0
 1871 00e4 00       		.byte	0
 1872 00e5 14       		.uleb128 0x14
 1873 00e6 15       		.uleb128 0x15
 1874 00e7 01       		.byte	0x1
 1875 00e8 27       		.uleb128 0x27
 1876 00e9 19       		.uleb128 0x19
 1877 00ea 49       		.uleb128 0x49
 1878 00eb 13       		.uleb128 0x13
 1879 00ec 01       		.uleb128 0x1
 1880 00ed 13       		.uleb128 0x13
 1881 00ee 00       		.byte	0
 1882 00ef 00       		.byte	0
 1883 00f0 15       		.uleb128 0x15
 1884 00f1 13       		.uleb128 0x13
 1885 00f2 01       		.byte	0x1
 1886 00f3 0B       		.uleb128 0xb
 1887 00f4 0B       		.uleb128 0xb
 1888 00f5 3A       		.uleb128 0x3a
 1889 00f6 0B       		.uleb128 0xb
 1890 00f7 3B       		.uleb128 0x3b
 1891 00f8 0B       		.uleb128 0xb
 1892 00f9 01       		.uleb128 0x1
 1893 00fa 13       		.uleb128 0x13
 1894 00fb 00       		.byte	0
 1895 00fc 00       		.byte	0
 1896 00fd 16       		.uleb128 0x16
 1897 00fe 2E       		.uleb128 0x2e
 1898 00ff 01       		.byte	0x1
 1899 0100 03       		.uleb128 0x3
 1900 0101 0E       		.uleb128 0xe
 1901 0102 3A       		.uleb128 0x3a
 1902 0103 0B       		.uleb128 0xb
 1903 0104 3B       		.uleb128 0x3b
 1904 0105 0B       		.uleb128 0xb
 1905 0106 27       		.uleb128 0x27
 1906 0107 19       		.uleb128 0x19
 1907 0108 49       		.uleb128 0x49
 1908 0109 13       		.uleb128 0x13
 1909 010a 11       		.uleb128 0x11
 1910 010b 01       		.uleb128 0x1
 1911 010c 12       		.uleb128 0x12
 1912 010d 06       		.uleb128 0x6
 1913 010e 40       		.uleb128 0x40
 1914 010f 18       		.uleb128 0x18
ARM GAS  /tmp/ccnYHqV1.s 			page 50


 1915 0110 9742     		.uleb128 0x2117
 1916 0112 19       		.uleb128 0x19
 1917 0113 01       		.uleb128 0x1
 1918 0114 13       		.uleb128 0x13
 1919 0115 00       		.byte	0
 1920 0116 00       		.byte	0
 1921 0117 17       		.uleb128 0x17
 1922 0118 05       		.uleb128 0x5
 1923 0119 00       		.byte	0
 1924 011a 03       		.uleb128 0x3
 1925 011b 08       		.uleb128 0x8
 1926 011c 3A       		.uleb128 0x3a
 1927 011d 0B       		.uleb128 0xb
 1928 011e 3B       		.uleb128 0x3b
 1929 011f 0B       		.uleb128 0xb
 1930 0120 49       		.uleb128 0x49
 1931 0121 13       		.uleb128 0x13
 1932 0122 02       		.uleb128 0x2
 1933 0123 17       		.uleb128 0x17
 1934 0124 00       		.byte	0
 1935 0125 00       		.byte	0
 1936 0126 18       		.uleb128 0x18
 1937 0127 05       		.uleb128 0x5
 1938 0128 00       		.byte	0
 1939 0129 03       		.uleb128 0x3
 1940 012a 08       		.uleb128 0x8
 1941 012b 3A       		.uleb128 0x3a
 1942 012c 0B       		.uleb128 0xb
 1943 012d 3B       		.uleb128 0x3b
 1944 012e 0B       		.uleb128 0xb
 1945 012f 49       		.uleb128 0x49
 1946 0130 13       		.uleb128 0x13
 1947 0131 02       		.uleb128 0x2
 1948 0132 18       		.uleb128 0x18
 1949 0133 00       		.byte	0
 1950 0134 00       		.byte	0
 1951 0135 19       		.uleb128 0x19
 1952 0136 34       		.uleb128 0x34
 1953 0137 00       		.byte	0
 1954 0138 03       		.uleb128 0x3
 1955 0139 08       		.uleb128 0x8
 1956 013a 3A       		.uleb128 0x3a
 1957 013b 0B       		.uleb128 0xb
 1958 013c 3B       		.uleb128 0x3b
 1959 013d 0B       		.uleb128 0xb
 1960 013e 49       		.uleb128 0x49
 1961 013f 13       		.uleb128 0x13
 1962 0140 02       		.uleb128 0x2
 1963 0141 17       		.uleb128 0x17
 1964 0142 00       		.byte	0
 1965 0143 00       		.byte	0
 1966 0144 1A       		.uleb128 0x1a
 1967 0145 34       		.uleb128 0x34
 1968 0146 00       		.byte	0
 1969 0147 03       		.uleb128 0x3
 1970 0148 08       		.uleb128 0x8
 1971 0149 3A       		.uleb128 0x3a
ARM GAS  /tmp/ccnYHqV1.s 			page 51


 1972 014a 0B       		.uleb128 0xb
 1973 014b 3B       		.uleb128 0x3b
 1974 014c 0B       		.uleb128 0xb
 1975 014d 49       		.uleb128 0x49
 1976 014e 13       		.uleb128 0x13
 1977 014f 02       		.uleb128 0x2
 1978 0150 18       		.uleb128 0x18
 1979 0151 00       		.byte	0
 1980 0152 00       		.byte	0
 1981 0153 1B       		.uleb128 0x1b
 1982 0154 898201   		.uleb128 0x4109
 1983 0157 01       		.byte	0x1
 1984 0158 11       		.uleb128 0x11
 1985 0159 01       		.uleb128 0x1
 1986 015a 31       		.uleb128 0x31
 1987 015b 13       		.uleb128 0x13
 1988 015c 00       		.byte	0
 1989 015d 00       		.byte	0
 1990 015e 1C       		.uleb128 0x1c
 1991 015f 8A8201   		.uleb128 0x410a
 1992 0162 00       		.byte	0
 1993 0163 02       		.uleb128 0x2
 1994 0164 18       		.uleb128 0x18
 1995 0165 9142     		.uleb128 0x2111
 1996 0167 18       		.uleb128 0x18
 1997 0168 00       		.byte	0
 1998 0169 00       		.byte	0
 1999 016a 1D       		.uleb128 0x1d
 2000 016b 2E       		.uleb128 0x2e
 2001 016c 01       		.byte	0x1
 2002 016d 3F       		.uleb128 0x3f
 2003 016e 19       		.uleb128 0x19
 2004 016f 03       		.uleb128 0x3
 2005 0170 0E       		.uleb128 0xe
 2006 0171 3A       		.uleb128 0x3a
 2007 0172 0B       		.uleb128 0xb
 2008 0173 3B       		.uleb128 0x3b
 2009 0174 0B       		.uleb128 0xb
 2010 0175 27       		.uleb128 0x27
 2011 0176 19       		.uleb128 0x19
 2012 0177 11       		.uleb128 0x11
 2013 0178 01       		.uleb128 0x1
 2014 0179 12       		.uleb128 0x12
 2015 017a 06       		.uleb128 0x6
 2016 017b 40       		.uleb128 0x40
 2017 017c 18       		.uleb128 0x18
 2018 017d 9742     		.uleb128 0x2117
 2019 017f 19       		.uleb128 0x19
 2020 0180 01       		.uleb128 0x1
 2021 0181 13       		.uleb128 0x13
 2022 0182 00       		.byte	0
 2023 0183 00       		.byte	0
 2024 0184 1E       		.uleb128 0x1e
 2025 0185 05       		.uleb128 0x5
 2026 0186 00       		.byte	0
 2027 0187 03       		.uleb128 0x3
 2028 0188 0E       		.uleb128 0xe
ARM GAS  /tmp/ccnYHqV1.s 			page 52


 2029 0189 3A       		.uleb128 0x3a
 2030 018a 0B       		.uleb128 0xb
 2031 018b 3B       		.uleb128 0x3b
 2032 018c 0B       		.uleb128 0xb
 2033 018d 49       		.uleb128 0x49
 2034 018e 13       		.uleb128 0x13
 2035 018f 02       		.uleb128 0x2
 2036 0190 18       		.uleb128 0x18
 2037 0191 00       		.byte	0
 2038 0192 00       		.byte	0
 2039 0193 1F       		.uleb128 0x1f
 2040 0194 34       		.uleb128 0x34
 2041 0195 00       		.byte	0
 2042 0196 03       		.uleb128 0x3
 2043 0197 0E       		.uleb128 0xe
 2044 0198 3A       		.uleb128 0x3a
 2045 0199 0B       		.uleb128 0xb
 2046 019a 3B       		.uleb128 0x3b
 2047 019b 05       		.uleb128 0x5
 2048 019c 49       		.uleb128 0x49
 2049 019d 13       		.uleb128 0x13
 2050 019e 3F       		.uleb128 0x3f
 2051 019f 19       		.uleb128 0x19
 2052 01a0 3C       		.uleb128 0x3c
 2053 01a1 19       		.uleb128 0x19
 2054 01a2 00       		.byte	0
 2055 01a3 00       		.byte	0
 2056 01a4 20       		.uleb128 0x20
 2057 01a5 34       		.uleb128 0x34
 2058 01a6 00       		.byte	0
 2059 01a7 03       		.uleb128 0x3
 2060 01a8 08       		.uleb128 0x8
 2061 01a9 3A       		.uleb128 0x3a
 2062 01aa 0B       		.uleb128 0xb
 2063 01ab 3B       		.uleb128 0x3b
 2064 01ac 05       		.uleb128 0x5
 2065 01ad 49       		.uleb128 0x49
 2066 01ae 13       		.uleb128 0x13
 2067 01af 3F       		.uleb128 0x3f
 2068 01b0 19       		.uleb128 0x19
 2069 01b1 3C       		.uleb128 0x3c
 2070 01b2 19       		.uleb128 0x19
 2071 01b3 00       		.byte	0
 2072 01b4 00       		.byte	0
 2073 01b5 21       		.uleb128 0x21
 2074 01b6 2E       		.uleb128 0x2e
 2075 01b7 01       		.byte	0x1
 2076 01b8 3F       		.uleb128 0x3f
 2077 01b9 19       		.uleb128 0x19
 2078 01ba 03       		.uleb128 0x3
 2079 01bb 0E       		.uleb128 0xe
 2080 01bc 27       		.uleb128 0x27
 2081 01bd 19       		.uleb128 0x19
 2082 01be 49       		.uleb128 0x49
 2083 01bf 13       		.uleb128 0x13
 2084 01c0 34       		.uleb128 0x34
 2085 01c1 19       		.uleb128 0x19
ARM GAS  /tmp/ccnYHqV1.s 			page 53


 2086 01c2 3C       		.uleb128 0x3c
 2087 01c3 19       		.uleb128 0x19
 2088 01c4 01       		.uleb128 0x1
 2089 01c5 13       		.uleb128 0x13
 2090 01c6 00       		.byte	0
 2091 01c7 00       		.byte	0
 2092 01c8 22       		.uleb128 0x22
 2093 01c9 26       		.uleb128 0x26
 2094 01ca 00       		.byte	0
 2095 01cb 00       		.byte	0
 2096 01cc 00       		.byte	0
 2097 01cd 00       		.byte	0
 2098              		.section	.debug_loc,"",%progbits
 2099              	.Ldebug_loc0:
 2100              	.LLST0:
 2101 0000 00000000 		.4byte	.LVL0
 2102 0004 06000000 		.4byte	.LVL2
 2103 0008 0100     		.2byte	0x1
 2104 000a 50       		.byte	0x50
 2105 000b 06000000 		.4byte	.LVL2
 2106 000f 24000000 		.4byte	.LFE221
 2107 0013 0100     		.2byte	0x1
 2108 0015 53       		.byte	0x53
 2109 0016 00000000 		.4byte	0
 2110 001a 00000000 		.4byte	0
 2111              	.LLST1:
 2112 001e 04000000 		.4byte	.LVL1
 2113 0022 06000000 		.4byte	.LVL2
 2114 0026 0100     		.2byte	0x1
 2115 0028 50       		.byte	0x50
 2116 0029 06000000 		.4byte	.LVL2
 2117 002d 24000000 		.4byte	.LFE221
 2118 0031 0100     		.2byte	0x1
 2119 0033 53       		.byte	0x53
 2120 0034 00000000 		.4byte	0
 2121 0038 00000000 		.4byte	0
 2122              	.LLST2:
 2123 003c 00000000 		.4byte	.LVL3
 2124 0040 14000000 		.4byte	.LVL5
 2125 0044 0100     		.2byte	0x1
 2126 0046 50       		.byte	0x50
 2127 0047 14000000 		.4byte	.LVL5
 2128 004b 1A000000 		.4byte	.LFE222
 2129 004f 0400     		.2byte	0x4
 2130 0051 F3       		.byte	0xf3
 2131 0052 01       		.uleb128 0x1
 2132 0053 50       		.byte	0x50
 2133 0054 9F       		.byte	0x9f
 2134 0055 00000000 		.4byte	0
 2135 0059 00000000 		.4byte	0
 2136              	.LLST4:
 2137 005d 00000000 		.4byte	.LVL6
 2138 0061 16000000 		.4byte	.LVL8
 2139 0065 0100     		.2byte	0x1
 2140 0067 50       		.byte	0x50
 2141 0068 16000000 		.4byte	.LVL8
 2142 006c 26000000 		.4byte	.LFE220
ARM GAS  /tmp/ccnYHqV1.s 			page 54


 2143 0070 0100     		.2byte	0x1
 2144 0072 54       		.byte	0x54
 2145 0073 00000000 		.4byte	0
 2146 0077 00000000 		.4byte	0
 2147              	.LLST5:
 2148 007b 00000000 		.4byte	.LVL6
 2149 007f 18000000 		.4byte	.LVL9
 2150 0083 0100     		.2byte	0x1
 2151 0085 51       		.byte	0x51
 2152 0086 18000000 		.4byte	.LVL9
 2153 008a 1B000000 		.4byte	.LVL10-1
 2154 008e 0100     		.2byte	0x1
 2155 0090 50       		.byte	0x50
 2156 0091 1B000000 		.4byte	.LVL10-1
 2157 0095 26000000 		.4byte	.LFE220
 2158 0099 0400     		.2byte	0x4
 2159 009b F3       		.byte	0xf3
 2160 009c 01       		.uleb128 0x1
 2161 009d 51       		.byte	0x51
 2162 009e 9F       		.byte	0x9f
 2163 009f 00000000 		.4byte	0
 2164 00a3 00000000 		.4byte	0
 2165              	.LLST6:
 2166 00a7 00000000 		.4byte	.LVL6
 2167 00ab 12000000 		.4byte	.LVL7
 2168 00af 0100     		.2byte	0x1
 2169 00b1 52       		.byte	0x52
 2170 00b2 12000000 		.4byte	.LVL7
 2171 00b6 22000000 		.4byte	.LVL11
 2172 00ba 0100     		.2byte	0x1
 2173 00bc 55       		.byte	0x55
 2174 00bd 22000000 		.4byte	.LVL11
 2175 00c1 26000000 		.4byte	.LFE220
 2176 00c5 0100     		.2byte	0x1
 2177 00c7 50       		.byte	0x50
 2178 00c8 00000000 		.4byte	0
 2179 00cc 00000000 		.4byte	0
 2180              	.LLST7:
 2181 00d0 12000000 		.4byte	.LVL7
 2182 00d4 16000000 		.4byte	.LVL8
 2183 00d8 0100     		.2byte	0x1
 2184 00da 50       		.byte	0x50
 2185 00db 16000000 		.4byte	.LVL8
 2186 00df 26000000 		.4byte	.LFE220
 2187 00e3 0100     		.2byte	0x1
 2188 00e5 54       		.byte	0x54
 2189 00e6 00000000 		.4byte	0
 2190 00ea 00000000 		.4byte	0
 2191              	.LLST8:
 2192 00ee 00000000 		.4byte	.LVL12
 2193 00f2 0C000000 		.4byte	.LVL14
 2194 00f6 0100     		.2byte	0x1
 2195 00f8 50       		.byte	0x50
 2196 00f9 0C000000 		.4byte	.LVL14
 2197 00fd 24000000 		.4byte	.LFE219
 2198 0101 0100     		.2byte	0x1
 2199 0103 54       		.byte	0x54
ARM GAS  /tmp/ccnYHqV1.s 			page 55


 2200 0104 00000000 		.4byte	0
 2201 0108 00000000 		.4byte	0
 2202              	.LLST9:
 2203 010c 00000000 		.4byte	.LVL12
 2204 0110 19000000 		.4byte	.LVL16-1
 2205 0114 0100     		.2byte	0x1
 2206 0116 51       		.byte	0x51
 2207 0117 19000000 		.4byte	.LVL16-1
 2208 011b 24000000 		.4byte	.LFE219
 2209 011f 0400     		.2byte	0x4
 2210 0121 F3       		.byte	0xf3
 2211 0122 01       		.uleb128 0x1
 2212 0123 51       		.byte	0x51
 2213 0124 9F       		.byte	0x9f
 2214 0125 00000000 		.4byte	0
 2215 0129 00000000 		.4byte	0
 2216              	.LLST10:
 2217 012d 00000000 		.4byte	.LVL12
 2218 0131 12000000 		.4byte	.LVL15
 2219 0135 0100     		.2byte	0x1
 2220 0137 52       		.byte	0x52
 2221 0138 12000000 		.4byte	.LVL15
 2222 013c 20000000 		.4byte	.LVL17
 2223 0140 0100     		.2byte	0x1
 2224 0142 55       		.byte	0x55
 2225 0143 20000000 		.4byte	.LVL17
 2226 0147 24000000 		.4byte	.LFE219
 2227 014b 0100     		.2byte	0x1
 2228 014d 50       		.byte	0x50
 2229 014e 00000000 		.4byte	0
 2230 0152 00000000 		.4byte	0
 2231              	.LLST11:
 2232 0156 08000000 		.4byte	.LVL13
 2233 015a 0C000000 		.4byte	.LVL14
 2234 015e 0100     		.2byte	0x1
 2235 0160 50       		.byte	0x50
 2236 0161 0C000000 		.4byte	.LVL14
 2237 0165 24000000 		.4byte	.LFE219
 2238 0169 0100     		.2byte	0x1
 2239 016b 54       		.byte	0x54
 2240 016c 00000000 		.4byte	0
 2241 0170 00000000 		.4byte	0
 2242              		.section	.debug_aranges,"",%progbits
 2243 0000 3C000000 		.4byte	0x3c
 2244 0004 0200     		.2byte	0x2
 2245 0006 00000000 		.4byte	.Ldebug_info0
 2246 000a 04       		.byte	0x4
 2247 000b 00       		.byte	0
 2248 000c 0000     		.2byte	0
 2249 000e 0000     		.2byte	0
 2250 0010 00000000 		.4byte	.LFB221
 2251 0014 24000000 		.4byte	.LFE221-.LFB221
 2252 0018 00000000 		.4byte	.LFB222
 2253 001c 1A000000 		.4byte	.LFE222-.LFB222
 2254 0020 00000000 		.4byte	.LFB220
 2255 0024 26000000 		.4byte	.LFE220-.LFB220
 2256 0028 00000000 		.4byte	.LFB219
ARM GAS  /tmp/ccnYHqV1.s 			page 56


 2257 002c 24000000 		.4byte	.LFE219-.LFB219
 2258 0030 00000000 		.4byte	.LFB223
 2259 0034 1A000000 		.4byte	.LFE223-.LFB223
 2260 0038 00000000 		.4byte	0
 2261 003c 00000000 		.4byte	0
 2262              		.section	.debug_ranges,"",%progbits
 2263              	.Ldebug_ranges0:
 2264 0000 00000000 		.4byte	.LFB221
 2265 0004 24000000 		.4byte	.LFE221
 2266 0008 00000000 		.4byte	.LFB222
 2267 000c 1A000000 		.4byte	.LFE222
 2268 0010 00000000 		.4byte	.LFB220
 2269 0014 26000000 		.4byte	.LFE220
 2270 0018 00000000 		.4byte	.LFB219
 2271 001c 24000000 		.4byte	.LFE219
 2272 0020 00000000 		.4byte	.LFB223
 2273 0024 1A000000 		.4byte	.LFE223
 2274 0028 00000000 		.4byte	0
 2275 002c 00000000 		.4byte	0
 2276              		.section	.debug_line,"",%progbits
 2277              	.Ldebug_line0:
 2278 0000 2A020000 		.section	.debug_str,"MS",%progbits,1
 2278      0200A901 
 2278      00000201 
 2278      FB0E0D00 
 2278      01010101 
 2279              	.LASF54:
 2280 0000 72656164 		.ascii	"ready_list_t\000"
 2280      795F6C69 
 2280      73745F74 
 2280      00
 2281              	.LASF102:
 2282 000d 474E5520 		.ascii	"GNU C 4.8.2 -mcpu=cortex-m3 -mno-thumb-interwork -m"
 2282      4320342E 
 2282      382E3220 
 2282      2D6D6370 
 2282      753D636F 
 2283 0040 7468756D 		.ascii	"thumb -ggdb -O2 -fomit-frame-pointer -falign-functi"
 2283      62202D67 
 2283      67646220 
 2283      2D4F3220 
 2283      2D666F6D 
 2284 0073 6F6E733D 		.ascii	"ons=16 -ffunction-sections -fdata-sections -fno-com"
 2284      3136202D 
 2284      6666756E 
 2284      6374696F 
 2284      6E2D7365 
 2285 00a6 6D6F6E20 		.ascii	"mon -flto\000"
 2285      2D666C74 
 2285      6F00
 2286              	.LASF2:
 2287 00b0 73697A65 		.ascii	"size_t\000"
 2287      5F7400
 2288              	.LASF60:
 2289 00b7 64656C74 		.ascii	"delta\000"
 2289      6100
 2290              	.LASF77:
ARM GAS  /tmp/ccnYHqV1.s 			page 57


 2291 00bd 7264796D 		.ascii	"rdymsg\000"
 2291      736700
 2292              	.LASF21:
 2293 00c4 75696E74 		.ascii	"uint64_t\000"
 2293      36345F74 
 2293      00
 2294              	.LASF3:
 2295 00cd 5F5F7569 		.ascii	"__uint8_t\000"
 2295      6E74385F 
 2295      7400
 2296              	.LASF53:
 2297 00d7 70726576 		.ascii	"prev\000"
 2297      00
 2298              	.LASF76:
 2299 00dc 706F7274 		.ascii	"port_intctx\000"
 2299      5F696E74 
 2299      63747800 
 2300              	.LASF52:
 2301 00e8 63685F74 		.ascii	"ch_threads_queue\000"
 2301      68726561 
 2301      64735F71 
 2301      75657565 
 2301      00
 2302              	.LASF65:
 2303 00f9 73797374 		.ascii	"system_debug_t\000"
 2303      656D5F64 
 2303      65627567 
 2303      5F7400
 2304              	.LASF14:
 2305 0108 6C6F6E67 		.ascii	"long long unsigned int\000"
 2305      206C6F6E 
 2305      6720756E 
 2305      7369676E 
 2305      65642069 
 2306              	.LASF78:
 2307 011f 65786974 		.ascii	"exitcode\000"
 2307      636F6465 
 2307      00
 2308              	.LASF72:
 2309 0128 6D61696E 		.ascii	"mainthread\000"
 2309      74687265 
 2309      616400
 2310              	.LASF81:
 2311 0133 73656E74 		.ascii	"sentmsg\000"
 2311      6D736700 
 2312              	.LASF62:
 2313 013b 76697274 		.ascii	"virtual_timers_list_t\000"
 2313      75616C5F 
 2313      74696D65 
 2313      72735F6C 
 2313      6973745F 
 2314              	.LASF101:
 2315 0151 49544D5F 		.ascii	"ITM_RxBuffer\000"
 2315      52784275 
 2315      66666572 
 2315      00
 2316              	.LASF50:
ARM GAS  /tmp/ccnYHqV1.s 			page 58


 2317 015e 6E657874 		.ascii	"next\000"
 2317      00
 2318              	.LASF99:
 2319 0163 5F726561 		.ascii	"_reads\000"
 2319      647300
 2320              	.LASF12:
 2321 016a 6C6F6E67 		.ascii	"long long int\000"
 2321      206C6F6E 
 2321      6720696E 
 2321      7400
 2322              	.LASF1:
 2323 0178 7369676E 		.ascii	"signed char\000"
 2323      65642063 
 2323      68617200 
 2324              	.LASF71:
 2325 0184 76746C69 		.ascii	"vtlist\000"
 2325      737400
 2326              	.LASF41:
 2327 018b 6D736771 		.ascii	"msgqueue\000"
 2327      75657565 
 2327      00
 2328              	.LASF37:
 2329 0194 73746174 		.ascii	"state\000"
 2329      6500
 2330              	.LASF9:
 2331 019a 6C6F6E67 		.ascii	"long int\000"
 2331      20696E74 
 2331      00
 2332              	.LASF23:
 2333 01a3 74737461 		.ascii	"tstate_t\000"
 2333      74655F74 
 2333      00
 2334              	.LASF61:
 2335 01ac 66756E63 		.ascii	"func\000"
 2335      00
 2336              	.LASF106:
 2337 01b1 6D656D63 		.ascii	"memcpy\000"
 2337      707900
 2338              	.LASF18:
 2339 01b8 75696E74 		.ascii	"uint16_t\000"
 2339      31365F74 
 2339      00
 2340              	.LASF93:
 2341 01c1 62756666 		.ascii	"buffer\000"
 2341      657200
 2342              	.LASF10:
 2343 01c8 5F5F7569 		.ascii	"__uint32_t\000"
 2343      6E743332 
 2343      5F7400
 2344              	.LASF73:
 2345 01d3 72656761 		.ascii	"regarm_t\000"
 2345      726D5F74 
 2345      00
 2346              	.LASF40:
 2347 01dc 77616974 		.ascii	"waiting\000"
 2347      696E6700 
 2348              	.LASF88:
ARM GAS  /tmp/ccnYHqV1.s 			page 59


 2349 01e4 6D757465 		.ascii	"mutex_t\000"
 2349      785F7400 
 2350              	.LASF28:
 2351 01ec 636E745F 		.ascii	"cnt_t\000"
 2351      7400
 2352              	.LASF104:
 2353 01f2 2F686F6D 		.ascii	"/home/jerson/ChibiOS/rt_stm32f100rb_onion\000"
 2353      652F6A65 
 2353      72736F6E 
 2353      2F436869 
 2353      62694F53 
 2354              	.LASF82:
 2355 021c 77747365 		.ascii	"wtsemp\000"
 2355      6D7000
 2356              	.LASF80:
 2357 0223 77747472 		.ascii	"wttrp\000"
 2357      7000
 2358              	.LASF35:
 2359 0229 6E616D65 		.ascii	"name\000"
 2359      00
 2360              	.LASF31:
 2361 022e 71756575 		.ascii	"queue\000"
 2361      6500
 2362              	.LASF45:
 2363 0234 6D706F6F 		.ascii	"mpool\000"
 2363      6C00
 2364              	.LASF94:
 2365 023a 73697A65 		.ascii	"size\000"
 2365      00
 2366              	.LASF7:
 2367 023f 73686F72 		.ascii	"short unsigned int\000"
 2367      7420756E 
 2367      7369676E 
 2367      65642069 
 2367      6E7400
 2368              	.LASF97:
 2369 0252 5F707574 		.ascii	"_put\000"
 2369      00
 2370              	.LASF48:
 2371 0257 63685F74 		.ascii	"ch_thread\000"
 2371      68726561 
 2371      6400
 2372              	.LASF26:
 2373 0261 6D73675F 		.ascii	"msg_t\000"
 2373      7400
 2374              	.LASF42:
 2375 0267 6570656E 		.ascii	"epending\000"
 2375      64696E67 
 2375      00
 2376              	.LASF68:
 2377 0270 63685F73 		.ascii	"ch_system_t\000"
 2377      79737465 
 2377      6D5F7400 
 2378              	.LASF22:
 2379 027c 746D6F64 		.ascii	"tmode_t\000"
 2379      655F7400 
 2380              	.LASF55:
ARM GAS  /tmp/ccnYHqV1.s 			page 60


 2381 0284 63685F72 		.ascii	"ch_ready_list\000"
 2381      65616479 
 2381      5F6C6973 
 2381      7400
 2382              	.LASF27:
 2383 0292 6576656E 		.ascii	"eventmask_t\000"
 2383      746D6173 
 2383      6B5F7400 
 2384              	.LASF8:
 2385 029e 5F5F696E 		.ascii	"__int32_t\000"
 2385      7433325F 
 2385      7400
 2386              	.LASF74:
 2387 02a8 73746B61 		.ascii	"stkalign_t\000"
 2387      6C69676E 
 2387      5F7400
 2388              	.LASF33:
 2389 02b3 6E657765 		.ascii	"newer\000"
 2389      7200
 2390              	.LASF105:
 2391 02b9 6D734F62 		.ascii	"msObjectInit\000"
 2391      6A656374 
 2391      496E6974 
 2391      00
 2392              	.LASF91:
 2393 02c6 77726974 		.ascii	"write\000"
 2393      6500
 2394              	.LASF103:
 2395 02cc 2E2E2F6F 		.ascii	"../os/hal/lib/streams/memstreams.c\000"
 2395      732F6861 
 2395      6C2F6C69 
 2395      622F7374 
 2395      7265616D 
 2396              	.LASF44:
 2397 02ef 7265616C 		.ascii	"realprio\000"
 2397      7072696F 
 2397      00
 2398              	.LASF15:
 2399 02f8 73697A65 		.ascii	"sizetype\000"
 2399      74797065 
 2399      00
 2400              	.LASF46:
 2401 0301 74687265 		.ascii	"thread_reference_t\000"
 2401      61645F72 
 2401      65666572 
 2401      656E6365 
 2401      5F7400
 2402              	.LASF63:
 2403 0314 63685F76 		.ascii	"ch_virtual_timers_list\000"
 2403      69727475 
 2403      616C5F74 
 2403      696D6572 
 2403      735F6C69 
 2404              	.LASF75:
 2405 032b 706F7274 		.ascii	"port_context\000"
 2405      5F636F6E 
 2405      74657874 
ARM GAS  /tmp/ccnYHqV1.s 			page 61


 2405      00
 2406              	.LASF32:
 2407 0338 7072696F 		.ascii	"prio\000"
 2407      00
 2408              	.LASF56:
 2409 033d 63757272 		.ascii	"current\000"
 2409      656E7400 
 2410              	.LASF90:
 2411 0345 4D656D53 		.ascii	"MemStreamVMT\000"
 2411      74726561 
 2411      6D564D54 
 2411      00
 2412              	.LASF13:
 2413 0352 5F5F7569 		.ascii	"__uint64_t\000"
 2413      6E743634 
 2413      5F7400
 2414              	.LASF39:
 2415 035d 72656673 		.ascii	"refs\000"
 2415      00
 2416              	.LASF58:
 2417 0362 76697274 		.ascii	"virtual_timer_t\000"
 2417      75616C5F 
 2417      74696D65 
 2417      725F7400 
 2418              	.LASF25:
 2419 0372 74707269 		.ascii	"tprio_t\000"
 2419      6F5F7400 
 2420              	.LASF96:
 2421 037a 4D656D6F 		.ascii	"MemoryStream\000"
 2421      72795374 
 2421      7265616D 
 2421      00
 2422              	.LASF66:
 2423 0387 63685F73 		.ascii	"ch_system_debug\000"
 2423      79737465 
 2423      6D5F6465 
 2423      62756700 
 2424              	.LASF89:
 2425 0397 5F426F6F 		.ascii	"_Bool\000"
 2425      6C00
 2426              	.LASF19:
 2427 039d 696E7433 		.ascii	"int32_t\000"
 2427      325F7400 
 2428              	.LASF4:
 2429 03a5 756E7369 		.ascii	"unsigned char\000"
 2429      676E6564 
 2429      20636861 
 2429      7200
 2430              	.LASF5:
 2431 03b3 73686F72 		.ascii	"short int\000"
 2431      7420696E 
 2431      7400
 2432              	.LASF64:
 2433 03bd 6C617374 		.ascii	"lasttime\000"
 2433      74696D65 
 2433      00
 2434              	.LASF84:
ARM GAS  /tmp/ccnYHqV1.s 			page 62


 2435 03c6 65776D61 		.ascii	"ewmask\000"
 2435      736B00
 2436              	.LASF69:
 2437 03cd 63685F73 		.ascii	"ch_system\000"
 2437      79737465 
 2437      6D00
 2438              	.LASF59:
 2439 03d7 63685F76 		.ascii	"ch_virtual_timer\000"
 2439      69727475 
 2439      616C5F74 
 2439      696D6572 
 2439      00
 2440              	.LASF85:
 2441 03e8 63685F73 		.ascii	"ch_semaphore\000"
 2441      656D6170 
 2441      686F7265 
 2441      00
 2442              	.LASF20:
 2443 03f5 75696E74 		.ascii	"uint32_t\000"
 2443      33325F74 
 2443      00
 2444              	.LASF83:
 2445 03fe 77746D74 		.ascii	"wtmtxp\000"
 2445      787000
 2446              	.LASF24:
 2447 0405 74726566 		.ascii	"trefs_t\000"
 2447      735F7400 
 2448              	.LASF49:
 2449 040d 63685F74 		.ascii	"ch_threads_list\000"
 2449      68726561 
 2449      64735F6C 
 2449      69737400 
 2450              	.LASF87:
 2451 041d 6F776E65 		.ascii	"owner\000"
 2451      7200
 2452              	.LASF11:
 2453 0423 6C6F6E67 		.ascii	"long unsigned int\000"
 2453      20756E73 
 2453      69676E65 
 2453      6420696E 
 2453      7400
 2454              	.LASF36:
 2455 0435 77616261 		.ascii	"wabase\000"
 2455      736500
 2456              	.LASF92:
 2457 043c 72656164 		.ascii	"read\000"
 2457      00
 2458              	.LASF16:
 2459 0441 63686172 		.ascii	"char\000"
 2459      00
 2460              	.LASF34:
 2461 0446 6F6C6465 		.ascii	"older\000"
 2461      7200
 2462              	.LASF0:
 2463 044c 756E7369 		.ascii	"unsigned int\000"
 2463      676E6564 
 2463      20696E74 
ARM GAS  /tmp/ccnYHqV1.s 			page 63


 2463      00
 2464              	.LASF6:
 2465 0459 5F5F7569 		.ascii	"__uint16_t\000"
 2465      6E743136 
 2465      5F7400
 2466              	.LASF30:
 2467 0464 74687265 		.ascii	"thread_t\000"
 2467      61645F74 
 2467      00
 2468              	.LASF29:
 2469 046d 73797374 		.ascii	"systime_t\000"
 2469      696D655F 
 2469      7400
 2470              	.LASF57:
 2471 0477 76746675 		.ascii	"vtfunc_t\000"
 2471      6E635F74 
 2471      00
 2472              	.LASF67:
 2473 0480 70616E69 		.ascii	"panic_msg\000"
 2473      635F6D73 
 2473      6700
 2474              	.LASF95:
 2475 048a 6F666673 		.ascii	"offset\000"
 2475      657400
 2476              	.LASF100:
 2477 0491 5F777269 		.ascii	"_writes\000"
 2477      74657300 
 2478              	.LASF51:
 2479 0499 74687265 		.ascii	"threads_queue_t\000"
 2479      6164735F 
 2479      71756575 
 2479      655F7400 
 2480              	.LASF86:
 2481 04a9 63685F6D 		.ascii	"ch_mutex\000"
 2481      75746578 
 2481      00
 2482              	.LASF70:
 2483 04b2 726C6973 		.ascii	"rlist\000"
 2483      7400
 2484              	.LASF17:
 2485 04b8 75696E74 		.ascii	"uint8_t\000"
 2485      385F7400 
 2486              	.LASF38:
 2487 04c0 666C6167 		.ascii	"flags\000"
 2487      7300
 2488              	.LASF98:
 2489 04c6 5F676574 		.ascii	"_get\000"
 2489      00
 2490              	.LASF79:
 2491 04cb 77746F62 		.ascii	"wtobjp\000"
 2491      6A7000
 2492              	.LASF47:
 2493 04d2 74687265 		.ascii	"threads_list_t\000"
 2493      6164735F 
 2493      6C697374 
 2493      5F7400
 2494              	.LASF43:
ARM GAS  /tmp/ccnYHqV1.s 			page 64


 2495 04e1 6D74786C 		.ascii	"mtxlist\000"
 2495      69737400 
 2496              		.comm	__gnu_lto_v1,1,1
 2497              		.ident	"GCC: (4.8.2-14ubuntu1+6) 4.8.2"
ARM GAS  /tmp/ccnYHqV1.s 			page 65


DEFINED SYMBOLS
                            *ABS*:0000000000000000 memstreams.c
     /tmp/ccnYHqV1.s:286    .text._put:0000000000000000 $t
     /tmp/ccnYHqV1.s:291    .text._put:0000000000000000 _put
     /tmp/ccnYHqV1.s:336    .text._get:0000000000000000 $t
     /tmp/ccnYHqV1.s:341    .text._get:0000000000000000 _get
     /tmp/ccnYHqV1.s:375    .text._reads:0000000000000000 $t
     /tmp/ccnYHqV1.s:380    .text._reads:0000000000000000 _reads
     /tmp/ccnYHqV1.s:428    .text._writes:0000000000000000 $t
     /tmp/ccnYHqV1.s:433    .text._writes:0000000000000000 _writes
     /tmp/ccnYHqV1.s:479    .text.msObjectInit:0000000000000000 $t
     /tmp/ccnYHqV1.s:485    .text.msObjectInit:0000000000000000 msObjectInit
     /tmp/ccnYHqV1.s:520    .rodata.vmt:0000000000000000 .LANCHOR0
     /tmp/ccnYHqV1.s:519    .rodata.vmt:0000000000000000 $d
     /tmp/ccnYHqV1.s:523    .rodata.vmt:0000000000000000 vmt
                            *COM*:0000000000000001 __gnu_lto_v1
                     .debug_frame:0000000000000010 $d

UNDEFINED SYMBOLS
memcpy
