ARM GAS  /tmp/cclT0r4k.s 			page 1


   1              		.syntax unified
   2              		.cpu cortex-m3
   3              		.fpu softvfp
   4              		.eabi_attribute 20, 1
   5              		.eabi_attribute 21, 1
   6              		.eabi_attribute 23, 3
   7              		.eabi_attribute 24, 1
   8              		.eabi_attribute 25, 1
   9              		.eabi_attribute 26, 1
  10              		.eabi_attribute 30, 2
  11              		.eabi_attribute 34, 1
  12              		.eabi_attribute 18, 4
  13              		.thumb
  14              		.file	"nullstreams.c"
  15              		.text
  16              	.Ltext0:
  17              		.section	.gnu.lto_.jmpfuncs.d13f6606f37b0d11,"",%progbits
  18 0000 789C6362 		.ascii	"x\234cb`b\300\006x\2404+\003\013#P\0113\210\002\000"
  18      6062C006 
  18      78A0342B 
  18      030B2350 
  18      09338802 
  19 0015 02600025 		.ascii	"\002`\000%"
  20              		.text
  21              		.section	.gnu.lto_.inline.d13f6606f37b0d11,"",%progbits
  22 0000 789C6362 		.ascii	"x\234cb`b\300\006b\2414+\003\0033\023#X\021\333\002"
  22      6062C006 
  22      62A1342B 
  22      03033313 
  22      235811DB 
  23 0015 79B05A46 		.ascii	"y\260ZF\014\021&\014\021f\014\021\026\006\026f\240\010"
  23      0C11260C 
  23      11660C11 
  23      16061666 
  23      A008
  24 0027 E30B7606 		.ascii	"\343\013v\006\366\016u\210\245\000\353\014\005_"
  24      F60E7588 
  24      A500EB0C 
  24      055F
  25              		.text
  26              		.section	.gnu.lto_.pureconst.d13f6606f37b0d11,"",%progbits
  27 0000 789C6362 		.ascii	"x\234cb`b\340f\200\000V\006\006F \227\231\201E\012\000"
  27      6062E066 
  27      80005606 
  27      06462097 
  27      9981450A 
  28 0015 01B90039 		.ascii	"\001\271\0009"
  29              		.text
  30              		.section	.gnu.lto_writes.d13f6606f37b0d11,"",%progbits
  31 0000 789C6362 		.ascii	"x\234cb`b@\007\222@\034\005\304j@\314\310\314\300\310"
  31      60624007 
  31      92401C05 
  31      C46A40CC 
  31      C8CCC0C8 
  32 0014 34E11C03 		.ascii	"4\341\034\003C#\007\023##\210\301\300\310P\317\304X"
  32      43230713 
  32      232388C1 
ARM GAS  /tmp/cclT0r4k.s 			page 2


  32      C0C850CF 
  32      C458
  33 0026 1FC90856 		.ascii	"\037\311\010V\273\236\351\300\203\377\377\327\355\370"
  33      BB9EE9C0 
  33      83FFFFD7 
  33      EDF8
  34 0034 FA388B91 		.ascii	"\3728\213\221\231\2211\027,\312\312\320\322\3200A\201"
  34      99913117 
  34      2CCACAD0 
  34      D2D03041 
  34      81
  35 0045 812119CC 		.ascii	"\201!\031\314\015\001\222 \235\241\214L \232\371\"C"
  35      0D019220 
  35      9DA18C4C 
  35      209AF922 
  35      43
  36 0056 E383976C 		.ascii	"\343\203\227l\211\214\013\031Y\031\322\031!\346\000"
  36      898C0B19 
  36      5919D219 
  36      21E600
  37 0065 15318224 		.ascii	"\0251\202$A\256Q\321\323\323\317/\326\317H\314\321\317"
  37      41AE51D1 
  37      D3D3CF2F 
  37      D6CF48CC 
  37      D1CF
  38 0077 C94CD22F 		.ascii	"\311L\322/.)JM\314-\326\317+\315\311\201\262\365\222"
  38      2E294A4D 
  38      CC2DD6CF 
  38      2BCDC981 
  38      B2F592
  39 008a 19001B78 		.ascii	"\031\000\033x'\012"
  39      270A
  40              		.text
  41              		.section	.gnu.lto_reads.d13f6606f37b0d11,"",%progbits
  42 0000 789C6362 		.ascii	"x\234cb`b@\007\222@\034\011\304j@\314\310\314\300\310"
  42      60624007 
  42      92401C09 
  42      C46A40CC 
  42      C8CCC0C8 
  43 0014 34E11C03 		.ascii	"4\341\034\003C#\007\023##\210\301\300\310P\317\304X"
  43      43230713 
  43      232388C1 
  43      C0C850CF 
  43      C458
  44 0026 1FC90856 		.ascii	"\037\311\010V\273\236\351\300\203\377\377\327\335\330"
  44      BB9EE9C0 
  44      83FFFFD7 
  44      DDD8
  45 0034 F9B89A11 		.ascii	"\371\270\232\021d\022+CKC\303\004\005\006\206d\260|"
  45      64122B43 
  45      4B43C304 
  45      05068664 
  45      B07C
  46 0046 08900469 		.ascii	"\010\220\004i\012\005J\002i\346\213\014\215\017~\261"
  46      0A054A02 
  46      69E68B0C 
  46      8D0F7EB1 
ARM GAS  /tmp/cclT0r4k.s 			page 3


  47 0056 25322E64 		.ascii	"%2.dde\210`\314d\204\333\031\302\310\010R\0002BEOO?"
  47      64658860 
  47      CC6484DB 
  47      19C2C808 
  47      52003242 
  48 006e BF583F23 		.ascii	"\277X?#1G?'3I\277\270\244(51\267X?\2574'\007\312\326"
  48      31473F27 
  48      3349BFB8 
  48      A4283531 
  48      B7583FAF 
  49 0087 4B660000 		.ascii	"Kf\000\000\035\227&\370"
  49      1D9726F8 
  50              		.text
  51              		.section	.gnu.lto_put.d13f6606f37b0d11,"",%progbits
  52 0000 789C6362 		.ascii	"x\234cb`b@\007\222@\034\005\304j@\314\310\314\300\310"
  52      60624007 
  52      92401C05 
  52      C46A40CC 
  52      C8CCC0C8 
  53 0014 34E11C03 		.ascii	"4\341\034\003C#\007\023##\210\301\300\310P\317\304X"
  53      43230713 
  53      232388C1 
  53      C0C850CF 
  53      C458
  54 0026 1FC90856 		.ascii	"\037\311\010V\273\236\351\300\203\377\377\327\375\332"
  54      BB9EE9C0 
  54      83FFFFD7 
  54      FDDA
  55 0034 FBA89B51 		.ascii	"\373\250\233Q\020d\024+CKC\303\004\005\006\206d\260"
  55      1064142B 
  55      434B43C3 
  55      04050686 
  55      64B0
  56 0046 82102009 		.ascii	"\202\020 \011\322\025\312\310\004\242\231/24>\350JN"
  56      D215CAC8 
  56      04A2992F 
  56      32343EE8 
  56      4A4E
  57 0058 645CC8C8 		.ascii	"d\\\310\310\312\020\301\230\311\010\2674\204\221\021"
  57      CA10C198 
  57      C908B734 
  57      849111
  58 0067 A4006484 		.ascii	"\244\000d\204\212\236\236~~\261~Fb\216~Nf\222~qIQjb"
  58      8A9E9E7E 
  58      7EB17E46 
  58      628E7E4E 
  58      66927E71 
  59 007f 6EB17E5E 		.ascii	"n\261~^iN\016\224\255\227\314\000\000D\227',"
  59      694E0E94 
  59      AD97CC00 
  59      00449727 
  59      2C
  60              		.text
  61              		.section	.gnu.lto_get.d13f6606f37b0d11,"",%progbits
  62 0000 789C6362 		.ascii	"x\234cb`b@\007\222@\034\015\304j@\314\310\314\300\310"
  62      60624007 
  62      92401C0D 
ARM GAS  /tmp/cclT0r4k.s 			page 4


  62      C46A40CC 
  62      C8CCC0C8 
  63 0014 34E11C03 		.ascii	"4\341\034\003C#\007\023##\210\301\300\310P\317\304X"
  63      43230713 
  63      232388C1 
  63      C0C850CF 
  63      C458
  64 0026 1FC90856 		.ascii	"\037\311\010V\273\236\351\300\203\377\377\327\315j\233"
  64      BB9EE9C0 
  64      83FFFFD7 
  64      CD6A9B
  65 0035 B7867126 		.ascii	"\267\206q&\023\310,V\206\226\206\206\011\012\014\014"
  65      13C82C56 
  65      86968686 
  65      090A0C0C 
  66 0045 C9601521 		.ascii	"\311`\025!@\022\244-\224\221\011D3_dh|039\221q!#+C\004"
  66      4012A42D 
  66      94910944 
  66      335F6468 
  66      7C303339 
  67 0060 63262303 		.ascii	"c&#\003\013\324\326\020FF\220\002\220\021*zz\372\371"
  67      0BD4D610 
  67      46469002 
  67      90112A7A 
  67      7AFAF9
  68 0073 C5FA1989 		.ascii	"\305\372\031\2119\3729\231I\372\305%E\251\211\271\305"
  68      39FA3999 
  68      49FAC525 
  68      45A989B9 
  68      C5
  69 0084 FA79A539 		.ascii	"\372y\24599P\266^2\003\000?\271'\020"
  69      3950B65E 
  69      3203003F 
  69      B92710
  70              		.text
  71              		.section	.gnu.lto_nullObjectInit.d13f6606f37b0d11,"",%progbits
  72 0000 789C6362 		.ascii	"x\234cb`b@\007\222@\274\030\210\325\200\230\221\231"
  72      60624007 
  72      9240BC18 
  72      88D58098 
  72      9199
  73 0012 819169C2 		.ascii	"\201\221i\3029\006\206F\016&FF\020\203\201\221\241\236"
  73      39068646 
  73      0E264646 
  73      10838191 
  73      A19E
  74 0024 89B13E92 		.ascii	"\211\261>\222\021\254v=\323\201\007\377\377\257\273"
  74      11AC763D 
  74      D38107FF 
  74      FFAFBB
  75 0033 D7B67C0D 		.ascii	"\327\266|\015\343l&\026&\306\\\2608+CKC\303\004\005"
  75      E36C2616 
  75      26C65CB0 
  75      382B434B 
  75      43C30405 
  76 0047 06866430 		.ascii	"\006\206d07\004H\202\364\20622\201h\346\263\014M\277"
  76      37044882 
ARM GAS  /tmp/cclT0r4k.s 			page 5


  76      F4863232 
  76      8168E6B3 
  76      0C4DBF
  77 005a 9A9FF7CA 		.ascii	"\232\237\367\312$2.dde\320fX\325\000\004\274\231\214"
  77      24322E64 
  77      6465D066 
  77      58D50004 
  77      BC998C
  78 006d 0CB31966 		.ascii	"\014\263\031f1f22\24632E\000i\210\323\222 61T3\374j"
  78      31663232 
  78      A6333245 
  78      006988D3 
  78      92203631 
  79 0085 98D1D060 		.ascii	"\230\321\320`\013T\226\313\010\021\273\310\320\370`"
  79      0B5496CB 
  79      0811BBC8 
  79      D0F860
  80 0094 9732C414 		.ascii	"\2272\304\024\030\010\001\312\001\355\000\351U\321\323"
  80      180801CA 
  80      01ED00E9 
  80      55D1D3
  81 00a3 D3CF2FD6 		.ascii	"\323\317/\326\317H\314\321\317\311L\322/.)JM\314-\326"
  81      CF48CCD1 
  81      CFC94CD2 
  81      2F2E294A 
  81      4DCC2DD6 
  82 00b7 CF2BCDC9 		.ascii	"\317+\315\311\201\262\365\222\031\000W\3007\273"
  82      81B2F592 
  82      190057C0 
  82      37BB
  83              		.text
  84              		.section	.gnu.lto_.symbol_nodes.d13f6606f37b0d11,"",%progbits
  85 0000 789C6362 		.ascii	"x\234cb`b\010a\200\002\246\333\214\365\014\014\023\316"
  85      60620861 
  85      8002A6DB 
  85      8CF50C0C 
  85      13CE
  86 0012 3130D4D7 		.ascii	"10\324\327\317\351Ld\272\303X\317\210\304\275\313X\317"
  86      CFE94C64 
  86      BAC358CF 
  86      88C4BDCB 
  86      58CF
  87 0024 84C4BDC7 		.ascii	"\204\304\275\307X\317\214\304}\300X\317\002\345\316"
  87      58CF8CC4 
  87      7DC058CF 
  87      02E5CE
  88 0033 EB6064BD 		.ascii	"\353`d\275\317\310\300\002\224\007\000\307\037\033\265"
  88      CFC8C002 
  88      940700C7 
  88      1F1BB5
  89              		.text
  90              		.section	.gnu.lto_.refs.d13f6606f37b0d11,"",%progbits
  91 0000 789C6362 		.ascii	"x\234cb`b\340g\200\000F\026&V\026V&\006&F&&&f\006\000"
  91      6062E067 
  91      80004616 
  91      26561656 
  91      26062646 
ARM GAS  /tmp/cclT0r4k.s 			page 6


  92 001a 031B0037 		.ascii	"\003\033\0007"
  93              		.text
  94              		.section	.gnu.lto_.decls.d13f6606f37b0d11,"",%progbits
  95 0000 789CBD57 		.ascii	"x\234\275W[L\034U\030>\377,,\254 6M\332\340\203ak\254"
  95      5B4C1C55 
  95      183EFF2C 
  95      2CAC2036 
  95      4DDAE083 
  96 0017 0F353011 		.ascii	"\01750\021\373\300S\253\341\241\370@5j\21511\233\303"
  96      FBC053AB 
  96      E1A1F840 
  96      356A8D31 
  96      319BC3
  97 002a EE086B76 		.ascii	"\356\010kv\227\315\356`\275<x\254\001\233F-\365\022"
  97      97CDEE60 
  97      BD3C78AC 
  97      019B462D 
  97      F512
  98 003c AD510AA5 		.ascii	"\255Q\012\2454\251\242\011\365R\245\322n\214,\244\006"
  98      34A9A209 
  98      F552A5D2 
  98      6E8C2CA4 
  98      06
  99 004d 4335CD92 		.ascii	"C5\315\222\032\3546\241\255\367bK\245\265\342zn\313"
  99      1AEC36A1 
  99      ADF7624B 
  99      A5B5E27A 
  99      6ECB
 100 005f CE0C337B 		.ascii	"\316\0143{\361\301\223\234\331s\346\374\377\377\375"
 100      F1C1939C 
 100      D973E6FC 
 100      FFFFFD
 101 006e F733AB20 		.ascii	"\3673\253 \005\325\002B\031:H\015B\273\351\332\215\020"
 101      05D50242 
 101      193A480D 
 101      42BBE9DA 
 101      8D10
 102 0080 DA8472A3 		.ascii	"\332\204r\243\234\316\001:G\351\034\2473E\347,\235\224"
 102      9CCE013A 
 102      47E91CA7 
 102      3345E72C 
 102      9D94
 103 0092 145D47E6 		.ascii	"\024]G\3461`X\203\334\263\337#\026\272Q\371~\320@;\212"
 103      31605883 
 103      DCB3DF23 
 103      16BA51F9 
 103      7ED0403B 
 104 00a7 568E7179 		.ascii	"V\216qy6a\240\033\267\241K\331\320\245l\350\230\336"
 104      3661A01B 
 104      B7A14BD9 
 104      D0A56CE8 
 104      98DE
 105 00b9 2E3A2FD0 		.ascii	".:/\320y\226\316\264\244=/\177\331\271B\347U\033\333"
 105      7996CEB4 
 105      A43D2F7F 
 105      D9B942E7 
 105      551BDB
ARM GAS  /tmp/cclT0r4k.s 			page 7


 106 00cc EA501F99 		.ascii	"\352P\037\231\236Ow\247v\337L\372w$2\231\315h-z\203"
 106      9E4F77A7 
 106      76DF4CFA 
 106      77243299 
 106      CD682D7A 
 107 00e1 D0D1DF43 		.ascii	"\320\321\337C\010\350\036\264\223\220\035l\3232I]\371"
 107      08E81EB4 
 107      93901D6C 
 107      D332495D 
 107      F9
 108 00f2 0860A8F1 		.ascii	"\010`\250\361 /_T{P\031\025\261\036\035 \2447\275o\344"
 108      202F5F54 
 108      7B501915 
 108      B11E1D20 
 108      A437BD6F 
 109 0107 5D95904A 		.ascii	"]\225\220J\014\203\340\241p\217\002\332\200\016Q9\275"
 109      0C83E0A1 
 109      708F02DA 
 109      800E5139 
 109      BD
 110 0118 84EC6F04 		.ascii	"\204\354o\004\033\2651\224{V\3541\034\204\015H\000\361"
 110      1BB53194 
 110      7B56EC31 
 110      1C840D48 
 110      00F1
 111 012a 63B960B1 		.ascii	"c\271`\261\274\311\036\237q\356\207\265|\345\342\206"
 111      BCC91E9F 
 111      71EE87B5 
 111      7CE5E286 
 112 013a D2179BAB 		.ascii	"\322\027\233\253\262\353*\264+g\2014'=\224\250}+gNe"
 112      B2EB2AB4 
 112      2B678134 
 112      273D94A8 
 112      7D2B674E 
 113 014f 561CE4CC 		.ascii	"V\034\344\314\031y\361\203;\2509\313\014\304\221\001"
 113      1979F183 
 113      3BA839CB 
 113      0CC49101 
 114 015f C3FBB09E 		.ascii	"\303\373\260\236>\301\254=xr\213\014\260\010\364\000"
 114      3EC1AC3D 
 114      78728B0C 
 114      B008F400 
 115 016f 2C53B051 		.ascii	",S\260Q\204l\251\314\330\256\276&\356\333\017\271o\277"
 115      846CA9CC 
 115      D8AEBE26 
 115      EEDB0FB9 
 115      6FBF
 116 0181 B0089260 		.ascii	"\260\010\222`\006O\026\320\245\024Z'\227\037\202*\203"
 116      064F16D0 
 116      A5145A27 
 116      971F822A 
 116      83
 117 0192 9865C70F 		.ascii	"\230e\307\017\012U0ls-\037*(i\321\37064H\310\253\351"
 117      0A55306C 
 117      732D1F2A 
 117      2869D1F8 
 117      363448C8 
ARM GAS  /tmp/cclT0r4k.s 			page 8


 118 01a8 EE37FB68 		.ascii	"\3567\373h\332)<\\\012\232\342D\003Pg\213\311\211$#"
 118      DA293C5C 
 118      0A9AE244 
 118      0350678B 
 118      C9892423 
 119 01bc 39AEB508 		.ascii	"9\256\265\010\015\0244]\200\213\353)\331\25606\221\237"
 119      0D14345D 
 119      808BEB29 
 119      D9AE3036 
 119      919F
 120 01ce DF156093 		.ascii	"\337\025`\223v\334\216\206X\214\216\317\335\337\222"
 120      76DC8E86 
 120      588C8ECF 
 120      DDDF92
 121 01dd 7DE7CC25 		.ascii	"}\347\314%=s\030\024\243\207E\211%f\264I2O\223\330T"
 121      3D731814 
 121      A3874589 
 121      2566B449 
 121      324F93D8 
 122 01f2 5E42A693 		.ascii	"^B\246\223\213\217\026\231\325\030\206\363H9VJ\240N"
 122      8B8F1699 
 122      D51886F3 
 122      4839564A 
 122      A04E
 123 0204 D9068A2C 		.ascii	"\331\006\212,\006Z8:\206\217\251q\030F\213\011\322\010"
 123      065A383A 
 123      868FA971 
 123      18468B09 
 123      D208
 124 0216 F33643C7 		.ascii	"\3636C\307\360i\001\256c\206 \245\262A\302\360Y\001"
 124      F06901AE 
 124      638620A5 
 124      B241C2F0 
 124      5901
 125 0228 B67C4172 		.ascii	"\266|Ar\342\222^I\330\006\351\372\265I\240*\374\235"
 125      E2925E49 
 125      D806E9FA 
 125      B549A02A 
 125      FC9D
 126 023a C9B86CFA 		.ascii	"\311\270l\372 )\246\017.~\363\325Ix\201\362`\230\340"
 126      2029A60F 
 126      2E7EF3D5 
 126      497881F2 
 126      6098E0
 127 024d 99F68A62 		.ascii	"\231\366\212bS\366\305\210\352\037\231XC\3120\234\340"
 127      53F6C588 
 127      EA1F9958 
 127      43CA309C 
 127      E0
 128 025e 625EFFAF 		.ascii	"b^\377\257b\322c'\216\210\3561\305\005\275\243X\273"
 128      62D26327 
 128      8E88EE31 
 128      C505BDA3 
 128      58BB
 129 0270 87DBD23D 		.ascii	"\207\333\322=\334\346\216@\267\014\351*\353\301\360"
 129      DCE68E40 
 129      B70CE92A 
ARM GAS  /tmp/cclT0r4k.s 			page 9


 129      EBC1F0
 130 027f 9C7CC336 		.ascii	"\234|\3036\025\350\177\347sJ\362\244s\251\210\352X\231"
 130      15E87FE7 
 130      734AF2A4 
 130      73A988EA 
 130      5899
 131 0291 EA0715DB 		.ascii	"\352\007\025\333\236t\340Lu/\230\222}\274\230d\337\373"
 131      9E74E04C 
 131      752F9892 
 131      7DBC9864 
 131      DFFB
 132 02a3 58AD0052 		.ascii	"X\255\000R\320{\\\260\201\313r]\014\033\262\226\220"
 132      D07B5CB0 
 132      81CB725D 
 132      0C1BB296 
 132      90
 133 02b4 319EB513 		.ascii	"1\236\265\0232k\235\260\244\231\337\332f\355\333\311"
 133      326B9DB0 
 133      A499DFDA 
 133      66EDDBC9 
 134 02c4 EADEE7D3 		.ascii	"\352\336\347\323\231L\235\245\267L\344\351\01236\016"
 134      994C9DA5 
 134      B74CE4E9 
 134      0A33360E 
 135 02d4 B33868D8 		.ascii	"\2638h\330\326A\344\017K/H\345u\217\203\235NLR\273\323"
 135      D641E40F 
 135      4B2F48E5 
 135      758F839D 
 135      4E4C52BB 
 136 02e9 2BEDEC4F 		.ascii	"+\355\354O'\316\364|m_\235\0306\255q\264\364\007\263"
 136      27CEF47C 
 136      6D5F9D18 
 136      36AD71B4 
 136      F407B3
 137 02fc A5A6CEB9 		.ascii	"\245\246\316\271\032\355\341R\334\005J\350\344k\343"
 137      1AEDE152 
 137      DC054AE8 
 137      E46BE3
 138 030b 77F2123A 		.ascii	"w\362\022:\013\253Y\227\264x\246\240\030\246\307\034"
 138      0BAB5997 
 138      B478A6A0 
 138      18A6C71C 
 139 031b 65154C5C 		.ascii	"e\025L\\(I,i^\361\026\231\204\231\306:\324O\265M\354"
 139      28492C69 
 139      5EF11699 
 139      8499C63A 
 139      D44FB54D 
 140 0330 49EEA317 		.ascii	"I\356\243\027\345\227`\253<\365\200\001\227@\026x\025"
 140      E59760AB 
 140      3CF58001 
 140      97401678 
 140      15
 141 0341 8F629AEA 		.ascii	"\217b\232\352*)\275\216d\030~\342\261\374\331\252\343"
 141      2A29BD8E 
 141      64187EE2 
 141      B1FCD9AA 
 141      E3
ARM GAS  /tmp/cclT0r4k.s 			page 10


 142 0352 F7D82BDE 		.ascii	"\367\330+\336\026\326qv\252\272\027[\356%\366]\346\344"
 142      16D67176 
 142      AABA175B 
 142      EE25F65D 
 142      E6E4
 143 0364 8FDF72F7 		.ascii	"\217\337r\367\222\202~\347\036e@v\344r)\206$0\201\223"
 143      92827EE7 
 143      1E654076 
 143      E4722986 
 143      24308193 
 144 0378 C38478DC 		.ascii	"\303\204x\334\026\360\243y\300\347\215\340\013%\203"
 144      16F0A379 
 144      C0E78DE0 
 144      0B2583
 145 0387 7B0B8227 		.ascii	"{\013\202'\363\200_\316\201\213\222.\010^Y\232\3453"
 145      F3805FCE 
 145      818B922E 
 145      085E599A 
 145      E533
 146 0399 79C0AF18 		.ascii	"y\300\257\030\301O\227\014\356\265\004?\233\025\030"
 146      C14F970C 
 146      EEB5043F 
 146      9B1518
 147 03a8 7E8575F4 		.ascii	"~\205u\364y\221?/\361\347\002}.\017'}.\030#q\215Gb\256"
 147      79913F2F 
 147      F1E7027D 
 147      2E0F277D 
 147      2E182371 
 148 03c0 F434B01B 		.ascii	"\3644\260\033\306\222\303p\216\177\244\237/F\245\264"
 148      C692C370 
 148      8E7FA49F 
 148      2F46A5B4 
 149 03d0 D145A696 		.ascii	"\321E\246\226\270d\177g\234\373e\262l/I\224\011V\005"
 149      B8647F67 
 149      9CFB65B2 
 149      6C2F4994 
 149      095605
 150 03e3 BDE46264 		.ascii	"\275\344bd\263\216\215Q\002\310\316\3702\351^\005\274"
 150      B38E8D51 
 150      02C8CEF8 
 150      32E95E05 
 150      BC
 151 03f4 8521C965 		.ascii	"\205!\311e2b\321\334\013oE\003dz:\361yr\010\350?6B\376"
 151      3262D1DC 
 151      0B6F4503 
 151      647A3AF1 
 151      797208E8 
 152 040c A1972486 		.ascii	"\241\227$\206\037\271\245\177\362p2\365l\253\034I\022"
 152      1FB9A57F 
 152      F27032F5 
 152      6CAB1C49 
 152      12
 153 041d 3636A28F 		.ascii	"66\242\217\310\316\304\335YN\026\274g\321_\204~S|\002"
 153      C8CEC4DD 
 153      594E16BC 
 153      67D15F84 
 153      7E537C02 
ARM GAS  /tmp/cclT0r4k.s 			page 11


 154 0431 A236C577 		.ascii	"\2426\305w.g\272\230;=\005\242x\304\007\026?\275\224"
 154      2E67BA98 
 154      3B3D05A2 
 154      78C40716 
 154      3FBD94
 155 0444 3BBD0C22 		.ascii	";\275\014\"\273\305E\306O\027r\247K \322O\264\177\351"
 155      BBC545C6 
 155      4F1772A7 
 155      4B20D24F 
 155      B47FE9
 156 0457 C18606B5 		.ascii	"\301\206\006\2653\256v\340\220\032\012\266\251q=\246"
 156      33AE76E0 
 156      901A0AB6 
 156      A9713DA6 
 157 0467 E1705C8D 		.ascii	"\341p\\\215t\205Br\335\340G\215jW<\306\317\333\375~"
 157      74854272 
 157      DDE0478D 
 157      6A573CC6 
 157      CFDBFD7E 
 158 047b 15C7C2F5 		.ascii	"\025\307\302\365\221\316\210V\257\341\266\240\272\261"
 158      91CE8856 
 158      AFE1B6A0 
 158      BAB1
 159 0489 A1A9A151 		.ascii	"\241\251\241Q\015F\374\241\256\200F\371\003\001\355"
 159      0D46FCA1 
 159      AE8046F9 
 159      0301ED
 160 0498 F1860EE4 		.ascii	"\361\206\016\344\216\007\237\321|\272{\313\326m\336"
 160      8E079FD1 
 160      7CBA7BCB 
 160      D66DDE
 161 04a7 66740B17 		.ascii	"ft\013\027\220%\212h\333\005V \030\321)mE\027\375m\362"
 161      90258A68 
 161      DB055620 
 161      18D1296D 
 161      4517FD6D 
 162 04bc E9F57654 		.ascii	"\351\365vTa\354\357\010F4\325G\345\342\256\220\356\323"
 162      61ECEF08 
 162      4634D547 
 162      E5E2AE90 
 162      EED3
 163 04ce 9F8E6A71 		.ascii	"\237\216jq\312\345\361\371$\237{{,\250kq%\030U\332\242"
 163      CAE5F1F9 
 163      249F7B7B 
 163      2CA86B71 
 163      251855DA 
 164 04e3 1029A76A 		.ascii	"\020)\247j\007\342\215\3020\177g8\334\031Q\243\2351"
 164      07E28DC2 
 164      307F6738 
 164      DC1951A3 
 164      9D31
 165 04f5 3DAEDEF3 		.ascii	"=\256\336\363@ks\353S\354]4\030\322bquKs\263\352\357"
 165      406B73EB 
 165      53EC5D34 
 165      18D26271 
 165      754B73B3 
 166 050b C84A2C0F 		.ascii	"\310J,\017\307\333}z\005\025zW\243O\247\362\345\312"
ARM GAS  /tmp/cclT0r4k.s 			page 12


 166      C7DB7D7A 
 166      05157A57 
 166      A34FA7F2 
 166      E5CA
 167 051d 15EDD2A1 		.ascii	"\025\355\322\241\315\325\256\351Ex\253\003\335\260\225"
 167      CDD5AEE9 
 167      4578AB03 
 167      DDB095
 168 052c 6E1FE4DB 		.ascii	"n\037\344\333\033s\313\207[\037*\347z\2261\365\\O\206"
 168      1B73CB87 
 168      5B1F2AE7 
 168      7A9631F5 
 168      5C4F86
 169 053f F51AC676 		.ascii	"\365\032\306v_\333\023\232_\2777\022\324]\221x\364_"
 169      5FDB139A 
 169      5FBF3712 
 169      D45D9178 
 169      F45F
 170 0551 9231613A 		.ascii	"\2221a:"
 171              		.text
 172              		.section	.gnu.lto_.symtab.d13f6606f37b0d11,"",%progbits
 173 0000 6E756C6C 		.ascii	"nullObjectInit\000\000\000\000\000\000\000\000\000\000"
 173      4F626A65 
 173      6374496E 
 173      69740000 
 173      00000000 
 174 0018 0000DD00 		.ascii	"\000\000\335\000\000\000"
 174      0000
 175              		.text
 176              		.section	.gnu.lto_.opts,"",%progbits
 177 0000 272D6D63 		.ascii	"'-mcpu=cortex-m3' '-mno-thumb-interwork' '-mthumb' "
 177      70753D63 
 177      6F727465 
 177      782D6D33 
 177      2720272D 
 178 0033 272D6767 		.ascii	"'-ggdb' '-O2' '-fomit-frame-pointer' '-falign-funct"
 178      64622720 
 178      272D4F32 
 178      2720272D 
 178      666F6D69 
 179 0066 696F6E73 		.ascii	"ions=16' '-ffunction-sections' '-fdata-sections' '-"
 179      3D313627 
 179      20272D66 
 179      66756E63 
 179      74696F6E 
 180 0099 666E6F2D 		.ascii	"fno-common' '-flto'\000"
 180      636F6D6D 
 180      6F6E2720 
 180      272D666C 
 180      746F2700 
 181              		.text
 182              		.cfi_sections	.debug_frame
 183              		.section	.text.writes,"ax",%progbits
 184              		.align	2
 185              		.p2align 4,,15
 186              		.thumb
 187              		.thumb_func
ARM GAS  /tmp/cclT0r4k.s 			page 13


 188              		.type	writes, %function
 189              	writes:
 190              	.LFB219:
 191              		.file 1 "../os/hal/lib/streams/nullstreams.c"
 192              		.loc 1 44 0
 193              		.cfi_startproc
 194              		@ args = 0, pretend = 0, frame = 0
 195              		@ frame_needed = 0, uses_anonymous_args = 0
 196              		@ link register save eliminated.
 197              	.LVL0:
 198              		.loc 1 50 0
 199 0000 1046     		mov	r0, r2
 200              	.LVL1:
 201 0002 7047     		bx	lr
 202              		.cfi_endproc
 203              	.LFE219:
 204              		.size	writes, .-writes
 205 0004 AFF30080 		.section	.text.reads,"ax",%progbits
 205      AFF30080 
 205      AFF30080 
 206              		.align	2
 207              		.p2align 4,,15
 208              		.thumb
 209              		.thumb_func
 210              		.type	reads, %function
 211              	reads:
 212              	.LFB220:
 213              		.loc 1 52 0
 214              		.cfi_startproc
 215              		@ args = 0, pretend = 0, frame = 0
 216              		@ frame_needed = 0, uses_anonymous_args = 0
 217              		@ link register save eliminated.
 218              	.LVL2:
 219              		.loc 1 59 0
 220 0000 0020     		movs	r0, #0
 221              	.LVL3:
 222 0002 7047     		bx	lr
 223              		.cfi_endproc
 224              	.LFE220:
 225              		.size	reads, .-reads
 226 0004 AFF30080 		.section	.text.put,"ax",%progbits
 226      AFF30080 
 226      AFF30080 
 227              		.align	2
 228              		.p2align 4,,15
 229              		.thumb
 230              		.thumb_func
 231              		.type	put, %function
 232              	put:
 233              	.LFB221:
 234              		.loc 1 61 0
 235              		.cfi_startproc
 236              		@ args = 0, pretend = 0, frame = 0
 237              		@ frame_needed = 0, uses_anonymous_args = 0
 238              		@ link register save eliminated.
 239              	.LVL4:
 240              		.loc 1 67 0
ARM GAS  /tmp/cclT0r4k.s 			page 14


 241 0000 0020     		movs	r0, #0
 242              	.LVL5:
 243 0002 7047     		bx	lr
 244              		.cfi_endproc
 245              	.LFE221:
 246              		.size	put, .-put
 247 0004 AFF30080 		.section	.text.get,"ax",%progbits
 247      AFF30080 
 247      AFF30080 
 248              		.align	2
 249              		.p2align 4,,15
 250              		.thumb
 251              		.thumb_func
 252              		.type	get, %function
 253              	get:
 254              	.LFB222:
 255              		.loc 1 69 0
 256              		.cfi_startproc
 257              		@ args = 0, pretend = 0, frame = 0
 258              		@ frame_needed = 0, uses_anonymous_args = 0
 259              		@ link register save eliminated.
 260              	.LVL6:
 261              		.loc 1 74 0
 262 0000 0420     		movs	r0, #4
 263              	.LVL7:
 264 0002 7047     		bx	lr
 265              		.cfi_endproc
 266              	.LFE222:
 267              		.size	get, .-get
 268 0004 AFF30080 		.section	.text.nullObjectInit,"ax",%progbits
 268      AFF30080 
 268      AFF30080 
 269              		.align	2
 270              		.p2align 4,,15
 271              		.global	nullObjectInit
 272              		.thumb
 273              		.thumb_func
 274              		.type	nullObjectInit, %function
 275              	nullObjectInit:
 276              	.LFB223:
 277              		.loc 1 87 0
 278              		.cfi_startproc
 279              		@ args = 0, pretend = 0, frame = 0
 280              		@ frame_needed = 0, uses_anonymous_args = 0
 281              		@ link register save eliminated.
 282              	.LVL8:
 283              		.loc 1 89 0
 284 0000 40F20003 		movw	r3, #:lower16:.LANCHOR0
 285 0004 C0F20003 		movt	r3, #:upper16:.LANCHOR0
 286 0008 0360     		str	r3, [r0]
 287 000a 7047     		bx	lr
 288              		.cfi_endproc
 289              	.LFE223:
 290              		.size	nullObjectInit, .-nullObjectInit
 291 000c AFF30080 		.section	.rodata.vmt,"a",%progbits
 292              		.align	2
 293              		.set	.LANCHOR0,. + 0
ARM GAS  /tmp/cclT0r4k.s 			page 15


 294              		.type	vmt, %object
 295              		.size	vmt, 16
 296              	vmt:
 297 0000 00000000 		.word	writes
 298 0004 00000000 		.word	reads
 299 0008 00000000 		.word	put
 300 000c 00000000 		.word	get
 301              		.text
 302              	.Letext0:
 303              		.file 2 "/usr/lib/gcc/arm-none-eabi/4.8.2/include/stddef.h"
 304              		.file 3 "/usr/include/newlib/machine/_default_types.h"
 305              		.file 4 "/usr/include/newlib/stdint.h"
 306              		.file 5 "../os/common/ports/ARMCMx/compilers/GCC/chtypes.h"
 307              		.file 6 "../os/rt/include/chsystypes.h"
 308              		.file 7 "../os/rt/include/chschd.h"
 309              		.file 8 "../os/common/ports/ARMCMx/chcore.h"
 310              		.file 9 "../os/common/ports/ARMCMx/chcore_v7m.h"
 311              		.file 10 "../os/rt/include/chsem.h"
 312              		.file 11 "../os/rt/include/chmtx.h"
 313              		.file 12 "../os/hal/lib/streams/nullstreams.h"
 314              		.file 13 "../os/common/ext/CMSIS/include/core_cm3.h"