ARM GAS  /tmp/cclT0r4k.s 			page 1


   1              		.syntax unified
   2              		.cpu cortex-m3
   3              		.fpu softvfp
   4              		.eabi_attribute 20, 1
   5              		.eabi_attribute 21, 1
   6              		.eabi_attribute 23, 3
   7              		.eabi_attribute 24, 1
   8              		.eabi_attribute 25, 1
   9              		.eabi_attribute 26, 1
  10              		.eabi_attribute 30, 2
  11              		.eabi_attribute 34, 1
  12              		.eabi_attribute 18, 4
  13              		.thumb
  14              		.file	"nullstreams.c"
  15              		.text
  16              	.Ltext0:
  17              		.section	.gnu.lto_.jmpfuncs.d13f6606f37b0d11,"",%progbits
  18 0000 789C6362 		.ascii	"x\234cb`b\300\006x\2404+\003\013#P\0113\210\002\000"
  18      6062C006 
  18      78A0342B 
  18      030B2350 
  18      09338802 
  19 0015 02600025 		.ascii	"\002`\000%"
  20              		.text
  21              		.section	.gnu.lto_.inline.d13f6606f37b0d11,"",%progbits
  22 0000 789C6362 		.ascii	"x\234cb`b\300\006b\2414+\003\0033\023#X\021\333\002"
  22      6062C006 
  22      62A1342B 
  22      03033313 
  22      235811DB 
  23 0015 79B05A46 		.ascii	"y\260ZF\014\021&\014\021f\014\021\026\006\026f\240\010"
  23      0C11260C 
  23      11660C11 
  23      16061666 
  23      A008
  24 0027 E30B7606 		.ascii	"\343\013v\006\366\016u\210\245\000\353\014\005_"
  24      F60E7588 
  24      A500EB0C 
  24      055F
  25              		.text
  26              		.section	.gnu.lto_.pureconst.d13f6606f37b0d11,"",%progbits
  27 0000 789C6362 		.ascii	"x\234cb`b\340f\200\000V\006\006F \227\231\201E\012\000"
  27      6062E066 
  27      80005606 
  27      06462097 
  27      9981450A 
  28 0015 01B90039 		.ascii	"\001\271\0009"
  29              		.text
  30              		.section	.gnu.lto_writes.d13f6606f37b0d11,"",%progbits
  31 0000 789C6362 		.ascii	"x\234cb`b@\007\222@\034\005\304j@\314\310\314\300\310"
  31      60624007 
  31      92401C05 
  31      C46A40CC 
  31      C8CCC0C8 
  32 0014 34E11C03 		.ascii	"4\341\034\003C#\007\023##\210\301\300\310P\317\304X"
  32      43230713 
  32      232388C1 
ARM GAS  /tmp/cclT0r4k.s 			page 2


  32      C0C850CF 
  32      C458
  33 0026 1FC90856 		.ascii	"\037\311\010V\273\236\351\300\203\377\377\327\355\370"
  33      BB9EE9C0 
  33      83FFFFD7 
  33      EDF8
  34 0034 FA388B91 		.ascii	"\3728\213\221\231\2211\027,\312\312\320\322\3200A\201"
  34      99913117 
  34      2CCACAD0 
  34      D2D03041 
  34      81
  35 0045 812119CC 		.ascii	"\201!\031\314\015\001\222 \235\241\214L \232\371\"C"
  35      0D019220 
  35      9DA18C4C 
  35      209AF922 
  35      43
  36 0056 E383976C 		.ascii	"\343\203\227l\211\214\013\031Y\031\322\031!\346\000"
  36      898C0B19 
  36      5919D219 
  36      21E600
  37 0065 15318224 		.ascii	"\0251\202$A\256Q\321\323\323\317/\326\317H\314\321\317"
  37      41AE51D1 
  37      D3D3CF2F 
  37      D6CF48CC 
  37      D1CF
  38 0077 C94CD22F 		.ascii	"\311L\322/.)JM\314-\326\317+\315\311\201\262\365\222"
  38      2E294A4D 
  38      CC2DD6CF 
  38      2BCDC981 
  38      B2F592
  39 008a 19001B78 		.ascii	"\031\000\033x'\012"
  39      270A
  40              		.text
  41              		.section	.gnu.lto_reads.d13f6606f37b0d11,"",%progbits
  42 0000 789C6362 		.ascii	"x\234cb`b@\007\222@\034\011\304j@\314\310\314\300\310"
  42      60624007 
  42      92401C09 
  42      C46A40CC 
  42      C8CCC0C8 
  43 0014 34E11C03 		.ascii	"4\341\034\003C#\007\023##\210\301\300\310P\317\304X"
  43      43230713 
  43      232388C1 
  43      C0C850CF 
  43      C458
  44 0026 1FC90856 		.ascii	"\037\311\010V\273\236\351\300\203\377\377\327\335\330"
  44      BB9EE9C0 
  44      83FFFFD7 
  44      DDD8
  45 0034 F9B89A11 		.ascii	"\371\270\232\021d\022+CKC\303\004\005\006\206d\260|"
  45      64122B43 
  45      4B43C304 
  45      05068664 
  45      B07C
  46 0046 08900469 		.ascii	"\010\220\004i\012\005J\002i\346\213\014\215\017~\261"
  46      0A054A02 
  46      69E68B0C 
  46      8D0F7EB1 
ARM GAS  /tmp/cclT0r4k.s 			page 3


  47 0056 25322E64 		.ascii	"%2.dde\210`\314d\204\333\031\302\310\010R\0002BEOO?"
  47      64658860 
  47      CC6484DB 
  47      19C2C808 
  47      52003242 
  48 006e BF583F23 		.ascii	"\277X?#1G?'3I\277\270\244(51\267X?\2574'\007\312\326"
  48      31473F27 
  48      3349BFB8 
  48      A4283531 
  48      B7583FAF 
  49 0087 4B660000 		.ascii	"Kf\000\000\035\227&\370"
  49      1D9726F8 
  50              		.text
  51              		.section	.gnu.lto_put.d13f6606f37b0d11,"",%progbits
  52 0000 789C6362 		.ascii	"x\234cb`b@\007\222@\034\005\304j@\314\310\314\300\310"
  52      60624007 
  52      92401C05 
  52      C46A40CC 
  52      C8CCC0C8 
  53 0014 34E11C03 		.ascii	"4\341\034\003C#\007\023##\210\301\300\310P\317\304X"
  53      43230713 
  53      232388C1 
  53      C0C850CF 
  53      C458
  54 0026 1FC90856 		.ascii	"\037\311\010V\273\236\351\300\203\377\377\327\375\332"
  54      BB9EE9C0 
  54      83FFFFD7 
  54      FDDA
  55 0034 FBA89B51 		.ascii	"\373\250\233Q\020d\024+CKC\303\004\005\006\206d\260"
  55      1064142B 
  55      434B43C3 
  55      04050686 
  55      64B0
  56 0046 82102009 		.ascii	"\202\020 \011\322\025\312\310\004\242\231/24>\350JN"
  56      D215CAC8 
  56      04A2992F 
  56      32343EE8 
  56      4A4E
  57 0058 645CC8C8 		.ascii	"d\\\310\310\312\020\301\230\311\010\2674\204\221\021"
  57      CA10C198 
  57      C908B734 
  57      849111
  58 0067 A4006484 		.ascii	"\244\000d\204\212\236\236~~\261~Fb\216~Nf\222~qIQjb"
  58      8A9E9E7E 
  58      7EB17E46 
  58      628E7E4E 
  58      66927E71 
  59 007f 6EB17E5E 		.ascii	"n\261~^iN\016\224\255\227\314\000\000D\227',"
  59      694E0E94 
  59      AD97CC00 
  59      00449727 
  59      2C
  60              		.text
  61              		.section	.gnu.lto_get.d13f6606f37b0d11,"",%progbits
  62 0000 789C6362 		.ascii	"x\234cb`b@\007\222@\034\015\304j@\314\310\314\300\310"
  62      60624007 
  62      92401C0D 
ARM GAS  /tmp/cclT0r4k.s 			page 4


  62      C46A40CC 
  62      C8CCC0C8 
  63 0014 34E11C03 		.ascii	"4\341\034\003C#\007\023##\210\301\300\310P\317\304X"
  63      43230713 
  63      232388C1 
  63      C0C850CF 
  63      C458
  64 0026 1FC90856 		.ascii	"\037\311\010V\273\236\351\300\203\377\377\327\315j\233"
  64      BB9EE9C0 
  64      83FFFFD7 
  64      CD6A9B
  65 0035 B7867126 		.ascii	"\267\206q&\023\310,V\206\226\206\206\011\012\014\014"
  65      13C82C56 
  65      86968686 
  65      090A0C0C 
  66 0045 C9601521 		.ascii	"\311`\025!@\022\244-\224\221\011D3_dh|039\221q!#+C\004"
  66      4012A42D 
  66      94910944 
  66      335F6468 
  66      7C303339 
  67 0060 63262303 		.ascii	"c&#\003\013\324\326\020FF\220\002\220\021*zz\372\371"
  67      0BD4D610 
  67      46469002 
  67      90112A7A 
  67      7AFAF9
  68 0073 C5FA1989 		.ascii	"\305\372\031\2119\3729\231I\372\305%E\251\211\271\305"
  68      39FA3999 
  68      49FAC525 
  68      45A989B9 
  68      C5
  69 0084 FA79A539 		.ascii	"\372y\24599P\266^2\003\000?\271'\020"
  69      3950B65E 
  69      3203003F 
  69      B92710
  70              		.text
  71              		.section	.gnu.lto_nullObjectInit.d13f6606f37b0d11,"",%progbits
  72 0000 789C6362 		.ascii	"x\234cb`b@\007\222@\274\030\210\325\200\230\221\231"
  72      60624007 
  72      9240BC18 
  72      88D58098 
  72      9199
  73 0012 819169C2 		.ascii	"\201\221i\3029\006\206F\016&FF\020\203\201\221\241\236"
  73      39068646 
  73      0E264646 
  73      10838191 
  73      A19E
  74 0024 89B13E92 		.ascii	"\211\261>\222\021\254v=\323\201\007\377\377\257\273"
  74      11AC763D 
  74      D38107FF 
  74      FFAFBB
  75 0033 D7B67C0D 		.ascii	"\327\266|\015\343l&\026&\306\\\2608+CKC\303\004\005"
  75      E36C2616 
  75      26C65CB0 
  75      382B434B 
  75      43C30405 
  76 0047 06866430 		.ascii	"\006\206d07\004H\202\364\20622\201h\346\263\014M\277"
  76      37044882 
ARM GAS  /tmp/cclT0r4k.s 			page 5


  76      F4863232 
  76      8168E6B3 
  76      0C4DBF
  77 005a 9A9FF7CA 		.ascii	"\232\237\367\312$2.dde\320fX\325\000\004\274\231\214"
  77      24322E64 
  77      6465D066 
  77      58D50004 
  77      BC998C
  78 006d 0CB31966 		.ascii	"\014\263\031f1f22\24632E\000i\210\323\222 61T3\374j"
  78      31663232 
  78      A6333245 
  78      006988D3 
  78      92203631 
  79 0085 98D1D060 		.ascii	"\230\321\320`\013T\226\313\010\021\273\310\320\370`"
  79      0B5496CB 
  79      0811BBC8 
  79      D0F860
  80 0094 9732C414 		.ascii	"\2272\304\024\030\010\001\312\001\355\000\351U\321\323"
  80      180801CA 
  80      01ED00E9 
  80      55D1D3
  81 00a3 D3CF2FD6 		.ascii	"\323\317/\326\317H\314\321\317\311L\322/.)JM\314-\326"
  81      CF48CCD1 
  81      CFC94CD2 
  81      2F2E294A 
  81      4DCC2DD6 
  82 00b7 CF2BCDC9 		.ascii	"\317+\315\311\201\262\365\222\031\000W\3007\273"
  82      81B2F592 
  82      190057C0 
  82      37BB
  83              		.text
  84              		.section	.gnu.lto_.symbol_nodes.d13f6606f37b0d11,"",%progbits
  85 0000 789C6362 		.ascii	"x\234cb`b\010a\200\002\246\333\214\365\014\014\023\316"
  85      60620861 
  85      8002A6DB 
  85      8CF50C0C 
  85      13CE
  86 0012 3130D4D7 		.ascii	"10\324\327\317\351Ld\272\303X\317\210\304\275\313X\317"
  86      CFE94C64 
  86      BAC358CF 
  86      88C4BDCB 
  86      58CF
  87 0024 84C4BDC7 		.ascii	"\204\304\275\307X\317\214\304}\300X\317\002\345\316"
  87      58CF8CC4 
  87      7DC058CF 
  87      02E5CE
  88 0033 EB6064BD 		.ascii	"\353`d\275\317\310\300\002\224\007\000\307\037\033\265"
  88      CFC8C002 
  88      940700C7 
  88      1F1BB5
  89              		.text
  90              		.section	.gnu.lto_.refs.d13f6606f37b0d11,"",%progbits
  91 0000 789C6362 		.ascii	"x\234cb`b\340g\200\000F\026&V\026V&\006&F&&&f\006\000"
  91      6062E067 
  91      80004616 
  91      26561656 
  91      26062646 
ARM GAS  /tmp/cclT0r4k.s 			page 6


  92 001a 031B0037 		.ascii	"\003\033\0007"
  93              		.text
  94              		.section	.gnu.lto_.decls.d13f6606f37b0d11,"",%progbits
  95 0000 789CBD57 		.ascii	"x\234\275W[L\034U\030>\377,,\254 6M\332\340\203ak\254"
  95      5B4C1C55 
  95      183EFF2C 
  95      2CAC2036 
  95      4DDAE083 
  96 0017 0F353011 		.ascii	"\01750\021\373\300S\253\341\241\370@5j\21511\233\303"
  96      FBC053AB 
  96      E1A1F840 
  96      356A8D31 
  96      319BC3
  97 002a EE086B76 		.ascii	"\356\010kv\227\315\356`\275<x\254\001\233F-\365\022"
  97      97CDEE60 
  97      BD3C78AC 
  97      019B462D 
  97      F512
  98 003c AD510AA5 		.ascii	"\255Q\012\2454\251\242\011\365R\245\322n\214,\244\006"
  98      34A9A209 
  98      F552A5D2 
  98      6E8C2CA4 
  98      06
  99 004d 4335CD92 		.ascii	"C5\315\222\032\3546\241\255\367bK\245\265\342zn\313"
  99      1AEC36A1 
  99      ADF7624B 
  99      A5B5E27A 
  99      6ECB
 100 005f CE0C337B 		.ascii	"\316\0143{\361\301\223\234\331s\346\374\377\377\375"
 100      F1C1939C 
 100      D973E6FC 
 100      FFFFFD
 101 006e F733AB20 		.ascii	"\3673\253 \005\325\002B\031:H\015B\273\351\332\215\020"
 101      05D50242 
 101      193A480D 
 101      42BBE9DA 
 101      8D10
 102 0080 DA8472A3 		.ascii	"\332\204r\243\234\316\001:G\351\034\2473E\347,\235\224"
 102      9CCE013A 
 102      47E91CA7 
 102      3345E72C 
 102      9D94
 103 0092 145D47E6 		.ascii	"\024]G\3461`X\203\334\263\337#\026\272Q\371~\320@;\212"
 103      31605883 
 103      DCB3DF23 
 103      16BA51F9 
 103      7ED0403B 
 104 00a7 568E7179 		.ascii	"V\216qy6a\240\033\267\241K\331\320\245l\350\230\336"
 104      3661A01B 
 104      B7A14BD9 
 104      D0A56CE8 
 104      98DE
 105 00b9 2E3A2FD0 		.ascii	".:/\320y\226\316\264\244=/\177\331\271B\347U\033\333"
 105      7996CEB4 
 105      A43D2F7F 
 105      D9B942E7 
 105      551BDB
ARM GAS  /tmp/cclT0r4k.s 			page 7


 106 00cc EA501F99 		.ascii	"\352P\037\231\236Ow\247v\337L\372w$2\231\315h-z\203"
 106      9E4F77A7 
 106      76DF4CFA 
 106      77243299 
 106      CD682D7A 
 107 00e1 D0D1DF43 		.ascii	"\320\321\337C\010\350\036\264\223\220\035l\3232I]\371"
 107      08E81EB4 
 107      93901D6C 
 107      D332495D 
 107      F9
 108 00f2 0860A8F1 		.ascii	"\010`\250\361 /_T{P\031\025\261\036\035 \2447\275o\344"
 108      202F5F54 
 108      7B501915 
 108      B11E1D20 
 108      A437BD6F 
 109 0107 5D95904A 		.ascii	"]\225\220J\014\203\340\241p\217\002\332\200\016Q9\275"
 109      0C83E0A1 
 109      708F02DA 
 109      800E5139 
 109      BD
 110 0118 84EC6F04 		.ascii	"\204\354o\004\033\2651\224{V\3541\034\204\015H\000\361"
 110      1BB53194 
 110      7B56EC31 
 110      1C840D48 
 110      00F1
 111 012a 63B960B1 		.ascii	"c\271`\261\274\311\036\237q\356\207\265|\345\342\206"
 111      BCC91E9F 
 111      71EE87B5 
 111      7CE5E286 
 112 013a D2179BAB 		.ascii	"\322\027\233\253\262\353*\264+g\2014'=\224\250}+gNe"
 112      B2EB2AB4 
 112      2B678134 
 112      273D94A8 
 112      7D2B674E 
 113 014f 561CE4CC 		.ascii	"V\034\344\314\031y\361\203;\2509\313\014\304\221\001"
 113      1979F183 
 113      3BA839CB 
 113      0CC49101 
 114 015f C3FBB09E 		.ascii	"\303\373\260\236>\301\254=xr\213\014\260\010\364\000"
 114      3EC1AC3D 
 114      78728B0C 
 114      B008F400 
 115 016f 2C53B051 		.ascii	",S\260Q\204l\251\314\330\256\276&\356\333\017\271o\277"
 115      846CA9CC 
 115      D8AEBE26 
 115      EEDB0FB9 
 115      6FBF
 116 0181 B0089260 		.ascii	"\260\010\222`\006O\026\320\245\024Z'\227\037\202*\203"
 116      064F16D0 
 116      A5145A27 
 116      971F822A 
 116      83
 117 0192 9865C70F 		.ascii	"\230e\307\017\012U0ls-\037*(i\321\37064H\310\253\351"
 117      0A55306C 
 117      732D1F2A 
 117      2869D1F8 
 117      363448C8 
ARM GAS  /tmp/cclT0r4k.s 			page 8


 118 01a8 EE37FB68 		.ascii	"\3567\373h\332)<\\\012\232\342D\003Pg\213\311\211$#"
 118      DA293C5C 
 118      0A9AE244 
 118      0350678B 
 118      C9892423 
 119 01bc 39AEB508 		.ascii	"9\256\265\010\015\0244]\200\213\353)\331\25606\221\237"
 119      0D14345D 
 119      808BEB29 
 119      D9AE3036 
 119      919F
 120 01ce DF156093 		.ascii	"\337\025`\223v\334\216\206X\214\216\317\335\337\222"
 120      76DC8E86 
 120      588C8ECF 
 120      DDDF92
 121 01dd 7DE7CC25 		.ascii	"}\347\314%=s\030\024\243\207E\211%f\264I2O\223\330T"
 121      3D731814 
 121      A3874589 
 121      2566B449 
 121      324F93D8 
 122 01f2 5E42A693 		.ascii	"^B\246\223\213\217\026\231\325\030\206\363H9VJ\240N"
 122      8B8F1699 
 122      D51886F3 
 122      4839564A 
 122      A04E
 123 0204 D9068A2C 		.ascii	"\331\006\212,\006Z8:\206\217\251q\030F\213\011\322\010"
 123      065A383A 
 123      868FA971 
 123      18468B09 
 123      D208
 124 0216 F33643C7 		.ascii	"\3636C\307\360i\001\256c\206 \245\262A\302\360Y\001"
 124      F06901AE 
 124      638620A5 
 124      B241C2F0 
 124      5901
 125 0228 B67C4172 		.ascii	"\266|Ar\342\222^I\330\006\351\372\265I\240*\374\235"
 125      E2925E49 
 125      D806E9FA 
 125      B549A02A 
 125      FC9D
 126 023a C9B86CFA 		.ascii	"\311\270l\372 )\246\017.~\363\325Ix\201\362`\230\340"
 126      2029A60F 
 126      2E7EF3D5 
 126      497881F2 
 126      6098E0
 127 024d 99F68A62 		.ascii	"\231\366\212bS\366\305\210\352\037\231XC\3120\234\340"
 127      53F6C588 
 127      EA1F9958 
 127      43CA309C 
 127      E0
 128 025e 625EFFAF 		.ascii	"b^\377\257b\322c'\216\210\3561\305\005\275\243X\273"
 128      62D26327 
 128      8E88EE31 
 128      C505BDA3 
 128      58BB
 129 0270 87DBD23D 		.ascii	"\207\333\322=\334\346\216@\267\014\351*\353\301\360"
 129      DCE68E40 
 129      B70CE92A 
ARM GAS  /tmp/cclT0r4k.s 			page 9


 129      EBC1F0
 130 027f 9C7CC336 		.ascii	"\234|\3036\025\350\177\347sJ\362\244s\251\210\352X\231"
 130      15E87FE7 
 130      734AF2A4 
 130      73A988EA 
 130      5899
 131 0291 EA0715DB 		.ascii	"\352\007\025\333\236t\340Lu/\230\222}\274\230d\337\373"
 131      9E74E04C 
 131      752F9892 
 131      7DBC9864 
 131      DFFB
 132 02a3 58AD0052 		.ascii	"X\255\000R\320{\\\260\201\313r]\014\033\262\226\220"
 132      D07B5CB0 
 132      81CB725D 
 132      0C1BB296 
 132      90
 133 02b4 319EB513 		.ascii	"1\236\265\0232k\235\260\244\231\337\332f\355\333\311"
 133      326B9DB0 
 133      A499DFDA 
 133      66EDDBC9 
 134 02c4 EADEE7D3 		.ascii	"\352\336\347\323\231L\235\245\267L\344\351\01236\016"
 134      994C9DA5 
 134      B74CE4E9 
 134      0A33360E 
 135 02d4 B33868D8 		.ascii	"\2638h\330\326A\344\017K/H\345u\217\203\235NLR\273\323"
 135      D641E40F 
 135      4B2F48E5 
 135      758F839D 
 135      4E4C52BB 
 136 02e9 2BEDEC4F 		.ascii	"+\355\354O'\316\364|m_\235\0306\255q\264\364\007\263"
 136      27CEF47C 
 136      6D5F9D18 
 136      36AD71B4 
 136      F407B3
 137 02fc A5A6CEB9 		.ascii	"\245\246\316\271\032\355\341R\334\005J\350\344k\343"
 137      1AEDE152 
 137      DC054AE8 
 137      E46BE3
 138 030b 77F2123A 		.ascii	"w\362\022:\013\253Y\227\264x\246\240\030\246\307\034"
 138      0BAB5997 
 138      B478A6A0 
 138      18A6C71C 
 139 031b 65154C5C 		.ascii	"e\025L\\(I,i^\361\026\231\204\231\306:\324O\265M\354"
 139      28492C69 
 139      5EF11699 
 139      8499C63A 
 139      D44FB54D 
 140 0330 49EEA317 		.ascii	"I\356\243\027\345\227`\253<\365\200\001\227@\026x\025"
 140      E59760AB 
 140      3CF58001 
 140      97401678 
 140      15
 141 0341 8F629AEA 		.ascii	"\217b\232\352*)\275\216d\030~\342\261\374\331\252\343"
 141      2A29BD8E 
 141      64187EE2 
 141      B1FCD9AA 
 141      E3
ARM GAS  /tmp/cclT0r4k.s 			page 10


 142 0352 F7D82BDE 		.ascii	"\367\330+\336\026\326qv\252\272\027[\356%\366]\346\344"
 142      16D67176 
 142      AABA175B 
 142      EE25F65D 
 142      E6E4
 143 0364 8FDF72F7 		.ascii	"\217\337r\367\222\202~\347\036e@v\344r)\206$0\201\223"
 143      92827EE7 
 143      1E654076 
 143      E4722986 
 143      24308193 
 144 0378 C38478DC 		.ascii	"\303\204x\334\026\360\243y\300\347\215\340\013%\203"
 144      16F0A379 
 144      C0E78DE0 
 144      0B2583
 145 0387 7B0B8227 		.ascii	"{\013\202'\363\200_\316\201\213\222.\010^Y\232\3453"
 145      F3805FCE 
 145      818B922E 
 145      085E599A 
 145      E533
 146 0399 79C0AF18 		.ascii	"y\300\257\030\301O\227\014\356\265\004?\233\025\030"
 146      C14F970C 
 146      EEB5043F 
 146      9B1518
 147 03a8 7E8575F4 		.ascii	"~\205u\364y\221?/\361\347\002}.\017'}.\030#q\215Gb\256"
 147      79913F2F 
 147      F1E7027D 
 147      2E0F277D 
 147      2E182371 
 148 03c0 F434B01B 		.ascii	"\3644\260\033\306\222\303p\216\177\244\237/F\245\264"
 148      C692C370 
 148      8E7FA49F 
 148      2F46A5B4 
 149 03d0 D145A696 		.ascii	"\321E\246\226\270d\177g\234\373e\262l/I\224\011V\005"
 149      B8647F67 
 149      9CFB65B2 
 149      6C2F4994 
 149      095605
 150 03e3 BDE46264 		.ascii	"\275\344bd\263\216\215Q\002\310\316\3702\351^\005\274"
 150      B38E8D51 
 150      02C8CEF8 
 150      32E95E05 
 150      BC
 151 03f4 8521C965 		.ascii	"\205!\311e2b\321\334\013oE\003dz:\361yr\010\350?6B\376"
 151      3262D1DC 
 151      0B6F4503 
 151      647A3AF1 
 151      797208E8 
 152 040c A1972486 		.ascii	"\241\227$\206\037\271\245\177\362p2\365l\253\034I\022"
 152      1FB9A57F 
 152      F27032F5 
 152      6CAB1C49 
 152      12
 153 041d 3636A28F 		.ascii	"66\242\217\310\316\304\335YN\026\274g\321_\204~S|\002"
 153      C8CEC4DD 
 153      594E16BC 
 153      67D15F84 
 153      7E537C02 
ARM GAS  /tmp/cclT0r4k.s 			page 11


 154 0431 A236C577 		.ascii	"\2426\305w.g\272\230;=\005\242x\304\007\026?\275\224"
 154      2E67BA98 
 154      3B3D05A2 
 154      78C40716 
 154      3FBD94
 155 0444 3BBD0C22 		.ascii	";\275\014\"\273\305E\306O\027r\247K \322O\264\177\351"
 155      BBC545C6 
 155      4F1772A7 
 155      4B20D24F 
 155      B47FE9
 156 0457 C18606B5 		.ascii	"\301\206\006\2653\256v\340\220\032\012\266\251q=\246"
 156      33AE76E0 
 156      901A0AB6 
 156      A9713DA6 
 157 0467 E1705C8D 		.ascii	"\341p\\\215t\205Br\335\340G\215jW<\306\317\333\375~"
 157      74854272 
 157      DDE0478D 
 157      6A573CC6 
 157      CFDBFD7E 
 158 047b 15C7C2F5 		.ascii	"\025\307\302\365\221\316\210V\257\341\266\240\272\261"
 158      91CE8856 
 158      AFE1B6A0 
 158      BAB1
 159 0489 A1A9A151 		.ascii	"\241\251\241Q\015F\374\241\256\200F\371\003\001\355"
 159      0D46FCA1 
 159      AE8046F9 
 159      0301ED
 160 0498 F1860EE4 		.ascii	"\361\206\016\344\216\007\237\321|\272{\313\326m\336"
 160      8E079FD1 
 160      7CBA7BCB 
 160      D66DDE
 161 04a7 66740B17 		.ascii	"ft\013\027\220%\212h\333\005V \030\321)mE\027\375m\362"
 161      90258A68 
 161      DB055620 
 161      18D1296D 
 161      4517FD6D 
 162 04bc E9F57654 		.ascii	"\351\365vTa\354\357\010F4\325G\345\342\256\220\356\323"
 162      61ECEF08 
 162      4634D547 
 162      E5E2AE90 
 162      EED3
 163 04ce 9F8E6A71 		.ascii	"\237\216jq\312\345\361\371$\237{{,\250kq%\030U\332\242"
 163      CAE5F1F9 
 163      249F7B7B 
 163      2CA86B71 
 163      251855DA 
 164 04e3 1029A76A 		.ascii	"\020)\247j\007\342\215\3020\177g8\334\031Q\243\2351"
 164      07E28DC2 
 164      307F6738 
 164      DC1951A3 
 164      9D31
 165 04f5 3DAEDEF3 		.ascii	"=\256\336\363@ks\353S\354]4\030\322bquKs\263\352\357"
 165      406B73EB 
 165      53EC5D34 
 165      18D26271 
 165      754B73B3 
 166 050b C84A2C0F 		.ascii	"\310J,\017\307\333}z\005\025zW\243O\247\362\345\312"
ARM GAS  /tmp/cclT0r4k.s 			page 12


 166      C7DB7D7A 
 166      05157A57 
 166      A34FA7F2 
 166      E5CA
 167 051d 15EDD2A1 		.ascii	"\025\355\322\241\315\325\256\351Ex\253\003\335\260\225"
 167      CDD5AEE9 
 167      4578AB03 
 167      DDB095
 168 052c 6E1FE4DB 		.ascii	"n\037\344\333\033s\313\207[\037*\347z\2261\365\\O\206"
 168      1B73CB87 
 168      5B1F2AE7 
 168      7A9631F5 
 168      5C4F86
 169 053f F51AC676 		.ascii	"\365\032\306v_\333\023\232_\2777\022\324]\221x\364_"
 169      5FDB139A 
 169      5FBF3712 
 169      D45D9178 
 169      F45F
 170 0551 9231613A 		.ascii	"\2221a:"
 171              		.text
 172              		.section	.gnu.lto_.symtab.d13f6606f37b0d11,"",%progbits
 173 0000 6E756C6C 		.ascii	"nullObjectInit\000\000\000\000\000\000\000\000\000\000"
 173      4F626A65 
 173      6374496E 
 173      69740000 
 173      00000000 
 174 0018 0000DD00 		.ascii	"\000\000\335\000\000\000"
 174      0000
 175              		.text
 176              		.section	.gnu.lto_.opts,"",%progbits
 177 0000 272D6D63 		.ascii	"'-mcpu=cortex-m3' '-mno-thumb-interwork' '-mthumb' "
 177      70753D63 
 177      6F727465 
 177      782D6D33 
 177      2720272D 
 178 0033 272D6767 		.ascii	"'-ggdb' '-O2' '-fomit-frame-pointer' '-falign-funct"
 178      64622720 
 178      272D4F32 
 178      2720272D 
 178      666F6D69 
 179 0066 696F6E73 		.ascii	"ions=16' '-ffunction-sections' '-fdata-sections' '-"
 179      3D313627 
 179      20272D66 
 179      66756E63 
 179      74696F6E 
 180 0099 666E6F2D 		.ascii	"fno-common' '-flto'\000"
 180      636F6D6D 
 180      6F6E2720 
 180      272D666C 
 180      746F2700 
 181              		.text
 182              		.cfi_sections	.debug_frame
 183              		.section	.text.writes,"ax",%progbits
 184              		.align	2
 185              		.p2align 4,,15
 186              		.thumb
 187              		.thumb_func
ARM GAS  /tmp/cclT0r4k.s 			page 13


 188              		.type	writes, %function
 189              	writes:
 190              	.LFB219:
 191              		.file 1 "../os/hal/lib/streams/nullstreams.c"
 192              		.loc 1 44 0
 193              		.cfi_startproc
 194              		@ args = 0, pretend = 0, frame = 0
 195              		@ frame_needed = 0, uses_anonymous_args = 0
 196              		@ link register save eliminated.
 197              	.LVL0:
 198              		.loc 1 50 0
 199 0000 1046     		mov	r0, r2
 200              	.LVL1:
 201 0002 7047     		bx	lr
 202              		.cfi_endproc
 203              	.LFE219:
 204              		.size	writes, .-writes
 205 0004 AFF30080 		.section	.text.reads,"ax",%progbits
 205      AFF30080 
 205      AFF30080 
 206              		.align	2
 207              		.p2align 4,,15
 208              		.thumb
 209              		.thumb_func
 210              		.type	reads, %function
 211              	reads:
 212              	.LFB220:
 213              		.loc 1 52 0
 214              		.cfi_startproc
 215              		@ args = 0, pretend = 0, frame = 0
 216              		@ frame_needed = 0, uses_anonymous_args = 0
 217              		@ link register save eliminated.
 218              	.LVL2:
 219              		.loc 1 59 0
 220 0000 0020     		movs	r0, #0
 221              	.LVL3:
 222 0002 7047     		bx	lr
 223              		.cfi_endproc
 224              	.LFE220:
 225              		.size	reads, .-reads
 226 0004 AFF30080 		.section	.text.put,"ax",%progbits
 226      AFF30080 
 226      AFF30080 
 227              		.align	2
 228              		.p2align 4,,15
 229              		.thumb
 230              		.thumb_func
 231              		.type	put, %function
 232              	put:
 233              	.LFB221:
 234              		.loc 1 61 0
 235              		.cfi_startproc
 236              		@ args = 0, pretend = 0, frame = 0
 237              		@ frame_needed = 0, uses_anonymous_args = 0
 238              		@ link register save eliminated.
 239              	.LVL4:
 240              		.loc 1 67 0
ARM GAS  /tmp/cclT0r4k.s 			page 14


 241 0000 0020     		movs	r0, #0
 242              	.LVL5:
 243 0002 7047     		bx	lr
 244              		.cfi_endproc
 245              	.LFE221:
 246              		.size	put, .-put
 247 0004 AFF30080 		.section	.text.get,"ax",%progbits
 247      AFF30080 
 247      AFF30080 
 248              		.align	2
 249              		.p2align 4,,15
 250              		.thumb
 251              		.thumb_func
 252              		.type	get, %function
 253              	get:
 254              	.LFB222:
 255              		.loc 1 69 0
 256              		.cfi_startproc
 257              		@ args = 0, pretend = 0, frame = 0
 258              		@ frame_needed = 0, uses_anonymous_args = 0
 259              		@ link register save eliminated.
 260              	.LVL6:
 261              		.loc 1 74 0
 262 0000 0420     		movs	r0, #4
 263              	.LVL7:
 264 0002 7047     		bx	lr
 265              		.cfi_endproc
 266              	.LFE222:
 267              		.size	get, .-get
 268 0004 AFF30080 		.section	.text.nullObjectInit,"ax",%progbits
 268      AFF30080 
 268      AFF30080 
 269              		.align	2
 270              		.p2align 4,,15
 271              		.global	nullObjectInit
 272              		.thumb
 273              		.thumb_func
 274              		.type	nullObjectInit, %function
 275              	nullObjectInit:
 276              	.LFB223:
 277              		.loc 1 87 0
 278              		.cfi_startproc
 279              		@ args = 0, pretend = 0, frame = 0
 280              		@ frame_needed = 0, uses_anonymous_args = 0
 281              		@ link register save eliminated.
 282              	.LVL8:
 283              		.loc 1 89 0
 284 0000 40F20003 		movw	r3, #:lower16:.LANCHOR0
 285 0004 C0F20003 		movt	r3, #:upper16:.LANCHOR0
 286 0008 0360     		str	r3, [r0]
 287 000a 7047     		bx	lr
 288              		.cfi_endproc
 289              	.LFE223:
 290              		.size	nullObjectInit, .-nullObjectInit
 291 000c AFF30080 		.section	.rodata.vmt,"a",%progbits
 292              		.align	2
 293              		.set	.LANCHOR0,. + 0
ARM GAS  /tmp/cclT0r4k.s 			page 15


 294              		.type	vmt, %object
 295              		.size	vmt, 16
 296              	vmt:
 297 0000 00000000 		.word	writes
 298 0004 00000000 		.word	reads
 299 0008 00000000 		.word	put
 300 000c 00000000 		.word	get
 301              		.text
 302              	.Letext0:
 303              		.file 2 "/usr/lib/gcc/arm-none-eabi/4.8.2/include/stddef.h"
 304              		.file 3 "/usr/include/newlib/machine/_default_types.h"
 305              		.file 4 "/usr/include/newlib/stdint.h"
 306              		.file 5 "../os/common/ports/ARMCMx/compilers/GCC/chtypes.h"
 307              		.file 6 "../os/rt/include/chsystypes.h"
 308              		.file 7 "../os/rt/include/chschd.h"
 309              		.file 8 "../os/common/ports/ARMCMx/chcore.h"
 310              		.file 9 "../os/common/ports/ARMCMx/chcore_v7m.h"
 311              		.file 10 "../os/rt/include/chsem.h"
 312              		.file 11 "../os/rt/include/chmtx.h"
 313              		.file 12 "../os/hal/lib/streams/nullstreams.h"
 314              		.file 13 "../os/common/ext/CMSIS/include/core_cm3.h"
 315              		.section	.debug_info,"",%progbits
 316              	.Ldebug_info0:
 317 0000 F8070000 		.4byte	0x7f8
 318 0004 0400     		.2byte	0x4
 319 0006 00000000 		.4byte	.Ldebug_abbrev0
 320 000a 04       		.byte	0x4
 321 000b 01       		.uleb128 0x1
 322 000c 37000000 		.4byte	.LASF97
 323 0010 01       		.byte	0x1
 324 0011 50040000 		.4byte	.LASF98
 325 0015 00000000 		.4byte	.LASF99
 326 0019 00000000 		.4byte	.Ldebug_ranges0+0
 327 001d 00000000 		.4byte	0
 328 0021 00000000 		.4byte	.Ldebug_line0
 329 0025 02       		.uleb128 0x2
 330 0026 04       		.byte	0x4
 331 0027 05       		.byte	0x5
 332 0028 696E7400 		.ascii	"int\000"
 333 002c 03       		.uleb128 0x3
 334 002d DA000000 		.4byte	.LASF2
 335 0031 02       		.byte	0x2
 336 0032 D4       		.byte	0xd4
 337 0033 37000000 		.4byte	0x37
 338 0037 04       		.uleb128 0x4
 339 0038 04       		.byte	0x4
 340 0039 07       		.byte	0x7
 341 003a 0F020000 		.4byte	.LASF0
 342 003e 04       		.uleb128 0x4
 343 003f 01       		.byte	0x1
 344 0040 06       		.byte	0x6
 345 0041 99010000 		.4byte	.LASF1
 346 0045 03       		.uleb128 0x3
 347 0046 F7000000 		.4byte	.LASF3
 348 004a 03       		.byte	0x3
 349 004b 1C       		.byte	0x1c
 350 004c 50000000 		.4byte	0x50
ARM GAS  /tmp/cclT0r4k.s 			page 16


 351 0050 04       		.uleb128 0x4
 352 0051 01       		.byte	0x1
 353 0052 08       		.byte	0x8
 354 0053 92030000 		.4byte	.LASF4
 355 0057 04       		.uleb128 0x4
 356 0058 02       		.byte	0x2
 357 0059 05       		.byte	0x5
 358 005a A0030000 		.4byte	.LASF5
 359 005e 03       		.uleb128 0x3
 360 005f 1E040000 		.4byte	.LASF6
 361 0063 03       		.byte	0x3
 362 0064 26       		.byte	0x26
 363 0065 69000000 		.4byte	0x69
 364 0069 04       		.uleb128 0x4
 365 006a 02       		.byte	0x2
 366 006b 07       		.byte	0x7
 367 006c 60020000 		.4byte	.LASF7
 368 0070 03       		.uleb128 0x3
 369 0071 3C040000 		.4byte	.LASF8
 370 0075 03       		.byte	0x3
 371 0076 37       		.byte	0x37
 372 0077 7B000000 		.4byte	0x7b
 373 007b 04       		.uleb128 0x4
 374 007c 04       		.byte	0x4
 375 007d 05       		.byte	0x5
 376 007e B6010000 		.4byte	.LASF9
 377 0082 03       		.uleb128 0x3
 378 0083 E5010000 		.4byte	.LASF10
 379 0087 03       		.byte	0x3
 380 0088 38       		.byte	0x38
 381 0089 8D000000 		.4byte	0x8d
 382 008d 04       		.uleb128 0x4
 383 008e 04       		.byte	0x4
 384 008f 07       		.byte	0x7
 385 0090 32020000 		.4byte	.LASF11
 386 0094 04       		.uleb128 0x4
 387 0095 08       		.byte	0x8
 388 0096 05       		.byte	0x5
 389 0097 8B010000 		.4byte	.LASF12
 390 009b 03       		.uleb128 0x3
 391 009c 4C030000 		.4byte	.LASF13
 392 00a0 03       		.byte	0x3
 393 00a1 4E       		.byte	0x4e
 394 00a2 A6000000 		.4byte	0xa6
 395 00a6 04       		.uleb128 0x4
 396 00a7 08       		.byte	0x8
 397 00a8 07       		.byte	0x7
 398 00a9 19010000 		.4byte	.LASF14
 399 00ad 03       		.uleb128 0x3
 400 00ae 99040000 		.4byte	.LASF15
 401 00b2 04       		.byte	0x4
 402 00b3 2A       		.byte	0x2a
 403 00b4 45000000 		.4byte	0x45
 404 00b8 03       		.uleb128 0x3
 405 00b9 D6010000 		.4byte	.LASF16
 406 00bd 04       		.byte	0x4
 407 00be 36       		.byte	0x36
ARM GAS  /tmp/cclT0r4k.s 			page 17


 408 00bf 5E000000 		.4byte	0x5e
 409 00c3 03       		.uleb128 0x3
 410 00c4 44020000 		.4byte	.LASF17
 411 00c8 04       		.byte	0x4
 412 00c9 41       		.byte	0x41
 413 00ca 70000000 		.4byte	0x70
 414 00ce 03       		.uleb128 0x3
 415 00cf E2030000 		.4byte	.LASF18
 416 00d3 04       		.byte	0x4
 417 00d4 42       		.byte	0x42
 418 00d5 82000000 		.4byte	0x82
 419 00d9 03       		.uleb128 0x3
 420 00da 29030000 		.4byte	.LASF19
 421 00de 04       		.byte	0x4
 422 00df 4E       		.byte	0x4e
 423 00e0 9B000000 		.4byte	0x9b
 424 00e4 03       		.uleb128 0x3
 425 00e5 AE020000 		.4byte	.LASF20
 426 00e9 05       		.byte	0x5
 427 00ea 3C       		.byte	0x3c
 428 00eb AD000000 		.4byte	0xad
 429 00ef 03       		.uleb128 0x3
 430 00f0 BF010000 		.4byte	.LASF21
 431 00f4 05       		.byte	0x5
 432 00f5 3D       		.byte	0x3d
 433 00f6 AD000000 		.4byte	0xad
 434 00fa 03       		.uleb128 0x3
 435 00fb 57030000 		.4byte	.LASF22
 436 00ff 05       		.byte	0x5
 437 0100 3E       		.byte	0x3e
 438 0101 AD000000 		.4byte	0xad
 439 0105 03       		.uleb128 0x3
 440 0106 74030000 		.4byte	.LASF23
 441 010a 05       		.byte	0x5
 442 010b 40       		.byte	0x40
 443 010c CE000000 		.4byte	0xce
 444 0110 03       		.uleb128 0x3
 445 0111 7D020000 		.4byte	.LASF24
 446 0115 05       		.byte	0x5
 447 0116 41       		.byte	0x41
 448 0117 C3000000 		.4byte	0xc3
 449 011b 03       		.uleb128 0x3
 450 011c C4020000 		.4byte	.LASF25
 451 0120 05       		.byte	0x5
 452 0121 43       		.byte	0x43
 453 0122 CE000000 		.4byte	0xce
 454 0126 03       		.uleb128 0x3
 455 0127 09020000 		.4byte	.LASF26
 456 012b 05       		.byte	0x5
 457 012c 45       		.byte	0x45
 458 012d C3000000 		.4byte	0xc3
 459 0131 03       		.uleb128 0x3
 460 0132 32040000 		.4byte	.LASF27
 461 0136 06       		.byte	0x6
 462 0137 35       		.byte	0x35
 463 0138 B8000000 		.4byte	0xb8
 464 013c 03       		.uleb128 0x3
ARM GAS  /tmp/cclT0r4k.s 			page 18


 465 013d 29040000 		.4byte	.LASF28
 466 0141 06       		.byte	0x6
 467 0142 3F       		.byte	0x3f
 468 0143 47010000 		.4byte	0x147
 469 0147 05       		.uleb128 0x5
 470 0148 73020000 		.4byte	.LASF46
 471 014c 44       		.byte	0x44
 472 014d 07       		.byte	0x7
 473 014e 9A       		.byte	0x9a
 474 014f 25020000 		.4byte	0x225
 475 0153 06       		.uleb128 0x6
 476 0154 55020000 		.4byte	.LASF29
 477 0158 07       		.byte	0x7
 478 0159 9B       		.byte	0x9b
 479 015a 5A020000 		.4byte	0x25a
 480 015e 00       		.byte	0
 481 015f 06       		.uleb128 0x6
 482 0160 3F030000 		.4byte	.LASF30
 483 0164 07       		.byte	0x7
 484 0165 9C       		.byte	0x9c
 485 0166 05010000 		.4byte	0x105
 486 016a 08       		.byte	0x8
 487 016b 07       		.uleb128 0x7
 488 016c 63747800 		.ascii	"ctx\000"
 489 0170 07       		.byte	0x7
 490 0171 9D       		.byte	0x9d
 491 0172 46040000 		.4byte	0x446
 492 0176 0C       		.byte	0xc
 493 0177 06       		.uleb128 0x6
 494 0178 DB020000 		.4byte	.LASF31
 495 017c 07       		.byte	0x7
 496 017d 9F       		.byte	0x9f
 497 017e 30020000 		.4byte	0x230
 498 0182 10       		.byte	0x10
 499 0183 06       		.uleb128 0x6
 500 0184 DF010000 		.4byte	.LASF32
 501 0188 07       		.byte	0x7
 502 0189 A0       		.byte	0xa0
 503 018a 30020000 		.4byte	0x230
 504 018e 14       		.byte	0x14
 505 018f 06       		.uleb128 0x6
 506 0190 5B020000 		.4byte	.LASF33
 507 0194 07       		.byte	0x7
 508 0195 A7       		.byte	0xa7
 509 0196 AB050000 		.4byte	0x5ab
 510 019a 18       		.byte	0x18
 511 019b 06       		.uleb128 0x6
 512 019c 08040000 		.4byte	.LASF34
 513 01a0 07       		.byte	0x7
 514 01a1 B0       		.byte	0xb0
 515 01a2 BD050000 		.4byte	0x5bd
 516 01a6 1C       		.byte	0x1c
 517 01a7 06       		.uleb128 0x6
 518 01a8 B0010000 		.4byte	.LASF35
 519 01ac 07       		.byte	0x7
 520 01ad B5       		.byte	0xb5
 521 01ae EF000000 		.4byte	0xef
ARM GAS  /tmp/cclT0r4k.s 			page 19


 522 01b2 20       		.byte	0x20
 523 01b3 06       		.uleb128 0x6
 524 01b4 A1040000 		.4byte	.LASF36
 525 01b8 07       		.byte	0x7
 526 01b9 B9       		.byte	0xb9
 527 01ba E4000000 		.4byte	0xe4
 528 01be 21       		.byte	0x21
 529 01bf 06       		.uleb128 0x6
 530 01c0 5F030000 		.4byte	.LASF37
 531 01c4 07       		.byte	0x7
 532 01c5 BE       		.byte	0xbe
 533 01c6 FA000000 		.4byte	0xfa
 534 01ca 22       		.byte	0x22
 535 01cb 08       		.uleb128 0x8
 536 01cc 7500     		.ascii	"u\000"
 537 01ce 07       		.byte	0x7
 538 01cf 0F01     		.2byte	0x10f
 539 01d1 E0040000 		.4byte	0x4e0
 540 01d5 24       		.byte	0x24
 541 01d6 09       		.uleb128 0x9
 542 01d7 F9010000 		.4byte	.LASF38
 543 01db 07       		.byte	0x7
 544 01dc 1401     		.2byte	0x114
 545 01de 36020000 		.4byte	0x236
 546 01e2 28       		.byte	0x28
 547 01e3 09       		.uleb128 0x9
 548 01e4 EE000000 		.4byte	.LASF39
 549 01e8 07       		.byte	0x7
 550 01e9 1A01     		.2byte	0x11a
 551 01eb 5A020000 		.4byte	0x25a
 552 01ef 2C       		.byte	0x2c
 553 01f0 09       		.uleb128 0x9
 554 01f1 83020000 		.4byte	.LASF40
 555 01f5 07       		.byte	0x7
 556 01f6 2001     		.2byte	0x120
 557 01f8 1B010000 		.4byte	0x11b
 558 01fc 34       		.byte	0x34
 559 01fd 09       		.uleb128 0x9
 560 01fe BD040000 		.4byte	.LASF41
 561 0202 07       		.byte	0x7
 562 0203 2701     		.2byte	0x127
 563 0205 A5050000 		.4byte	0x5a5
 564 0209 38       		.byte	0x38
 565 020a 09       		.uleb128 0x9
 566 020b E7020000 		.4byte	.LASF42
 567 020f 07       		.byte	0x7
 568 0210 2B01     		.2byte	0x12b
 569 0212 05010000 		.4byte	0x105
 570 0216 3C       		.byte	0x3c
 571 0217 09       		.uleb128 0x9
 572 0218 74040000 		.4byte	.LASF43
 573 021c 07       		.byte	0x7
 574 021d 3201     		.2byte	0x132
 575 021f 0D030000 		.4byte	0x30d
 576 0223 40       		.byte	0x40
 577 0224 00       		.byte	0
 578 0225 03       		.uleb128 0x3
ARM GAS  /tmp/cclT0r4k.s 			page 20


 579 0226 F9020000 		.4byte	.LASF44
 580 022a 06       		.byte	0x6
 581 022b 44       		.byte	0x44
 582 022c 30020000 		.4byte	0x230
 583 0230 0A       		.uleb128 0xa
 584 0231 04       		.byte	0x4
 585 0232 3C010000 		.4byte	0x13c
 586 0236 03       		.uleb128 0x3
 587 0237 AE040000 		.4byte	.LASF45
 588 023b 06       		.byte	0x6
 589 023c 49       		.byte	0x49
 590 023d 41020000 		.4byte	0x241
 591 0241 05       		.uleb128 0x5
 592 0242 F2030000 		.4byte	.LASF47
 593 0246 04       		.byte	0x4
 594 0247 07       		.byte	0x7
 595 0248 88       		.byte	0x88
 596 0249 5A020000 		.4byte	0x25a
 597 024d 06       		.uleb128 0x6
 598 024e 6F010000 		.4byte	.LASF48
 599 0252 07       		.byte	0x7
 600 0253 89       		.byte	0x89
 601 0254 30020000 		.4byte	0x230
 602 0258 00       		.byte	0
 603 0259 00       		.byte	0
 604 025a 03       		.uleb128 0x3
 605 025b 7A040000 		.4byte	.LASF49
 606 025f 06       		.byte	0x6
 607 0260 50       		.byte	0x50
 608 0261 65020000 		.4byte	0x265
 609 0265 05       		.uleb128 0x5
 610 0266 74010000 		.4byte	.LASF50
 611 026a 08       		.byte	0x8
 612 026b 07       		.byte	0x7
 613 026c 8F       		.byte	0x8f
 614 026d 8A020000 		.4byte	0x28a
 615 0271 06       		.uleb128 0x6
 616 0272 6F010000 		.4byte	.LASF48
 617 0276 07       		.byte	0x7
 618 0277 90       		.byte	0x90
 619 0278 30020000 		.4byte	0x230
 620 027c 00       		.byte	0
 621 027d 06       		.uleb128 0x6
 622 027e 01010000 		.4byte	.LASF51
 623 0282 07       		.byte	0x7
 624 0283 91       		.byte	0x91
 625 0284 30020000 		.4byte	0x230
 626 0288 04       		.byte	0x4
 627 0289 00       		.byte	0
 628 028a 03       		.uleb128 0x3
 629 028b 2A000000 		.4byte	.LASF52
 630 028f 06       		.byte	0x6
 631 0290 57       		.byte	0x57
 632 0291 95020000 		.4byte	0x295
 633 0295 0B       		.uleb128 0xb
 634 0296 B6020000 		.4byte	.LASF53
 635 029a 1C       		.byte	0x1c
ARM GAS  /tmp/cclT0r4k.s 			page 21


 636 029b 07       		.byte	0x7
 637 029c 6A01     		.2byte	0x16a
 638 029e F1020000 		.4byte	0x2f1
 639 02a2 09       		.uleb128 0x9
 640 02a3 55020000 		.4byte	.LASF29
 641 02a7 07       		.byte	0x7
 642 02a8 6B01     		.2byte	0x16b
 643 02aa 5A020000 		.4byte	0x25a
 644 02ae 00       		.byte	0
 645 02af 09       		.uleb128 0x9
 646 02b0 3F030000 		.4byte	.LASF30
 647 02b4 07       		.byte	0x7
 648 02b5 6C01     		.2byte	0x16c
 649 02b7 05010000 		.4byte	0x105
 650 02bb 08       		.byte	0x8
 651 02bc 08       		.uleb128 0x8
 652 02bd 63747800 		.ascii	"ctx\000"
 653 02c1 07       		.byte	0x7
 654 02c2 6E01     		.2byte	0x16e
 655 02c4 46040000 		.4byte	0x446
 656 02c8 0C       		.byte	0xc
 657 02c9 09       		.uleb128 0x9
 658 02ca DB020000 		.4byte	.LASF31
 659 02ce 07       		.byte	0x7
 660 02cf 7101     		.2byte	0x171
 661 02d1 30020000 		.4byte	0x230
 662 02d5 10       		.byte	0x10
 663 02d6 09       		.uleb128 0x9
 664 02d7 DF010000 		.4byte	.LASF32
 665 02db 07       		.byte	0x7
 666 02dc 7201     		.2byte	0x172
 667 02de 30020000 		.4byte	0x230
 668 02e2 14       		.byte	0x14
 669 02e3 09       		.uleb128 0x9
 670 02e4 44030000 		.4byte	.LASF54
 671 02e8 07       		.byte	0x7
 672 02e9 7501     		.2byte	0x175
 673 02eb 30020000 		.4byte	0x230
 674 02ef 18       		.byte	0x18
 675 02f0 00       		.byte	0
 676 02f1 03       		.uleb128 0x3
 677 02f2 4C020000 		.4byte	.LASF55
 678 02f6 06       		.byte	0x6
 679 02f7 5C       		.byte	0x5c
 680 02f8 FC020000 		.4byte	0x2fc
 681 02fc 0A       		.uleb128 0xa
 682 02fd 04       		.byte	0x4
 683 02fe 02030000 		.4byte	0x302
 684 0302 0C       		.uleb128 0xc
 685 0303 0D030000 		.4byte	0x30d
 686 0307 0D       		.uleb128 0xd
 687 0308 0D030000 		.4byte	0x30d
 688 030c 00       		.byte	0
 689 030d 0E       		.uleb128 0xe
 690 030e 04       		.byte	0x4
 691 030f 03       		.uleb128 0x3
 692 0310 64030000 		.4byte	.LASF56
ARM GAS  /tmp/cclT0r4k.s 			page 22


 693 0314 06       		.byte	0x6
 694 0315 61       		.byte	0x61
 695 0316 1A030000 		.4byte	0x31a
 696 031a 0B       		.uleb128 0xb
 697 031b C4030000 		.4byte	.LASF57
 698 031f 14       		.byte	0x14
 699 0320 07       		.byte	0x7
 700 0321 4501     		.2byte	0x145
 701 0323 69030000 		.4byte	0x369
 702 0327 09       		.uleb128 0x9
 703 0328 6F010000 		.4byte	.LASF48
 704 032c 07       		.byte	0x7
 705 032d 4601     		.2byte	0x146
 706 032f C3050000 		.4byte	0x5c3
 707 0333 00       		.byte	0
 708 0334 09       		.uleb128 0x9
 709 0335 01010000 		.4byte	.LASF51
 710 0339 07       		.byte	0x7
 711 033a 4701     		.2byte	0x147
 712 033c C3050000 		.4byte	0x5c3
 713 0340 04       		.byte	0x4
 714 0341 09       		.uleb128 0x9
 715 0342 E1000000 		.4byte	.LASF58
 716 0346 07       		.byte	0x7
 717 0347 4801     		.2byte	0x148
 718 0349 31010000 		.4byte	0x131
 719 034d 08       		.byte	0x8
 720 034e 09       		.uleb128 0x9
 721 034f 19040000 		.4byte	.LASF59
 722 0353 07       		.byte	0x7
 723 0354 4901     		.2byte	0x149
 724 0356 F1020000 		.4byte	0x2f1
 725 035a 0C       		.byte	0xc
 726 035b 08       		.uleb128 0x8
 727 035c 70617200 		.ascii	"par\000"
 728 0360 07       		.byte	0x7
 729 0361 4B01     		.2byte	0x14b
 730 0363 0D030000 		.4byte	0x30d
 731 0367 10       		.byte	0x10
 732 0368 00       		.byte	0
 733 0369 03       		.uleb128 0x3
 734 036a 4C010000 		.4byte	.LASF60
 735 036e 06       		.byte	0x6
 736 036f 66       		.byte	0x66
 737 0370 74030000 		.4byte	0x374
 738 0374 0B       		.uleb128 0xb
 739 0375 0C030000 		.4byte	.LASF61
 740 0379 0C       		.byte	0xc
 741 037a 07       		.byte	0x7
 742 037b 5501     		.2byte	0x155
 743 037d B6030000 		.4byte	0x3b6
 744 0381 09       		.uleb128 0x9
 745 0382 6F010000 		.4byte	.LASF48
 746 0386 07       		.byte	0x7
 747 0387 5601     		.2byte	0x156
 748 0389 C3050000 		.4byte	0x5c3
 749 038d 00       		.byte	0
ARM GAS  /tmp/cclT0r4k.s 			page 23


 750 038e 09       		.uleb128 0x9
 751 038f 01010000 		.4byte	.LASF51
 752 0393 07       		.byte	0x7
 753 0394 5801     		.2byte	0x158
 754 0396 C3050000 		.4byte	0x5c3
 755 039a 04       		.byte	0x4
 756 039b 09       		.uleb128 0x9
 757 039c E1000000 		.4byte	.LASF58
 758 03a0 07       		.byte	0x7
 759 03a1 5A01     		.2byte	0x15a
 760 03a3 31010000 		.4byte	0x131
 761 03a7 08       		.byte	0x8
 762 03a8 09       		.uleb128 0x9
 763 03a9 AA030000 		.4byte	.LASF62
 764 03ad 07       		.byte	0x7
 765 03ae 6201     		.2byte	0x162
 766 03b0 31010000 		.4byte	0x131
 767 03b4 0A       		.byte	0xa
 768 03b5 00       		.byte	0
 769 03b6 03       		.uleb128 0x3
 770 03b7 23020000 		.4byte	.LASF63
 771 03bb 06       		.byte	0x6
 772 03bc 6B       		.byte	0x6b
 773 03bd C1030000 		.4byte	0x3c1
 774 03c1 0B       		.uleb128 0xb
 775 03c2 7C030000 		.4byte	.LASF64
 776 03c6 04       		.byte	0x4
 777 03c7 07       		.byte	0x7
 778 03c8 7C01     		.2byte	0x17c
 779 03ca DC030000 		.4byte	0x3dc
 780 03ce 09       		.uleb128 0x9
 781 03cf 46040000 		.4byte	.LASF65
 782 03d3 07       		.byte	0x7
 783 03d4 8401     		.2byte	0x184
 784 03d6 C9050000 		.4byte	0x5c9
 785 03da 00       		.byte	0
 786 03db 00       		.byte	0
 787 03dc 03       		.uleb128 0x3
 788 03dd 8C020000 		.4byte	.LASF66
 789 03e1 06       		.byte	0x6
 790 03e2 70       		.byte	0x70
 791 03e3 E7030000 		.4byte	0x3e7
 792 03e7 0B       		.uleb128 0xb
 793 03e8 BA030000 		.4byte	.LASF67
 794 03ec 70       		.byte	0x70
 795 03ed 07       		.byte	0x7
 796 03ee 9C01     		.2byte	0x19c
 797 03f0 29040000 		.4byte	0x429
 798 03f4 09       		.uleb128 0x9
 799 03f5 93040000 		.4byte	.LASF68
 800 03f9 07       		.byte	0x7
 801 03fa A001     		.2byte	0x1a0
 802 03fc 8A020000 		.4byte	0x28a
 803 0400 00       		.byte	0
 804 0401 09       		.uleb128 0x9
 805 0402 12010000 		.4byte	.LASF69
 806 0406 07       		.byte	0x7
ARM GAS  /tmp/cclT0r4k.s 			page 24


 807 0407 A401     		.2byte	0x1a4
 808 0409 69030000 		.4byte	0x369
 809 040d 1C       		.byte	0x1c
 810 040e 08       		.uleb128 0x8
 811 040f 64626700 		.ascii	"dbg\000"
 812 0413 07       		.byte	0x7
 813 0414 A801     		.2byte	0x1a8
 814 0416 B6030000 		.4byte	0x3b6
 815 041a 28       		.byte	0x28
 816 041b 09       		.uleb128 0x9
 817 041c 39010000 		.4byte	.LASF70
 818 0420 07       		.byte	0x7
 819 0421 AC01     		.2byte	0x1ac
 820 0423 3C010000 		.4byte	0x13c
 821 0427 2C       		.byte	0x2c
 822 0428 00       		.byte	0
 823 0429 04       		.uleb128 0x4
 824 042a 04       		.byte	0x4
 825 042b 07       		.byte	0x7
 826 042c F0020000 		.4byte	.LASF71
 827 0430 03       		.uleb128 0x3
 828 0431 F0010000 		.4byte	.LASF72
 829 0435 08       		.byte	0x8
 830 0436 65       		.byte	0x65
 831 0437 0D030000 		.4byte	0x30d
 832 043b 03       		.uleb128 0x3
 833 043c D0020000 		.4byte	.LASF73
 834 0440 08       		.byte	0x8
 835 0441 6D       		.byte	0x6d
 836 0442 D9000000 		.4byte	0xd9
 837 0446 05       		.uleb128 0x5
 838 0447 32030000 		.4byte	.LASF74
 839 044b 04       		.byte	0x4
 840 044c 08       		.byte	0x8
 841 044d 89       		.byte	0x89
 842 044e 5E040000 		.4byte	0x45e
 843 0452 07       		.uleb128 0x7
 844 0453 737000   		.ascii	"sp\000"
 845 0456 08       		.byte	0x8
 846 0457 8A       		.byte	0x8a
 847 0458 DA040000 		.4byte	0x4da
 848 045c 00       		.byte	0
 849 045d 00       		.byte	0
 850 045e 0B       		.uleb128 0xb
 851 045f 06010000 		.4byte	.LASF75
 852 0463 24       		.byte	0x24
 853 0464 09       		.byte	0x9
 854 0465 5901     		.2byte	0x159
 855 0467 DA040000 		.4byte	0x4da
 856 046b 08       		.uleb128 0x8
 857 046c 723400   		.ascii	"r4\000"
 858 046f 09       		.byte	0x9
 859 0470 6C01     		.2byte	0x16c
 860 0472 30040000 		.4byte	0x430
 861 0476 00       		.byte	0
 862 0477 08       		.uleb128 0x8
 863 0478 723500   		.ascii	"r5\000"
ARM GAS  /tmp/cclT0r4k.s 			page 25


 864 047b 09       		.byte	0x9
 865 047c 6D01     		.2byte	0x16d
 866 047e 30040000 		.4byte	0x430
 867 0482 04       		.byte	0x4
 868 0483 08       		.uleb128 0x8
 869 0484 723600   		.ascii	"r6\000"
 870 0487 09       		.byte	0x9
 871 0488 6E01     		.2byte	0x16e
 872 048a 30040000 		.4byte	0x430
 873 048e 08       		.byte	0x8
 874 048f 08       		.uleb128 0x8
 875 0490 723700   		.ascii	"r7\000"
 876 0493 09       		.byte	0x9
 877 0494 6F01     		.2byte	0x16f
 878 0496 30040000 		.4byte	0x430
 879 049a 0C       		.byte	0xc
 880 049b 08       		.uleb128 0x8
 881 049c 723800   		.ascii	"r8\000"
 882 049f 09       		.byte	0x9
 883 04a0 7001     		.2byte	0x170
 884 04a2 30040000 		.4byte	0x430
 885 04a6 10       		.byte	0x10
 886 04a7 08       		.uleb128 0x8
 887 04a8 723900   		.ascii	"r9\000"
 888 04ab 09       		.byte	0x9
 889 04ac 7101     		.2byte	0x171
 890 04ae 30040000 		.4byte	0x430
 891 04b2 14       		.byte	0x14
 892 04b3 08       		.uleb128 0x8
 893 04b4 72313000 		.ascii	"r10\000"
 894 04b8 09       		.byte	0x9
 895 04b9 7201     		.2byte	0x172
 896 04bb 30040000 		.4byte	0x430
 897 04bf 18       		.byte	0x18
 898 04c0 08       		.uleb128 0x8
 899 04c1 72313100 		.ascii	"r11\000"
 900 04c5 09       		.byte	0x9
 901 04c6 7301     		.2byte	0x173
 902 04c8 30040000 		.4byte	0x430
 903 04cc 1C       		.byte	0x1c
 904 04cd 08       		.uleb128 0x8
 905 04ce 6C7200   		.ascii	"lr\000"
 906 04d1 09       		.byte	0x9
 907 04d2 7401     		.2byte	0x174
 908 04d4 30040000 		.4byte	0x430
 909 04d8 20       		.byte	0x20
 910 04d9 00       		.byte	0
 911 04da 0A       		.uleb128 0xa
 912 04db 04       		.byte	0x4
 913 04dc 5E040000 		.4byte	0x45e
 914 04e0 0F       		.uleb128 0xf
 915 04e1 04       		.byte	0x4
 916 04e2 07       		.byte	0x7
 917 04e3 D2       		.byte	0xd2
 918 04e4 43050000 		.4byte	0x543
 919 04e8 10       		.uleb128 0x10
 920 04e9 E7000000 		.4byte	.LASF76
ARM GAS  /tmp/cclT0r4k.s 			page 26


 921 04ed 07       		.byte	0x7
 922 04ee D9       		.byte	0xd9
 923 04ef 10010000 		.4byte	0x110
 924 04f3 10       		.uleb128 0x10
 925 04f4 30010000 		.4byte	.LASF77
 926 04f8 07       		.byte	0x7
 927 04f9 E0       		.byte	0xe0
 928 04fa 10010000 		.4byte	0x110
 929 04fe 10       		.uleb128 0x10
 930 04ff A7040000 		.4byte	.LASF78
 931 0503 07       		.byte	0x7
 932 0504 E7       		.byte	0xe7
 933 0505 0D030000 		.4byte	0x30d
 934 0509 10       		.uleb128 0x10
 935 050a 23030000 		.4byte	.LASF79
 936 050e 07       		.byte	0x7
 937 050f EE       		.byte	0xee
 938 0510 43050000 		.4byte	0x543
 939 0514 10       		.uleb128 0x10
 940 0515 44010000 		.4byte	.LASF80
 941 0519 07       		.byte	0x7
 942 051a F3       		.byte	0xf3
 943 051b 10010000 		.4byte	0x110
 944 051f 10       		.uleb128 0x10
 945 0520 1C020000 		.4byte	.LASF81
 946 0524 07       		.byte	0x7
 947 0525 FC       		.byte	0xfc
 948 0526 6E050000 		.4byte	0x56e
 949 052a 11       		.uleb128 0x11
 950 052b EB030000 		.4byte	.LASF82
 951 052f 07       		.byte	0x7
 952 0530 0501     		.2byte	0x105
 953 0532 A5050000 		.4byte	0x5a5
 954 0536 11       		.uleb128 0x11
 955 0537 B3030000 		.4byte	.LASF83
 956 053b 07       		.byte	0x7
 957 053c 0D01     		.2byte	0x10d
 958 053e 1B010000 		.4byte	0x11b
 959 0542 00       		.byte	0
 960 0543 0A       		.uleb128 0xa
 961 0544 04       		.byte	0x4
 962 0545 25020000 		.4byte	0x225
 963 0549 05       		.uleb128 0x5
 964 054a D5030000 		.4byte	.LASF84
 965 054e 0C       		.byte	0xc
 966 054f 0A       		.byte	0xa
 967 0550 34       		.byte	0x34
 968 0551 6E050000 		.4byte	0x56e
 969 0555 06       		.uleb128 0x6
 970 0556 55020000 		.4byte	.LASF29
 971 055a 0A       		.byte	0xa
 972 055b 35       		.byte	0x35
 973 055c 5A020000 		.4byte	0x25a
 974 0560 00       		.byte	0
 975 0561 07       		.uleb128 0x7
 976 0562 636E7400 		.ascii	"cnt\000"
 977 0566 0A       		.byte	0xa
ARM GAS  /tmp/cclT0r4k.s 			page 27


 978 0567 37       		.byte	0x37
 979 0568 26010000 		.4byte	0x126
 980 056c 08       		.byte	0x8
 981 056d 00       		.byte	0
 982 056e 0A       		.uleb128 0xa
 983 056f 04       		.byte	0x4
 984 0570 49050000 		.4byte	0x549
 985 0574 05       		.uleb128 0x5
 986 0575 8A040000 		.4byte	.LASF85
 987 0579 10       		.byte	0x10
 988 057a 0B       		.byte	0xb
 989 057b 39       		.byte	0x39
 990 057c A5050000 		.4byte	0x5a5
 991 0580 06       		.uleb128 0x6
 992 0581 55020000 		.4byte	.LASF29
 993 0585 0B       		.byte	0xb
 994 0586 3A       		.byte	0x3a
 995 0587 5A020000 		.4byte	0x25a
 996 058b 00       		.byte	0
 997 058c 06       		.uleb128 0x6
 998 058d 02040000 		.4byte	.LASF86
 999 0591 0B       		.byte	0xb
 1000 0592 3C       		.byte	0x3c
 1001 0593 30020000 		.4byte	0x230
 1002 0597 08       		.byte	0x8
 1003 0598 06       		.uleb128 0x6
 1004 0599 6F010000 		.4byte	.LASF48
 1005 059d 0B       		.byte	0xb
 1006 059e 3E       		.byte	0x3e
 1007 059f D9050000 		.4byte	0x5d9
 1008 05a3 0C       		.byte	0xc
 1009 05a4 00       		.byte	0
 1010 05a5 0A       		.uleb128 0xa
 1011 05a6 04       		.byte	0x4
 1012 05a7 74050000 		.4byte	0x574
 1013 05ab 0A       		.uleb128 0xa
 1014 05ac 04       		.byte	0x4
 1015 05ad B1050000 		.4byte	0x5b1
 1016 05b1 12       		.uleb128 0x12
 1017 05b2 B6050000 		.4byte	0x5b6
 1018 05b6 04       		.uleb128 0x4
 1019 05b7 01       		.byte	0x1
 1020 05b8 08       		.byte	0x8
 1021 05b9 14040000 		.4byte	.LASF87
 1022 05bd 0A       		.uleb128 0xa
 1023 05be 04       		.byte	0x4
 1024 05bf 3B040000 		.4byte	0x43b
 1025 05c3 0A       		.uleb128 0xa
 1026 05c4 04       		.byte	0x4
 1027 05c5 0F030000 		.4byte	0x30f
 1028 05c9 13       		.uleb128 0x13
 1029 05ca AB050000 		.4byte	0x5ab
 1030 05ce 03       		.uleb128 0x3
 1031 05cf 01020000 		.4byte	.LASF88
 1032 05d3 0B       		.byte	0xb
 1033 05d4 34       		.byte	0x34
 1034 05d5 74050000 		.4byte	0x574
ARM GAS  /tmp/cclT0r4k.s 			page 28


 1035 05d9 0A       		.uleb128 0xa
 1036 05da 04       		.byte	0x4
 1037 05db CE050000 		.4byte	0x5ce
 1038 05df 04       		.uleb128 0x4
 1039 05e0 01       		.byte	0x1
 1040 05e1 02       		.byte	0x2
 1041 05e2 8C030000 		.4byte	.LASF89
 1042 05e6 0A       		.uleb128 0xa
 1043 05e7 04       		.byte	0x4
 1044 05e8 AD000000 		.4byte	0xad
 1045 05ec 14       		.uleb128 0x14
 1046 05ed 2C000000 		.4byte	0x2c
 1047 05f1 05060000 		.4byte	0x605
 1048 05f5 0D       		.uleb128 0xd
 1049 05f6 0D030000 		.4byte	0x30d
 1050 05fa 0D       		.uleb128 0xd
 1051 05fb 05060000 		.4byte	0x605
 1052 05ff 0D       		.uleb128 0xd
 1053 0600 2C000000 		.4byte	0x2c
 1054 0604 00       		.byte	0
 1055 0605 0A       		.uleb128 0xa
 1056 0606 04       		.byte	0x4
 1057 0607 0B060000 		.4byte	0x60b
 1058 060b 12       		.uleb128 0x12
 1059 060c AD000000 		.4byte	0xad
 1060 0610 0A       		.uleb128 0xa
 1061 0611 04       		.byte	0x4
 1062 0612 EC050000 		.4byte	0x5ec
 1063 0616 14       		.uleb128 0x14
 1064 0617 2C000000 		.4byte	0x2c
 1065 061b 2F060000 		.4byte	0x62f
 1066 061f 0D       		.uleb128 0xd
 1067 0620 0D030000 		.4byte	0x30d
 1068 0624 0D       		.uleb128 0xd
 1069 0625 E6050000 		.4byte	0x5e6
 1070 0629 0D       		.uleb128 0xd
 1071 062a 2C000000 		.4byte	0x2c
 1072 062e 00       		.byte	0
 1073 062f 0A       		.uleb128 0xa
 1074 0630 04       		.byte	0x4
 1075 0631 16060000 		.4byte	0x616
 1076 0635 14       		.uleb128 0x14
 1077 0636 10010000 		.4byte	0x110
 1078 063a 49060000 		.4byte	0x649
 1079 063e 0D       		.uleb128 0xd
 1080 063f 0D030000 		.4byte	0x30d
 1081 0643 0D       		.uleb128 0xd
 1082 0644 AD000000 		.4byte	0xad
 1083 0648 00       		.byte	0
 1084 0649 0A       		.uleb128 0xa
 1085 064a 04       		.byte	0x4
 1086 064b 35060000 		.4byte	0x635
 1087 064f 14       		.uleb128 0x14
 1088 0650 10010000 		.4byte	0x110
 1089 0654 5E060000 		.4byte	0x65e
 1090 0658 0D       		.uleb128 0xd
 1091 0659 0D030000 		.4byte	0x30d
ARM GAS  /tmp/cclT0r4k.s 			page 29


 1092 065d 00       		.byte	0
 1093 065e 0A       		.uleb128 0xa
 1094 065f 04       		.byte	0x4
 1095 0660 4F060000 		.4byte	0x64f
 1096 0664 05       		.uleb128 0x5
 1097 0665 C8010000 		.4byte	.LASF90
 1098 0669 10       		.byte	0x10
 1099 066a 0C       		.byte	0xc
 1100 066b 35       		.byte	0x35
 1101 066c A1060000 		.4byte	0x6a1
 1102 0670 06       		.uleb128 0x6
 1103 0671 E1020000 		.4byte	.LASF91
 1104 0675 0C       		.byte	0xc
 1105 0676 36       		.byte	0x36
 1106 0677 10060000 		.4byte	0x610
 1107 067b 00       		.byte	0
 1108 067c 06       		.uleb128 0x6
 1109 067d 0F040000 		.4byte	.LASF92
 1110 0681 0C       		.byte	0xc
 1111 0682 36       		.byte	0x36
 1112 0683 2F060000 		.4byte	0x62f
 1113 0687 04       		.byte	0x4
 1114 0688 07       		.uleb128 0x7
 1115 0689 70757400 		.ascii	"put\000"
 1116 068d 0C       		.byte	0xc
 1117 068e 36       		.byte	0x36
 1118 068f 49060000 		.4byte	0x649
 1119 0693 08       		.byte	0x8
 1120 0694 07       		.uleb128 0x7
 1121 0695 67657400 		.ascii	"get\000"
 1122 0699 0C       		.byte	0xc
 1123 069a 36       		.byte	0x36
 1124 069b 5E060000 		.4byte	0x65e
 1125 069f 0C       		.byte	0xc
 1126 06a0 00       		.byte	0
 1127 06a1 15       		.uleb128 0x15
 1128 06a2 04       		.byte	0x4
 1129 06a3 0C       		.byte	0xc
 1130 06a4 3E       		.byte	0x3e
 1131 06a5 B6060000 		.4byte	0x6b6
 1132 06a9 07       		.uleb128 0x7
 1133 06aa 766D7400 		.ascii	"vmt\000"
 1134 06ae 0C       		.byte	0xc
 1135 06af 40       		.byte	0x40
 1136 06b0 B6060000 		.4byte	0x6b6
 1137 06b4 00       		.byte	0
 1138 06b5 00       		.byte	0
 1139 06b6 0A       		.uleb128 0xa
 1140 06b7 04       		.byte	0x4
 1141 06b8 BC060000 		.4byte	0x6bc
 1142 06bc 12       		.uleb128 0x12
 1143 06bd 64060000 		.4byte	0x664
 1144 06c1 03       		.uleb128 0x3
 1145 06c2 A5010000 		.4byte	.LASF93
 1146 06c6 0C       		.byte	0xc
 1147 06c7 42       		.byte	0x42
 1148 06c8 A1060000 		.4byte	0x6a1
ARM GAS  /tmp/cclT0r4k.s 			page 30


 1149 06cc 16       		.uleb128 0x16
 1150 06cd A7020000 		.4byte	.LASF94
 1151 06d1 01       		.byte	0x1
 1152 06d2 2C       		.byte	0x2c
 1153 06d3 2C000000 		.4byte	0x2c
 1154 06d7 00000000 		.4byte	.LFB219
 1155 06db 04000000 		.4byte	.LFE219-.LFB219
 1156 06df 01       		.uleb128 0x1
 1157 06e0 9C       		.byte	0x9c
 1158 06e1 0B070000 		.4byte	0x70b
 1159 06e5 17       		.uleb128 0x17
 1160 06e6 697000   		.ascii	"ip\000"
 1161 06e9 01       		.byte	0x1
 1162 06ea 2C       		.byte	0x2c
 1163 06eb 0D030000 		.4byte	0x30d
 1164 06ef 00000000 		.4byte	.LLST0
 1165 06f3 18       		.uleb128 0x18
 1166 06f4 627000   		.ascii	"bp\000"
 1167 06f7 01       		.byte	0x1
 1168 06f8 2C       		.byte	0x2c
 1169 06f9 05060000 		.4byte	0x605
 1170 06fd 01       		.uleb128 0x1
 1171 06fe 51       		.byte	0x51
 1172 06ff 18       		.uleb128 0x18
 1173 0700 6E00     		.ascii	"n\000"
 1174 0702 01       		.byte	0x1
 1175 0703 2C       		.byte	0x2c
 1176 0704 2C000000 		.4byte	0x2c
 1177 0708 01       		.uleb128 0x1
 1178 0709 52       		.byte	0x52
 1179 070a 00       		.byte	0
 1180 070b 16       		.uleb128 0x16
 1181 070c 85010000 		.4byte	.LASF95
 1182 0710 01       		.byte	0x1
 1183 0711 34       		.byte	0x34
 1184 0712 2C000000 		.4byte	0x2c
 1185 0716 00000000 		.4byte	.LFB220
 1186 071a 04000000 		.4byte	.LFE220-.LFB220
 1187 071e 01       		.uleb128 0x1
 1188 071f 9C       		.byte	0x9c
 1189 0720 4A070000 		.4byte	0x74a
 1190 0724 17       		.uleb128 0x17
 1191 0725 697000   		.ascii	"ip\000"
 1192 0728 01       		.byte	0x1
 1193 0729 34       		.byte	0x34
 1194 072a 0D030000 		.4byte	0x30d
 1195 072e 21000000 		.4byte	.LLST1
 1196 0732 18       		.uleb128 0x18
 1197 0733 627000   		.ascii	"bp\000"
 1198 0736 01       		.byte	0x1
 1199 0737 34       		.byte	0x34
 1200 0738 E6050000 		.4byte	0x5e6
 1201 073c 01       		.uleb128 0x1
 1202 073d 51       		.byte	0x51
 1203 073e 18       		.uleb128 0x18
 1204 073f 6E00     		.ascii	"n\000"
 1205 0741 01       		.byte	0x1
ARM GAS  /tmp/cclT0r4k.s 			page 31


 1206 0742 34       		.byte	0x34
 1207 0743 2C000000 		.4byte	0x2c
 1208 0747 01       		.uleb128 0x1
 1209 0748 52       		.byte	0x52
 1210 0749 00       		.byte	0
 1211 074a 19       		.uleb128 0x19
 1212 074b 70757400 		.ascii	"put\000"
 1213 074f 01       		.byte	0x1
 1214 0750 3D       		.byte	0x3d
 1215 0751 10010000 		.4byte	0x110
 1216 0755 00000000 		.4byte	.LFB221
 1217 0759 04000000 		.4byte	.LFE221-.LFB221
 1218 075d 01       		.uleb128 0x1
 1219 075e 9C       		.byte	0x9c
 1220 075f 7D070000 		.4byte	0x77d
 1221 0763 17       		.uleb128 0x17
 1222 0764 697000   		.ascii	"ip\000"
 1223 0767 01       		.byte	0x1
 1224 0768 3D       		.byte	0x3d
 1225 0769 0D030000 		.4byte	0x30d
 1226 076d 42000000 		.4byte	.LLST2
 1227 0771 18       		.uleb128 0x18
 1228 0772 6200     		.ascii	"b\000"
 1229 0774 01       		.byte	0x1
 1230 0775 3D       		.byte	0x3d
 1231 0776 AD000000 		.4byte	0xad
 1232 077a 01       		.uleb128 0x1
 1233 077b 51       		.byte	0x51
 1234 077c 00       		.byte	0
 1235 077d 19       		.uleb128 0x19
 1236 077e 67657400 		.ascii	"get\000"
 1237 0782 01       		.byte	0x1
 1238 0783 45       		.byte	0x45
 1239 0784 10010000 		.4byte	0x110
 1240 0788 00000000 		.4byte	.LFB222
 1241 078c 04000000 		.4byte	.LFE222-.LFB222
 1242 0790 01       		.uleb128 0x1
 1243 0791 9C       		.byte	0x9c
 1244 0792 A5070000 		.4byte	0x7a5
 1245 0796 17       		.uleb128 0x17
 1246 0797 697000   		.ascii	"ip\000"
 1247 079a 01       		.byte	0x1
 1248 079b 45       		.byte	0x45
 1249 079c 0D030000 		.4byte	0x30d
 1250 07a0 63000000 		.4byte	.LLST3
 1251 07a4 00       		.byte	0
 1252 07a5 1A       		.uleb128 0x1a
 1253 07a6 98020000 		.4byte	.LASF100
 1254 07aa 01       		.byte	0x1
 1255 07ab 57       		.byte	0x57
 1256 07ac 00000000 		.4byte	.LFB223
 1257 07b0 0C000000 		.4byte	.LFE223-.LFB223
 1258 07b4 01       		.uleb128 0x1
 1259 07b5 9C       		.byte	0x9c
 1260 07b6 C8070000 		.4byte	0x7c8
 1261 07ba 18       		.uleb128 0x18
 1262 07bb 6E737000 		.ascii	"nsp\000"
ARM GAS  /tmp/cclT0r4k.s 			page 32


 1263 07bf 01       		.byte	0x1
 1264 07c0 57       		.byte	0x57
 1265 07c1 C8070000 		.4byte	0x7c8
 1266 07c5 01       		.uleb128 0x1
 1267 07c6 50       		.byte	0x50
 1268 07c7 00       		.byte	0
 1269 07c8 0A       		.uleb128 0xa
 1270 07c9 04       		.byte	0x4
 1271 07ca C1060000 		.4byte	0x6c1
 1272 07ce 1B       		.uleb128 0x1b
 1273 07cf 766D7400 		.ascii	"vmt\000"
 1274 07d3 01       		.byte	0x1
 1275 07d4 4C       		.byte	0x4c
 1276 07d5 BC060000 		.4byte	0x6bc
 1277 07d9 05       		.uleb128 0x5
 1278 07da 03       		.byte	0x3
 1279 07db 00000000 		.4byte	vmt
 1280 07df 1C       		.uleb128 0x1c
 1281 07e0 62010000 		.4byte	.LASF96
 1282 07e4 0D       		.byte	0xd
 1283 07e5 9606     		.2byte	0x696
 1284 07e7 EB070000 		.4byte	0x7eb
 1285 07eb 13       		.uleb128 0x13
 1286 07ec C3000000 		.4byte	0xc3
 1287 07f0 1D       		.uleb128 0x1d
 1288 07f1 636800   		.ascii	"ch\000"
 1289 07f4 07       		.byte	0x7
 1290 07f5 D201     		.2byte	0x1d2
 1291 07f7 DC030000 		.4byte	0x3dc
 1292 07fb 00       		.byte	0
 1293              		.section	.debug_abbrev,"",%progbits
 1294              	.Ldebug_abbrev0:
 1295 0000 01       		.uleb128 0x1
 1296 0001 11       		.uleb128 0x11
 1297 0002 01       		.byte	0x1
 1298 0003 25       		.uleb128 0x25
 1299 0004 0E       		.uleb128 0xe
 1300 0005 13       		.uleb128 0x13
 1301 0006 0B       		.uleb128 0xb
 1302 0007 03       		.uleb128 0x3
 1303 0008 0E       		.uleb128 0xe
 1304 0009 1B       		.uleb128 0x1b
 1305 000a 0E       		.uleb128 0xe
 1306 000b 55       		.uleb128 0x55
 1307 000c 17       		.uleb128 0x17
 1308 000d 11       		.uleb128 0x11
 1309 000e 01       		.uleb128 0x1
 1310 000f 10       		.uleb128 0x10
 1311 0010 17       		.uleb128 0x17
 1312 0011 00       		.byte	0
 1313 0012 00       		.byte	0
 1314 0013 02       		.uleb128 0x2
 1315 0014 24       		.uleb128 0x24
 1316 0015 00       		.byte	0
 1317 0016 0B       		.uleb128 0xb
 1318 0017 0B       		.uleb128 0xb
 1319 0018 3E       		.uleb128 0x3e
ARM GAS  /tmp/cclT0r4k.s 			page 33


 1320 0019 0B       		.uleb128 0xb
 1321 001a 03       		.uleb128 0x3
 1322 001b 08       		.uleb128 0x8
 1323 001c 00       		.byte	0
 1324 001d 00       		.byte	0
 1325 001e 03       		.uleb128 0x3
 1326 001f 16       		.uleb128 0x16
 1327 0020 00       		.byte	0
 1328 0021 03       		.uleb128 0x3
 1329 0022 0E       		.uleb128 0xe
 1330 0023 3A       		.uleb128 0x3a
 1331 0024 0B       		.uleb128 0xb
 1332 0025 3B       		.uleb128 0x3b
 1333 0026 0B       		.uleb128 0xb
 1334 0027 49       		.uleb128 0x49
 1335 0028 13       		.uleb128 0x13
 1336 0029 00       		.byte	0
 1337 002a 00       		.byte	0
 1338 002b 04       		.uleb128 0x4
 1339 002c 24       		.uleb128 0x24
 1340 002d 00       		.byte	0
 1341 002e 0B       		.uleb128 0xb
 1342 002f 0B       		.uleb128 0xb
 1343 0030 3E       		.uleb128 0x3e
 1344 0031 0B       		.uleb128 0xb
 1345 0032 03       		.uleb128 0x3
 1346 0033 0E       		.uleb128 0xe
 1347 0034 00       		.byte	0
 1348 0035 00       		.byte	0
 1349 0036 05       		.uleb128 0x5
 1350 0037 13       		.uleb128 0x13
 1351 0038 01       		.byte	0x1
 1352 0039 03       		.uleb128 0x3
 1353 003a 0E       		.uleb128 0xe
 1354 003b 0B       		.uleb128 0xb
 1355 003c 0B       		.uleb128 0xb
 1356 003d 3A       		.uleb128 0x3a
 1357 003e 0B       		.uleb128 0xb
 1358 003f 3B       		.uleb128 0x3b
 1359 0040 0B       		.uleb128 0xb
 1360 0041 01       		.uleb128 0x1
 1361 0042 13       		.uleb128 0x13
 1362 0043 00       		.byte	0
 1363 0044 00       		.byte	0
 1364 0045 06       		.uleb128 0x6
 1365 0046 0D       		.uleb128 0xd
 1366 0047 00       		.byte	0
 1367 0048 03       		.uleb128 0x3
 1368 0049 0E       		.uleb128 0xe
 1369 004a 3A       		.uleb128 0x3a
 1370 004b 0B       		.uleb128 0xb
 1371 004c 3B       		.uleb128 0x3b
 1372 004d 0B       		.uleb128 0xb
 1373 004e 49       		.uleb128 0x49
 1374 004f 13       		.uleb128 0x13
 1375 0050 38       		.uleb128 0x38
 1376 0051 0B       		.uleb128 0xb
ARM GAS  /tmp/cclT0r4k.s 			page 34


 1377 0052 00       		.byte	0
 1378 0053 00       		.byte	0
 1379 0054 07       		.uleb128 0x7
 1380 0055 0D       		.uleb128 0xd
 1381 0056 00       		.byte	0
 1382 0057 03       		.uleb128 0x3
 1383 0058 08       		.uleb128 0x8
 1384 0059 3A       		.uleb128 0x3a
 1385 005a 0B       		.uleb128 0xb
 1386 005b 3B       		.uleb128 0x3b
 1387 005c 0B       		.uleb128 0xb
 1388 005d 49       		.uleb128 0x49
 1389 005e 13       		.uleb128 0x13
 1390 005f 38       		.uleb128 0x38
 1391 0060 0B       		.uleb128 0xb
 1392 0061 00       		.byte	0
 1393 0062 00       		.byte	0
 1394 0063 08       		.uleb128 0x8
 1395 0064 0D       		.uleb128 0xd
 1396 0065 00       		.byte	0
 1397 0066 03       		.uleb128 0x3
 1398 0067 08       		.uleb128 0x8
 1399 0068 3A       		.uleb128 0x3a
 1400 0069 0B       		.uleb128 0xb
 1401 006a 3B       		.uleb128 0x3b
 1402 006b 05       		.uleb128 0x5
 1403 006c 49       		.uleb128 0x49
 1404 006d 13       		.uleb128 0x13
 1405 006e 38       		.uleb128 0x38
 1406 006f 0B       		.uleb128 0xb
 1407 0070 00       		.byte	0
 1408 0071 00       		.byte	0
 1409 0072 09       		.uleb128 0x9
 1410 0073 0D       		.uleb128 0xd
 1411 0074 00       		.byte	0
 1412 0075 03       		.uleb128 0x3
 1413 0076 0E       		.uleb128 0xe
 1414 0077 3A       		.uleb128 0x3a
 1415 0078 0B       		.uleb128 0xb
 1416 0079 3B       		.uleb128 0x3b
 1417 007a 05       		.uleb128 0x5
 1418 007b 49       		.uleb128 0x49
 1419 007c 13       		.uleb128 0x13
 1420 007d 38       		.uleb128 0x38
 1421 007e 0B       		.uleb128 0xb
 1422 007f 00       		.byte	0
 1423 0080 00       		.byte	0
 1424 0081 0A       		.uleb128 0xa
 1425 0082 0F       		.uleb128 0xf
 1426 0083 00       		.byte	0
 1427 0084 0B       		.uleb128 0xb
 1428 0085 0B       		.uleb128 0xb
 1429 0086 49       		.uleb128 0x49
 1430 0087 13       		.uleb128 0x13
 1431 0088 00       		.byte	0
 1432 0089 00       		.byte	0
 1433 008a 0B       		.uleb128 0xb
ARM GAS  /tmp/cclT0r4k.s 			page 35


 1434 008b 13       		.uleb128 0x13
 1435 008c 01       		.byte	0x1
 1436 008d 03       		.uleb128 0x3
 1437 008e 0E       		.uleb128 0xe
 1438 008f 0B       		.uleb128 0xb
 1439 0090 0B       		.uleb128 0xb
 1440 0091 3A       		.uleb128 0x3a
 1441 0092 0B       		.uleb128 0xb
 1442 0093 3B       		.uleb128 0x3b
 1443 0094 05       		.uleb128 0x5
 1444 0095 01       		.uleb128 0x1
 1445 0096 13       		.uleb128 0x13
 1446 0097 00       		.byte	0
 1447 0098 00       		.byte	0
 1448 0099 0C       		.uleb128 0xc
 1449 009a 15       		.uleb128 0x15
 1450 009b 01       		.byte	0x1
 1451 009c 27       		.uleb128 0x27
 1452 009d 19       		.uleb128 0x19
 1453 009e 01       		.uleb128 0x1
 1454 009f 13       		.uleb128 0x13
 1455 00a0 00       		.byte	0
 1456 00a1 00       		.byte	0
 1457 00a2 0D       		.uleb128 0xd
 1458 00a3 05       		.uleb128 0x5
 1459 00a4 00       		.byte	0
 1460 00a5 49       		.uleb128 0x49
 1461 00a6 13       		.uleb128 0x13
 1462 00a7 00       		.byte	0
 1463 00a8 00       		.byte	0
 1464 00a9 0E       		.uleb128 0xe
 1465 00aa 0F       		.uleb128 0xf
 1466 00ab 00       		.byte	0
 1467 00ac 0B       		.uleb128 0xb
 1468 00ad 0B       		.uleb128 0xb
 1469 00ae 00       		.byte	0
 1470 00af 00       		.byte	0
 1471 00b0 0F       		.uleb128 0xf
 1472 00b1 17       		.uleb128 0x17
 1473 00b2 01       		.byte	0x1
 1474 00b3 0B       		.uleb128 0xb
 1475 00b4 0B       		.uleb128 0xb
 1476 00b5 3A       		.uleb128 0x3a
 1477 00b6 0B       		.uleb128 0xb
 1478 00b7 3B       		.uleb128 0x3b
 1479 00b8 0B       		.uleb128 0xb
 1480 00b9 01       		.uleb128 0x1
 1481 00ba 13       		.uleb128 0x13
 1482 00bb 00       		.byte	0
 1483 00bc 00       		.byte	0
 1484 00bd 10       		.uleb128 0x10
 1485 00be 0D       		.uleb128 0xd
 1486 00bf 00       		.byte	0
 1487 00c0 03       		.uleb128 0x3
 1488 00c1 0E       		.uleb128 0xe
 1489 00c2 3A       		.uleb128 0x3a
 1490 00c3 0B       		.uleb128 0xb
ARM GAS  /tmp/cclT0r4k.s 			page 36


 1491 00c4 3B       		.uleb128 0x3b
 1492 00c5 0B       		.uleb128 0xb
 1493 00c6 49       		.uleb128 0x49
 1494 00c7 13       		.uleb128 0x13
 1495 00c8 00       		.byte	0
 1496 00c9 00       		.byte	0
 1497 00ca 11       		.uleb128 0x11
 1498 00cb 0D       		.uleb128 0xd
 1499 00cc 00       		.byte	0
 1500 00cd 03       		.uleb128 0x3
 1501 00ce 0E       		.uleb128 0xe
 1502 00cf 3A       		.uleb128 0x3a
 1503 00d0 0B       		.uleb128 0xb
 1504 00d1 3B       		.uleb128 0x3b
 1505 00d2 05       		.uleb128 0x5
 1506 00d3 49       		.uleb128 0x49
 1507 00d4 13       		.uleb128 0x13
 1508 00d5 00       		.byte	0
 1509 00d6 00       		.byte	0
 1510 00d7 12       		.uleb128 0x12
 1511 00d8 26       		.uleb128 0x26
 1512 00d9 00       		.byte	0
 1513 00da 49       		.uleb128 0x49
 1514 00db 13       		.uleb128 0x13
 1515 00dc 00       		.byte	0
 1516 00dd 00       		.byte	0
 1517 00de 13       		.uleb128 0x13
 1518 00df 35       		.uleb128 0x35
 1519 00e0 00       		.byte	0
 1520 00e1 49       		.uleb128 0x49
 1521 00e2 13       		.uleb128 0x13
 1522 00e3 00       		.byte	0
 1523 00e4 00       		.byte	0
 1524 00e5 14       		.uleb128 0x14
 1525 00e6 15       		.uleb128 0x15
 1526 00e7 01       		.byte	0x1
 1527 00e8 27       		.uleb128 0x27
 1528 00e9 19       		.uleb128 0x19
 1529 00ea 49       		.uleb128 0x49
 1530 00eb 13       		.uleb128 0x13
 1531 00ec 01       		.uleb128 0x1
 1532 00ed 13       		.uleb128 0x13
 1533 00ee 00       		.byte	0
 1534 00ef 00       		.byte	0
 1535 00f0 15       		.uleb128 0x15
 1536 00f1 13       		.uleb128 0x13
 1537 00f2 01       		.byte	0x1
 1538 00f3 0B       		.uleb128 0xb
 1539 00f4 0B       		.uleb128 0xb
 1540 00f5 3A       		.uleb128 0x3a
 1541 00f6 0B       		.uleb128 0xb
 1542 00f7 3B       		.uleb128 0x3b
 1543 00f8 0B       		.uleb128 0xb
 1544 00f9 01       		.uleb128 0x1
 1545 00fa 13       		.uleb128 0x13
 1546 00fb 00       		.byte	0
 1547 00fc 00       		.byte	0
ARM GAS  /tmp/cclT0r4k.s 			page 37


 1548 00fd 16       		.uleb128 0x16
 1549 00fe 2E       		.uleb128 0x2e
 1550 00ff 01       		.byte	0x1
 1551 0100 03       		.uleb128 0x3
 1552 0101 0E       		.uleb128 0xe
 1553 0102 3A       		.uleb128 0x3a
 1554 0103 0B       		.uleb128 0xb
 1555 0104 3B       		.uleb128 0x3b
 1556 0105 0B       		.uleb128 0xb
 1557 0106 27       		.uleb128 0x27
 1558 0107 19       		.uleb128 0x19
 1559 0108 49       		.uleb128 0x49
 1560 0109 13       		.uleb128 0x13
 1561 010a 11       		.uleb128 0x11
 1562 010b 01       		.uleb128 0x1
 1563 010c 12       		.uleb128 0x12
 1564 010d 06       		.uleb128 0x6
 1565 010e 40       		.uleb128 0x40
 1566 010f 18       		.uleb128 0x18
 1567 0110 9742     		.uleb128 0x2117
 1568 0112 19       		.uleb128 0x19
 1569 0113 01       		.uleb128 0x1
 1570 0114 13       		.uleb128 0x13
 1571 0115 00       		.byte	0
 1572 0116 00       		.byte	0
 1573 0117 17       		.uleb128 0x17
 1574 0118 05       		.uleb128 0x5
 1575 0119 00       		.byte	0
 1576 011a 03       		.uleb128 0x3
 1577 011b 08       		.uleb128 0x8
 1578 011c 3A       		.uleb128 0x3a
 1579 011d 0B       		.uleb128 0xb
 1580 011e 3B       		.uleb128 0x3b
 1581 011f 0B       		.uleb128 0xb
 1582 0120 49       		.uleb128 0x49
 1583 0121 13       		.uleb128 0x13
 1584 0122 02       		.uleb128 0x2
 1585 0123 17       		.uleb128 0x17
 1586 0124 00       		.byte	0
 1587 0125 00       		.byte	0
 1588 0126 18       		.uleb128 0x18
 1589 0127 05       		.uleb128 0x5
 1590 0128 00       		.byte	0
 1591 0129 03       		.uleb128 0x3
 1592 012a 08       		.uleb128 0x8
 1593 012b 3A       		.uleb128 0x3a
 1594 012c 0B       		.uleb128 0xb
 1595 012d 3B       		.uleb128 0x3b
 1596 012e 0B       		.uleb128 0xb
 1597 012f 49       		.uleb128 0x49
 1598 0130 13       		.uleb128 0x13
 1599 0131 02       		.uleb128 0x2
 1600 0132 18       		.uleb128 0x18
 1601 0133 00       		.byte	0
 1602 0134 00       		.byte	0
 1603 0135 19       		.uleb128 0x19
 1604 0136 2E       		.uleb128 0x2e
ARM GAS  /tmp/cclT0r4k.s 			page 38


 1605 0137 01       		.byte	0x1
 1606 0138 03       		.uleb128 0x3
 1607 0139 08       		.uleb128 0x8
 1608 013a 3A       		.uleb128 0x3a
 1609 013b 0B       		.uleb128 0xb
 1610 013c 3B       		.uleb128 0x3b
 1611 013d 0B       		.uleb128 0xb
 1612 013e 27       		.uleb128 0x27
 1613 013f 19       		.uleb128 0x19
 1614 0140 49       		.uleb128 0x49
 1615 0141 13       		.uleb128 0x13
 1616 0142 11       		.uleb128 0x11
 1617 0143 01       		.uleb128 0x1
 1618 0144 12       		.uleb128 0x12
 1619 0145 06       		.uleb128 0x6
 1620 0146 40       		.uleb128 0x40
 1621 0147 18       		.uleb128 0x18
 1622 0148 9742     		.uleb128 0x2117
 1623 014a 19       		.uleb128 0x19
 1624 014b 01       		.uleb128 0x1
 1625 014c 13       		.uleb128 0x13
 1626 014d 00       		.byte	0
 1627 014e 00       		.byte	0
 1628 014f 1A       		.uleb128 0x1a
 1629 0150 2E       		.uleb128 0x2e
 1630 0151 01       		.byte	0x1
 1631 0152 3F       		.uleb128 0x3f
 1632 0153 19       		.uleb128 0x19
 1633 0154 03       		.uleb128 0x3
 1634 0155 0E       		.uleb128 0xe
 1635 0156 3A       		.uleb128 0x3a
 1636 0157 0B       		.uleb128 0xb
 1637 0158 3B       		.uleb128 0x3b
 1638 0159 0B       		.uleb128 0xb
 1639 015a 27       		.uleb128 0x27
 1640 015b 19       		.uleb128 0x19
 1641 015c 11       		.uleb128 0x11
 1642 015d 01       		.uleb128 0x1
 1643 015e 12       		.uleb128 0x12
 1644 015f 06       		.uleb128 0x6
 1645 0160 40       		.uleb128 0x40
 1646 0161 18       		.uleb128 0x18
 1647 0162 9742     		.uleb128 0x2117
 1648 0164 19       		.uleb128 0x19
 1649 0165 01       		.uleb128 0x1
 1650 0166 13       		.uleb128 0x13
 1651 0167 00       		.byte	0
 1652 0168 00       		.byte	0
 1653 0169 1B       		.uleb128 0x1b
 1654 016a 34       		.uleb128 0x34
 1655 016b 00       		.byte	0
 1656 016c 03       		.uleb128 0x3
 1657 016d 08       		.uleb128 0x8
 1658 016e 3A       		.uleb128 0x3a
 1659 016f 0B       		.uleb128 0xb
 1660 0170 3B       		.uleb128 0x3b
 1661 0171 0B       		.uleb128 0xb
ARM GAS  /tmp/cclT0r4k.s 			page 39


 1662 0172 49       		.uleb128 0x49
 1663 0173 13       		.uleb128 0x13
 1664 0174 02       		.uleb128 0x2
 1665 0175 18       		.uleb128 0x18
 1666 0176 00       		.byte	0
 1667 0177 00       		.byte	0
 1668 0178 1C       		.uleb128 0x1c
 1669 0179 34       		.uleb128 0x34
 1670 017a 00       		.byte	0
 1671 017b 03       		.uleb128 0x3
 1672 017c 0E       		.uleb128 0xe
 1673 017d 3A       		.uleb128 0x3a
 1674 017e 0B       		.uleb128 0xb
 1675 017f 3B       		.uleb128 0x3b
 1676 0180 05       		.uleb128 0x5
 1677 0181 49       		.uleb128 0x49
 1678 0182 13       		.uleb128 0x13
 1679 0183 3F       		.uleb128 0x3f
 1680 0184 19       		.uleb128 0x19
 1681 0185 3C       		.uleb128 0x3c
 1682 0186 19       		.uleb128 0x19
 1683 0187 00       		.byte	0
 1684 0188 00       		.byte	0
 1685 0189 1D       		.uleb128 0x1d
 1686 018a 34       		.uleb128 0x34
 1687 018b 00       		.byte	0
 1688 018c 03       		.uleb128 0x3
 1689 018d 08       		.uleb128 0x8
 1690 018e 3A       		.uleb128 0x3a
 1691 018f 0B       		.uleb128 0xb
 1692 0190 3B       		.uleb128 0x3b
 1693 0191 05       		.uleb128 0x5
 1694 0192 49       		.uleb128 0x49
 1695 0193 13       		.uleb128 0x13
 1696 0194 3F       		.uleb128 0x3f
 1697 0195 19       		.uleb128 0x19
 1698 0196 3C       		.uleb128 0x3c
 1699 0197 19       		.uleb128 0x19
 1700 0198 00       		.byte	0
 1701 0199 00       		.byte	0
 1702 019a 00       		.byte	0
 1703              		.section	.debug_loc,"",%progbits
 1704              	.Ldebug_loc0:
 1705              	.LLST0:
 1706 0000 00000000 		.4byte	.LVL0
 1707 0004 02000000 		.4byte	.LVL1
 1708 0008 0100     		.2byte	0x1
 1709 000a 50       		.byte	0x50
 1710 000b 02000000 		.4byte	.LVL1
 1711 000f 04000000 		.4byte	.LFE219
 1712 0013 0400     		.2byte	0x4
 1713 0015 F3       		.byte	0xf3
 1714 0016 01       		.uleb128 0x1
 1715 0017 50       		.byte	0x50
 1716 0018 9F       		.byte	0x9f
 1717 0019 00000000 		.4byte	0
 1718 001d 00000000 		.4byte	0
ARM GAS  /tmp/cclT0r4k.s 			page 40


 1719              	.LLST1:
 1720 0021 00000000 		.4byte	.LVL2
 1721 0025 02000000 		.4byte	.LVL3
 1722 0029 0100     		.2byte	0x1
 1723 002b 50       		.byte	0x50
 1724 002c 02000000 		.4byte	.LVL3
 1725 0030 04000000 		.4byte	.LFE220
 1726 0034 0400     		.2byte	0x4
 1727 0036 F3       		.byte	0xf3
 1728 0037 01       		.uleb128 0x1
 1729 0038 50       		.byte	0x50
 1730 0039 9F       		.byte	0x9f
 1731 003a 00000000 		.4byte	0
 1732 003e 00000000 		.4byte	0
 1733              	.LLST2:
 1734 0042 00000000 		.4byte	.LVL4
 1735 0046 02000000 		.4byte	.LVL5
 1736 004a 0100     		.2byte	0x1
 1737 004c 50       		.byte	0x50
 1738 004d 02000000 		.4byte	.LVL5
 1739 0051 04000000 		.4byte	.LFE221
 1740 0055 0400     		.2byte	0x4
 1741 0057 F3       		.byte	0xf3
 1742 0058 01       		.uleb128 0x1
 1743 0059 50       		.byte	0x50
 1744 005a 9F       		.byte	0x9f
 1745 005b 00000000 		.4byte	0
 1746 005f 00000000 		.4byte	0
 1747              	.LLST3:
 1748 0063 00000000 		.4byte	.LVL6
 1749 0067 02000000 		.4byte	.LVL7
 1750 006b 0100     		.2byte	0x1
 1751 006d 50       		.byte	0x50
 1752 006e 02000000 		.4byte	.LVL7
 1753 0072 04000000 		.4byte	.LFE222
 1754 0076 0400     		.2byte	0x4
 1755 0078 F3       		.byte	0xf3
 1756 0079 01       		.uleb128 0x1
 1757 007a 50       		.byte	0x50
 1758 007b 9F       		.byte	0x9f
 1759 007c 00000000 		.4byte	0
 1760 0080 00000000 		.4byte	0
 1761              		.section	.debug_aranges,"",%progbits
 1762 0000 3C000000 		.4byte	0x3c
 1763 0004 0200     		.2byte	0x2
 1764 0006 00000000 		.4byte	.Ldebug_info0
 1765 000a 04       		.byte	0x4
 1766 000b 00       		.byte	0
 1767 000c 0000     		.2byte	0
 1768 000e 0000     		.2byte	0
 1769 0010 00000000 		.4byte	.LFB219
 1770 0014 04000000 		.4byte	.LFE219-.LFB219
 1771 0018 00000000 		.4byte	.LFB220
 1772 001c 04000000 		.4byte	.LFE220-.LFB220
 1773 0020 00000000 		.4byte	.LFB221
 1774 0024 04000000 		.4byte	.LFE221-.LFB221
 1775 0028 00000000 		.4byte	.LFB222
ARM GAS  /tmp/cclT0r4k.s 			page 41


 1776 002c 04000000 		.4byte	.LFE222-.LFB222
 1777 0030 00000000 		.4byte	.LFB223
 1778 0034 0C000000 		.4byte	.LFE223-.LFB223
 1779 0038 00000000 		.4byte	0
 1780 003c 00000000 		.4byte	0
 1781              		.section	.debug_ranges,"",%progbits
 1782              	.Ldebug_ranges0:
 1783 0000 00000000 		.4byte	.LFB219
 1784 0004 04000000 		.4byte	.LFE219
 1785 0008 00000000 		.4byte	.LFB220
 1786 000c 04000000 		.4byte	.LFE220
 1787 0010 00000000 		.4byte	.LFB221
 1788 0014 04000000 		.4byte	.LFE221
 1789 0018 00000000 		.4byte	.LFB222
 1790 001c 04000000 		.4byte	.LFE222
 1791 0020 00000000 		.4byte	.LFB223
 1792 0024 0C000000 		.4byte	.LFE223
 1793 0028 00000000 		.4byte	0
 1794 002c 00000000 		.4byte	0
 1795              		.section	.debug_line,"",%progbits
 1796              	.Ldebug_line0:
 1797 0000 03020000 		.section	.debug_str,"MS",%progbits,1
 1797      0200AB01 
 1797      00000201 
 1797      FB0E0D00 
 1797      01010101 
 1798              	.LASF99:
 1799 0000 2F686F6D 		.ascii	"/home/jerson/ChibiOS/rt_stm32f100rb_onion\000"
 1799      652F6A65 
 1799      72736F6E 
 1799      2F436869 
 1799      62694F53 
 1800              	.LASF52:
 1801 002a 72656164 		.ascii	"ready_list_t\000"
 1801      795F6C69 
 1801      73745F74 
 1801      00
 1802              	.LASF97:
 1803 0037 474E5520 		.ascii	"GNU C 4.8.2 -mcpu=cortex-m3 -mno-thumb-interwork -m"
 1803      4320342E 
 1803      382E3220 
 1803      2D6D6370 
 1803      753D636F 
 1804 006a 7468756D 		.ascii	"thumb -ggdb -O2 -fomit-frame-pointer -falign-functi"
 1804      62202D67 
 1804      67646220 
 1804      2D4F3220 
 1804      2D666F6D 
 1805 009d 6F6E733D 		.ascii	"ons=16 -ffunction-sections -fdata-sections -fno-com"
 1805      3136202D 
 1805      6666756E 
 1805      6374696F 
 1805      6E2D7365 
 1806 00d0 6D6F6E20 		.ascii	"mon -flto\000"
 1806      2D666C74 
 1806      6F00
 1807              	.LASF2:
ARM GAS  /tmp/cclT0r4k.s 			page 42


 1808 00da 73697A65 		.ascii	"size_t\000"
 1808      5F7400
 1809              	.LASF58:
 1810 00e1 64656C74 		.ascii	"delta\000"
 1810      6100
 1811              	.LASF76:
 1812 00e7 7264796D 		.ascii	"rdymsg\000"
 1812      736700
 1813              	.LASF39:
 1814 00ee 6D736771 		.ascii	"msgqueue\000"
 1814      75657565 
 1814      00
 1815              	.LASF3:
 1816 00f7 5F5F7569 		.ascii	"__uint8_t\000"
 1816      6E74385F 
 1816      7400
 1817              	.LASF51:
 1818 0101 70726576 		.ascii	"prev\000"
 1818      00
 1819              	.LASF75:
 1820 0106 706F7274 		.ascii	"port_intctx\000"
 1820      5F696E74 
 1820      63747800 
 1821              	.LASF69:
 1822 0112 76746C69 		.ascii	"vtlist\000"
 1822      737400
 1823              	.LASF14:
 1824 0119 6C6F6E67 		.ascii	"long long unsigned int\000"
 1824      206C6F6E 
 1824      6720756E 
 1824      7369676E 
 1824      65642069 
 1825              	.LASF77:
 1826 0130 65786974 		.ascii	"exitcode\000"
 1826      636F6465 
 1826      00
 1827              	.LASF70:
 1828 0139 6D61696E 		.ascii	"mainthread\000"
 1828      74687265 
 1828      616400
 1829              	.LASF80:
 1830 0144 73656E74 		.ascii	"sentmsg\000"
 1830      6D736700 
 1831              	.LASF60:
 1832 014c 76697274 		.ascii	"virtual_timers_list_t\000"
 1832      75616C5F 
 1832      74696D65 
 1832      72735F6C 
 1832      6973745F 
 1833              	.LASF96:
 1834 0162 49544D5F 		.ascii	"ITM_RxBuffer\000"
 1834      52784275 
 1834      66666572 
 1834      00
 1835              	.LASF48:
 1836 016f 6E657874 		.ascii	"next\000"
 1836      00
ARM GAS  /tmp/cclT0r4k.s 			page 43


 1837              	.LASF50:
 1838 0174 63685F74 		.ascii	"ch_threads_queue\000"
 1838      68726561 
 1838      64735F71 
 1838      75657565 
 1838      00
 1839              	.LASF95:
 1840 0185 72656164 		.ascii	"reads\000"
 1840      7300
 1841              	.LASF12:
 1842 018b 6C6F6E67 		.ascii	"long long int\000"
 1842      206C6F6E 
 1842      6720696E 
 1842      7400
 1843              	.LASF1:
 1844 0199 7369676E 		.ascii	"signed char\000"
 1844      65642063 
 1844      68617200 
 1845              	.LASF93:
 1846 01a5 4E756C6C 		.ascii	"NullStream\000"
 1846      53747265 
 1846      616D00
 1847              	.LASF35:
 1848 01b0 73746174 		.ascii	"state\000"
 1848      6500
 1849              	.LASF9:
 1850 01b6 6C6F6E67 		.ascii	"long int\000"
 1850      20696E74 
 1850      00
 1851              	.LASF21:
 1852 01bf 74737461 		.ascii	"tstate_t\000"
 1852      74655F74 
 1852      00
 1853              	.LASF90:
 1854 01c8 4E756C6C 		.ascii	"NullStreamVMT\000"
 1854      53747265 
 1854      616D564D 
 1854      5400
 1855              	.LASF16:
 1856 01d6 75696E74 		.ascii	"uint16_t\000"
 1856      31365F74 
 1856      00
 1857              	.LASF32:
 1858 01df 6F6C6465 		.ascii	"older\000"
 1858      7200
 1859              	.LASF10:
 1860 01e5 5F5F7569 		.ascii	"__uint32_t\000"
 1860      6E743332 
 1860      5F7400
 1861              	.LASF72:
 1862 01f0 72656761 		.ascii	"regarm_t\000"
 1862      726D5F74 
 1862      00
 1863              	.LASF38:
 1864 01f9 77616974 		.ascii	"waiting\000"
 1864      696E6700 
 1865              	.LASF88:
ARM GAS  /tmp/cclT0r4k.s 			page 44


 1866 0201 6D757465 		.ascii	"mutex_t\000"
 1866      785F7400 
 1867              	.LASF26:
 1868 0209 636E745F 		.ascii	"cnt_t\000"
 1868      7400
 1869              	.LASF0:
 1870 020f 756E7369 		.ascii	"unsigned int\000"
 1870      676E6564 
 1870      20696E74 
 1870      00
 1871              	.LASF81:
 1872 021c 77747365 		.ascii	"wtsemp\000"
 1872      6D7000
 1873              	.LASF63:
 1874 0223 73797374 		.ascii	"system_debug_t\000"
 1874      656D5F64 
 1874      65627567 
 1874      5F7400
 1875              	.LASF11:
 1876 0232 6C6F6E67 		.ascii	"long unsigned int\000"
 1876      20756E73 
 1876      69676E65 
 1876      6420696E 
 1876      7400
 1877              	.LASF17:
 1878 0244 696E7433 		.ascii	"int32_t\000"
 1878      325F7400 
 1879              	.LASF55:
 1880 024c 76746675 		.ascii	"vtfunc_t\000"
 1880      6E635F74 
 1880      00
 1881              	.LASF29:
 1882 0255 71756575 		.ascii	"queue\000"
 1882      6500
 1883              	.LASF33:
 1884 025b 6E616D65 		.ascii	"name\000"
 1884      00
 1885              	.LASF7:
 1886 0260 73686F72 		.ascii	"short unsigned int\000"
 1886      7420756E 
 1886      7369676E 
 1886      65642069 
 1886      6E7400
 1887              	.LASF46:
 1888 0273 63685F74 		.ascii	"ch_thread\000"
 1888      68726561 
 1888      6400
 1889              	.LASF24:
 1890 027d 6D73675F 		.ascii	"msg_t\000"
 1890      7400
 1891              	.LASF40:
 1892 0283 6570656E 		.ascii	"epending\000"
 1892      64696E67 
 1892      00
 1893              	.LASF66:
 1894 028c 63685F73 		.ascii	"ch_system_t\000"
 1894      79737465 
ARM GAS  /tmp/cclT0r4k.s 			page 45


 1894      6D5F7400 
 1895              	.LASF100:
 1896 0298 6E756C6C 		.ascii	"nullObjectInit\000"
 1896      4F626A65 
 1896      6374496E 
 1896      697400
 1897              	.LASF94:
 1898 02a7 77726974 		.ascii	"writes\000"
 1898      657300
 1899              	.LASF20:
 1900 02ae 746D6F64 		.ascii	"tmode_t\000"
 1900      655F7400 
 1901              	.LASF53:
 1902 02b6 63685F72 		.ascii	"ch_ready_list\000"
 1902      65616479 
 1902      5F6C6973 
 1902      7400
 1903              	.LASF25:
 1904 02c4 6576656E 		.ascii	"eventmask_t\000"
 1904      746D6173 
 1904      6B5F7400 
 1905              	.LASF73:
 1906 02d0 73746B61 		.ascii	"stkalign_t\000"
 1906      6C69676E 
 1906      5F7400
 1907              	.LASF31:
 1908 02db 6E657765 		.ascii	"newer\000"
 1908      7200
 1909              	.LASF91:
 1910 02e1 77726974 		.ascii	"write\000"
 1910      6500
 1911              	.LASF42:
 1912 02e7 7265616C 		.ascii	"realprio\000"
 1912      7072696F 
 1912      00
 1913              	.LASF71:
 1914 02f0 73697A65 		.ascii	"sizetype\000"
 1914      74797065 
 1914      00
 1915              	.LASF44:
 1916 02f9 74687265 		.ascii	"thread_reference_t\000"
 1916      61645F72 
 1916      65666572 
 1916      656E6365 
 1916      5F7400
 1917              	.LASF61:
 1918 030c 63685F76 		.ascii	"ch_virtual_timers_list\000"
 1918      69727475 
 1918      616C5F74 
 1918      696D6572 
 1918      735F6C69 
 1919              	.LASF79:
 1920 0323 77747472 		.ascii	"wttrp\000"
 1920      7000
 1921              	.LASF19:
 1922 0329 75696E74 		.ascii	"uint64_t\000"
 1922      36345F74 
ARM GAS  /tmp/cclT0r4k.s 			page 46


 1922      00
 1923              	.LASF74:
 1924 0332 706F7274 		.ascii	"port_context\000"
 1924      5F636F6E 
 1924      74657874 
 1924      00
 1925              	.LASF30:
 1926 033f 7072696F 		.ascii	"prio\000"
 1926      00
 1927              	.LASF54:
 1928 0344 63757272 		.ascii	"current\000"
 1928      656E7400 
 1929              	.LASF13:
 1930 034c 5F5F7569 		.ascii	"__uint64_t\000"
 1930      6E743634 
 1930      5F7400
 1931              	.LASF22:
 1932 0357 74726566 		.ascii	"trefs_t\000"
 1932      735F7400 
 1933              	.LASF37:
 1934 035f 72656673 		.ascii	"refs\000"
 1934      00
 1935              	.LASF56:
 1936 0364 76697274 		.ascii	"virtual_timer_t\000"
 1936      75616C5F 
 1936      74696D65 
 1936      725F7400 
 1937              	.LASF23:
 1938 0374 74707269 		.ascii	"tprio_t\000"
 1938      6F5F7400 
 1939              	.LASF64:
 1940 037c 63685F73 		.ascii	"ch_system_debug\000"
 1940      79737465 
 1940      6D5F6465 
 1940      62756700 
 1941              	.LASF89:
 1942 038c 5F426F6F 		.ascii	"_Bool\000"
 1942      6C00
 1943              	.LASF4:
 1944 0392 756E7369 		.ascii	"unsigned char\000"
 1944      676E6564 
 1944      20636861 
 1944      7200
 1945              	.LASF5:
 1946 03a0 73686F72 		.ascii	"short int\000"
 1946      7420696E 
 1946      7400
 1947              	.LASF62:
 1948 03aa 6C617374 		.ascii	"lasttime\000"
 1948      74696D65 
 1948      00
 1949              	.LASF83:
 1950 03b3 65776D61 		.ascii	"ewmask\000"
 1950      736B00
 1951              	.LASF67:
 1952 03ba 63685F73 		.ascii	"ch_system\000"
 1952      79737465 
ARM GAS  /tmp/cclT0r4k.s 			page 47


 1952      6D00
 1953              	.LASF57:
 1954 03c4 63685F76 		.ascii	"ch_virtual_timer\000"
 1954      69727475 
 1954      616C5F74 
 1954      696D6572 
 1954      00
 1955              	.LASF84:
 1956 03d5 63685F73 		.ascii	"ch_semaphore\000"
 1956      656D6170 
 1956      686F7265 
 1956      00
 1957              	.LASF18:
 1958 03e2 75696E74 		.ascii	"uint32_t\000"
 1958      33325F74 
 1958      00
 1959              	.LASF82:
 1960 03eb 77746D74 		.ascii	"wtmtxp\000"
 1960      787000
 1961              	.LASF47:
 1962 03f2 63685F74 		.ascii	"ch_threads_list\000"
 1962      68726561 
 1962      64735F6C 
 1962      69737400 
 1963              	.LASF86:
 1964 0402 6F776E65 		.ascii	"owner\000"
 1964      7200
 1965              	.LASF34:
 1966 0408 77616261 		.ascii	"wabase\000"
 1966      736500
 1967              	.LASF92:
 1968 040f 72656164 		.ascii	"read\000"
 1968      00
 1969              	.LASF87:
 1970 0414 63686172 		.ascii	"char\000"
 1970      00
 1971              	.LASF59:
 1972 0419 66756E63 		.ascii	"func\000"
 1972      00
 1973              	.LASF6:
 1974 041e 5F5F7569 		.ascii	"__uint16_t\000"
 1974      6E743136 
 1974      5F7400
 1975              	.LASF28:
 1976 0429 74687265 		.ascii	"thread_t\000"
 1976      61645F74 
 1976      00
 1977              	.LASF27:
 1978 0432 73797374 		.ascii	"systime_t\000"
 1978      696D655F 
 1978      7400
 1979              	.LASF8:
 1980 043c 5F5F696E 		.ascii	"__int32_t\000"
 1980      7433325F 
 1980      7400
 1981              	.LASF65:
 1982 0446 70616E69 		.ascii	"panic_msg\000"
ARM GAS  /tmp/cclT0r4k.s 			page 48


 1982      635F6D73 
 1982      6700
 1983              	.LASF98:
 1984 0450 2E2E2F6F 		.ascii	"../os/hal/lib/streams/nullstreams.c\000"
 1984      732F6861 
 1984      6C2F6C69 
 1984      622F7374 
 1984      7265616D 
 1985              	.LASF43:
 1986 0474 6D706F6F 		.ascii	"mpool\000"
 1986      6C00
 1987              	.LASF49:
 1988 047a 74687265 		.ascii	"threads_queue_t\000"
 1988      6164735F 
 1988      71756575 
 1988      655F7400 
 1989              	.LASF85:
 1990 048a 63685F6D 		.ascii	"ch_mutex\000"
 1990      75746578 
 1990      00
 1991              	.LASF68:
 1992 0493 726C6973 		.ascii	"rlist\000"
 1992      7400
 1993              	.LASF15:
 1994 0499 75696E74 		.ascii	"uint8_t\000"
 1994      385F7400 
 1995              	.LASF36:
 1996 04a1 666C6167 		.ascii	"flags\000"
 1996      7300
 1997              	.LASF78:
 1998 04a7 77746F62 		.ascii	"wtobjp\000"
 1998      6A7000
 1999              	.LASF45:
 2000 04ae 74687265 		.ascii	"threads_list_t\000"
 2000      6164735F 
 2000      6C697374 
 2000      5F7400
 2001              	.LASF41:
 2002 04bd 6D74786C 		.ascii	"mtxlist\000"
 2002      69737400 
 2003              		.comm	__gnu_lto_v1,1,1
 2004              		.ident	"GCC: (4.8.2-14ubuntu1+6) 4.8.2"
ARM GAS  /tmp/cclT0r4k.s 			page 49


DEFINED SYMBOLS
                            *ABS*:0000000000000000 nullstreams.c
     /tmp/cclT0r4k.s:184    .text.writes:0000000000000000 $t
     /tmp/cclT0r4k.s:189    .text.writes:0000000000000000 writes
     /tmp/cclT0r4k.s:206    .text.reads:0000000000000000 $t
     /tmp/cclT0r4k.s:211    .text.reads:0000000000000000 reads
     /tmp/cclT0r4k.s:227    .text.put:0000000000000000 $t
     /tmp/cclT0r4k.s:232    .text.put:0000000000000000 put
     /tmp/cclT0r4k.s:248    .text.get:0000000000000000 $t
     /tmp/cclT0r4k.s:253    .text.get:0000000000000000 get
     /tmp/cclT0r4k.s:269    .text.nullObjectInit:0000000000000000 $t
     /tmp/cclT0r4k.s:275    .text.nullObjectInit:0000000000000000 nullObjectInit
     /tmp/cclT0r4k.s:293    .rodata.vmt:0000000000000000 .LANCHOR0
     /tmp/cclT0r4k.s:292    .rodata.vmt:0000000000000000 $d
     /tmp/cclT0r4k.s:296    .rodata.vmt:0000000000000000 vmt
                            *COM*:0000000000000001 __gnu_lto_v1
                     .debug_frame:0000000000000010 $d

NO UNDEFINED SYMBOLS
