ARM GAS  /tmp/ccUcytGS.s 			page 1


   1              		.syntax unified
   2              		.cpu cortex-m3
   3              		.fpu softvfp
   4              		.eabi_attribute 20, 1
   5              		.eabi_attribute 21, 1
   6              		.eabi_attribute 23, 3
   7              		.eabi_attribute 24, 1
   8              		.eabi_attribute 25, 1
   9              		.eabi_attribute 26, 1
  10              		.eabi_attribute 30, 2
  11              		.eabi_attribute 34, 1
  12              		.eabi_attribute 18, 4
  13              		.thumb
  14              		.file	"nvic.c"
  15              		.text
  16              	.Ltext0:
  17              		.section	.gnu.lto_.jmpfuncs.c9809740f3211f7a,"",%progbits
  18 0000 789C6362 		.ascii	"x\234cb`b\300\006\270\2404\013\0033##\02333#\003\000"
  18      6062C006 
  18      B8A0340B 
  18      03332323 
  18      13333323 
  19 0016 01F00021 		.ascii	"\001\360\000!"
  20              		.text
  21              		.section	.gnu.lto_.inline.c9809740f3211f7a,"",%progbits
  22 0000 789C6D4C 		.ascii	"x\234mL\313\025\200 \014KK\205\352\305\021\330\300%"
  22      CB158020 
  22      0C4B4B85 
  22      EAC511D8 
  22      C025
  23 0012 5D84911C 		.ascii	"]\204\221\034\305\021LQy\036\354!}\371*\024\177\267"
  23      C5114C51 
  23      791EEC21 
  23      7DF92A14 
  23      7FB7
  24 0024 3FDF8065 		.ascii	"?\337\200e\026\025\011\022`\371\334\220[U\350\261\032"
  24      16150912 
  24      60F9DC90 
  24      5B55E8B1 
  24      1A
  25 0035 C89CAAD3 		.ascii	"\310\234\252\323\363\302TD\222\265zG\350Z\037QL&\322"
  25      F3C25444 
  25      92B57A47 
  25      E85A1F51 
  25      4C26D2
  26 0048 57127B9F 		.ascii	"W\022{\237\201PP\362[\035\346\250\342\002a/\015\002"
  26      815050F2 
  26      5B1DE6A8 
  26      E202612F 
  26      0D02
  27              		.text
  28              		.section	.gnu.lto_.pureconst.c9809740f3211f7a,"",%progbits
  29 0000 789C6362 		.ascii	"x\234cb`b\340d\200\000\026\006)F)&)f)\000\002\326\000"
  29      6062E064 
  29      80001606 
  29      29462926 
  29      29662900 
ARM GAS  /tmp/ccUcytGS.s 			page 2


  30 0017 80       		.ascii	"\200"
  31              		.text
  32              		.section	.gnu.lto_nvicEnableVector.c9809740f3211f7a,"",%progbits
  33 0000 789C9D91 		.ascii	"x\234\235\221\277K\303@\024\307\337\273k\314\217\242"
  33      BF4BC340 
  33      14C7DFBB 
  33      6BCC8FA2 
  34 0010 AE3A5914 		.ascii	"\256:Y\024\241PL\334\034\234\304\311\241K\251\240c\315"
  34      A1504CDC 
  34      1C9CC4C9 
  34      A14BA9A0 
  34      63CD
  35 0022 1003B611 		.ascii	"\020\003\266\021+\342\326\264\351\246C\007\027\253\203"
  35      2BE2D6B4 
  35      E9A64307 
  35      17AB83
  36 0031 4544107F 		.ascii	"ED\020\177\374\001\202\224n\016U\334\234\244\270\012"
  36      FC018294 
  36      6E0E55DC 
  36      9CA4B80A 
  37 0041 224E8242 		.ascii	"\"N\202B|\227\330HE\034<\270\273w\367\276\357}?\307"
  37      7C97D848 
  37      451C3CB8 
  37      BB77F7BE 
  37      EF7D3FC7 
  38 0055 3160F073 		.ascii	"1`\360s\014\323\314\320u\212v\344\200\254v\003PV\030"
  38      0CD3CCD0 
  38      758A76E4 
  38      80AC7603 
  38      505618
  39 0068 A20800A1 		.ascii	"\242\010\000\241\304\260\264\210B\212\243\320p\335Z"
  39      C4B0B488 
  39      428AA3D0 
  39      70DD5A
  40 0077 E7E8F18D 		.ascii	"\347\350\361\215\355\3564\253\007\356\207\357#\332H"
  40      EDEE34AB 
  40      07EE87EF 
  40      23DA48
  41 0086 6D930826 		.ascii	"m\223\010&\302\002\0350\021l,\326\353s\301\232\035\337"
  41      C2021D30 
  41      116C2CD6 
  41      EB73C19A 
  41      1DDF
  42 0098 DFBFAD3F 		.ascii	"\337\277\255?\014a?b^\024\331\310\271X$:\242LQL\201"
  42      0C613F62 
  42      5E14D9C8 
  42      B958243A 
  42      A24C514C 
  43 00ad 1C36C847 		.ascii	"\0346\310G\245\003h\264HT*A\225l\023 \034hdi\025l\363"
  43      A50368B4 
  43      48542A41 
  43      956C1320 
  43      1C686469 
  44 00c4 C8C4CEDB 		.ascii	"\310\304\316\333Py\362\374w\314\341!\311-d\026\222\242"
  44      5079F2FC 
  44      77CCE121 
  44      C92D6416 
ARM GAS  /tmp/ccUcytGS.s 			page 3


  44      92A2
  45 00d6 0DDE19EF 		.ascii	"\015\336\031\357^q\272\025P}\002\252\015\255\27101\001"
  45      5E71BA15 
  45      507D02AA 
  45      0DADB930 
  45      3101
  46 00e8 A76EB5EC 		.ascii	"\247n\265\354NQ\"\005'\"\034\264Q\336\203:I\025\241"
  46      4E512205 
  46      27221CB4 
  46      51DE833A 
  46      4915A1
  47 00fb 57DD96E7 		.ascii	"W\335\226\347\016\004\357Q\203W,a\370\032+\000\013#"
  47      0E04EF51 
  47      83572C61 
  47      F81A2B00 
  47      0B23
  48 010d 1E989D7B 		.ascii	"\036\230\235{\307\333\311\256\237LyQ\004R\340Wy\366"
  48      C7DBC9AE 
  48      9F4C7951 
  48      0452E057 
  48      79F6
  49 011f AE223C25 		.ascii	"\256\"<%\250\245\212\313\010O\265B;\030\201\020\334"
  49      A8A58ACB 
  49      084FB542 
  49      3B188110 
  49      DC
  50 0130 7B8DE49A 		.ascii	"{\215\344\232HH(T\001\372\365K\274\007~\332F\355\033"
  50      48482854 
  50      01FAF54B 
  50      BC077EDA 
  50      46ED1B
  51 0143 3EFE373C 		.ascii	">\3767<~!\313\021\274\0266\275\247/\375\177[\366[\333"
  51      7E21CB11 
  51      BC1636BD 
  51      A72FFD7F 
  51      5BF65BDB 
  52 0157 3B2877B6 		.ascii	";(w\266\306\302\246\335\221%\002\3722\241\037\327u\303"
  52      C6C2A6DD 
  52      912502FA 
  52      32A11FD7 
  52      75C3
  53 0169 291ACBB9 		.ascii	")\032\313\271\025c\325Y[/\032\246\223\317;\005c&\223"
  53      1563D559 
  53      5B2F1AA6 
  53      93CF3B05 
  53      632693
  54 017c 9E4D6F1A 		.ascii	"\236Mo\032\205\015\333\324M\340\005}\362\023K\233\221"
  54      850DDBD4 
  54      4DE0057D 
  54      F2134B9B 
  54      91
  55 018d B8       		.ascii	"\270"
  56              		.text
  57              		.section	.gnu.lto_nvicDisableVector.c9809740f3211f7a,"",%progbits
  58 0000 789C7D50 		.ascii	"x\234}P=K\003A\020\235\267w\247\211\202bieP\204@\360"
  58      3D4B0341 
  58      109DB777 
ARM GAS  /tmp/ccUcytGS.s 			page 4


  58      A7898262 
  58      69655084 
  59 0016 0E2B0B2B 		.ascii	"\016+\013+\261N#\021\264\214W\304\003\223\023#b\227"
  59      B14E2311 
  59      B48C57C4 
  59      03931323 
  59      6297
  60 0028 8B173B0B 		.ascii	"\213\027;\013\013\013?\032\203]\210\037`#\010\022\002"
  60      0B0B3F1A 
  60      835D881F 
  60      60230812 
  60      02
  61 0039 161611FC 		.ascii	"\026\026\021\374\007\301F\260\020\321&\205\020g.9%\026"
  61      07C146B0 
  61      10D12685 
  61      10672E39 
  61      2516
  62 004b 0EECCEEC 		.ascii	"\016\354\316\354\2747ofV\221\242\2776\312\347\036D\011"
  62      BC376F66 
  62      5691A2BF 
  62      36CAE71E 
  62      4409
  63 005d F6D0086A 		.ascii	"\366\320\010j\377\221\250\030Q\200\004\004*(\024\226"
  63      FF91A818 
  63      51800404 
  63      2A281496 
  64 006d 21548C53 		.ascii	"!T\214S\331\363\366\233\273/-utP+\235z_\3556\340\200"
  64      D9F3F69B 
  64      BB2F2D75 
  64      74502B9D 
  64      7A5FED36 
  65 0083 65E3201B 		.ascii	"e\343 \033\264\304\017\304\002\247\364\336>\227\252"
  65      B4C40FC4 
  65      02A7F4DE 
  65      3E97AA
  66 0092 D66CB7AB 		.ascii	"\326l\267\253\327W\317\025\214D\201\254T9\3204J\243"
  66      D757CF15 
  66      8C4481AC 
  66      5439D034 
  66      4AA3
  67 00a4 CCCA3A3F 		.ascii	"\314\312:?\310\340K\352\014*q\243\030\211&[\212o\231"
  67      C8E04BEA 
  67      0C2A71A3 
  67      1889265B 
  67      8A6F99
  68 00b7 66114ABC 		.ascii	"f\021J\274\326 \377\302\377\334\213\247q\006\2032P\031"
  68      D620FFC2 
  68      FFDC8BA7 
  68      71068332 
  68      5019
  69 00c9 407A721D 		.ascii	"@zr\035Q\203v\336\374;\204\230\306\230$\375[-L\351\234"
  69      518376DE 
  69      FC3B8498 
  69      C69824FD 
  69      5B2D4CE9 
  70 00de 0DE86301 		.ascii	"\015\350c\001\335?\367?~\350\206\000:\204%X\375\341"
  70      DD3FF73F 
ARM GAS  /tmp/ccUcytGS.s 			page 5


  70      7EE88600 
  70      3A842558 
  70      FDE1
  71 00f0 7DB0034D 		.ascii	"}\260\003MQ\325+\025\275Y\007F\202*\022\016;\350;\241"
  71      51D52B15 
  71      BD590746 
  71      822A120E 
  71      3BE83BA1 
  72 0104 63E6F74B 		.ascii	"c\346\367KQ\304\253\373\336P\260{$\330x\005\235\315"
  72      51C4ABFB 
  72      DE50B07B 
  72      24D87805 
  72      9DCD
  73 0116 793E0A23 		.ascii	"y>\012##\020\2759|m\241Gv\306A\364Wv\340\177Yt\305\272"
  73      2310BD39 
  73      7C6DA147 
  73      76C641F4 
  73      5776E07F 
  74 012e FA011695 		.ascii	"\372\001\026\225\340\211\212\315\312DG8\264\024\323"
  74      E0898ACD 
  74      CA444738 
  74      B414D3
  75 013d F8CF6484 		.ascii	"\370\317d\204I\323\264\334\274\265\232^\263\326\335"
  75      49D3B4DC 
  75      BCB59A5E 
  75      B3D6DD
  76 014c 8DCDBC65 		.ascii	"\215\315\274e\273\331\254\233\263\346\026\222\363\311"
  76      BBD9AC9B 
  76      B3E61692 
  76      F3C9
  77 015a 6D2BB7E5 		.ascii	"m+\267\345\330\246MZ\316\234\376\006\363\020u\254"
  77      D8A64D5A 
  77      CE9CFE06 
  77      F31075AC 
  78              		.text
  79              		.section	.gnu.lto_nvicSetSystemHandlerPriority.c9809740f3211f7a,"",%progbits
  80 0000 789C6362 		.ascii	"x\234cb`b@\007\222@\374\001\210\325\201\230\221\231"
  80      60624007 
  80      9240FC01 
  80      88D58198 
  80      9199
  81 0012 819169C2 		.ascii	"\201\221i\3029\006\206F\016&FF\020\203\201\221\241\236"
  81      39068646 
  81      0E264646 
  81      10838191 
  81      A19E
  82 0024 89B13E92 		.ascii	"\211\261>\222\021\254v=\323\201\007\377\377\257\373"
  82      11AC763D 
  82      D38107FF 
  82      FFAFFB
  83 0033 D276EC20 		.ascii	"\322v\354 \3439evF\306\\F\240\211\231\214\014\314 \202"
  83      E3396576 
  83      46C65C46 
  83      A089998C 
  83      0CCC2082 
  84 0047 15C805A9 		.ascii	"\025\310\005\251cehih\230\240\220\313\010\264,\031\254"
  84      63656869 
ARM GAS  /tmp/ccUcytGS.s 			page 6


  84      6898A090 
  84      CB08B42C 
  84      19AC
  85 0059 31044882 		.ascii	"1\004H\202L\013\005\012\001i\346\263\014M\257\2337\367"
  85      4C0B050A 
  85      0169E6B3 
  85      0C4DAF9B 
  85      37F7
  86 006b E926322E 		.ascii	"\351&2.ddeHgdJ\007i<\313\320\274\226\031&\304\014\024"
  86      64646548 
  86      67644A07 
  86      693CCBD0 
  86      BC961926 
  87 0082 8D60CC64 		.ascii	"\215`\314ddda\000\311\034\362\204H\3502\254ihil0\007"
  87      64646100 
  87      C91CF284 
  87      48E832AC 
  87      6968696C 
  88 0098 4A6833AC 		.ascii	"Jh3\254\0021y3\031\231f3\314\002*e\006\251gi\270\325"
  88      02317933 
  88      19996633 
  88      CC022A65 
  88      06A96769 
  89 00ae DCC0C700 		.ascii	"\334\300\307\000f\202\335\234\004q:\320HV\006\030\213"
  89      6682DD9C 
  89      04713AD0 
  89      48560618 
  89      8B
  90 00bf 9981E122 		.ascii	"\231\201\341\"C\343\203s\312\020Ca \004\350\012\240"
  90      43E38373 
  90      CA104361 
  90      2004E80A 
  90      A0
  91 00d0 F34061A4 		.ascii	"\363@a\244\252\247\247\237_\254\237\221\230\243_\220"
  91      AAA7A79F 
  91      5FAC9F91 
  91      98A35F90 
  92 00e0 5F5452AC 		.ascii	"_TR\254\237\234\237\233\233\237\247\357\030\344\353"
  92      9F9C9F9B 
  92      9B9FA7EF 
  92      18E4EB
  93 00ef EC5BA19F 		.ascii	"\354[\241\237W\226\231\254\227\314\000\000I|D\305"
  93      579699AC 
  93      97CC0000 
  93      497C44C5 
  94              		.text
  95              		.section	.gnu.lto_nvicClearPending.c9809740f3211f7a,"",%progbits
  96 0000 789C5D50 		.ascii	"x\234]P1H\303P\020\275\367\177\222\352\2428:Y\024\241"
  96      3148C350 
  96      10BDF77F 
  96      92EAA238 
  96      3A5914A1 
  97 0014 504CC0D5 		.ascii	"PL\300\325I\234\034\\\244\202\2165C\015\330F\254\210"
  97      499C1C5C 
  97      A4828E35 
  97      430DD846 
  97      AC88
ARM GAS  /tmp/ccUcytGS.s 			page 7


  98 0026 5B7F4D67 		.ascii	"[\177Mg\351\340\242.\0267\251\272\333\245t\257\350\356"
  98      E9E0A22E 
  98      1637A9BA 
  98      DBA574AF 
  98      E8EE
  99 0038 5004A138 		.ascii	"P\004\2418\270\272\010\361.5\005=\370\377\356\277{\367"
  99      B8BA08F1 
  99      2E35053D 
  99      F8FFEEBF 
  99      7BF7
 100 004a EEFE2952 		.ascii	"\356\376)R\364\337f\371\030\020\345\331C\023T\363\211"
 100      F4DF66F9 
 100      1810E5D9 
 100      431354F3 
 100      89
 101 005b A83EA100 		.ascii	"\250>\241\000\011\010TS\250\355@\250\230\247\2261\315"
 101      09085453 
 101      A8ED40A8 
 101      98A79631 
 101      CD
 102 006c C1FBD7B3 		.ascii	"\301\373\327\263\2768\3576\256\315w\034\003\001X6\007"
 102      BE38EF36 
 102      AECD771C 
 102      03015836 
 102      07
 103 007d F241DBFC 		.ascii	"\362A\333\374@6q\312\372\333\347Au\007q\374\332i\277"
 103      403671CA 
 103      FADBE741 
 103      750771FC 
 103      DA69BF
 104 0090 0D313309 		.ascii	"\01513\011\224\245*\200\326TD\213\225-~\220-\227#0W"
 104      94A52A80 
 104      D654448B 
 104      952D7E90 
 104      2D972330 
 105 00a5 D8D4E06E 		.ascii	"\330\324\340nY\022a\266\002\3372\322\026\224x\335\247"
 105      591261B6 
 105      02DF32D2 
 105      169478DD 
 105      A7
 106 00b6 E83E8ACF 		.ascii	"\350>\212\317rE\334\300\246\022T\011\220\306\\G\324"
 106      7245DCC0 
 106      A6125409 
 106      90C65C47 
 106      D4
 107 00c7 A7D3CFE8 		.ascii	"\247\323\317\350\003iNsN\300\250\243S\310b4\241\317"
 107      03694E73 
 107      4EC0A8A3 
 107      53C86234 
 107      A1CF
 108 00d9 25F4E86E 		.ascii	"%\364\350n\234\261\023\030\302\371\025z\034\0139\234"
 108      9CB11318 
 108      C2F9157A 
 108      1C0B399C 
 109 00e9 16B0B73E 		.ascii	"\026\260\267>B\226\250m\032u\263\022\300\312\323\255"
 109      4296A86D 
 109      1A75B312 
ARM GAS  /tmp/ccUcytGS.s 			page 8


 109      C0CAD3AD 
 110 00f9 84D301EC 		.ascii	"\204\323\001\354+\272d\011Gt2\246\027\231\251d#\231"
 110      2BBA6409 
 110      477432A6 
 110      1799A964 
 110      2399
 111 010b 640FBB18 		.ascii	"d\017\273\030\355\203\007\2464r\210^\250>\030.\214D"
 111      ED8307A6 
 111      3472885E 
 111      A83E182E 
 111      8C44
 112 011d 532BF0D0 		.ascii	"S+\360\320\374S\341-\272\256\027V\275\275\342\276w\020"
 112      FC53E12D 
 112      BAAE1756 
 112      BDBDE2BE 
 112      7710
 113 012f 1E1E553D 		.ascii	"\036\036U=?,\227\303\212\267\272\271\261\266q\342U\216"
 113      3F2C97C3 
 113      8AB7BAB9 
 113      B1B671E2 
 113      558E
 114 0141 03DFF549 		.ascii	"\003\337\365IW\334\345\037\032\336e\232"
 114      57DCE51F 
 114      1ADE659A 
 115              		.text
 116              		.section	.gnu.lto_.symbol_nodes.c9809740f3211f7a,"",%progbits
 117 0000 789C6362 		.ascii	"x\234cb`b\260c\200\002\246\333\214\365\014\014\023\316"
 117      6062B063 
 117      8002A6DB 
 117      8CF50C0C 
 117      13CE
 118 0012 3130D4D7 		.ascii	"10\324\327\317\353`d\272\303X\317\210\304\275\313X\317"
 118      CFEB6064 
 118      BAC358CF 
 118      88C4BDCB 
 118      58CF
 119 0024 84C4BDC7 		.ascii	"\204\304\275\307X\317\214\3402\000\000q\306\023\317"
 119      58CF8CE0 
 119      32000071 
 119      C613CF
 120              		.text
 121              		.section	.gnu.lto_.refs.c9809740f3211f7a,"",%progbits
 122 0000 789C6362 		.ascii	"x\234cb`b`d\200\002\000\000F\000\006"
 122      60626064 
 122      80020000 
 122      460006
 123              		.text
 124              		.section	.gnu.lto_.decls.c9809740f3211f7a,"",%progbits
 125 0000 789CAD59 		.ascii	"x\234\255Yml\024\307\031\236\331;c_p\035\210\362\001"
 125      6D6C14C7 
 125      199ED93B 
 125      635F701D 
 125      88F201
 126 0013 15114ED5 		.ascii	"\025\021N\325\244\025j}\001\222\226\374\2110g\273\276"
 126      A4156A7D 
 126      019296FC 
 126      893067BB 
ARM GAS  /tmp/ccUcytGS.s 			page 9


 126      BE
 127 0024 1F4EAC3B 		.ascii	"\037N\254;@U\370ql\216Km\311>\243\3639\015\377\3065"
 127      4055F871 
 127      6C8E4B6D 
 127      C93EA3F3 
 127      390DFFC6 
 128 0039 A4B405C5 		.ascii	"\244\264\005\305`h\\H\25531\241($\001\002\226M\0119"
 128      60685C48 
 128      AD3331A1 
 128      28240102 
 128      964D0939 
 129 004d 912FF251 		.ascii	"\221/\362Q\205@>\\\\\322k\2424M\252\224\2404$H\204\353"
 129      85403E5C 
 129      5CD26BA2 
 129      344DAA94 
 129      A0342448 
 130 0063 3BEFEEEC 		.ascii	";\357\356\354\315\356\355\234w\243\2564\357\316\356"
 130      CDEEED9C 
 130      77A3AE34 
 130      EFCEEE
 131 0072 BEF3CCF3 		.ascii	"\276\363\314\363\274\363\261\357\355iD#[(!E8\272\277"
 131      BCF3B1EF 
 131      ED694423 
 131      5B282145 
 131      38BABF
 132 0085 4BC87C8D 		.ascii	"K\310|\215\220*B\310\335\244t\004\241\214B9\014e\002"
 132      902A42C8 
 132      DDA47404 
 132      A18C4239 
 132      0C6502
 133 0098 CA09527E 		.ascii	"\312\011R~\360\347\265\246o\235Y\007XRM\014\274\223"
 133      F0E7B5A6 
 133      6F9D5907 
 133      58524D0C 
 133      BC93
 134 00aa 505E85F2 		.ascii	"P^\205\362\006\224/\241\234\205r\006J\000\312gP>\204"
 134      06942FA1 
 134      9C857206 
 134      4A00CA67 
 134      503E84
 135 00bd F296D986 		.ascii	"\362\226\331\206c\001\015\362\014\224\247\034\375p\016"
 135      63010DF2 
 135      0C94A71C 
 135      FD700E
 136 00cc B31DFD88 		.ascii	"\263\035\375\210>\004\246\350C\364\311\261\246\315~"
 136      3E04A6E8 
 136      43F4C9B1 
 136      A6CD7E
 137 00db A889C1CF 		.ascii	"\250\211\301\317\343\016\354\011\023\207\232m/A\271"
 137      E30EEC09 
 137      13879A6D 
 137      2F41B9
 138 00ea 0C653135 		.ascii	"\014e15\356\3156\317\023&\357\343P\216AYB\3558<>5.\034"
 138      EECD36CF 
 138      1326EFE3 
 138      508E4159 
 138      42ED383C 
ARM GAS  /tmp/ccUcytGS.s 			page 10


 139 0102 9DFCA8A9 		.ascii	"\235\374\250\251\233\232m\3709\357\340\264\220\214\260"
 139      9B9A6DF8 
 139      39EFE0B4 
 139      908CB0
 140 0111 5CA1B077 		.ascii	"\\\241\260w\344u\312\266\263+\305b\200\334Hv28r\017"
 140      E475CAB6 
 140      B32BC562 
 140      80DC4876 
 140      3238720F 
 141 0125 3346B33A 		.ascii	"3F\263:\275\373\006\362s\252\323\272\020\251\307Jm\010"
 141      BDFB06F2 
 141      73AAD3BA 
 141      10A9C74A 
 141      6D08
 142 0137 3B2644A7 		.ascii	";&D\247{\350\215X\013`\010H\210lf\354W\274a\353)\340"
 142      7BE88D58 
 142      0B600848 
 142      886C66EC 
 142      57BC61EB 
 143 014d E5D6EA56 		.ascii	"\345\326\352V2\306\330`\341\320\376-?b\254F\247c4\004"
 143      32C6D860 
 143      E1D0FE2D 
 143      3F62AC46 
 143      A7633404 
 144 0161 6D5B2859 		.ascii	"m[(YD\366C\237\203\214}\360\003\207Z\342\017\372\374"
 144      44F6439F 
 144      838C7DF0 
 144      03875AE2 
 144      0FFAFC
 145 0174 C3C7EF42 		.ascii	"\303\307\357B\350?!\364FJ\201\350>\272\310\004\322i"
 145      E83F21F4 
 145      464A81E8 
 145      3EBAC804 
 145      D269
 146 0186 754806C6 		.ascii	"uH\006\306k\341\300\321\360\261Y\341\223\366Z\342\327"
 146      6BE1C0D1 
 146      F0B159E1 
 146      93F65AE2 
 146      D7
 147 0197 DD8C8621 		.ascii	"\335\214\206!\016+\253\002\026\200F\036q0\372>y\234"
 147      0E2BAB02 
 147      1680461E 
 147      7130FA3E 
 147      799C
 148 01a9 B1ED3002 		.ascii	"\261\3550\002c\363YN\023!\311\241\327(]\350\252\325"
 148      63F3594E 
 148      1321C9A1 
 148      D7285DE8 
 148      AAD5
 149 01bb C4369AB2 		.ascii	"\3046\232\262\311T\253h\266\307K3Bn#{\371\020oe\233"
 149      C954AB68 
 149      B6C74B33 
 149      426E237B 
 149      F9106F65 
 150 01d0 E6501C61 		.ascii	"\346P\034ab\266\262I=@\265\362\251\222?\362r\355`\177"
 150      62B6B249 
 150      3D40B5F2 
ARM GAS  /tmp/ccUcytGS.s 			page 11


 150      A9923FF2 
 150      72ED607F 
 151 01e4 A1585CE8 		.ascii	"\241X\\\350}\236<k\237'\006\015GX\366\271\206\205\015"
 151      7D9E3C6B 
 151      9F27060D 
 151      4758F6B9 
 151      86850D
 152 01f7 096D3A7D 		.ascii	"\011m:}\032\350\350\364\360\267\322v\330\251\355\250"
 152      1AE8E8F4 
 152      F0B7D276 
 152      D8A9EDA8 
 153 0207 ABB6FF0A 		.ascii	"\253\266\377\012m\306\334\326\310\244;+)\342\357\242"
 153      6DC6DCD6 
 153      C8A43B2B 
 153      29E2EFA2 
 154 0217 C784A781 		.ascii	"\307\204\247\201\372\246$\346 \212\231\241\231B\314"
 154      FAA624E6 
 154      208A99A1 
 154      9942CC
 155 0226 8453CCA4 		.ascii	"\204S\314\244\253\230c\257Xb\236E1\357\273\213\331\346"
 155      AB9863AF 
 155      58629E45 
 155      31EFBB8B 
 155      D9E6
 156 0238 0CF1896F 		.ascii	"\014\361\211o\305\352\204\223\325\363vV\270\204\007"
 156      C5EA8493 
 156      D5F37656 
 156      B88407
 157 0247 58612F9B 		.ascii	"Xa/\2337\\Z\3025\242\003\276\352\305\356\360\3119\015"
 157      375C5AC2 
 157      35A203BE 
 157      EAC5EEF0 
 157      C9390D
 158 025a 96B0B9E6 		.ascii	"\226\260\271\346+5\320\351\013\364V\260\324\276(i\250"
 158      2B35D0E9 
 158      0BF456B0 
 158      D4BE2869 
 158      A8
 159 026b 5429523E 		.ascii	"T)R>\273.8\244{\300\266\366\223\221e\270\237\274\214"
 159      BB2E38A4 
 159      7BC0B6F6 
 159      939165B8 
 159      9FBC8C
 160 027e C3FD55D9 		.ascii	"\303\375U\331~B\035\373\311\014\\\374\370\316%\203<"
 160      7E421DFB 
 160      C90C5CFC 
 160      F8CE2583 
 160      3C
 161 028f CEF5C375 		.ascii	"\316\365\303u:=\011\367L\232\354Z\301\363s\003P\366"
 161      3A3D09F7 
 161      4C9AEC5A 
 161      C1F37303 
 161      50F6
 162 02a1 7BB1829F 		.ascii	"{\261\202\237N_\243sK\372\231\271\237\242\213j\355\276"
 162      4E5FA373 
 162      4BFA99B9 
 162      9FA28B6A 
ARM GAS  /tmp/ccUcytGS.s 			page 12


 162      EDBE
 163 02b3 6EEA336F 		.ascii	"n\3523o[\225\013\324\246D\270\221\353\3106\344\"m\323"
 163      5B950BD4 
 163      A644B891 
 163      EBC836E4 
 163      226DD3
 164 02c6 B90215AD 		.ascii	"\271\002\025\2556.(Evh\373\233-\030\3317\350u\020\331"
 164      362E2845 
 164      7668FB9B 
 164      2D18D937 
 164      E87510D9 
 165 02da 039A3DB2 		.ascii	"\003\232=\262\036\200x\307oBc\243\031\302\262|\361\275"
 165      1E8078C7 
 165      6F4263A3 
 165      19C2B27C 
 165      F1BD
 166 02ec 5A1634EE 		.ascii	"Z\0264\356\023\033\240\355\270\205\344\330\306\376\374"
 166      131BA0ED 
 166      B885E4D8 
 166      C6FEFC
 167 02fb D0AE9D94 		.ascii	"\320\256\235\224\345NR\021\301Su\3464\255\364\246\321"
 167      E54E5211 
 167      C15375E6 
 167      34ADF4A6 
 167      D1
 168 030c E95E9C75 		.ascii	"\351^\234u3\277\012\304@h\242y\275m\274x\350\307\244"
 168      33BF0AC4 
 168      4068A279 
 168      BD6DBC78 
 168      E8C7A4
 169 031f F172B8E9 		.ascii	"\361r\270\351\364m\337\303\365\216b\270\252m\243%\274"
 169      F46DDFC3 
 169      F58E62B8 
 169      AA6DA325 
 169      BC
 170 0330 20ECE318 		.ascii	" \354\343\030v\036-W\026\026\216\000\255\263\246;\017"
 170      761E2D57 
 170      16168E00 
 170      ADB3A63B 
 170      0F
 171 0341 21C47BC7 		.ascii	"!\304{\307}\203\272J\320,\321~\255\331\361\224oA\177"
 171      7D83BA4A 
 171      D02CD17E 
 171      ADD9F194 
 171      6F417F
 172 0354 5508BA89 		.ascii	"U\010\272\211\010\005\177.S`\353\326\026\322r\0050\011"
 172      08057F2E 
 172      5360EBD6 
 172      16D27205 
 172      3009
 173 0366 7E0F0A74 		.ascii	"~\017\012tz\006\250i\344%O\341`T\035\217aD\233B\264"
 173      7A06A869 
 173      E4254FE1 
 173      60541D8F 
 173      61449B42 
 174 037b D73C51CB 		.ascii	"\327<Q\313\251\320\200\333.\211\333Yo\33445\267\307"
 174      A9D080DB 
ARM GAS  /tmp/ccUcytGS.s 			page 13


 174      2E89DB59 
 174      6FDC3435 
 174      B7C7
 175 038d 246E53DE 		.ascii	"$nS\336\270\251\320\200\333\210\304\355\003o\334\002"
 175      B8A9D080 
 175      DB88C4ED 
 175      036FDC02 
 176 039d 6A6E0725 		.ascii	"jn\007%n\037{\343\246B\003n\207%n\027\275q\013\252\271"
 176      6E1F7BE3 
 176      A642036E 
 176      87256E17 
 176      BD710BAA 
 177 03b2 1DA930C7 		.ascii	"\035\2510\307\353\004@Al\262\237\372\236\344\377VL\362"
 177      EB044041 
 177      6CB29FFA 
 177      9EE4FF56 
 177      4CF2
 178 03c4 9F5A93FC 		.ascii	"\237Z\223\374R\231\006{\277\"$*\021\020\222\361\373"
 178      5299067B 
 178      BF22242A 
 178      111092F1 
 178      FB
 179 03d5 0EAED5E9 		.ascii	"\016\256\325\351\253\030\022\026p\302\331\337\025\""
 179      AB181216 
 179      70C2D9DF 
 179      1522
 180 03e3 26B3D431 		.ascii	"&\263\3241\231\250\020\223Qk\237\036\274\336\224\370"
 180      99A81093 
 180      516B9F1E 
 180      BCDE94F8 
 181 03f3 B9EFA05C 		.ascii	"\271\357\240\\T\004e\240\312\212\312@\231\014G\317B"
 181      540465A0 
 181      CA8ACA40 
 181      990C47CF 
 181      42
 182 0404 53B52A2C 		.ascii	"S\265*,\003\371c\347j\371T9\213\257\367\255N@\033+\021"
 182      03F963E7 
 182      6AF95439 
 182      8BAFF7AD 
 182      4E401B2B 
 183 0419 95052E68 		.ascii	"\225\005.hn\207\374v\322\351i|i\274Eo\001\373\036\332"
 183      6E87FC76 
 183      D2E9697C 
 183      69BC456F 
 183      01FB1EDA 
 184 042d 69B4E7D1 		.ascii	"i\264\347\321\376\035\355?\320~\210\366#\264\037\243"
 184      FE1DED3F 
 184      D07E88F6 
 184      23B41FA3 
 185 043d FD04ED67 		.ascii	"\375\004\355gh/\240\375\002\254u\314&\277-\375<2^\250"
 185      682FA0FD 
 185      02AC75CC 
 185      26BF2DFD 
 185      3C325EA8 
 186 0451 AAA87E49 		.ascii	"\252\250~Ig\213V\212\364b\255hR[\346\365\242\322K\247"
 186      678B568A 
 186      F462AD68 
ARM GAS  /tmp/ccUcytGS.s 			page 14


 186      525BE6F5 
 186      A2D24BA7 
 187 0465 5FF91EE0 		.ascii	"_\371\036\340\257\025\003l\021\264y\271%\004\005+c\333"
 187      AF15036C 
 187      11B479B9 
 187      2504052B 
 187      63DB
 188 0477 524AD9F2 		.ascii	"RJ\331\362\027\247i\275N/cV\261=0cV\341\000\341}^q&"
 188      17A769BD 
 188      4E2F6356 
 188      B13D3063 
 188      56E100E1 
 189 048f 1543D398 		.ascii	"\025C\323\230T\\\2319\251\3301\220\177t\367\316\371"
 189      545C9939 
 189      A9D83190 
 189      7F74F7CE 
 189      F9
 190 04a0 3CA9B052 		.ascii	"<\251\260R\211\374\377!\225\320\310n\224r\245\362\334"
 190      89FCFF21 
 190      95D0C86E 
 190      9472A5F2 
 190      DC
 191 04b1 24EA893E 		.ascii	"$\352\211><-M\364Q\337`\3656\260]2\330\023^\300j\324"
 191      3C2D4DF4 
 191      51DF60F5 
 191      36B05D32 
 191      D8135EC0 
 192 04c7 CC1E93C1 		.ascii	"\314\036\223\301\236\364\015fg6\"\203\035\362\0026G"
 192      9EF40D66 
 192      67362283 
 192      1DF20236 
 192      47
 193 04d8 CDECA00C 		.ascii	"\315\354\240\014v\3247\230\314\014\336Ik\370\006|\011"
 193      76D43798 
 193      CC0CDE49 
 193      6BF8067C 
 193      09
 194 04e9 37E04927 		.ascii	"7\340I'\226m=\231\325yjbGdb\317y!V\257\016\331\270\014"
 194      966D3D99 
 194      D5796A62 
 194      476462CF 
 194      792156AF 
 195 0501 F68217B0 		.ascii	"\366\202\027\260\037\252\231M\310`\247|\203\331\231"
 195      1FAA994D 
 195      C860A77C 
 195      83D999
 196 0510 1D93C1FE 		.ascii	"\035\223\301\376\342\005\354v5\263\3432\330\031\337"
 196      E205EC76 
 196      35B3E332 
 196      D819DF
 197 051f 60766627 		.ascii	"`vf'd\260)/`\313\324\314N\313`\347}\203I\314v\364\347"
 197      64B0292F 
 197      60CBD4CC 
 197      4ECB60E7 
 197      7D8349CC 
 198 0536 CFACB15E 		.ascii	"\317\254\261^\314\271\345|\013.\226v\355\345\366\005"
 198      CCB9E57C 
ARM GAS  /tmp/ccUcytGS.s 			page 15


 198      0B2E9676 
 198      EDE5F605 
 199 0546 64731B53 		.ascii	"ds\033S\272\351\364\217\232\337\315}Ds\337\334\355?"
 199      BAE9F48F 
 199      9ADFCD7D 
 199      4473DFDC 
 199      ED3F
 200 0558 1B8517CF 		.ascii	"\033\205\027\317 \235\262m$\314\352rE\014a\327}\333"
 200      209DB26D 
 200      24CCEA72 
 200      450C61D7 
 200      7DDB
 201 056a 88611163 		.ascii	"\210a\021c\370O/1lU\203\275+\203}\352\033\314> Sk\354"
 201      F84F2F31 
 201      6C5583BD 
 201      2B837DEA 
 201      1BCC3E20 
 202 0581 9992341E 		.ascii	"\231\2224\036\314JW\346\310\003R\226P9\334t\372\204"
 202      CC4A57E6 
 202      C8035296 
 202      5039DC74 
 202      FA84
 203 0593 EF01D9A7 		.ascii	"\357\001\331\247\030\220\322G8\331\013d\377\307)\333"
 203      1890D247 
 203      38D90B64 
 203      FFC729DB 
 204 05a3 CEC2ACB6 		.ascii	"\316\302\254\266\253\202\330\237?\247\326\235\263\240"
 204      AB82D89F 
 204      3FA7D69D 
 204      B3A0
 205 05b1 AEAFA4DB 		.ascii	"\256\257\244\333\351\246\323'}\353>\240\320\035\264"
 205      E9A6D327 
 205      7DEB3EA0 
 205      D01DB4
 206 05c0 E93E50D2 		.ascii	"\351>P\322\375\205S\267\235\205Y]\253\320\015\311\302"
 206      FD8553B7 
 206      9D85595D 
 206      ABD00DC9 
 206      C2
 207 05d1 DFD6F0B9 		.ascii	"\337\326\360\271\303\231\352\364\034~Q\233\011l\275"
 207      C399EAF4 
 207      1C7E519B 
 207      096CBD
 208 05e0 62F2C0D6 		.ascii	"b\362\300\326\360\276\2745|\355e&nv\3739\351v\310y\216"
 208      F0BEBC35 
 208      7CED6526 
 208      6E76FB39 
 208      E976C879 
 209 05f5 4EBFC144 		.ascii	"N\277\301D\344*&\227\375\032\267\003h7\241\3755\332"
 209      E42A2697 
 209      FD1AB703 
 209      6837A1FD 
 209      35DA
 210 0607 DFA0FD1D 		.ascii	"\337\240\375\035\332\255h\037A\273\015\355\020\332\235"
 210      DAAD681F 
 210      41BB0DED 
 210      10DA9D
ARM GAS  /tmp/ccUcytGS.s 			page 16


 211 0616 681F45FB 		.ascii	"h\037E\373\007\264\273\321\346\320\356A;\206v?\332\247"
 211      07B4BBD1 
 211      E6D0EE41 
 211      3B86763F 
 211      DAA7
 212 0628 D13EA3A9 		.ascii	"\321>\243\251\323\331\313\025\322\331C\232\225-~\217"
 212      D3D9CB15 
 212      D2D9439A 
 212      952D7E8F 
 213 0638 8CB2D3A7 		.ascii	"\214\262\323\247\013\233.\014\323\315\0056\310\256\026"
 213      0B9B2E0C 
 213      D3CD0536 
 213      C8AE16
 214 0647 8BB494BC 		.ascii	"\213\264\224\274Z_\374\362\225\277\370\361\377 4\351"
 214      5A5FFCF2 
 214      95BFF8F1 
 214      FF2034E9 
 215 0657 F3E03C77 		.ascii	"\363\340<w_\235\036\325x\274\306\245\331e\324E\315\370"
 215      5F9D1ED5 
 215      78BCC6A5 
 215      D965D445 
 215      CDF8
 216 0669 F07835E0 		.ascii	"\360x5\340\366w\006\002Tnjv\372/k\272\334l[(<\033\347"
 216      F6770602 
 216      546E6A76 
 216      FA2F6BBA 
 216      DC6C5B28 
 217 0680 AE0A379D 		.ascii	"\256\0127\235N\370^(\223\212\205\262\300\306z\262\264"
 217      4EF85E28 
 217      938A85B2 
 217      C0C67AB2 
 217      B4
 218 0691 5006828E 		.ascii	"P\006\202\216O\337N\026\032\331\022\024)\3655\030\341"
 218      4FDF4E16 
 218      1AD91214 
 218      29F53518 
 218      E1
 219 06a2 8686704F 		.ascii	"\206\206pOo\270C\357\012\257\357\311d{\303\311\236\356"
 219      6FB843EF 
 219      0AAFEFC9 
 219      647BC3C9 
 219      9EEE
 220 06b4 EE9E74B8 		.ascii	"\356\236t\2701\326\026i{(\234~\2603\331\220$7\207\373"
 220      31D61669 
 220      7B289C7E 
 220      B033D990 
 220      243787FB 
 221 06c8 7A33E1CE 		.ascii	"z3\341\316t\262\253o]*\234N\375\262\253\363\376pov]"
 221      74B2AB6F 
 221      5D2A9C4E 
 221      FDB2ABF3 
 221      FE706F76 
 222 06dd 673ADBD0 		.ascii	"g:\333\320Aj\372\340\274tI\";\353g\367\254\252\217\220"
 222      416AFAE0 
 222      BC744922 
 222      3BEB67F7 
 222      ACAA8F90 
ARM GAS  /tmp/ccUcytGS.s 			page 17


 223 06f1 1FBB7977 		.ascii	"\037\273yw\353\311\216\316t*\234X\227z@\357\353\312"
 223      EBC98ECE 
 223      742A9C58 
 223      977A40EF 
 223      EBCA
 224 0703 26B21BD6 		.ascii	"&\262\033\326\247z\241\3655\211\204h?\207w\327\234\326"
 224      A77AA1F5 
 224      35898468 
 224      3F8777D7 
 224      9CD6
 225 0715 EFEF4AAD 		.ascii	"\357\357J\255N%\263=\031\232\016\256\317t\366\314\345"
 225      4E25B33D 
 225      199A0EAE 
 225      CF74F6CC 
 225      E5
 226 0726 F79B3A7B 		.ascii	"\367\233:{K\017\026\360;\361T6\276\2417\233\352n\325"
 226      4B0F16F0 
 226      3BF15436 
 226      BEA1379B 
 226      EA6ED5
 227 0739 D3EBBA52 		.ascii	"\323\353\272R\231vp\315tf7Tw\030\327\010\027\351J\351"
 227      997670CD 
 227      74663754 
 227      7718D708 
 227      17E94AE9 
 228 074d 99F6541A 		.ascii	"\231\366T\032\270\376\242\232w\264,\221\015\031]Bm\221"
 228      B8FEA29A 
 228      77B42C91 
 228      0D195D42 
 228      6D91
 229 075f 21DF149D 		.ascii	"!\337\024\235z(\033\216\264\305\243q\213|\262'\223J"
 229      7A281B8E 
 229      B4C5A371 
 229      8B7CB227 
 229      934A
 230 0771 24BB9702 		.ascii	"$\273\227\002\317\320=\253\243\221\304J`\035\214\306"
 230      CFD03DAB 
 230      A391C44A 
 230      601D8CC6 
 231 0781 9B63A158 		.ascii	"\233c\241X3\330\325\315M\267\007\243\221\346XM\314\270"
 231      33D8D5CD 
 231      4DB707A3 
 231      91E6584D 
 231      CCB8
 232 0793 5A0C0FDB 		.ascii	"Z\014\017\333K\017\227\300C\351ri0\332\270\242ty\207"
 232      4B0F97C0 
 232      43E97269 
 232      30DAB8A2 
 232      747987
 233 07a6 166DB72E 		.ascii	"\026m\267.\356\014\306WFc5\361\310\012\354\244*\322"
 233      EE0CC657 
 233      466335F1 
 233      C80AECA4 
 233      2AD2
 234 07b8 BE2ADA04 		.ascii	"\276*\332\004\315\343\261\340\352\225\367\306\252\032"
 234      CDE3B1E0 
 234      EA95F7C6 
ARM GAS  /tmp/ccUcytGS.s 			page 18


 234      AA1A
 235 07c6 A3B1482C 		.ascii	"\243\261H,\020\207\022\341\347\326"
 235      108712E1 
 235      E7D6
 236 07d0 F6AA782B 		.ascii	"\366\252x+\177\030i\001\323\312M\023\230\252\266\266"
 236      7F186901 
 236      D3CA4D13 
 236      98AAB6B6 
 237 07e0 96C65870 		.ascii	"\226\306Xp\0057\215p\035ho\211\005\232\24046\305\202"
 237      05378D70 
 237      1D686F89 
 237      059AA034 
 237      36C582
 238 07f3 F02C06FC 		.ascii	"\360,\006\374\032c\000\336\030\211\005\223\035z\246"
 238      1A6300DE 
 238      18890593 
 238      1D7AA6
 239 0802 269178A0 		.ascii	"&\221x\240/\235L$\276#*\015?\271\363\256\305\377\003"
 239      2F9D4C24 
 239      BE232A0D 
 239      3FB9F3AE 
 239      C5FF03
 240 0815 1D2A5930 		.ascii	"\035*Y0"
 241              		.text
 242              		.section	.gnu.lto_.symtab.c9809740f3211f7a,"",%progbits
 243 0000 6E766963 		.ascii	"nvicEnableVector\000\000\000\000\000\000\000\000\000"
 243      456E6162 
 243      6C655665 
 243      63746F72 
 243      00000000 
 244 0019 000000A1 		.ascii	"\000\000\000\241\000\000\000nvicDisableVector\000\000"
 244      0000006E 
 244      76696344 
 244      69736162 
 244      6C655665 
 245 0033 00000000 		.ascii	"\000\000\000\000\000\000\000\000\000\000\262\000\000"
 245      00000000 
 245      0000B200 
 245      00
 246 0040 006E7669 		.ascii	"\000nvicSetSystemHandlerPriority\000\000\000\000\000"
 246      63536574 
 246      53797374 
 246      656D4861 
 246      6E646C65 
 247 0062 00000000 		.ascii	"\000\000\000\000\000\000\000\270\000\000\000nvicCle"
 247      000000B8 
 247      0000006E 
 247      76696343 
 247      6C65
 248 0074 61725065 		.ascii	"arPending\000\000\000\000\000\000\000\000\000\000\000"
 248      6E64696E 
 248      67000000 
 248      00000000 
 248      00000000 
 249 0088 00BE0000 		.ascii	"\000\276\000\000\000"
 249      00
 250              		.text
ARM GAS  /tmp/ccUcytGS.s 			page 19


 251              		.section	.gnu.lto_.opts,"",%progbits
 252 0000 272D6D63 		.ascii	"'-mcpu=cortex-m3' '-mno-thumb-interwork' '-mthumb' "
 252      70753D63 
 252      6F727465 
 252      782D6D33 
 252      2720272D 
 253 0033 272D6767 		.ascii	"'-ggdb' '-O2' '-fomit-frame-pointer' '-falign-funct"
 253      64622720 
 253      272D4F32 
 253      2720272D 
 253      666F6D69 
 254 0066 696F6E73 		.ascii	"ions=16' '-ffunction-sections' '-fdata-sections' '-"
 254      3D313627 
 254      20272D66 
 254      66756E63 
 254      74696F6E 
 255 0099 666E6F2D 		.ascii	"fno-common' '-flto'\000"
 255      636F6D6D 
 255      6F6E2720 
 255      272D666C 
 255      746F2700 
 256              		.text
 257              		.cfi_sections	.debug_frame
 258              		.section	.text.nvicEnableVector,"ax",%progbits
 259              		.align	2
 260              		.p2align 4,,15
 261              		.global	nvicEnableVector
 262              		.thumb
 263              		.thumb_func
 264              		.type	nvicEnableVector, %function
 265              	nvicEnableVector:
 266              	.LFB219:
 267              		.file 1 "../os/hal/ports/common/ARMCMx/nvic.c"
 268              		.loc 1 57 0
 269              		.cfi_startproc
 270              		@ args = 0, pretend = 0, frame = 0
 271              		@ frame_needed = 0, uses_anonymous_args = 0
 272              		@ link register save eliminated.
 273              	.LVL0:
 274              		.loc 1 65 0
 275 0000 00F01F03 		and	r3, r0, #31
 276 0004 0122     		movs	r2, #1
 277 0006 02FA03F3 		lsl	r3, r2, r3
 278 000a 4209     		lsrs	r2, r0, #5
 279 000c 9200     		lsls	r2, r2, #2
 280              		.loc 1 63 0
 281 000e 0901     		lsls	r1, r1, #4
 282              	.LVL1:
 283 0010 00F16040 		add	r0, r0, #-536870912
 284              	.LVL2:
 285 0014 02F16042 		add	r2, r2, #-536870912
 286 0018 02F56142 		add	r2, r2, #57600
 287 001c C9B2     		uxtb	r1, r1
 288 001e 00F56140 		add	r0, r0, #57600
 289              	.LVL3:
 290 0022 80F80013 		strb	r1, [r0, #768]
 291              		.loc 1 65 0
ARM GAS  /tmp/ccUcytGS.s 			page 20


 292 0026 C2F88031 		str	r3, [r2, #384]
 293              		.loc 1 66 0
 294 002a 1360     		str	r3, [r2]
 295 002c 7047     		bx	lr
 296              		.cfi_endproc
 297              	.LFE219:
 298              		.size	nvicEnableVector, .-nvicEnableVector
 299 002e 00BF     		.section	.text.nvicDisableVector,"ax",%progbits
 300              		.align	2
 301              		.p2align 4,,15
 302              		.global	nvicDisableVector
 303              		.thumb
 304              		.thumb_func
 305              		.type	nvicDisableVector, %function
 306              	nvicDisableVector:
 307              	.LFB220:
 308              		.loc 1 74 0
 309              		.cfi_startproc
 310              		@ args = 0, pretend = 0, frame = 0
 311              		@ frame_needed = 0, uses_anonymous_args = 0
 312              		@ link register save eliminated.
 313              	.LVL4:
 314 0000 10B4     		push	{r4}
 315              		.cfi_def_cfa_offset 4
 316              		.cfi_offset 4, -4
 317              		.loc 1 76 0
 318 0002 00F01F03 		and	r3, r0, #31
 319 0006 0124     		movs	r4, #1
 320 0008 9C40     		lsls	r4, r4, r3
 321 000a 4FF46143 		mov	r3, #57600
 322 000e 4109     		lsrs	r1, r0, #5
 323 0010 CEF20003 		movt	r3, 57344
 324 0014 2031     		adds	r1, r1, #32
 325              		.loc 1 80 0
 326 0016 1844     		add	r0, r0, r3
 327              	.LVL5:
 328 0018 0022     		movs	r2, #0
 329              		.loc 1 76 0
 330 001a 43F82140 		str	r4, [r3, r1, lsl #2]
 331              		.loc 1 80 0
 332 001e 80F80023 		strb	r2, [r0, #768]
 333              		.loc 1 82 0
 334 0022 5DF8044B 		ldr	r4, [sp], #4
 335 0026 7047     		bx	lr
 336              		.cfi_endproc
 337              	.LFE220:
 338              		.size	nvicDisableVector, .-nvicDisableVector
 339 0028 AFF30080 		.section	.text.nvicSetSystemHandlerPriority,"ax",%progbits
 339      AFF30080 
 340              		.align	2
 341              		.p2align 4,,15
 342              		.global	nvicSetSystemHandlerPriority
 343              		.thumb
 344              		.thumb_func
 345              		.type	nvicSetSystemHandlerPriority, %function
 346              	nvicSetSystemHandlerPriority:
 347              	.LFB221:
ARM GAS  /tmp/ccUcytGS.s 			page 21


 348              		.loc 1 90 0
 349              		.cfi_startproc
 350              		@ args = 0, pretend = 0, frame = 0
 351              		@ frame_needed = 0, uses_anonymous_args = 0
 352              		@ link register save eliminated.
 353              	.LVL6:
 354              		.loc 1 100 0
 355 0000 0901     		lsls	r1, r1, #4
 356              	.LVL7:
 357 0002 00F16040 		add	r0, r0, #-536870912
 358              	.LVL8:
 359 0006 C9B2     		uxtb	r1, r1
 360 0008 00F56D40 		add	r0, r0, #60672
 361              	.LVL9:
 362 000c 0176     		strb	r1, [r0, #24]
 363 000e 7047     		bx	lr
 364              		.cfi_endproc
 365              	.LFE221:
 366              		.size	nvicSetSystemHandlerPriority, .-nvicSetSystemHandlerPriority
 367              		.section	.text.nvicClearPending,"ax",%progbits
 368              		.align	2
 369              		.p2align 4,,15
 370              		.global	nvicClearPending
 371              		.thumb
 372              		.thumb_func
 373              		.type	nvicClearPending, %function
 374              	nvicClearPending:
 375              	.LFB222:
 376              		.loc 1 109 0
 377              		.cfi_startproc
 378              		@ args = 0, pretend = 0, frame = 0
 379              		@ frame_needed = 0, uses_anonymous_args = 0
 380              		@ link register save eliminated.
 381              	.LVL10:
 382              		.loc 1 111 0
 383 0000 00F01F03 		and	r3, r0, #31
 384 0004 0122     		movs	r2, #1
 385 0006 9A40     		lsls	r2, r2, r3
 386 0008 4009     		lsrs	r0, r0, #5
 387              	.LVL11:
 388 000a 4FF46143 		mov	r3, #57600
 389 000e 6030     		adds	r0, r0, #96
 390 0010 CEF20003 		movt	r3, 57344
 391 0014 43F82020 		str	r2, [r3, r0, lsl #2]
 392 0018 7047     		bx	lr
 393              		.cfi_endproc
 394              	.LFE222:
 395              		.size	nvicClearPending, .-nvicClearPending
 396 001a 00BFAFF3 		.text
 396      0080
 397              	.Letext0:
 398              		.file 2 "/usr/include/newlib/machine/_default_types.h"
 399              		.file 3 "/usr/include/newlib/stdint.h"
 400              		.file 4 "../os/common/ports/ARMCMx/compilers/GCC/chtypes.h"
 401              		.file 5 "../os/rt/include/chsystypes.h"
 402              		.file 6 "../os/rt/include/chschd.h"
 403              		.file 7 "../os/common/ext/CMSIS/include/core_cm3.h"
ARM GAS  /tmp/ccUcytGS.s 			page 22


 404              		.file 8 "../os/common/ports/ARMCMx/chcore.h"
 405              		.file 9 "../os/common/ports/ARMCMx/chcore_v7m.h"
 406              		.file 10 "../os/rt/include/chsem.h"
 407              		.file 11 "../os/rt/include/chmtx.h"