ARM GAS  /tmp/ccUcytGS.s 			page 1


   1              		.syntax unified
   2              		.cpu cortex-m3
   3              		.fpu softvfp
   4              		.eabi_attribute 20, 1
   5              		.eabi_attribute 21, 1
   6              		.eabi_attribute 23, 3
   7              		.eabi_attribute 24, 1
   8              		.eabi_attribute 25, 1
   9              		.eabi_attribute 26, 1
  10              		.eabi_attribute 30, 2
  11              		.eabi_attribute 34, 1
  12              		.eabi_attribute 18, 4
  13              		.thumb
  14              		.file	"nvic.c"
  15              		.text
  16              	.Ltext0:
  17              		.section	.gnu.lto_.jmpfuncs.c9809740f3211f7a,"",%progbits
  18 0000 789C6362 		.ascii	"x\234cb`b\300\006\270\2404\013\0033##\02333#\003\000"
  18      6062C006 
  18      B8A0340B 
  18      03332323 
  18      13333323 
  19 0016 01F00021 		.ascii	"\001\360\000!"
  20              		.text
  21              		.section	.gnu.lto_.inline.c9809740f3211f7a,"",%progbits
  22 0000 789C6D4C 		.ascii	"x\234mL\313\025\200 \014KK\205\352\305\021\330\300%"
  22      CB158020 
  22      0C4B4B85 
  22      EAC511D8 
  22      C025
  23 0012 5D84911C 		.ascii	"]\204\221\034\305\021LQy\036\354!}\371*\024\177\267"
  23      C5114C51 
  23      791EEC21 
  23      7DF92A14 
  23      7FB7
  24 0024 3FDF8065 		.ascii	"?\337\200e\026\025\011\022`\371\334\220[U\350\261\032"
  24      16150912 
  24      60F9DC90 
  24      5B55E8B1 
  24      1A
  25 0035 C89CAAD3 		.ascii	"\310\234\252\323\363\302TD\222\265zG\350Z\037QL&\322"
  25      F3C25444 
  25      92B57A47 
  25      E85A1F51 
  25      4C26D2
  26 0048 57127B9F 		.ascii	"W\022{\237\201PP\362[\035\346\250\342\002a/\015\002"
  26      815050F2 
  26      5B1DE6A8 
  26      E202612F 
  26      0D02
  27              		.text
  28              		.section	.gnu.lto_.pureconst.c9809740f3211f7a,"",%progbits
  29 0000 789C6362 		.ascii	"x\234cb`b\340d\200\000\026\006)F)&)f)\000\002\326\000"
  29      6062E064 
  29      80001606 
  29      29462926 
  29      29662900 
ARM GAS  /tmp/ccUcytGS.s 			page 2


  30 0017 80       		.ascii	"\200"
  31              		.text
  32              		.section	.gnu.lto_nvicEnableVector.c9809740f3211f7a,"",%progbits
  33 0000 789C9D91 		.ascii	"x\234\235\221\277K\303@\024\307\337\273k\314\217\242"
  33      BF4BC340 
  33      14C7DFBB 
  33      6BCC8FA2 
  34 0010 AE3A5914 		.ascii	"\256:Y\024\241PL\334\034\234\304\311\241K\251\240c\315"
  34      A1504CDC 
  34      1C9CC4C9 
  34      A14BA9A0 
  34      63CD
  35 0022 1003B611 		.ascii	"\020\003\266\021+\342\326\264\351\246C\007\027\253\203"
  35      2BE2D6B4 
  35      E9A64307 
  35      17AB83
  36 0031 4544107F 		.ascii	"ED\020\177\374\001\202\224n\016U\334\234\244\270\012"
  36      FC018294 
  36      6E0E55DC 
  36      9CA4B80A 
  37 0041 224E8242 		.ascii	"\"N\202B|\227\330HE\034<\270\273w\367\276\357}?\307"
  37      7C97D848 
  37      451C3CB8 
  37      BB77F7BE 
  37      EF7D3FC7 
  38 0055 3160F073 		.ascii	"1`\360s\014\323\314\320u\212v\344\200\254v\003PV\030"
  38      0CD3CCD0 
  38      758A76E4 
  38      80AC7603 
  38      505618
  39 0068 A20800A1 		.ascii	"\242\010\000\241\304\260\264\210B\212\243\320p\335Z"
  39      C4B0B488 
  39      428AA3D0 
  39      70DD5A
  40 0077 E7E8F18D 		.ascii	"\347\350\361\215\355\3564\253\007\356\207\357#\332H"
  40      EDEE34AB 
  40      07EE87EF 
  40      23DA48
  41 0086 6D930826 		.ascii	"m\223\010&\302\002\0350\021l,\326\353s\301\232\035\337"
  41      C2021D30 
  41      116C2CD6 
  41      EB73C19A 
  41      1DDF
  42 0098 DFBFAD3F 		.ascii	"\337\277\255?\014a?b^\024\331\310\271X$:\242LQL\201"
  42      0C613F62 
  42      5E14D9C8 
  42      B958243A 
  42      A24C514C 
  43 00ad 1C36C847 		.ascii	"\0346\310G\245\003h\264HT*A\225l\023 \034hdi\025l\363"
  43      A50368B4 
  43      48542A41 
  43      956C1320 
  43      1C686469 
  44 00c4 C8C4CEDB 		.ascii	"\310\304\316\333Py\362\374w\314\341!\311-d\026\222\242"
  44      5079F2FC 
  44      77CCE121 
  44      C92D6416 
ARM GAS  /tmp/ccUcytGS.s 			page 3


  44      92A2
  45 00d6 0DDE19EF 		.ascii	"\015\336\031\357^q\272\025P}\002\252\015\255\27101\001"
  45      5E71BA15 
  45      507D02AA 
  45      0DADB930 
  45      3101
  46 00e8 A76EB5EC 		.ascii	"\247n\265\354NQ\"\005'\"\034\264Q\336\203:I\025\241"
  46      4E512205 
  46      27221CB4 
  46      51DE833A 
  46      4915A1
  47 00fb 57DD96E7 		.ascii	"W\335\226\347\016\004\357Q\203W,a\370\032+\000\013#"
  47      0E04EF51 
  47      83572C61 
  47      F81A2B00 
  47      0B23
  48 010d 1E989D7B 		.ascii	"\036\230\235{\307\333\311\256\237LyQ\004R\340Wy\366"
  48      C7DBC9AE 
  48      9F4C7951 
  48      0452E057 
  48      79F6
  49 011f AE223C25 		.ascii	"\256\"<%\250\245\212\313\010O\265B;\030\201\020\334"
  49      A8A58ACB 
  49      084FB542 
  49      3B188110 
  49      DC
  50 0130 7B8DE49A 		.ascii	"{\215\344\232HH(T\001\372\365K\274\007~\332F\355\033"
  50      48482854 
  50      01FAF54B 
  50      BC077EDA 
  50      46ED1B
  51 0143 3EFE373C 		.ascii	">\3767<~!\313\021\274\0266\275\247/\375\177[\366[\333"
  51      7E21CB11 
  51      BC1636BD 
  51      A72FFD7F 
  51      5BF65BDB 
  52 0157 3B2877B6 		.ascii	";(w\266\306\302\246\335\221%\002\3722\241\037\327u\303"
  52      C6C2A6DD 
  52      912502FA 
  52      32A11FD7 
  52      75C3
  53 0169 291ACBB9 		.ascii	")\032\313\271\025c\325Y[/\032\246\223\317;\005c&\223"
  53      1563D559 
  53      5B2F1AA6 
  53      93CF3B05 
  53      632693
  54 017c 9E4D6F1A 		.ascii	"\236Mo\032\205\015\333\324M\340\005}\362\023K\233\221"
  54      850DDBD4 
  54      4DE0057D 
  54      F2134B9B 
  54      91
  55 018d B8       		.ascii	"\270"
  56              		.text
  57              		.section	.gnu.lto_nvicDisableVector.c9809740f3211f7a,"",%progbits
  58 0000 789C7D50 		.ascii	"x\234}P=K\003A\020\235\267w\247\211\202bieP\204@\360"
  58      3D4B0341 
  58      109DB777 
ARM GAS  /tmp/ccUcytGS.s 			page 4


  58      A7898262 
  58      69655084 
  59 0016 0E2B0B2B 		.ascii	"\016+\013+\261N#\021\264\214W\304\003\223\023#b\227"
  59      B14E2311 
  59      B48C57C4 
  59      03931323 
  59      6297
  60 0028 8B173B0B 		.ascii	"\213\027;\013\013\013?\032\203]\210\037`#\010\022\002"
  60      0B0B3F1A 
  60      835D881F 
  60      60230812 
  60      02
  61 0039 161611FC 		.ascii	"\026\026\021\374\007\301F\260\020\321&\205\020g.9%\026"
  61      07C146B0 
  61      10D12685 
  61      10672E39 
  61      2516
  62 004b 0EECCEEC 		.ascii	"\016\354\316\354\2747ofV\221\242\2776\312\347\036D\011"
  62      BC376F66 
  62      5691A2BF 
  62      36CAE71E 
  62      4409
  63 005d F6D0086A 		.ascii	"\366\320\010j\377\221\250\030Q\200\004\004*(\024\226"
  63      FF91A818 
  63      51800404 
  63      2A281496 
  64 006d 21548C53 		.ascii	"!T\214S\331\363\366\233\273/-utP+\235z_\3556\340\200"
  64      D9F3F69B 
  64      BB2F2D75 
  64      74502B9D 
  64      7A5FED36 
  65 0083 65E3201B 		.ascii	"e\343 \033\264\304\017\304\002\247\364\336>\227\252"
  65      B4C40FC4 
  65      02A7F4DE 
  65      3E97AA
  66 0092 D66CB7AB 		.ascii	"\326l\267\253\327W\317\025\214D\201\254T9\3204J\243"
  66      D757CF15 
  66      8C4481AC 
  66      5439D034 
  66      4AA3
  67 00a4 CCCA3A3F 		.ascii	"\314\312:?\310\340K\352\014*q\243\030\211&[\212o\231"
  67      C8E04BEA 
  67      0C2A71A3 
  67      1889265B 
  67      8A6F99
  68 00b7 66114ABC 		.ascii	"f\021J\274\326 \377\302\377\334\213\247q\006\2032P\031"
  68      D620FFC2 
  68      FFDC8BA7 
  68      71068332 
  68      5019
  69 00c9 407A721D 		.ascii	"@zr\035Q\203v\336\374;\204\230\306\230$\375[-L\351\234"
  69      518376DE 
  69      FC3B8498 
  69      C69824FD 
  69      5B2D4CE9 
  70 00de 0DE86301 		.ascii	"\015\350c\001\335?\367?~\350\206\000:\204%X\375\341"
  70      DD3FF73F 
ARM GAS  /tmp/ccUcytGS.s 			page 5


  70      7EE88600 
  70      3A842558 
  70      FDE1
  71 00f0 7DB0034D 		.ascii	"}\260\003MQ\325+\025\275Y\007F\202*\022\016;\350;\241"
  71      51D52B15 
  71      BD590746 
  71      822A120E 
  71      3BE83BA1 
  72 0104 63E6F74B 		.ascii	"c\346\367KQ\304\253\373\336P\260{$\330x\005\235\315"
  72      51C4ABFB 
  72      DE50B07B 
  72      24D87805 
  72      9DCD
  73 0116 793E0A23 		.ascii	"y>\012##\020\2759|m\241Gv\306A\364Wv\340\177Yt\305\272"
  73      2310BD39 
  73      7C6DA147 
  73      76C641F4 
  73      5776E07F 
  74 012e FA011695 		.ascii	"\372\001\026\225\340\211\212\315\312DG8\264\024\323"
  74      E0898ACD 
  74      CA444738 
  74      B414D3
  75 013d F8CF6484 		.ascii	"\370\317d\204I\323\264\334\274\265\232^\263\326\335"
  75      49D3B4DC 
  75      BCB59A5E 
  75      B3D6DD
  76 014c 8DCDBC65 		.ascii	"\215\315\274e\273\331\254\233\263\346\026\222\363\311"
  76      BBD9AC9B 
  76      B3E61692 
  76      F3C9
  77 015a 6D2BB7E5 		.ascii	"m+\267\345\330\246MZ\316\234\376\006\363\020u\254"
  77      D8A64D5A 
  77      CE9CFE06 
  77      F31075AC 
  78              		.text
  79              		.section	.gnu.lto_nvicSetSystemHandlerPriority.c9809740f3211f7a,"",%progbits
  80 0000 789C6362 		.ascii	"x\234cb`b@\007\222@\374\001\210\325\201\230\221\231"
  80      60624007 
  80      9240FC01 
  80      88D58198 
  80      9199
  81 0012 819169C2 		.ascii	"\201\221i\3029\006\206F\016&FF\020\203\201\221\241\236"
  81      39068646 
  81      0E264646 
  81      10838191 
  81      A19E
  82 0024 89B13E92 		.ascii	"\211\261>\222\021\254v=\323\201\007\377\377\257\373"
  82      11AC763D 
  82      D38107FF 
  82      FFAFFB
  83 0033 D276EC20 		.ascii	"\322v\354 \3439evF\306\\F\240\211\231\214\014\314 \202"
  83      E3396576 
  83      46C65C46 
  83      A089998C 
  83      0CCC2082 
  84 0047 15C805A9 		.ascii	"\025\310\005\251cehih\230\240\220\313\010\264,\031\254"
  84      63656869 
ARM GAS  /tmp/ccUcytGS.s 			page 6


  84      6898A090 
  84      CB08B42C 
  84      19AC
  85 0059 31044882 		.ascii	"1\004H\202L\013\005\012\001i\346\263\014M\257\2337\367"
  85      4C0B050A 
  85      0169E6B3 
  85      0C4DAF9B 
  85      37F7
  86 006b E926322E 		.ascii	"\351&2.ddeHgdJ\007i<\313\320\274\226\031&\304\014\024"
  86      64646548 
  86      67644A07 
  86      693CCBD0 
  86      BC961926 
  87 0082 8D60CC64 		.ascii	"\215`\314ddda\000\311\034\362\204H\3502\254ihil0\007"
  87      64646100 
  87      C91CF284 
  87      48E832AC 
  87      6968696C 
  88 0098 4A6833AC 		.ascii	"Jh3\254\0021y3\031\231f3\314\002*e\006\251gi\270\325"
  88      02317933 
  88      19996633 
  88      CC022A65 
  88      06A96769 
  89 00ae DCC0C700 		.ascii	"\334\300\307\000f\202\335\234\004q:\320HV\006\030\213"
  89      6682DD9C 
  89      04713AD0 
  89      48560618 
  89      8B
  90 00bf 9981E122 		.ascii	"\231\201\341\"C\343\203s\312\020Ca \004\350\012\240"
  90      43E38373 
  90      CA104361 
  90      2004E80A 
  90      A0
  91 00d0 F34061A4 		.ascii	"\363@a\244\252\247\247\237_\254\237\221\230\243_\220"
  91      AAA7A79F 
  91      5FAC9F91 
  91      98A35F90 
  92 00e0 5F5452AC 		.ascii	"_TR\254\237\234\237\233\233\237\247\357\030\344\353"
  92      9F9C9F9B 
  92      9B9FA7EF 
  92      18E4EB
  93 00ef EC5BA19F 		.ascii	"\354[\241\237W\226\231\254\227\314\000\000I|D\305"
  93      579699AC 
  93      97CC0000 
  93      497C44C5 
  94              		.text
  95              		.section	.gnu.lto_nvicClearPending.c9809740f3211f7a,"",%progbits
  96 0000 789C5D50 		.ascii	"x\234]P1H\303P\020\275\367\177\222\352\2428:Y\024\241"
  96      3148C350 
  96      10BDF77F 
  96      92EAA238 
  96      3A5914A1 
  97 0014 504CC0D5 		.ascii	"PL\300\325I\234\034\\\244\202\2165C\015\330F\254\210"
  97      499C1C5C 
  97      A4828E35 
  97      430DD846 
  97      AC88
ARM GAS  /tmp/ccUcytGS.s 			page 7


  98 0026 5B7F4D67 		.ascii	"[\177Mg\351\340\242.\0267\251\272\333\245t\257\350\356"
  98      E9E0A22E 
  98      1637A9BA 
  98      DBA574AF 
  98      E8EE
  99 0038 5004A138 		.ascii	"P\004\2418\270\272\010\361.5\005=\370\377\356\277{\367"
  99      B8BA08F1 
  99      2E35053D 
  99      F8FFEEBF 
  99      7BF7
 100 004a EEFE2952 		.ascii	"\356\376)R\364\337f\371\030\020\345\331C\023T\363\211"
 100      F4DF66F9 
 100      1810E5D9 
 100      431354F3 
 100      89
 101 005b A83EA100 		.ascii	"\250>\241\000\011\010TS\250\355@\250\230\247\2261\315"
 101      09085453 
 101      A8ED40A8 
 101      98A79631 
 101      CD
 102 006c C1FBD7B3 		.ascii	"\301\373\327\263\2768\3576\256\315w\034\003\001X6\007"
 102      BE38EF36 
 102      AECD771C 
 102      03015836 
 102      07
 103 007d F241DBFC 		.ascii	"\362A\333\374@6q\312\372\333\347Au\007q\374\332i\277"
 103      403671CA 
 103      FADBE741 
 103      750771FC 
 103      DA69BF
 104 0090 0D313309 		.ascii	"\01513\011\224\245*\200\326TD\213\225-~\220-\227#0W"
 104      94A52A80 
 104      D654448B 
 104      952D7E90 
 104      2D972330 
 105 00a5 D8D4E06E 		.ascii	"\330\324\340nY\022a\266\002\3372\322\026\224x\335\247"
 105      591261B6 
 105      02DF32D2 
 105      169478DD 
 105      A7
 106 00b6 E83E8ACF 		.ascii	"\350>\212\317rE\334\300\246\022T\011\220\306\\G\324"
 106      7245DCC0 
 106      A6125409 
 106      90C65C47 
 106      D4
 107 00c7 A7D3CFE8 		.ascii	"\247\323\317\350\003iNsN\300\250\243S\310b4\241\317"
 107      03694E73 
 107      4EC0A8A3 
 107      53C86234 
 107      A1CF
 108 00d9 25F4E86E 		.ascii	"%\364\350n\234\261\023\030\302\371\025z\034\0139\234"
 108      9CB11318 
 108      C2F9157A 
 108      1C0B399C 
 109 00e9 16B0B73E 		.ascii	"\026\260\267>B\226\250m\032u\263\022\300\312\323\255"
 109      4296A86D 
 109      1A75B312 
ARM GAS  /tmp/ccUcytGS.s 			page 8


 109      C0CAD3AD 
 110 00f9 84D301EC 		.ascii	"\204\323\001\354+\272d\011Gt2\246\027\231\251d#\231"
 110      2BBA6409 
 110      477432A6 
 110      1799A964 
 110      2399
 111 010b 640FBB18 		.ascii	"d\017\273\030\355\203\007\2464r\210^\250>\030.\214D"
 111      ED8307A6 
 111      3472885E 
 111      A83E182E 
 111      8C44
 112 011d 532BF0D0 		.ascii	"S+\360\320\374S\341-\272\256\027V\275\275\342\276w\020"
 112      FC53E12D 
 112      BAAE1756 
 112      BDBDE2BE 
 112      7710
 113 012f 1E1E553D 		.ascii	"\036\036U=?,\227\303\212\267\272\271\261\266q\342U\216"
 113      3F2C97C3 
 113      8AB7BAB9 
 113      B1B671E2 
 113      558E
 114 0141 03DFF549 		.ascii	"\003\337\365IW\334\345\037\032\336e\232"
 114      57DCE51F 
 114      1ADE659A 
 115              		.text
 116              		.section	.gnu.lto_.symbol_nodes.c9809740f3211f7a,"",%progbits
 117 0000 789C6362 		.ascii	"x\234cb`b\260c\200\002\246\333\214\365\014\014\023\316"
 117      6062B063 
 117      8002A6DB 
 117      8CF50C0C 
 117      13CE
 118 0012 3130D4D7 		.ascii	"10\324\327\317\353`d\272\303X\317\210\304\275\313X\317"
 118      CFEB6064 
 118      BAC358CF 
 118      88C4BDCB 
 118      58CF
 119 0024 84C4BDC7 		.ascii	"\204\304\275\307X\317\214\3402\000\000q\306\023\317"
 119      58CF8CE0 
 119      32000071 
 119      C613CF
 120              		.text
 121              		.section	.gnu.lto_.refs.c9809740f3211f7a,"",%progbits
 122 0000 789C6362 		.ascii	"x\234cb`b`d\200\002\000\000F\000\006"
 122      60626064 
 122      80020000 
 122      460006
 123              		.text
 124              		.section	.gnu.lto_.decls.c9809740f3211f7a,"",%progbits
 125 0000 789CAD59 		.ascii	"x\234\255Yml\024\307\031\236\331;c_p\035\210\362\001"
 125      6D6C14C7 
 125      199ED93B 
 125      635F701D 
 125      88F201
 126 0013 15114ED5 		.ascii	"\025\021N\325\244\025j}\001\222\226\374\2110g\273\276"
 126      A4156A7D 
 126      019296FC 
 126      893067BB 
ARM GAS  /tmp/ccUcytGS.s 			page 9


 126      BE
 127 0024 1F4EAC3B 		.ascii	"\037N\254;@U\370ql\216Km\311>\243\3639\015\377\3065"
 127      4055F871 
 127      6C8E4B6D 
 127      C93EA3F3 
 127      390DFFC6 
 128 0039 A4B405C5 		.ascii	"\244\264\005\305`h\\H\25531\241($\001\002\226M\0119"
 128      60685C48 
 128      AD3331A1 
 128      28240102 
 128      964D0939 
 129 004d 912FF251 		.ascii	"\221/\362Q\205@>\\\\\322k\2424M\252\224\2404$H\204\353"
 129      85403E5C 
 129      5CD26BA2 
 129      344DAA94 
 129      A0342448 
 130 0063 3BEFEEEC 		.ascii	";\357\356\354\315\356\355\234w\243\2564\357\316\356"
 130      CDEEED9C 
 130      77A3AE34 
 130      EFCEEE
 131 0072 BEF3CCF3 		.ascii	"\276\363\314\363\274\363\261\357\355iD#[(!E8\272\277"
 131      BCF3B1EF 
 131      ED694423 
 131      5B282145 
 131      38BABF
 132 0085 4BC87C8D 		.ascii	"K\310|\215\220*B\310\335\244t\004\241\214B9\014e\002"
 132      902A42C8 
 132      DDA47404 
 132      A18C4239 
 132      0C6502
 133 0098 CA09527E 		.ascii	"\312\011R~\360\347\265\246o\235Y\007XRM\014\274\223"
 133      F0E7B5A6 
 133      6F9D5907 
 133      58524D0C 
 133      BC93
 134 00aa 505E85F2 		.ascii	"P^\205\362\006\224/\241\234\205r\006J\000\312gP>\204"
 134      06942FA1 
 134      9C857206 
 134      4A00CA67 
 134      503E84
 135 00bd F296D986 		.ascii	"\362\226\331\206c\001\015\362\014\224\247\034\375p\016"
 135      63010DF2 
 135      0C94A71C 
 135      FD700E
 136 00cc B31DFD88 		.ascii	"\263\035\375\210>\004\246\350C\364\311\261\246\315~"
 136      3E04A6E8 
 136      43F4C9B1 
 136      A6CD7E
 137 00db A889C1CF 		.ascii	"\250\211\301\317\343\016\354\011\023\207\232m/A\271"
 137      E30EEC09 
 137      13879A6D 
 137      2F41B9
 138 00ea 0C653135 		.ascii	"\014e15\356\3156\317\023&\357\343P\216AYB\3558<>5.\034"
 138      EECD36CF 
 138      1326EFE3 
 138      508E4159 
 138      42ED383C 
ARM GAS  /tmp/ccUcytGS.s 			page 10


 139 0102 9DFCA8A9 		.ascii	"\235\374\250\251\233\232m\3709\357\340\264\220\214\260"
 139      9B9A6DF8 
 139      39EFE0B4 
 139      908CB0
 140 0111 5CA1B077 		.ascii	"\\\241\260w\344u\312\266\263+\305b\200\334Hv28r\017"
 140      E475CAB6 
 140      B32BC562 
 140      80DC4876 
 140      3238720F 
 141 0125 3346B33A 		.ascii	"3F\263:\275\373\006\362s\252\323\272\020\251\307Jm\010"
 141      BDFB06F2 
 141      73AAD3BA 
 141      10A9C74A 
 141      6D08
 142 0137 3B2644A7 		.ascii	";&D\247{\350\215X\013`\010H\210lf\354W\274a\353)\340"
 142      7BE88D58 
 142      0B600848 
 142      886C66EC 
 142      57BC61EB 
 143 014d E5D6EA56 		.ascii	"\345\326\352V2\306\330`\341\320\376-?b\254F\247c4\004"
 143      32C6D860 
 143      E1D0FE2D 
 143      3F62AC46 
 143      A7633404 
 144 0161 6D5B2859 		.ascii	"m[(YD\366C\237\203\214}\360\003\207Z\342\017\372\374"
 144      44F6439F 
 144      838C7DF0 
 144      03875AE2 
 144      0FFAFC
 145 0174 C3C7EF42 		.ascii	"\303\307\357B\350?!\364FJ\201\350>\272\310\004\322i"
 145      E83F21F4 
 145      464A81E8 
 145      3EBAC804 
 145      D269
 146 0186 754806C6 		.ascii	"uH\006\306k\341\300\321\360\261Y\341\223\366Z\342\327"
 146      6BE1C0D1 
 146      F0B159E1 
 146      93F65AE2 
 146      D7
 147 0197 DD8C8621 		.ascii	"\335\214\206!\016+\253\002\026\200F\036q0\372>y\234"
 147      0E2BAB02 
 147      1680461E 
 147      7130FA3E 
 147      799C
 148 01a9 B1ED3002 		.ascii	"\261\3550\002c\363YN\023!\311\241\327(]\350\252\325"
 148      63F3594E 
 148      1321C9A1 
 148      D7285DE8 
 148      AAD5
 149 01bb C4369AB2 		.ascii	"\3046\232\262\311T\253h\266\307K3Bn#{\371\020oe\233"
 149      C954AB68 
 149      B6C74B33 
 149      426E237B 
 149      F9106F65 
 150 01d0 E6501C61 		.ascii	"\346P\034ab\266\262I=@\265\362\251\222?\362r\355`\177"
 150      62B6B249 
 150      3D40B5F2 
ARM GAS  /tmp/ccUcytGS.s 			page 11


 150      A9923FF2 
 150      72ED607F 
 151 01e4 A1585CE8 		.ascii	"\241X\\\350}\236<k\237'\006\015GX\366\271\206\205\015"
 151      7D9E3C6B 
 151      9F27060D 
 151      4758F6B9 
 151      86850D
 152 01f7 096D3A7D 		.ascii	"\011m:}\032\350\350\364\360\267\322v\330\251\355\250"
 152      1AE8E8F4 
 152      F0B7D276 
 152      D8A9EDA8 
 153 0207 ABB6FF0A 		.ascii	"\253\266\377\012m\306\334\326\310\244;+)\342\357\242"
 153      6DC6DCD6 
 153      C8A43B2B 
 153      29E2EFA2 
 154 0217 C784A781 		.ascii	"\307\204\247\201\372\246$\346 \212\231\241\231B\314"
 154      FAA624E6 
 154      208A99A1 
 154      9942CC
 155 0226 8453CCA4 		.ascii	"\204S\314\244\253\230c\257Xb\236E1\357\273\213\331\346"
 155      AB9863AF 
 155      58629E45 
 155      31EFBB8B 
 155      D9E6
 156 0238 0CF1896F 		.ascii	"\014\361\211o\305\352\204\223\325\363vV\270\204\007"
 156      C5EA8493 
 156      D5F37656 
 156      B88407
 157 0247 58612F9B 		.ascii	"Xa/\2337\\Z\3025\242\003\276\352\305\356\360\3119\015"
 157      375C5AC2 
 157      35A203BE 
 157      EAC5EEF0 
 157      C9390D
 158 025a 96B0B9E6 		.ascii	"\226\260\271\346+5\320\351\013\364V\260\324\276(i\250"
 158      2B35D0E9 
 158      0BF456B0 
 158      D4BE2869 
 158      A8
 159 026b 5429523E 		.ascii	"T)R>\273.8\244{\300\266\366\223\221e\270\237\274\214"
 159      BB2E38A4 
 159      7BC0B6F6 
 159      939165B8 
 159      9FBC8C
 160 027e C3FD55D9 		.ascii	"\303\375U\331~B\035\373\311\014\\\374\370\316%\203<"
 160      7E421DFB 
 160      C90C5CFC 
 160      F8CE2583 
 160      3C
 161 028f CEF5C375 		.ascii	"\316\365\303u:=\011\367L\232\354Z\301\363s\003P\366"
 161      3A3D09F7 
 161      4C9AEC5A 
 161      C1F37303 
 161      50F6
 162 02a1 7BB1829F 		.ascii	"{\261\202\237N_\243sK\372\231\271\237\242\213j\355\276"
 162      4E5FA373 
 162      4BFA99B9 
 162      9FA28B6A 
ARM GAS  /tmp/ccUcytGS.s 			page 12


 162      EDBE
 163 02b3 6EEA336F 		.ascii	"n\3523o[\225\013\324\246D\270\221\353\3106\344\"m\323"
 163      5B950BD4 
 163      A644B891 
 163      EBC836E4 
 163      226DD3
 164 02c6 B90215AD 		.ascii	"\271\002\025\2556.(Evh\373\233-\030\3317\350u\020\331"
 164      362E2845 
 164      7668FB9B 
 164      2D18D937 
 164      E87510D9 
 165 02da 039A3DB2 		.ascii	"\003\232=\262\036\200x\307oBc\243\031\302\262|\361\275"
 165      1E8078C7 
 165      6F4263A3 
 165      19C2B27C 
 165      F1BD
 166 02ec 5A1634EE 		.ascii	"Z\0264\356\023\033\240\355\270\205\344\330\306\376\374"
 166      131BA0ED 
 166      B885E4D8 
 166      C6FEFC
 167 02fb D0AE9D94 		.ascii	"\320\256\235\224\345NR\021\301Su\3464\255\364\246\321"
 167      E54E5211 
 167      C15375E6 
 167      34ADF4A6 
 167      D1
 168 030c E95E9C75 		.ascii	"\351^\234u3\277\012\304@h\242y\275m\274x\350\307\244"
 168      33BF0AC4 
 168      4068A279 
 168      BD6DBC78 
 168      E8C7A4
 169 031f F172B8E9 		.ascii	"\361r\270\351\364m\337\303\365\216b\270\252m\243%\274"
 169      F46DDFC3 
 169      F58E62B8 
 169      AA6DA325 
 169      BC
 170 0330 20ECE318 		.ascii	" \354\343\030v\036-W\026\026\216\000\255\263\246;\017"
 170      761E2D57 
 170      16168E00 
 170      ADB3A63B 
 170      0F
 171 0341 21C47BC7 		.ascii	"!\304{\307}\203\272J\320,\321~\255\331\361\224oA\177"
 171      7D83BA4A 
 171      D02CD17E 
 171      ADD9F194 
 171      6F417F
 172 0354 5508BA89 		.ascii	"U\010\272\211\010\005\177.S`\353\326\026\322r\0050\011"
 172      08057F2E 
 172      5360EBD6 
 172      16D27205 
 172      3009
 173 0366 7E0F0A74 		.ascii	"~\017\012tz\006\250i\344%O\341`T\035\217aD\233B\264"
 173      7A06A869 
 173      E4254FE1 
 173      60541D8F 
 173      61449B42 
 174 037b D73C51CB 		.ascii	"\327<Q\313\251\320\200\333.\211\333Yo\33445\267\307"
 174      A9D080DB 
ARM GAS  /tmp/ccUcytGS.s 			page 13


 174      2E89DB59 
 174      6FDC3435 
 174      B7C7
 175 038d 246E53DE 		.ascii	"$nS\336\270\251\320\200\333\210\304\355\003o\334\002"
 175      B8A9D080 
 175      DB88C4ED 
 175      036FDC02 
 176 039d 6A6E0725 		.ascii	"jn\007%n\037{\343\246B\003n\207%n\027\275q\013\252\271"
 176      6E1F7BE3 
 176      A642036E 
 176      87256E17 
 176      BD710BAA 
 177 03b2 1DA930C7 		.ascii	"\035\2510\307\353\004@Al\262\237\372\236\344\377VL\362"
 177      EB044041 
 177      6CB29FFA 
 177      9EE4FF56 
 177      4CF2
 178 03c4 9F5A93FC 		.ascii	"\237Z\223\374R\231\006{\277\"$*\021\020\222\361\373"
 178      5299067B 
 178      BF22242A 
 178      111092F1 
 178      FB
 179 03d5 0EAED5E9 		.ascii	"\016\256\325\351\253\030\022\026p\302\331\337\025\""
 179      AB181216 
 179      70C2D9DF 
 179      1522
 180 03e3 26B3D431 		.ascii	"&\263\3241\231\250\020\223Qk\237\036\274\336\224\370"
 180      99A81093 
 180      516B9F1E 
 180      BCDE94F8 
 181 03f3 B9EFA05C 		.ascii	"\271\357\240\\T\004e\240\312\212\312@\231\014G\317B"
 181      540465A0 
 181      CA8ACA40 
 181      990C47CF 
 181      42
 182 0404 53B52A2C 		.ascii	"S\265*,\003\371c\347j\371T9\213\257\367\255N@\033+\021"
 182      03F963E7 
 182      6AF95439 
 182      8BAFF7AD 
 182      4E401B2B 
 183 0419 95052E68 		.ascii	"\225\005.hn\207\374v\322\351i|i\274Eo\001\373\036\332"
 183      6E87FC76 
 183      D2E9697C 
 183      69BC456F 
 183      01FB1EDA 
 184 042d 69B4E7D1 		.ascii	"i\264\347\321\376\035\355?\320~\210\366#\264\037\243"
 184      FE1DED3F 
 184      D07E88F6 
 184      23B41FA3 
 185 043d FD04ED67 		.ascii	"\375\004\355gh/\240\375\002\254u\314&\277-\375<2^\250"
 185      682FA0FD 
 185      02AC75CC 
 185      26BF2DFD 
 185      3C325EA8 
 186 0451 AAA87E49 		.ascii	"\252\250~Ig\213V\212\364b\255hR[\346\365\242\322K\247"
 186      678B568A 
 186      F462AD68 
ARM GAS  /tmp/ccUcytGS.s 			page 14


 186      525BE6F5 
 186      A2D24BA7 
 187 0465 5FF91EE0 		.ascii	"_\371\036\340\257\025\003l\021\264y\271%\004\005+c\333"
 187      AF15036C 
 187      11B479B9 
 187      2504052B 
 187      63DB
 188 0477 524AD9F2 		.ascii	"RJ\331\362\027\247i\275N/cV\261=0cV\341\000\341}^q&"
 188      17A769BD 
 188      4E2F6356 
 188      B13D3063 
 188      56E100E1 
 189 048f 1543D398 		.ascii	"\025C\323\230T\\\2319\251\3301\220\177t\367\316\371"
 189      545C9939 
 189      A9D83190 
 189      7F74F7CE 
 189      F9
 190 04a0 3CA9B052 		.ascii	"<\251\260R\211\374\377!\225\320\310n\224r\245\362\334"
 190      89FCFF21 
 190      95D0C86E 
 190      9472A5F2 
 190      DC
 191 04b1 24EA893E 		.ascii	"$\352\211><-M\364Q\337`\3656\260]2\330\023^\300j\324"
 191      3C2D4DF4 
 191      51DF60F5 
 191      36B05D32 
 191      D8135EC0 
 192 04c7 CC1E93C1 		.ascii	"\314\036\223\301\236\364\015fg6\"\203\035\362\0026G"
 192      9EF40D66 
 192      67362283 
 192      1DF20236 
 192      47
 193 04d8 CDECA00C 		.ascii	"\315\354\240\014v\3247\230\314\014\336Ik\370\006|\011"
 193      76D43798 
 193      CC0CDE49 
 193      6BF8067C 
 193      09
 194 04e9 37E04927 		.ascii	"7\340I'\226m=\231\325yjbGdb\317y!V\257\016\331\270\014"
 194      966D3D99 
 194      D5796A62 
 194      476462CF 
 194      792156AF 
 195 0501 F68217B0 		.ascii	"\366\202\027\260\037\252\231M\310`\247|\203\331\231"
 195      1FAA994D 
 195      C860A77C 
 195      83D999
 196 0510 1D93C1FE 		.ascii	"\035\223\301\376\342\005\354v5\263\3432\330\031\337"
 196      E205EC76 
 196      35B3E332 
 196      D819DF
 197 051f 60766627 		.ascii	"`vf'd\260)/`\313\324\314N\313`\347}\203I\314v\364\347"
 197      64B0292F 
 197      60CBD4CC 
 197      4ECB60E7 
 197      7D8349CC 
 198 0536 CFACB15E 		.ascii	"\317\254\261^\314\271\345|\013.\226v\355\345\366\005"
 198      CCB9E57C 
ARM GAS  /tmp/ccUcytGS.s 			page 15


 198      0B2E9676 
 198      EDE5F605 
 199 0546 64731B53 		.ascii	"ds\033S\272\351\364\217\232\337\315}Ds\337\334\355?"
 199      BAE9F48F 
 199      9ADFCD7D 
 199      4473DFDC 
 199      ED3F
 200 0558 1B8517CF 		.ascii	"\033\205\027\317 \235\262m$\314\352rE\014a\327}\333"
 200      209DB26D 
 200      24CCEA72 
 200      450C61D7 
 200      7DDB
 201 056a 88611163 		.ascii	"\210a\021c\370O/1lU\203\275+\203}\352\033\314> Sk\354"
 201      F84F2F31 
 201      6C5583BD 
 201      2B837DEA 
 201      1BCC3E20 
 202 0581 9992341E 		.ascii	"\231\2224\036\314JW\346\310\003R\226P9\334t\372\204"
 202      CC4A57E6 
 202      C8035296 
 202      5039DC74 
 202      FA84
 203 0593 EF01D9A7 		.ascii	"\357\001\331\247\030\220\322G8\331\013d\377\307)\333"
 203      1890D247 
 203      38D90B64 
 203      FFC729DB 
 204 05a3 CEC2ACB6 		.ascii	"\316\302\254\266\253\202\330\237?\247\326\235\263\240"
 204      AB82D89F 
 204      3FA7D69D 
 204      B3A0
 205 05b1 AEAFA4DB 		.ascii	"\256\257\244\333\351\246\323'}\353>\240\320\035\264"
 205      E9A6D327 
 205      7DEB3EA0 
 205      D01DB4
 206 05c0 E93E50D2 		.ascii	"\351>P\322\375\205S\267\235\205Y]\253\320\015\311\302"
 206      FD8553B7 
 206      9D85595D 
 206      ABD00DC9 
 206      C2
 207 05d1 DFD6F0B9 		.ascii	"\337\326\360\271\303\231\352\364\034~Q\233\011l\275"
 207      C399EAF4 
 207      1C7E519B 
 207      096CBD
 208 05e0 62F2C0D6 		.ascii	"b\362\300\326\360\276\2745|\355e&nv\3739\351v\310y\216"
 208      F0BEBC35 
 208      7CED6526 
 208      6E76FB39 
 208      E976C879 
 209 05f5 4EBFC144 		.ascii	"N\277\301D\344*&\227\375\032\267\003h7\241\3755\332"
 209      E42A2697 
 209      FD1AB703 
 209      6837A1FD 
 209      35DA
 210 0607 DFA0FD1D 		.ascii	"\337\240\375\035\332\255h\037A\273\015\355\020\332\235"
 210      DAAD681F 
 210      41BB0DED 
 210      10DA9D
ARM GAS  /tmp/ccUcytGS.s 			page 16


 211 0616 681F45FB 		.ascii	"h\037E\373\007\264\273\321\346\320\356A;\206v?\332\247"
 211      07B4BBD1 
 211      E6D0EE41 
 211      3B86763F 
 211      DAA7
 212 0628 D13EA3A9 		.ascii	"\321>\243\251\323\331\313\025\322\331C\232\225-~\217"
 212      D3D9CB15 
 212      D2D9439A 
 212      952D7E8F 
 213 0638 8CB2D3A7 		.ascii	"\214\262\323\247\013\233.\014\323\315\0056\310\256\026"
 213      0B9B2E0C 
 213      D3CD0536 
 213      C8AE16
 214 0647 8BB494BC 		.ascii	"\213\264\224\274Z_\374\362\225\277\370\361\377 4\351"
 214      5A5FFCF2 
 214      95BFF8F1 
 214      FF2034E9 
 215 0657 F3E03C77 		.ascii	"\363\340<w_\235\036\325x\274\306\245\331e\324E\315\370"
 215      5F9D1ED5 
 215      78BCC6A5 
 215      D965D445 
 215      CDF8
 216 0669 F07835E0 		.ascii	"\360x5\340\366w\006\002Tnjv\372/k\272\334l[(<\033\347"
 216      F6770602 
 216      546E6A76 
 216      FA2F6BBA 
 216      DC6C5B28 
 217 0680 AE0A379D 		.ascii	"\256\0127\235N\370^(\223\212\205\262\300\306z\262\264"
 217      4EF85E28 
 217      938A85B2 
 217      C0C67AB2 
 217      B4
 218 0691 5006828E 		.ascii	"P\006\202\216O\337N\026\032\331\022\024)\3655\030\341"
 218      4FDF4E16 
 218      1AD91214 
 218      29F53518 
 218      E1
 219 06a2 8686704F 		.ascii	"\206\206pOo\270C\357\012\257\357\311d{\303\311\236\356"
 219      6FB843EF 
 219      0AAFEFC9 
 219      647BC3C9 
 219      9EEE
 220 06b4 EE9E74B8 		.ascii	"\356\236t\2701\326\026i{(\234~\2603\331\220$7\207\373"
 220      31D61669 
 220      7B289C7E 
 220      B033D990 
 220      243787FB 
 221 06c8 7A33E1CE 		.ascii	"z3\341\316t\262\253o]*\234N\375\262\253\363\376pov]"
 221      74B2AB6F 
 221      5D2A9C4E 
 221      FDB2ABF3 
 221      FE706F76 
 222 06dd 673ADBD0 		.ascii	"g:\333\320Aj\372\340\274tI\";\353g\367\254\252\217\220"
 222      416AFAE0 
 222      BC744922 
 222      3BEB67F7 
 222      ACAA8F90 
ARM GAS  /tmp/ccUcytGS.s 			page 17


 223 06f1 1FBB7977 		.ascii	"\037\273yw\353\311\216\316t*\234X\227z@\357\353\312"
 223      EBC98ECE 
 223      742A9C58 
 223      977A40EF 
 223      EBCA
 224 0703 26B21BD6 		.ascii	"&\262\033\326\247z\241\3655\211\204h?\207w\327\234\326"
 224      A77AA1F5 
 224      35898468 
 224      3F8777D7 
 224      9CD6
 225 0715 EFEF4AAD 		.ascii	"\357\357J\255N%\263=\031\232\016\256\317t\366\314\345"
 225      4E25B33D 
 225      199A0EAE 
 225      CF74F6CC 
 225      E5
 226 0726 F79B3A7B 		.ascii	"\367\233:{K\017\026\360;\361T6\276\2417\233\352n\325"
 226      4B0F16F0 
 226      3BF15436 
 226      BEA1379B 
 226      EA6ED5
 227 0739 D3EBBA52 		.ascii	"\323\353\272R\231vp\315tf7Tw\030\327\010\027\351J\351"
 227      997670CD 
 227      74663754 
 227      7718D708 
 227      17E94AE9 
 228 074d 99F6541A 		.ascii	"\231\366T\032\270\376\242\232w\264,\221\015\031]Bm\221"
 228      B8FEA29A 
 228      77B42C91 
 228      0D195D42 
 228      6D91
 229 075f 21DF149D 		.ascii	"!\337\024\235z(\033\216\264\305\243q\213|\262'\223J"
 229      7A281B8E 
 229      B4C5A371 
 229      8B7CB227 
 229      934A
 230 0771 24BB9702 		.ascii	"$\273\227\002\317\320=\253\243\221\304J`\035\214\306"
 230      CFD03DAB 
 230      A391C44A 
 230      601D8CC6 
 231 0781 9B63A158 		.ascii	"\233c\241X3\330\325\315M\267\007\243\221\346XM\314\270"
 231      33D8D5CD 
 231      4DB707A3 
 231      91E6584D 
 231      CCB8
 232 0793 5A0C0FDB 		.ascii	"Z\014\017\333K\017\227\300C\351ri0\332\270\242ty\207"
 232      4B0F97C0 
 232      43E97269 
 232      30DAB8A2 
 232      747987
 233 07a6 166DB72E 		.ascii	"\026m\267.\356\014\306WFc5\361\310\012\354\244*\322"
 233      EE0CC657 
 233      466335F1 
 233      C80AECA4 
 233      2AD2
 234 07b8 BE2ADA04 		.ascii	"\276*\332\004\315\343\261\340\352\225\367\306\252\032"
 234      CDE3B1E0 
 234      EA95F7C6 
ARM GAS  /tmp/ccUcytGS.s 			page 18


 234      AA1A
 235 07c6 A3B1482C 		.ascii	"\243\261H,\020\207\022\341\347\326"
 235      108712E1 
 235      E7D6
 236 07d0 F6AA782B 		.ascii	"\366\252x+\177\030i\001\323\312M\023\230\252\266\266"
 236      7F186901 
 236      D3CA4D13 
 236      98AAB6B6 
 237 07e0 96C65870 		.ascii	"\226\306Xp\0057\215p\035ho\211\005\232\24046\305\202"
 237      05378D70 
 237      1D686F89 
 237      059AA034 
 237      36C582
 238 07f3 F02C06FC 		.ascii	"\360,\006\374\032c\000\336\030\211\005\223\035z\246"
 238      1A6300DE 
 238      18890593 
 238      1D7AA6
 239 0802 269178A0 		.ascii	"&\221x\240/\235L$\276#*\015?\271\363\256\305\377\003"
 239      2F9D4C24 
 239      BE232A0D 
 239      3FB9F3AE 
 239      C5FF03
 240 0815 1D2A5930 		.ascii	"\035*Y0"
 241              		.text
 242              		.section	.gnu.lto_.symtab.c9809740f3211f7a,"",%progbits
 243 0000 6E766963 		.ascii	"nvicEnableVector\000\000\000\000\000\000\000\000\000"
 243      456E6162 
 243      6C655665 
 243      63746F72 
 243      00000000 
 244 0019 000000A1 		.ascii	"\000\000\000\241\000\000\000nvicDisableVector\000\000"
 244      0000006E 
 244      76696344 
 244      69736162 
 244      6C655665 
 245 0033 00000000 		.ascii	"\000\000\000\000\000\000\000\000\000\000\262\000\000"
 245      00000000 
 245      0000B200 
 245      00
 246 0040 006E7669 		.ascii	"\000nvicSetSystemHandlerPriority\000\000\000\000\000"
 246      63536574 
 246      53797374 
 246      656D4861 
 246      6E646C65 
 247 0062 00000000 		.ascii	"\000\000\000\000\000\000\000\270\000\000\000nvicCle"
 247      000000B8 
 247      0000006E 
 247      76696343 
 247      6C65
 248 0074 61725065 		.ascii	"arPending\000\000\000\000\000\000\000\000\000\000\000"
 248      6E64696E 
 248      67000000 
 248      00000000 
 248      00000000 
 249 0088 00BE0000 		.ascii	"\000\276\000\000\000"
 249      00
 250              		.text
ARM GAS  /tmp/ccUcytGS.s 			page 19


 251              		.section	.gnu.lto_.opts,"",%progbits
 252 0000 272D6D63 		.ascii	"'-mcpu=cortex-m3' '-mno-thumb-interwork' '-mthumb' "
 252      70753D63 
 252      6F727465 
 252      782D6D33 
 252      2720272D 
 253 0033 272D6767 		.ascii	"'-ggdb' '-O2' '-fomit-frame-pointer' '-falign-funct"
 253      64622720 
 253      272D4F32 
 253      2720272D 
 253      666F6D69 
 254 0066 696F6E73 		.ascii	"ions=16' '-ffunction-sections' '-fdata-sections' '-"
 254      3D313627 
 254      20272D66 
 254      66756E63 
 254      74696F6E 
 255 0099 666E6F2D 		.ascii	"fno-common' '-flto'\000"
 255      636F6D6D 
 255      6F6E2720 
 255      272D666C 
 255      746F2700 
 256              		.text
 257              		.cfi_sections	.debug_frame
 258              		.section	.text.nvicEnableVector,"ax",%progbits
 259              		.align	2
 260              		.p2align 4,,15
 261              		.global	nvicEnableVector
 262              		.thumb
 263              		.thumb_func
 264              		.type	nvicEnableVector, %function
 265              	nvicEnableVector:
 266              	.LFB219:
 267              		.file 1 "../os/hal/ports/common/ARMCMx/nvic.c"
 268              		.loc 1 57 0
 269              		.cfi_startproc
 270              		@ args = 0, pretend = 0, frame = 0
 271              		@ frame_needed = 0, uses_anonymous_args = 0
 272              		@ link register save eliminated.
 273              	.LVL0:
 274              		.loc 1 65 0
 275 0000 00F01F03 		and	r3, r0, #31
 276 0004 0122     		movs	r2, #1
 277 0006 02FA03F3 		lsl	r3, r2, r3
 278 000a 4209     		lsrs	r2, r0, #5
 279 000c 9200     		lsls	r2, r2, #2
 280              		.loc 1 63 0
 281 000e 0901     		lsls	r1, r1, #4
 282              	.LVL1:
 283 0010 00F16040 		add	r0, r0, #-536870912
 284              	.LVL2:
 285 0014 02F16042 		add	r2, r2, #-536870912
 286 0018 02F56142 		add	r2, r2, #57600
 287 001c C9B2     		uxtb	r1, r1
 288 001e 00F56140 		add	r0, r0, #57600
 289              	.LVL3:
 290 0022 80F80013 		strb	r1, [r0, #768]
 291              		.loc 1 65 0
ARM GAS  /tmp/ccUcytGS.s 			page 20


 292 0026 C2F88031 		str	r3, [r2, #384]
 293              		.loc 1 66 0
 294 002a 1360     		str	r3, [r2]
 295 002c 7047     		bx	lr
 296              		.cfi_endproc
 297              	.LFE219:
 298              		.size	nvicEnableVector, .-nvicEnableVector
 299 002e 00BF     		.section	.text.nvicDisableVector,"ax",%progbits
 300              		.align	2
 301              		.p2align 4,,15
 302              		.global	nvicDisableVector
 303              		.thumb
 304              		.thumb_func
 305              		.type	nvicDisableVector, %function
 306              	nvicDisableVector:
 307              	.LFB220:
 308              		.loc 1 74 0
 309              		.cfi_startproc
 310              		@ args = 0, pretend = 0, frame = 0
 311              		@ frame_needed = 0, uses_anonymous_args = 0
 312              		@ link register save eliminated.
 313              	.LVL4:
 314 0000 10B4     		push	{r4}
 315              		.cfi_def_cfa_offset 4
 316              		.cfi_offset 4, -4
 317              		.loc 1 76 0
 318 0002 00F01F03 		and	r3, r0, #31
 319 0006 0124     		movs	r4, #1
 320 0008 9C40     		lsls	r4, r4, r3
 321 000a 4FF46143 		mov	r3, #57600
 322 000e 4109     		lsrs	r1, r0, #5
 323 0010 CEF20003 		movt	r3, 57344
 324 0014 2031     		adds	r1, r1, #32
 325              		.loc 1 80 0
 326 0016 1844     		add	r0, r0, r3
 327              	.LVL5:
 328 0018 0022     		movs	r2, #0
 329              		.loc 1 76 0
 330 001a 43F82140 		str	r4, [r3, r1, lsl #2]
 331              		.loc 1 80 0
 332 001e 80F80023 		strb	r2, [r0, #768]
 333              		.loc 1 82 0
 334 0022 5DF8044B 		ldr	r4, [sp], #4
 335 0026 7047     		bx	lr
 336              		.cfi_endproc
 337              	.LFE220:
 338              		.size	nvicDisableVector, .-nvicDisableVector
 339 0028 AFF30080 		.section	.text.nvicSetSystemHandlerPriority,"ax",%progbits
 339      AFF30080 
 340              		.align	2
 341              		.p2align 4,,15
 342              		.global	nvicSetSystemHandlerPriority
 343              		.thumb
 344              		.thumb_func
 345              		.type	nvicSetSystemHandlerPriority, %function
 346              	nvicSetSystemHandlerPriority:
 347              	.LFB221:
ARM GAS  /tmp/ccUcytGS.s 			page 21


 348              		.loc 1 90 0
 349              		.cfi_startproc
 350              		@ args = 0, pretend = 0, frame = 0
 351              		@ frame_needed = 0, uses_anonymous_args = 0
 352              		@ link register save eliminated.
 353              	.LVL6:
 354              		.loc 1 100 0
 355 0000 0901     		lsls	r1, r1, #4
 356              	.LVL7:
 357 0002 00F16040 		add	r0, r0, #-536870912
 358              	.LVL8:
 359 0006 C9B2     		uxtb	r1, r1
 360 0008 00F56D40 		add	r0, r0, #60672
 361              	.LVL9:
 362 000c 0176     		strb	r1, [r0, #24]
 363 000e 7047     		bx	lr
 364              		.cfi_endproc
 365              	.LFE221:
 366              		.size	nvicSetSystemHandlerPriority, .-nvicSetSystemHandlerPriority
 367              		.section	.text.nvicClearPending,"ax",%progbits
 368              		.align	2
 369              		.p2align 4,,15
 370              		.global	nvicClearPending
 371              		.thumb
 372              		.thumb_func
 373              		.type	nvicClearPending, %function
 374              	nvicClearPending:
 375              	.LFB222:
 376              		.loc 1 109 0
 377              		.cfi_startproc
 378              		@ args = 0, pretend = 0, frame = 0
 379              		@ frame_needed = 0, uses_anonymous_args = 0
 380              		@ link register save eliminated.
 381              	.LVL10:
 382              		.loc 1 111 0
 383 0000 00F01F03 		and	r3, r0, #31
 384 0004 0122     		movs	r2, #1
 385 0006 9A40     		lsls	r2, r2, r3
 386 0008 4009     		lsrs	r0, r0, #5
 387              	.LVL11:
 388 000a 4FF46143 		mov	r3, #57600
 389 000e 6030     		adds	r0, r0, #96
 390 0010 CEF20003 		movt	r3, 57344
 391 0014 43F82020 		str	r2, [r3, r0, lsl #2]
 392 0018 7047     		bx	lr
 393              		.cfi_endproc
 394              	.LFE222:
 395              		.size	nvicClearPending, .-nvicClearPending
 396 001a 00BFAFF3 		.text
 396      0080
 397              	.Letext0:
 398              		.file 2 "/usr/include/newlib/machine/_default_types.h"
 399              		.file 3 "/usr/include/newlib/stdint.h"
 400              		.file 4 "../os/common/ports/ARMCMx/compilers/GCC/chtypes.h"
 401              		.file 5 "../os/rt/include/chsystypes.h"
 402              		.file 6 "../os/rt/include/chschd.h"
 403              		.file 7 "../os/common/ext/CMSIS/include/core_cm3.h"
ARM GAS  /tmp/ccUcytGS.s 			page 22


 404              		.file 8 "../os/common/ports/ARMCMx/chcore.h"
 405              		.file 9 "../os/common/ports/ARMCMx/chcore_v7m.h"
 406              		.file 10 "../os/rt/include/chsem.h"
 407              		.file 11 "../os/rt/include/chmtx.h"
 408              		.section	.debug_info,"",%progbits
 409              	.Ldebug_info0:
 410 0000 89090000 		.4byte	0x989
 411 0004 0400     		.2byte	0x4
 412 0006 00000000 		.4byte	.Ldebug_abbrev0
 413 000a 04       		.byte	0x4
 414 000b 01       		.uleb128 0x1
 415 000c AF020000 		.4byte	.LASF123
 416 0010 01       		.byte	0x1
 417 0011 0C010000 		.4byte	.LASF124
 418 0015 27040000 		.4byte	.LASF125
 419 0019 00000000 		.4byte	.Ldebug_ranges0+0
 420 001d 00000000 		.4byte	0
 421 0021 00000000 		.4byte	.Ldebug_line0
 422 0025 02       		.uleb128 0x2
 423 0026 04       		.byte	0x4
 424 0027 05       		.byte	0x5
 425 0028 696E7400 		.ascii	"int\000"
 426 002c 03       		.uleb128 0x3
 427 002d 04       		.byte	0x4
 428 002e 07       		.byte	0x7
 429 002f 48000000 		.4byte	.LASF0
 430 0033 03       		.uleb128 0x3
 431 0034 01       		.byte	0x1
 432 0035 06       		.byte	0x6
 433 0036 29050000 		.4byte	.LASF1
 434 003a 04       		.uleb128 0x4
 435 003b 51040000 		.4byte	.LASF4
 436 003f 02       		.byte	0x2
 437 0040 1C       		.byte	0x1c
 438 0041 45000000 		.4byte	0x45
 439 0045 03       		.uleb128 0x3
 440 0046 01       		.byte	0x1
 441 0047 08       		.byte	0x8
 442 0048 C9040000 		.4byte	.LASF2
 443 004c 03       		.uleb128 0x3
 444 004d 02       		.byte	0x2
 445 004e 05       		.byte	0x5
 446 004f CB030000 		.4byte	.LASF3
 447 0053 04       		.uleb128 0x4
 448 0054 8D010000 		.4byte	.LASF5
 449 0058 02       		.byte	0x2
 450 0059 26       		.byte	0x26
 451 005a 5E000000 		.4byte	0x5e
 452 005e 03       		.uleb128 0x3
 453 005f 02       		.byte	0x2
 454 0060 07       		.byte	0x7
 455 0061 3B050000 		.4byte	.LASF6
 456 0065 04       		.uleb128 0x4
 457 0066 6E000000 		.4byte	.LASF7
 458 006a 02       		.byte	0x2
 459 006b 37       		.byte	0x37
 460 006c 70000000 		.4byte	0x70
ARM GAS  /tmp/ccUcytGS.s 			page 23


 461 0070 03       		.uleb128 0x3
 462 0071 04       		.byte	0x4
 463 0072 05       		.byte	0x5
 464 0073 D5030000 		.4byte	.LASF8
 465 0077 04       		.uleb128 0x4
 466 0078 D7040000 		.4byte	.LASF9
 467 007c 02       		.byte	0x2
 468 007d 38       		.byte	0x38
 469 007e 82000000 		.4byte	0x82
 470 0082 03       		.uleb128 0x3
 471 0083 04       		.byte	0x4
 472 0084 07       		.byte	0x7
 473 0085 8E040000 		.4byte	.LASF10
 474 0089 03       		.uleb128 0x3
 475 008a 08       		.byte	0x8
 476 008b 05       		.byte	0x5
 477 008c 80020000 		.4byte	.LASF11
 478 0090 04       		.uleb128 0x4
 479 0091 F8010000 		.4byte	.LASF12
 480 0095 02       		.byte	0x2
 481 0096 4E       		.byte	0x4e
 482 0097 9B000000 		.4byte	0x9b
 483 009b 03       		.uleb128 0x3
 484 009c 08       		.byte	0x8
 485 009d 07       		.byte	0x7
 486 009e 76010000 		.4byte	.LASF13
 487 00a2 04       		.uleb128 0x4
 488 00a3 56020000 		.4byte	.LASF14
 489 00a7 03       		.byte	0x3
 490 00a8 2A       		.byte	0x2a
 491 00a9 3A000000 		.4byte	0x3a
 492 00ad 04       		.uleb128 0x4
 493 00ae 74030000 		.4byte	.LASF15
 494 00b2 03       		.byte	0x3
 495 00b3 36       		.byte	0x36
 496 00b4 53000000 		.4byte	0x53
 497 00b8 04       		.uleb128 0x4
 498 00b9 B3040000 		.4byte	.LASF16
 499 00bd 03       		.byte	0x3
 500 00be 41       		.byte	0x41
 501 00bf 65000000 		.4byte	0x65
 502 00c3 04       		.uleb128 0x4
 503 00c4 FB000000 		.4byte	.LASF17
 504 00c8 03       		.byte	0x3
 505 00c9 42       		.byte	0x42
 506 00ca 77000000 		.4byte	0x77
 507 00ce 04       		.uleb128 0x4
 508 00cf 18040000 		.4byte	.LASF18
 509 00d3 03       		.byte	0x3
 510 00d4 4E       		.byte	0x4e
 511 00d5 90000000 		.4byte	0x90
 512 00d9 04       		.uleb128 0x4
 513 00da 61030000 		.4byte	.LASF19
 514 00de 04       		.byte	0x4
 515 00df 3C       		.byte	0x3c
 516 00e0 A2000000 		.4byte	0xa2
 517 00e4 04       		.uleb128 0x4
ARM GAS  /tmp/ccUcytGS.s 			page 24


 518 00e5 47020000 		.4byte	.LASF20
 519 00e9 04       		.byte	0x4
 520 00ea 3D       		.byte	0x3d
 521 00eb A2000000 		.4byte	0xa2
 522 00ef 04       		.uleb128 0x4
 523 00f0 86040000 		.4byte	.LASF21
 524 00f4 04       		.byte	0x4
 525 00f5 3E       		.byte	0x3e
 526 00f6 A2000000 		.4byte	0xa2
 527 00fa 04       		.uleb128 0x4
 528 00fb 54010000 		.4byte	.LASF22
 529 00ff 04       		.byte	0x4
 530 0100 40       		.byte	0x40
 531 0101 C3000000 		.4byte	0xc3
 532 0105 04       		.uleb128 0x4
 533 0106 94020000 		.4byte	.LASF23
 534 010a 04       		.byte	0x4
 535 010b 41       		.byte	0x41
 536 010c B8000000 		.4byte	0xb8
 537 0110 04       		.uleb128 0x4
 538 0111 36010000 		.4byte	.LASF24
 539 0115 04       		.byte	0x4
 540 0116 43       		.byte	0x43
 541 0117 C3000000 		.4byte	0xc3
 542 011b 04       		.uleb128 0x4
 543 011c 98010000 		.4byte	.LASF25
 544 0120 04       		.byte	0x4
 545 0121 45       		.byte	0x45
 546 0122 B8000000 		.4byte	0xb8
 547 0126 04       		.uleb128 0x4
 548 0127 2C000000 		.4byte	.LASF26
 549 012b 05       		.byte	0x5
 550 012c 35       		.byte	0x35
 551 012d AD000000 		.4byte	0xad
 552 0131 04       		.uleb128 0x4
 553 0132 D3010000 		.4byte	.LASF27
 554 0136 05       		.byte	0x5
 555 0137 3F       		.byte	0x3f
 556 0138 3C010000 		.4byte	0x13c
 557 013c 05       		.uleb128 0x5
 558 013d 67020000 		.4byte	.LASF45
 559 0141 44       		.byte	0x44
 560 0142 06       		.byte	0x6
 561 0143 9A       		.byte	0x9a
 562 0144 1A020000 		.4byte	0x21a
 563 0148 06       		.uleb128 0x6
 564 0149 AD040000 		.4byte	.LASF28
 565 014d 06       		.byte	0x6
 566 014e 9B       		.byte	0x9b
 567 014f 4F020000 		.4byte	0x24f
 568 0153 00       		.byte	0
 569 0154 06       		.uleb128 0x6
 570 0155 1E020000 		.4byte	.LASF29
 571 0159 06       		.byte	0x6
 572 015a 9C       		.byte	0x9c
 573 015b FA000000 		.4byte	0xfa
 574 015f 08       		.byte	0x8
ARM GAS  /tmp/ccUcytGS.s 			page 25


 575 0160 07       		.uleb128 0x7
 576 0161 63747800 		.ascii	"ctx\000"
 577 0165 06       		.byte	0x6
 578 0166 9D       		.byte	0x9d
 579 0167 06070000 		.4byte	0x706
 580 016b 0C       		.byte	0xc
 581 016c 06       		.uleb128 0x6
 582 016d C3040000 		.4byte	.LASF30
 583 0171 06       		.byte	0x6
 584 0172 9F       		.byte	0x9f
 585 0173 25020000 		.4byte	0x225
 586 0177 10       		.byte	0x10
 587 0178 06       		.uleb128 0x6
 588 0179 6B050000 		.4byte	.LASF31
 589 017d 06       		.byte	0x6
 590 017e A0       		.byte	0xa0
 591 017f 25020000 		.4byte	0x225
 592 0183 14       		.byte	0x14
 593 0184 06       		.uleb128 0x6
 594 0185 6E040000 		.4byte	.LASF32
 595 0189 06       		.byte	0x6
 596 018a A7       		.byte	0xa7
 597 018b 6B080000 		.4byte	0x86b
 598 018f 18       		.byte	0x18
 599 0190 06       		.uleb128 0x6
 600 0191 3B020000 		.4byte	.LASF33
 601 0195 06       		.byte	0x6
 602 0196 B0       		.byte	0xb0
 603 0197 7D080000 		.4byte	0x87d
 604 019b 1C       		.byte	0x1c
 605 019c 06       		.uleb128 0x6
 606 019d 05050000 		.4byte	.LASF34
 607 01a1 06       		.byte	0x6
 608 01a2 B5       		.byte	0xb5
 609 01a3 E4000000 		.4byte	0xe4
 610 01a7 20       		.byte	0x20
 611 01a8 06       		.uleb128 0x6
 612 01a9 26000000 		.4byte	.LASF35
 613 01ad 06       		.byte	0x6
 614 01ae B9       		.byte	0xb9
 615 01af D9000000 		.4byte	0xd9
 616 01b3 21       		.byte	0x21
 617 01b4 06       		.uleb128 0x6
 618 01b5 78000000 		.4byte	.LASF36
 619 01b9 06       		.byte	0x6
 620 01ba BE       		.byte	0xbe
 621 01bb EF000000 		.4byte	0xef
 622 01bf 22       		.byte	0x22
 623 01c0 08       		.uleb128 0x8
 624 01c1 7500     		.ascii	"u\000"
 625 01c3 06       		.byte	0x6
 626 01c4 0F01     		.2byte	0x10f
 627 01c6 A0070000 		.4byte	0x7a0
 628 01ca 24       		.byte	0x24
 629 01cb 09       		.uleb128 0x9
 630 01cc E2040000 		.4byte	.LASF37
 631 01d0 06       		.byte	0x6
ARM GAS  /tmp/ccUcytGS.s 			page 26


 632 01d1 1401     		.2byte	0x114
 633 01d3 2B020000 		.4byte	0x22b
 634 01d7 28       		.byte	0x28
 635 01d8 09       		.uleb128 0x9
 636 01d9 5E020000 		.4byte	.LASF38
 637 01dd 06       		.byte	0x6
 638 01de 1A01     		.2byte	0x11a
 639 01e0 4F020000 		.4byte	0x24f
 640 01e4 2C       		.byte	0x2c
 641 01e5 09       		.uleb128 0x9
 642 01e6 3F000000 		.4byte	.LASF39
 643 01ea 06       		.byte	0x6
 644 01eb 2001     		.2byte	0x120
 645 01ed 10010000 		.4byte	0x110
 646 01f1 34       		.byte	0x34
 647 01f2 09       		.uleb128 0x9
 648 01f3 B4010000 		.4byte	.LASF40
 649 01f7 06       		.byte	0x6
 650 01f8 2701     		.2byte	0x127
 651 01fa 65080000 		.4byte	0x865
 652 01fe 38       		.byte	0x38
 653 01ff 09       		.uleb128 0x9
 654 0200 36000000 		.4byte	.LASF41
 655 0204 06       		.byte	0x6
 656 0205 2B01     		.2byte	0x12b
 657 0207 FA000000 		.4byte	0xfa
 658 020b 3C       		.byte	0x3c
 659 020c 09       		.uleb128 0x9
 660 020d 7A050000 		.4byte	.LASF42
 661 0211 06       		.byte	0x6
 662 0212 3201     		.2byte	0x132
 663 0214 02030000 		.4byte	0x302
 664 0218 40       		.byte	0x40
 665 0219 00       		.byte	0
 666 021a 04       		.uleb128 0x4
 667 021b 28020000 		.4byte	.LASF43
 668 021f 05       		.byte	0x5
 669 0220 44       		.byte	0x44
 670 0221 25020000 		.4byte	0x225
 671 0225 0A       		.uleb128 0xa
 672 0226 04       		.byte	0x4
 673 0227 31010000 		.4byte	0x131
 674 022b 04       		.uleb128 0x4
 675 022c 5A000000 		.4byte	.LASF44
 676 0230 05       		.byte	0x5
 677 0231 49       		.byte	0x49
 678 0232 36020000 		.4byte	0x236
 679 0236 05       		.uleb128 0x5
 680 0237 00000000 		.4byte	.LASF46
 681 023b 04       		.byte	0x4
 682 023c 06       		.byte	0x6
 683 023d 88       		.byte	0x88
 684 023e 4F020000 		.4byte	0x24f
 685 0242 06       		.uleb128 0x6
 686 0243 55000000 		.4byte	.LASF47
 687 0247 06       		.byte	0x6
 688 0248 89       		.byte	0x89
ARM GAS  /tmp/ccUcytGS.s 			page 27


 689 0249 25020000 		.4byte	0x225
 690 024d 00       		.byte	0
 691 024e 00       		.byte	0
 692 024f 04       		.uleb128 0x4
 693 0250 A4010000 		.4byte	.LASF48
 694 0254 05       		.byte	0x5
 695 0255 50       		.byte	0x50
 696 0256 5A020000 		.4byte	0x25a
 697 025a 05       		.uleb128 0x5
 698 025b D1000000 		.4byte	.LASF49
 699 025f 08       		.byte	0x8
 700 0260 06       		.byte	0x6
 701 0261 8F       		.byte	0x8f
 702 0262 7F020000 		.4byte	0x27f
 703 0266 06       		.uleb128 0x6
 704 0267 55000000 		.4byte	.LASF47
 705 026b 06       		.byte	0x6
 706 026c 90       		.byte	0x90
 707 026d 25020000 		.4byte	0x225
 708 0271 00       		.byte	0
 709 0272 06       		.uleb128 0x6
 710 0273 CC000000 		.4byte	.LASF50
 711 0277 06       		.byte	0x6
 712 0278 91       		.byte	0x91
 713 0279 25020000 		.4byte	0x225
 714 027d 04       		.byte	0x4
 715 027e 00       		.byte	0
 716 027f 04       		.uleb128 0x4
 717 0280 A0040000 		.4byte	.LASF51
 718 0284 05       		.byte	0x5
 719 0285 57       		.byte	0x57
 720 0286 8A020000 		.4byte	0x28a
 721 028a 0B       		.uleb128 0xb
 722 028b A0000000 		.4byte	.LASF52
 723 028f 1C       		.byte	0x1c
 724 0290 06       		.byte	0x6
 725 0291 6A01     		.2byte	0x16a
 726 0293 E6020000 		.4byte	0x2e6
 727 0297 09       		.uleb128 0x9
 728 0298 AD040000 		.4byte	.LASF28
 729 029c 06       		.byte	0x6
 730 029d 6B01     		.2byte	0x16b
 731 029f 4F020000 		.4byte	0x24f
 732 02a3 00       		.byte	0
 733 02a4 09       		.uleb128 0x9
 734 02a5 1E020000 		.4byte	.LASF29
 735 02a9 06       		.byte	0x6
 736 02aa 6C01     		.2byte	0x16c
 737 02ac FA000000 		.4byte	0xfa
 738 02b0 08       		.byte	0x8
 739 02b1 08       		.uleb128 0x8
 740 02b2 63747800 		.ascii	"ctx\000"
 741 02b6 06       		.byte	0x6
 742 02b7 6E01     		.2byte	0x16e
 743 02b9 06070000 		.4byte	0x706
 744 02bd 0C       		.byte	0xc
 745 02be 09       		.uleb128 0x9
ARM GAS  /tmp/ccUcytGS.s 			page 28


 746 02bf C3040000 		.4byte	.LASF30
 747 02c3 06       		.byte	0x6
 748 02c4 7101     		.2byte	0x171
 749 02c6 25020000 		.4byte	0x225
 750 02ca 10       		.byte	0x10
 751 02cb 09       		.uleb128 0x9
 752 02cc 6B050000 		.4byte	.LASF31
 753 02d0 06       		.byte	0x6
 754 02d1 7201     		.2byte	0x172
 755 02d3 25020000 		.4byte	0x225
 756 02d7 14       		.byte	0x14
 757 02d8 09       		.uleb128 0x9
 758 02d9 59050000 		.4byte	.LASF53
 759 02dd 06       		.byte	0x6
 760 02de 7501     		.2byte	0x175
 761 02e0 25020000 		.4byte	0x225
 762 02e4 18       		.byte	0x18
 763 02e5 00       		.byte	0
 764 02e6 04       		.uleb128 0x4
 765 02e7 E2000000 		.4byte	.LASF54
 766 02eb 05       		.byte	0x5
 767 02ec 5C       		.byte	0x5c
 768 02ed F1020000 		.4byte	0x2f1
 769 02f1 0A       		.uleb128 0xa
 770 02f2 04       		.byte	0x4
 771 02f3 F7020000 		.4byte	0x2f7
 772 02f7 0C       		.uleb128 0xc
 773 02f8 02030000 		.4byte	0x302
 774 02fc 0D       		.uleb128 0xd
 775 02fd 02030000 		.4byte	0x302
 776 0301 00       		.byte	0
 777 0302 0E       		.uleb128 0xe
 778 0303 04       		.byte	0x4
 779 0304 04       		.uleb128 0x4
 780 0305 9F020000 		.4byte	.LASF55
 781 0309 05       		.byte	0x5
 782 030a 61       		.byte	0x61
 783 030b 0F030000 		.4byte	0x30f
 784 030f 0B       		.uleb128 0xb
 785 0310 65010000 		.4byte	.LASF56
 786 0314 14       		.byte	0x14
 787 0315 06       		.byte	0x6
 788 0316 4501     		.2byte	0x145
 789 0318 5E030000 		.4byte	0x35e
 790 031c 09       		.uleb128 0x9
 791 031d 55000000 		.4byte	.LASF47
 792 0321 06       		.byte	0x6
 793 0322 4601     		.2byte	0x146
 794 0324 83080000 		.4byte	0x883
 795 0328 00       		.byte	0
 796 0329 09       		.uleb128 0x9
 797 032a CC000000 		.4byte	.LASF50
 798 032e 06       		.byte	0x6
 799 032f 4701     		.2byte	0x147
 800 0331 83080000 		.4byte	0x883
 801 0335 04       		.byte	0x4
 802 0336 09       		.uleb128 0x9
ARM GAS  /tmp/ccUcytGS.s 			page 29


 803 0337 35050000 		.4byte	.LASF57
 804 033b 06       		.byte	0x6
 805 033c 4801     		.2byte	0x148
 806 033e 26010000 		.4byte	0x126
 807 0342 08       		.byte	0x8
 808 0343 09       		.uleb128 0x9
 809 0344 AE000000 		.4byte	.LASF58
 810 0348 06       		.byte	0x6
 811 0349 4901     		.2byte	0x149
 812 034b E6020000 		.4byte	0x2e6
 813 034f 0C       		.byte	0xc
 814 0350 08       		.uleb128 0x8
 815 0351 70617200 		.ascii	"par\000"
 816 0355 06       		.byte	0x6
 817 0356 4B01     		.2byte	0x14b
 818 0358 02030000 		.4byte	0x302
 819 035c 10       		.byte	0x10
 820 035d 00       		.byte	0
 821 035e 04       		.uleb128 0x4
 822 035f EA040000 		.4byte	.LASF59
 823 0363 05       		.byte	0x5
 824 0364 66       		.byte	0x66
 825 0365 69030000 		.4byte	0x369
 826 0369 0B       		.uleb128 0xb
 827 036a BC010000 		.4byte	.LASF60
 828 036e 0C       		.byte	0xc
 829 036f 06       		.byte	0x6
 830 0370 5501     		.2byte	0x155
 831 0372 AB030000 		.4byte	0x3ab
 832 0376 09       		.uleb128 0x9
 833 0377 55000000 		.4byte	.LASF47
 834 037b 06       		.byte	0x6
 835 037c 5601     		.2byte	0x156
 836 037e 83080000 		.4byte	0x883
 837 0382 00       		.byte	0
 838 0383 09       		.uleb128 0x9
 839 0384 CC000000 		.4byte	.LASF50
 840 0388 06       		.byte	0x6
 841 0389 5801     		.2byte	0x158
 842 038b 83080000 		.4byte	0x883
 843 038f 04       		.byte	0x4
 844 0390 09       		.uleb128 0x9
 845 0391 35050000 		.4byte	.LASF57
 846 0395 06       		.byte	0x6
 847 0396 5A01     		.2byte	0x15a
 848 0398 26010000 		.4byte	0x126
 849 039c 08       		.byte	0x8
 850 039d 09       		.uleb128 0x9
 851 039e 0F040000 		.4byte	.LASF61
 852 03a2 06       		.byte	0x6
 853 03a3 6201     		.2byte	0x162
 854 03a5 26010000 		.4byte	0x126
 855 03a9 0A       		.byte	0xa
 856 03aa 00       		.byte	0
 857 03ab 04       		.uleb128 0x4
 858 03ac 71020000 		.4byte	.LASF62
 859 03b0 05       		.byte	0x5
ARM GAS  /tmp/ccUcytGS.s 			page 30


 860 03b1 6B       		.byte	0x6b
 861 03b2 B6030000 		.4byte	0x3b6
 862 03b6 0B       		.uleb128 0xb
 863 03b7 EB000000 		.4byte	.LASF63
 864 03bb 04       		.byte	0x4
 865 03bc 06       		.byte	0x6
 866 03bd 7C01     		.2byte	0x17c
 867 03bf D1030000 		.4byte	0x3d1
 868 03c3 09       		.uleb128 0x9
 869 03c4 57030000 		.4byte	.LASF64
 870 03c8 06       		.byte	0x6
 871 03c9 8401     		.2byte	0x184
 872 03cb 89080000 		.4byte	0x889
 873 03cf 00       		.byte	0
 874 03d0 00       		.byte	0
 875 03d1 04       		.uleb128 0x4
 876 03d2 10050000 		.4byte	.LASF65
 877 03d6 05       		.byte	0x5
 878 03d7 70       		.byte	0x70
 879 03d8 DC030000 		.4byte	0x3dc
 880 03dc 0B       		.uleb128 0xb
 881 03dd F7030000 		.4byte	.LASF66
 882 03e1 70       		.byte	0x70
 883 03e2 06       		.byte	0x6
 884 03e3 9C01     		.2byte	0x19c
 885 03e5 1E040000 		.4byte	0x41e
 886 03e9 09       		.uleb128 0x9
 887 03ea 21040000 		.4byte	.LASF67
 888 03ee 06       		.byte	0x6
 889 03ef A001     		.2byte	0x1a0
 890 03f1 7F020000 		.4byte	0x27f
 891 03f5 00       		.byte	0
 892 03f6 09       		.uleb128 0x9
 893 03f7 8C000000 		.4byte	.LASF68
 894 03fb 06       		.byte	0x6
 895 03fc A401     		.2byte	0x1a4
 896 03fe 5E030000 		.4byte	0x35e
 897 0402 1C       		.byte	0x1c
 898 0403 08       		.uleb128 0x8
 899 0404 64626700 		.ascii	"dbg\000"
 900 0408 06       		.byte	0x6
 901 0409 A801     		.2byte	0x1a8
 902 040b AB030000 		.4byte	0x3ab
 903 040f 28       		.byte	0x28
 904 0410 09       		.uleb128 0x9
 905 0411 69030000 		.4byte	.LASF69
 906 0415 06       		.byte	0x6
 907 0416 AC01     		.2byte	0x1ac
 908 0418 31010000 		.4byte	0x131
 909 041c 2C       		.byte	0x2c
 910 041d 00       		.byte	0
 911 041e 0F       		.uleb128 0xf
 912 041f 040E     		.2byte	0xe04
 913 0421 07       		.byte	0x7
 914 0422 7F01     		.2byte	0x17f
 915 0424 DA040000 		.4byte	0x4da
 916 0428 09       		.uleb128 0x9
ARM GAS  /tmp/ccUcytGS.s 			page 31


 917 0429 42010000 		.4byte	.LASF70
 918 042d 07       		.byte	0x7
 919 042e 8101     		.2byte	0x181
 920 0430 F1040000 		.4byte	0x4f1
 921 0434 00       		.byte	0
 922 0435 09       		.uleb128 0x9
 923 0436 99030000 		.4byte	.LASF71
 924 043a 07       		.byte	0x7
 925 043b 8201     		.2byte	0x182
 926 043d F6040000 		.4byte	0x4f6
 927 0441 20       		.byte	0x20
 928 0442 09       		.uleb128 0x9
 929 0443 00050000 		.4byte	.LASF72
 930 0447 07       		.byte	0x7
 931 0448 8301     		.2byte	0x183
 932 044a 06050000 		.4byte	0x506
 933 044e 80       		.byte	0x80
 934 044f 09       		.uleb128 0x9
 935 0450 5C010000 		.4byte	.LASF73
 936 0454 07       		.byte	0x7
 937 0455 8401     		.2byte	0x184
 938 0457 F6040000 		.4byte	0x4f6
 939 045b A0       		.byte	0xa0
 940 045c 10       		.uleb128 0x10
 941 045d 61050000 		.4byte	.LASF74
 942 0461 07       		.byte	0x7
 943 0462 8501     		.2byte	0x185
 944 0464 0B050000 		.4byte	0x50b
 945 0468 0001     		.2byte	0x100
 946 046a 10       		.uleb128 0x10
 947 046b A3030000 		.4byte	.LASF75
 948 046f 07       		.byte	0x7
 949 0470 8601     		.2byte	0x186
 950 0472 F6040000 		.4byte	0x4f6
 951 0476 2001     		.2byte	0x120
 952 0478 10       		.uleb128 0x10
 953 0479 52030000 		.4byte	.LASF76
 954 047d 07       		.byte	0x7
 955 047e 8701     		.2byte	0x187
 956 0480 10050000 		.4byte	0x510
 957 0484 8001     		.2byte	0x180
 958 0486 10       		.uleb128 0x10
 959 0487 AD030000 		.4byte	.LASF77
 960 048b 07       		.byte	0x7
 961 048c 8801     		.2byte	0x188
 962 048e F6040000 		.4byte	0x4f6
 963 0492 A001     		.2byte	0x1a0
 964 0494 10       		.uleb128 0x10
 965 0495 0B050000 		.4byte	.LASF78
 966 0499 07       		.byte	0x7
 967 049a 8901     		.2byte	0x189
 968 049c 15050000 		.4byte	0x515
 969 04a0 0002     		.2byte	0x200
 970 04a2 10       		.uleb128 0x10
 971 04a3 B7030000 		.4byte	.LASF79
 972 04a7 07       		.byte	0x7
 973 04a8 8A01     		.2byte	0x18a
ARM GAS  /tmp/ccUcytGS.s 			page 32


 974 04aa 1A050000 		.4byte	0x51a
 975 04ae 2002     		.2byte	0x220
 976 04b0 11       		.uleb128 0x11
 977 04b1 495000   		.ascii	"IP\000"
 978 04b4 07       		.byte	0x7
 979 04b5 8B01     		.2byte	0x18b
 980 04b7 3A050000 		.4byte	0x53a
 981 04bb 0003     		.2byte	0x300
 982 04bd 10       		.uleb128 0x10
 983 04be C1030000 		.4byte	.LASF80
 984 04c2 07       		.byte	0x7
 985 04c3 8C01     		.2byte	0x18c
 986 04c5 3F050000 		.4byte	0x53f
 987 04c9 F003     		.2byte	0x3f0
 988 04cb 10       		.uleb128 0x10
 989 04cc 7D030000 		.4byte	.LASF81
 990 04d0 07       		.byte	0x7
 991 04d1 8D01     		.2byte	0x18d
 992 04d3 50050000 		.4byte	0x550
 993 04d7 000E     		.2byte	0xe00
 994 04d9 00       		.byte	0
 995 04da 12       		.uleb128 0x12
 996 04db C3000000 		.4byte	0xc3
 997 04df EA040000 		.4byte	0x4ea
 998 04e3 13       		.uleb128 0x13
 999 04e4 EA040000 		.4byte	0x4ea
 1000 04e8 07       		.byte	0x7
 1001 04e9 00       		.byte	0
 1002 04ea 03       		.uleb128 0x3
 1003 04eb 04       		.byte	0x4
 1004 04ec 07       		.byte	0x7
 1005 04ed 7D040000 		.4byte	.LASF82
 1006 04f1 14       		.uleb128 0x14
 1007 04f2 DA040000 		.4byte	0x4da
 1008 04f6 12       		.uleb128 0x12
 1009 04f7 C3000000 		.4byte	0xc3
 1010 04fb 06050000 		.4byte	0x506
 1011 04ff 13       		.uleb128 0x13
 1012 0500 EA040000 		.4byte	0x4ea
 1013 0504 17       		.byte	0x17
 1014 0505 00       		.byte	0
 1015 0506 14       		.uleb128 0x14
 1016 0507 DA040000 		.4byte	0x4da
 1017 050b 14       		.uleb128 0x14
 1018 050c DA040000 		.4byte	0x4da
 1019 0510 14       		.uleb128 0x14
 1020 0511 DA040000 		.4byte	0x4da
 1021 0515 14       		.uleb128 0x14
 1022 0516 DA040000 		.4byte	0x4da
 1023 051a 12       		.uleb128 0x12
 1024 051b C3000000 		.4byte	0xc3
 1025 051f 2A050000 		.4byte	0x52a
 1026 0523 13       		.uleb128 0x13
 1027 0524 EA040000 		.4byte	0x4ea
 1028 0528 37       		.byte	0x37
 1029 0529 00       		.byte	0
 1030 052a 12       		.uleb128 0x12
ARM GAS  /tmp/ccUcytGS.s 			page 33


 1031 052b A2000000 		.4byte	0xa2
 1032 052f 3A050000 		.4byte	0x53a
 1033 0533 13       		.uleb128 0x13
 1034 0534 EA040000 		.4byte	0x4ea
 1035 0538 EF       		.byte	0xef
 1036 0539 00       		.byte	0
 1037 053a 14       		.uleb128 0x14
 1038 053b 2A050000 		.4byte	0x52a
 1039 053f 12       		.uleb128 0x12
 1040 0540 C3000000 		.4byte	0xc3
 1041 0544 50050000 		.4byte	0x550
 1042 0548 15       		.uleb128 0x15
 1043 0549 EA040000 		.4byte	0x4ea
 1044 054d 8302     		.2byte	0x283
 1045 054f 00       		.byte	0
 1046 0550 14       		.uleb128 0x14
 1047 0551 C3000000 		.4byte	0xc3
 1048 0555 16       		.uleb128 0x16
 1049 0556 5B040000 		.4byte	.LASF83
 1050 055a 07       		.byte	0x7
 1051 055b 8E01     		.2byte	0x18e
 1052 055d 1E040000 		.4byte	0x41e
 1053 0561 17       		.uleb128 0x17
 1054 0562 8C       		.byte	0x8c
 1055 0563 07       		.byte	0x7
 1056 0564 A101     		.2byte	0x1a1
 1057 0566 7C060000 		.4byte	0x67c
 1058 056a 09       		.uleb128 0x9
 1059 056b E3010000 		.4byte	.LASF84
 1060 056f 07       		.byte	0x7
 1061 0570 A301     		.2byte	0x1a3
 1062 0572 7C060000 		.4byte	0x67c
 1063 0576 00       		.byte	0
 1064 0577 09       		.uleb128 0x9
 1065 0578 42020000 		.4byte	.LASF85
 1066 057c 07       		.byte	0x7
 1067 057d A401     		.2byte	0x1a4
 1068 057f 50050000 		.4byte	0x550
 1069 0583 04       		.byte	0x4
 1070 0584 09       		.uleb128 0x9
 1071 0585 78040000 		.4byte	.LASF86
 1072 0589 07       		.byte	0x7
 1073 058a A501     		.2byte	0x1a5
 1074 058c 50050000 		.4byte	0x550
 1075 0590 08       		.byte	0x8
 1076 0591 09       		.uleb128 0x9
 1077 0592 50020000 		.4byte	.LASF87
 1078 0596 07       		.byte	0x7
 1079 0597 A601     		.2byte	0x1a6
 1080 0599 50050000 		.4byte	0x550
 1081 059d 0C       		.byte	0xc
 1082 059e 08       		.uleb128 0x8
 1083 059f 53435200 		.ascii	"SCR\000"
 1084 05a3 07       		.byte	0x7
 1085 05a4 A701     		.2byte	0x1a7
 1086 05a6 50050000 		.4byte	0x550
 1087 05aa 10       		.byte	0x10
ARM GAS  /tmp/ccUcytGS.s 			page 34


 1088 05ab 08       		.uleb128 0x8
 1089 05ac 43435200 		.ascii	"CCR\000"
 1090 05b0 07       		.byte	0x7
 1091 05b1 A801     		.2byte	0x1a8
 1092 05b3 50050000 		.4byte	0x550
 1093 05b7 14       		.byte	0x14
 1094 05b8 08       		.uleb128 0x8
 1095 05b9 53485000 		.ascii	"SHP\000"
 1096 05bd 07       		.byte	0x7
 1097 05be A901     		.2byte	0x1a9
 1098 05c0 91060000 		.4byte	0x691
 1099 05c4 18       		.byte	0x18
 1100 05c5 09       		.uleb128 0x9
 1101 05c6 8E020000 		.4byte	.LASF88
 1102 05ca 07       		.byte	0x7
 1103 05cb AA01     		.2byte	0x1aa
 1104 05cd 50050000 		.4byte	0x550
 1105 05d1 24       		.byte	0x24
 1106 05d2 09       		.uleb128 0x9
 1107 05d3 9A020000 		.4byte	.LASF89
 1108 05d7 07       		.byte	0x7
 1109 05d8 AB01     		.2byte	0x1ab
 1110 05da 50050000 		.4byte	0x550
 1111 05de 28       		.byte	0x28
 1112 05df 09       		.uleb128 0x9
 1113 05e0 19020000 		.4byte	.LASF90
 1114 05e4 07       		.byte	0x7
 1115 05e5 AC01     		.2byte	0x1ac
 1116 05e7 50050000 		.4byte	0x550
 1117 05eb 2C       		.byte	0x2c
 1118 05ec 09       		.uleb128 0x9
 1119 05ed 69000000 		.4byte	.LASF91
 1120 05f1 07       		.byte	0x7
 1121 05f2 AD01     		.2byte	0x1ad
 1122 05f4 50050000 		.4byte	0x550
 1123 05f8 30       		.byte	0x30
 1124 05f9 09       		.uleb128 0x9
 1125 05fa 93030000 		.4byte	.LASF92
 1126 05fe 07       		.byte	0x7
 1127 05ff AE01     		.2byte	0x1ae
 1128 0601 50050000 		.4byte	0x550
 1129 0605 34       		.byte	0x34
 1130 0606 09       		.uleb128 0x9
 1131 0607 73040000 		.4byte	.LASF93
 1132 060b 07       		.byte	0x7
 1133 060c AF01     		.2byte	0x1af
 1134 060e 50050000 		.4byte	0x550
 1135 0612 38       		.byte	0x38
 1136 0613 09       		.uleb128 0x9
 1137 0614 03020000 		.4byte	.LASF94
 1138 0618 07       		.byte	0x7
 1139 0619 B001     		.2byte	0x1b0
 1140 061b 50050000 		.4byte	0x550
 1141 061f 3C       		.byte	0x3c
 1142 0620 08       		.uleb128 0x8
 1143 0621 50465200 		.ascii	"PFR\000"
 1144 0625 07       		.byte	0x7
ARM GAS  /tmp/ccUcytGS.s 			page 35


 1145 0626 B101     		.2byte	0x1b1
 1146 0628 A6060000 		.4byte	0x6a6
 1147 062c 40       		.byte	0x40
 1148 062d 08       		.uleb128 0x8
 1149 062e 44465200 		.ascii	"DFR\000"
 1150 0632 07       		.byte	0x7
 1151 0633 B201     		.2byte	0x1b2
 1152 0635 7C060000 		.4byte	0x67c
 1153 0639 48       		.byte	0x48
 1154 063a 08       		.uleb128 0x8
 1155 063b 41445200 		.ascii	"ADR\000"
 1156 063f 07       		.byte	0x7
 1157 0640 B301     		.2byte	0x1b3
 1158 0642 7C060000 		.4byte	0x67c
 1159 0646 4C       		.byte	0x4c
 1160 0647 09       		.uleb128 0x9
 1161 0648 31010000 		.4byte	.LASF95
 1162 064c 07       		.byte	0x7
 1163 064d B401     		.2byte	0x1b4
 1164 064f C0060000 		.4byte	0x6c0
 1165 0653 50       		.byte	0x50
 1166 0654 09       		.uleb128 0x9
 1167 0655 66050000 		.4byte	.LASF96
 1168 0659 07       		.byte	0x7
 1169 065a B501     		.2byte	0x1b5
 1170 065c DA060000 		.4byte	0x6da
 1171 0660 60       		.byte	0x60
 1172 0661 09       		.uleb128 0x9
 1173 0662 99030000 		.4byte	.LASF71
 1174 0666 07       		.byte	0x7
 1175 0667 B601     		.2byte	0x1b6
 1176 0669 CA060000 		.4byte	0x6ca
 1177 066d 74       		.byte	0x74
 1178 066e 09       		.uleb128 0x9
 1179 066f 10000000 		.4byte	.LASF97
 1180 0673 07       		.byte	0x7
 1181 0674 B701     		.2byte	0x1b7
 1182 0676 50050000 		.4byte	0x550
 1183 067a 88       		.byte	0x88
 1184 067b 00       		.byte	0
 1185 067c 18       		.uleb128 0x18
 1186 067d 50050000 		.4byte	0x550
 1187 0681 12       		.uleb128 0x12
 1188 0682 A2000000 		.4byte	0xa2
 1189 0686 91060000 		.4byte	0x691
 1190 068a 13       		.uleb128 0x13
 1191 068b EA040000 		.4byte	0x4ea
 1192 068f 0B       		.byte	0xb
 1193 0690 00       		.byte	0
 1194 0691 14       		.uleb128 0x14
 1195 0692 81060000 		.4byte	0x681
 1196 0696 12       		.uleb128 0x12
 1197 0697 C3000000 		.4byte	0xc3
 1198 069b A6060000 		.4byte	0x6a6
 1199 069f 13       		.uleb128 0x13
 1200 06a0 EA040000 		.4byte	0x4ea
 1201 06a4 01       		.byte	0x1
ARM GAS  /tmp/ccUcytGS.s 			page 36


 1202 06a5 00       		.byte	0
 1203 06a6 18       		.uleb128 0x18
 1204 06a7 AB060000 		.4byte	0x6ab
 1205 06ab 14       		.uleb128 0x14
 1206 06ac 96060000 		.4byte	0x696
 1207 06b0 12       		.uleb128 0x12
 1208 06b1 C3000000 		.4byte	0xc3
 1209 06b5 C0060000 		.4byte	0x6c0
 1210 06b9 13       		.uleb128 0x13
 1211 06ba EA040000 		.4byte	0x4ea
 1212 06be 03       		.byte	0x3
 1213 06bf 00       		.byte	0
 1214 06c0 18       		.uleb128 0x18
 1215 06c1 C5060000 		.4byte	0x6c5
 1216 06c5 14       		.uleb128 0x14
 1217 06c6 B0060000 		.4byte	0x6b0
 1218 06ca 12       		.uleb128 0x12
 1219 06cb C3000000 		.4byte	0xc3
 1220 06cf DA060000 		.4byte	0x6da
 1221 06d3 13       		.uleb128 0x13
 1222 06d4 EA040000 		.4byte	0x4ea
 1223 06d8 04       		.byte	0x4
 1224 06d9 00       		.byte	0
 1225 06da 18       		.uleb128 0x18
 1226 06db DF060000 		.4byte	0x6df
 1227 06df 14       		.uleb128 0x14
 1228 06e0 CA060000 		.4byte	0x6ca
 1229 06e4 16       		.uleb128 0x16
 1230 06e5 65040000 		.4byte	.LASF98
 1231 06e9 07       		.byte	0x7
 1232 06ea B801     		.2byte	0x1b8
 1233 06ec 61050000 		.4byte	0x561
 1234 06f0 04       		.uleb128 0x4
 1235 06f1 1D000000 		.4byte	.LASF99
 1236 06f5 08       		.byte	0x8
 1237 06f6 65       		.byte	0x65
 1238 06f7 02030000 		.4byte	0x302
 1239 06fb 04       		.uleb128 0x4
 1240 06fc 4E050000 		.4byte	.LASF100
 1241 0700 08       		.byte	0x8
 1242 0701 6D       		.byte	0x6d
 1243 0702 CE000000 		.4byte	0xce
 1244 0706 05       		.uleb128 0x5
 1245 0707 93000000 		.4byte	.LASF101
 1246 070b 04       		.byte	0x4
 1247 070c 08       		.byte	0x8
 1248 070d 89       		.byte	0x89
 1249 070e 1E070000 		.4byte	0x71e
 1250 0712 07       		.uleb128 0x7
 1251 0713 737000   		.ascii	"sp\000"
 1252 0716 08       		.byte	0x8
 1253 0717 8A       		.byte	0x8a
 1254 0718 9A070000 		.4byte	0x79a
 1255 071c 00       		.byte	0
 1256 071d 00       		.byte	0
 1257 071e 0B       		.uleb128 0xb
 1258 071f DE030000 		.4byte	.LASF102
ARM GAS  /tmp/ccUcytGS.s 			page 37


 1259 0723 24       		.byte	0x24
 1260 0724 09       		.byte	0x9
 1261 0725 5901     		.2byte	0x159
 1262 0727 9A070000 		.4byte	0x79a
 1263 072b 08       		.uleb128 0x8
 1264 072c 723400   		.ascii	"r4\000"
 1265 072f 09       		.byte	0x9
 1266 0730 6C01     		.2byte	0x16c
 1267 0732 F0060000 		.4byte	0x6f0
 1268 0736 00       		.byte	0
 1269 0737 08       		.uleb128 0x8
 1270 0738 723500   		.ascii	"r5\000"
 1271 073b 09       		.byte	0x9
 1272 073c 6D01     		.2byte	0x16d
 1273 073e F0060000 		.4byte	0x6f0
 1274 0742 04       		.byte	0x4
 1275 0743 08       		.uleb128 0x8
 1276 0744 723600   		.ascii	"r6\000"
 1277 0747 09       		.byte	0x9
 1278 0748 6E01     		.2byte	0x16e
 1279 074a F0060000 		.4byte	0x6f0
 1280 074e 08       		.byte	0x8
 1281 074f 08       		.uleb128 0x8
 1282 0750 723700   		.ascii	"r7\000"
 1283 0753 09       		.byte	0x9
 1284 0754 6F01     		.2byte	0x16f
 1285 0756 F0060000 		.4byte	0x6f0
 1286 075a 0C       		.byte	0xc
 1287 075b 08       		.uleb128 0x8
 1288 075c 723800   		.ascii	"r8\000"
 1289 075f 09       		.byte	0x9
 1290 0760 7001     		.2byte	0x170
 1291 0762 F0060000 		.4byte	0x6f0
 1292 0766 10       		.byte	0x10
 1293 0767 08       		.uleb128 0x8
 1294 0768 723900   		.ascii	"r9\000"
 1295 076b 09       		.byte	0x9
 1296 076c 7101     		.2byte	0x171
 1297 076e F0060000 		.4byte	0x6f0
 1298 0772 14       		.byte	0x14
 1299 0773 08       		.uleb128 0x8
 1300 0774 72313000 		.ascii	"r10\000"
 1301 0778 09       		.byte	0x9
 1302 0779 7201     		.2byte	0x172
 1303 077b F0060000 		.4byte	0x6f0
 1304 077f 18       		.byte	0x18
 1305 0780 08       		.uleb128 0x8
 1306 0781 72313100 		.ascii	"r11\000"
 1307 0785 09       		.byte	0x9
 1308 0786 7301     		.2byte	0x173
 1309 0788 F0060000 		.4byte	0x6f0
 1310 078c 1C       		.byte	0x1c
 1311 078d 08       		.uleb128 0x8
 1312 078e 6C7200   		.ascii	"lr\000"
 1313 0791 09       		.byte	0x9
 1314 0792 7401     		.2byte	0x174
 1315 0794 F0060000 		.4byte	0x6f0
ARM GAS  /tmp/ccUcytGS.s 			page 38


 1316 0798 20       		.byte	0x20
 1317 0799 00       		.byte	0
 1318 079a 0A       		.uleb128 0xa
 1319 079b 04       		.byte	0x4
 1320 079c 1E070000 		.4byte	0x71e
 1321 07a0 19       		.uleb128 0x19
 1322 07a1 04       		.byte	0x4
 1323 07a2 06       		.byte	0x6
 1324 07a3 D2       		.byte	0xd2
 1325 07a4 03080000 		.4byte	0x803
 1326 07a8 1A       		.uleb128 0x1a
 1327 07a9 DC010000 		.4byte	.LASF103
 1328 07ad 06       		.byte	0x6
 1329 07ae D9       		.byte	0xd9
 1330 07af 05010000 		.4byte	0x105
 1331 07b3 1A       		.uleb128 0x1a
 1332 07b4 71050000 		.4byte	.LASF104
 1333 07b8 06       		.byte	0x6
 1334 07b9 E0       		.byte	0xe0
 1335 07ba 05010000 		.4byte	0x105
 1336 07be 1A       		.uleb128 0x1a
 1337 07bf 7D000000 		.4byte	.LASF105
 1338 07c3 06       		.byte	0x6
 1339 07c4 E7       		.byte	0xe7
 1340 07c5 02030000 		.4byte	0x302
 1341 07c9 1A       		.uleb128 0x1a
 1342 07ca 23050000 		.4byte	.LASF106
 1343 07ce 06       		.byte	0x6
 1344 07cf EE       		.byte	0xee
 1345 07d0 03080000 		.4byte	0x803
 1346 07d4 1A       		.uleb128 0x1a
 1347 07d5 04010000 		.4byte	.LASF107
 1348 07d9 06       		.byte	0x6
 1349 07da F3       		.byte	0xf3
 1350 07db 05010000 		.4byte	0x105
 1351 07df 1A       		.uleb128 0x1a
 1352 07e0 1C050000 		.4byte	.LASF108
 1353 07e4 06       		.byte	0x6
 1354 07e5 FC       		.byte	0xfc
 1355 07e6 2E080000 		.4byte	0x82e
 1356 07ea 1B       		.uleb128 0x1b
 1357 07eb 16000000 		.4byte	.LASF109
 1358 07ef 06       		.byte	0x6
 1359 07f0 0501     		.2byte	0x105
 1360 07f2 65080000 		.4byte	0x865
 1361 07f6 1B       		.uleb128 0x1b
 1362 07f7 B3000000 		.4byte	.LASF110
 1363 07fb 06       		.byte	0x6
 1364 07fc 0D01     		.2byte	0x10d
 1365 07fe 10010000 		.4byte	0x110
 1366 0802 00       		.byte	0
 1367 0803 0A       		.uleb128 0xa
 1368 0804 04       		.byte	0x4
 1369 0805 1A020000 		.4byte	0x21a
 1370 0809 05       		.uleb128 0x5
 1371 080a 47010000 		.4byte	.LASF111
 1372 080e 0C       		.byte	0xc
ARM GAS  /tmp/ccUcytGS.s 			page 39


 1373 080f 0A       		.byte	0xa
 1374 0810 34       		.byte	0x34
 1375 0811 2E080000 		.4byte	0x82e
 1376 0815 06       		.uleb128 0x6
 1377 0816 AD040000 		.4byte	.LASF28
 1378 081a 0A       		.byte	0xa
 1379 081b 35       		.byte	0x35
 1380 081c 4F020000 		.4byte	0x24f
 1381 0820 00       		.byte	0
 1382 0821 07       		.uleb128 0x7
 1383 0822 636E7400 		.ascii	"cnt\000"
 1384 0826 0A       		.byte	0xa
 1385 0827 37       		.byte	0x37
 1386 0828 1B010000 		.4byte	0x11b
 1387 082c 08       		.byte	0x8
 1388 082d 00       		.byte	0
 1389 082e 0A       		.uleb128 0xa
 1390 082f 04       		.byte	0x4
 1391 0830 09080000 		.4byte	0x809
 1392 0834 05       		.uleb128 0x5
 1393 0835 EF010000 		.4byte	.LASF112
 1394 0839 10       		.byte	0x10
 1395 083a 0B       		.byte	0xb
 1396 083b 39       		.byte	0x39
 1397 083c 65080000 		.4byte	0x865
 1398 0840 06       		.uleb128 0x6
 1399 0841 AD040000 		.4byte	.LASF28
 1400 0845 0B       		.byte	0xb
 1401 0846 3A       		.byte	0x3a
 1402 0847 4F020000 		.4byte	0x24f
 1403 084b 00       		.byte	0
 1404 084c 06       		.uleb128 0x6
 1405 084d 9E010000 		.4byte	.LASF113
 1406 0851 0B       		.byte	0xb
 1407 0852 3C       		.byte	0x3c
 1408 0853 25020000 		.4byte	0x225
 1409 0857 08       		.byte	0x8
 1410 0858 06       		.uleb128 0x6
 1411 0859 55000000 		.4byte	.LASF47
 1412 085d 0B       		.byte	0xb
 1413 085e 3E       		.byte	0x3e
 1414 085f 99080000 		.4byte	0x899
 1415 0863 0C       		.byte	0xc
 1416 0864 00       		.byte	0
 1417 0865 0A       		.uleb128 0xa
 1418 0866 04       		.byte	0x4
 1419 0867 34080000 		.4byte	0x834
 1420 086b 0A       		.uleb128 0xa
 1421 086c 04       		.byte	0x4
 1422 086d 71080000 		.4byte	0x871
 1423 0871 18       		.uleb128 0x18
 1424 0872 76080000 		.4byte	0x876
 1425 0876 03       		.uleb128 0x3
 1426 0877 01       		.byte	0x1
 1427 0878 08       		.byte	0x8
 1428 0879 23020000 		.4byte	.LASF114
 1429 087d 0A       		.uleb128 0xa
ARM GAS  /tmp/ccUcytGS.s 			page 40


 1430 087e 04       		.byte	0x4
 1431 087f FB060000 		.4byte	0x6fb
 1432 0883 0A       		.uleb128 0xa
 1433 0884 04       		.byte	0x4
 1434 0885 04030000 		.4byte	0x304
 1435 0889 14       		.uleb128 0x14
 1436 088a 6B080000 		.4byte	0x86b
 1437 088e 04       		.uleb128 0x4
 1438 088f BB040000 		.4byte	.LASF115
 1439 0893 0B       		.byte	0xb
 1440 0894 34       		.byte	0x34
 1441 0895 34080000 		.4byte	0x834
 1442 0899 0A       		.uleb128 0xa
 1443 089a 04       		.byte	0x4
 1444 089b 8E080000 		.4byte	0x88e
 1445 089f 03       		.uleb128 0x3
 1446 08a0 01       		.byte	0x1
 1447 08a1 02       		.byte	0x2
 1448 08a2 E9010000 		.4byte	.LASF116
 1449 08a6 1C       		.uleb128 0x1c
 1450 08a7 82030000 		.4byte	.LASF117
 1451 08ab 01       		.byte	0x1
 1452 08ac 39       		.byte	0x39
 1453 08ad 00000000 		.4byte	.LFB219
 1454 08b1 2E000000 		.4byte	.LFE219-.LFB219
 1455 08b5 01       		.uleb128 0x1
 1456 08b6 9C       		.byte	0x9c
 1457 08b7 D8080000 		.4byte	0x8d8
 1458 08bb 1D       		.uleb128 0x1d
 1459 08bc 6E00     		.ascii	"n\000"
 1460 08be 01       		.byte	0x1
 1461 08bf 39       		.byte	0x39
 1462 08c0 C3000000 		.4byte	0xc3
 1463 08c4 00000000 		.4byte	.LLST0
 1464 08c8 1E       		.uleb128 0x1e
 1465 08c9 1E020000 		.4byte	.LASF29
 1466 08cd 01       		.byte	0x1
 1467 08ce 39       		.byte	0x39
 1468 08cf C3000000 		.4byte	0xc3
 1469 08d3 35000000 		.4byte	.LLST1
 1470 08d7 00       		.byte	0
 1471 08d8 1C       		.uleb128 0x1c
 1472 08d9 BA000000 		.4byte	.LASF118
 1473 08dd 01       		.byte	0x1
 1474 08de 4A       		.byte	0x4a
 1475 08df 00000000 		.4byte	.LFB220
 1476 08e3 28000000 		.4byte	.LFE220-.LFB220
 1477 08e7 01       		.uleb128 0x1
 1478 08e8 9C       		.byte	0x9c
 1479 08e9 FB080000 		.4byte	0x8fb
 1480 08ed 1D       		.uleb128 0x1d
 1481 08ee 6E00     		.ascii	"n\000"
 1482 08f0 01       		.byte	0x1
 1483 08f1 4A       		.byte	0x4a
 1484 08f2 C3000000 		.4byte	0xc3
 1485 08f6 56000000 		.4byte	.LLST2
 1486 08fa 00       		.byte	0
ARM GAS  /tmp/ccUcytGS.s 			page 41


 1487 08fb 1C       		.uleb128 0x1c
 1488 08fc 80050000 		.4byte	.LASF119
 1489 0900 01       		.byte	0x1
 1490 0901 5A       		.byte	0x5a
 1491 0902 00000000 		.4byte	.LFB221
 1492 0906 10000000 		.4byte	.LFE221-.LFB221
 1493 090a 01       		.uleb128 0x1
 1494 090b 9C       		.byte	0x9c
 1495 090c 38090000 		.4byte	0x938
 1496 0910 1E       		.uleb128 0x1e
 1497 0911 84000000 		.4byte	.LASF120
 1498 0915 01       		.byte	0x1
 1499 0916 5A       		.byte	0x5a
 1500 0917 C3000000 		.4byte	0xc3
 1501 091b 77000000 		.4byte	.LLST3
 1502 091f 1E       		.uleb128 0x1e
 1503 0920 1E020000 		.4byte	.LASF29
 1504 0924 01       		.byte	0x1
 1505 0925 5A       		.byte	0x5a
 1506 0926 C3000000 		.4byte	0xc3
 1507 092a AC000000 		.4byte	.LLST4
 1508 092e 1F       		.uleb128 0x1f
 1509 092f 01040000 		.4byte	.LASF126
 1510 0933 48090000 		.4byte	0x948
 1511 0937 00       		.byte	0
 1512 0938 12       		.uleb128 0x12
 1513 0939 76080000 		.4byte	0x876
 1514 093d 48090000 		.4byte	0x948
 1515 0941 13       		.uleb128 0x13
 1516 0942 EA040000 		.4byte	0x4ea
 1517 0946 1C       		.byte	0x1c
 1518 0947 00       		.byte	0
 1519 0948 18       		.uleb128 0x18
 1520 0949 38090000 		.4byte	0x938
 1521 094d 1C       		.uleb128 0x1c
 1522 094e 08020000 		.4byte	.LASF121
 1523 0952 01       		.byte	0x1
 1524 0953 6D       		.byte	0x6d
 1525 0954 00000000 		.4byte	.LFB222
 1526 0958 1A000000 		.4byte	.LFE222-.LFB222
 1527 095c 01       		.uleb128 0x1
 1528 095d 9C       		.byte	0x9c
 1529 095e 70090000 		.4byte	0x970
 1530 0962 1D       		.uleb128 0x1d
 1531 0963 6E00     		.ascii	"n\000"
 1532 0965 01       		.byte	0x1
 1533 0966 6D       		.byte	0x6d
 1534 0967 C3000000 		.4byte	0xc3
 1535 096b CD000000 		.4byte	.LLST5
 1536 096f 00       		.byte	0
 1537 0970 20       		.uleb128 0x20
 1538 0971 EA030000 		.4byte	.LASF122
 1539 0975 07       		.byte	0x7
 1540 0976 9606     		.2byte	0x696
 1541 0978 7C090000 		.4byte	0x97c
 1542 097c 14       		.uleb128 0x14
 1543 097d B8000000 		.4byte	0xb8
ARM GAS  /tmp/ccUcytGS.s 			page 42


 1544 0981 21       		.uleb128 0x21
 1545 0982 636800   		.ascii	"ch\000"
 1546 0985 06       		.byte	0x6
 1547 0986 D201     		.2byte	0x1d2
 1548 0988 D1030000 		.4byte	0x3d1
 1549 098c 00       		.byte	0
 1550              		.section	.debug_abbrev,"",%progbits
 1551              	.Ldebug_abbrev0:
 1552 0000 01       		.uleb128 0x1
 1553 0001 11       		.uleb128 0x11
 1554 0002 01       		.byte	0x1
 1555 0003 25       		.uleb128 0x25
 1556 0004 0E       		.uleb128 0xe
 1557 0005 13       		.uleb128 0x13
 1558 0006 0B       		.uleb128 0xb
 1559 0007 03       		.uleb128 0x3
 1560 0008 0E       		.uleb128 0xe
 1561 0009 1B       		.uleb128 0x1b
 1562 000a 0E       		.uleb128 0xe
 1563 000b 55       		.uleb128 0x55
 1564 000c 17       		.uleb128 0x17
 1565 000d 11       		.uleb128 0x11
 1566 000e 01       		.uleb128 0x1
 1567 000f 10       		.uleb128 0x10
 1568 0010 17       		.uleb128 0x17
 1569 0011 00       		.byte	0
 1570 0012 00       		.byte	0
 1571 0013 02       		.uleb128 0x2
 1572 0014 24       		.uleb128 0x24
 1573 0015 00       		.byte	0
 1574 0016 0B       		.uleb128 0xb
 1575 0017 0B       		.uleb128 0xb
 1576 0018 3E       		.uleb128 0x3e
 1577 0019 0B       		.uleb128 0xb
 1578 001a 03       		.uleb128 0x3
 1579 001b 08       		.uleb128 0x8
 1580 001c 00       		.byte	0
 1581 001d 00       		.byte	0
 1582 001e 03       		.uleb128 0x3
 1583 001f 24       		.uleb128 0x24
 1584 0020 00       		.byte	0
 1585 0021 0B       		.uleb128 0xb
 1586 0022 0B       		.uleb128 0xb
 1587 0023 3E       		.uleb128 0x3e
 1588 0024 0B       		.uleb128 0xb
 1589 0025 03       		.uleb128 0x3
 1590 0026 0E       		.uleb128 0xe
 1591 0027 00       		.byte	0
 1592 0028 00       		.byte	0
 1593 0029 04       		.uleb128 0x4
 1594 002a 16       		.uleb128 0x16
 1595 002b 00       		.byte	0
 1596 002c 03       		.uleb128 0x3
 1597 002d 0E       		.uleb128 0xe
 1598 002e 3A       		.uleb128 0x3a
 1599 002f 0B       		.uleb128 0xb
 1600 0030 3B       		.uleb128 0x3b
ARM GAS  /tmp/ccUcytGS.s 			page 43


 1601 0031 0B       		.uleb128 0xb
 1602 0032 49       		.uleb128 0x49
 1603 0033 13       		.uleb128 0x13
 1604 0034 00       		.byte	0
 1605 0035 00       		.byte	0
 1606 0036 05       		.uleb128 0x5
 1607 0037 13       		.uleb128 0x13
 1608 0038 01       		.byte	0x1
 1609 0039 03       		.uleb128 0x3
 1610 003a 0E       		.uleb128 0xe
 1611 003b 0B       		.uleb128 0xb
 1612 003c 0B       		.uleb128 0xb
 1613 003d 3A       		.uleb128 0x3a
 1614 003e 0B       		.uleb128 0xb
 1615 003f 3B       		.uleb128 0x3b
 1616 0040 0B       		.uleb128 0xb
 1617 0041 01       		.uleb128 0x1
 1618 0042 13       		.uleb128 0x13
 1619 0043 00       		.byte	0
 1620 0044 00       		.byte	0
 1621 0045 06       		.uleb128 0x6
 1622 0046 0D       		.uleb128 0xd
 1623 0047 00       		.byte	0
 1624 0048 03       		.uleb128 0x3
 1625 0049 0E       		.uleb128 0xe
 1626 004a 3A       		.uleb128 0x3a
 1627 004b 0B       		.uleb128 0xb
 1628 004c 3B       		.uleb128 0x3b
 1629 004d 0B       		.uleb128 0xb
 1630 004e 49       		.uleb128 0x49
 1631 004f 13       		.uleb128 0x13
 1632 0050 38       		.uleb128 0x38
 1633 0051 0B       		.uleb128 0xb
 1634 0052 00       		.byte	0
 1635 0053 00       		.byte	0
 1636 0054 07       		.uleb128 0x7
 1637 0055 0D       		.uleb128 0xd
 1638 0056 00       		.byte	0
 1639 0057 03       		.uleb128 0x3
 1640 0058 08       		.uleb128 0x8
 1641 0059 3A       		.uleb128 0x3a
 1642 005a 0B       		.uleb128 0xb
 1643 005b 3B       		.uleb128 0x3b
 1644 005c 0B       		.uleb128 0xb
 1645 005d 49       		.uleb128 0x49
 1646 005e 13       		.uleb128 0x13
 1647 005f 38       		.uleb128 0x38
 1648 0060 0B       		.uleb128 0xb
 1649 0061 00       		.byte	0
 1650 0062 00       		.byte	0
 1651 0063 08       		.uleb128 0x8
 1652 0064 0D       		.uleb128 0xd
 1653 0065 00       		.byte	0
 1654 0066 03       		.uleb128 0x3
 1655 0067 08       		.uleb128 0x8
 1656 0068 3A       		.uleb128 0x3a
 1657 0069 0B       		.uleb128 0xb
ARM GAS  /tmp/ccUcytGS.s 			page 44


 1658 006a 3B       		.uleb128 0x3b
 1659 006b 05       		.uleb128 0x5
 1660 006c 49       		.uleb128 0x49
 1661 006d 13       		.uleb128 0x13
 1662 006e 38       		.uleb128 0x38
 1663 006f 0B       		.uleb128 0xb
 1664 0070 00       		.byte	0
 1665 0071 00       		.byte	0
 1666 0072 09       		.uleb128 0x9
 1667 0073 0D       		.uleb128 0xd
 1668 0074 00       		.byte	0
 1669 0075 03       		.uleb128 0x3
 1670 0076 0E       		.uleb128 0xe
 1671 0077 3A       		.uleb128 0x3a
 1672 0078 0B       		.uleb128 0xb
 1673 0079 3B       		.uleb128 0x3b
 1674 007a 05       		.uleb128 0x5
 1675 007b 49       		.uleb128 0x49
 1676 007c 13       		.uleb128 0x13
 1677 007d 38       		.uleb128 0x38
 1678 007e 0B       		.uleb128 0xb
 1679 007f 00       		.byte	0
 1680 0080 00       		.byte	0
 1681 0081 0A       		.uleb128 0xa
 1682 0082 0F       		.uleb128 0xf
 1683 0083 00       		.byte	0
 1684 0084 0B       		.uleb128 0xb
 1685 0085 0B       		.uleb128 0xb
 1686 0086 49       		.uleb128 0x49
 1687 0087 13       		.uleb128 0x13
 1688 0088 00       		.byte	0
 1689 0089 00       		.byte	0
 1690 008a 0B       		.uleb128 0xb
 1691 008b 13       		.uleb128 0x13
 1692 008c 01       		.byte	0x1
 1693 008d 03       		.uleb128 0x3
 1694 008e 0E       		.uleb128 0xe
 1695 008f 0B       		.uleb128 0xb
 1696 0090 0B       		.uleb128 0xb
 1697 0091 3A       		.uleb128 0x3a
 1698 0092 0B       		.uleb128 0xb
 1699 0093 3B       		.uleb128 0x3b
 1700 0094 05       		.uleb128 0x5
 1701 0095 01       		.uleb128 0x1
 1702 0096 13       		.uleb128 0x13
 1703 0097 00       		.byte	0
 1704 0098 00       		.byte	0
 1705 0099 0C       		.uleb128 0xc
 1706 009a 15       		.uleb128 0x15
 1707 009b 01       		.byte	0x1
 1708 009c 27       		.uleb128 0x27
 1709 009d 19       		.uleb128 0x19
 1710 009e 01       		.uleb128 0x1
 1711 009f 13       		.uleb128 0x13
 1712 00a0 00       		.byte	0
 1713 00a1 00       		.byte	0
 1714 00a2 0D       		.uleb128 0xd
ARM GAS  /tmp/ccUcytGS.s 			page 45


 1715 00a3 05       		.uleb128 0x5
 1716 00a4 00       		.byte	0
 1717 00a5 49       		.uleb128 0x49
 1718 00a6 13       		.uleb128 0x13
 1719 00a7 00       		.byte	0
 1720 00a8 00       		.byte	0
 1721 00a9 0E       		.uleb128 0xe
 1722 00aa 0F       		.uleb128 0xf
 1723 00ab 00       		.byte	0
 1724 00ac 0B       		.uleb128 0xb
 1725 00ad 0B       		.uleb128 0xb
 1726 00ae 00       		.byte	0
 1727 00af 00       		.byte	0
 1728 00b0 0F       		.uleb128 0xf
 1729 00b1 13       		.uleb128 0x13
 1730 00b2 01       		.byte	0x1
 1731 00b3 0B       		.uleb128 0xb
 1732 00b4 05       		.uleb128 0x5
 1733 00b5 3A       		.uleb128 0x3a
 1734 00b6 0B       		.uleb128 0xb
 1735 00b7 3B       		.uleb128 0x3b
 1736 00b8 05       		.uleb128 0x5
 1737 00b9 01       		.uleb128 0x1
 1738 00ba 13       		.uleb128 0x13
 1739 00bb 00       		.byte	0
 1740 00bc 00       		.byte	0
 1741 00bd 10       		.uleb128 0x10
 1742 00be 0D       		.uleb128 0xd
 1743 00bf 00       		.byte	0
 1744 00c0 03       		.uleb128 0x3
 1745 00c1 0E       		.uleb128 0xe
 1746 00c2 3A       		.uleb128 0x3a
 1747 00c3 0B       		.uleb128 0xb
 1748 00c4 3B       		.uleb128 0x3b
 1749 00c5 05       		.uleb128 0x5
 1750 00c6 49       		.uleb128 0x49
 1751 00c7 13       		.uleb128 0x13
 1752 00c8 38       		.uleb128 0x38
 1753 00c9 05       		.uleb128 0x5
 1754 00ca 00       		.byte	0
 1755 00cb 00       		.byte	0
 1756 00cc 11       		.uleb128 0x11
 1757 00cd 0D       		.uleb128 0xd
 1758 00ce 00       		.byte	0
 1759 00cf 03       		.uleb128 0x3
 1760 00d0 08       		.uleb128 0x8
 1761 00d1 3A       		.uleb128 0x3a
 1762 00d2 0B       		.uleb128 0xb
 1763 00d3 3B       		.uleb128 0x3b
 1764 00d4 05       		.uleb128 0x5
 1765 00d5 49       		.uleb128 0x49
 1766 00d6 13       		.uleb128 0x13
 1767 00d7 38       		.uleb128 0x38
 1768 00d8 05       		.uleb128 0x5
 1769 00d9 00       		.byte	0
 1770 00da 00       		.byte	0
 1771 00db 12       		.uleb128 0x12
ARM GAS  /tmp/ccUcytGS.s 			page 46


 1772 00dc 01       		.uleb128 0x1
 1773 00dd 01       		.byte	0x1
 1774 00de 49       		.uleb128 0x49
 1775 00df 13       		.uleb128 0x13
 1776 00e0 01       		.uleb128 0x1
 1777 00e1 13       		.uleb128 0x13
 1778 00e2 00       		.byte	0
 1779 00e3 00       		.byte	0
 1780 00e4 13       		.uleb128 0x13
 1781 00e5 21       		.uleb128 0x21
 1782 00e6 00       		.byte	0
 1783 00e7 49       		.uleb128 0x49
 1784 00e8 13       		.uleb128 0x13
 1785 00e9 2F       		.uleb128 0x2f
 1786 00ea 0B       		.uleb128 0xb
 1787 00eb 00       		.byte	0
 1788 00ec 00       		.byte	0
 1789 00ed 14       		.uleb128 0x14
 1790 00ee 35       		.uleb128 0x35
 1791 00ef 00       		.byte	0
 1792 00f0 49       		.uleb128 0x49
 1793 00f1 13       		.uleb128 0x13
 1794 00f2 00       		.byte	0
 1795 00f3 00       		.byte	0
 1796 00f4 15       		.uleb128 0x15
 1797 00f5 21       		.uleb128 0x21
 1798 00f6 00       		.byte	0
 1799 00f7 49       		.uleb128 0x49
 1800 00f8 13       		.uleb128 0x13
 1801 00f9 2F       		.uleb128 0x2f
 1802 00fa 05       		.uleb128 0x5
 1803 00fb 00       		.byte	0
 1804 00fc 00       		.byte	0
 1805 00fd 16       		.uleb128 0x16
 1806 00fe 16       		.uleb128 0x16
 1807 00ff 00       		.byte	0
 1808 0100 03       		.uleb128 0x3
 1809 0101 0E       		.uleb128 0xe
 1810 0102 3A       		.uleb128 0x3a
 1811 0103 0B       		.uleb128 0xb
 1812 0104 3B       		.uleb128 0x3b
 1813 0105 05       		.uleb128 0x5
 1814 0106 49       		.uleb128 0x49
 1815 0107 13       		.uleb128 0x13
 1816 0108 00       		.byte	0
 1817 0109 00       		.byte	0
 1818 010a 17       		.uleb128 0x17
 1819 010b 13       		.uleb128 0x13
 1820 010c 01       		.byte	0x1
 1821 010d 0B       		.uleb128 0xb
 1822 010e 0B       		.uleb128 0xb
 1823 010f 3A       		.uleb128 0x3a
 1824 0110 0B       		.uleb128 0xb
 1825 0111 3B       		.uleb128 0x3b
 1826 0112 05       		.uleb128 0x5
 1827 0113 01       		.uleb128 0x1
 1828 0114 13       		.uleb128 0x13
ARM GAS  /tmp/ccUcytGS.s 			page 47


 1829 0115 00       		.byte	0
 1830 0116 00       		.byte	0
 1831 0117 18       		.uleb128 0x18
 1832 0118 26       		.uleb128 0x26
 1833 0119 00       		.byte	0
 1834 011a 49       		.uleb128 0x49
 1835 011b 13       		.uleb128 0x13
 1836 011c 00       		.byte	0
 1837 011d 00       		.byte	0
 1838 011e 19       		.uleb128 0x19
 1839 011f 17       		.uleb128 0x17
 1840 0120 01       		.byte	0x1
 1841 0121 0B       		.uleb128 0xb
 1842 0122 0B       		.uleb128 0xb
 1843 0123 3A       		.uleb128 0x3a
 1844 0124 0B       		.uleb128 0xb
 1845 0125 3B       		.uleb128 0x3b
 1846 0126 0B       		.uleb128 0xb
 1847 0127 01       		.uleb128 0x1
 1848 0128 13       		.uleb128 0x13
 1849 0129 00       		.byte	0
 1850 012a 00       		.byte	0
 1851 012b 1A       		.uleb128 0x1a
 1852 012c 0D       		.uleb128 0xd
 1853 012d 00       		.byte	0
 1854 012e 03       		.uleb128 0x3
 1855 012f 0E       		.uleb128 0xe
 1856 0130 3A       		.uleb128 0x3a
 1857 0131 0B       		.uleb128 0xb
 1858 0132 3B       		.uleb128 0x3b
 1859 0133 0B       		.uleb128 0xb
 1860 0134 49       		.uleb128 0x49
 1861 0135 13       		.uleb128 0x13
 1862 0136 00       		.byte	0
 1863 0137 00       		.byte	0
 1864 0138 1B       		.uleb128 0x1b
 1865 0139 0D       		.uleb128 0xd
 1866 013a 00       		.byte	0
 1867 013b 03       		.uleb128 0x3
 1868 013c 0E       		.uleb128 0xe
 1869 013d 3A       		.uleb128 0x3a
 1870 013e 0B       		.uleb128 0xb
 1871 013f 3B       		.uleb128 0x3b
 1872 0140 05       		.uleb128 0x5
 1873 0141 49       		.uleb128 0x49
 1874 0142 13       		.uleb128 0x13
 1875 0143 00       		.byte	0
 1876 0144 00       		.byte	0
 1877 0145 1C       		.uleb128 0x1c
 1878 0146 2E       		.uleb128 0x2e
 1879 0147 01       		.byte	0x1
 1880 0148 3F       		.uleb128 0x3f
 1881 0149 19       		.uleb128 0x19
 1882 014a 03       		.uleb128 0x3
 1883 014b 0E       		.uleb128 0xe
 1884 014c 3A       		.uleb128 0x3a
 1885 014d 0B       		.uleb128 0xb
ARM GAS  /tmp/ccUcytGS.s 			page 48


 1886 014e 3B       		.uleb128 0x3b
 1887 014f 0B       		.uleb128 0xb
 1888 0150 27       		.uleb128 0x27
 1889 0151 19       		.uleb128 0x19
 1890 0152 11       		.uleb128 0x11
 1891 0153 01       		.uleb128 0x1
 1892 0154 12       		.uleb128 0x12
 1893 0155 06       		.uleb128 0x6
 1894 0156 40       		.uleb128 0x40
 1895 0157 18       		.uleb128 0x18
 1896 0158 9742     		.uleb128 0x2117
 1897 015a 19       		.uleb128 0x19
 1898 015b 01       		.uleb128 0x1
 1899 015c 13       		.uleb128 0x13
 1900 015d 00       		.byte	0
 1901 015e 00       		.byte	0
 1902 015f 1D       		.uleb128 0x1d
 1903 0160 05       		.uleb128 0x5
 1904 0161 00       		.byte	0
 1905 0162 03       		.uleb128 0x3
 1906 0163 08       		.uleb128 0x8
 1907 0164 3A       		.uleb128 0x3a
 1908 0165 0B       		.uleb128 0xb
 1909 0166 3B       		.uleb128 0x3b
 1910 0167 0B       		.uleb128 0xb
 1911 0168 49       		.uleb128 0x49
 1912 0169 13       		.uleb128 0x13
 1913 016a 02       		.uleb128 0x2
 1914 016b 17       		.uleb128 0x17
 1915 016c 00       		.byte	0
 1916 016d 00       		.byte	0
 1917 016e 1E       		.uleb128 0x1e
 1918 016f 05       		.uleb128 0x5
 1919 0170 00       		.byte	0
 1920 0171 03       		.uleb128 0x3
 1921 0172 0E       		.uleb128 0xe
 1922 0173 3A       		.uleb128 0x3a
 1923 0174 0B       		.uleb128 0xb
 1924 0175 3B       		.uleb128 0x3b
 1925 0176 0B       		.uleb128 0xb
 1926 0177 49       		.uleb128 0x49
 1927 0178 13       		.uleb128 0x13
 1928 0179 02       		.uleb128 0x2
 1929 017a 17       		.uleb128 0x17
 1930 017b 00       		.byte	0
 1931 017c 00       		.byte	0
 1932 017d 1F       		.uleb128 0x1f
 1933 017e 34       		.uleb128 0x34
 1934 017f 00       		.byte	0
 1935 0180 03       		.uleb128 0x3
 1936 0181 0E       		.uleb128 0xe
 1937 0182 49       		.uleb128 0x49
 1938 0183 13       		.uleb128 0x13
 1939 0184 34       		.uleb128 0x34
 1940 0185 19       		.uleb128 0x19
 1941 0186 00       		.byte	0
 1942 0187 00       		.byte	0
ARM GAS  /tmp/ccUcytGS.s 			page 49


 1943 0188 20       		.uleb128 0x20
 1944 0189 34       		.uleb128 0x34
 1945 018a 00       		.byte	0
 1946 018b 03       		.uleb128 0x3
 1947 018c 0E       		.uleb128 0xe
 1948 018d 3A       		.uleb128 0x3a
 1949 018e 0B       		.uleb128 0xb
 1950 018f 3B       		.uleb128 0x3b
 1951 0190 05       		.uleb128 0x5
 1952 0191 49       		.uleb128 0x49
 1953 0192 13       		.uleb128 0x13
 1954 0193 3F       		.uleb128 0x3f
 1955 0194 19       		.uleb128 0x19
 1956 0195 3C       		.uleb128 0x3c
 1957 0196 19       		.uleb128 0x19
 1958 0197 00       		.byte	0
 1959 0198 00       		.byte	0
 1960 0199 21       		.uleb128 0x21
 1961 019a 34       		.uleb128 0x34
 1962 019b 00       		.byte	0
 1963 019c 03       		.uleb128 0x3
 1964 019d 08       		.uleb128 0x8
 1965 019e 3A       		.uleb128 0x3a
 1966 019f 0B       		.uleb128 0xb
 1967 01a0 3B       		.uleb128 0x3b
 1968 01a1 05       		.uleb128 0x5
 1969 01a2 49       		.uleb128 0x49
 1970 01a3 13       		.uleb128 0x13
 1971 01a4 3F       		.uleb128 0x3f
 1972 01a5 19       		.uleb128 0x19
 1973 01a6 3C       		.uleb128 0x3c
 1974 01a7 19       		.uleb128 0x19
 1975 01a8 00       		.byte	0
 1976 01a9 00       		.byte	0
 1977 01aa 00       		.byte	0
 1978              		.section	.debug_loc,"",%progbits
 1979              	.Ldebug_loc0:
 1980              	.LLST0:
 1981 0000 00000000 		.4byte	.LVL0
 1982 0004 14000000 		.4byte	.LVL2
 1983 0008 0100     		.2byte	0x1
 1984 000a 50       		.byte	0x50
 1985 000b 14000000 		.4byte	.LVL2
 1986 000f 22000000 		.4byte	.LVL3
 1987 0013 0700     		.2byte	0x7
 1988 0015 70       		.byte	0x70
 1989 0016 80808080 		.sleb128 536870912
 1989      02
 1990 001b 9F       		.byte	0x9f
 1991 001c 22000000 		.4byte	.LVL3
 1992 0020 2E000000 		.4byte	.LFE219
 1993 0024 0700     		.2byte	0x7
 1994 0026 70       		.byte	0x70
 1995 0027 80BEFCFF 		.sleb128 536813312
 1995      01
 1996 002c 9F       		.byte	0x9f
 1997 002d 00000000 		.4byte	0
ARM GAS  /tmp/ccUcytGS.s 			page 50


 1998 0031 00000000 		.4byte	0
 1999              	.LLST1:
 2000 0035 00000000 		.4byte	.LVL0
 2001 0039 10000000 		.4byte	.LVL1
 2002 003d 0100     		.2byte	0x1
 2003 003f 51       		.byte	0x51
 2004 0040 10000000 		.4byte	.LVL1
 2005 0044 2E000000 		.4byte	.LFE219
 2006 0048 0400     		.2byte	0x4
 2007 004a F3       		.byte	0xf3
 2008 004b 01       		.uleb128 0x1
 2009 004c 51       		.byte	0x51
 2010 004d 9F       		.byte	0x9f
 2011 004e 00000000 		.4byte	0
 2012 0052 00000000 		.4byte	0
 2013              	.LLST2:
 2014 0056 00000000 		.4byte	.LVL4
 2015 005a 18000000 		.4byte	.LVL5
 2016 005e 0100     		.2byte	0x1
 2017 0060 50       		.byte	0x50
 2018 0061 18000000 		.4byte	.LVL5
 2019 0065 28000000 		.4byte	.LFE220
 2020 0069 0400     		.2byte	0x4
 2021 006b F3       		.byte	0xf3
 2022 006c 01       		.uleb128 0x1
 2023 006d 50       		.byte	0x50
 2024 006e 9F       		.byte	0x9f
 2025 006f 00000000 		.4byte	0
 2026 0073 00000000 		.4byte	0
 2027              	.LLST3:
 2028 0077 00000000 		.4byte	.LVL6
 2029 007b 06000000 		.4byte	.LVL8
 2030 007f 0100     		.2byte	0x1
 2031 0081 50       		.byte	0x50
 2032 0082 06000000 		.4byte	.LVL8
 2033 0086 0C000000 		.4byte	.LVL9
 2034 008a 0700     		.2byte	0x7
 2035 008c 70       		.byte	0x70
 2036 008d 80808080 		.sleb128 536870912
 2036      02
 2037 0092 9F       		.byte	0x9f
 2038 0093 0C000000 		.4byte	.LVL9
 2039 0097 10000000 		.4byte	.LFE221
 2040 009b 0700     		.2byte	0x7
 2041 009d 70       		.byte	0x70
 2042 009e 80A6FCFF 		.sleb128 536810240
 2042      01
 2043 00a3 9F       		.byte	0x9f
 2044 00a4 00000000 		.4byte	0
 2045 00a8 00000000 		.4byte	0
 2046              	.LLST4:
 2047 00ac 00000000 		.4byte	.LVL6
 2048 00b0 02000000 		.4byte	.LVL7
 2049 00b4 0100     		.2byte	0x1
 2050 00b6 51       		.byte	0x51
 2051 00b7 02000000 		.4byte	.LVL7
 2052 00bb 10000000 		.4byte	.LFE221
ARM GAS  /tmp/ccUcytGS.s 			page 51


 2053 00bf 0400     		.2byte	0x4
 2054 00c1 F3       		.byte	0xf3
 2055 00c2 01       		.uleb128 0x1
 2056 00c3 51       		.byte	0x51
 2057 00c4 9F       		.byte	0x9f
 2058 00c5 00000000 		.4byte	0
 2059 00c9 00000000 		.4byte	0
 2060              	.LLST5:
 2061 00cd 00000000 		.4byte	.LVL10
 2062 00d1 0A000000 		.4byte	.LVL11
 2063 00d5 0100     		.2byte	0x1
 2064 00d7 50       		.byte	0x50
 2065 00d8 0A000000 		.4byte	.LVL11
 2066 00dc 1A000000 		.4byte	.LFE222
 2067 00e0 0400     		.2byte	0x4
 2068 00e2 F3       		.byte	0xf3
 2069 00e3 01       		.uleb128 0x1
 2070 00e4 50       		.byte	0x50
 2071 00e5 9F       		.byte	0x9f
 2072 00e6 00000000 		.4byte	0
 2073 00ea 00000000 		.4byte	0
 2074              		.section	.debug_aranges,"",%progbits
 2075 0000 34000000 		.4byte	0x34
 2076 0004 0200     		.2byte	0x2
 2077 0006 00000000 		.4byte	.Ldebug_info0
 2078 000a 04       		.byte	0x4
 2079 000b 00       		.byte	0
 2080 000c 0000     		.2byte	0
 2081 000e 0000     		.2byte	0
 2082 0010 00000000 		.4byte	.LFB219
 2083 0014 2E000000 		.4byte	.LFE219-.LFB219
 2084 0018 00000000 		.4byte	.LFB220
 2085 001c 28000000 		.4byte	.LFE220-.LFB220
 2086 0020 00000000 		.4byte	.LFB221
 2087 0024 10000000 		.4byte	.LFE221-.LFB221
 2088 0028 00000000 		.4byte	.LFB222
 2089 002c 1A000000 		.4byte	.LFE222-.LFB222
 2090 0030 00000000 		.4byte	0
 2091 0034 00000000 		.4byte	0
 2092              		.section	.debug_ranges,"",%progbits
 2093              	.Ldebug_ranges0:
 2094 0000 00000000 		.4byte	.LFB219
 2095 0004 2E000000 		.4byte	.LFE219
 2096 0008 00000000 		.4byte	.LFB220
 2097 000c 28000000 		.4byte	.LFE220
 2098 0010 00000000 		.4byte	.LFB221
 2099 0014 10000000 		.4byte	.LFE221
 2100 0018 00000000 		.4byte	.LFB222
 2101 001c 1A000000 		.4byte	.LFE222
 2102 0020 00000000 		.4byte	0
 2103 0024 00000000 		.4byte	0
 2104              		.section	.debug_line,"",%progbits
 2105              	.Ldebug_line0:
 2106 0000 B8010000 		.section	.debug_str,"MS",%progbits,1
 2106      02006601 
 2106      00000201 
 2106      FB0E0D00 
ARM GAS  /tmp/ccUcytGS.s 			page 52


 2106      01010101 
 2107              	.LASF46:
 2108 0000 63685F74 		.ascii	"ch_threads_list\000"
 2108      68726561 
 2108      64735F6C 
 2108      69737400 
 2109              	.LASF97:
 2110 0010 43504143 		.ascii	"CPACR\000"
 2110      5200
 2111              	.LASF109:
 2112 0016 77746D74 		.ascii	"wtmtxp\000"
 2112      787000
 2113              	.LASF99:
 2114 001d 72656761 		.ascii	"regarm_t\000"
 2114      726D5F74 
 2114      00
 2115              	.LASF35:
 2116 0026 666C6167 		.ascii	"flags\000"
 2116      7300
 2117              	.LASF26:
 2118 002c 73797374 		.ascii	"systime_t\000"
 2118      696D655F 
 2118      7400
 2119              	.LASF41:
 2120 0036 7265616C 		.ascii	"realprio\000"
 2120      7072696F 
 2120      00
 2121              	.LASF39:
 2122 003f 6570656E 		.ascii	"epending\000"
 2122      64696E67 
 2122      00
 2123              	.LASF0:
 2124 0048 756E7369 		.ascii	"unsigned int\000"
 2124      676E6564 
 2124      20696E74 
 2124      00
 2125              	.LASF47:
 2126 0055 6E657874 		.ascii	"next\000"
 2126      00
 2127              	.LASF44:
 2128 005a 74687265 		.ascii	"threads_list_t\000"
 2128      6164735F 
 2128      6C697374 
 2128      5F7400
 2129              	.LASF91:
 2130 0069 44465352 		.ascii	"DFSR\000"
 2130      00
 2131              	.LASF7:
 2132 006e 5F5F696E 		.ascii	"__int32_t\000"
 2132      7433325F 
 2132      7400
 2133              	.LASF36:
 2134 0078 72656673 		.ascii	"refs\000"
 2134      00
 2135              	.LASF105:
 2136 007d 77746F62 		.ascii	"wtobjp\000"
 2136      6A7000
ARM GAS  /tmp/ccUcytGS.s 			page 53


 2137              	.LASF120:
 2138 0084 68616E64 		.ascii	"handler\000"
 2138      6C657200 
 2139              	.LASF68:
 2140 008c 76746C69 		.ascii	"vtlist\000"
 2140      737400
 2141              	.LASF101:
 2142 0093 706F7274 		.ascii	"port_context\000"
 2142      5F636F6E 
 2142      74657874 
 2142      00
 2143              	.LASF52:
 2144 00a0 63685F72 		.ascii	"ch_ready_list\000"
 2144      65616479 
 2144      5F6C6973 
 2144      7400
 2145              	.LASF58:
 2146 00ae 66756E63 		.ascii	"func\000"
 2146      00
 2147              	.LASF110:
 2148 00b3 65776D61 		.ascii	"ewmask\000"
 2148      736B00
 2149              	.LASF118:
 2150 00ba 6E766963 		.ascii	"nvicDisableVector\000"
 2150      44697361 
 2150      626C6556 
 2150      6563746F 
 2150      7200
 2151              	.LASF50:
 2152 00cc 70726576 		.ascii	"prev\000"
 2152      00
 2153              	.LASF49:
 2154 00d1 63685F74 		.ascii	"ch_threads_queue\000"
 2154      68726561 
 2154      64735F71 
 2154      75657565 
 2154      00
 2155              	.LASF54:
 2156 00e2 76746675 		.ascii	"vtfunc_t\000"
 2156      6E635F74 
 2156      00
 2157              	.LASF63:
 2158 00eb 63685F73 		.ascii	"ch_system_debug\000"
 2158      79737465 
 2158      6D5F6465 
 2158      62756700 
 2159              	.LASF17:
 2160 00fb 75696E74 		.ascii	"uint32_t\000"
 2160      33325F74 
 2160      00
 2161              	.LASF107:
 2162 0104 73656E74 		.ascii	"sentmsg\000"
 2162      6D736700 
 2163              	.LASF124:
 2164 010c 2E2E2F6F 		.ascii	"../os/hal/ports/common/ARMCMx/nvic.c\000"
 2164      732F6861 
 2164      6C2F706F 
ARM GAS  /tmp/ccUcytGS.s 			page 54


 2164      7274732F 
 2164      636F6D6D 
 2165              	.LASF95:
 2166 0131 4D4D4652 		.ascii	"MMFR\000"
 2166      00
 2167              	.LASF24:
 2168 0136 6576656E 		.ascii	"eventmask_t\000"
 2168      746D6173 
 2168      6B5F7400 
 2169              	.LASF70:
 2170 0142 49534552 		.ascii	"ISER\000"
 2170      00
 2171              	.LASF111:
 2172 0147 63685F73 		.ascii	"ch_semaphore\000"
 2172      656D6170 
 2172      686F7265 
 2172      00
 2173              	.LASF22:
 2174 0154 74707269 		.ascii	"tprio_t\000"
 2174      6F5F7400 
 2175              	.LASF73:
 2176 015c 52534552 		.ascii	"RSERVED1\000"
 2176      56454431 
 2176      00
 2177              	.LASF56:
 2178 0165 63685F76 		.ascii	"ch_virtual_timer\000"
 2178      69727475 
 2178      616C5F74 
 2178      696D6572 
 2178      00
 2179              	.LASF13:
 2180 0176 6C6F6E67 		.ascii	"long long unsigned int\000"
 2180      206C6F6E 
 2180      6720756E 
 2180      7369676E 
 2180      65642069 
 2181              	.LASF5:
 2182 018d 5F5F7569 		.ascii	"__uint16_t\000"
 2182      6E743136 
 2182      5F7400
 2183              	.LASF25:
 2184 0198 636E745F 		.ascii	"cnt_t\000"
 2184      7400
 2185              	.LASF113:
 2186 019e 6F776E65 		.ascii	"owner\000"
 2186      7200
 2187              	.LASF48:
 2188 01a4 74687265 		.ascii	"threads_queue_t\000"
 2188      6164735F 
 2188      71756575 
 2188      655F7400 
 2189              	.LASF40:
 2190 01b4 6D74786C 		.ascii	"mtxlist\000"
 2190      69737400 
 2191              	.LASF60:
 2192 01bc 63685F76 		.ascii	"ch_virtual_timers_list\000"
 2192      69727475 
ARM GAS  /tmp/ccUcytGS.s 			page 55


 2192      616C5F74 
 2192      696D6572 
 2192      735F6C69 
 2193              	.LASF27:
 2194 01d3 74687265 		.ascii	"thread_t\000"
 2194      61645F74 
 2194      00
 2195              	.LASF103:
 2196 01dc 7264796D 		.ascii	"rdymsg\000"
 2196      736700
 2197              	.LASF84:
 2198 01e3 43505549 		.ascii	"CPUID\000"
 2198      4400
 2199              	.LASF116:
 2200 01e9 5F426F6F 		.ascii	"_Bool\000"
 2200      6C00
 2201              	.LASF112:
 2202 01ef 63685F6D 		.ascii	"ch_mutex\000"
 2202      75746578 
 2202      00
 2203              	.LASF12:
 2204 01f8 5F5F7569 		.ascii	"__uint64_t\000"
 2204      6E743634 
 2204      5F7400
 2205              	.LASF94:
 2206 0203 41465352 		.ascii	"AFSR\000"
 2206      00
 2207              	.LASF121:
 2208 0208 6E766963 		.ascii	"nvicClearPending\000"
 2208      436C6561 
 2208      7250656E 
 2208      64696E67 
 2208      00
 2209              	.LASF90:
 2210 0219 48465352 		.ascii	"HFSR\000"
 2210      00
 2211              	.LASF29:
 2212 021e 7072696F 		.ascii	"prio\000"
 2212      00
 2213              	.LASF114:
 2214 0223 63686172 		.ascii	"char\000"
 2214      00
 2215              	.LASF43:
 2216 0228 74687265 		.ascii	"thread_reference_t\000"
 2216      61645F72 
 2216      65666572 
 2216      656E6365 
 2216      5F7400
 2217              	.LASF33:
 2218 023b 77616261 		.ascii	"wabase\000"
 2218      736500
 2219              	.LASF85:
 2220 0242 49435352 		.ascii	"ICSR\000"
 2220      00
 2221              	.LASF20:
 2222 0247 74737461 		.ascii	"tstate_t\000"
 2222      74655F74 
ARM GAS  /tmp/ccUcytGS.s 			page 56


 2222      00
 2223              	.LASF87:
 2224 0250 41495243 		.ascii	"AIRCR\000"
 2224      5200
 2225              	.LASF14:
 2226 0256 75696E74 		.ascii	"uint8_t\000"
 2226      385F7400 
 2227              	.LASF38:
 2228 025e 6D736771 		.ascii	"msgqueue\000"
 2228      75657565 
 2228      00
 2229              	.LASF45:
 2230 0267 63685F74 		.ascii	"ch_thread\000"
 2230      68726561 
 2230      6400
 2231              	.LASF62:
 2232 0271 73797374 		.ascii	"system_debug_t\000"
 2232      656D5F64 
 2232      65627567 
 2232      5F7400
 2233              	.LASF11:
 2234 0280 6C6F6E67 		.ascii	"long long int\000"
 2234      206C6F6E 
 2234      6720696E 
 2234      7400
 2235              	.LASF88:
 2236 028e 53484353 		.ascii	"SHCSR\000"
 2236      5200
 2237              	.LASF23:
 2238 0294 6D73675F 		.ascii	"msg_t\000"
 2238      7400
 2239              	.LASF89:
 2240 029a 43465352 		.ascii	"CFSR\000"
 2240      00
 2241              	.LASF55:
 2242 029f 76697274 		.ascii	"virtual_timer_t\000"
 2242      75616C5F 
 2242      74696D65 
 2242      725F7400 
 2243              	.LASF123:
 2244 02af 474E5520 		.ascii	"GNU C 4.8.2 -mcpu=cortex-m3 -mno-thumb-interwork -m"
 2244      4320342E 
 2244      382E3220 
 2244      2D6D6370 
 2244      753D636F 
 2245 02e2 7468756D 		.ascii	"thumb -ggdb -O2 -fomit-frame-pointer -falign-functi"
 2245      62202D67 
 2245      67646220 
 2245      2D4F3220 
 2245      2D666F6D 
 2246 0315 6F6E733D 		.ascii	"ons=16 -ffunction-sections -fdata-sections -fno-com"
 2246      3136202D 
 2246      6666756E 
 2246      6374696F 
 2246      6E2D7365 
 2247 0348 6D6F6E20 		.ascii	"mon -flto\000"
 2247      2D666C74 
ARM GAS  /tmp/ccUcytGS.s 			page 57


 2247      6F00
 2248              	.LASF76:
 2249 0352 49435052 		.ascii	"ICPR\000"
 2249      00
 2250              	.LASF64:
 2251 0357 70616E69 		.ascii	"panic_msg\000"
 2251      635F6D73 
 2251      6700
 2252              	.LASF19:
 2253 0361 746D6F64 		.ascii	"tmode_t\000"
 2253      655F7400 
 2254              	.LASF69:
 2255 0369 6D61696E 		.ascii	"mainthread\000"
 2255      74687265 
 2255      616400
 2256              	.LASF15:
 2257 0374 75696E74 		.ascii	"uint16_t\000"
 2257      31365F74 
 2257      00
 2258              	.LASF81:
 2259 037d 53544952 		.ascii	"STIR\000"
 2259      00
 2260              	.LASF117:
 2261 0382 6E766963 		.ascii	"nvicEnableVector\000"
 2261      456E6162 
 2261      6C655665 
 2261      63746F72 
 2261      00
 2262              	.LASF92:
 2263 0393 4D4D4641 		.ascii	"MMFAR\000"
 2263      5200
 2264              	.LASF71:
 2265 0399 52455345 		.ascii	"RESERVED0\000"
 2265      52564544 
 2265      3000
 2266              	.LASF75:
 2267 03a3 52455345 		.ascii	"RESERVED2\000"
 2267      52564544 
 2267      3200
 2268              	.LASF77:
 2269 03ad 52455345 		.ascii	"RESERVED3\000"
 2269      52564544 
 2269      3300
 2270              	.LASF79:
 2271 03b7 52455345 		.ascii	"RESERVED4\000"
 2271      52564544 
 2271      3400
 2272              	.LASF80:
 2273 03c1 52455345 		.ascii	"RESERVED5\000"
 2273      52564544 
 2273      3500
 2274              	.LASF3:
 2275 03cb 73686F72 		.ascii	"short int\000"
 2275      7420696E 
 2275      7400
 2276              	.LASF8:
 2277 03d5 6C6F6E67 		.ascii	"long int\000"
ARM GAS  /tmp/ccUcytGS.s 			page 58


 2277      20696E74 
 2277      00
 2278              	.LASF102:
 2279 03de 706F7274 		.ascii	"port_intctx\000"
 2279      5F696E74 
 2279      63747800 
 2280              	.LASF122:
 2281 03ea 49544D5F 		.ascii	"ITM_RxBuffer\000"
 2281      52784275 
 2281      66666572 
 2281      00
 2282              	.LASF66:
 2283 03f7 63685F73 		.ascii	"ch_system\000"
 2283      79737465 
 2283      6D00
 2284              	.LASF126:
 2285 0401 5F5F6675 		.ascii	"__func__.6591\000"
 2285      6E635F5F 
 2285      2E363539 
 2285      3100
 2286              	.LASF61:
 2287 040f 6C617374 		.ascii	"lasttime\000"
 2287      74696D65 
 2287      00
 2288              	.LASF18:
 2289 0418 75696E74 		.ascii	"uint64_t\000"
 2289      36345F74 
 2289      00
 2290              	.LASF67:
 2291 0421 726C6973 		.ascii	"rlist\000"
 2291      7400
 2292              	.LASF125:
 2293 0427 2F686F6D 		.ascii	"/home/jerson/ChibiOS/rt_stm32f100rb_onion\000"
 2293      652F6A65 
 2293      72736F6E 
 2293      2F436869 
 2293      62694F53 
 2294              	.LASF4:
 2295 0451 5F5F7569 		.ascii	"__uint8_t\000"
 2295      6E74385F 
 2295      7400
 2296              	.LASF83:
 2297 045b 4E564943 		.ascii	"NVIC_Type\000"
 2297      5F547970 
 2297      6500
 2298              	.LASF98:
 2299 0465 5343425F 		.ascii	"SCB_Type\000"
 2299      54797065 
 2299      00
 2300              	.LASF32:
 2301 046e 6E616D65 		.ascii	"name\000"
 2301      00
 2302              	.LASF93:
 2303 0473 42464152 		.ascii	"BFAR\000"
 2303      00
 2304              	.LASF86:
 2305 0478 56544F52 		.ascii	"VTOR\000"
ARM GAS  /tmp/ccUcytGS.s 			page 59


 2305      00
 2306              	.LASF82:
 2307 047d 73697A65 		.ascii	"sizetype\000"
 2307      74797065 
 2307      00
 2308              	.LASF21:
 2309 0486 74726566 		.ascii	"trefs_t\000"
 2309      735F7400 
 2310              	.LASF10:
 2311 048e 6C6F6E67 		.ascii	"long unsigned int\000"
 2311      20756E73 
 2311      69676E65 
 2311      6420696E 
 2311      7400
 2312              	.LASF51:
 2313 04a0 72656164 		.ascii	"ready_list_t\000"
 2313      795F6C69 
 2313      73745F74 
 2313      00
 2314              	.LASF28:
 2315 04ad 71756575 		.ascii	"queue\000"
 2315      6500
 2316              	.LASF16:
 2317 04b3 696E7433 		.ascii	"int32_t\000"
 2317      325F7400 
 2318              	.LASF115:
 2319 04bb 6D757465 		.ascii	"mutex_t\000"
 2319      785F7400 
 2320              	.LASF30:
 2321 04c3 6E657765 		.ascii	"newer\000"
 2321      7200
 2322              	.LASF2:
 2323 04c9 756E7369 		.ascii	"unsigned char\000"
 2323      676E6564 
 2323      20636861 
 2323      7200
 2324              	.LASF9:
 2325 04d7 5F5F7569 		.ascii	"__uint32_t\000"
 2325      6E743332 
 2325      5F7400
 2326              	.LASF37:
 2327 04e2 77616974 		.ascii	"waiting\000"
 2327      696E6700 
 2328              	.LASF59:
 2329 04ea 76697274 		.ascii	"virtual_timers_list_t\000"
 2329      75616C5F 
 2329      74696D65 
 2329      72735F6C 
 2329      6973745F 
 2330              	.LASF72:
 2331 0500 49434552 		.ascii	"ICER\000"
 2331      00
 2332              	.LASF34:
 2333 0505 73746174 		.ascii	"state\000"
 2333      6500
 2334              	.LASF78:
 2335 050b 49414252 		.ascii	"IABR\000"
ARM GAS  /tmp/ccUcytGS.s 			page 60


 2335      00
 2336              	.LASF65:
 2337 0510 63685F73 		.ascii	"ch_system_t\000"
 2337      79737465 
 2337      6D5F7400 
 2338              	.LASF108:
 2339 051c 77747365 		.ascii	"wtsemp\000"
 2339      6D7000
 2340              	.LASF106:
 2341 0523 77747472 		.ascii	"wttrp\000"
 2341      7000
 2342              	.LASF1:
 2343 0529 7369676E 		.ascii	"signed char\000"
 2343      65642063 
 2343      68617200 
 2344              	.LASF57:
 2345 0535 64656C74 		.ascii	"delta\000"
 2345      6100
 2346              	.LASF6:
 2347 053b 73686F72 		.ascii	"short unsigned int\000"
 2347      7420756E 
 2347      7369676E 
 2347      65642069 
 2347      6E7400
 2348              	.LASF100:
 2349 054e 73746B61 		.ascii	"stkalign_t\000"
 2349      6C69676E 
 2349      5F7400
 2350              	.LASF53:
 2351 0559 63757272 		.ascii	"current\000"
 2351      656E7400 
 2352              	.LASF74:
 2353 0561 49535052 		.ascii	"ISPR\000"
 2353      00
 2354              	.LASF96:
 2355 0566 49534152 		.ascii	"ISAR\000"
 2355      00
 2356              	.LASF31:
 2357 056b 6F6C6465 		.ascii	"older\000"
 2357      7200
 2358              	.LASF104:
 2359 0571 65786974 		.ascii	"exitcode\000"
 2359      636F6465 
 2359      00
 2360              	.LASF42:
 2361 057a 6D706F6F 		.ascii	"mpool\000"
 2361      6C00
 2362              	.LASF119:
 2363 0580 6E766963 		.ascii	"nvicSetSystemHandlerPriority\000"
 2363      53657453 
 2363      79737465 
 2363      6D48616E 
 2363      646C6572 
 2364              		.comm	__gnu_lto_v1,1,1
 2365              		.ident	"GCC: (4.8.2-14ubuntu1+6) 4.8.2"
ARM GAS  /tmp/ccUcytGS.s 			page 61


DEFINED SYMBOLS
                            *ABS*:0000000000000000 nvic.c
     /tmp/ccUcytGS.s:259    .text.nvicEnableVector:0000000000000000 $t
     /tmp/ccUcytGS.s:265    .text.nvicEnableVector:0000000000000000 nvicEnableVector
     /tmp/ccUcytGS.s:300    .text.nvicDisableVector:0000000000000000 $t
     /tmp/ccUcytGS.s:306    .text.nvicDisableVector:0000000000000000 nvicDisableVector
     /tmp/ccUcytGS.s:340    .text.nvicSetSystemHandlerPriority:0000000000000000 $t
     /tmp/ccUcytGS.s:346    .text.nvicSetSystemHandlerPriority:0000000000000000 nvicSetSystemHandlerPriority
     /tmp/ccUcytGS.s:368    .text.nvicClearPending:0000000000000000 $t
     /tmp/ccUcytGS.s:374    .text.nvicClearPending:0000000000000000 nvicClearPending
                            *COM*:0000000000000001 __gnu_lto_v1
                     .debug_frame:0000000000000010 $d

NO UNDEFINED SYMBOLS
