ARM GAS  /tmp/cc2MVQ1V.s 			page 1


   1              		.syntax unified
   2              		.cpu cortex-m3
   3              		.fpu softvfp
   4              		.eabi_attribute 20, 1
   5              		.eabi_attribute 21, 1
   6              		.eabi_attribute 23, 3
   7              		.eabi_attribute 24, 1
   8              		.eabi_attribute 25, 1
   9              		.eabi_attribute 26, 1
  10              		.eabi_attribute 30, 2
  11              		.eabi_attribute 34, 1
  12              		.eabi_attribute 18, 4
  13              		.thumb
  14              		.file	"test_sequence_007.c"
  15              		.text
  16              	.Ltext0:
  17              		.section	.gnu.lto_.jmpfuncs.2ce54cc7b95ac860,"",%progbits
  18 0000 789C6362 		.ascii	"x\234cb`b\300\006\326\000\261\004\020\003e\231\230\252"
  18      6062C006 
  18      D600B104 
  18      10036599 
  18      98AA
  19 0012 197E35CC 		.ascii	"\031~5\314h\020\310dd\220c`\234\3330\303!\223\221\021"
  19      6810C864 
  19      64906360 
  19      9CDB30C3 
  19      21939111 
  20 0026 AC0A21C3 		.ascii	"\254\012!\303$\307\300\016\221a\206\030\300\310\000"
  20      24C7C00E 
  20      91618618 
  20      C0C800
  21 0035 359915C8 		.ascii	"5\231\025\310\210`\314dd9\301\004\327\322\001\322\302"
  21      8860CC64 
  21      6439C104 
  21      D7D201D2 
  21      C2
  22 0046 9ACC08B5 		.ascii	"\232\314\010\265\214\205\221\011\244\253\014\252\222"
  22      8C859109 
  22      A4AB0CAA 
  22      92
  23 0053 CD05C840 		.ascii	"\315\005\310@\021pF\027pB\027p\004\331\344\350\344\354"
  23      11704617 
  23      70421770 
  23      04D9E4E8 
  23      E4EC
  24 0065 C2209899 		.ascii	"\302 \230\231W\226\230\223\231\242P\234ZX\232\232\227"
  24      57969893 
  24      99A2509C 
  24      5A589A9A 
  24      97
  25 0076 9CCA0000 		.ascii	"\234\312\000\000\333\023 \013"
  25      DB13200B 
  26              		.text
  27              		.section	.gnu.lto_.inline.2ce54cc7b95ac860,"",%progbits
  28 0000 789C6362 		.ascii	"x\234cb`b\300\006\312\2414PV\341$##\003\223\330\205"
  28      6062C006 
  28      CAA13450 
ARM GAS  /tmp/cc2MVQ1V.s 			page 2


  28      56E12423 
  28      230393D8 
  29 0015 366606B6 		.ascii	"6f\006\266\005\362`\345\314<`\031F.\220\012nF\006\306"
  29      05F260E5 
  29      CC3C6019 
  29      462E900A 
  29      6E4606C6 
  30 0029 097ECC3C 		.ascii	"\011~\314<@E\023\374&\370\201\370\014\354\002\014\014"
  30      404513FC 
  30      26F881F8 
  30      0CEC020C 
  30      0C
  31 003a AC13FC18 		.ascii	"\254\023\374\030\300\210\205\201\337\210\021l\017\212"
  31      C0888581 
  31      DF88116C 
  31      0F8A
  32 0048 7EA01C2E 		.ascii	"~\240\034.\232\001\000ot\016\007"
  32      9A01006F 
  32      740E07
  33              		.text
  34              		.section	.gnu.lto_.pureconst.2ce54cc7b95ac860,"",%progbits
  35 0000 789C6362 		.ascii	"x\234cb`b`e\200\000&\006I\026\011\000\001\007\000A"
  35      60626065 
  35      80002606 
  35      49160900 
  35      01070041 
  36              		.text
  37              		.section	.gnu.lto_test_007_001_execute.2ce54cc7b95ac860,"",%progbits
  38 0000 789C9554 		.ascii	"x\234\225TQkTW\020\2369\367\336\315f\263q\263\232hb"
  38      516B5457 
  38      109E39F7 
  38      DECD66B3 
  38      71B39A68 
  39 0015 4D8C367D 		.ascii	"M\2146}Q\334UZ\020AD\255?\301\200}\222\365f\331\\\310"
  39      51DC555A 
  39      104144AD 
  39      3FC1807D 
  39      92F566D9 
  40 002b 269ADDF8 		.ascii	"&\232\335\370\322\207\234d\223\340\203\266\213OQ\021"
  40      D2879C64 
  40      93E083B6 
  40      8B4F5111 
  41 003b D4100B45 		.ascii	"\324\020\013E\252\"\324 hW\002\262\0225\346A\260Up\321"
  41      AA22D420 
  41      685702B2 
  41      1235E641 
  41      B05570D1 
  42 004f D28A425B 		.ascii	"\322\212B[\372\222T\202\351\3149\367\\c\023*.\354\271"
  42      FA925482 
  42      E9CC39F7 
  42      5C63132A 
  42      2EECB9
  43 0062 7367E6FB 		.ascii	"sg\346\373\31673\347\\\001\002\376\373\333I\377\272"
  43      CE3733E7 
  43      5C0102FE 
  43      FBDB49FF 
  43      BA
ARM GAS  /tmp/cc2MVQ1V.s 			page 3


  44 0073 10C0083D 		.ascii	"\020\300\010=1\004(\212\017\000\006\302\002mmX\332\270"
  44      3104288A 
  44      0F0006C2 
  44      026D6D58 
  44      DAB8
  45 0085 1DB68555 		.ascii	"\035\266\205U\332\0052\342<\214\201\214:\210\354\006"
  45      DA0532E2 
  45      3C8C818C 
  45      3A88EC06 
  46 0095 847E61D9 		.ascii	"\204~a\331\016\366\177\205\314&6\302y)OV\306\177\177"
  46      0EF67F85 
  46      CC2636C2 
  46      79294F56 
  46      C67F7F
  47 00a8 89A76469 		.ascii	"\211\247di\350\234\234_X@\364\220vN \270\010\007\350"
  47      E89C9C5F 
  47      5840F490 
  47      764E20B8 
  47      0807E8
  48 00bb 055BD543 		.ascii	"\005[\325C\330\357K\321\330\322\354\310\267M\362\334"
  48      D8EF4BD1 
  48      D8D2ECC8 
  48      B74DF2DC 
  49 00cb 6051BE25 		.ascii	"`Q\276%\250\207\226\200m\037B^\026\245\312\302\302\275"
  49      A8879680 
  49      6D1F425E 
  49      16A5CAC2 
  49      C2BD
  50 00dd 6B95E70F 		.ascii	"k\225\347\0170\276\032!\205c\270\021\034\360\320\016"
  50      30BE1A21 
  50      8563B811 
  50      1CF0D00E 
  51 00ed D1E28469 		.ascii	"\321\342\204i\201(\271\317\223\273\226^B1Z\252\342~"
  51      8128B9CF 
  51      93BB965E 
  51      42315AAA 
  51      E27E
  52 00ff 623D871B 		.ascii	"b=\207\033h\011\023\227\003CR\026[u\256\222T,\335\274"
  52      68091397 
  52      03435216 
  52      5B75AE92 
  52      542CDDBC 
  53 0113 737CB1A4 		.ascii	"s|\261\244j\001\237\177H\022p\234~\373i\245\216\265"
  53      6A019F7F 
  53      4812709C 
  53      7EFB69A5 
  53      8EB5
  54 0125 A3A08775 		.ascii	"\243\240\207u\037\006'&^5\246p\034\0358\003\247\007"
  54      1F062726 
  54      5E35A670 
  54      1C1D3803 
  54      A707
  55 0137 A4ACA312 		.ascii	"\244\254\243\022\277\2067\362\030[\221\254\0021a\004"
  55      BF8637F2 
  55      185B91AC 
  55      02316104 
  56 0147 8C65B18F 		.ascii	"\214e\261\217\220O\347^=\26654\203\316\026\270\304\210"
ARM GAS  /tmp/cc2MVQ1V.s 			page 4


  56      904FE75E 
  56      3DB63534 
  56      83CE16B8 
  56      C488
  57 0159 1A6629B2 		.ascii	"\032f)\262\025e\226Q\266j\263\210>\2666`Y\261H\032\221"
  57      15659651 
  57      B66AB388 
  57      3EB63660 
  57      59B1481A 
  58 016e FD327FE6 		.ascii	"\3752\177\346\331\027~\255\246h\371\347\305d\320\000"
  58      D9177EAD 
  58      A668F9E7 
  58      C564D000 
  59 017e 6394A61E 		.ascii	"c\224\246\036\315\304\211No\354*fz\250\223\224\301\372"
  59      CDC4894E 
  59      6FEC2A66 
  59      7AA89394 
  59      C1FA
  60 0190 CDF0BD94 		.ascii	"\315\360\275\224\262\362\354\237\361M\324D\375&wx\030"
  60      B2F2EC9F 
  60      F14DD444 
  60      FD267778 
  60      18
  61 01a1 0BAAAB0B 		.ascii	"\013\252\253\013\252\213g\025\214\325\304\225\216CL"
  61      AA8B6715 
  61      8CD5C495 
  61      8E434C
  62 01b0 96C21F88 		.ascii	"\226\302\037\210\230l\014l\255p\356\307\265)\274\254"
  62      986C0C6C 
  62      AD70EEC7 
  62      B529BCAC 
  63 01c0 AA6DF089 		.ascii	"\252m\360\211s4\243\200x%m\317\\\340s\011\306_1\370"
  63      7334A380 
  63      78256DCF 
  63      5CE07309 
  63      C65F31F8 
  64 01d4 C2B1C9A9 		.ascii	"\302\261\311\251GW\253M\277BD\302\311\016\247OC\243"
  64      4757AB4D 
  64      BF4244C2 
  64      C90EA74F 
  64      43A3
  65 01e6 F1870375 		.ascii	"\361\207\003u\253\\\264@W\345\250\266\227\005\3438\036"
  65      AB5CB440 
  65      57E5A8B6 
  65      9705E338 
  65      1E
  66 01f7 F6B0DE45 		.ascii	"\366\260\336E\277\367\\\265\207\015J\343\335bD;y\032"
  66      BFF75CB5 
  66      870D4AE3 
  66      DD62443B 
  66      791A
  67 0209 BAF07763 		.ascii	"\272\360wc]\035P\257\311*jf]\263\314@2|\360\324\321"
  67      5D1D50AF 
  67      C92A6A66 
  67      5DB3CC40 
  67      327CF0D4 
  68 021e F8E3638F 		.ascii	"\370\343c\217\006\367\363.\014Vn\026\252\202\203\313"
ARM GAS  /tmp/cc2MVQ1V.s 			page 5


  68      06F7F32E 
  68      0C566E16 
  68      AA8283CB 
  69 022e 47DACC4B 		.ascii	"G\332\314K\031\354P\331f\303v2K\273\254i(TnM\206RxK"
  69      19EC50D9 
  69      66C37632 
  69      4BBBAC69 
  69      28546E4D 
  70 0246 B5221AEC 		.ascii	"\265\"\032\354\325\350j(]\211&\346\027:E\337\011JTj"
  70      D5E86A28 
  70      5D8926E6 
  70      173A45DF 
  70      094A546A 
  71 025a 6F0CCF1E 		.ascii	"o\014\317\036of\361\265\244\226o\005\005\3248\332\364"
  71      6F66F1B5 
  71      A4966F05 
  71      05D438DA 
  71      F4
  72 026b 262CEBA7 		.ascii	"&,\353\247\027>{\026m\205#g\330\334\364\312\223\221"
  72      173E7B16 
  72      6D852367 
  72      D8DCF4CA 
  72      9391
  73 027d 5F67F064 		.ascii	"_g\360dA\226\345P\211.\326z\217o\356\005\232\343\377"
  73      4196E550 
  73      892ED67A 
  73      8F6FEE05 
  73      9AE3FF
  74 0290 5F2DE252 		.ascii	"_-\342RD\177\375}\275\313\010\273\250j\346\311\016W"
  74      447FFD7D 
  74      BDCB08BB 
  74      A86AE6C9 
  74      0E57
  75 02a2 CA2F22DA 		.ascii	"\312/\"\332\015\020T\264\326\245\217\233\356u\224\024"
  75      0D1054B4 
  75      D6A58F9B 
  75      EE759414 
  76 02b2 7BF889AA 		.ascii	"{\370\211\252\341u\341\273o\022\246\376X\206\257\313"
  76      E175E1BB 
  76      6F12A6FE 
  76      5886AFCB 
  77 02c2 34D84BD0 		.ascii	"4\330K\320\353\\\254\362\3211\017\233\365\361*\314\236"
  77      EB5CACF2 
  77      D1310F9B 
  77      F5F12ACC 
  77      9E
  78 02d3 D861A0F1 		.ascii	"\330a\240\361\014bpU\027\365kL\365+n\272n\003}4-\335"
  78      0C627055 
  78      17F56B4C 
  78      F52B6EBA 
  78      6E037D34 
  79 02e9 03132444 		.ascii	"\003\023$D\031\206~\033\2501\\\232(\230\025\374\014"
  79      19867E1B 
  79      A8315C9A 
  79      289815FC 
  79      0C
  80 02fa E80F4F94 		.ascii	"\350\017O\224-\"\263F\253\230\313\341\357\011Opj\262"
ARM GAS  /tmp/cc2MVQ1V.s 			page 6


  80      2D22B346 
  80      AB98CBE1 
  80      EF094F70 
  80      6AB2
  81 030c 6689E016 		.ascii	"f\211\340\026W}\313x\200\353uS\356\215\341\222\254V"
  81      577DCB78 
  81      80EB7553 
  81      EE8DE192 
  81      AC56
  82 031e 17AB5516 		.ascii	"\027\253U\026{\032=\334\320\002=g\345\350n\217\204\371"
  82      7B1A3DDC 
  82      D0023D67 
  82      E5E86E8F 
  82      84F9
  83 0330 C97EE4D3 		.ascii	"\311~\344\323\026\350\323\2216\023\361\3603\200\031"
  83      16E8D391 
  83      3613F1F0 
  83      338019
  84 033f 0858F56F 		.ascii	"\010X\365o?\325\3630\306\247rs\"\221\314\247s\371do"
  84      3FD5F330 
  84      C6A77273 
  84      2291CCA7 
  84      73F9646F 
  85 0353 3E99EBE9 		.ascii	">\231\353\351\353u\323\372\225\227\203\271\364\221\276"
  85      EB75D3FA 
  85      959783B9 
  85      F491BE
  86 0362 74B79B3E 		.ascii	"t\267\233>\270u\353\366\204\013\"\177\030=+\233\313"
  86      B875EBF6 
  86      840B227F 
  86      183D2B9B 
  86      CB
  87 0373 3413A827 		.ascii	"4\023\250'\307\020\257\333\355\352\353H'\335\316|go"
  87      C710AFDB 
  87      EDEAEB48 
  87      27DDCE7C 
  87      676F
  88 0385 3AD5914B 		.ascii	":\325\221KtB\3232Q\002Q\304\331\263\367\313}\020\367"
  88      7442D332 
  88      510251C4 
  88      D9B3F7CB 
  88      7D10F7
  89 0398 BA8FA6BA 		.ascii	"\272\217\246\272\274\216VC\017\377\002\\\031\226\375"
  89      BC8E5643 
  89      0FFF025C 
  89      1996FD
  90              		.text
  91              		.section	.gnu.lto_msg_thread1.2ce54cc7b95ac860,"",%progbits
  92 0000 789C6362 		.ascii	"x\234cb`b@\007\222@,\304\310\300\240\013\244\031\231"
  92      60624007 
  92      92402CC4 
  92      C8C0A00B 
  92      A41999
  93 0013 19189926 		.ascii	"\031\030\231&\234c`h\344`bd\0041\030\030\031\352\231"
  93      9C636068 
  93      E4606264 
  93      04311818 
ARM GAS  /tmp/cc2MVQ1V.s 			page 7


  93      19EA99
  94 0026 18EB2319 		.ascii	"\030\353#\031\301j\3273\035x\360\377\377\272+[\037U"
  94      C16AD733 
  94      1D78F0FF 
  94      FFBA2B5B 
  94      1F55
  95 0038 30B23331 		.ascii	"0\26231\346\202EY\031Z\032\032&(00$\203\271!@\022\244"
  95      E6824559 
  95      195A1A1A 
  95      26283030 
  95      2483B921 
  96 004f 33949109 		.ascii	"3\224\221\011D3\237gh}\360\306\"\221q!#+P\266\232\341"
  96      44339F67 
  96      687DF0C6 
  96      22917121 
  96      232B50B6 
  97 0065 57434783 		.ascii	"WCG\203@&#P5\304\314tF\246\010\306LFFG\206L\240\016"
  97      40262350 
  97      35C4CC74 
  97      46A608C6 
  97      4C464647 
  98 007d 06A0F205 		.ascii	"\006\240\362\005\271\204U;!T\347\021V\355\214P\235O"
  98      B984553B 
  98      2154E711 
  98      56ED8C50 
  98      9D4F
  99 008f 58B50B44 		.ascii	"X\265\013D\365E\206\306\007?\230`\312! \004\250\024"
  99      F54586C6 
  99      073F9860 
  99      CA212004 
  99      A814
 100 00a1 E8295028 		.ascii	"\350)P(j\353\351\351\227\244\026\227\350\027\225\350"
 100      6AEBE9E9 
 100      97A41697 
 100      E81795E8 
 101 00b1 17E79716 		.ascii	"\027\347\227\026%\247B\270 \"\2768\265\26045/95\336"
 101      25A742B8 
 101      2022BE38 
 101      B5B03435 
 101      2F3935DE 
 102 00c5 C0C05C2F 		.ascii	"\300\300\\/\231\001\000\306\227NC"
 102      990100C6 
 102      974E43
 103              		.text
 104              		.section	.gnu.lto_.symbol_nodes.2ce54cc7b95ac860,"",%progbits
 105 0000 789C4DCA 		.ascii	"x\234M\312\311\015\3020\024\204\341\031/\020\326\026"
 105      C90DC230 
 105      1484E119 
 105      2F10D616 
 106 0010 A88D4678 		.ascii	"\250\215Fx\221\220@\300\205\002\270\271\224\334i\200"
 106      919040C0 
 106      8502B8B9 
 106      94DC6980 
 107 0020 2DC16193 		.ascii	"-\301a\223(\001!l\021a|\371\374\353\215\202\302\013"
 107      2801216C 
 107      11617CF9 
 107      FCEB8D82 
ARM GAS  /tmp/cc2MVQ1V.s 			page 8


 107      C20B
 108 0032 CD537B0A 		.ascii	"\315S{\012\261\336\002\"\233\305\330\236\030~\260%\031"
 108      B1DE0222 
 108      9BC5D89E 
 108      187EB025 
 108      19
 109 0043 795005D4 		.ascii	"yP\005\324\216\202\277\315\231:\036\21746p\2405\242"
 109      8E82BFCD 
 109      993A1E8F 
 109      343670A0 
 109      35A2
 110 0055 79A3A8EF 		.ascii	"y\243\250\357&\317\311+E\247\272PL\252\232bSyJ+UEi\247"
 110      26CFC92B 
 110      45A7BA50 
 110      4CAA9A62 
 110      53794A2B 
 111 006d BA53B25F 		.ascii	"\272S\262_i\014\340\252w\260\0177\253'\032=\370y\264"
 111      690CE0AA 
 111      77B00F37 
 111      AB271A3D 
 111      F879B4
 112 0080 0BB78C76 		.ascii	"\013\267\214vP\254\236#\215\014>j\206\230\226a\037t"
 112      50AC9E23 
 112      8D0C3E6A 
 112      86989661 
 112      1F74
 113 0092 8D45A30F 		.ascii	"\215E\243\017\342\003\201\272L%"
 113      E20381BA 
 113      4C25
 114              		.text
 115              		.section	.gnu.lto_.refs.2ce54cc7b95ac860,"",%progbits
 116 0000 789C6362 		.ascii	"x\234cb`b\020g\200\0006\006FF \227\231\211\205\221\225"
 116      60621067 
 116      80003606 
 116      46462097 
 116      99898591 
 117 0015 9191918D 		.ascii	"\221\221\221\215\211\235\221\235\211\201\001\000\005"
 117      899D919D 
 117      89810100 
 117      05
 118 0022 C70051   		.ascii	"\307\000Q"
 119              		.text
 120              		.section	.gnu.lto_.decls.2ce54cc7b95ac860,"",%progbits
 121 0000 789CBD5B 		.ascii	"x\234\275[yp\024\327\231\177\3353\243\231A2\207m\\\260"
 121      797014D7 
 121      997FDD33 
 121      A3994132 
 121      876D5CB0 
 122 0014 856D7993 		.ascii	"\205my\223l\274\316\032\201\327k\223T\305\306\313Vy"
 122      6CBCCE1A 
 122      81D76B93 
 122      54C5C6CB 
 122      5679
 123 0026 FF616B2B 		.ascii	"\377ak+N*\256\332\332\2324\243F\322Z\232\231\364\264"
 123      4E2AAEDA 
 123      DA9A34A3 
 123      46D25A9A 
ARM GAS  /tmp/cc2MVQ1V.s 			page 9


 123      99F4B4
 124 0039 3876ABD6 		.ascii	"8v\253\326\215\000\001&\011\222\300HB\200\206\303\342"
 124      8D000126 
 124      0992C048 
 124      428086C3 
 124      E2
 125 004a 8AC160CC 		.ascii	"\212\301`\314a\256\201`\020\207\271A\030\005\220\003"
 125      61AE8160 
 125      1087B941 
 125      18059003 
 126 005a 18113698 		.ascii	"\030\0216\230\303,\020c\264\337\373^wOwO\367L\267\210"
 126      C32C1063 
 126      B4DFFB5E 
 126      774F774F 
 126      F74CB788 
 127 006e 77AADE9B 		.ascii	"w\252\336\233\236\356\367\375\336w\277\253\207'<Y\317"
 127      9EEEF7FD 
 127      DE77BFAB 
 127      87273C59 
 127      CF
 128 007f 11D2039F 		.ascii	"\021\322\003\237]?&\344\277\013\010\361\021B^\201\022"
 128      5D3F26E4 
 128      BF0B08F1 
 128      11425E81 
 128      12
 129 0090 84B208CA 		.ascii	"\204\262\010\312b(\313\240,\207\022\200\262\022\312"
 129      6228CBA0 
 129      2C871280 
 129      B212CA
 130 009f 6AC23E61 		.ascii	"j\302>a(\033\241l\205\222\206r\000\312\247P\216By\033"
 130      281BA16C 
 130      85928672 
 130      00CAA750 
 130      8E42791B 
 131 00b3 706BA0D4 		.ascii	"pk\240\324A\001X\362.|7B\231\017\245\033\312U(>\236"
 131      410158F2 
 131      2E7C3742 
 131      990FA51B 
 131      CA55283E 
 132 00c8 983E14E7 		.ascii	"\230>\024\347o\240\234\200\322\027J\221\332\347\253"
 132      6FA09C80 
 132      D2174A91 
 132      DAE7AB
 133 00d7 2A3F1467 		.ascii	"*?\024g\011\224n\225\207\"\240o\006\234&(\217\300\265"
 133      09946E95 
 133      8722A06F 
 133      069C2628 
 133      8FC0B5
 134 00ea 1FEE2D85 		.ascii	"\037\356-\205\353\005P\372\302\357\223\360\273\037\317"
 134      EB0550FA 
 134      C2EF93F0 
 134      BB1FCF
 135 00f9 789E0CF7 		.ascii	"x\236\014\367\256@\351\017\277\007@Q\340\372Q\370>\006"
 135      AE40E90F 
 135      BF074051 
 135      E0FA51F8 
 135      3E06
ARM GAS  /tmp/cc2MVQ1V.s 			page 10


 136 010b CF1E83EF 		.ascii	"\317\036\203\357C\360}\033\356m\203\357\307\371l\331"
 136      43F07D1B 
 136      EE6D83EF 
 136      C7F96CD9 
 137 011b 7712A69B 		.ascii	"w\022\246\233%\320f\015\224\313p\335G\345y \264\037"
 137      25D0660D 
 137      94CB70DD 
 137      47E57920 
 137      B41F
 138 012d CC337937 		.ascii	"\3143y7\252\262\037Uuq@\325M\300F\007C,\362oT\373x\222"
 138      AAB21F55 
 138      757140D5 
 138      4DC04607 
 138      432CF26F 
 139 0145 67F2D573 		.ascii	"g\362\325s\354>\257>\243\272\244\2676\233\311H!yGQj"
 139      EC3EAF3E 
 139      A3BAA4B7 
 139      369BC948 
 139      21794751 
 140 015a 9454ADF2 		.ascii	"\224T\255\362\317\355}\007\220:\005>\305M}\303d:\275"
 140      CFED7D07 
 140      903A053E 
 140      C54D7DC3 
 140      643ABD
 141 016d DDF59E32 		.ascii	"\335\365\2362h\020!or\002\007\267BxQ\024F\240\357\221"
 141      6810216F 
 141      720207B7 
 141      42785114 
 141      46A0EF91 
 142 0181 A5D014DA 		.ascii	"\245\320\024\332\363\002\267\204\013CG<Gl?\3549\375"
 142      F302B784 
 142      0B43473C 
 142      476C3FEC 
 142      39FD
 143 0193 507276AD 		.ascii	"Prv\255]\365p:\372\263\032z@\245Z\314\015P]e:\345\212"
 143      5DF5703A 
 143      FAB31A7A 
 143      40A55ACC 
 143      0D505D65 
 144 01aa B1882D54 		.ascii	"\261\210-T\212b\215\302\257R\264\031\372)\012g.\374"
 144      8A628DC2 
 144      AF52B419 
 144      FA290A67 
 144      2EFC
 145 01bc 2A274E74 		.ascii	"*'Nt\213\270\302<\372`\334\252\364\3239\015`\200\012"
 145      8BB8C23C 
 145      FA60DCAA 
 145      F4D3390D 
 145      60800A
 146 01cf B0DC33AB 		.ascii	"\260\3343\253+\034X\355\237\207\325e\016\254>A\336U"
 146      2B1C58ED 
 146      9F87D565 
 146      0EAC3E41 
 146      DE55
 147 01e1 7B563859 		.ascii	"{V8Y\340^\031\350\210\260\212{\002\257|\350\033p\343"
 147      E05E19E8 
 147      88B08A7B 
ARM GAS  /tmp/cc2MVQ1V.s 			page 11


 147      02AF7CE8 
 147      1B70E3
 148 01f4 D542A87E 		.ascii	"\325B\250~\346\323\355\345D\270\022\272~\216\254`V\377"
 148      E6D3EDE5 
 148      44B812BA 
 148      7E8EAC60 
 148      56FF
 149 0206 838DB14D 		.ascii	"\203\215\261M\322\333\343\240\327\324um[\372\253\037"
 149      D2DBE3A0 
 149      D7D4756D 
 149      5BFAAB1F 
 150 0216 2B4A48E0 		.ascii	"+JH\340V\243\347\274\306\001\374\373\334s^qR\255{\006"
 150      56A3E7BC 
 150      C601FCFB 
 150      DC735E71 
 150      52AD7B06 
 151 022a 2A7E815B 		.ascii	"*~\201[\213(b/Q\272\266\354\3358\002\271Y\2178-\234"
 151      8B28622F 
 151      51BAB6EC 
 151      DD3802B9 
 151      598F382D 
 152 023f 1948E00A 		.ascii	"\031H\340\012\302f\177\206\337Z\003\212\006?iOwi.\344"
 152      C2667F86 
 152      DF5A038A 
 152      063F694F 
 152      77692EE4 
 153 0253 DE56EFD0 		.ascii	"\336V\357\320\037A\362\377N\3674Y\250\244\257w\265\314"
 153      1F41F2FF 
 153      4EF73459 
 153      A8A4AF77 
 153      B5CC
 154 0265 FC6850B3 		.ascii	"\374hP\263\222\236\242\364\364\274\255\332\234'G-\202"
 154      929EA2F4 
 154      F4BCADDA 
 154      9C27472D 
 154      82
 155 0276 7D972C51 		.ascii	"}\227,Q\224\006e\235\242\204\321\013xr\026[l\344\236"
 155      9406659D 
 155      A284D10B 
 155      7872165B 
 155      6CE49E
 156 0289 B6551736 		.ascii	"\266U\0276\"4\317\276G\373W\226+>\3644\242\322\230x"
 156      2234CFBE 
 156      47FB5796 
 156      2B3EF434 
 156      A2D29878 
 157 029d DEC49932 		.ascii	"\336\304\2312\024\343+\275y\317o\006+\251\232tO\317"
 157      14E32BBD 
 157      79CF6F06 
 157      2BA99A74 
 157      4FCF
 158 02af ABC4BDCB 		.ascii	"\253\304\275\313nS]6\343\246<9o\021\306\236\255\255"
 158      6E535D36 
 158      E3A63C39 
 158      6F11C69E 
 158      ADAD
 159 02c1 56B6B667 		.ascii	"V\266\266g\263\325U\327\365\331\341\3135\\\375\344T"
ARM GAS  /tmp/cc2MVQ1V.s 			page 12


 159      B3D555D7 
 159      F5D9E1CB 
 159      355CFDE4 
 159      54
 160 02d2 BB72BDA7 		.ascii	"\273r\275\247\247\237\231\263\020\231\206\251p\2522"
 160      A79F99B3 
 160      109986A9 
 160      70AA32
 161 02e1 89FB65FE 		.ascii	"\211\373e\376\\\270\213\013\001w3\235\223!m@TK\262k"
 161      5CB88B0B 
 161      0177339D 
 161      93216D40 
 161      544BB26B 
 162 02f5 ED8A738E 		.ascii	"\355\212s\216\275\235\346\2405\205\276)7eQ\356\311$"
 162      BD9DE6A0 
 162      3585BE29 
 162      376551EE 
 162      C924
 163 0307 0C3B623D 		.ascii	"\014;b=\321\247\0075\365\265\227N\340\226r\337s\233"
 163      D1A70735 
 163      F5B5974E 
 163      E09672DF 
 163      739B
 164 0319 C5B3FA6F 		.ascii	"\305\263\372o\317\364o\262 \032\261\236\267\032\221"
 164      CFF46FB2 
 164      201AB19E 
 164      B71A91
 165 0328 35DA6F6B 		.ascii	"5\332ok\245\326\343\027\205fe\227\346\324\333\320\251"
 165      A5D6E317 
 165      85666597 
 165      E6D4DBD0 
 165      A9
 166 0339 0F38401C 		.ascii	"\0178@\034\2647\364\254/\035\015\235\323\005\017Y\263"
 166      B437F4AC 
 166      2F1D0D9D 
 166      D3050F59 
 166      B3
 167 034a 2695DB22 		.ascii	"&\225\333\"\315Y\007V\216\330\262\362q\343\216\301\312"
 167      CD590756 
 167      8ED8B2F2 
 167      71E38EC1 
 167      CA
 168 035b 22AFA170 		.ascii	"\"\257\241p,\207#<J\352q\2702\244\273\224_\003\370'"
 168      2C87233C 
 168      4AEA71B8 
 168      32A4BB94 
 168      5F03F827 
 169 036f A2E7BBD6 		.ascii	"\242\347\273\3263;~\204\371\356$\367(\300\264\371\314"
 169      333B7E84 
 169      F9EE24F7 
 169      28C0B4F9 
 169      CC
 170 0380 6CE785E1 		.ascii	"l\347\205\341\311\032$9\015\344\214\220\005@\327\255"
 170      C91A2439 
 170      0DE48C90 
 170      0540D7AD 
 171 0390 96B335DC 		.ascii	"\226\2635\334$\220\201=#6\332P?\317\220\024\020\244"
ARM GAS  /tmp/cc2MVQ1V.s 			page 13


 171      2490813D 
 171      2336DA50 
 171      3FCF9014 
 171      10A4
 172 03a2 EFEC9FCF 		.ascii	"\357\354\237\317)\251]\234M\227#\265\036C\006\306\347"
 172      29A95D9C 
 172      4D9723B5 
 172      1E4306C6 
 172      E7
 173 03b3 9DA8E7A6 		.ascii	"\235\250\347\246 \376\357\221\365\023\366\254\247F:"
 173      20FEEF91 
 173      F513F6AC 
 173      A7463A
 174 03c2 01F1E422 		.ascii	"\001\361\344\"\222\234\317b\275\363\260\306\372y\027"
 174      929CCF62 
 174      BDF3B0C6 
 174      FA7917
 175 03d1 ACD7A48F 		.ascii	"\254\327\244\217\276\263`0e]\340Np4u\336\326q\355L\247"
 175      BEB36030 
 175      655DE04E 
 175      703475DE 
 175      D671ED4C 
 176 03e6 0FF384E8 		.ascii	"\017\363\204\350\214\231\361\216\355/\252\0234\260?"
 176      8C99F18E 
 176      ED2FAA13 
 176      34B03F
 177 03f5 7B062BB6 		.ascii	"{\006+\266cUs\300\214\264\002\3679\306\362\037\270g"
 177      635573C0 
 177      8CB402F7 
 177      39C6F21F 
 177      B867
 178 0407 A0BE08B5 		.ascii	"\240\276\010\265\376\341I\217nU;\325\345\027\341\336"
 178      FEE1498F 
 178      6E553BD5 
 178      E517E1DE 
 179 0417 FEF9A812 		.ascii	"\376\371\250\0225\247\270\231\007\244\324y@7\216\274"
 179      35A7B899 
 179      07A4D479 
 179      40378EBC 
 180 0427 53FD3643 		.ascii	"S\3756C\270+\240\326\332Ovr5h\276\253\010\365\353^C"
 180      B82BA0D6 
 180      DA4F7672 
 180      3568BEAB 
 180      08F5EB5E 
 181 043c 6D99B6F5 		.ascii	"m\231\266\365\207\310\3235\004\232\353\267\316\006\202"
 181      87C8D335 
 181      049AEBB7 
 181      CE0682
 182 044b 96D940D0 		.ascii	"\226\331@\320<:\007\303\231\013:(\367#\337rs\236,\362"
 182      3C3A07C3 
 182      990B3A28 
 182      F723DF72 
 182      739E2CF2 
 183 045f 5B0C67E7 		.ascii	"[\014g\347.\231Q\307b8\245\353f\3479\236\316\026|Z\374"
 183      2E9951C7 
 183      6238A5EB 
 183      66E7399E 
ARM GAS  /tmp/cc2MVQ1V.s 			page 14


 183      CE167C5A 
 184 0474 1438E908 		.ascii	"\0248\351\010\262\005\366u\313\032?\035\027\332\377"
 184      B205F675 
 184      CB1A3F1D 
 184      17DAFF
 185 0483 B64951FA 		.ascii	"\266IQ\372\263G\371\303\347\243\375\215\350+y\023\030"
 185      B347F9C3 
 185      E7A3FD8D 
 185      E82B7913 
 185      18
 186 0494 AF75FF5D 		.ascii	"\257u\377]\354\276\003\273\277k\355\276\361r\373\277"
 186      ECBE03BB 
 186      BF6BEDBE 
 186      F172FBBF 
 187 04a4 B1EEEFBA 		.ascii	"\261\356\357\272\352~s\307\234\354\356\035\023\257\352"
 187      EA7E73C7 
 187      9CECEE1D 
 187      13AFEA
 188 04b3 191D17BA 		.ascii	"\031\035\027\272\207\264b'\3671Jg\006\254\256\361\252"
 188      87B46227 
 188      F7314A67 
 188      06ACAEF1 
 188      AA
 189 04c4 71ACD3A6 		.ascii	"q\254\323\246\326z\003\236\314\011h\334\367*I\200\230"
 189      D67A039E 
 189      CC0968DC 
 189      F72A4980 
 189      98
 190 04d5 DDFFBE02 		.ascii	"\335\377\276\002\346k3\0124\036\032=#\026\233\024\261"
 190      E66B330A 
 190      341E1A3D 
 190      23169B14 
 190      B1
 191 04e6 B503D30E 		.ascii	"\265\003\323\016\003\233\347\006\314\321\217j\322\333"
 191      039BE706 
 191      CCD18F6A 
 191      D2DB
 192 04f4 8D600B3C 		.ascii	"\215`\013<\203\2319;b\004K\271\001\353\357\314\3311"
 192      8399393B 
 192      62044BB9 
 192      01EBEFCC 
 192      D931
 193 0506 23D812CF 		.ascii	"#\330\022\317`f\316N\030\301\332\334\200\015r\346\354"
 193      6066CE4E 
 193      18C1DADC 
 193      800D72E6 
 193      EC
 194 0517 94116CA5 		.ascii	"\224\021l\245g03g\247\215`\253\335\200\025\333p\246"
 194      67303367 
 194      A78D60AB 
 194      DD8015DB 
 194      70A6
 195 0529 7F9C2621 		.ascii	"\177\234&!w2s:\236\254\015h\011\301\243O\223\014\306"
 195      7732733A 
 195      9EAC0D68 
 195      09C1A34F 
 195      930CC6
ARM GAS  /tmp/cc2MVQ1V.s 			page 15


 196 053c FA80D704 		.ascii	"\372\200\327\004f\222\033F\357\363\213\271\331\223\225"
 196      66921B46 
 196      EFF38BB9 
 196      D99395
 197 054b F661DA08 		.ascii	"\366a\332\010\272\311\015b\016\207\251;`\030\216\267"
 197      BAC90D62 
 197      0E87A93B 
 197      60188EB7 
 198 055b 7B06339B 		.ascii	"{\0063\233e!\003kG\260\335n\300r8\314\021\012f7\207"
 198      6521036B 
 198      47B0DD6E 
 198      C07238CC 
 198      110A6637 
 199 0570 4FD72AD3 		.ascii	"O\327*\323\271Ik\207\344\234BA\016{r%\346\260y<\035"
 199      B9496B87 
 199      E49C4241 
 199      0E7B7225 
 199      E6B0793C 
 200 0585 DEF6056C 		.ascii	"\336\366\005l\307IWX\255\265\207\265Aw\001\202\235\350"
 200      C7495758 
 200      ADB587B5 
 200      41770182 
 200      9DE8
 201 0597 3D586ACB 		.ascii	"=Xj\313\336!t)\237B\240\263Y\2315l\031t\303\346a1\034"
 201      DE217429 
 201      9F42A0B3 
 201      5999356C 
 201      1974C3E6 
 202 05ae CE5CF468 		.ascii	"\316\\\364h\037\363\022\354[\245q\212\224f\336\020)"
 202      1FF312EC 
 202      5BA5718A 
 202      9466DE10 
 202      29
 203 05bf DD9E2D6F 		.ascii	"\335\236-o\366\362\233\235\377\3137*\351I>\303\356\234"
 203      F6F29B9D 
 203      FFCB372A 
 203      E9493EC3 
 203      EE9C
 204 05d1 D3A24D9B 		.ascii	"\323\242M\233`}u\325\207\223\231\367P\257_\332\033\310"
 204      607D75D5 
 204      879399F7 
 204      50AF5FDA 
 204      1BC8
 205 05e3 05506BED 		.ascii	"\005Pk\355\373?@\240\345\010t\267\327@[\246-d\233-\253"
 205      FB3F40A0 
 205      E50874B7 
 205      D7405BA6 
 205      2D649B2D 
 206 05f8 104829B0 		.ascii	"\020H)\260Z\232\263X\2323[@_x\252\353\316o\253-O\336"
 206      5A9AB358 
 206      9A335B40 
 206      5F78AAEB 
 206      CE6FAB2D 
 207 060e 29B098CB 		.ascii	")\260\230\313$N\216\374\251'\245\373\015\334\255\032"
 207      244E8EFC 
 207      A927A5FB 
 207      0DDCAD1A 
ARM GAS  /tmp/cc2MVQ1V.s 			page 16


 208 061e A5699807 		.ascii	"\245i\230\007{]W\355\365\001j\247.K;T\375\336\304h\362"
 208      7B5D57ED 
 208      F5016AA7 
 208      2E4B3B54 
 208      FDDEC468 
 209 0633 2C46C82C 		.ascii	",F\310,FK\217w1\356\252b|\204b,\374\013\210\321\346"
 209      464B8F77 
 209      31EEAA62 
 209      7C84622C 
 209      FC0B88D1 
 210 0648 598CFE06 		.ascii	"Y\214\376\0061p\2017\207\015\021\217\221\206\334\223"
 210      31708137 
 210      870D118F 
 210      9186DC93 
 211 0658 5CCACFC7 		.ascii	"\\\312\317\307\374c\246\031f\372\344!\256\230\335\316"
 211      FC63A619 
 211      66FAE421 
 211      AE98DDCE 
 212 0668 BFACBD75 		.ascii	"\277\254\275uh\276\2726d\373\233\253\220wJ\333\233i"
 212      68BEBA36 
 212      64FB9BAB 
 212      90774ADB 
 212      9B69
 213 067a 9F92AE3B 		.ascii	"\237\222\256;\214\343\007\003[\367P`5\351\326Y\332\302"
 213      8CE30703 
 213      5BF75060 
 213      35E9D659 
 213      DAC2
 214 068c 15B7FCB6 		.ascii	"\025\267\374\266<$\334\326\303\326\341\3102\247>\351"
 214      3C24DCD6 
 214      C3D6E1C8 
 214      32A73EE9 
 215 069c 90EFF435 		.ascii	"\220\357\3645\375\036m\020\331\315S\206ve9\313\011\316"
 215      FD1E6D10 
 215      D9CD5386 
 215      766539CB 
 215      09CE
 216 06ae 32ADA637 		.ascii	"2\255\2467\014M\234l\370;c\362=\371p6\000\377\271=["
 216      0C4D9C6C 
 216      F83B63F2 
 216      3DF97036 
 216      00FFB93D 
 217 06c3 9B623043 		.ascii	"\233b0Ct>\244\346\356\251\206\310\267\004\372\205\206"
 217      743EA4E6 
 217      EEA986C8 
 217      B704FA85 
 217      86
 218 06d4 5584825C 		.ascii	"U\204\202\\\300n\017\362\226\025\320\321;]\265\252\036"
 218      C06E0FF2 
 218      9615D0D1 
 218      3B5DB5AA 
 218      1E
 219 06e5 E9B3FC4E 		.ascii	"\351\263\374N\332y)\2544\024\261\235\024\201\373\202"
 219      DA7929AC 
 219      3414B19D 
 219      1481FB82 
 220 06f5 E35554BB 		.ascii	"\343UT\2731:\277\213\236\023\333\207y\330\377_\257\256"
ARM GAS  /tmp/cc2MVQ1V.s 			page 17


 220      313ABF8B 
 220      9E13DB87 
 220      79D8FF5F 
 220      AFAE
 221 0707 FB8F627E 		.ascii	"\373\217b~x'h5\371Z\353(\340a\013\034\322f\2203\013"
 221      78276835 
 221      F95AEB28 
 221      E0610B1C 
 221      D2669033 
 222 071c E3761DA3 		.ascii	"\343v\035\243\177\234\\\352\200\321\245\346\004\037"
 222      7F9C5CEA 
 222      80D1A5E6 
 222      041F
 223 072a CA01C0A5 		.ascii	"\312\001\300\245\366,e.\225\317\005\024\375\304\251"
 223      F62C652E 
 223      95CF0514 
 223      FDC4A9
 224 0739 3FF6DC82 		.ascii	"?\366\334\202=\237\266\372@\363\327\355\323\264\375"
 224      3D9FB6FA 
 224      40F3D7ED 
 224      D3B4FD
 225 0748 37573E70 		.ascii	"7W>p\333\306\007N\367\322\007\300\241\257\354\343\020"
 225      DBC6074E 
 225      F7D207C0 
 225      A1AFECE3 
 225      10
 226 0759 4E9D35EB 		.ascii	"N\2355\353Lz\264\202\012w_\364\252\030\346]\351\317"
 226      4C7AB482 
 226      0A775FF4 
 226      AA18E65D 
 226      E9CF
 227 076b 2ED154DD 		.ascii	".\321T\335\305\323\035\302\335Y\256\3054cp\255\214\032"
 227      C5D31DC2 
 227      DD59AEC5 
 227      346370AD 
 227      8C1A
 228 077d 05EE0C4F 		.ascii	"\005\356\014Ow\307:y\272;\366{\254\317\361\206=2'\267"
 228      77C73A79 
 228      BA3BF67B 
 228      ACCFF186 
 228      3D3227B7 
 229 0791 389F710B 		.ascii	"8\237q\013\201\273`U\243\333\305L\336n:\214\336w\360"
 229      81BB6055 
 229      A3DBC54C 
 229      DE6E3A8C 
 229      DE77F0
 230 07a4 21BDEF66 		.ascii	"!\275\357f\347!?n\372x\330\256\373\255\032\266\2270"
 230      E7213F6E 
 230      FA78D8AE 
 230      FBAD1AB6 
 230      9730
 231 07b6 6C8F67E9 		.ascii	"l\217g\351\366\2525l\335\354^\235\357\255 \372\207'"
 231      F6AA356C 
 231      DDEC5E9D 
 231      EFAD20FA 
 231      8727
 232 07c8 5F045D4C 		.ascii	"_\004]L\255\213mt"
ARM GAS  /tmp/cc2MVQ1V.s 			page 18


 232      AD8B6D74 
 233 07d0 AE65F796 		.ascii	"\256e\367\226S\352\354 \357\026\230\276\211~p\222\272"
 233      53EAEC20 
 233      EF1698BE 
 233      897E7092 
 233      BA
 234 07e1 177D153D 		.ascii	"\027}\025=\255\333\242\015\027{iw\220\344\2325\214o"
 234      ADDBA20D 
 234      177B6977 
 234      90E49A35 
 234      8C6F
 235 07f3 B51CD4F6 		.ascii	"\265\034\324\366\242\257\271\010\343\232\364\207\246"
 235      A2AFB908 
 235      E39AF487 
 235      A6
 236 0800 BD68CD03 		.ascii	"\275h\315\003\257\345\366\300\234\0325\031\361\232!"
 236      AFE5F6C0 
 236      9C1A3519 
 236      F19A21
 237 080f 40AE6380 		.ascii	"@\256c\200\3340\006\005O\246\205\\h\377Y'W\2044t\214"
 237      DC300605 
 237      4FA6855C 
 237      68FF5927 
 237      57843474 
 238 0824 1D0368DB 		.ascii	"\035\003h\333\372\263\254xv\211\310\204g\264&,\336\217"
 238      FAB3AC78 
 238      7689C884 
 238      67B4262C 
 238      DE8F
 239 0836 E37C8979 		.ascii	"\343|\211yi\223\033\346\2069\203\265\316\326\224\333"
 239      69931BE6 
 239      863983B5 
 239      CED694DB 
 240 0846 81F39345 		.ascii	"\201\363\223En\360F8\011[\223\336x\\\233\034\262M\357"
 240      6EF04638 
 240      095B93DE 
 240      785C9B1C 
 240      B24DEF
 241 0859 159EF1CC 		.ascii	"\025\236\361\314\374\235\234m\232\317\255s\0037\322"
 241      FC9D9C6D 
 241      9ACFAD73 
 241      0337D2
 242 0868 B5ED3367 		.ascii	"\265\3553g<\220\034\361\350\240\023\217\016.c}\023\353"
 242      3C901CF1 
 242      E8A0138F 
 242      0E2E637D 
 242      13EB
 243 087a 064C9473 		.ascii	"\006L\224s\260\236\213u\023\326K\261^\203\365z\2547"
 243      B09E8B75 
 243      13D64BB1 
 243      5E83F57A 
 243      AC37
 244 088c 63FD47AC 		.ascii	"c\375G\254oa}\033\353;X\337\303\372k7\011\3272\003\324"
 244      6F617D1B 
 244      EB3B58DF 
 244      C3FA6B37 
 244      09D73203 
ARM GAS  /tmp/cc2MVQ1V.s 			page 19


 245 08a1 4FE556B3 		.ascii	"O\345V\263\004d9\230\333\024\262?\230{\300\333\035\314"
 245      04643998 
 245      DB14B23F 
 245      987BC0DB 
 245      1DCC
 246 08b3 6DE9D8FE 		.ascii	"m\351\330\376\224~\314h9\231\243\375:\361\244\370\262"
 246      947ECC68 
 246      3999A3FD 
 246      3AF1A4F8 
 246      B2
 247 08c4 4FA93F71 		.ascii	"O\251?q\350y\222\317\256\347\035m\237\275\262`\2352"
 247      E87992CF 
 247      AEE71D6D 
 247      9FBDB260 
 247      9D32
 248 08d6 6586F2A0 		.ascii	"e\206\362\240\347m\316C\327\223}\331\357t\250\327\036"
 248      E76DCE43 
 248      D7937DD9 
 248      EF74A8D7 
 248      1E
 249 08e7 0E3E967D 		.ascii	"\016>\226}\376\2435\2705T\353\243\216\231\012[\323{"
 249      FEA335B8 
 249      3554EBA3 
 249      8E990A5B 
 249      D37B
 250 08f9 C092DD03 		.ascii	"\300\222\335\003\346\354\036\010g.2G\031:O\335\3146"
 250      E6EC1E08 
 250      672E3247 
 250      193A4FDD 
 250      CC36
 251 090b F647D8F4 		.ascii	"\366G\330\364\015\205\034\274\355h\3339h9\3626\323G"
 251      0D851CBC 
 251      ED68DB39 
 251      6839F236 
 251      D347
 252 091d BD7C5916 		.ascii	"\275|Y\026o+\255\213\204\225f\027\261h'\333I\326\204"
 252      6F2BAD8B 
 252      84956617 
 252      B16827DB 
 252      49D684
 253 0930 ED4D35CB 		.ascii	"\355M5\313\326T[\032\267\017vr\222\3259\216\343\353"
 253      D6545B1A 
 253      B70F7672 
 253      92D5398E 
 253      E3EB
 254 0942 AD96A266 		.ascii	"\255\226\242f\315\343\276;\0358\233c\346\354\257\311"
 254      CDE3BE3B 
 254      1D389B63 
 254      E6ECAFC9 
 255 0952 2225D5D0 		.ascii	"\"%\325\320\365\331\254\363\015\\\003=\342V\32209~\032"
 255      F5D9ACF3 
 255      0D5C033D 
 255      E256D230 
 255      397E1A
 256 0965 CDC19303 		.ascii	"\315\301\223\003:\210\023ks3p\024\352\003z\340~n\022"
 256      3A88136B 
 256      73337014 
ARM GAS  /tmp/cc2MVQ1V.s 			page 20


 256      EA037AE0 
 256      7E6E12
 257 0978 375BD1A1 		.ascii	"7[\321\241\264\367\241\014k\274t\256s\223\354#\020\265"
 257      B4F7A10C 
 257      6BBC74AE 
 257      7393EC23 
 257      10B5
 258 098a 554A9FB6 		.ascii	"UJ\237\266=\216\2673\300H\340\320J\340\346\371\2647"
 258      3D8EB733 
 258      C048E0D0 
 258      4AE0E6F9 
 258      B437
 259 099c AEDA8C33 		.ascii	"\256\332\2143\015\303OX\350Y\005\315\206i1K\012\346"
 259      0DC34F58 
 259      E85905CD 
 259      8669314B 
 259      0AE6
 260 09ae BCD57272 		.ascii	"\274\325rr/\327\220\221\324n\252\031\324`\022\304\260"
 260      2FD79091 
 260      D46EAA19 
 260      D46012C4 
 260      B0
 261 09bf 7AFD6A11 		.ascii	"z\375j\0217\231m\201\372\350\320u:l;\013p\006\342\311"
 261      37996D81 
 261      FAE8D075 
 261      3A6C3B0B 
 261      7006E2C9 
 262 09d3 452449F9 		.ascii	"E$I\371\262f\001\347j\325Y\000}\226\1772_\337\351x\230"
 262      B26601E7 
 262      6AD55900 
 262      7D967F32 
 262      5FDFE978 
 263 09e8 DEA5AB60 		.ascii	"\336\245\253`\210\201\3673\035\237\253\274/E\336\257"
 263      8881F733 
 263      1D9FABBC 
 263      2F45DEAF 
 264 09f8 E5E7DD0C 		.ascii	"\345\347\335\014\304\223\257\221dY6\357\177\232\252"
 264      C493AF91 
 264      645936EF 
 264      7F9AAA
 265 0a07 F2BECC15 		.ascii	"\362\276\314\025\357\033;\2143\000m)Bi{\267\024\331"
 265      EF1B3B8C 
 265      33006D29 
 265      42697BB7 
 265      14D9
 266 0a19 C40E42BA 		.ascii	"\304\016B\272q[\351\206\025\314\323BD\321\316\310\330"
 266      715BE986 
 266      15CCD342 
 266      44D1CEC8 
 266      D8
 267 0a2a 99673DEF 		.ascii	"\231g=\357\025\254\330\304\331\361F\363\\m\266\033\274"
 267      15ACD8C4 
 267      D9F146F3 
 267      5C6DB61B 
 267      BC
 268 0a3b 1C0715EA 		.ascii	"\034\007\025\352a\024\003{\3273\230\231\2713\035\206"
 268      6114037B 
ARM GAS  /tmp/cc2MVQ1V.s 			page 21


 268      D7339899 
 268      B9331D86 
 269 0a4b 538F197D 		.ascii	"S\217\031}\270\374`v\007\025v\037\243\223\010\334\012"
 269      B8FC6076 
 269      0715761F 
 269      A39308DC 
 269      0A
 270 0a5c 1F9D49AC 		.ascii	"\037\235I\254\364\321\361~\025\326\277\305\372}\254"
 270      F4D1F17E 
 270      15D6BFC5 
 270      FA7DAC
 271 0a6b 5763BDC6 		.ascii	"Wc\275\306g\232c\326\367\321\242\304\326\025\363\271"
 271      679A63D6 
 271      F7D1A2C4 
 271      D615F3B9 
 272 0a7b 84926E76 		.ascii	"\204\222nv\016\017\323\016\213\036\331\227'qS\321\205"
 272      0E0FD30E 
 272      8B1ED997 
 272      277153D1 
 272      85
 273 0a8c 3FC4E868 		.ascii	"?\304\350h\354\2237:,;5\357#\305\206\254\340\350<\245"
 273      EC93373A 
 273      2C3B35EF 
 273      23C586AC 
 273      E0E83CA5 
 274 0aa0 05C70617 		.ascii	"\005\307\006\027\301Q\223>;\327\335F\2219\321\351Q~"
 274      C151933E 
 274      3BD7DD46 
 274      9139D1E9 
 274      517E
 275 0ab2 517B6766 		.ascii	"Q{gf\013\312\261;\277\034f \236\234@\222\355\331\202"
 275      0BCAB13B 
 275      BF1C6620 
 275      9E9C4092 
 275      EDD982
 276 0ac5 ECD104D9 		.ascii	"\354\321\004\331\356J\220\005s5\337\377\330\227Y\247"
 276      EE4A9005 
 276      7335DFFF 
 276      D89759A7 
 277 0ad5 6CCFED61 		.ascii	"l\317\355a\216&\255I/<\205\356\312\300.y\0063\373\376"
 277      8E26AD49 
 277      2F3C85EE 
 277      CAC02E79 
 277      0633FBFE 
 278 0ae9 DA53F307 		.ascii	"\332S\363\007)\251\235\332\333+J\255\362\354\362\214"
 278      29A99DDA 
 278      DB2B4AAD 
 278      F2ECF28C 
 279 0af9 4AFA6B08 		.ascii	"J\372k\010\274Q\265\033\236\303\345\360n\234/]\262("
 279      BC51B51B 
 279      9EC3E5F0 
 279      6E9C2F5D 
 279      B228
 280 0b0b D60350ED 		.ascii	"\326\003P\355\306\277C\240\275\010\364e\257\201\266"
 280      C6BF43A0 
 280      BD08F465 
 280      AF81B6
ARM GAS  /tmp/cc2MVQ1V.s 			page 22


 281 0b1a 4C5BC6DE 		.ascii	"L[\306\336]\331\217@w\373XgI>\313\014\316g\236\301\371"
 281      5DD98F40 
 281      77FB5867 
 281      493ECB0C 
 281      CE679EC1 
 282 0b2f C2998B9E 		.ascii	"\302\231\213\236\036\037\371\026\033\363dr!g6\230I\242"
 282      1E1FF916 
 282      1BF36472 
 282      21673698 
 282      49A2
 283 0b41 7C69996E 		.ascii	"|i\231n`\034\014\340\006\206\267\251d\353<\230\324\260"
 283      601C0CE0 
 283      0686B7A9 
 283      64EB3C98 
 283      D4B0
 284 0b53 8DD2C338 		.ascii	"\215\322\3038\227\234Q\350u.\311\223\006+\357\336F\001"
 284      979C51E8 
 284      752EC993 
 284      062BEFDE 
 284      4601
 285 0b65 089D4FDF 		.ascii	"\010\235O\337\323v\223q\331\326\350\006\320n\030\260"
 285      D3769371 
 285      D9D6E806 
 285      D06E18B0 
 286 0b75 FB186355 		.ascii	"\373\030cU\340\322\230lwbR\335\205\365\357\260>\204"
 286      E0D2986C 
 286      776252DD 
 286      85F5EFB0 
 286      3E84
 287 0b87 F5719F8B 		.ascii	"\365q\237\213\345\026\2150\035\233E\355\206^G\355\365"
 287      E5168D30 
 287      1D9B45ED 
 287      865E47ED 
 287      F5
 288 0b98 ECA8F502 		.ascii	"\354\250\365\002fRd\372\266\032\265,\010\005\356S\237"
 288      665264FA 
 288      B61AB52C 
 288      0805EE53 
 288      9F
 289 0ba9 05CF9B53 		.ascii	"\005\317\233S\245\3474\026\035\371\205\026\321-\205"
 289      A5E73416 
 289      1DF98516 
 289      D12D85
 290 0bb8 9C4730ED 		.ascii	"\234G0\355\365}[\243l0\030e\023\032e3\232\340$\326\247"
 290      F57D5BA3 
 290      6C301865 
 290      131A6533 
 290      9AE024D6 
 291 0bcd B0EE308F 		.ascii	"\260\3560\217zK\013-\243\236i\210\261\033\203\215\352"
 291      7A4B0B2D 
 291      A39E6988 
 291      B11B838D 
 291      EA
 292 0bde 51D21F74 		.ascii	"Q\322\037t\202\256\335oi\375I\333\322\352\304\241bU"
 292      82AEDD6F 
 292      69FD49DB 
 292      D2EAC4A1 
ARM GAS  /tmp/cc2MVQ1V.s 			page 23


 292      6255
 293 0bf0 A1ED5091 		.ascii	"\241\355P\221kK\353c$9\227=!|\240\015\025\347\362\017"
 293      6B4BEB63 
 293      2439973D 
 293      217CA00D 
 293      15E7F20F 
 294 0c04 155326A7 		.ascii	"\025S&\247\233\347\265e\306\274\311zl\357\313\261\264"
 294      9BE7B565 
 294      C6BCC97A 
 294      6CEFCBB1 
 294      B4
 295 0c15 6A37BE95 		.ascii	"j7\276\225\262_\347\303\243\223\332\233\356\234\301"
 295      B25FE7C3 
 295      A393DA9B 
 295      EE9CC1
 296 0c24 745D68BA 		.ascii	"t]h\272\317\315\206:a5\224\307-\260\315\235\332\004"
 296      CFCD863A 
 296      613594C7 
 296      2DB0CD9D 
 296      DA04
 297 0c36 98BD947B 		.ascii	"\230\275\224{\332\212g~\005\327\016\2608\227\000)\203"
 297      DA8A677E 
 297      05D70EB0 
 297      38970029 
 297      83
 298 0c47 008B5180 		.ascii	"\000\213Q\200%\350o\353\260>\203\365%\263H\027t\353"
 298      25E86FEB 
 298      B03E83F5 
 298      25B34817 
 298      74EB
 299 0c59 DB2E5C28 		.ascii	"\333.\\(\352e\363B*\005>4\373\334\"\343B\312\270\262"
 299      EA65F342 
 299      2A053E34 
 299      FBDC22E3 
 299      42CAB8B2 
 300 0c6d 33EC6064 		.ascii	"3\354`d\257\311\256d/\355x\362\205\225\205l\272?ZV\255"
 300      AFC9AE64 
 300      2FED78F2 
 300      8595856C 
 300      BA3F5A56 
 301 0c82 E9AE9699 		.ascii	"\351\256\226\231w\026\301\252U\261\260@_\0126-[5o\006"
 301      7716C1AA 
 301      55B1B040 
 301      5F0A362D 
 301      5B356F06 
 302 0c96 AFCC73A2 		.ascii	"\257\314s\242\000k\352O\206\303\270\232\367\000B\340"
 302      006BEA4F 
 302      86C3B89A 
 302      F70042E0 
 303 0ca6 BE04DDE6 		.ascii	"\276\004\335\346mF\033\336\260\204H\372k\261\230\335"
 303      6D461BDE 
 303      B08448FA 
 303      6BB198DD 
 304 0cb6 CD3F8FFA 		.ascii	"\315?\217\372\346\233vv\320\322\216\343R#\316\372o\364"
 304      E69B7676 
 304      D0D28EE3 
 304      5223CEFA 
ARM GAS  /tmp/cc2MVQ1V.s 			page 24


 304      6FF4
 305 0cc8 3A21F75C 		.ascii	":!\367\\A8\3130\272\315a\030\245\354\335\366Y\306\303"
 305      4138CB30 
 305      BACD6118 
 305      A5ECDDF6 
 305      59C6C3
 306 0cdb 6B68282F 		.ascii	"kh(/,\024\233X\250\333\203c\302m\034\220\277r\003\226"
 306      2C149B58 
 306      A8DB8363 
 306      C26D1C90 
 306      BF720396 
 307 0cef 23873718 		.ascii	"#\2077\030\301\276\361\014V\234\025<,lnb\330\334\302"
 307      C1BEF10C 
 307      569C153C 
 307      2C6C6E62 
 307      D8DCC2
 308 0d02 50F90AEB 		.ascii	"P\371\012\353;X\3373\207\315\324\"\353t\202\031\325"
 308      3B58DF33 
 308      87CDD422 
 308      EB748219 
 308      D5
 309 0d13 8097B13D 		.ascii	"\200\227\261=\311\217ho\003\213\261\2569\310G\361\357"
 309      C98F686F 
 309      038BB1AE 
 309      39C847F1 
 309      EF
 310 0d24 FB4CB399 		.ascii	"\373L\263\231\014\344H\263\370\2068aD\366\315\004\356"
 310      0CE448B3 
 310      F8863861 
 310      44F6CD04 
 310      EE
 311 0d35 1B9FD77F 		.ascii	"\033\237\327\177\273=\360\331\377\333\315\370NN\246"
 311      BB3DF0D9 
 311      FFDBCDF8 
 311      4E4EA6
 312 0d44 153DC12D 		.ascii	"\025=\301-\262\004~\026\023=\020\367O\221\305E\013\024"
 312      B2047E16 
 312      133D10F7 
 312      4F91C545 
 312      0B14
 313 0d56 76E745F2 		.ascii	"v\347E\362\2412=\015!\364?\300\235\356\026\377E\376"
 313      A1323D0D 
 313      21F43FC0 
 313      9DEE16FF 
 313      45FE
 314 0d68 AC34295D 		.ascii	"\2544)]-\007\356\014g2\321\034q\344Hz\355^\232na\026"
 314      2D07EE0C 
 314      6732D11C 
 314      71E4487A 
 314      ED5E9A6E 
 315 0d7e F8003204 		.ascii	"\370\0002\004S\037O\266Z;\315\216\332)~\336\320\333"
 315      531F4FB6 
 315      5A3BCD8E 
 315      DA297EDE 
 315      D0DB
 316 0d90 4846C94C 		.ascii	"HF\311L\310\272J\177\270\227s\363\037\302\345:\364@"
 316      C8BA4A7F 
ARM GAS  /tmp/cc2MVQ1V.s 			page 25


 316      B89773F3 
 316      1FC2E53A 
 316      F440
 317 0da2 157ABADF 		.ascii	"\025z\272\337\253Vg\370\355\265\372xN\317\021\270i~"
 317      AB5667F8 
 317      EDB5FA78 
 317      4ECF11B8 
 317      697E
 318 0db4 DD219E22 		.ascii	"\335!\236\"\373@\203M#3\3353O\244\024\267\321o\230O"
 318      FB40834D 
 318      2333DD33 
 318      4FA414B7 
 318      D16F984F 
 319 0dc8 1A7FDF53 		.ascii	"\032\177\337S\205\235\256\2447\005\265\\`\374\243\225"
 319      859DAEA4 
 319      3705B55C 
 319      60FCA395 
 320 0dd8 DA2F9350 		.ascii	"\332/\223P\363>\213\303\006\234\305\372\225\337\376"
 320      F33E8BC3 
 320      069CC5FA 
 320      95DFFE
 321 0de7 2F8E02D7 		.ascii	"/\216\002\327\2241m\026\325\257\035\251\026\344\210"
 321      94316D16 
 321      D5AF1DA9 
 321      16E488
 322 0df6 8DDF3852 		.ascii	"\215\3378R\321-u'\252Y\216TWrpX\347H\245\344\350\253"
 322      D12D7527 
 322      AA598E54 
 322      57727058 
 322      E748A5E4 
 323 0e0c DE91EA58 		.ascii	"\336\221\352X\216\004\335\340Hu(\007\325lG\252\2359"
 323      8E04DDE0 
 323      48752807 
 323      D56C47AA 
 323      9D39
 324 0e1e A8E664A8 		.ascii	"\250\346d\250\324\177\037\356h\3337z\015}M\235\236c"
 324      D47F1FEE 
 324      68DB377A 
 324      0D7D4D9D 
 324      9E63
 325 0e30 4C9AF29A 		.ascii	"L\232\362\232e\177\274;\307$n\256\337\346\257~\226\214"
 325      657FBC3B 
 325      C7246EAE 
 325      DFE6AF7E 
 325      968C
 326 0e42 AAFED5AF 		.ascii	"\252\376\325\257FY\267\234\376s\221\235+\010\334\273"
 326      4659B79C 
 326      FE73919D 
 326      2B08DCBB 
 327 0e52 7EFBBF2D 		.ascii	"~\373\277-\252x\215~\273?$\336;6_\375C\342\016\345\231"
 327      AA788D7E 
 327      BB3F24DE 
 327      3B365FFD 
 327      43E20EE5 
 328 0e67 1033054F 		.ascii	"\0203\005On\344\356\221\275\220$p\315\271{\234g\356"
 328      6EE4EE91 
 328      BD902470 
ARM GAS  /tmp/cc2MVQ1V.s 			page 26


 328      CDB97B9C 
 328      67EE
 329 0e79 F1FBA48D 		.ascii	"\361\373\244\215N\205[\016\334\037\320\\\027\312z\255"
 329      4E855B0E 
 329      DC1FD05C 
 329      17CA7AAD 
 330 0e89 294BE7F5 		.ascii	")K\347\3659\274bAF\347\304\037-\027\244\202\327\377"
 330      39BC6241 
 330      46E7C41F 
 330      2D17A482 
 330      D7FF
 331 0e9b E567C5A3 		.ascii	"\345g\305\243\310\013C\207\226\304\223%\321xUU<V\222"
 331      C80B4387 
 331      96C49325 
 331      D1785555 
 331      3C5692
 332 0eae 884B72B2 		.ascii	"\210Kr\262\344\265\237\214\0365z\002\275\227\250\250"
 332      E4B59F8C 
 332      1E357A02 
 332      BD97A8A8 
 333 0ebe 14A564C9 		.ascii	"\024\245d\311\353\243F\225D\313\345\211\01119\264\234"
 333      EBA34695 
 333      44CBE589 
 333      093139B4 
 333      9C
 334 0ecf 04AA9265 		.ascii	"\004\252\222e\021\371\311\222\352\244TR\021\213VV\227"
 334      11F9C992 
 334      EAA45452 
 334      118B5656 
 334      97
 335 0ee0 8A253171 		.ascii	"\212%1q|e\305\230\222\244\\Z\021\223\241M\020\276\376"
 335      7C65C598 
 335      92A45C5A 
 335      1193A14D 
 335      10BEFE
 336 0ef3 FE8588FC 		.ascii	"\376\205\210\374\274]\253*!Z^\021\023K\"\245\342X\241"
 336      BC5DAB2A 
 336      215A5E11 
 336      134B22A5 
 336      E258A1
 337 0f06 BA528E68 		.ascii	"\272R\216h\310\341HD\245\373\001\260%\213I\271D\222"
 337      C8E14844 
 337      A5FB01B0 
 337      258B49B9 
 337      4492
 338 0f18 4B92F16A 		.ascii	"K\222\361j)*\262\237\264\212$\305_V\213\261\250\030"
 338      292AB29F 
 338      B48A24C5 
 338      5F568BB1 
 338      A818
 339 0f2a 1936ECE5 		.ascii	"\0316\354\345\241QR\210\374\224K\242P:\234K<\216M\340"
 339      A1515288 
 339      FC944BA2 
 339      503A9C4B 
 339      3C8E4DE0 
 340 0f3e 0994E111 		.ascii	"\011\224\341\021q\202\030\255\226\305'48\332}\264<B"
 340      718218AD 
ARM GAS  /tmp/cc2MVQ1V.s 			page 27


 340      96C52734 
 340      38DA7DB4 
 340      3C42
 341 0f50 AFA92491 		.ascii	"\257\251$\221\177\214\307+\007\342\317\210\220L\212"
 341      7F8CC72B 
 341      07E2CF88 
 341      904C8A
 342 0f5f 5206FC3B 		.ascii	"R\006\374;\2718\220\342qJ?\000\177\214\027*d\265\377"
 342      B93890E2 
 342      714A3F00 
 342      7F8C172A 
 342      64B5FF
 343 0f72 643FBC23 		.ascii	"d?\274#V\321;\361\267\304\330`\246^\300\320t\020-\007"
 343      56D13BF1 
 343      B7C4D860 
 343      A65EC0D0 
 343      74102D07 
 344 0f86 7681F629 		.ascii	"v\201\366)\233'\311\211IM\025!\006\030\221\303\224]"
 344      9B27C989 
 344      494D1521 
 344      061891C3 
 344      945D
 345 0f98 BCFE2B3B 		.ascii	"\274\376+;\212hy)"
 345      8A687929 
 346 0fa0 B4EEA776 		.ascii	"\264\356\247v\037\001\336\253\305\210\334_'Ro\371c\342"
 346      1F01DEAB 
 346      C588DC5F 
 346      27526FF9 
 346      63E2
 347 0fb2 04D99F90 		.ascii	"\004\331\237\220\304q\001\374\035\224\023RE<\"\207\252"
 347      C47101FC 
 347      1D941352 
 347      453C2287 
 347      AA
 348 0fc3 5585F789 		.ascii	"U\205\367\211D\264K?}TD]!\022\215\307d \374N\016')\217"
 348      44B44B3F 
 348      7D54445D 
 348      21128DC7 
 348      6420FC4E 
 349 0fdb C6251158 		.ascii	"\306%\021X(D\002\200\210\312\023\276\237\257}d\334\313"
 349      28440280 
 349      88CA13BE 
 349      9FAF7D64 
 349      DCCB
 350 0fed 55544849 		.ascii	"UTHI,\023\244\252\210\314K/\362\322?\360\322K\274"
 350      2C13A4AA 
 350      88CC4B2F 
 350      F2D23FF0 
 350      D24BBC
 351 1000 F4322F8D 		.ascii	"\3642/\215\340\245\037\372\244\341\303\240\014\347+"
 351      E0A51FFA 
 351      A4E1C3A0 
 351      0CE72B
 352 100f 253E99F0 		.ascii	"%>\231\360\001h\000\274G\224\002\361\312RQ\362\307\204"
 352      016800BC 
 352      479402F1 
 352      CA5251F2 
ARM GAS  /tmp/cc2MVQ1V.s 			page 28


 352      C784
 353 1021 2AB14F52 		.ascii	"*\261OR~K\250\254(\213\251b\274\364\242.\006\275,\030"
 353      7E4BA8AC 
 353      288BA962 
 353      BCF4A22E 
 353      06BD2C18 
 354 1035 2F8C1192 		.ascii	"/\214\021\222bHN\312\202\014:\011\322\007#@\241\254"
 354      62484ECA 
 354      820C3A09 
 354      D2072340 
 354      A1AC
 355 1047 095C05F0 		.ascii	"\011\\\005\360IP\256\212\227\302\363\300\330J\241,\031"
 355      4950AE8A 
 355      97C2F3C0 
 355      D84AA12C 
 355      19
 356 1058 9425716C 		.ascii	"\224%ql\022\224@\277\012\244\322\211`\255\2208\241B"
 356      129440BF 
 356      0AA4D289 
 356      60AD9038 
 356      A142
 357 106a 8E42A382 		.ascii	"\216B\243\202\361r|\314\177$\036Um\003MD\011\035Q\016"
 357      F1727CCC 
 357      7F241E55 
 357      6D034D44 
 357      091D510E 
 358 107e 8C976529 		.ascii	"\214\227e)\021L\2121\031\010\212@\375I\261JH\224\203"
 358      114C8A31 
 358      19088A40 
 358      FD49B14A 
 358      489483
 359 1091 AC762E00 		.ascii	"\254v.\000\017\251\373Ec\340&>\250\001\030n%B@W\005"
 359      0FA9FB45 
 359      63E0263E 
 359      A801186E 
 359      25424057 
 360 10a6 EE3AC1D6 		.ascii	"\356:\301\326m\344\011\224&>>&JAlEe\224\341v\242P\034"
 360      6DE40994 
 360      263E3E26 
 360      4A416C45 
 360      6594E176 
 361 10bd 473B1692 		.ascii	"G;\026\222o\301-q<\275\340\252\373j\016PY\001.)\367"
 361      6FC12D71 
 361      3CBDE0AA 
 361      FB6A0E50 
 361      59012E29 
 362 10d2 33B804BD 		.ascii	"3\270\004\275\023\244n[\021+\013\001\277\350\022!1!"
 362      13A46E5B 
 362      112B0B01 
 362      BFE81221 
 362      3121
 363 10e4 C6207CCB 		.ascii	"\306 |\313\202\000I[\200u\204J\352\013\201\252\004\204"
 363      8200495B 
 363      8075844A 
 363      EA0B81AA 
 363      0484
 364 10f6 0908353A 		.ascii	"\011\0105:Y\366\023\261R\004\255\206\361\307\317\001"
ARM GAS  /tmp/cc2MVQ1V.s 			page 29


 364      59F613B1 
 364      5204AD86 
 364      F1C7CF01 
 365 1106 E2491B56 		.ascii	"\342I\033V\325~\200\335\0270\376i\324\225E\243%`\353"
 365      D57E80DD 
 365      1730FE69 
 365      D49545A3 
 365      2560EB
 366 1119 E763F198 		.ascii	"\347c\361\230\370\274(\214\251(yq\350\210\241/\350T"
 366      F8BC288C 
 366      A9287971 
 366      E888A12F 
 366      E854
 367 112b 903A201D 		.ascii	"\220: \035\000IA\262\342?\251\271\344\261\325\261hD"
 367      004941B2 
 367      E23FA9B9 
 367      E4B1D5B1 
 367      6844
 368 113d 1E102DFF 		.ascii	"\036\020-\377iy\351(\000\224\3057\300^\025Q\326\367"
 368      6979E928 
 368      0094C537 
 368      C05E1551 
 368      D6F7
 369 114f 1BC06C98 		.ascii	"\033\300l\230\245\003YL\360\343\205B\252t\010 \261\212"
 369      A503594C 
 369      F0E38542 
 369      AA740820 
 369      B18A
 370 1161 050DBB2E 		.ascii	"\005\015\273.\242\234LTu\360\010\334\316\374\016F\253"
 370      A29C4C54 
 370      75F008DC 
 370      CEFC0E46 
 370      AB
 371 1172 25309F1C 		.ascii	"%0\237\034\220\350\257\201\343*$\271Z\250\214\310\025"
 371      90E8AF81 
 371      E32A24B9 
 371      5AA88CC8 
 371      15
 372 1183 5590F354 		.ascii	"U\220\363T\212'\200\302\346A?\323=\026o\246[a\332;\\"
 372      8A2780C2 
 372      E6413FD3 
 372      3D166FA6 
 372      5B61DA3B 
 373 1198 A8AE39FC 		.ascii	"\250\2569\374%\3355\351e\240T\254\224\205\3208UD?\375"
 373      25DD35E9 
 373      65A054AC 
 373      9485D038 
 373      55443FFD 
 374 11ac F2250429 		.ascii	"\362%\004)T)$eJV0N\246\335\364U\345)\025\307T\2271\023"
 374      54292465 
 374      4A56304E 
 374      A6DDF455 
 374      E52915C7 
 375 11c4 1AEF8413 		.ascii	"\032\357\204\023B\254\"\032\001\003\372J\307\224\365"
 375      42AC221A 
 375      0103FA4A 
 375      C794F5
ARM GAS  /tmp/cc2MVQ1V.s 			page 30


 376 11d3 A912001E 		.ascii	"\251\022\000\0365\317G\313\203\252\015\002IQ\256N\204"
 376      35CF47CB 
 376      83AA0D02 
 376      4951AE4E 
 376      84
 377 11e4 6451904A 		.ascii	"dQ\220J\301u\202jB\354C5\027\005C\202\202\263r\352\340"
 377      C175826A 
 377      42EC4335 
 377      17054382 
 377      82B372EA 
 378 11f9 A152BC54 		.ascii	"\241R\274T\220\205\241YO\212\214\311u\340h1\231\024"
 378      9085A159 
 378      4F8A8CC9 
 378      75E06831 
 378      9914
 379 120b CAC464F1 		.ascii	"\312\304d\361\033\2424N\224\212+\343\361\004a\366z]"
 379      1BA2344E 
 379      948A2BE3 
 379      F10461F6 
 379      7A5D
 380 121d 94FF153C 		.ascii	"\224\377\025<G\252\220'\276\371\210v\347\015\261r\354"
 380      47AA9027 
 380      BEF98876 
 380      E70DB172 
 380      EC
 381 122e 9BFF07CF 		.ascii	"\233\377\007\317Y\350q"
 381      59E871
 382              		.text
 383              		.section	.gnu.lto_.symtab.2ce54cc7b95ac860,"",%progbits
 384 0000 74657374 		.ascii	"test_sequence_007\000\000\000\000\000\000\000\000\000"
 384      5F736571 
 384      75656E63 
 384      655F3030 
 384      37000000 
 385 001a 000000EB 		.ascii	"\000\000\000\353\001\000\000test_step\000\000\002\000"
 385      01000074 
 385      6573745F 
 385      73746570 
 385      00000200 
 386 002e 00000000 		.ascii	"\000\000\000\000\000\000\000\000\225\001\000\000wa\000"
 386      00000000 
 386      95010000 
 386      776100
 387 003d 00020000 		.ascii	"\000\002\000\000\000\000\000\000\000\000\000\227\001"
 387      00000000 
 387      00000097 
 387      01
 388 004a 00006368 		.ascii	"\000\000ch\000\000\002\000\000\000\000\000\000\000\000"
 388      00000200 
 388      00000000 
 388      000000
 389 0059 009C0100 		.ascii	"\000\234\001\000\000threads\000\000\002\000\000\000"
 389      00746872 
 389      65616473 
 389      00000200 
 389      0000
 390 006b 00000000 		.ascii	"\000\000\000\000\000\000\350\001\000\000_test_asser"
ARM GAS  /tmp/cc2MVQ1V.s 			page 31


 390      0000E801 
 390      00005F74 
 390      6573745F 
 390      61737365 
 391 0080 745F7365 		.ascii	"t_sequence\000\000\002\000\000\000\000\000\000\000\000"
 391      7175656E 
 391      63650000 
 391      02000000 
 391      00000000 
 392 0095 00C00000 		.ascii	"\000\300\000\000\000test_wait_threads\000\000\002\000"
 392      00746573 
 392      745F7761 
 392      69745F74 
 392      68726561 
 393 00af 00000000 		.ascii	"\000\000\000\000\000\000\000\000\313\000\000\000tes"
 393      00000000 
 393      CB000000 
 393      746573
 394 00be 745F656D 		.ascii	"t_emit_token\000\000\002\000\000\000\000\000\000\000"
 394      69745F74 
 394      6F6B656E 
 394      00000200 
 394      00000000 
 395 00d4 0000CD00 		.ascii	"\000\000\315\000\000\000chMsgRelease\000\000\002\000"
 395      00006368 
 395      4D736752 
 395      656C6561 
 395      73650000 
 396 00ea 00000000 		.ascii	"\000\000\000\000\000\000\000\000\321\000\000\000chM"
 396      00000000 
 396      D1000000 
 396      63684D
 397 00f9 73675761 		.ascii	"sgWait\000\000\002\000\000\000\000\000\000\000\000\000"
 397      69740000 
 397      02000000 
 397      00000000 
 397      0000
 398 010b 7F010000 		.ascii	"\177\001\000\000chThdCreateStatic\000\000\002\000\000"
 398      63685468 
 398      64437265 
 398      61746553 
 398      74617469 
 399 0125 00000000 		.ascii	"\000\000\000\000\000\000\000\202\001\000\000chMsgSe"
 399      00000082 
 399      01000063 
 399      684D7367 
 399      5365
 400 0137 6E640000 		.ascii	"nd\000\000\002\000\000\000\000\000\000\000\000\000\220"
 400      02000000 
 400      00000000 
 400      000090
 401 0146 010000   		.ascii	"\001\000\000"
 402              		.text
 403              		.section	.gnu.lto_.opts,"",%progbits
 404 0000 272D6D63 		.ascii	"'-mcpu=cortex-m3' '-mno-thumb-interwork' '-mthumb' "
 404      70753D63 
 404      6F727465 
ARM GAS  /tmp/cc2MVQ1V.s 			page 32


 404      782D6D33 
 404      2720272D 
 405 0033 272D6767 		.ascii	"'-ggdb' '-O2' '-fomit-frame-pointer' '-falign-funct"
 405      64622720 
 405      272D4F32 
 405      2720272D 
 405      666F6D69 
 406 0066 696F6E73 		.ascii	"ions=16' '-ffunction-sections' '-fdata-sections' '-"
 406      3D313627 
 406      20272D66 
 406      66756E63 
 406      74696F6E 
 407 0099 666E6F2D 		.ascii	"fno-common' '-flto'\000"
 407      636F6D6D 
 407      6F6E2720 
 407      272D666C 
 407      746F2700 
 408              		.text
 409              		.cfi_sections	.debug_frame
 410              		.section	.text.test_007_001_execute,"ax",%progbits
 411              		.align	2
 412              		.p2align 4,,15
 413              		.thumb
 414              		.thumb_func
 415              		.type	test_007_001_execute, %function
 416              	test_007_001_execute:
 417              	.LFB220:
 418              		.file 1 "../test/rt/source/test/test_sequence_007.c"
 419              		.loc 1 76 0
 420              		.cfi_startproc
 421              		@ args = 0, pretend = 0, frame = 0
 422              		@ frame_needed = 0, uses_anonymous_args = 0
 423 0000 30B5     		push	{r4, r5, lr}
 424              		.cfi_def_cfa_offset 12
 425              		.cfi_offset 4, -12
 426              		.cfi_offset 5, -8
 427              		.cfi_offset 14, -4
 428              	.LBB13:
 429              	.LBB14:
 430              	.LBB15:
 431              	.LBB16:
 432              		.file 2 "../os/rt/include/chthreads.h"
 433              		.loc 2 286 0
 434 0002 40F20003 		movw	r3, #:lower16:ch
 435 0006 C0F20003 		movt	r3, #:upper16:ch
 436 000a 9969     		ldr	r1, [r3, #24]
 437              	.LBE16:
 438              	.LBE15:
 439              	.LBE14:
 440              	.LBE13:
 441              		.loc 1 83 0
 442 000c 40F20003 		movw	r3, #:lower16:wa
 443 0010 8A68     		ldr	r2, [r1, #8]
 444 0012 C0F20003 		movt	r3, #:upper16:wa
 445              		.loc 1 81 0
 446 0016 40F20004 		movw	r4, #:lower16:test_step
 447 001a C0F20004 		movt	r4, #:upper16:test_step
ARM GAS  /tmp/cc2MVQ1V.s 			page 33


 448              		.loc 1 76 0
 449 001e 83B0     		sub	sp, sp, #12
 450              		.cfi_def_cfa_offset 24
 451              		.loc 1 83 0
 452 0020 1868     		ldr	r0, [r3]
 453              		.loc 1 81 0
 454 0022 0125     		movs	r5, #1
 455              		.loc 1 83 0
 456 0024 40F20003 		movw	r3, #:lower16:msg_thread1
 457 0028 0091     		str	r1, [sp]
 458 002a 0132     		adds	r2, r2, #1
 459 002c C0F20003 		movt	r3, #:upper16:msg_thread1
 460              		.loc 1 81 0
 461 0030 2560     		str	r5, [r4]
 462              		.loc 1 83 0
 463 0032 4FF4A471 		mov	r1, #328
 464 0036 FFF7FEFF 		bl	chThdCreateStatic
 465              	.LVL0:
 466 003a 40F20003 		movw	r3, #:lower16:threads
 467 003e C0F20003 		movt	r3, #:upper16:threads
 468              		.loc 1 89 0
 469 0042 0222     		movs	r2, #2
 470 0044 2260     		str	r2, [r4]
 471              	.LVL1:
 472              		.loc 1 83 0
 473 0046 1860     		str	r0, [r3]
 474              		.loc 1 89 0
 475 0048 0424     		movs	r4, #4
 476              	.LVL2:
 477              	.L3:
 478              	.LBB17:
 479              		.loc 1 94 0 discriminator 2
 480 004a FFF7FEFF 		bl	chMsgWait
 481              	.LVL3:
 482              	.LBE17:
 483              		.loc 1 77 0 discriminator 2
 484 004e 456A     		ldr	r5, [r0, #36]
 485              	.LVL4:
 486              	.LBB18:
 487              		.loc 1 96 0 discriminator 2
 488 0050 2946     		mov	r1, r5
 489 0052 FFF7FEFF 		bl	chMsgRelease
 490              	.LVL5:
 491              		.loc 1 97 0 discriminator 2
 492 0056 E8B2     		uxtb	r0, r5
 493 0058 FFF7FEFF 		bl	test_emit_token
 494              	.LVL6:
 495              		.loc 1 93 0 discriminator 2
 496 005c 013C     		subs	r4, r4, #1
 497              	.LVL7:
 498 005e F4D1     		bne	.L3
 499              		.loc 1 99 0
 500 0060 FFF7FEFF 		bl	test_wait_threads
 501              	.LVL8:
 502              		.loc 1 100 0
 503 0064 40F20000 		movw	r0, #:lower16:.LC0
 504 0068 40F20001 		movw	r1, #:lower16:.LC1
ARM GAS  /tmp/cc2MVQ1V.s 			page 34


 505 006c C0F20000 		movt	r0, #:upper16:.LC0
 506 0070 C0F20001 		movt	r1, #:upper16:.LC1
 507              	.LBE18:
 508              		.loc 1 102 0
 509 0074 03B0     		add	sp, sp, #12
 510              		@ sp needed
 511 0076 BDE83040 		pop	{r4, r5, lr}
 512              	.LVL9:
 513              	.LBB19:
 514              		.loc 1 100 0
 515 007a FFF7FEBF 		b	_test_assert_sequence
 516              	.LVL10:
 517              	.LBE19:
 518              		.cfi_endproc
 519              	.LFE220:
 520              		.size	test_007_001_execute, .-test_007_001_execute
 521 007e 00BF     		.section	.text.msg_thread1,"ax",%progbits
 522              		.align	2
 523              		.p2align 4,,15
 524              		.thumb
 525              		.thumb_func
 526              		.type	msg_thread1, %function
 527              	msg_thread1:
 528              	.LFB219:
 529              		.loc 1 50 0
 530              		.cfi_startproc
 531              		@ args = 0, pretend = 0, frame = 0
 532              		@ frame_needed = 0, uses_anonymous_args = 0
 533              	.LVL11:
 534 0000 10B5     		push	{r4, lr}
 535              		.cfi_def_cfa_offset 8
 536              		.cfi_offset 4, -8
 537              		.cfi_offset 14, -4
 538              		.loc 1 52 0
 539 0002 4121     		movs	r1, #65
 540              		.loc 1 50 0
 541 0004 0446     		mov	r4, r0
 542              		.loc 1 52 0
 543 0006 FFF7FEFF 		bl	chMsgSend
 544              	.LVL12:
 545              		.loc 1 53 0
 546 000a 2046     		mov	r0, r4
 547 000c 4221     		movs	r1, #66
 548 000e FFF7FEFF 		bl	chMsgSend
 549              	.LVL13:
 550              		.loc 1 54 0
 551 0012 2046     		mov	r0, r4
 552 0014 4321     		movs	r1, #67
 553 0016 FFF7FEFF 		bl	chMsgSend
 554              	.LVL14:
 555              		.loc 1 55 0
 556 001a 2046     		mov	r0, r4
 557 001c 4421     		movs	r1, #68
 558              		.loc 1 56 0
 559 001e BDE81040 		pop	{r4, lr}
 560              	.LVL15:
 561              		.loc 1 55 0
ARM GAS  /tmp/cc2MVQ1V.s 			page 35


 562 0022 FFF7FEBF 		b	chMsgSend
 563              	.LVL16:
 564              		.cfi_endproc
 565              	.LFE219:
 566              		.size	msg_thread1, .-msg_thread1
 567              		.global	test_sequence_007
 568 0026 00BFAFF3 		.section	.rodata.test_007_001,"a",%progbits
 568      0080AFF3 
 568      0080
 569              		.align	2
 570              		.type	test_007_001, %object
 571              		.size	test_007_001, 16
 572              	test_007_001:
 573 0000 1C000000 		.word	.LC2
 574 0004 00000000 		.word	0
 575 0008 00000000 		.word	0
 576 000c 00000000 		.word	test_007_001_execute
 577              		.section	.rodata.test_sequence_007,"a",%progbits
 578              		.align	2
 579              		.type	test_sequence_007, %object
 580              		.size	test_sequence_007, 8
 581              	test_sequence_007:
 582 0000 00000000 		.word	test_007_001
 583 0004 00000000 		.word	0
 584              		.section	.rodata.str1.4,"aMS",%progbits,1
 585              		.align	2
 586              	.LC0:
 587 0000 41424344 		.ascii	"ABCD\000"
 587      00
 588 0005 000000   		.space	3
 589              	.LC1:
 590 0008 696E7661 		.ascii	"invalid sequence\000"
 590      6C696420 
 590      73657175 
 590      656E6365 
 590      00
 591 0019 000000   		.space	3
 592              	.LC2:
 593 001c 4D657373 		.ascii	"Messages Server loop\000"
 593      61676573 
 593      20536572 
 593      76657220 
 593      6C6F6F70 
 594 0031 000000   		.text
 595              	.Letext0:
 596              		.file 3 "/usr/lib/gcc/arm-none-eabi/4.8.2/include/stddef.h"
 597              		.file 4 "/usr/include/newlib/machine/_default_types.h"
 598              		.file 5 "/usr/include/newlib/stdint.h"
 599              		.file 6 "../os/common/ports/ARMCMx/compilers/GCC/chtypes.h"
 600              		.file 7 "../os/rt/include/chsystypes.h"
 601              		.file 8 "../os/rt/include/chschd.h"
 602              		.file 9 "../os/common/ports/ARMCMx/chcore.h"
 603              		.file 10 "../os/common/ports/ARMCMx/chcore_v7m.h"
 604              		.file 11 "../os/rt/include/chsem.h"
 605              		.file 12 "../os/rt/include/chmtx.h"
 606              		.file 13 "../test/lib/ch_test.h"
 607              		.file 14 "../os/common/ext/CMSIS/include/core_cm3.h"
ARM GAS  /tmp/cc2MVQ1V.s 			page 36


 608              		.file 15 "../test/rt/source/test/test_root.h"
 609              		.file 16 "../os/rt/include/chmsg.h"