ARM GAS  /tmp/cc0Aowt3.s 			page 1


   1              		.syntax unified
   2              		.cpu cortex-m3
   3              		.fpu softvfp
   4              		.eabi_attribute 20, 1
   5              		.eabi_attribute 21, 1
   6              		.eabi_attribute 23, 3
   7              		.eabi_attribute 24, 1
   8              		.eabi_attribute 25, 1
   9              		.eabi_attribute 26, 1
  10              		.eabi_attribute 30, 2
  11              		.eabi_attribute 34, 1
  12              		.eabi_attribute 18, 4
  13              		.thumb
  14              		.file	"test_sequence_001.c"
  15              		.text
  16              	.Ltext0:
  17              		.section	.gnu.lto_.jmpfuncs.5cdf265679807c77,"",%progbits
  18 0000 789CA593 		.ascii	"x\234\245\223\255o\024A\030\207g\267\337\250\376\005"
  18      AD6F1441 
  18      188767B7 
  18      DFA8FE05 
  19 0010 97152892 		.ascii	"\227\025(\222\026BP\213an\366\275\273I\367\253;\263"
  19      1642508B 
  19      616EF6BD 
  19      BB49F7AB 
  19      3BB3
  20 0022 A5C54CAE 		.ascii	"\245\305L\256\245\264K\31259\256\012sA\200@\020\202"
  20      A5B44BCA 
  20      3539AE0A 
  20      73418040 
  20      1082
  21 0034 A0092108 		.ascii	"\240\011!\010\004\010\004\002\201@ \020 \010A \020\010"
  21      04080402 
  21      81402010 
  21      20084120 
  21      1008
  22 0046 04094110 		.ascii	"\004\011A\020\202@TPv\357\366R\366\353\222aV\356\373"
  22      82405450 
  22      76EFF652 
  22      F6EB9261 
  22      56EEFB
  23 0059 CCF3FEE6 		.ascii	"\314\363\376\346\235\031\035\351\250\354;\234C\350\354"
  23      9D191DE9 
  23      A8EC3B9C 
  23      43E8EC
  24 0068 144AAA9A 		.ascii	"\024J\252\232~\015\035\364\367\373\363\221\206jH{\320"
  24      7E0D1DF4 
  24      F7FBF391 
  24      866A487B 
  24      D0
  25 0079 DF3F1769 		.ascii	"\337?\027i\332\200\322\364U-\322t\224\201&jhb\010M\246"
  25      DA80D2F4 
  25      552DD274 
  25      9481266A 
  25      6862084D 
  26 008e 90F4FAE3 		.ascii	"\220\364\372\343\212\353An}_\313\013.\311\011\016\013"
  26      8AEB416E 
ARM GAS  /tmp/cc0Aowt3.s 			page 2


  26      7D5FCB0B 
  26      2EC9090E 
  26      0B
  27 009f 829B9AE2 		.ascii	"\202\233\232\342\026\236\250\012\336\252\012\276\253"
  27      169EA80A 
  27      DEAA0ABE 
  27      AB
  28 00ac 0A6EE972 		.ascii	"\012n\351r\202\302\020\237\252\012\336\251\012~\250"
  28      82C2109F 
  28      AA0ADEA9 
  28      0A7EA8
  29 00bb 0A6E4B3E 		.ascii	"\012nK>\205\202\340\231\352[\372\240\232\340\227\252"
  29      8582E099 
  29      EA5BFAA0 
  29      9AE097AA 
  30 00cb E0EEA4A2 		.ascii	"\340\356\244\242\340\271\252\340\243\252\340\267\244"
  30      E0B9AAE0 
  30      A3AAE0B7 
  30      A4
  31 00d8 A0700AF7 		.ascii	"\240p\012\367\246\024\023\274\220\024\024\022|RMp\240"
  31      A61413BC 
  31      90141412 
  31      7C524D70 
  31      A0
  32 00e9 2AB83FAD 		.ascii	"*\270?\255(x))(\314\340\263j\202?\252\011\036\316(\012"
  32      28782929 
  32      28CCE0B3 
  32      6A823FAA 
  32      091ECE28 
  33 00fe 5EA90ABE 		.ascii	"^\251\012\276H\012\364\274\340\372\254\234\340\333L"
  33      480AF4BC 
  33      E0FAAC9C 
  33      E0DB4C
  34 010d DEF048D2 		.ascii	"\336\360H\3220\237\027\274\316\010\364\377\331\305W"
  34      309F17BC 
  34      CE08F4FF 
  34      D9C557
  35 011c C90C8539 		.ascii	"\311\014\2059\336\230\223\023L\346\005\217\253\004S"
  35      DE989313 
  35      4CE6058F 
  35      AB0453
  36 012b 35F426AD 		.ascii	"5\364&\255M\347k\361\272\367\222\215\013\227\370g\225"
  36      4DE76BF1 
  36      BAF7928D 
  36      0B97F867 
  36      95
  37 013c 60A686EE 		.ascii	"`\246\206\356\034\033\326f\321\260\210\214\205\205\005"
  37      1C1BD666 
  37      D1B0888C 
  37      858505
  38 014b 83B48455 		.ascii	"\203\264\204Uo\012\336\012\000[L\370\201\327\2406u\233"
  38      6F0ADE0A 
  38      005B4CF8 
  38      81D7A036 
  38      759B
  39 015d A6616480 		.ascii	"\246ad\200\370\257=\242\342\332\340\313\000\340\342"
  39      F8AF3DA2 
ARM GAS  /tmp/cc0Aowt3.s 			page 3


  39      E2DAE0CB 
  39      00E0E2
  40 016c BA0D8271 		.ascii	"\272\015\202qL\226\004i\001Y2\263\000\0170\001Q\017"
  40      4C960469 
  40      015932B3 
  40      000F3001 
  40      510F
  41 017e 1B0D0804 		.ascii	"\033\015\010\004\243\027 \337b\0108\230-\215\032\224"
  41      A31720DF 
  41      62083898 
  41      2D8D1A94 
  42 018e B7C08C41 		.ascii	"\267\300\214A\300\323\024e\300\240\373(e\006`k\214\203"
  42      C0D31465 
  42      C0A0FB28 
  42      6506606B 
  42      8C83
  43 01a0 9384E450 		.ascii	"\223\204\344P\0322\251P\306)a%\031H\243)B\006\302Zs"
  43      1A32A950 
  43      C6296125 
  43      1948A329 
  43      4206C25A 
  44 01b5 B1438959 		.ascii	"\261C\211Y\0118\340\370\236g\027\0075\002Z\200\375\243"
  44      0938E0F8 
  44      9E671707 
  44      35025A80 
  44      FDA3
  45 01c7 06E506E2 		.ascii	"\006\345\006\342\0050\246\005\246v\335[\205\3026\217"
  45      0530A605 
  45      A676DD5B 
  45      85C2368F 
  46 01d7 0C8CE126 		.ascii	"\014\214\341&$GJ\315q@eHX\001\2273\301\251\003^\310"
  46      24474ACD 
  46      71406548 
  46      58019733 
  46      C1A9035E 
  47 01ec CD2A60CC 		.ascii	"\315*`\314\240\210\347Z+8H\035%\206\021P\231\301\011"
  47      A088E75A 
  47      2B38481D 
  47      25861150 
  47      99C109
  48 01ff 39C49B14 		.ascii	"9\304\233\024\001\2200\301\252\200\352A1p\260\337\212"
  48      019030C1 
  48      AA80EA41 
  48      3170B0DF 
  48      8A
  49 0210 67994E62 		.ascii	"g\231Nb\014`\226\033\316c\032\367\240\2742d\000\315"
  49      0C60961B 
  49      CE631AF7 
  49      A0BC3264 
  49      00CD
  50 0222 F8CE046B 		.ascii	"\370\316\004k\225\000w\376=\354\034\340\371\361t\342"
  50      950077FE 
  50      3DEC1CE0 
  50      F9F174E2 
  51 0232 E720980F 		.ascii	"\347 \230\017`\225dp=A\255\370Z\017__\011\220^\226\321"
  51      60956470 
  51      3D41ADF8 
ARM GAS  /tmp/cc0Aowt3.s 			page 4


  51      5A0F5F5F 
  51      09905E96 
  52 0247 A32A02C9 		.ascii	"\243*\002\311\370\305r\210]\036:\245\000\343\003\306"
  52      F8C57288 
  52      5D1E3AA5 
  52      00E303C6 
  53 0257 029BE32A 		.ascii	"\002\233\343*\240\021\300r\010.)\337f\014\304\023\364"
  53      A011C072 
  53      082E29DF 
  53      660CC413 
  53      F4
  54 0268 EC9053CF 		.ascii	"\354\220S\317\315\334I\277\335\333\3306\334\275+\353"
  54      CDDC49BF 
  54      DDDBD836 
  54      DCBD2BEB 
  55 0278 9BDDEC18 		.ascii	"\233\335\354\030R\300\211:\273\335\261@\373r%0}f\361"
  55      52C0893A 
  55      BBDDB140 
  55      FB722530 
  55      7D66F1
  56 028b D4E2E921 		.ascii	"\324\342\351!\267\262\331\275\032\355v\014\326\353F"
  56      B7B2D9BD 
  56      1AED760C 
  56      D6EB46
  57 029a 9D2DB328 		.ascii	"\235-\263(b\275\366\372\316\246\321\330io\345<\006:"
  57      62BDF6FA 
  57      CEA6D1D8 
  57      696FE53C 
  57      063A
  58 02ac 31C8DADD 		.ascii	"1\310\332\335\275\270\267\321\313\027\223\217lG\353"
  58      BDB8B7D1 
  58      CB17938F 
  58      6C47EB
  59 02bb 91C74E06 		.ascii	"\221\307N\006\034\375\005R\306V\346"
  59      1CFD0552 
  59      C656E6
  60              		.text
  61              		.section	.gnu.lto_.inline.5cdf265679807c77,"",%progbits
  62 0000 789C6362 		.ascii	"x\234cb`b\300\006^B\205\201\324\005\306\247\034\214"
  62      6062C006 
  62      5E428581 
  62      D405C6A7 
  62      1C8C
  63 0012 0C4C4C17 		.ascii	"\014LL\027\370\031\330\026\310\203\305\231\270\031\030"
  63      F819D816 
  63      C883C599 
  63      B81918
  64 0021 1847C951 		.ascii	"\030G\311Q\222\226$\203\322\012F\272\245;\006\000\337"
  64      92962483 
  64      D20A46BA 
  64      A53B0600 
  64      DF
  65 0032 090D39   		.ascii	"\011\0159"
  66              		.text
  67              		.section	.gnu.lto_.pureconst.5cdf265679807c77,"",%progbits
  68 0000 789C6362 		.ascii	"x\234cb`b`e\200\000&\006\011&\011\000\001\000\000>"
  68      60626065 
ARM GAS  /tmp/cc0Aowt3.s 			page 5


  68      80002606 
  68      09260900 
  68      0100003E 
  69              		.text
  70              		.section	.gnu.lto_test_001_002_execute.5cdf265679807c77,"",%progbits
  71 0000 789CA5D9 		.ascii	"x\234\245\331Ol\323V\034\007\360\367\234\226\026N\034"
  71      4F6CD356 
  71      1C07F0F7 
  71      9C96164E 
  71      1C
  72 0011 E18272DB 		.ascii	"\341\202r\333aj\313\256=\315u^\032\253\211\235\332\317"
  72      616ACBAE 
  72      3DCD755E 
  72      1AAB899D 
  72      DACF
  73 0023 1DDDC542 		.ascii	"\035\335\305BQ\0169l\023m9\355\200\213\020\224\002\245"
  73      510E396C 
  73      136D39ED 
  73      808B1094 
  73      02A5
  74 0035 D30E84FE 		.ascii	"\323\016\204\376\241\233\320\304\030\214^8t\214m\034"
  74      A19BD0C4 
  74      188C5E38 
  74      748C6D1C 
  75 0045 76601B14 		.ascii	"v`\033\0248L\032\177\012\235&\264\026(h\027\004\005"
  75      384C1A7F 
  75      0A9D26B4 
  75      16286817 
  75      0405
  76 0057 9A3DDB09 		.ascii	"\232=\333\011\011\211\177\312{z\226\352\276\306\337"
  76      09897FCA 
  76      7B7A96EA 
  76      BEC6DF
  77 0066 F77E1FFF 		.ascii	"\367~\037\377\374\234K\025\244\240\372c;\373\031\330"
  77      FC9C4B15 
  77      A4A0FA63 
  77      3BFB19D8 
  78 0076 86D0172D 		.ascii	"\206\320\027-\010\341\030\302\312\344\"B\243\355\012"
  78      08E118C2 
  78      CAE42242 
  78      A3ED0A
  79 0085 C6FE0061 		.ascii	"\306\376\000a\264O\301\373\006q\220\235W\256,\227J\027"
  79      B44FC1FB 
  79      0671909D 
  79      57AE2C97 
  79      4A17
  80 0097 A60E9D9F 		.ascii	"\246\016\235\237\301\227\224\002\373\244\025\035\360"
  80      C1979402 
  80      FBA4151D 
  80      F0
  81 00a4 BCC93842 		.ascii	"\274\3118B\271 A\331\331\237\346`\305\377\035\273\216"
  81      B92041D9 
  81      D99FE660 
  81      C5FF1DBB 
  81      8E
  82 00b5 F62F149F 		.ascii	"\366/\024\237o\333\215\277\306\255h\032M\215z\336\326"
  82      6FDB8DBF 
ARM GAS  /tmp/cc0Aowt3.s 			page 6


  82      C6AD681A 
  82      4D8D7ADE 
  82      D6
  83 00c6 02469FA3 		.ascii	"\002F\237\243uo\314\037\341O\202i\2730\033\242\312\010"
  83      756FCC1F 
  83      E14F8269 
  83      BB301BA2 
  83      CA08
  84 00d8 F9C31BE8 		.ascii	"\371\303\033\350\300\362\235\177\332\302\231\250:C\311"
  84      C0F29D7F 
  84      DAC299A8 
  84      3A43C9
  85 00e7 9593FE27 		.ascii	"\225\223\376'E\317\353/\340\330\016\3249\353\025?,\340"
  85      45CFEB2F 
  85      E0D80ED4 
  85      39EB153F 
  85      2CE0
  86 00f9 1654CE17 		.ascii	"\026T\316\027\374\023[\342\253\273\261\206\0256\345"
  86      FC135BE2 
  86      ABBBB186 
  86      1536E5
  87 0108 B0F2B656 		.ascii	"\260\362\266V\333V\226m\017\313\335;\275%\252\\\254"
  87      DB56966D 
  87      0FCBDD3B 
  87      BD25AA5C 
  87      AC
  88 0119 B69C53C0 		.ascii	"\266\234S\300\233w 3,\267\245\276\334\362\022\267\270"
  88      9B772033 
  88      2CB7A5BE 
  88      DCF212B7 
  88      B8
  89 012a 1F12DF6F 		.ascii	"\037\022\337o&^i\253\222\037\310\223W\270\311C\020y"
  89      265E69AB 
  89      921FC893 
  89      57B8C943 
  89      1079
  90 013c B51959A9 		.ascii	"\265\031Y\251\212\037\311\213\037s\213\277\304\020\371"
  90      8A1FC98B 
  90      1F738BBF 
  90      C410F9
  91 014b 493332AA 		.ascii	"I32\252\222\327\344\311O\271\311\027A\3623\001\362\013"
  91      92D7E4C9 
  91      4FB9C917 
  91      41F23301 
  91      F20B
  92 015d 79F24B6E 		.ascii	"y\362Kn\362\237 y]\200\374J\236\374\232\233\374\034"
  92      F29F2079 
  92      5D80FC4A 
  92      9EFC9A9B 
  92      FC1C
  93 016f 24BF6946 		.ascii	"$\277iF\306U\362\206<\271\304M>\241@\344\261V\376.\037"
  93      C655F286 
  93      3CB9C44D 
  93      3EA140E4 
  93      B156FE2E 
  94 0184 FE469A3C 		.ascii	"\376F\232<\376\220\227\274\000\222\2174#\327t\371\250"
  94      FE9097BC 
ARM GAS  /tmp/cc0Aowt3.s 			page 7


  94      00928F34 
  94      23D774F9 
  94      A8
  95 0195 3CF91837 		.ascii	"<\371\0307\3716H\236\020 \037\227'\027\271\311\353 "
  95      F936489E 
  95      10201F97 
  95      2717B9C9 
  95      EB20
  96 01a7 F9A40079 		.ascii	"\371\244\000yJ\236<\315M\236\216A\344\031\201\275<+"
  96      4A9E3CCD 
  96      4D9E8E41 
  96      E41981BD 
  96      3C2B
  97 01b9 4F3EC54D 		.ascii	"O>\305M\276\014\222\347\004\272\374\255<\371,7y\011"
  97      BE0C92E7 
  97      04BAFCAD 
  97      3CF92C37 
  97      7909
  98 01cb 247F27D0 		.ascii	"$\177'\320\345s\362\344\363\334\344\015\220\374\275"
  98      E573F2E4 
  98      F3DCE40D 
  98      90FCBD
  99 01da 40972FC8 		.ascii	"@\227/\310\223\347\271\311s-\020yA\200\374\203<\371"
  99      93E7B9C9 
  99      732D1079 
  99      4180FC83 
  99      3CF9
 100 01ec 1237F90A 		.ascii	"\0227\371\012H\376Q\200|Y\236\374\0237\371o\220\374"
 100      48FE5180 
 100      7C599EFC 
 100      1337F96F 
 100      90FC
 101 01fe B300F917 		.ascii	"\263\000\371\027y\362Un\362\376V\210\374\233\000\371"
 101      79F2556E 
 101      F2FE5688 
 101      FC9B00F9 
 102 020e 7779F21F 		.ascii	"wy\362\037\334\344\323 \371\232\3007\306uy\362\"7\371"
 102      DCE4D320 
 102      F99AC037 
 102      C67579F2 
 102      2237F9
 103 0221 57907C43 		.ascii	"W\220|C\240\313\177\311\223os\223\037\202\344;\002\344"
 103      A0CB7FC9 
 103      936F7393 
 103      1F82E43B 
 103      02E4
 104 0233 BBF2E47B 		.ascii	"\273\362\344{\334\344\203\233 \362\222\000\371\276<"
 104      DCE4839B 
 104      20F29200 
 104      F9BE3C
 105 0242 F90137F9 		.ascii	"\371\0017\371\014H^\021 \257\312\223\037q\223\257\202"
 105      0C485E11 
 105      20AFCA93 
 105      1F7193AF 
 105      82
 106 0253 E4C702E4 		.ascii	"\344\307\002\344'\362\3445n\362*H~*\360\215\361L\236"
 106      27F2E435 
ARM GAS  /tmp/cc0Aowt3.s 			page 8


 106      6EF22A48 
 106      7E2AF08D 
 106      F14C9E
 107 0266 FC829B3C 		.ascii	"\374\202\233<\336\006\221_\012\220\327\345\311\257\270"
 107      DE06915F 
 107      0A90D7E5 
 107      C9AFB8
 108 0275 C9E740F2 		.ascii	"\311\347@\362k\001\362\033y\362\0067\371\032H.\011\220"
 108      6B01F21B 
 108      79F20637 
 108      F91A482E 
 108      0990
 109 0287 C7CE4893 		.ascii	"\307\316H\223\017\377\313K^\003\311\343\215K\274K.\325"
 109      0FFFCB4B 
 109      5E03C9E3 
 109      8D4BBC4B 
 109      2ED5
 110 0299 BC7F47E4 		.ascii	"\274\177G\344\315G\271\315\023\355\220\371X3\263Wc\236"
 110      CD47B9CD 
 110      13ED90F9 
 110      5833B357 
 110      639E
 111 02ab 90371FE7 		.ascii	"\2207\037\3476\317\203\346b3s\315\3268)O\236\342&\337"
 111      36CF83E6 
 111      623373CD 
 111      D638294F 
 111      9EE226DF 
 112 02bf 04C9D302 		.ascii	"\004\311\323\002\344\031y\362,7\371?\220|J\200<'G\276"
 112      E41979F2 
 112      2C37F93F 
 112      907C4A80 
 112      3C2747BE 
 113 02d3 854697CF 		.ascii	"\205F\227\317\276WY!<(\323N.\006\377\211x\277\263\263"
 113      BE575921 
 113      3C28D34E 
 113      2E06FF89 
 113      78BFB3B3 
 114 02e7 6B243F3C 		.ascii	"k$?<\32254\3225\374\331\336\241\\>\374\323?\271\303"
 114      D23534D2 
 114      35FCD9DE 
 114      A15C3EFC 
 114      D33FB9C3 
 115 02fb F93D7BF3 		.ascii	"\371={\363\237\346\362\356\316\235\037t\346P\274\243"
 115      9FE6F2EE 
 115      CE9D1F74 
 115      E650BCA3 
 116 030b A323AEA5 		.ascii	"\243#\256\245\\-\331\353\332\324\265\210m\246\035\252"
 116      5C2DD9EB 
 116      DAD4B588 
 116      6DA61DAA 
 117 031b 9B46773C 		.ascii	"\233Fw<8\020\256\217$-\322\357\020C\033,'\342\365\001"
 117      3810AE8F 
 117      242DD2EF 
 117      10431B2C 
 117      27E2F501 
 118 032f AA674882 		.ascii	"\252gH\202\244\251\032\031\360\257\272\375\216jP'\023"
 118      A4A91A19 
ARM GAS  /tmp/cc0Aowt3.s 			page 9


 118      F0AFBAFD 
 118      8E6A5027 
 118      13
 119 0340 19C8908C 		.ascii	"\031\310\220\214fZ\304\265\365\217Id\3000]=\221&.MY"
 119      665AC4B5 
 119      F58F4964 
 119      C0305D3D 
 119      91262E4D 
 120 0355 444D7437 		.ascii	"DMt7\006\314,+\302f\273v\226\220\250\200c\263\331o\253"
 120      06CC2C2B 
 120      C266BB76 
 120      9690A880 
 120      63B3D96F 
 121 036a 4794F003 		.ascii	"G\224\360\003\026\351\325mjE\337\246\037\370H\325)\331"
 121      16E9D56D 
 121      6A45DFA6 
 121      1FF848D5 
 121      29D9
 122 037c A5533060 		.ascii	"\245S0`\223\214\232M\261{\261\001C5\340f-\275\2731\220"
 122      938C9A4D 
 122      B17BB101 
 122      4335E066 
 122      2DBDBB31 
 123 0391 715885CA 		.ascii	"qX\205\312\364\250\025\312\001\206\325\034\313\216X"
 123      F4A815CA 
 123      0186D51C 
 123      CB8E58
 124 03a0 41338DC4 		.ascii	"A3\215\304\200j\331 \262\022\010\036\214\031\261\002"
 124      806AD920 
 124      B212081E 
 124      8C19B102 
 125 03b0 192006AD 		.ascii	"\031 \006\255\022\240@8\337\241QwAl[\355%\260\241\022"
 125      12A04038 
 125      DFA15177 
 125      416C5BED 
 125      25B0A112 
 126 03c4 08BB1015 		.ascii	"\010\273\020\025P\365t\217Y\355D\304\012\301\246\201"
 126      50F5748F 
 126      59ED44C4 
 126      0AC1A681 
 127 03d4 1B95226A 		.ascii	"\033\225\"j\266\366\201G\255\2205\3154\214L\014\032"
 127      B6F68147 
 127      AD9035CD 
 127      348C4C0C 
 127      1A
 128 03e5 6A46D71A 		.ascii	"jF\327\032K$z\374m\257R\266[t-\252QA`\320\246$\023\344"
 128      4B247AFC 
 128      6DAF52B6 
 128      5B742DAA 
 128      514160D0 
 129 03fd 58CF5344 		.ascii	"X\317SD\353\353~7@\014\265']\276\324p\2335\001\325\266"
 129      EBEB7E37 
 129      400CB527 
 129      5DBED470 
 129      9B3501D5 
 130 0412 8945EB77 		.ascii	"\211E\353w\224\037\240\226\252\371\255\262\373\000C"
 130      941FA096 
ARM GAS  /tmp/cc0Aowt3.s 			page 10


 130      AAF9ADB2 
 130      FB0043
 131 0421 18E87192 		.ascii	"\030\350q\222IbU^\257\250\022\014\251\365E\"\223z:]"
 131      4962555E 
 131      AFA8120C 
 131      A9F54522 
 131      937A3A5D 
 132 0435 7EEF1A1B 		.ascii	"~\357\032\033\025\224\010\257\261\007i\262\254n\364"
 132      159408AF 
 132      B10769B2 
 132      AC6EF4
 133 0444 FA25FE07 		.ascii	"\372%\376\007\200\347\030\322"
 133      80E718D2 
 134              		.text
 135              		.section	.gnu.lto_test_001_001_execute.5cdf265679807c77,"",%progbits
 136 0000 789C6362 		.ascii	"x\234cb`b@\007\222@\254\302\302\300\300\306\310\300"
 136      60624007 
 136      9240ACC2 
 136      C2C0C0C6 
 136      C8C0
 137 0012 C0C8CCC0 		.ascii	"\300\310\314\300\3104\341\034\003C#\007\023##\210\301"
 137      C834E11C 
 137      03432307 
 137      13232388 
 137      C1
 138 0023 C0C850CF 		.ascii	"\300\310P\317\304X\037\311\010V\273\236\351\300\203"
 138      C4581FC9 
 138      0856BB9E 
 138      E9C083
 139 0032 FFFFD7FD 		.ascii	"\377\377\327\375x\370h%\243\240\020P\200\225\241\245"
 139      78F86825 
 139      A3A01050 
 139      8095A1A5 
 140 0042 A1618202 		.ascii	"\241a\202\002\003C2XA\010\220\004\351\012ed\002\321"
 140      03433258 
 140      41089004 
 140      E90A6564 
 140      02D1
 141 0054 CC67199A 		.ascii	"\314g\031\232v\374\270\317\230\310\270\220\221\225a"
 141      76FCB8CF 
 141      98C8B890 
 141      919561
 142 0063 36C3ACC6 		.ascii	"6\303\254\306\206\006\201LF\206j\206_\015\035 \026c"
 142      8606814C 
 142      46866A86 
 142      5F0D1D20 
 142      1663
 143 0075 2E585B04 		.ascii	".X[\004#\220\311\000c1\200\230\347\031Z\036t.\346\202"
 143      2390C900 
 143      63318098 
 143      E7195A1E 
 143      742EE682 
 144 0089 E86440E8 		.ascii	"\350d@\350`J\206\252\004\211\314hh\010\315dd\226c\320"
 144      604A86AA 
 144      0489CC68 
 144      6808CD64 
 144      649663D0 
ARM GAS  /tmp/cc0Aowt3.s 			page 11


 145 009d 9BDB30C3 		.ascii	"\233\3330\303!\223\221\205\001\252>\023D\200\214\350"
 145      21939185 
 145      01AA3E13 
 145      44808CE8 
 146 00ad 7ACC8ECD 		.ascii	"z\314\216\315\010&d#\0023\031\331\344\030\"!F\260\243"
 146      08266423 
 146      023319D9 
 146      E4182221 
 146      46B0A3
 147 00c0 1BB1A09B 		.ascii	"\033\261\240\233\031\303\004\216d`@\301\234\313\311"
 147      19C3048E 
 147      646040C1 
 147      9CCBC9
 148 00cf 0854CB05 		.ascii	"\010T\313\005\261\256\2078\027s\3131TA\254\343\301p"
 148      B1AE8738 
 148      1773CB31 
 148      5441ACE3 
 148      C170
 149 00e1 712FD12E 		.ascii	"q/\321.\256\301\341\342\007}\304\271\202W\216a.#\304"
 149      AEC1E1E2 
 149      077DC4B9 
 149      82578E61 
 149      2E23C4
 150 00f4 0C3E0C33 		.ascii	"\014>\0143\372\211v\306\022F\\!7\203P\310\261 Bn&\345"
 150      FA8976C6 
 150      12465C21 
 150      378350C8 
 150      B120426E 
 151 010a 21378B68 		.ascii	"!7\213h'\037\305\351\344\331\204\234\314\200p\362\034"
 151      271FC5E9 
 151      E4D9849C 
 151      CC8070F2 
 151      1C
 152 011b CA9D3C97 		.ascii	"\312\235<\227h'?\303\351\344y\204\234\314\204p\362|"
 152      68273FC3 
 152      E9E47984 
 152      9CCC8470 
 152      F27C
 153 012d CA9C7C91 		.ascii	"\312\234|\221\241\361\301Je\230\011\020\020\002\324"
 153      A1F1C14A 
 153      65980910 
 153      1002D4
 154 013c 0DCCEA20 		.ascii	"\015\314\352 'k\353\351\351\227\244\026\227\350\027"
 154      276BEBE9 
 154      E997A416 
 154      97E817
 155 014b 95E817E7 		.ascii	"\225\350\027\347\227\026%\247B\270 \"\2768\265\2604"
 155      971625A7 
 155      42B82022 
 155      BE38B5B0 
 155      34
 156 015c 352F3935 		.ascii	"5/95\336\300\300P/\231AKWWW!\240(?\2454\271\304J\001"
 156      DEC0C050 
 156      2F99414B 
 156      57575721 
 156      A0283FA5 
 157 0175 13386764 		.ascii	"\0238gd&e\372\007\353\007\2050(\200\224\006\227$&\345"
ARM GAS  /tmp/cc0Aowt3.s 			page 12


 157      2665FA07 
 157      EB078530 
 157      28809406 
 157      972426E5 
 158 0189 A42AB8E5 		.ascii	"\244*\270\345$\246\243+\007\226\027`%a\251E\305\231"
 158      24A6A32B 
 158      07961760 
 158      2561A945 
 158      C599
 159 019b F97940A5 		.ascii	"\371y@\245E\231y\250\252\030\330L\364\014\364\214 \352"
 159      459979A8 
 159      AA18D84C 
 159      F40CF48C 
 159      20EA
 160 01ad 7C13B3F2 		.ascii	"|\023\263\362\213\024\374Js\223R\213\320\314\202*\310"
 160      8B14FC4A 
 160      7393528B 
 160      D0CC822A 
 160      C8
 161 01be CCC3AF20 		.ascii	"\314\303\257  \261$9\003\207\002\000M\306F\325"
 161      20B12439 
 161      03870200 
 161      4DC646D5 
 162              		.text
 163              		.section	.gnu.lto_.symbol_nodes.5cdf265679807c77,"",%progbits
 164 0000 789C4D93 		.ascii	"x\234M\223]\212\032Q\020F\353V\353\350.\262\212,hVr"
 164      5D8A1A51 
 164      1046EB56 
 164      EBE82EB2 
 164      8A2C6856 
 165 0015 070A46A2 		.ascii	"\007\012F\242\240AAA\203>\364F\006\372=\033\310\337"
 165      A0414141 
 165      833EF446 
 165      06FA3D1B 
 165      C8DF
 166 0027 38171474 		.ascii	"8\027\024tPp\236\023\322\351:\225\304\227\272}>9\337"
 166      50709E13 
 166      D2E93A95 
 166      C497BA7D 
 166      3E39DF
 167 003a D3A7A2F2 		.ascii	"\323\247\242\362\276'\376\323o)\213|\374,\222\363\247"
 167      BE27FED3 
 167      6F298B7C 
 167      FC2C92F3 
 167      A7
 168 004b 0FF7FDE7 		.ascii	"\017\367\375\347\324\276D\277\244\234\376\243?R\352"
 168      D4BE44BF 
 168      A49CFEA3 
 168      3F52EA
 169 005a 67E97F4D 		.ascii	"g\351\177M\332\313U\377{\252\332\223J\312\352\377yx"
 169      DACB55FF 
 169      7BAADA93 
 169      4ACAEAFF 
 169      7978
 170 006c 48E925E5 		.ascii	"H\351%\345\352\337\327>\345\336\337\257J\206R?\377j"
 170      EADFD73E 
 170      E5DEDFAF 
ARM GAS  /tmp/cc0Aowt3.s 			page 13


 170      4A86523F 
 170      FF6A
 171 007e EF409AEE 		.ascii	"\357@\232\356\336I\351\356Pl\357\274\336;o\366\316\013"
 171      DE49E9EE 
 171      506CEFBC 
 171      DE3B6FF6 
 171      CE0B
 172 0090 DC1E5FDF 		.ascii	"\334\036_\337\375\341uw\207\322tw \005n#\347\365\310"
 172      FDE17577 
 172      87D27477 
 172      20056E23 
 172      E7F5C8
 173 00a3 7933725E 		.ascii	"y3r^\3406v^\217\2357c\347\005n\023\374\023\374\023\374"
 173      E036765E 
 173      8F9D3763 
 173      E7056E13 
 173      FC13FC13 
 174 00b8 709BE29F 		.ascii	"p\233\342\237\342\237\342\207\333\014\377\014\377\014"
 174      E29FE287 
 174      DB0CFF0C 
 174      FF0C
 175 00c6 3FDCE6F8 		.ascii	"?\334\346\370\347\370\347\370\341\266\300\277\300\277"
 175      E7F8E7F8 
 175      E1B6C0BF 
 175      C0BF
 176 00d4 C00FB725 		.ascii	"\300\017\267%\376%\376%~\270\255\360\257\360\257\360"
 176      FE25FE25 
 176      7EB8ADF0 
 176      AFF0AFF0 
 177 00e4 C36D8D7F 		.ascii	"\303m\215\177\215\177\215\037n\033\374\033\374\033\374"
 177      8D7F8D1F 
 177      6E1BFC1B 
 177      FC1BFC
 178 00f3 70DBE2DF 		.ascii	"p\333\342\337\342\337\342\207\333\016\377\016\377\016"
 178      E2DFE287 
 178      DB0EFF0E 
 178      FF0E
 179 0101 3FDC5E9E 		.ascii	"?\334^\236~V]\201?\332\006\177\264\025\021Y!\252\013"
 179      7E565D81 
 179      3FDA067F 
 179      B4151159 
 179      21AA0B
 180 0114 5153884A 		.ascii	"QS\210JDv \252\017D\315\201\250Dd\307\350:F\3271\272"
 180      447620AA 
 180      0F44CD81 
 180      A84464C7 
 180      E83A46D7 
 181 012a 22B25374 		.ascii	"\"\262St\235\242\353\024]\021\3319\272\316\321u\216"
 181      9DA2EB14 
 181      5D11D939 
 181      BACED175 
 181      8E
 182 013b AE88EC12 		.ascii	"\256\210\354\022]\227\350\272DWDv\215\256kt]\243+\""
 182      5D97E8BA 
 182      44574476 
 182      8DAE6B74 
 182      5DA32B22 
ARM GAS  /tmp/cc0Aowt3.s 			page 14


 183 014f BB45D72D 		.ascii	"\273E\327-\272n\321\025\221\275E\327[tu\017\275\363"
 183      BA6ED115 
 183      91BD45D7 
 183      5B74750F 
 183      BDF3
 184 0161 59E9D067 		.ascii	"Y\351\320g\245\003\237U\313\273Y\265\274\233\2252+e"
 184      A5039F55 
 184      CBBB59B5 
 184      BC9B9532 
 184      2B65
 185 0173 56CAAC94 		.ascii	"V\312\254\224Y)\263Rf\245\314J\231\2252+\365Y\311o\241"
 185      5929B352 
 185      66A5CC4A 
 185      9995322B 
 185      F559C96F 
 186 0188 A35D19   		.ascii	"\243]\031"
 187              		.text
 188              		.section	.gnu.lto_.refs.5cdf265679807c77,"",%progbits
 189 0000 789C25C2 		.ascii	"x\234%\302\201\011\000 \014\300\260\266\316\033\374"
 189      81090020 
 189      0CC0B0B6 
 189      CE1BFC
 190 000f FF530543 		.ascii	"\377S\005C\"\016\237\250\275\253i;\345\016.\005H\000"
 190      220E9FA8 
 190      BDAB693B 
 190      E50E2E05 
 190      4800
 191 0021 47       		.ascii	"G"
 192              		.text
 193              		.section	.gnu.lto_.decls.5cdf265679807c77,"",%progbits
 194 0000 789C9D56 		.ascii	"x\234\235Voh[U\024?\367\245i\2335\244\353\320\332}p"
 194      6F685B55 
 194      143FF7A5 
 194      699B35A4 
 194      EBD0DA7D 
 195 0015 CD840A56 		.ascii	"\315\204\012VL\332\316\2172\006~P\021\374\"\003\277"
 195      4CDACE8F 
 195      32067E50 
 195      11FC2203 
 195      BF
 196 0026 C5677A67 		.ascii	"\305gzg\013\331kM^\230\342\227k\007ZEF\326M\351\304"
 196      0BD96B4D 
 196      5E98E297 
 196      6B075A45 
 196      46D64DE9 
 197 003b 49BBADCE 		.ascii	"I\273\255\316?\260v\177\2731g\237s\355\352\252]\235"
 197      3FB0767F 
 197      BB31679F 
 197      73EDEAAA 
 197      5D9D
 198 004d 62199599 		.ascii	"b\031\225\231\211\033VA\013V\351*5\236\367\356}y/y\357"
 198      891B5641 
 198      0B56E92A 
 198      359EF7EE 
 198      7D792F79 
 199 0062 99C40BE7 		.ascii	"\231\304\013\347\345\346\346\234\337\371\235\337\271"
 199      E5E6E69C 
ARM GAS  /tmp/cc0Aowt3.s 			page 15


 199      DFF99DDF 
 199      B9
 200 006f F7BE4820 		.ascii	"\367\276H \301#\004 \207\343Z\010`\037\316}\000\260"
 200      C1230420 
 200      87E35A08 
 200      601FCE7D 
 200      00B0
 201 0081 152D8036 		.ascii	"\025-\2006\214v\010\355(\3321\264Q\264\343h'\320N\241"
 201      8C7608ED 
 201      28DA31B4 
 201      51B4E368 
 201      27D04EA1 
 202 0095 9D063EFC 		.ascii	"\235\006>\374h\343h\347\321>E\273\2046\215V\205v\005"
 202      68E368E7 
 202      D13E45BB 
 202      84368D56 
 202      857605
 203 00a8 ED4BB45B 		.ascii	"\355K\264[h\277C\341\320c\352D\374\012\332\035[\236"
 203      68BF43E1 
 203      D063EA44 
 203      FC0ADA1D 
 203      5B9E
 204 00ba 09B45591 		.ascii	"\011\264U\221{\322\306\005\004\356\270\310qI\344$\""
 204      7BD2C605 
 204      04EEB8C8 
 204      7149E424 
 204      22
 205 00cb 977DE87C 		.ascii	"\227}\350|\352\213\360M\336\023\266\\ny\314:\315|fm"
 205      EA8BF04D 
 205      DE13B65C 
 205      6E79CC3A 
 205      CD7C666D 
 206 00df 664EB77C 		.ascii	"fN\267|u\360\006c}l\350U\366\370t\250\0012\014G\326"
 206      75F00663 
 206      7D6CE855 
 206      F6F874A8 
 206      01320C47 
 207 00f4 3F180A40 		.ascii	"?\030\012@\277\276\236\035aMM\000\317\020\231\340R\255"
 207      BFBE9E1D 
 207      614D4D00 
 207      CF1099E0 
 207      52AD
 208 0106 3109060C 		.ascii	"1\011\006\014\244\0268\202\276\030 \311\3440\011`_$"
 208      A4163882 
 208      BE1820C9 
 208      E4300960 
 208      5F24
 209 0118 02AE83FF 		.ascii	"\002\256\203\377\256\017=\234\317\315Y\216\270\243\353"
 209      AE0F3D9C 
 209      CFCD598E 
 209      B8A3EB
 210 0127 51874883 		.ascii	"Q\207H\20313\2700\301\321\360\020\021a3\242JD\274o\313"
 210      3133B830 
 210      C1D1F010 
 210      116133A2 
 210      4A44BC6F 
 211 013c 130CD827 		.ascii	"\023\014\330'\220_w\213\033&u\246\213(\234's\2170*\317"
ARM GAS  /tmp/cc0Aowt3.s 			page 16


 211      905F778B 
 211      1B2675A6 
 211      8B289C27 
 211      738F302A 
 212 0151 64AFFE98 		.ascii	"d\257\376\230\225\030\253\225\311Q\243\372\026\002\255"
 212      9518AB95 
 212      C951A3FA 
 212      1602AD
 213 0160 F02197E4 		.ascii	"\360!\227\344\342=.2\224\217\274ps\306g \177l \307\011"
 213      E23D2E32 
 213      948FBC70 
 213      73C66720 
 213      7F6C20C7 
 214 0175 52FC88B4 		.ascii	"R\374\210\264\346\345\254\011\330q\215\357\246\203\016"
 214      E6E5AC09 
 214      D8718DEF 
 214      A6830E
 215 0184 5613B026 		.ascii	"V\023\260&\3729\251\207J\335\335vEx0\304[&\2103\311"
 215      FA39A987 
 215      4ADDDD76 
 215      457830C4 
 215      5B268833 
 216 0199 641E16B8 		.ascii	"d\036\026\270\243\025\367k\314\243_\315%\372u\314\352"
 216      A315F76B 
 216      CCA35FCD 
 216      25FA75CC 
 216      EA
 217 01aa 573954DB 		.ascii	"W9T\333\314\370j\021\177\242b\246'=\230\372K0=^\031"
 217      CCF86A11 
 217      7FA262A6 
 217      273D98FA 
 217      4B303D5E 
 218 01bf D3B9BCA8 		.ascii	"\323\271\274\250\255\002\340t\305T\317xP}\240\004\325"
 218      AD02E074 
 218      C554CF78 
 218      507DA004 
 218      D5
 219 01d0 5316D566 		.ascii	"S\026\325fx\217iK\331\013\227o\177M\366\356f\323lI\337"
 219      788F694B 
 219      D90B976F 
 219      7F4DF6EE 
 219      66D36C49 
 220 01e5 168DF096 		.ascii	"\026\215\360\226\240\300\210*\223\255w{B\235%\215b\266"
 220      A0C0882A 
 220      93AD777B 
 220      429D258D 
 220      62B6
 221 01f7 DDC71125 		.ascii	"\335\307\021%x\207\024nc\200\373aD\307c\0370\237\201"
 221      7887146E 
 221      6380FB61 
 221      44C7631F 
 221      309F81
 222 020a A6FB8F93 		.ascii	"\246\373\217\223f\260\015\231\234#\222}\2013\323V(\347"
 222      66B00D99 
 222      9C23927D 
 222      8133D356 
 222      28E7
ARM GAS  /tmp/cc0Aowt3.s 			page 17


 223 021c C4534930 		.ascii	"\304SI0Z\026\370\371b\360O\234\340\331L\366\300\354"
 223      5A16F8F9 
 223      62F04F9C 
 223      E0D94CF6 
 223      C0EC
 224 022e 6F7D58F6 		.ascii	"o}X\366P\305eO\210\262} 9\032\236\277P\265\246\301\220"
 224      50C5654F 
 224      88B27D20 
 224      391A9EBF 
 224      50B5A6C1 
 225 0243 FB9D2793 		.ascii	"\373\235'\223#\244\245\334\333\322\221\3743\253}\226"
 225      23A4A5DC 
 225      DBD291FC 
 225      33AB7D96 
 226 0253 EC86F20B 		.ascii	"\354\206\362\013\016q\270\323\347n\325kgf\336d$\363"
 226      0E71B8D3 
 226      E76ED56B 
 226      6766DE64 
 226      24F3
 227 0265 4A36976B 		.ascii	"J6\227k.\277\362\311\302\312\371\235XD\343g\017\032"
 227      2EBFF2C9 
 227      C2CAF99D 
 227      5844E367 
 227      0F1A
 228 0277 975D699C 		.ascii	"\227]i\234\265hpa%X\366\000\370\242\020\340>\030fC\003"
 228      B5687061 
 228      2558F600 
 228      F8A210E0 
 228      3E186643 
 229 028c DADA95FD 		.ascii	"\332\332\225\375\033\331p\037c\377\344rH\326\257\337"
 229      1BD9701F 
 229      63FFE472 
 229      48D6AFDF 
 230 029c A4B93C82 		.ascii	"\244\271<\202W!3\026\226\2163\246\341!\370\3510\331"
 230      57213316 
 230      968E33A6 
 230      E121F8E9 
 230      30D9
 231 02ae C7F01030 		.ascii	"\307\360\0200\015\221\232\315\223;\035\312\367W\303"
 231      0D919ACD 
 231      933B1DCA 
 231      F757C3
 232 02bd FE6E80BD 		.ascii	"\376n\200\275\206V(\225\355vg\304L\260\036\362\327\373"
 232      86562895 
 232      ED7667C4 
 232      4CB01EF2 
 232      D7FB
 233 02cf 813D93ED 		.ascii	"\201=\223\355x\275\213\210\260\247\273L\346p?\224t\323"
 233      78BD8B88 
 233      B0A7BB4C 
 233      E6703F94 
 233      74D3
 234 02e1 1DAF910D 		.ascii	"\035\257\221\015\2420\376Z\326\376\246a\276\012.\222"
 234      A230FE5A 
 234      D6FEA661 
 234      BE0A2E92 
 235 02f1 89B11990 		.ascii	"\211\261\031\220m\237\266\2666M\330@\220\357 \011^\227"
ARM GAS  /tmp/cc0Aowt3.s 			page 18


 235      6D9FB6B6 
 235      364DD840 
 235      90EF2009 
 235      5E97
 236 0303 880074D3 		.ascii	"\210\000t\323\250\340\205*\034\012\341r\213\006\\\301"
 236      A8E0852A 
 236      1C0AE172 
 236      8B065CC1 
 237 0313 E6E7C7D4 		.ascii	"\346\347\307\324K\363y\314k#)\301\236\212)\204\013("
 237      4BF379CC 
 237      6B2329C1 
 237      9E8A2984 
 237      0B28
 238 0325 64A68219 		.ascii	"d\246\202\031\231\343J\260\277\034\260Z\357z\006\354"
 238      99E34AB0 
 238      BF1CB05A 
 238      EF7A06EC 
 239 0335 60072B06 		.ascii	"`\007+\006\013\027\211\316\013\225\3117\306Q\377\226"
 239      0B1789CE 
 239      0B95C937 
 239      C651FF96 
 240 0345 6CC6E777 		.ascii	"l\306\347w\306\363\272\361\\\300g~H0\"\025\277\374y"
 240      C6F3BAF1 
 240      5CC0677E 
 240      48302215 
 240      BFFC79
 241 0358 536D7856 		.ascii	"SmxV\357\2414\242{\017\212\232u\325\243>\035\377\206"
 241      EFA134A2 
 241      7B0F8A9A 
 241      75D5A33E 
 241      1DFF86
 242 036b 75CD1442 		.ascii	"u\315\024B>kz\006\215U\353\230\360\030w/\231\374P\361"
 242      3E6B7A06 
 242      8D55EB98 
 242      F018772F 
 242      99FC50F1 
 243 037f FB2DEBF1 		.ascii	"\373-\353\361~\263_\002\226\027.\217IE\247\336A\342"
 243      7EB35F02 
 243      96172E8F 
 243      4945A7DE 
 243      41E2
 244 0391 269EFA4D 		.ascii	"&\236\372MpQ:\310x\357\036\206\223\254_k\223\311W\310"
 244      70513AC8 
 244      78EF1E86 
 244      93AC5F6B 
 244      93C957C8 
 245 03a5 2EBF2B5E 		.ascii	".\277+^\206U6\310\262\027^\273\265\205\327\244\337\020"
 245      865536C8 
 245      B2175EBB 
 245      B585D7A4 
 245      DF10
 246 03b7 7373DAFC 		.ascii	"ss\332\374\324\273\204\015\345o\032]=\011\276/N\352"
 246      D4BB840D 
 246      E56F1A5D 
 246      3D09BE2F 
 246      4EEA
 247 03c9 3CB4B7C5 		.ascii	"<\264\267\305]\303\263m\343\221\274\203<\225v}\212\224"
ARM GAS  /tmp/cc0Aowt3.s 			page 19


 247      5DC3B36D 
 247      E391BC83 
 247      3C95767D 
 247      8A94
 248 03db F3AFC151 		.ascii	"\363\257\301Q\317/\025\213\372\253\207\250f\263\275"
 248      CF2F158B 
 248      FAAB87A8 
 248      66B3BD
 249 03ea E216ADED 		.ascii	"\342\026\255\355\260\011\026Q\300\301mVz\276\017\365"
 249      B0091651 
 249      C0C16D56 
 249      7ABE0FF5 
 250 03fa 8879C38D 		.ascii	"\210y\303\215\357H\373\367\005Qk?\323nT\2337\201\375"
 250      EF48FBF7 
 250      05516B3F 
 250      D36E549B 
 250      3781FD
 251 040d 352DF212 		.ascii	"5-\362\022S\221\267\353\013\245\237u\221\376\257\322"
 251      5391B7EB 
 251      0BA59F75 
 251      91FEAFD2 
 252 041d D22F9596 		.ascii	"\322/\225\226~\266,\351\235\320\313\025k\377\247\207"
 252      7EB62CE9 
 252      9DD0CB15 
 252      6BFFA787 
 253 042d F6F5851A 		.ascii	"\366\365\205\0328\342\376\260k\277\333\307\265_\376"
 253      38E2FEB0 
 253      6BBFDBC7 
 253      B55FFE
 254 043c 5FDA874C 		.ascii	"_\332\207L\355\307\235\332\363\277\244\346\271/\272"
 254      EDC79DDA 
 254      F3BFA4E6 
 254      B92FBA
 255 044b 2AFCDE65 		.ascii	"*\374\336e\255x\374\365\345\257s\257\250;\236Q\223\377"
 255      AD78FCF5 
 255      E5AF73AF 
 255      A83B9E51 
 255      93FF
 256 045d 11B56ABB 		.ascii	"\021\265j\273\225\252\342]r\362\336h:\225\214v+\361"
 256      95AAE25D 
 256      72F2DE68 
 256      3A958C76 
 256      2BF1
 257 046f 44BA9346 		.ascii	"D\272\223F\025\272+\321\375\\4\245vv+j\244\013j\323"
 257      15BA2BD1 
 257      FD5C34A5 
 257      76762B6A 
 257      A40B6AD3 
 258 0483 F8B9A523 		.ascii	"\370\271\245#\246V?\366\324\366\360\243\360\220\233"
 258      A6563FF6 
 258      D4F6F0A3 
 258      F0909B
 259 0492 F74E39DE 		.ascii	"\367N9\336\325\255\320h\254\223\356\220\323\0115\246"
 259      D5ADD068 
 259      AC93EE90 
 259      D30935A6 
 260 04a2 BED44B53 		.ascii	"\276\324KS\030\275.\0263\343\037\214D\242*M\251\321"
ARM GAS  /tmp/cc0Aowt3.s 			page 20


 260      18BD2E16 
 260      33E31F8C 
 260      44A22A4D 
 260      A9D1
 261 04b4 A41A4DF5 		.ascii	"\244\032M\365\244\223q\312\277\352\217X\212\276\220"
 261      A49371CA 
 261      BFEA8F58 
 261      8ABE90
 262 04c3 A64A9CC6 		.ascii	"\246J\234\306\332\332\332#q\270\313X\3049ZG\214\276"
 262      DADADA23 
 262      71B8CB58 
 262      C4395A47 
 262      8CBE
 263 04d5 48E36995 		.ascii	"H\343i\225\332\027\333\315\305F\023U\247\021\357\212"
 263      DA17DBCD 
 263      C5461355 
 263      A711EF8A 
 264 04e5 E973CC1B 		.ascii	"\351s\314\0334|{\223\230;\241\324Y_\224u\326<\3003\253"
 264      347C7B93 
 264      983BA1D4 
 264      595F9475 
 264      D63CC033 
 265 04fa B4B74A91 		.ascii	"\264\267J\221wR\177\212\252\351\336Z\225\312\311\316"
 265      77527F8A 
 265      AAE9DE5A 
 265      95CAC9CE 
 266 050a 9E5D4A8D 		.ascii	"\236]J\215H`\004\304\345\024\215\251\015\016\252\033"
 266      486004C4 
 266      E5148DA9 
 266      0D0EAA1B 
 267 051a 23C99E4E 		.ascii	"#\311\236NY\225#\216_\202v\262\301'iR\241\211\360\023"
 267      5995238E 
 267      5F8276B2 
 267      C1276952 
 267      A189F013 
 268 052e CA8E1EB0 		.ascii	"\312\216\036\260\377\322\261^\374\3624U\325n\345\371"
 268      FFD2B15E 
 268      FCF23455 
 268      D56EE5F9 
 269 053e 14FC0BE1 		.ascii	"\024\374\013\341J}\023"
 269      4A7D13
 270              		.text
 271              		.section	.gnu.lto_.symtab.5cdf265679807c77,"",%progbits
 272 0000 74657374 		.ascii	"test_sequence_001\000\000\000\000\000\000\000\000\000"
 272      5F736571 
 272      75656E63 
 272      655F3030 
 272      31000000 
 273 001a 000000CC 		.ascii	"\000\000\000\314\000\000\000test_step\000\000\002\000"
 273      00000074 
 273      6573745F 
 273      73746570 
 273      00000200 
 274 002e 00000000 		.ascii	"\000\000\000\000\000\000\000\000\312\000\000\000tes"
 274      00000000 
 274      CA000000 
 274      746573
ARM GAS  /tmp/cc0Aowt3.s 			page 21


 275 003d 745F7072 		.ascii	"t_println\000\000\002\000\000\000\000\000\000\000\000"
 275      696E746C 
 275      6E000002 
 275      00000000 
 275      00000000 
 276 0051 00BE0000 		.ascii	"\000\276\000\000\000test_printn\000\000\002\000\000"
 276      00746573 
 276      745F7072 
 276      696E746E 
 276      00000200 
 277 0066 00000000 		.ascii	"\000\000\000\000\000\000\000\304\000\000\000test_pr"
 277      000000C4 
 277      00000074 
 277      6573745F 
 277      7072
 278 0078 696E7400 		.ascii	"int\000\000\002\000\000\000\000\000\000\000\000\000"
 278      00020000 
 278      00000000 
 278      000000
 279 0087 C8000000 		.ascii	"\310\000\000\000"
 280              		.text
 281              		.section	.gnu.lto_.opts,"",%progbits
 282 0000 272D6D63 		.ascii	"'-mcpu=cortex-m3' '-mno-thumb-interwork' '-mthumb' "
 282      70753D63 
 282      6F727465 
 282      782D6D33 
 282      2720272D 
 283 0033 272D6767 		.ascii	"'-ggdb' '-O2' '-fomit-frame-pointer' '-falign-funct"
 283      64622720 
 283      272D4F32 
 283      2720272D 
 283      666F6D69 
 284 0066 696F6E73 		.ascii	"ions=16' '-ffunction-sections' '-fdata-sections' '-"
 284      3D313627 
 284      20272D66 
 284      66756E63 
 284      74696F6E 
 285 0099 666E6F2D 		.ascii	"fno-common' '-flto'\000"
 285      636F6D6D 
 285      6F6E2720 
 285      272D666C 
 285      746F2700 
 286              		.text
 287              		.cfi_sections	.debug_frame
 288              		.section	.text.test_001_002_execute,"ax",%progbits
 289              		.align	2
 290              		.p2align 4,,15
 291              		.thumb
 292              		.thumb_func
 293              		.type	test_001_002_execute, %function
 294              	test_001_002_execute:
 295              	.LFB220:
 296              		.file 1 "../test/rt/source/test/test_sequence_001.c"
 297              		.loc 1 101 0
 298              		.cfi_startproc
 299              		@ args = 0, pretend = 0, frame = 0
 300              		@ frame_needed = 0, uses_anonymous_args = 0
ARM GAS  /tmp/cc0Aowt3.s 			page 22


 301 0000 38B5     		push	{r3, r4, r5, lr}
 302              		.cfi_def_cfa_offset 16
 303              		.cfi_offset 3, -16
 304              		.cfi_offset 4, -12
 305              		.cfi_offset 5, -8
 306              		.cfi_offset 14, -4
 307              		.loc 1 106 0
 308 0002 40F20000 		movw	r0, #:lower16:.LC0
 309              		.loc 1 104 0
 310 0006 40F20003 		movw	r3, #:lower16:test_step
 311 000a C0F20003 		movt	r3, #:upper16:test_step
 312 000e 0125     		movs	r5, #1
 313              		.loc 1 106 0
 314 0010 C0F20000 		movt	r0, #:upper16:.LC0
 315              		.loc 1 108 0
 316 0014 40F20004 		movw	r4, #:lower16:.LC1
 317              		.loc 1 104 0
 318 0018 1D60     		str	r5, [r3]
 319              		.loc 1 108 0
 320 001a C0F20004 		movt	r4, #:upper16:.LC1
 321              		.loc 1 106 0
 322 001e FFF7FEFF 		bl	test_print
 323              	.LVL0:
 324              		.loc 1 107 0
 325 0022 1020     		movs	r0, #16
 326 0024 FFF7FEFF 		bl	test_printn
 327              	.LVL1:
 328              		.loc 1 108 0
 329 0028 2046     		mov	r0, r4
 330 002a FFF7FEFF 		bl	test_println
 331              	.LVL2:
 332              		.loc 1 109 0
 333 002e 40F20000 		movw	r0, #:lower16:.LC2
 334 0032 C0F20000 		movt	r0, #:upper16:.LC2
 335 0036 FFF7FEFF 		bl	test_print
 336              	.LVL3:
 337              		.loc 1 110 0
 338 003a 4FF47A70 		mov	r0, #1000
 339 003e FFF7FEFF 		bl	test_printn
 340              	.LVL4:
 341              		.loc 1 111 0
 342 0042 2046     		mov	r0, r4
 343 0044 FFF7FEFF 		bl	test_println
 344              	.LVL5:
 345              		.loc 1 112 0
 346 0048 40F20000 		movw	r0, #:lower16:.LC3
 347 004c C0F20000 		movt	r0, #:upper16:.LC3
 348 0050 FFF7FEFF 		bl	test_print
 349              	.LVL6:
 350              		.loc 1 113 0
 351 0054 0220     		movs	r0, #2
 352 0056 FFF7FEFF 		bl	test_printn
 353              	.LVL7:
 354              		.loc 1 114 0
 355 005a 2046     		mov	r0, r4
 356 005c FFF7FEFF 		bl	test_println
 357              	.LVL8:
ARM GAS  /tmp/cc0Aowt3.s 			page 23


 358              		.loc 1 115 0
 359 0060 40F20000 		movw	r0, #:lower16:.LC4
 360 0064 C0F20000 		movt	r0, #:upper16:.LC4
 361 0068 FFF7FEFF 		bl	test_print
 362              	.LVL9:
 363              		.loc 1 116 0
 364 006c 0020     		movs	r0, #0
 365 006e FFF7FEFF 		bl	test_printn
 366              	.LVL10:
 367              		.loc 1 117 0
 368 0072 2046     		mov	r0, r4
 369 0074 FFF7FEFF 		bl	test_println
 370              	.LVL11:
 371              		.loc 1 118 0
 372 0078 40F20000 		movw	r0, #:lower16:.LC5
 373 007c C0F20000 		movt	r0, #:upper16:.LC5
 374 0080 FFF7FEFF 		bl	test_print
 375              	.LVL12:
 376              		.loc 1 119 0
 377 0084 0020     		movs	r0, #0
 378 0086 FFF7FEFF 		bl	test_printn
 379              	.LVL13:
 380              		.loc 1 120 0
 381 008a 2046     		mov	r0, r4
 382 008c FFF7FEFF 		bl	test_println
 383              	.LVL14:
 384              		.loc 1 121 0
 385 0090 40F20000 		movw	r0, #:lower16:.LC6
 386 0094 C0F20000 		movt	r0, #:upper16:.LC6
 387 0098 FFF7FEFF 		bl	test_print
 388              	.LVL15:
 389              		.loc 1 122 0
 390 009c 0020     		movs	r0, #0
 391 009e FFF7FEFF 		bl	test_printn
 392              	.LVL16:
 393              		.loc 1 123 0
 394 00a2 2046     		mov	r0, r4
 395 00a4 FFF7FEFF 		bl	test_println
 396              	.LVL17:
 397              		.loc 1 124 0
 398 00a8 40F20000 		movw	r0, #:lower16:.LC7
 399 00ac C0F20000 		movt	r0, #:upper16:.LC7
 400 00b0 FFF7FEFF 		bl	test_print
 401              	.LVL18:
 402              		.loc 1 125 0
 403 00b4 2846     		mov	r0, r5
 404 00b6 FFF7FEFF 		bl	test_printn
 405              	.LVL19:
 406              		.loc 1 126 0
 407 00ba 2046     		mov	r0, r4
 408 00bc FFF7FEFF 		bl	test_println
 409              	.LVL20:
 410              		.loc 1 127 0
 411 00c0 40F20000 		movw	r0, #:lower16:.LC8
 412 00c4 C0F20000 		movt	r0, #:upper16:.LC8
 413 00c8 FFF7FEFF 		bl	test_print
 414              	.LVL21:
ARM GAS  /tmp/cc0Aowt3.s 			page 24


 415              		.loc 1 128 0
 416 00cc 0020     		movs	r0, #0
 417 00ce FFF7FEFF 		bl	test_printn
 418              	.LVL22:
 419              		.loc 1 129 0
 420 00d2 2046     		mov	r0, r4
 421 00d4 FFF7FEFF 		bl	test_println
 422              	.LVL23:
 423              		.loc 1 130 0
 424 00d8 40F20000 		movw	r0, #:lower16:.LC9
 425 00dc C0F20000 		movt	r0, #:upper16:.LC9
 426 00e0 FFF7FEFF 		bl	test_print
 427              	.LVL24:
 428              		.loc 1 131 0
 429 00e4 2846     		mov	r0, r5
 430 00e6 FFF7FEFF 		bl	test_printn
 431              	.LVL25:
 432              		.loc 1 132 0
 433 00ea 2046     		mov	r0, r4
 434 00ec FFF7FEFF 		bl	test_println
 435              	.LVL26:
 436              		.loc 1 133 0
 437 00f0 40F20000 		movw	r0, #:lower16:.LC10
 438 00f4 C0F20000 		movt	r0, #:upper16:.LC10
 439 00f8 FFF7FEFF 		bl	test_print
 440              	.LVL27:
 441              		.loc 1 134 0
 442 00fc 2846     		mov	r0, r5
 443 00fe FFF7FEFF 		bl	test_printn
 444              	.LVL28:
 445              		.loc 1 135 0
 446 0102 2046     		mov	r0, r4
 447 0104 FFF7FEFF 		bl	test_println
 448              	.LVL29:
 449              		.loc 1 136 0
 450 0108 40F20000 		movw	r0, #:lower16:.LC11
 451 010c C0F20000 		movt	r0, #:upper16:.LC11
 452 0110 FFF7FEFF 		bl	test_print
 453              	.LVL30:
 454              		.loc 1 137 0
 455 0114 2846     		mov	r0, r5
 456 0116 FFF7FEFF 		bl	test_printn
 457              	.LVL31:
 458              		.loc 1 138 0
 459 011a 2046     		mov	r0, r4
 460 011c FFF7FEFF 		bl	test_println
 461              	.LVL32:
 462              		.loc 1 139 0
 463 0120 40F20000 		movw	r0, #:lower16:.LC12
 464 0124 C0F20000 		movt	r0, #:upper16:.LC12
 465 0128 FFF7FEFF 		bl	test_print
 466              	.LVL33:
 467              		.loc 1 140 0
 468 012c 0020     		movs	r0, #0
 469 012e FFF7FEFF 		bl	test_printn
 470              	.LVL34:
 471              		.loc 1 141 0
ARM GAS  /tmp/cc0Aowt3.s 			page 25


 472 0132 2046     		mov	r0, r4
 473 0134 FFF7FEFF 		bl	test_println
 474              	.LVL35:
 475              		.loc 1 142 0
 476 0138 40F20000 		movw	r0, #:lower16:.LC13
 477 013c C0F20000 		movt	r0, #:upper16:.LC13
 478 0140 FFF7FEFF 		bl	test_print
 479              	.LVL36:
 480              		.loc 1 143 0
 481 0144 2846     		mov	r0, r5
 482 0146 FFF7FEFF 		bl	test_printn
 483              	.LVL37:
 484              		.loc 1 144 0
 485 014a 2046     		mov	r0, r4
 486 014c FFF7FEFF 		bl	test_println
 487              	.LVL38:
 488              		.loc 1 145 0
 489 0150 40F20000 		movw	r0, #:lower16:.LC14
 490 0154 C0F20000 		movt	r0, #:upper16:.LC14
 491 0158 FFF7FEFF 		bl	test_print
 492              	.LVL39:
 493              		.loc 1 146 0
 494 015c 0020     		movs	r0, #0
 495 015e FFF7FEFF 		bl	test_printn
 496              	.LVL40:
 497              		.loc 1 147 0
 498 0162 2046     		mov	r0, r4
 499 0164 FFF7FEFF 		bl	test_println
 500              	.LVL41:
 501              		.loc 1 148 0
 502 0168 40F20000 		movw	r0, #:lower16:.LC15
 503 016c C0F20000 		movt	r0, #:upper16:.LC15
 504 0170 FFF7FEFF 		bl	test_print
 505              	.LVL42:
 506              		.loc 1 149 0
 507 0174 2846     		mov	r0, r5
 508 0176 FFF7FEFF 		bl	test_printn
 509              	.LVL43:
 510              		.loc 1 150 0
 511 017a 2046     		mov	r0, r4
 512 017c FFF7FEFF 		bl	test_println
 513              	.LVL44:
 514              		.loc 1 151 0
 515 0180 40F20000 		movw	r0, #:lower16:.LC16
 516 0184 C0F20000 		movt	r0, #:upper16:.LC16
 517 0188 FFF7FEFF 		bl	test_print
 518              	.LVL45:
 519              		.loc 1 152 0
 520 018c 2846     		mov	r0, r5
 521 018e FFF7FEFF 		bl	test_printn
 522              	.LVL46:
 523              		.loc 1 153 0
 524 0192 2046     		mov	r0, r4
 525 0194 FFF7FEFF 		bl	test_println
 526              	.LVL47:
 527              		.loc 1 154 0
 528 0198 40F20000 		movw	r0, #:lower16:.LC17
ARM GAS  /tmp/cc0Aowt3.s 			page 26


 529 019c C0F20000 		movt	r0, #:upper16:.LC17
 530 01a0 FFF7FEFF 		bl	test_print
 531              	.LVL48:
 532              		.loc 1 155 0
 533 01a4 2846     		mov	r0, r5
 534 01a6 FFF7FEFF 		bl	test_printn
 535              	.LVL49:
 536              		.loc 1 156 0
 537 01aa 2046     		mov	r0, r4
 538 01ac FFF7FEFF 		bl	test_println
 539              	.LVL50:
 540              		.loc 1 157 0
 541 01b0 40F20000 		movw	r0, #:lower16:.LC18
 542 01b4 C0F20000 		movt	r0, #:upper16:.LC18
 543 01b8 FFF7FEFF 		bl	test_print
 544              	.LVL51:
 545              		.loc 1 158 0
 546 01bc 2846     		mov	r0, r5
 547 01be FFF7FEFF 		bl	test_printn
 548              	.LVL52:
 549              		.loc 1 159 0
 550 01c2 2046     		mov	r0, r4
 551 01c4 FFF7FEFF 		bl	test_println
 552              	.LVL53:
 553              		.loc 1 160 0
 554 01c8 40F20000 		movw	r0, #:lower16:.LC19
 555 01cc C0F20000 		movt	r0, #:upper16:.LC19
 556 01d0 FFF7FEFF 		bl	test_print
 557              	.LVL54:
 558              		.loc 1 161 0
 559 01d4 2846     		mov	r0, r5
 560 01d6 FFF7FEFF 		bl	test_printn
 561              	.LVL55:
 562              		.loc 1 162 0
 563 01da 2046     		mov	r0, r4
 564 01dc FFF7FEFF 		bl	test_println
 565              	.LVL56:
 566              		.loc 1 163 0
 567 01e0 40F20000 		movw	r0, #:lower16:.LC20
 568 01e4 C0F20000 		movt	r0, #:upper16:.LC20
 569 01e8 FFF7FEFF 		bl	test_print
 570              	.LVL57:
 571              		.loc 1 164 0
 572 01ec 0020     		movs	r0, #0
 573 01ee FFF7FEFF 		bl	test_printn
 574              	.LVL58:
 575              		.loc 1 165 0
 576 01f2 2046     		mov	r0, r4
 577 01f4 FFF7FEFF 		bl	test_println
 578              	.LVL59:
 579              		.loc 1 166 0
 580 01f8 40F20000 		movw	r0, #:lower16:.LC21
 581 01fc C0F20000 		movt	r0, #:upper16:.LC21
 582 0200 FFF7FEFF 		bl	test_print
 583              	.LVL60:
 584              		.loc 1 167 0
 585 0204 2846     		mov	r0, r5
ARM GAS  /tmp/cc0Aowt3.s 			page 27


 586 0206 FFF7FEFF 		bl	test_printn
 587              	.LVL61:
 588              		.loc 1 168 0
 589 020a 2046     		mov	r0, r4
 590 020c FFF7FEFF 		bl	test_println
 591              	.LVL62:
 592              		.loc 1 169 0
 593 0210 40F20000 		movw	r0, #:lower16:.LC22
 594 0214 C0F20000 		movt	r0, #:upper16:.LC22
 595 0218 FFF7FEFF 		bl	test_print
 596              	.LVL63:
 597              		.loc 1 170 0
 598 021c 2846     		mov	r0, r5
 599 021e FFF7FEFF 		bl	test_printn
 600              	.LVL64:
 601              		.loc 1 171 0
 602 0222 2046     		mov	r0, r4
 603 0224 FFF7FEFF 		bl	test_println
 604              	.LVL65:
 605              		.loc 1 172 0
 606 0228 40F20000 		movw	r0, #:lower16:.LC23
 607 022c C0F20000 		movt	r0, #:upper16:.LC23
 608 0230 FFF7FEFF 		bl	test_print
 609              	.LVL66:
 610              		.loc 1 173 0
 611 0234 2846     		mov	r0, r5
 612 0236 FFF7FEFF 		bl	test_printn
 613              	.LVL67:
 614              		.loc 1 174 0
 615 023a 2046     		mov	r0, r4
 616 023c FFF7FEFF 		bl	test_println
 617              	.LVL68:
 618              		.loc 1 175 0
 619 0240 40F20000 		movw	r0, #:lower16:.LC24
 620 0244 C0F20000 		movt	r0, #:upper16:.LC24
 621 0248 FFF7FEFF 		bl	test_print
 622              	.LVL69:
 623              		.loc 1 176 0
 624 024c 2846     		mov	r0, r5
 625 024e FFF7FEFF 		bl	test_printn
 626              	.LVL70:
 627              		.loc 1 177 0
 628 0252 2046     		mov	r0, r4
 629 0254 FFF7FEFF 		bl	test_println
 630              	.LVL71:
 631              		.loc 1 178 0
 632 0258 40F20000 		movw	r0, #:lower16:.LC25
 633 025c C0F20000 		movt	r0, #:upper16:.LC25
 634 0260 FFF7FEFF 		bl	test_print
 635              	.LVL72:
 636              		.loc 1 179 0
 637 0264 2846     		mov	r0, r5
 638 0266 FFF7FEFF 		bl	test_printn
 639              	.LVL73:
 640              		.loc 1 180 0
 641 026a 2046     		mov	r0, r4
 642 026c FFF7FEFF 		bl	test_println
ARM GAS  /tmp/cc0Aowt3.s 			page 28


 643              	.LVL74:
 644              		.loc 1 181 0
 645 0270 40F20000 		movw	r0, #:lower16:.LC26
 646 0274 C0F20000 		movt	r0, #:upper16:.LC26
 647 0278 FFF7FEFF 		bl	test_print
 648              	.LVL75:
 649              		.loc 1 182 0
 650 027c 0020     		movs	r0, #0
 651 027e FFF7FEFF 		bl	test_printn
 652              	.LVL76:
 653              		.loc 1 183 0
 654 0282 2046     		mov	r0, r4
 655 0284 FFF7FEFF 		bl	test_println
 656              	.LVL77:
 657              		.loc 1 184 0
 658 0288 40F20000 		movw	r0, #:lower16:.LC27
 659 028c C0F20000 		movt	r0, #:upper16:.LC27
 660 0290 FFF7FEFF 		bl	test_print
 661              	.LVL78:
 662              		.loc 1 185 0
 663 0294 0020     		movs	r0, #0
 664 0296 FFF7FEFF 		bl	test_printn
 665              	.LVL79:
 666              		.loc 1 186 0
 667 029a 2046     		mov	r0, r4
 668 029c FFF7FEFF 		bl	test_println
 669              	.LVL80:
 670              		.loc 1 187 0
 671 02a0 40F20000 		movw	r0, #:lower16:.LC28
 672 02a4 C0F20000 		movt	r0, #:upper16:.LC28
 673 02a8 FFF7FEFF 		bl	test_print
 674              	.LVL81:
 675              		.loc 1 188 0
 676 02ac 0020     		movs	r0, #0
 677 02ae FFF7FEFF 		bl	test_printn
 678              	.LVL82:
 679              		.loc 1 189 0
 680 02b2 2046     		mov	r0, r4
 681 02b4 FFF7FEFF 		bl	test_println
 682              	.LVL83:
 683              		.loc 1 190 0
 684 02b8 40F20000 		movw	r0, #:lower16:.LC29
 685 02bc C0F20000 		movt	r0, #:upper16:.LC29
 686 02c0 FFF7FEFF 		bl	test_print
 687              	.LVL84:
 688              		.loc 1 191 0
 689 02c4 0020     		movs	r0, #0
 690 02c6 FFF7FEFF 		bl	test_printn
 691              	.LVL85:
 692              		.loc 1 192 0
 693 02ca 2046     		mov	r0, r4
 694 02cc FFF7FEFF 		bl	test_println
 695              	.LVL86:
 696              		.loc 1 193 0
 697 02d0 40F20000 		movw	r0, #:lower16:.LC30
 698 02d4 C0F20000 		movt	r0, #:upper16:.LC30
 699 02d8 FFF7FEFF 		bl	test_print
ARM GAS  /tmp/cc0Aowt3.s 			page 29


 700              	.LVL87:
 701              		.loc 1 194 0
 702 02dc FF20     		movs	r0, #255
 703 02de FFF7FEFF 		bl	test_printn
 704              	.LVL88:
 705              		.loc 1 195 0
 706 02e2 2046     		mov	r0, r4
 707 02e4 FFF7FEFF 		bl	test_println
 708              	.LVL89:
 709              		.loc 1 196 0
 710 02e8 40F20000 		movw	r0, #:lower16:.LC31
 711 02ec C0F20000 		movt	r0, #:upper16:.LC31
 712 02f0 FFF7FEFF 		bl	test_print
 713              	.LVL90:
 714              		.loc 1 197 0
 715 02f4 8020     		movs	r0, #128
 716 02f6 FFF7FEFF 		bl	test_printn
 717              	.LVL91:
 718              		.loc 1 198 0
 719 02fa 2046     		mov	r0, r4
 720 02fc FFF7FEFF 		bl	test_println
 721              	.LVL92:
 722              		.loc 1 199 0
 723 0300 40F20000 		movw	r0, #:lower16:.LC32
 724 0304 C0F20000 		movt	r0, #:upper16:.LC32
 725 0308 FFF7FEFF 		bl	test_print
 726              	.LVL93:
 727              		.loc 1 200 0
 728 030c 0020     		movs	r0, #0
 729 030e FFF7FEFF 		bl	test_printn
 730              	.LVL94:
 731              		.loc 1 201 0
 732 0312 2046     		mov	r0, r4
 733 0314 FFF7FEFF 		bl	test_println
 734              	.LVL95:
 735              		.loc 1 202 0
 736 0318 40F20000 		movw	r0, #:lower16:.LC33
 737 031c C0F20000 		movt	r0, #:upper16:.LC33
 738 0320 FFF7FEFF 		bl	test_print
 739              	.LVL96:
 740              		.loc 1 203 0
 741 0324 0020     		movs	r0, #0
 742 0326 FFF7FEFF 		bl	test_printn
 743              	.LVL97:
 744              		.loc 1 204 0
 745 032a 2046     		mov	r0, r4
 746 032c FFF7FEFF 		bl	test_println
 747              	.LVL98:
 748              		.loc 1 205 0
 749 0330 40F20000 		movw	r0, #:lower16:.LC34
 750 0334 C0F20000 		movt	r0, #:upper16:.LC34
 751 0338 FFF7FEFF 		bl	test_print
 752              	.LVL99:
 753              		.loc 1 206 0
 754 033c 0020     		movs	r0, #0
 755 033e FFF7FEFF 		bl	test_printn
 756              	.LVL100:
ARM GAS  /tmp/cc0Aowt3.s 			page 30


 757              		.loc 1 207 0
 758 0342 2046     		mov	r0, r4
 759              		.loc 1 209 0
 760 0344 BDE83840 		pop	{r3, r4, r5, lr}
 761              		.loc 1 207 0
 762 0348 FFF7FEBF 		b	test_println
 763              	.LVL101:
 764              		.cfi_endproc
 765              	.LFE220:
 766              		.size	test_001_002_execute, .-test_001_002_execute
 767 034c AFF30080 		.section	.text.test_001_001_execute,"ax",%progbits
 768              		.align	2
 769              		.p2align 4,,15
 770              		.thumb
 771              		.thumb_func
 772              		.type	test_001_001_execute, %function
 773              	test_001_001_execute:
 774              	.LFB219:
 775              		.loc 1 60 0
 776              		.cfi_startproc
 777              		@ args = 0, pretend = 0, frame = 0
 778              		@ frame_needed = 0, uses_anonymous_args = 0
 779 0000 38B5     		push	{r3, r4, r5, lr}
 780              		.cfi_def_cfa_offset 16
 781              		.cfi_offset 3, -16
 782              		.cfi_offset 4, -12
 783              		.cfi_offset 5, -8
 784              		.cfi_offset 14, -4
 785              		.loc 1 65 0
 786 0002 40F20000 		movw	r0, #:lower16:.LC35
 787              		.loc 1 63 0
 788 0006 40F20003 		movw	r3, #:lower16:test_step
 789 000a C0F20003 		movt	r3, #:upper16:test_step
 790 000e 0125     		movs	r5, #1
 791              		.loc 1 65 0
 792 0010 C0F20000 		movt	r0, #:upper16:.LC35
 793              		.loc 1 63 0
 794 0014 1D60     		str	r5, [r3]
 795              		.loc 1 65 0
 796 0016 FFF7FEFF 		bl	test_println
 797              	.LVL102:
 798              		.loc 1 66 0
 799 001a 40F20000 		movw	r0, #:lower16:.LC36
 800 001e C0F20000 		movt	r0, #:upper16:.LC36
 801              		.loc 1 68 0
 802 0022 40F20004 		movw	r4, #:lower16:.LC1
 803 0026 C0F20004 		movt	r4, #:upper16:.LC1
 804              		.loc 1 66 0
 805 002a FFF7FEFF 		bl	test_print
 806              	.LVL103:
 807              		.loc 1 67 0
 808 002e 2846     		mov	r0, r5
 809 0030 FFF7FEFF 		bl	test_printn
 810              	.LVL104:
 811              		.loc 1 68 0
 812 0034 2046     		mov	r0, r4
 813 0036 FFF7FEFF 		bl	test_println
ARM GAS  /tmp/cc0Aowt3.s 			page 31


 814              	.LVL105:
 815              		.loc 1 69 0
 816 003a 40F20000 		movw	r0, #:lower16:.LC37
 817 003e C0F20000 		movt	r0, #:upper16:.LC37
 818 0042 FFF7FEFF 		bl	test_print
 819              	.LVL106:
 820              		.loc 1 70 0
 821 0046 40F20000 		movw	r0, #:lower16:.LC38
 822 004a C0F20000 		movt	r0, #:upper16:.LC38
 823 004e FFF7FEFF 		bl	test_println
 824              	.LVL107:
 825              		.loc 1 71 0
 826 0052 40F20000 		movw	r0, #:lower16:.LC39
 827 0056 C0F20000 		movt	r0, #:upper16:.LC39
 828 005a FFF7FEFF 		bl	test_print
 829              	.LVL108:
 830              		.loc 1 72 0
 831 005e 0420     		movs	r0, #4
 832 0060 FFF7FEFF 		bl	test_printn
 833              	.LVL109:
 834              		.loc 1 73 0
 835 0064 2046     		mov	r0, r4
 836 0066 FFF7FEFF 		bl	test_println
 837              	.LVL110:
 838              		.loc 1 74 0
 839 006a 40F20000 		movw	r0, #:lower16:.LC40
 840 006e C0F20000 		movt	r0, #:upper16:.LC40
 841 0072 FFF7FEFF 		bl	test_print
 842              	.LVL111:
 843              		.loc 1 75 0
 844 0076 0020     		movs	r0, #0
 845 0078 FFF7FEFF 		bl	test_printn
 846              	.LVL112:
 847              		.loc 1 76 0
 848 007c 2046     		mov	r0, r4
 849 007e FFF7FEFF 		bl	test_println
 850              	.LVL113:
 851              		.loc 1 77 0
 852 0082 40F20000 		movw	r0, #:lower16:.LC41
 853 0086 C0F20000 		movt	r0, #:upper16:.LC41
 854 008a FFF7FEFF 		bl	test_print
 855              	.LVL114:
 856              		.loc 1 78 0
 857 008e 0220     		movs	r0, #2
 858 0090 FFF7FEFF 		bl	test_printn
 859              	.LVL115:
 860              		.loc 1 79 0
 861 0094 2046     		mov	r0, r4
 862              		.loc 1 81 0
 863 0096 BDE83840 		pop	{r3, r4, r5, lr}
 864              		.loc 1 79 0
 865 009a FFF7FEBF 		b	test_println
 866              	.LVL116:
 867              		.cfi_endproc
 868              	.LFE219:
 869              		.size	test_001_001_execute, .-test_001_001_execute
 870              		.global	test_sequence_001
ARM GAS  /tmp/cc0Aowt3.s 			page 32


 871 009e 00BF     		.section	.rodata.test_sequence_001,"a",%progbits
 872              		.align	2
 873              		.type	test_sequence_001, %object
 874              		.size	test_sequence_001, 12
 875              	test_sequence_001:
 876 0000 00000000 		.word	test_001_001
 877 0004 00000000 		.word	test_001_002
 878 0008 00000000 		.word	0
 879              		.section	.rodata.test_001_001,"a",%progbits
 880              		.align	2
 881              		.type	test_001_001, %object
 882              		.size	test_001_001, 16
 883              	test_001_001:
 884 0000 28050000 		.word	.LC43
 885 0004 00000000 		.word	0
 886 0008 00000000 		.word	0
 887 000c 00000000 		.word	test_001_001_execute
 888              		.section	.rodata.test_001_002,"a",%progbits
 889              		.align	2
 890              		.type	test_001_002, %object
 891              		.size	test_001_002, 16
 892              	test_001_002:
 893 0000 18050000 		.word	.LC42
 894 0004 00000000 		.word	0
 895 0008 00000000 		.word	0
 896 000c 00000000 		.word	test_001_002_execute
 897              		.section	.rodata.str1.4,"aMS",%progbits,1
 898              		.align	2
 899              	.LC0:
 900 0000 2D2D2D20 		.ascii	"--- CH_CFG_ST_RESOLUTION:      \000"
 900      43485F43 
 900      46475F53 
 900      545F5245 
 900      534F4C55 
 901              	.LC1:
 902 0020 00       		.ascii	"\000"
 903 0021 000000   		.space	3
 904              	.LC2:
 905 0024 2D2D2D20 		.ascii	"--- CH_CFG_ST_FREQUENCY:       \000"
 905      43485F43 
 905      46475F53 
 905      545F4652 
 905      45515545 
 906              	.LC3:
 907 0044 2D2D2D20 		.ascii	"--- CH_CFG_ST_TIMEDELTA:       \000"
 907      43485F43 
 907      46475F53 
 907      545F5449 
 907      4D454445 
 908              	.LC4:
 909 0064 2D2D2D20 		.ascii	"--- CH_CFG_TIME_QUANTUM:       \000"
 909      43485F43 
 909      46475F54 
 909      494D455F 
 909      5155414E 
 910              	.LC5:
 911 0084 2D2D2D20 		.ascii	"--- CH_CFG_MEMCORE_SIZE:       \000"
ARM GAS  /tmp/cc0Aowt3.s 			page 33


 911      43485F43 
 911      46475F4D 
 911      454D434F 
 911      52455F53 
 912              	.LC6:
 913 00a4 2D2D2D20 		.ascii	"--- CH_CFG_NO_IDLE_THREAD:     \000"
 913      43485F43 
 913      46475F4E 
 913      4F5F4944 
 913      4C455F54 
 914              	.LC7:
 915 00c4 2D2D2D20 		.ascii	"--- CH_CFG_OPTIMIZE_SPEED:     \000"
 915      43485F43 
 915      46475F4F 
 915      5054494D 
 915      495A455F 
 916              	.LC8:
 917 00e4 2D2D2D20 		.ascii	"--- CH_CFG_USE_TM:             \000"
 917      43485F43 
 917      46475F55 
 917      53455F54 
 917      4D3A2020 
 918              	.LC9:
 919 0104 2D2D2D20 		.ascii	"--- CH_CFG_USE_REGISTRY:       \000"
 919      43485F43 
 919      46475F55 
 919      53455F52 
 919      45474953 
 920              	.LC10:
 921 0124 2D2D2D20 		.ascii	"--- CH_CFG_USE_WAITEXIT:       \000"
 921      43485F43 
 921      46475F55 
 921      53455F57 
 921      41495445 
 922              	.LC11:
 923 0144 2D2D2D20 		.ascii	"--- CH_CFG_USE_SEMAPHORES:     \000"
 923      43485F43 
 923      46475F55 
 923      53455F53 
 923      454D4150 
 924              	.LC12:
 925 0164 2D2D2D20 		.ascii	"--- CH_CFG_USE_SEMAPHORES_PRI: \000"
 925      43485F43 
 925      46475F55 
 925      53455F53 
 925      454D4150 
 926              	.LC13:
 927 0184 2D2D2D20 		.ascii	"--- CH_CFG_USE_MUTEXES:        \000"
 927      43485F43 
 927      46475F55 
 927      53455F4D 
 927      55544558 
 928              	.LC14:
 929 01a4 2D2D2D20 		.ascii	"--- CH_CFG_USE_MUTEXES_RECURS: \000"
 929      43485F43 
 929      46475F55 
 929      53455F4D 
ARM GAS  /tmp/cc0Aowt3.s 			page 34


 929      55544558 
 930              	.LC15:
 931 01c4 2D2D2D20 		.ascii	"--- CH_CFG_USE_CONDVARS:       \000"
 931      43485F43 
 931      46475F55 
 931      53455F43 
 931      4F4E4456 
 932              	.LC16:
 933 01e4 2D2D2D20 		.ascii	"--- CH_CFG_USE_CONDVARS_TIMEO: \000"
 933      43485F43 
 933      46475F55 
 933      53455F43 
 933      4F4E4456 
 934              	.LC17:
 935 0204 2D2D2D20 		.ascii	"--- CH_CFG_USE_EVENTS:         \000"
 935      43485F43 
 935      46475F55 
 935      53455F45 
 935      56454E54 
 936              	.LC18:
 937 0224 2D2D2D20 		.ascii	"--- CH_CFG_USE_EVENTS_TIMEOUT: \000"
 937      43485F43 
 937      46475F55 
 937      53455F45 
 937      56454E54 
 938              	.LC19:
 939 0244 2D2D2D20 		.ascii	"--- CH_CFG_USE_MESSAGES:       \000"
 939      43485F43 
 939      46475F55 
 939      53455F4D 
 939      45535341 
 940              	.LC20:
 941 0264 2D2D2D20 		.ascii	"--- CH_CFG_USE_MESSAGES_PRI:   \000"
 941      43485F43 
 941      46475F55 
 941      53455F4D 
 941      45535341 
 942              	.LC21:
 943 0284 2D2D2D20 		.ascii	"--- CH_CFG_USE_MAILBOXES:      \000"
 943      43485F43 
 943      46475F55 
 943      53455F4D 
 943      41494C42 
 944              	.LC22:
 945 02a4 2D2D2D20 		.ascii	"--- CH_CFG_USE_MEMCORE:        \000"
 945      43485F43 
 945      46475F55 
 945      53455F4D 
 945      454D434F 
 946              	.LC23:
 947 02c4 2D2D2D20 		.ascii	"--- CH_CFG_USE_HEAP:           \000"
 947      43485F43 
 947      46475F55 
 947      53455F48 
 947      4541503A 
 948              	.LC24:
 949 02e4 2D2D2D20 		.ascii	"--- CH_CFG_USE_MEMPOOLS:       \000"
ARM GAS  /tmp/cc0Aowt3.s 			page 35


 949      43485F43 
 949      46475F55 
 949      53455F4D 
 949      454D504F 
 950              	.LC25:
 951 0304 2D2D2D20 		.ascii	"--- CH_CFG_USE_DYNAMIC:        \000"
 951      43485F43 
 951      46475F55 
 951      53455F44 
 951      594E414D 
 952              	.LC26:
 953 0324 2D2D2D20 		.ascii	"--- CH_DBG_STATISTICS:         \000"
 953      43485F44 
 953      42475F53 
 953      54415449 
 953      53544943 
 954              	.LC27:
 955 0344 2D2D2D20 		.ascii	"--- CH_DBG_SYSTEM_STATE_CHECK: \000"
 955      43485F44 
 955      42475F53 
 955      59535445 
 955      4D5F5354 
 956              	.LC28:
 957 0364 2D2D2D20 		.ascii	"--- CH_DBG_ENABLE_CHECKS:      \000"
 957      43485F44 
 957      42475F45 
 957      4E41424C 
 957      455F4348 
 958              	.LC29:
 959 0384 2D2D2D20 		.ascii	"--- CH_DBG_ENABLE_ASSERTS:     \000"
 959      43485F44 
 959      42475F45 
 959      4E41424C 
 959      455F4153 
 960              	.LC30:
 961 03a4 2D2D2D20 		.ascii	"--- CH_DBG_TRACE_MASK:         \000"
 961      43485F44 
 961      42475F54 
 961      52414345 
 961      5F4D4153 
 962              	.LC31:
 963 03c4 2D2D2D20 		.ascii	"--- CH_DBG_TRACE_BUFFER_SIZE:  \000"
 963      43485F44 
 963      42475F54 
 963      52414345 
 963      5F425546 
 964              	.LC32:
 965 03e4 2D2D2D20 		.ascii	"--- CH_DBG_ENABLE_STACK_CHECK: \000"
 965      43485F44 
 965      42475F45 
 965      4E41424C 
 965      455F5354 
 966              	.LC33:
 967 0404 2D2D2D20 		.ascii	"--- CH_DBG_FILL_THREADS:       \000"
 967      43485F44 
 967      42475F46 
 967      494C4C5F 
ARM GAS  /tmp/cc0Aowt3.s 			page 36


 967      54485245 
 968              	.LC34:
 969 0424 2D2D2D20 		.ascii	"--- CH_DBG_THREADS_PROFILING:  \000"
 969      43485F44 
 969      42475F54 
 969      48524541 
 969      44535F50 
 970              	.LC35:
 971 0444 2D2D2D20 		.ascii	"--- Product:                   ChibiOS/RT\000"
 971      50726F64 
 971      7563743A 
 971      20202020 
 971      20202020 
 972 046e 0000     		.space	2
 973              	.LC36:
 974 0470 2D2D2D20 		.ascii	"--- Stable Flag:               \000"
 974      53746162 
 974      6C652046 
 974      6C61673A 
 974      20202020 
 975              	.LC37:
 976 0490 2D2D2D20 		.ascii	"--- Version String:            \000"
 976      56657273 
 976      696F6E20 
 976      53747269 
 976      6E673A20 
 977              	.LC38:
 978 04b0 342E302E 		.ascii	"4.0.2\000"
 978      3200
 979 04b6 0000     		.space	2
 980              	.LC39:
 981 04b8 2D2D2D20 		.ascii	"--- Major Number:              \000"
 981      4D616A6F 
 981      72204E75 
 981      6D626572 
 981      3A202020 
 982              	.LC40:
 983 04d8 2D2D2D20 		.ascii	"--- Minor Number:              \000"
 983      4D696E6F 
 983      72204E75 
 983      6D626572 
 983      3A202020 
 984              	.LC41:
 985 04f8 2D2D2D20 		.ascii	"--- Patch Number:              \000"
 985      50617463 
 985      68204E75 
 985      6D626572 
 985      3A202020 
 986              	.LC42:
 987 0518 4B65726E 		.ascii	"Kernel Settings\000"
 987      656C2053 
 987      65747469 
 987      6E677300 
 988              	.LC43:
 989 0528 4B65726E 		.ascii	"Kernel Info\000"
 989      656C2049 
 989      6E666F00 
ARM GAS  /tmp/cc0Aowt3.s 			page 37


 990              		.text
 991              	.Letext0:
 992              		.file 2 "/usr/lib/gcc/arm-none-eabi/4.8.2/include/stddef.h"
 993              		.file 3 "/usr/include/newlib/machine/_default_types.h"
 994              		.file 4 "/usr/include/newlib/stdint.h"
 995              		.file 5 "../os/common/ports/ARMCMx/compilers/GCC/chtypes.h"
 996              		.file 6 "../os/rt/include/chsystypes.h"
 997              		.file 7 "../os/rt/include/chschd.h"
 998              		.file 8 "../os/common/ports/ARMCMx/chcore.h"
 999              		.file 9 "../os/common/ports/ARMCMx/chcore_v7m.h"
 1000              		.file 10 "../os/rt/include/chsem.h"
 1001              		.file 11 "../os/rt/include/chmtx.h"
 1002              		.file 12 "../test/lib/ch_test.h"
 1003              		.file 13 "../os/common/ext/CMSIS/include/core_cm3.h"
 1004              		.section	.debug_info,"",%progbits
 1005              	.Ldebug_info0:
 1006 0000 8E100000 		.4byte	0x108e
 1007 0004 0400     		.2byte	0x4
 1008 0006 00000000 		.4byte	.Ldebug_abbrev0
 1009 000a 04       		.byte	0x4
 1010 000b 01       		.uleb128 0x1
 1011 000c 3C000000 		.4byte	.LASF103
 1012 0010 01       		.byte	0x1
 1013 0011 EA020000 		.4byte	.LASF104
 1014 0015 E7010000 		.4byte	.LASF105
 1015 0019 00000000 		.4byte	.Ldebug_ranges0+0
 1016 001d 00000000 		.4byte	0
 1017 0021 00000000 		.4byte	.Ldebug_line0
 1018 0025 02       		.uleb128 0x2
 1019 0026 04       		.byte	0x4
 1020 0027 05       		.byte	0x5
 1021 0028 696E7400 		.ascii	"int\000"
 1022 002c 03       		.uleb128 0x3
 1023 002d 03010000 		.4byte	.LASF2
 1024 0031 02       		.byte	0x2
 1025 0032 D4       		.byte	0xd4
 1026 0033 37000000 		.4byte	0x37
 1027 0037 04       		.uleb128 0x4
 1028 0038 04       		.byte	0x4
 1029 0039 07       		.byte	0x7
 1030 003a 37030000 		.4byte	.LASF0
 1031 003e 04       		.uleb128 0x4
 1032 003f 01       		.byte	0x1
 1033 0040 06       		.byte	0x6
 1034 0041 1C030000 		.4byte	.LASF1
 1035 0045 03       		.uleb128 0x3
 1036 0046 90020000 		.4byte	.LASF3
 1037 004a 03       		.byte	0x3
 1038 004b 1C       		.byte	0x1c
 1039 004c 50000000 		.4byte	0x50
 1040 0050 04       		.uleb128 0x4
 1041 0051 01       		.byte	0x1
 1042 0052 08       		.byte	0x8
 1043 0053 D6020000 		.4byte	.LASF4
 1044 0057 04       		.uleb128 0x4
 1045 0058 02       		.byte	0x2
 1046 0059 05       		.byte	0x5
ARM GAS  /tmp/cc0Aowt3.s 			page 38


 1047 005a F9000000 		.4byte	.LASF5
 1048 005e 03       		.uleb128 0x3
 1049 005f 60010000 		.4byte	.LASF6
 1050 0063 03       		.byte	0x3
 1051 0064 26       		.byte	0x26
 1052 0065 69000000 		.4byte	0x69
 1053 0069 04       		.uleb128 0x4
 1054 006a 02       		.byte	0x2
 1055 006b 07       		.byte	0x7
 1056 006c 73030000 		.4byte	.LASF7
 1057 0070 03       		.uleb128 0x3
 1058 0071 4F040000 		.4byte	.LASF8
 1059 0075 03       		.byte	0x3
 1060 0076 37       		.byte	0x37
 1061 0077 7B000000 		.4byte	0x7b
 1062 007b 04       		.uleb128 0x4
 1063 007c 04       		.byte	0x4
 1064 007d 05       		.byte	0x5
 1065 007e 60020000 		.4byte	.LASF9
 1066 0082 03       		.uleb128 0x3
 1067 0083 25040000 		.4byte	.LASF10
 1068 0087 03       		.byte	0x3
 1069 0088 38       		.byte	0x38
 1070 0089 8D000000 		.4byte	0x8d
 1071 008d 04       		.uleb128 0x4
 1072 008e 04       		.byte	0x4
 1073 008f 07       		.byte	0x7
 1074 0090 09040000 		.4byte	.LASF11
 1075 0094 04       		.uleb128 0x4
 1076 0095 08       		.byte	0x8
 1077 0096 05       		.byte	0x5
 1078 0097 33020000 		.4byte	.LASF12
 1079 009b 03       		.uleb128 0x3
 1080 009c DB030000 		.4byte	.LASF13
 1081 00a0 03       		.byte	0x3
 1082 00a1 4E       		.byte	0x4e
 1083 00a2 A6000000 		.4byte	0xa6
 1084 00a6 04       		.uleb128 0x4
 1085 00a7 08       		.byte	0x8
 1086 00a8 07       		.byte	0x7
 1087 00a9 41020000 		.4byte	.LASF14
 1088 00ad 03       		.uleb128 0x3
 1089 00ae BA010000 		.4byte	.LASF15
 1090 00b2 04       		.byte	0x4
 1091 00b3 2A       		.byte	0x2a
 1092 00b4 45000000 		.4byte	0x45
 1093 00b8 03       		.uleb128 0x3
 1094 00b9 44030000 		.4byte	.LASF16
 1095 00bd 04       		.byte	0x4
 1096 00be 36       		.byte	0x36
 1097 00bf 5E000000 		.4byte	0x5e
 1098 00c3 03       		.uleb128 0x3
 1099 00c4 B4030000 		.4byte	.LASF17
 1100 00c8 04       		.byte	0x4
 1101 00c9 41       		.byte	0x41
 1102 00ca 70000000 		.4byte	0x70
 1103 00ce 03       		.uleb128 0x3
ARM GAS  /tmp/cc0Aowt3.s 			page 39


 1104 00cf 2E030000 		.4byte	.LASF18
 1105 00d3 04       		.byte	0x4
 1106 00d4 42       		.byte	0x42
 1107 00d5 82000000 		.4byte	0x82
 1108 00d9 03       		.uleb128 0x3
 1109 00da E5000000 		.4byte	.LASF19
 1110 00de 04       		.byte	0x4
 1111 00df 4E       		.byte	0x4e
 1112 00e0 9B000000 		.4byte	0x9b
 1113 00e4 03       		.uleb128 0x3
 1114 00e5 77010000 		.4byte	.LASF20
 1115 00e9 05       		.byte	0x5
 1116 00ea 3C       		.byte	0x3c
 1117 00eb AD000000 		.4byte	0xad
 1118 00ef 03       		.uleb128 0x3
 1119 00f0 00040000 		.4byte	.LASF21
 1120 00f4 05       		.byte	0x5
 1121 00f5 3D       		.byte	0x3d
 1122 00f6 AD000000 		.4byte	0xad
 1123 00fa 03       		.uleb128 0x3
 1124 00fb 09000000 		.4byte	.LASF22
 1125 00ff 05       		.byte	0x5
 1126 0100 3E       		.byte	0x3e
 1127 0101 AD000000 		.4byte	0xad
 1128 0105 03       		.uleb128 0x3
 1129 0106 58020000 		.4byte	.LASF23
 1130 010a 05       		.byte	0x5
 1131 010b 40       		.byte	0x40
 1132 010c CE000000 		.4byte	0xce
 1133 0110 03       		.uleb128 0x3
 1134 0111 0C050000 		.4byte	.LASF24
 1135 0115 05       		.byte	0x5
 1136 0116 41       		.byte	0x41
 1137 0117 C3000000 		.4byte	0xc3
 1138 011b 03       		.uleb128 0x3
 1139 011c 6B010000 		.4byte	.LASF25
 1140 0120 05       		.byte	0x5
 1141 0121 43       		.byte	0x43
 1142 0122 CE000000 		.4byte	0xce
 1143 0126 03       		.uleb128 0x3
 1144 0127 BC030000 		.4byte	.LASF26
 1145 012b 05       		.byte	0x5
 1146 012c 45       		.byte	0x45
 1147 012d C3000000 		.4byte	0xc3
 1148 0131 03       		.uleb128 0x3
 1149 0132 86030000 		.4byte	.LASF27
 1150 0136 06       		.byte	0x6
 1151 0137 35       		.byte	0x35
 1152 0138 B8000000 		.4byte	0xb8
 1153 013c 03       		.uleb128 0x3
 1154 013d 00000000 		.4byte	.LASF28
 1155 0141 06       		.byte	0x6
 1156 0142 3F       		.byte	0x3f
 1157 0143 47010000 		.4byte	0x147
 1158 0147 05       		.uleb128 0x5
 1159 0148 11020000 		.4byte	.LASF46
 1160 014c 44       		.byte	0x44
ARM GAS  /tmp/cc0Aowt3.s 			page 40


 1161 014d 07       		.byte	0x7
 1162 014e 9A       		.byte	0x9a
 1163 014f 25020000 		.4byte	0x225
 1164 0153 06       		.uleb128 0x6
 1165 0154 B1020000 		.4byte	.LASF29
 1166 0158 07       		.byte	0x7
 1167 0159 9B       		.byte	0x9b
 1168 015a 5A020000 		.4byte	0x25a
 1169 015e 00       		.byte	0
 1170 015f 06       		.uleb128 0x6
 1171 0160 12050000 		.4byte	.LASF30
 1172 0164 07       		.byte	0x7
 1173 0165 9C       		.byte	0x9c
 1174 0166 05010000 		.4byte	0x105
 1175 016a 08       		.byte	0x8
 1176 016b 07       		.uleb128 0x7
 1177 016c 63747800 		.ascii	"ctx\000"
 1178 0170 07       		.byte	0x7
 1179 0171 9D       		.byte	0x9d
 1180 0172 46040000 		.4byte	0x446
 1181 0176 0C       		.byte	0xc
 1182 0177 06       		.uleb128 0x6
 1183 0178 AB020000 		.4byte	.LASF31
 1184 017c 07       		.byte	0x7
 1185 017d 9F       		.byte	0x9f
 1186 017e 30020000 		.4byte	0x230
 1187 0182 10       		.byte	0x10
 1188 0183 06       		.uleb128 0x6
 1189 0184 1B020000 		.4byte	.LASF32
 1190 0188 07       		.byte	0x7
 1191 0189 A0       		.byte	0xa0
 1192 018a 30020000 		.4byte	0x230
 1193 018e 14       		.byte	0x14
 1194 018f 06       		.uleb128 0x6
 1195 0190 B7020000 		.4byte	.LASF33
 1196 0194 07       		.byte	0x7
 1197 0195 A7       		.byte	0xa7
 1198 0196 AB050000 		.4byte	0x5ab
 1199 019a 18       		.byte	0x18
 1200 019b 06       		.uleb128 0x6
 1201 019c 21020000 		.4byte	.LASF34
 1202 01a0 07       		.byte	0x7
 1203 01a1 B0       		.byte	0xb0
 1204 01a2 BD050000 		.4byte	0x5bd
 1205 01a6 1C       		.byte	0x1c
 1206 01a7 06       		.uleb128 0x6
 1207 01a8 DF000000 		.4byte	.LASF35
 1208 01ac 07       		.byte	0x7
 1209 01ad B5       		.byte	0xb5
 1210 01ae EF000000 		.4byte	0xef
 1211 01b2 20       		.byte	0x20
 1212 01b3 06       		.uleb128 0x6
 1213 01b4 28030000 		.4byte	.LASF36
 1214 01b8 07       		.byte	0x7
 1215 01b9 B9       		.byte	0xb9
 1216 01ba E4000000 		.4byte	0xe4
 1217 01be 21       		.byte	0x21
ARM GAS  /tmp/cc0Aowt3.s 			page 41


 1218 01bf 06       		.uleb128 0x6
 1219 01c0 E6030000 		.4byte	.LASF37
 1220 01c4 07       		.byte	0x7
 1221 01c5 BE       		.byte	0xbe
 1222 01c6 FA000000 		.4byte	0xfa
 1223 01ca 22       		.byte	0x22
 1224 01cb 08       		.uleb128 0x8
 1225 01cc 7500     		.ascii	"u\000"
 1226 01ce 07       		.byte	0x7
 1227 01cf 0F01     		.2byte	0x10f
 1228 01d1 E0040000 		.4byte	0x4e0
 1229 01d5 24       		.byte	0x24
 1230 01d6 09       		.uleb128 0x9
 1231 01d7 C6040000 		.4byte	.LASF38
 1232 01db 07       		.byte	0x7
 1233 01dc 1401     		.2byte	0x114
 1234 01de 36020000 		.4byte	0x236
 1235 01e2 28       		.byte	0x28
 1236 01e3 09       		.uleb128 0x9
 1237 01e4 A2010000 		.4byte	.LASF39
 1238 01e8 07       		.byte	0x7
 1239 01e9 1A01     		.2byte	0x11a
 1240 01eb 5A020000 		.4byte	0x25a
 1241 01ef 2C       		.byte	0x2c
 1242 01f0 09       		.uleb128 0x9
 1243 01f1 33000000 		.4byte	.LASF40
 1244 01f5 07       		.byte	0x7
 1245 01f6 2001     		.2byte	0x120
 1246 01f8 1B010000 		.4byte	0x11b
 1247 01fc 34       		.byte	0x34
 1248 01fd 09       		.uleb128 0x9
 1249 01fe 73040000 		.4byte	.LASF41
 1250 0202 07       		.byte	0x7
 1251 0203 2701     		.2byte	0x127
 1252 0205 A5050000 		.4byte	0x5a5
 1253 0209 38       		.byte	0x38
 1254 020a 09       		.uleb128 0x9
 1255 020b C2030000 		.4byte	.LASF42
 1256 020f 07       		.byte	0x7
 1257 0210 2B01     		.2byte	0x12b
 1258 0212 05010000 		.4byte	0x105
 1259 0216 3C       		.byte	0x3c
 1260 0217 09       		.uleb128 0x9
 1261 0218 8F040000 		.4byte	.LASF43
 1262 021c 07       		.byte	0x7
 1263 021d 3201     		.2byte	0x132
 1264 021f 0D030000 		.4byte	0x30d
 1265 0223 40       		.byte	0x40
 1266 0224 00       		.byte	0
 1267 0225 03       		.uleb128 0x3
 1268 0226 59040000 		.4byte	.LASF44
 1269 022a 06       		.byte	0x6
 1270 022b 44       		.byte	0x44
 1271 022c 30020000 		.4byte	0x230
 1272 0230 0A       		.uleb128 0xa
 1273 0231 04       		.byte	0x4
 1274 0232 3C010000 		.4byte	0x13c
ARM GAS  /tmp/cc0Aowt3.s 			page 42


 1275 0236 03       		.uleb128 0x3
 1276 0237 23050000 		.4byte	.LASF45
 1277 023b 06       		.byte	0x6
 1278 023c 49       		.byte	0x49
 1279 023d 41020000 		.4byte	0x241
 1280 0241 05       		.uleb128 0x5
 1281 0242 7F010000 		.4byte	.LASF47
 1282 0246 04       		.byte	0x4
 1283 0247 07       		.byte	0x7
 1284 0248 88       		.byte	0x88
 1285 0249 5A020000 		.4byte	0x25a
 1286 024d 06       		.uleb128 0x6
 1287 024e 17050000 		.4byte	.LASF48
 1288 0252 07       		.byte	0x7
 1289 0253 89       		.byte	0x89
 1290 0254 30020000 		.4byte	0x230
 1291 0258 00       		.byte	0
 1292 0259 00       		.byte	0
 1293 025a 03       		.uleb128 0x3
 1294 025b 63030000 		.4byte	.LASF49
 1295 025f 06       		.byte	0x6
 1296 0260 50       		.byte	0x50
 1297 0261 65020000 		.4byte	0x265
 1298 0265 05       		.uleb128 0x5
 1299 0266 C2010000 		.4byte	.LASF50
 1300 026a 08       		.byte	0x8
 1301 026b 07       		.byte	0x7
 1302 026c 8F       		.byte	0x8f
 1303 026d 8A020000 		.4byte	0x28a
 1304 0271 06       		.uleb128 0x6
 1305 0272 17050000 		.4byte	.LASF48
 1306 0276 07       		.byte	0x7
 1307 0277 90       		.byte	0x90
 1308 0278 30020000 		.4byte	0x230
 1309 027c 00       		.byte	0
 1310 027d 06       		.uleb128 0x6
 1311 027e E9040000 		.4byte	.LASF51
 1312 0282 07       		.byte	0x7
 1313 0283 91       		.byte	0x91
 1314 0284 30020000 		.4byte	0x230
 1315 0288 04       		.byte	0x4
 1316 0289 00       		.byte	0
 1317 028a 03       		.uleb128 0x3
 1318 028b 9E040000 		.4byte	.LASF52
 1319 028f 06       		.byte	0x6
 1320 0290 57       		.byte	0x57
 1321 0291 95020000 		.4byte	0x295
 1322 0295 0B       		.uleb128 0xb
 1323 0296 CE040000 		.4byte	.LASF53
 1324 029a 1C       		.byte	0x1c
 1325 029b 07       		.byte	0x7
 1326 029c 6A01     		.2byte	0x16a
 1327 029e F1020000 		.4byte	0x2f1
 1328 02a2 09       		.uleb128 0x9
 1329 02a3 B1020000 		.4byte	.LASF29
 1330 02a7 07       		.byte	0x7
 1331 02a8 6B01     		.2byte	0x16b
ARM GAS  /tmp/cc0Aowt3.s 			page 43


 1332 02aa 5A020000 		.4byte	0x25a
 1333 02ae 00       		.byte	0
 1334 02af 09       		.uleb128 0x9
 1335 02b0 12050000 		.4byte	.LASF30
 1336 02b4 07       		.byte	0x7
 1337 02b5 6C01     		.2byte	0x16c
 1338 02b7 05010000 		.4byte	0x105
 1339 02bb 08       		.byte	0x8
 1340 02bc 08       		.uleb128 0x8
 1341 02bd 63747800 		.ascii	"ctx\000"
 1342 02c1 07       		.byte	0x7
 1343 02c2 6E01     		.2byte	0x16e
 1344 02c4 46040000 		.4byte	0x446
 1345 02c8 0C       		.byte	0xc
 1346 02c9 09       		.uleb128 0x9
 1347 02ca AB020000 		.4byte	.LASF31
 1348 02ce 07       		.byte	0x7
 1349 02cf 7101     		.2byte	0x171
 1350 02d1 30020000 		.4byte	0x230
 1351 02d5 10       		.byte	0x10
 1352 02d6 09       		.uleb128 0x9
 1353 02d7 1B020000 		.4byte	.LASF32
 1354 02db 07       		.byte	0x7
 1355 02dc 7201     		.2byte	0x172
 1356 02de 30020000 		.4byte	0x230
 1357 02e2 14       		.byte	0x14
 1358 02e3 09       		.uleb128 0x9
 1359 02e4 BE040000 		.4byte	.LASF54
 1360 02e8 07       		.byte	0x7
 1361 02e9 7501     		.2byte	0x175
 1362 02eb 30020000 		.4byte	0x230
 1363 02ef 18       		.byte	0x18
 1364 02f0 00       		.byte	0
 1365 02f1 03       		.uleb128 0x3
 1366 02f2 95040000 		.4byte	.LASF55
 1367 02f6 06       		.byte	0x6
 1368 02f7 5C       		.byte	0x5c
 1369 02f8 FC020000 		.4byte	0x2fc
 1370 02fc 0A       		.uleb128 0xa
 1371 02fd 04       		.byte	0x4
 1372 02fe 02030000 		.4byte	0x302
 1373 0302 0C       		.uleb128 0xc
 1374 0303 0D030000 		.4byte	0x30d
 1375 0307 0D       		.uleb128 0xd
 1376 0308 0D030000 		.4byte	0x30d
 1377 030c 00       		.byte	0
 1378 030d 0E       		.uleb128 0xe
 1379 030e 04       		.byte	0x4
 1380 030f 03       		.uleb128 0x3
 1381 0310 80020000 		.4byte	.LASF56
 1382 0314 06       		.byte	0x6
 1383 0315 61       		.byte	0x61
 1384 0316 1A030000 		.4byte	0x31a
 1385 031a 0B       		.uleb128 0xb
 1386 031b A3030000 		.4byte	.LASF57
 1387 031f 14       		.byte	0x14
 1388 0320 07       		.byte	0x7
ARM GAS  /tmp/cc0Aowt3.s 			page 44


 1389 0321 4501     		.2byte	0x145
 1390 0323 69030000 		.4byte	0x369
 1391 0327 09       		.uleb128 0x9
 1392 0328 17050000 		.4byte	.LASF48
 1393 032c 07       		.byte	0x7
 1394 032d 4601     		.2byte	0x146
 1395 032f C3050000 		.4byte	0x5c3
 1396 0333 00       		.byte	0
 1397 0334 09       		.uleb128 0x9
 1398 0335 E9040000 		.4byte	.LASF51
 1399 0339 07       		.byte	0x7
 1400 033a 4701     		.2byte	0x147
 1401 033c C3050000 		.4byte	0x5c3
 1402 0340 04       		.byte	0x4
 1403 0341 09       		.uleb128 0x9
 1404 0342 B4010000 		.4byte	.LASF58
 1405 0346 07       		.byte	0x7
 1406 0347 4801     		.2byte	0x148
 1407 0349 31010000 		.4byte	0x131
 1408 034d 08       		.byte	0x8
 1409 034e 09       		.uleb128 0x9
 1410 034f 2E020000 		.4byte	.LASF59
 1411 0353 07       		.byte	0x7
 1412 0354 4901     		.2byte	0x149
 1413 0356 F1020000 		.4byte	0x2f1
 1414 035a 0C       		.byte	0xc
 1415 035b 08       		.uleb128 0x8
 1416 035c 70617200 		.ascii	"par\000"
 1417 0360 07       		.byte	0x7
 1418 0361 4B01     		.2byte	0x14b
 1419 0363 0D030000 		.4byte	0x30d
 1420 0367 10       		.byte	0x10
 1421 0368 00       		.byte	0
 1422 0369 03       		.uleb128 0x3
 1423 036a 4D030000 		.4byte	.LASF60
 1424 036e 06       		.byte	0x6
 1425 036f 66       		.byte	0x66
 1426 0370 74030000 		.4byte	0x374
 1427 0374 0B       		.uleb128 0xb
 1428 0375 EE040000 		.4byte	.LASF61
 1429 0379 0C       		.byte	0xc
 1430 037a 07       		.byte	0x7
 1431 037b 5501     		.2byte	0x155
 1432 037d B6030000 		.4byte	0x3b6
 1433 0381 09       		.uleb128 0x9
 1434 0382 17050000 		.4byte	.LASF48
 1435 0386 07       		.byte	0x7
 1436 0387 5601     		.2byte	0x156
 1437 0389 C3050000 		.4byte	0x5c3
 1438 038d 00       		.byte	0
 1439 038e 09       		.uleb128 0x9
 1440 038f E9040000 		.4byte	.LASF51
 1441 0393 07       		.byte	0x7
 1442 0394 5801     		.2byte	0x158
 1443 0396 C3050000 		.4byte	0x5c3
 1444 039a 04       		.byte	0x4
 1445 039b 09       		.uleb128 0x9
ARM GAS  /tmp/cc0Aowt3.s 			page 45


 1446 039c B4010000 		.4byte	.LASF58
 1447 03a0 07       		.byte	0x7
 1448 03a1 5A01     		.2byte	0x15a
 1449 03a3 31010000 		.4byte	0x131
 1450 03a7 08       		.byte	0x8
 1451 03a8 09       		.uleb128 0x9
 1452 03a9 EB030000 		.4byte	.LASF62
 1453 03ad 07       		.byte	0x7
 1454 03ae 6201     		.2byte	0x162
 1455 03b0 31010000 		.4byte	0x131
 1456 03b4 0A       		.byte	0xa
 1457 03b5 00       		.byte	0
 1458 03b6 03       		.uleb128 0x3
 1459 03b7 13010000 		.4byte	.LASF63
 1460 03bb 06       		.byte	0x6
 1461 03bc 6B       		.byte	0x6b
 1462 03bd C1030000 		.4byte	0x3c1
 1463 03c1 0B       		.uleb128 0xb
 1464 03c2 23000000 		.4byte	.LASF64
 1465 03c6 04       		.byte	0x4
 1466 03c7 07       		.byte	0x7
 1467 03c8 7C01     		.2byte	0x17c
 1468 03ca DC030000 		.4byte	0x3dc
 1469 03ce 09       		.uleb128 0x9
 1470 03cf 1B040000 		.4byte	.LASF65
 1471 03d3 07       		.byte	0x7
 1472 03d4 8401     		.2byte	0x184
 1473 03d6 C9050000 		.4byte	0x5c9
 1474 03da 00       		.byte	0
 1475 03db 00       		.byte	0
 1476 03dc 03       		.uleb128 0x3
 1477 03dd 96010000 		.4byte	.LASF66
 1478 03e1 06       		.byte	0x6
 1479 03e2 70       		.byte	0x70
 1480 03e3 E7030000 		.4byte	0x3e7
 1481 03e7 0B       		.uleb128 0xb
 1482 03e8 69020000 		.4byte	.LASF67
 1483 03ec 70       		.byte	0x70
 1484 03ed 07       		.byte	0x7
 1485 03ee 9C01     		.2byte	0x19c
 1486 03f0 29040000 		.4byte	0x429
 1487 03f4 09       		.uleb128 0x9
 1488 03f5 90030000 		.4byte	.LASF68
 1489 03f9 07       		.byte	0x7
 1490 03fa A001     		.2byte	0x1a0
 1491 03fc 8A020000 		.4byte	0x28a
 1492 0400 00       		.byte	0
 1493 0401 09       		.uleb128 0x9
 1494 0402 8F010000 		.4byte	.LASF69
 1495 0406 07       		.byte	0x7
 1496 0407 A401     		.2byte	0x1a4
 1497 0409 69030000 		.4byte	0x369
 1498 040d 1C       		.byte	0x1c
 1499 040e 08       		.uleb128 0x8
 1500 040f 64626700 		.ascii	"dbg\000"
 1501 0413 07       		.byte	0x7
 1502 0414 A801     		.2byte	0x1a8
ARM GAS  /tmp/cc0Aowt3.s 			page 46


 1503 0416 B6030000 		.4byte	0x3b6
 1504 041a 28       		.byte	0x28
 1505 041b 09       		.uleb128 0x9
 1506 041c EE000000 		.4byte	.LASF70
 1507 0420 07       		.byte	0x7
 1508 0421 AC01     		.2byte	0x1ac
 1509 0423 3C010000 		.4byte	0x13c
 1510 0427 2C       		.byte	0x2c
 1511 0428 00       		.byte	0
 1512 0429 04       		.uleb128 0x4
 1513 042a 04       		.byte	0x4
 1514 042b 07       		.byte	0x7
 1515 042c 0A010000 		.4byte	.LASF71
 1516 0430 03       		.uleb128 0x3
 1517 0431 AB010000 		.4byte	.LASF72
 1518 0435 08       		.byte	0x8
 1519 0436 65       		.byte	0x65
 1520 0437 0D030000 		.4byte	0x30d
 1521 043b 03       		.uleb128 0x3
 1522 043c 7B040000 		.4byte	.LASF73
 1523 0440 08       		.byte	0x8
 1524 0441 6D       		.byte	0x6d
 1525 0442 D9000000 		.4byte	0xd9
 1526 0446 05       		.uleb128 0x5
 1527 0447 73020000 		.4byte	.LASF74
 1528 044b 04       		.byte	0x4
 1529 044c 08       		.byte	0x8
 1530 044d 89       		.byte	0x89
 1531 044e 5E040000 		.4byte	0x45e
 1532 0452 07       		.uleb128 0x7
 1533 0453 737000   		.ascii	"sp\000"
 1534 0456 08       		.byte	0x8
 1535 0457 8A       		.byte	0x8a
 1536 0458 DA040000 		.4byte	0x4da
 1537 045c 00       		.byte	0
 1538 045d 00       		.byte	0
 1539 045e 0B       		.uleb128 0xb
 1540 045f 43040000 		.4byte	.LASF75
 1541 0463 24       		.byte	0x24
 1542 0464 09       		.byte	0x9
 1543 0465 5901     		.2byte	0x159
 1544 0467 DA040000 		.4byte	0x4da
 1545 046b 08       		.uleb128 0x8
 1546 046c 723400   		.ascii	"r4\000"
 1547 046f 09       		.byte	0x9
 1548 0470 6C01     		.2byte	0x16c
 1549 0472 30040000 		.4byte	0x430
 1550 0476 00       		.byte	0
 1551 0477 08       		.uleb128 0x8
 1552 0478 723500   		.ascii	"r5\000"
 1553 047b 09       		.byte	0x9
 1554 047c 6D01     		.2byte	0x16d
 1555 047e 30040000 		.4byte	0x430
 1556 0482 04       		.byte	0x4
 1557 0483 08       		.uleb128 0x8
 1558 0484 723600   		.ascii	"r6\000"
 1559 0487 09       		.byte	0x9
ARM GAS  /tmp/cc0Aowt3.s 			page 47


 1560 0488 6E01     		.2byte	0x16e
 1561 048a 30040000 		.4byte	0x430
 1562 048e 08       		.byte	0x8
 1563 048f 08       		.uleb128 0x8
 1564 0490 723700   		.ascii	"r7\000"
 1565 0493 09       		.byte	0x9
 1566 0494 6F01     		.2byte	0x16f
 1567 0496 30040000 		.4byte	0x430
 1568 049a 0C       		.byte	0xc
 1569 049b 08       		.uleb128 0x8
 1570 049c 723800   		.ascii	"r8\000"
 1571 049f 09       		.byte	0x9
 1572 04a0 7001     		.2byte	0x170
 1573 04a2 30040000 		.4byte	0x430
 1574 04a6 10       		.byte	0x10
 1575 04a7 08       		.uleb128 0x8
 1576 04a8 723900   		.ascii	"r9\000"
 1577 04ab 09       		.byte	0x9
 1578 04ac 7101     		.2byte	0x171
 1579 04ae 30040000 		.4byte	0x430
 1580 04b2 14       		.byte	0x14
 1581 04b3 08       		.uleb128 0x8
 1582 04b4 72313000 		.ascii	"r10\000"
 1583 04b8 09       		.byte	0x9
 1584 04b9 7201     		.2byte	0x172
 1585 04bb 30040000 		.4byte	0x430
 1586 04bf 18       		.byte	0x18
 1587 04c0 08       		.uleb128 0x8
 1588 04c1 72313100 		.ascii	"r11\000"
 1589 04c5 09       		.byte	0x9
 1590 04c6 7301     		.2byte	0x173
 1591 04c8 30040000 		.4byte	0x430
 1592 04cc 1C       		.byte	0x1c
 1593 04cd 08       		.uleb128 0x8
 1594 04ce 6C7200   		.ascii	"lr\000"
 1595 04d1 09       		.byte	0x9
 1596 04d2 7401     		.2byte	0x174
 1597 04d4 30040000 		.4byte	0x430
 1598 04d8 20       		.byte	0x20
 1599 04d9 00       		.byte	0
 1600 04da 0A       		.uleb128 0xa
 1601 04db 04       		.byte	0x4
 1602 04dc 5E040000 		.4byte	0x45e
 1603 04e0 0F       		.uleb128 0xf
 1604 04e1 04       		.byte	0x4
 1605 04e2 07       		.byte	0x7
 1606 04e3 D2       		.byte	0xd2
 1607 04e4 43050000 		.4byte	0x543
 1608 04e8 10       		.uleb128 0x10
 1609 04e9 05050000 		.4byte	.LASF76
 1610 04ed 07       		.byte	0x7
 1611 04ee D9       		.byte	0xd9
 1612 04ef 10010000 		.4byte	0x110
 1613 04f3 10       		.uleb128 0x10
 1614 04f4 86040000 		.4byte	.LASF77
 1615 04f8 07       		.byte	0x7
 1616 04f9 E0       		.byte	0xe0
ARM GAS  /tmp/cc0Aowt3.s 			page 48


 1617 04fa 10010000 		.4byte	0x110
 1618 04fe 10       		.uleb128 0x10
 1619 04ff 6C040000 		.4byte	.LASF78
 1620 0503 07       		.byte	0x7
 1621 0504 E7       		.byte	0xe7
 1622 0505 0D030000 		.4byte	0x30d
 1623 0509 10       		.uleb128 0x10
 1624 050a 30040000 		.4byte	.LASF79
 1625 050e 07       		.byte	0x7
 1626 050f EE       		.byte	0xee
 1627 0510 43050000 		.4byte	0x543
 1628 0514 10       		.uleb128 0x10
 1629 0515 9A020000 		.4byte	.LASF80
 1630 0519 07       		.byte	0x7
 1631 051a F3       		.byte	0xf3
 1632 051b 10010000 		.4byte	0x110
 1633 051f 10       		.uleb128 0x10
 1634 0520 4C010000 		.4byte	.LASF81
 1635 0524 07       		.byte	0x7
 1636 0525 FC       		.byte	0xfc
 1637 0526 6E050000 		.4byte	0x56e
 1638 052a 11       		.uleb128 0x11
 1639 052b 1C050000 		.4byte	.LASF82
 1640 052f 07       		.byte	0x7
 1641 0530 0501     		.2byte	0x105
 1642 0532 A5050000 		.4byte	0x5a5
 1643 0536 11       		.uleb128 0x11
 1644 0537 15030000 		.4byte	.LASF83
 1645 053b 07       		.byte	0x7
 1646 053c 0D01     		.2byte	0x10d
 1647 053e 1B010000 		.4byte	0x11b
 1648 0542 00       		.byte	0
 1649 0543 0A       		.uleb128 0xa
 1650 0544 04       		.byte	0x4
 1651 0545 25020000 		.4byte	0x225
 1652 0549 05       		.uleb128 0x5
 1653 054a 36040000 		.4byte	.LASF84
 1654 054e 0C       		.byte	0xc
 1655 054f 0A       		.byte	0xa
 1656 0550 34       		.byte	0x34
 1657 0551 6E050000 		.4byte	0x56e
 1658 0555 06       		.uleb128 0x6
 1659 0556 B1020000 		.4byte	.LASF29
 1660 055a 0A       		.byte	0xa
 1661 055b 35       		.byte	0x35
 1662 055c 5A020000 		.4byte	0x25a
 1663 0560 00       		.byte	0
 1664 0561 07       		.uleb128 0x7
 1665 0562 636E7400 		.ascii	"cnt\000"
 1666 0566 0A       		.byte	0xa
 1667 0567 37       		.byte	0x37
 1668 0568 26010000 		.4byte	0x126
 1669 056c 08       		.byte	0x8
 1670 056d 00       		.byte	0
 1671 056e 0A       		.uleb128 0xa
 1672 056f 04       		.byte	0x4
 1673 0570 49050000 		.4byte	0x549
ARM GAS  /tmp/cc0Aowt3.s 			page 49


 1674 0574 05       		.uleb128 0x5
 1675 0575 DE010000 		.4byte	.LASF85
 1676 0579 10       		.byte	0x10
 1677 057a 0B       		.byte	0xb
 1678 057b 39       		.byte	0x39
 1679 057c A5050000 		.4byte	0x5a5
 1680 0580 06       		.uleb128 0x6
 1681 0581 B1020000 		.4byte	.LASF29
 1682 0585 0B       		.byte	0xb
 1683 0586 3A       		.byte	0x3a
 1684 0587 5A020000 		.4byte	0x25a
 1685 058b 00       		.byte	0
 1686 058c 06       		.uleb128 0x6
 1687 058d E4020000 		.4byte	.LASF86
 1688 0591 0B       		.byte	0xb
 1689 0592 3C       		.byte	0x3c
 1690 0593 30020000 		.4byte	0x230
 1691 0597 08       		.byte	0x8
 1692 0598 06       		.uleb128 0x6
 1693 0599 17050000 		.4byte	.LASF48
 1694 059d 0B       		.byte	0xb
 1695 059e 3E       		.byte	0x3e
 1696 059f D9050000 		.4byte	0x5d9
 1697 05a3 0C       		.byte	0xc
 1698 05a4 00       		.byte	0
 1699 05a5 0A       		.uleb128 0xa
 1700 05a6 04       		.byte	0x4
 1701 05a7 74050000 		.4byte	0x574
 1702 05ab 0A       		.uleb128 0xa
 1703 05ac 04       		.byte	0x4
 1704 05ad B1050000 		.4byte	0x5b1
 1705 05b1 12       		.uleb128 0x12
 1706 05b2 B6050000 		.4byte	0x5b6
 1707 05b6 04       		.uleb128 0x4
 1708 05b7 01       		.byte	0x1
 1709 05b8 08       		.byte	0x8
 1710 05b9 96030000 		.4byte	.LASF87
 1711 05bd 0A       		.uleb128 0xa
 1712 05be 04       		.byte	0x4
 1713 05bf 3B040000 		.4byte	0x43b
 1714 05c3 0A       		.uleb128 0xa
 1715 05c4 04       		.byte	0x4
 1716 05c5 0F030000 		.4byte	0x30f
 1717 05c9 13       		.uleb128 0x13
 1718 05ca AB050000 		.4byte	0x5ab
 1719 05ce 03       		.uleb128 0x3
 1720 05cf 9B030000 		.4byte	.LASF88
 1721 05d3 0B       		.byte	0xb
 1722 05d4 34       		.byte	0x34
 1723 05d5 74050000 		.4byte	0x574
 1724 05d9 0A       		.uleb128 0xa
 1725 05da 04       		.byte	0x4
 1726 05db CE050000 		.4byte	0x5ce
 1727 05df 04       		.uleb128 0x4
 1728 05e0 01       		.byte	0x1
 1729 05e1 02       		.byte	0x2
 1730 05e2 CB030000 		.4byte	.LASF89
ARM GAS  /tmp/cc0Aowt3.s 			page 50


 1731 05e6 0A       		.uleb128 0xa
 1732 05e7 04       		.byte	0x4
 1733 05e8 EC050000 		.4byte	0x5ec
 1734 05ec 14       		.uleb128 0x14
 1735 05ed 15       		.uleb128 0x15
 1736 05ee 10       		.byte	0x10
 1737 05ef 0C       		.byte	0xc
 1738 05f0 3D       		.byte	0x3d
 1739 05f1 26060000 		.4byte	0x626
 1740 05f5 06       		.uleb128 0x6
 1741 05f6 B7020000 		.4byte	.LASF33
 1742 05fa 0C       		.byte	0xc
 1743 05fb 3E       		.byte	0x3e
 1744 05fc AB050000 		.4byte	0x5ab
 1745 0600 00       		.byte	0
 1746 0601 06       		.uleb128 0x6
 1747 0602 28020000 		.4byte	.LASF90
 1748 0606 0C       		.byte	0xc
 1749 0607 3F       		.byte	0x3f
 1750 0608 E6050000 		.4byte	0x5e6
 1751 060c 04       		.byte	0x4
 1752 060d 06       		.uleb128 0x6
 1753 060e A2020000 		.4byte	.LASF91
 1754 0612 0C       		.byte	0xc
 1755 0613 40       		.byte	0x40
 1756 0614 E6050000 		.4byte	0x5e6
 1757 0618 08       		.byte	0x8
 1758 0619 06       		.uleb128 0x6
 1759 061a B6040000 		.4byte	.LASF92
 1760 061e 0C       		.byte	0xc
 1761 061f 41       		.byte	0x41
 1762 0620 E6050000 		.4byte	0x5e6
 1763 0624 0C       		.byte	0xc
 1764 0625 00       		.byte	0
 1765 0626 03       		.uleb128 0x3
 1766 0627 AB040000 		.4byte	.LASF93
 1767 062b 0C       		.byte	0xc
 1768 062c 42       		.byte	0x42
 1769 062d ED050000 		.4byte	0x5ed
 1770 0631 16       		.uleb128 0x16
 1771 0632 22010000 		.4byte	.LASF94
 1772 0636 01       		.byte	0x1
 1773 0637 65       		.byte	0x65
 1774 0638 00000000 		.4byte	.LFB220
 1775 063c 4C030000 		.4byte	.LFE220-.LFB220
 1776 0640 01       		.uleb128 0x1
 1777 0641 9C       		.byte	0x9c
 1778 0642 950E0000 		.4byte	0xe95
 1779 0646 17       		.uleb128 0x17
 1780 0647 22000000 		.4byte	.LVL0
 1781 064b 62100000 		.4byte	0x1062
 1782 064f 5D060000 		.4byte	0x65d
 1783 0653 18       		.uleb128 0x18
 1784 0654 01       		.uleb128 0x1
 1785 0655 50       		.byte	0x50
 1786 0656 05       		.uleb128 0x5
 1787 0657 03       		.byte	0x3
ARM GAS  /tmp/cc0Aowt3.s 			page 51


 1788 0658 00000000 		.4byte	.LC0
 1789 065c 00       		.byte	0
 1790 065d 17       		.uleb128 0x17
 1791 065e 28000000 		.4byte	.LVL1
 1792 0662 73100000 		.4byte	0x1073
 1793 0666 70060000 		.4byte	0x670
 1794 066a 18       		.uleb128 0x18
 1795 066b 01       		.uleb128 0x1
 1796 066c 50       		.byte	0x50
 1797 066d 01       		.uleb128 0x1
 1798 066e 40       		.byte	0x40
 1799 066f 00       		.byte	0
 1800 0670 17       		.uleb128 0x17
 1801 0671 2E000000 		.4byte	.LVL2
 1802 0675 84100000 		.4byte	0x1084
 1803 0679 84060000 		.4byte	0x684
 1804 067d 18       		.uleb128 0x18
 1805 067e 01       		.uleb128 0x1
 1806 067f 50       		.byte	0x50
 1807 0680 02       		.uleb128 0x2
 1808 0681 74       		.byte	0x74
 1809 0682 00       		.sleb128 0
 1810 0683 00       		.byte	0
 1811 0684 17       		.uleb128 0x17
 1812 0685 3A000000 		.4byte	.LVL3
 1813 0689 62100000 		.4byte	0x1062
 1814 068d 9B060000 		.4byte	0x69b
 1815 0691 18       		.uleb128 0x18
 1816 0692 01       		.uleb128 0x1
 1817 0693 50       		.byte	0x50
 1818 0694 05       		.uleb128 0x5
 1819 0695 03       		.byte	0x3
 1820 0696 24000000 		.4byte	.LC2
 1821 069a 00       		.byte	0
 1822 069b 17       		.uleb128 0x17
 1823 069c 42000000 		.4byte	.LVL4
 1824 06a0 73100000 		.4byte	0x1073
 1825 06a4 B0060000 		.4byte	0x6b0
 1826 06a8 18       		.uleb128 0x18
 1827 06a9 01       		.uleb128 0x1
 1828 06aa 50       		.byte	0x50
 1829 06ab 03       		.uleb128 0x3
 1830 06ac 0A       		.byte	0xa
 1831 06ad E803     		.2byte	0x3e8
 1832 06af 00       		.byte	0
 1833 06b0 17       		.uleb128 0x17
 1834 06b1 48000000 		.4byte	.LVL5
 1835 06b5 84100000 		.4byte	0x1084
 1836 06b9 C4060000 		.4byte	0x6c4
 1837 06bd 18       		.uleb128 0x18
 1838 06be 01       		.uleb128 0x1
 1839 06bf 50       		.byte	0x50
 1840 06c0 02       		.uleb128 0x2
 1841 06c1 74       		.byte	0x74
 1842 06c2 00       		.sleb128 0
 1843 06c3 00       		.byte	0
 1844 06c4 17       		.uleb128 0x17
ARM GAS  /tmp/cc0Aowt3.s 			page 52


 1845 06c5 54000000 		.4byte	.LVL6
 1846 06c9 62100000 		.4byte	0x1062
 1847 06cd DB060000 		.4byte	0x6db
 1848 06d1 18       		.uleb128 0x18
 1849 06d2 01       		.uleb128 0x1
 1850 06d3 50       		.byte	0x50
 1851 06d4 05       		.uleb128 0x5
 1852 06d5 03       		.byte	0x3
 1853 06d6 44000000 		.4byte	.LC3
 1854 06da 00       		.byte	0
 1855 06db 17       		.uleb128 0x17
 1856 06dc 5A000000 		.4byte	.LVL7
 1857 06e0 73100000 		.4byte	0x1073
 1858 06e4 EE060000 		.4byte	0x6ee
 1859 06e8 18       		.uleb128 0x18
 1860 06e9 01       		.uleb128 0x1
 1861 06ea 50       		.byte	0x50
 1862 06eb 01       		.uleb128 0x1
 1863 06ec 32       		.byte	0x32
 1864 06ed 00       		.byte	0
 1865 06ee 17       		.uleb128 0x17
 1866 06ef 60000000 		.4byte	.LVL8
 1867 06f3 84100000 		.4byte	0x1084
 1868 06f7 02070000 		.4byte	0x702
 1869 06fb 18       		.uleb128 0x18
 1870 06fc 01       		.uleb128 0x1
 1871 06fd 50       		.byte	0x50
 1872 06fe 02       		.uleb128 0x2
 1873 06ff 74       		.byte	0x74
 1874 0700 00       		.sleb128 0
 1875 0701 00       		.byte	0
 1876 0702 17       		.uleb128 0x17
 1877 0703 6C000000 		.4byte	.LVL9
 1878 0707 62100000 		.4byte	0x1062
 1879 070b 19070000 		.4byte	0x719
 1880 070f 18       		.uleb128 0x18
 1881 0710 01       		.uleb128 0x1
 1882 0711 50       		.byte	0x50
 1883 0712 05       		.uleb128 0x5
 1884 0713 03       		.byte	0x3
 1885 0714 64000000 		.4byte	.LC4
 1886 0718 00       		.byte	0
 1887 0719 17       		.uleb128 0x17
 1888 071a 72000000 		.4byte	.LVL10
 1889 071e 73100000 		.4byte	0x1073
 1890 0722 2C070000 		.4byte	0x72c
 1891 0726 18       		.uleb128 0x18
 1892 0727 01       		.uleb128 0x1
 1893 0728 50       		.byte	0x50
 1894 0729 01       		.uleb128 0x1
 1895 072a 30       		.byte	0x30
 1896 072b 00       		.byte	0
 1897 072c 17       		.uleb128 0x17
 1898 072d 78000000 		.4byte	.LVL11
 1899 0731 84100000 		.4byte	0x1084
 1900 0735 40070000 		.4byte	0x740
 1901 0739 18       		.uleb128 0x18
ARM GAS  /tmp/cc0Aowt3.s 			page 53


 1902 073a 01       		.uleb128 0x1
 1903 073b 50       		.byte	0x50
 1904 073c 02       		.uleb128 0x2
 1905 073d 74       		.byte	0x74
 1906 073e 00       		.sleb128 0
 1907 073f 00       		.byte	0
 1908 0740 17       		.uleb128 0x17
 1909 0741 84000000 		.4byte	.LVL12
 1910 0745 62100000 		.4byte	0x1062
 1911 0749 57070000 		.4byte	0x757
 1912 074d 18       		.uleb128 0x18
 1913 074e 01       		.uleb128 0x1
 1914 074f 50       		.byte	0x50
 1915 0750 05       		.uleb128 0x5
 1916 0751 03       		.byte	0x3
 1917 0752 84000000 		.4byte	.LC5
 1918 0756 00       		.byte	0
 1919 0757 17       		.uleb128 0x17
 1920 0758 8A000000 		.4byte	.LVL13
 1921 075c 73100000 		.4byte	0x1073
 1922 0760 6A070000 		.4byte	0x76a
 1923 0764 18       		.uleb128 0x18
 1924 0765 01       		.uleb128 0x1
 1925 0766 50       		.byte	0x50
 1926 0767 01       		.uleb128 0x1
 1927 0768 30       		.byte	0x30
 1928 0769 00       		.byte	0
 1929 076a 17       		.uleb128 0x17
 1930 076b 90000000 		.4byte	.LVL14
 1931 076f 84100000 		.4byte	0x1084
 1932 0773 7E070000 		.4byte	0x77e
 1933 0777 18       		.uleb128 0x18
 1934 0778 01       		.uleb128 0x1
 1935 0779 50       		.byte	0x50
 1936 077a 02       		.uleb128 0x2
 1937 077b 74       		.byte	0x74
 1938 077c 00       		.sleb128 0
 1939 077d 00       		.byte	0
 1940 077e 17       		.uleb128 0x17
 1941 077f 9C000000 		.4byte	.LVL15
 1942 0783 62100000 		.4byte	0x1062
 1943 0787 95070000 		.4byte	0x795
 1944 078b 18       		.uleb128 0x18
 1945 078c 01       		.uleb128 0x1
 1946 078d 50       		.byte	0x50
 1947 078e 05       		.uleb128 0x5
 1948 078f 03       		.byte	0x3
 1949 0790 A4000000 		.4byte	.LC6
 1950 0794 00       		.byte	0
 1951 0795 17       		.uleb128 0x17
 1952 0796 A2000000 		.4byte	.LVL16
 1953 079a 73100000 		.4byte	0x1073
 1954 079e A8070000 		.4byte	0x7a8
 1955 07a2 18       		.uleb128 0x18
 1956 07a3 01       		.uleb128 0x1
 1957 07a4 50       		.byte	0x50
 1958 07a5 01       		.uleb128 0x1
ARM GAS  /tmp/cc0Aowt3.s 			page 54


 1959 07a6 30       		.byte	0x30
 1960 07a7 00       		.byte	0
 1961 07a8 17       		.uleb128 0x17
 1962 07a9 A8000000 		.4byte	.LVL17
 1963 07ad 84100000 		.4byte	0x1084
 1964 07b1 BC070000 		.4byte	0x7bc
 1965 07b5 18       		.uleb128 0x18
 1966 07b6 01       		.uleb128 0x1
 1967 07b7 50       		.byte	0x50
 1968 07b8 02       		.uleb128 0x2
 1969 07b9 74       		.byte	0x74
 1970 07ba 00       		.sleb128 0
 1971 07bb 00       		.byte	0
 1972 07bc 17       		.uleb128 0x17
 1973 07bd B4000000 		.4byte	.LVL18
 1974 07c1 62100000 		.4byte	0x1062
 1975 07c5 D3070000 		.4byte	0x7d3
 1976 07c9 18       		.uleb128 0x18
 1977 07ca 01       		.uleb128 0x1
 1978 07cb 50       		.byte	0x50
 1979 07cc 05       		.uleb128 0x5
 1980 07cd 03       		.byte	0x3
 1981 07ce C4000000 		.4byte	.LC7
 1982 07d2 00       		.byte	0
 1983 07d3 17       		.uleb128 0x17
 1984 07d4 BA000000 		.4byte	.LVL19
 1985 07d8 73100000 		.4byte	0x1073
 1986 07dc E7070000 		.4byte	0x7e7
 1987 07e0 18       		.uleb128 0x18
 1988 07e1 01       		.uleb128 0x1
 1989 07e2 50       		.byte	0x50
 1990 07e3 02       		.uleb128 0x2
 1991 07e4 75       		.byte	0x75
 1992 07e5 00       		.sleb128 0
 1993 07e6 00       		.byte	0
 1994 07e7 17       		.uleb128 0x17
 1995 07e8 C0000000 		.4byte	.LVL20
 1996 07ec 84100000 		.4byte	0x1084
 1997 07f0 FB070000 		.4byte	0x7fb
 1998 07f4 18       		.uleb128 0x18
 1999 07f5 01       		.uleb128 0x1
 2000 07f6 50       		.byte	0x50
 2001 07f7 02       		.uleb128 0x2
 2002 07f8 74       		.byte	0x74
 2003 07f9 00       		.sleb128 0
 2004 07fa 00       		.byte	0
 2005 07fb 17       		.uleb128 0x17
 2006 07fc CC000000 		.4byte	.LVL21
 2007 0800 62100000 		.4byte	0x1062
 2008 0804 12080000 		.4byte	0x812
 2009 0808 18       		.uleb128 0x18
 2010 0809 01       		.uleb128 0x1
 2011 080a 50       		.byte	0x50
 2012 080b 05       		.uleb128 0x5
 2013 080c 03       		.byte	0x3
 2014 080d E4000000 		.4byte	.LC8
 2015 0811 00       		.byte	0
ARM GAS  /tmp/cc0Aowt3.s 			page 55


 2016 0812 17       		.uleb128 0x17
 2017 0813 D2000000 		.4byte	.LVL22
 2018 0817 73100000 		.4byte	0x1073
 2019 081b 25080000 		.4byte	0x825
 2020 081f 18       		.uleb128 0x18
 2021 0820 01       		.uleb128 0x1
 2022 0821 50       		.byte	0x50
 2023 0822 01       		.uleb128 0x1
 2024 0823 30       		.byte	0x30
 2025 0824 00       		.byte	0
 2026 0825 17       		.uleb128 0x17
 2027 0826 D8000000 		.4byte	.LVL23
 2028 082a 84100000 		.4byte	0x1084
 2029 082e 39080000 		.4byte	0x839
 2030 0832 18       		.uleb128 0x18
 2031 0833 01       		.uleb128 0x1
 2032 0834 50       		.byte	0x50
 2033 0835 02       		.uleb128 0x2
 2034 0836 74       		.byte	0x74
 2035 0837 00       		.sleb128 0
 2036 0838 00       		.byte	0
 2037 0839 17       		.uleb128 0x17
 2038 083a E4000000 		.4byte	.LVL24
 2039 083e 62100000 		.4byte	0x1062
 2040 0842 50080000 		.4byte	0x850
 2041 0846 18       		.uleb128 0x18
 2042 0847 01       		.uleb128 0x1
 2043 0848 50       		.byte	0x50
 2044 0849 05       		.uleb128 0x5
 2045 084a 03       		.byte	0x3
 2046 084b 04010000 		.4byte	.LC9
 2047 084f 00       		.byte	0
 2048 0850 17       		.uleb128 0x17
 2049 0851 EA000000 		.4byte	.LVL25
 2050 0855 73100000 		.4byte	0x1073
 2051 0859 64080000 		.4byte	0x864
 2052 085d 18       		.uleb128 0x18
 2053 085e 01       		.uleb128 0x1
 2054 085f 50       		.byte	0x50
 2055 0860 02       		.uleb128 0x2
 2056 0861 75       		.byte	0x75
 2057 0862 00       		.sleb128 0
 2058 0863 00       		.byte	0
 2059 0864 17       		.uleb128 0x17
 2060 0865 F0000000 		.4byte	.LVL26
 2061 0869 84100000 		.4byte	0x1084
 2062 086d 78080000 		.4byte	0x878
 2063 0871 18       		.uleb128 0x18
 2064 0872 01       		.uleb128 0x1
 2065 0873 50       		.byte	0x50
 2066 0874 02       		.uleb128 0x2
 2067 0875 74       		.byte	0x74
 2068 0876 00       		.sleb128 0
 2069 0877 00       		.byte	0
 2070 0878 17       		.uleb128 0x17
 2071 0879 FC000000 		.4byte	.LVL27
 2072 087d 62100000 		.4byte	0x1062
ARM GAS  /tmp/cc0Aowt3.s 			page 56


 2073 0881 8F080000 		.4byte	0x88f
 2074 0885 18       		.uleb128 0x18
 2075 0886 01       		.uleb128 0x1
 2076 0887 50       		.byte	0x50
 2077 0888 05       		.uleb128 0x5
 2078 0889 03       		.byte	0x3
 2079 088a 24010000 		.4byte	.LC10
 2080 088e 00       		.byte	0
 2081 088f 17       		.uleb128 0x17
 2082 0890 02010000 		.4byte	.LVL28
 2083 0894 73100000 		.4byte	0x1073
 2084 0898 A3080000 		.4byte	0x8a3
 2085 089c 18       		.uleb128 0x18
 2086 089d 01       		.uleb128 0x1
 2087 089e 50       		.byte	0x50
 2088 089f 02       		.uleb128 0x2
 2089 08a0 75       		.byte	0x75
 2090 08a1 00       		.sleb128 0
 2091 08a2 00       		.byte	0
 2092 08a3 17       		.uleb128 0x17
 2093 08a4 08010000 		.4byte	.LVL29
 2094 08a8 84100000 		.4byte	0x1084
 2095 08ac B7080000 		.4byte	0x8b7
 2096 08b0 18       		.uleb128 0x18
 2097 08b1 01       		.uleb128 0x1
 2098 08b2 50       		.byte	0x50
 2099 08b3 02       		.uleb128 0x2
 2100 08b4 74       		.byte	0x74
 2101 08b5 00       		.sleb128 0
 2102 08b6 00       		.byte	0
 2103 08b7 17       		.uleb128 0x17
 2104 08b8 14010000 		.4byte	.LVL30
 2105 08bc 62100000 		.4byte	0x1062
 2106 08c0 CE080000 		.4byte	0x8ce
 2107 08c4 18       		.uleb128 0x18
 2108 08c5 01       		.uleb128 0x1
 2109 08c6 50       		.byte	0x50
 2110 08c7 05       		.uleb128 0x5
 2111 08c8 03       		.byte	0x3
 2112 08c9 44010000 		.4byte	.LC11
 2113 08cd 00       		.byte	0
 2114 08ce 17       		.uleb128 0x17
 2115 08cf 1A010000 		.4byte	.LVL31
 2116 08d3 73100000 		.4byte	0x1073
 2117 08d7 E2080000 		.4byte	0x8e2
 2118 08db 18       		.uleb128 0x18
 2119 08dc 01       		.uleb128 0x1
 2120 08dd 50       		.byte	0x50
 2121 08de 02       		.uleb128 0x2
 2122 08df 75       		.byte	0x75
 2123 08e0 00       		.sleb128 0
 2124 08e1 00       		.byte	0
 2125 08e2 17       		.uleb128 0x17
 2126 08e3 20010000 		.4byte	.LVL32
 2127 08e7 84100000 		.4byte	0x1084
 2128 08eb F6080000 		.4byte	0x8f6
 2129 08ef 18       		.uleb128 0x18
ARM GAS  /tmp/cc0Aowt3.s 			page 57


 2130 08f0 01       		.uleb128 0x1
 2131 08f1 50       		.byte	0x50
 2132 08f2 02       		.uleb128 0x2
 2133 08f3 74       		.byte	0x74
 2134 08f4 00       		.sleb128 0
 2135 08f5 00       		.byte	0
 2136 08f6 17       		.uleb128 0x17
 2137 08f7 2C010000 		.4byte	.LVL33
 2138 08fb 62100000 		.4byte	0x1062
 2139 08ff 0D090000 		.4byte	0x90d
 2140 0903 18       		.uleb128 0x18
 2141 0904 01       		.uleb128 0x1
 2142 0905 50       		.byte	0x50
 2143 0906 05       		.uleb128 0x5
 2144 0907 03       		.byte	0x3
 2145 0908 64010000 		.4byte	.LC12
 2146 090c 00       		.byte	0
 2147 090d 17       		.uleb128 0x17
 2148 090e 32010000 		.4byte	.LVL34
 2149 0912 73100000 		.4byte	0x1073
 2150 0916 20090000 		.4byte	0x920
 2151 091a 18       		.uleb128 0x18
 2152 091b 01       		.uleb128 0x1
 2153 091c 50       		.byte	0x50
 2154 091d 01       		.uleb128 0x1
 2155 091e 30       		.byte	0x30
 2156 091f 00       		.byte	0
 2157 0920 17       		.uleb128 0x17
 2158 0921 38010000 		.4byte	.LVL35
 2159 0925 84100000 		.4byte	0x1084
 2160 0929 34090000 		.4byte	0x934
 2161 092d 18       		.uleb128 0x18
 2162 092e 01       		.uleb128 0x1
 2163 092f 50       		.byte	0x50
 2164 0930 02       		.uleb128 0x2
 2165 0931 74       		.byte	0x74
 2166 0932 00       		.sleb128 0
 2167 0933 00       		.byte	0
 2168 0934 17       		.uleb128 0x17
 2169 0935 44010000 		.4byte	.LVL36
 2170 0939 62100000 		.4byte	0x1062
 2171 093d 4B090000 		.4byte	0x94b
 2172 0941 18       		.uleb128 0x18
 2173 0942 01       		.uleb128 0x1
 2174 0943 50       		.byte	0x50
 2175 0944 05       		.uleb128 0x5
 2176 0945 03       		.byte	0x3
 2177 0946 84010000 		.4byte	.LC13
 2178 094a 00       		.byte	0
 2179 094b 17       		.uleb128 0x17
 2180 094c 4A010000 		.4byte	.LVL37
 2181 0950 73100000 		.4byte	0x1073
 2182 0954 5F090000 		.4byte	0x95f
 2183 0958 18       		.uleb128 0x18
 2184 0959 01       		.uleb128 0x1
 2185 095a 50       		.byte	0x50
 2186 095b 02       		.uleb128 0x2
ARM GAS  /tmp/cc0Aowt3.s 			page 58


 2187 095c 75       		.byte	0x75
 2188 095d 00       		.sleb128 0
 2189 095e 00       		.byte	0
 2190 095f 17       		.uleb128 0x17
 2191 0960 50010000 		.4byte	.LVL38
 2192 0964 84100000 		.4byte	0x1084
 2193 0968 73090000 		.4byte	0x973
 2194 096c 18       		.uleb128 0x18
 2195 096d 01       		.uleb128 0x1
 2196 096e 50       		.byte	0x50
 2197 096f 02       		.uleb128 0x2
 2198 0970 74       		.byte	0x74
 2199 0971 00       		.sleb128 0
 2200 0972 00       		.byte	0
 2201 0973 17       		.uleb128 0x17
 2202 0974 5C010000 		.4byte	.LVL39
 2203 0978 62100000 		.4byte	0x1062
 2204 097c 8A090000 		.4byte	0x98a
 2205 0980 18       		.uleb128 0x18
 2206 0981 01       		.uleb128 0x1
 2207 0982 50       		.byte	0x50
 2208 0983 05       		.uleb128 0x5
 2209 0984 03       		.byte	0x3
 2210 0985 A4010000 		.4byte	.LC14
 2211 0989 00       		.byte	0
 2212 098a 17       		.uleb128 0x17
 2213 098b 62010000 		.4byte	.LVL40
 2214 098f 73100000 		.4byte	0x1073
 2215 0993 9D090000 		.4byte	0x99d
 2216 0997 18       		.uleb128 0x18
 2217 0998 01       		.uleb128 0x1
 2218 0999 50       		.byte	0x50
 2219 099a 01       		.uleb128 0x1
 2220 099b 30       		.byte	0x30
 2221 099c 00       		.byte	0
 2222 099d 17       		.uleb128 0x17
 2223 099e 68010000 		.4byte	.LVL41
 2224 09a2 84100000 		.4byte	0x1084
 2225 09a6 B1090000 		.4byte	0x9b1
 2226 09aa 18       		.uleb128 0x18
 2227 09ab 01       		.uleb128 0x1
 2228 09ac 50       		.byte	0x50
 2229 09ad 02       		.uleb128 0x2
 2230 09ae 74       		.byte	0x74
 2231 09af 00       		.sleb128 0
 2232 09b0 00       		.byte	0
 2233 09b1 17       		.uleb128 0x17
 2234 09b2 74010000 		.4byte	.LVL42
 2235 09b6 62100000 		.4byte	0x1062
 2236 09ba C8090000 		.4byte	0x9c8
 2237 09be 18       		.uleb128 0x18
 2238 09bf 01       		.uleb128 0x1
 2239 09c0 50       		.byte	0x50
 2240 09c1 05       		.uleb128 0x5
 2241 09c2 03       		.byte	0x3
 2242 09c3 C4010000 		.4byte	.LC15
 2243 09c7 00       		.byte	0
ARM GAS  /tmp/cc0Aowt3.s 			page 59


 2244 09c8 17       		.uleb128 0x17
 2245 09c9 7A010000 		.4byte	.LVL43
 2246 09cd 73100000 		.4byte	0x1073
 2247 09d1 DC090000 		.4byte	0x9dc
 2248 09d5 18       		.uleb128 0x18
 2249 09d6 01       		.uleb128 0x1
 2250 09d7 50       		.byte	0x50
 2251 09d8 02       		.uleb128 0x2
 2252 09d9 75       		.byte	0x75
 2253 09da 00       		.sleb128 0
 2254 09db 00       		.byte	0
 2255 09dc 17       		.uleb128 0x17
 2256 09dd 80010000 		.4byte	.LVL44
 2257 09e1 84100000 		.4byte	0x1084
 2258 09e5 F0090000 		.4byte	0x9f0
 2259 09e9 18       		.uleb128 0x18
 2260 09ea 01       		.uleb128 0x1
 2261 09eb 50       		.byte	0x50
 2262 09ec 02       		.uleb128 0x2
 2263 09ed 74       		.byte	0x74
 2264 09ee 00       		.sleb128 0
 2265 09ef 00       		.byte	0
 2266 09f0 17       		.uleb128 0x17
 2267 09f1 8C010000 		.4byte	.LVL45
 2268 09f5 62100000 		.4byte	0x1062
 2269 09f9 070A0000 		.4byte	0xa07
 2270 09fd 18       		.uleb128 0x18
 2271 09fe 01       		.uleb128 0x1
 2272 09ff 50       		.byte	0x50
 2273 0a00 05       		.uleb128 0x5
 2274 0a01 03       		.byte	0x3
 2275 0a02 E4010000 		.4byte	.LC16
 2276 0a06 00       		.byte	0
 2277 0a07 17       		.uleb128 0x17
 2278 0a08 92010000 		.4byte	.LVL46
 2279 0a0c 73100000 		.4byte	0x1073
 2280 0a10 1B0A0000 		.4byte	0xa1b
 2281 0a14 18       		.uleb128 0x18
 2282 0a15 01       		.uleb128 0x1
 2283 0a16 50       		.byte	0x50
 2284 0a17 02       		.uleb128 0x2
 2285 0a18 75       		.byte	0x75
 2286 0a19 00       		.sleb128 0
 2287 0a1a 00       		.byte	0
 2288 0a1b 17       		.uleb128 0x17
 2289 0a1c 98010000 		.4byte	.LVL47
 2290 0a20 84100000 		.4byte	0x1084
 2291 0a24 2F0A0000 		.4byte	0xa2f
 2292 0a28 18       		.uleb128 0x18
 2293 0a29 01       		.uleb128 0x1
 2294 0a2a 50       		.byte	0x50
 2295 0a2b 02       		.uleb128 0x2
 2296 0a2c 74       		.byte	0x74
 2297 0a2d 00       		.sleb128 0
 2298 0a2e 00       		.byte	0
 2299 0a2f 17       		.uleb128 0x17
 2300 0a30 A4010000 		.4byte	.LVL48
ARM GAS  /tmp/cc0Aowt3.s 			page 60


 2301 0a34 62100000 		.4byte	0x1062
 2302 0a38 460A0000 		.4byte	0xa46
 2303 0a3c 18       		.uleb128 0x18
 2304 0a3d 01       		.uleb128 0x1
 2305 0a3e 50       		.byte	0x50
 2306 0a3f 05       		.uleb128 0x5
 2307 0a40 03       		.byte	0x3
 2308 0a41 04020000 		.4byte	.LC17
 2309 0a45 00       		.byte	0
 2310 0a46 17       		.uleb128 0x17
 2311 0a47 AA010000 		.4byte	.LVL49
 2312 0a4b 73100000 		.4byte	0x1073
 2313 0a4f 5A0A0000 		.4byte	0xa5a
 2314 0a53 18       		.uleb128 0x18
 2315 0a54 01       		.uleb128 0x1
 2316 0a55 50       		.byte	0x50
 2317 0a56 02       		.uleb128 0x2
 2318 0a57 75       		.byte	0x75
 2319 0a58 00       		.sleb128 0
 2320 0a59 00       		.byte	0
 2321 0a5a 17       		.uleb128 0x17
 2322 0a5b B0010000 		.4byte	.LVL50
 2323 0a5f 84100000 		.4byte	0x1084
 2324 0a63 6E0A0000 		.4byte	0xa6e
 2325 0a67 18       		.uleb128 0x18
 2326 0a68 01       		.uleb128 0x1
 2327 0a69 50       		.byte	0x50
 2328 0a6a 02       		.uleb128 0x2
 2329 0a6b 74       		.byte	0x74
 2330 0a6c 00       		.sleb128 0
 2331 0a6d 00       		.byte	0
 2332 0a6e 17       		.uleb128 0x17
 2333 0a6f BC010000 		.4byte	.LVL51
 2334 0a73 62100000 		.4byte	0x1062
 2335 0a77 850A0000 		.4byte	0xa85
 2336 0a7b 18       		.uleb128 0x18
 2337 0a7c 01       		.uleb128 0x1
 2338 0a7d 50       		.byte	0x50
 2339 0a7e 05       		.uleb128 0x5
 2340 0a7f 03       		.byte	0x3
 2341 0a80 24020000 		.4byte	.LC18
 2342 0a84 00       		.byte	0
 2343 0a85 17       		.uleb128 0x17
 2344 0a86 C2010000 		.4byte	.LVL52
 2345 0a8a 73100000 		.4byte	0x1073
 2346 0a8e 990A0000 		.4byte	0xa99
 2347 0a92 18       		.uleb128 0x18
 2348 0a93 01       		.uleb128 0x1
 2349 0a94 50       		.byte	0x50
 2350 0a95 02       		.uleb128 0x2
 2351 0a96 75       		.byte	0x75
 2352 0a97 00       		.sleb128 0
 2353 0a98 00       		.byte	0
 2354 0a99 17       		.uleb128 0x17
 2355 0a9a C8010000 		.4byte	.LVL53
 2356 0a9e 84100000 		.4byte	0x1084
 2357 0aa2 AD0A0000 		.4byte	0xaad
ARM GAS  /tmp/cc0Aowt3.s 			page 61


 2358 0aa6 18       		.uleb128 0x18
 2359 0aa7 01       		.uleb128 0x1
 2360 0aa8 50       		.byte	0x50
 2361 0aa9 02       		.uleb128 0x2
 2362 0aaa 74       		.byte	0x74
 2363 0aab 00       		.sleb128 0
 2364 0aac 00       		.byte	0
 2365 0aad 17       		.uleb128 0x17
 2366 0aae D4010000 		.4byte	.LVL54
 2367 0ab2 62100000 		.4byte	0x1062
 2368 0ab6 C40A0000 		.4byte	0xac4
 2369 0aba 18       		.uleb128 0x18
 2370 0abb 01       		.uleb128 0x1
 2371 0abc 50       		.byte	0x50
 2372 0abd 05       		.uleb128 0x5
 2373 0abe 03       		.byte	0x3
 2374 0abf 44020000 		.4byte	.LC19
 2375 0ac3 00       		.byte	0
 2376 0ac4 17       		.uleb128 0x17
 2377 0ac5 DA010000 		.4byte	.LVL55
 2378 0ac9 73100000 		.4byte	0x1073
 2379 0acd D80A0000 		.4byte	0xad8
 2380 0ad1 18       		.uleb128 0x18
 2381 0ad2 01       		.uleb128 0x1
 2382 0ad3 50       		.byte	0x50
 2383 0ad4 02       		.uleb128 0x2
 2384 0ad5 75       		.byte	0x75
 2385 0ad6 00       		.sleb128 0
 2386 0ad7 00       		.byte	0
 2387 0ad8 17       		.uleb128 0x17
 2388 0ad9 E0010000 		.4byte	.LVL56
 2389 0add 84100000 		.4byte	0x1084
 2390 0ae1 EC0A0000 		.4byte	0xaec
 2391 0ae5 18       		.uleb128 0x18
 2392 0ae6 01       		.uleb128 0x1
 2393 0ae7 50       		.byte	0x50
 2394 0ae8 02       		.uleb128 0x2
 2395 0ae9 74       		.byte	0x74
 2396 0aea 00       		.sleb128 0
 2397 0aeb 00       		.byte	0
 2398 0aec 17       		.uleb128 0x17
 2399 0aed EC010000 		.4byte	.LVL57
 2400 0af1 62100000 		.4byte	0x1062
 2401 0af5 030B0000 		.4byte	0xb03
 2402 0af9 18       		.uleb128 0x18
 2403 0afa 01       		.uleb128 0x1
 2404 0afb 50       		.byte	0x50
 2405 0afc 05       		.uleb128 0x5
 2406 0afd 03       		.byte	0x3
 2407 0afe 64020000 		.4byte	.LC20
 2408 0b02 00       		.byte	0
 2409 0b03 17       		.uleb128 0x17
 2410 0b04 F2010000 		.4byte	.LVL58
 2411 0b08 73100000 		.4byte	0x1073
 2412 0b0c 160B0000 		.4byte	0xb16
 2413 0b10 18       		.uleb128 0x18
 2414 0b11 01       		.uleb128 0x1
ARM GAS  /tmp/cc0Aowt3.s 			page 62


 2415 0b12 50       		.byte	0x50
 2416 0b13 01       		.uleb128 0x1
 2417 0b14 30       		.byte	0x30
 2418 0b15 00       		.byte	0
 2419 0b16 17       		.uleb128 0x17
 2420 0b17 F8010000 		.4byte	.LVL59
 2421 0b1b 84100000 		.4byte	0x1084
 2422 0b1f 2A0B0000 		.4byte	0xb2a
 2423 0b23 18       		.uleb128 0x18
 2424 0b24 01       		.uleb128 0x1
 2425 0b25 50       		.byte	0x50
 2426 0b26 02       		.uleb128 0x2
 2427 0b27 74       		.byte	0x74
 2428 0b28 00       		.sleb128 0
 2429 0b29 00       		.byte	0
 2430 0b2a 17       		.uleb128 0x17
 2431 0b2b 04020000 		.4byte	.LVL60
 2432 0b2f 62100000 		.4byte	0x1062
 2433 0b33 410B0000 		.4byte	0xb41
 2434 0b37 18       		.uleb128 0x18
 2435 0b38 01       		.uleb128 0x1
 2436 0b39 50       		.byte	0x50
 2437 0b3a 05       		.uleb128 0x5
 2438 0b3b 03       		.byte	0x3
 2439 0b3c 84020000 		.4byte	.LC21
 2440 0b40 00       		.byte	0
 2441 0b41 17       		.uleb128 0x17
 2442 0b42 0A020000 		.4byte	.LVL61
 2443 0b46 73100000 		.4byte	0x1073
 2444 0b4a 550B0000 		.4byte	0xb55
 2445 0b4e 18       		.uleb128 0x18
 2446 0b4f 01       		.uleb128 0x1
 2447 0b50 50       		.byte	0x50
 2448 0b51 02       		.uleb128 0x2
 2449 0b52 75       		.byte	0x75
 2450 0b53 00       		.sleb128 0
 2451 0b54 00       		.byte	0
 2452 0b55 17       		.uleb128 0x17
 2453 0b56 10020000 		.4byte	.LVL62
 2454 0b5a 84100000 		.4byte	0x1084
 2455 0b5e 690B0000 		.4byte	0xb69
 2456 0b62 18       		.uleb128 0x18
 2457 0b63 01       		.uleb128 0x1
 2458 0b64 50       		.byte	0x50
 2459 0b65 02       		.uleb128 0x2
 2460 0b66 74       		.byte	0x74
 2461 0b67 00       		.sleb128 0
 2462 0b68 00       		.byte	0
 2463 0b69 17       		.uleb128 0x17
 2464 0b6a 1C020000 		.4byte	.LVL63
 2465 0b6e 62100000 		.4byte	0x1062
 2466 0b72 800B0000 		.4byte	0xb80
 2467 0b76 18       		.uleb128 0x18
 2468 0b77 01       		.uleb128 0x1
 2469 0b78 50       		.byte	0x50
 2470 0b79 05       		.uleb128 0x5
 2471 0b7a 03       		.byte	0x3
ARM GAS  /tmp/cc0Aowt3.s 			page 63


 2472 0b7b A4020000 		.4byte	.LC22
 2473 0b7f 00       		.byte	0
 2474 0b80 17       		.uleb128 0x17
 2475 0b81 22020000 		.4byte	.LVL64
 2476 0b85 73100000 		.4byte	0x1073
 2477 0b89 940B0000 		.4byte	0xb94
 2478 0b8d 18       		.uleb128 0x18
 2479 0b8e 01       		.uleb128 0x1
 2480 0b8f 50       		.byte	0x50
 2481 0b90 02       		.uleb128 0x2
 2482 0b91 75       		.byte	0x75
 2483 0b92 00       		.sleb128 0
 2484 0b93 00       		.byte	0
 2485 0b94 17       		.uleb128 0x17
 2486 0b95 28020000 		.4byte	.LVL65
 2487 0b99 84100000 		.4byte	0x1084
 2488 0b9d A80B0000 		.4byte	0xba8
 2489 0ba1 18       		.uleb128 0x18
 2490 0ba2 01       		.uleb128 0x1
 2491 0ba3 50       		.byte	0x50
 2492 0ba4 02       		.uleb128 0x2
 2493 0ba5 74       		.byte	0x74
 2494 0ba6 00       		.sleb128 0
 2495 0ba7 00       		.byte	0
 2496 0ba8 17       		.uleb128 0x17
 2497 0ba9 34020000 		.4byte	.LVL66
 2498 0bad 62100000 		.4byte	0x1062
 2499 0bb1 BF0B0000 		.4byte	0xbbf
 2500 0bb5 18       		.uleb128 0x18
 2501 0bb6 01       		.uleb128 0x1
 2502 0bb7 50       		.byte	0x50
 2503 0bb8 05       		.uleb128 0x5
 2504 0bb9 03       		.byte	0x3
 2505 0bba C4020000 		.4byte	.LC23
 2506 0bbe 00       		.byte	0
 2507 0bbf 17       		.uleb128 0x17
 2508 0bc0 3A020000 		.4byte	.LVL67
 2509 0bc4 73100000 		.4byte	0x1073
 2510 0bc8 D30B0000 		.4byte	0xbd3
 2511 0bcc 18       		.uleb128 0x18
 2512 0bcd 01       		.uleb128 0x1
 2513 0bce 50       		.byte	0x50
 2514 0bcf 02       		.uleb128 0x2
 2515 0bd0 75       		.byte	0x75
 2516 0bd1 00       		.sleb128 0
 2517 0bd2 00       		.byte	0
 2518 0bd3 17       		.uleb128 0x17
 2519 0bd4 40020000 		.4byte	.LVL68
 2520 0bd8 84100000 		.4byte	0x1084
 2521 0bdc E70B0000 		.4byte	0xbe7
 2522 0be0 18       		.uleb128 0x18
 2523 0be1 01       		.uleb128 0x1
 2524 0be2 50       		.byte	0x50
 2525 0be3 02       		.uleb128 0x2
 2526 0be4 74       		.byte	0x74
 2527 0be5 00       		.sleb128 0
 2528 0be6 00       		.byte	0
ARM GAS  /tmp/cc0Aowt3.s 			page 64


 2529 0be7 17       		.uleb128 0x17
 2530 0be8 4C020000 		.4byte	.LVL69
 2531 0bec 62100000 		.4byte	0x1062
 2532 0bf0 FE0B0000 		.4byte	0xbfe
 2533 0bf4 18       		.uleb128 0x18
 2534 0bf5 01       		.uleb128 0x1
 2535 0bf6 50       		.byte	0x50
 2536 0bf7 05       		.uleb128 0x5
 2537 0bf8 03       		.byte	0x3
 2538 0bf9 E4020000 		.4byte	.LC24
 2539 0bfd 00       		.byte	0
 2540 0bfe 17       		.uleb128 0x17
 2541 0bff 52020000 		.4byte	.LVL70
 2542 0c03 73100000 		.4byte	0x1073
 2543 0c07 120C0000 		.4byte	0xc12
 2544 0c0b 18       		.uleb128 0x18
 2545 0c0c 01       		.uleb128 0x1
 2546 0c0d 50       		.byte	0x50
 2547 0c0e 02       		.uleb128 0x2
 2548 0c0f 75       		.byte	0x75
 2549 0c10 00       		.sleb128 0
 2550 0c11 00       		.byte	0
 2551 0c12 17       		.uleb128 0x17
 2552 0c13 58020000 		.4byte	.LVL71
 2553 0c17 84100000 		.4byte	0x1084
 2554 0c1b 260C0000 		.4byte	0xc26
 2555 0c1f 18       		.uleb128 0x18
 2556 0c20 01       		.uleb128 0x1
 2557 0c21 50       		.byte	0x50
 2558 0c22 02       		.uleb128 0x2
 2559 0c23 74       		.byte	0x74
 2560 0c24 00       		.sleb128 0
 2561 0c25 00       		.byte	0
 2562 0c26 17       		.uleb128 0x17
 2563 0c27 64020000 		.4byte	.LVL72
 2564 0c2b 62100000 		.4byte	0x1062
 2565 0c2f 3D0C0000 		.4byte	0xc3d
 2566 0c33 18       		.uleb128 0x18
 2567 0c34 01       		.uleb128 0x1
 2568 0c35 50       		.byte	0x50
 2569 0c36 05       		.uleb128 0x5
 2570 0c37 03       		.byte	0x3
 2571 0c38 04030000 		.4byte	.LC25
 2572 0c3c 00       		.byte	0
 2573 0c3d 17       		.uleb128 0x17
 2574 0c3e 6A020000 		.4byte	.LVL73
 2575 0c42 73100000 		.4byte	0x1073
 2576 0c46 510C0000 		.4byte	0xc51
 2577 0c4a 18       		.uleb128 0x18
 2578 0c4b 01       		.uleb128 0x1
 2579 0c4c 50       		.byte	0x50
 2580 0c4d 02       		.uleb128 0x2
 2581 0c4e 75       		.byte	0x75
 2582 0c4f 00       		.sleb128 0
 2583 0c50 00       		.byte	0
 2584 0c51 17       		.uleb128 0x17
 2585 0c52 70020000 		.4byte	.LVL74
ARM GAS  /tmp/cc0Aowt3.s 			page 65


 2586 0c56 84100000 		.4byte	0x1084
 2587 0c5a 650C0000 		.4byte	0xc65
 2588 0c5e 18       		.uleb128 0x18
 2589 0c5f 01       		.uleb128 0x1
 2590 0c60 50       		.byte	0x50
 2591 0c61 02       		.uleb128 0x2
 2592 0c62 74       		.byte	0x74
 2593 0c63 00       		.sleb128 0
 2594 0c64 00       		.byte	0
 2595 0c65 17       		.uleb128 0x17
 2596 0c66 7C020000 		.4byte	.LVL75
 2597 0c6a 62100000 		.4byte	0x1062
 2598 0c6e 7C0C0000 		.4byte	0xc7c
 2599 0c72 18       		.uleb128 0x18
 2600 0c73 01       		.uleb128 0x1
 2601 0c74 50       		.byte	0x50
 2602 0c75 05       		.uleb128 0x5
 2603 0c76 03       		.byte	0x3
 2604 0c77 24030000 		.4byte	.LC26
 2605 0c7b 00       		.byte	0
 2606 0c7c 17       		.uleb128 0x17
 2607 0c7d 82020000 		.4byte	.LVL76
 2608 0c81 73100000 		.4byte	0x1073
 2609 0c85 8F0C0000 		.4byte	0xc8f
 2610 0c89 18       		.uleb128 0x18
 2611 0c8a 01       		.uleb128 0x1
 2612 0c8b 50       		.byte	0x50
 2613 0c8c 01       		.uleb128 0x1
 2614 0c8d 30       		.byte	0x30
 2615 0c8e 00       		.byte	0
 2616 0c8f 17       		.uleb128 0x17
 2617 0c90 88020000 		.4byte	.LVL77
 2618 0c94 84100000 		.4byte	0x1084
 2619 0c98 A30C0000 		.4byte	0xca3
 2620 0c9c 18       		.uleb128 0x18
 2621 0c9d 01       		.uleb128 0x1
 2622 0c9e 50       		.byte	0x50
 2623 0c9f 02       		.uleb128 0x2
 2624 0ca0 74       		.byte	0x74
 2625 0ca1 00       		.sleb128 0
 2626 0ca2 00       		.byte	0
 2627 0ca3 17       		.uleb128 0x17
 2628 0ca4 94020000 		.4byte	.LVL78
 2629 0ca8 62100000 		.4byte	0x1062
 2630 0cac BA0C0000 		.4byte	0xcba
 2631 0cb0 18       		.uleb128 0x18
 2632 0cb1 01       		.uleb128 0x1
 2633 0cb2 50       		.byte	0x50
 2634 0cb3 05       		.uleb128 0x5
 2635 0cb4 03       		.byte	0x3
 2636 0cb5 44030000 		.4byte	.LC27
 2637 0cb9 00       		.byte	0
 2638 0cba 17       		.uleb128 0x17
 2639 0cbb 9A020000 		.4byte	.LVL79
 2640 0cbf 73100000 		.4byte	0x1073
 2641 0cc3 CD0C0000 		.4byte	0xccd
 2642 0cc7 18       		.uleb128 0x18
ARM GAS  /tmp/cc0Aowt3.s 			page 66


 2643 0cc8 01       		.uleb128 0x1
 2644 0cc9 50       		.byte	0x50
 2645 0cca 01       		.uleb128 0x1
 2646 0ccb 30       		.byte	0x30
 2647 0ccc 00       		.byte	0
 2648 0ccd 17       		.uleb128 0x17
 2649 0cce A0020000 		.4byte	.LVL80
 2650 0cd2 84100000 		.4byte	0x1084
 2651 0cd6 E10C0000 		.4byte	0xce1
 2652 0cda 18       		.uleb128 0x18
 2653 0cdb 01       		.uleb128 0x1
 2654 0cdc 50       		.byte	0x50
 2655 0cdd 02       		.uleb128 0x2
 2656 0cde 74       		.byte	0x74
 2657 0cdf 00       		.sleb128 0
 2658 0ce0 00       		.byte	0
 2659 0ce1 17       		.uleb128 0x17
 2660 0ce2 AC020000 		.4byte	.LVL81
 2661 0ce6 62100000 		.4byte	0x1062
 2662 0cea F80C0000 		.4byte	0xcf8
 2663 0cee 18       		.uleb128 0x18
 2664 0cef 01       		.uleb128 0x1
 2665 0cf0 50       		.byte	0x50
 2666 0cf1 05       		.uleb128 0x5
 2667 0cf2 03       		.byte	0x3
 2668 0cf3 64030000 		.4byte	.LC28
 2669 0cf7 00       		.byte	0
 2670 0cf8 17       		.uleb128 0x17
 2671 0cf9 B2020000 		.4byte	.LVL82
 2672 0cfd 73100000 		.4byte	0x1073
 2673 0d01 0B0D0000 		.4byte	0xd0b
 2674 0d05 18       		.uleb128 0x18
 2675 0d06 01       		.uleb128 0x1
 2676 0d07 50       		.byte	0x50
 2677 0d08 01       		.uleb128 0x1
 2678 0d09 30       		.byte	0x30
 2679 0d0a 00       		.byte	0
 2680 0d0b 17       		.uleb128 0x17
 2681 0d0c B8020000 		.4byte	.LVL83
 2682 0d10 84100000 		.4byte	0x1084
 2683 0d14 1F0D0000 		.4byte	0xd1f
 2684 0d18 18       		.uleb128 0x18
 2685 0d19 01       		.uleb128 0x1
 2686 0d1a 50       		.byte	0x50
 2687 0d1b 02       		.uleb128 0x2
 2688 0d1c 74       		.byte	0x74
 2689 0d1d 00       		.sleb128 0
 2690 0d1e 00       		.byte	0
 2691 0d1f 17       		.uleb128 0x17
 2692 0d20 C4020000 		.4byte	.LVL84
 2693 0d24 62100000 		.4byte	0x1062
 2694 0d28 360D0000 		.4byte	0xd36
 2695 0d2c 18       		.uleb128 0x18
 2696 0d2d 01       		.uleb128 0x1
 2697 0d2e 50       		.byte	0x50
 2698 0d2f 05       		.uleb128 0x5
 2699 0d30 03       		.byte	0x3
ARM GAS  /tmp/cc0Aowt3.s 			page 67


 2700 0d31 84030000 		.4byte	.LC29
 2701 0d35 00       		.byte	0
 2702 0d36 17       		.uleb128 0x17
 2703 0d37 CA020000 		.4byte	.LVL85
 2704 0d3b 73100000 		.4byte	0x1073
 2705 0d3f 490D0000 		.4byte	0xd49
 2706 0d43 18       		.uleb128 0x18
 2707 0d44 01       		.uleb128 0x1
 2708 0d45 50       		.byte	0x50
 2709 0d46 01       		.uleb128 0x1
 2710 0d47 30       		.byte	0x30
 2711 0d48 00       		.byte	0
 2712 0d49 17       		.uleb128 0x17
 2713 0d4a D0020000 		.4byte	.LVL86
 2714 0d4e 84100000 		.4byte	0x1084
 2715 0d52 5D0D0000 		.4byte	0xd5d
 2716 0d56 18       		.uleb128 0x18
 2717 0d57 01       		.uleb128 0x1
 2718 0d58 50       		.byte	0x50
 2719 0d59 02       		.uleb128 0x2
 2720 0d5a 74       		.byte	0x74
 2721 0d5b 00       		.sleb128 0
 2722 0d5c 00       		.byte	0
 2723 0d5d 17       		.uleb128 0x17
 2724 0d5e DC020000 		.4byte	.LVL87
 2725 0d62 62100000 		.4byte	0x1062
 2726 0d66 740D0000 		.4byte	0xd74
 2727 0d6a 18       		.uleb128 0x18
 2728 0d6b 01       		.uleb128 0x1
 2729 0d6c 50       		.byte	0x50
 2730 0d6d 05       		.uleb128 0x5
 2731 0d6e 03       		.byte	0x3
 2732 0d6f A4030000 		.4byte	.LC30
 2733 0d73 00       		.byte	0
 2734 0d74 17       		.uleb128 0x17
 2735 0d75 E2020000 		.4byte	.LVL88
 2736 0d79 73100000 		.4byte	0x1073
 2737 0d7d 880D0000 		.4byte	0xd88
 2738 0d81 18       		.uleb128 0x18
 2739 0d82 01       		.uleb128 0x1
 2740 0d83 50       		.byte	0x50
 2741 0d84 02       		.uleb128 0x2
 2742 0d85 08       		.byte	0x8
 2743 0d86 FF       		.byte	0xff
 2744 0d87 00       		.byte	0
 2745 0d88 17       		.uleb128 0x17
 2746 0d89 E8020000 		.4byte	.LVL89
 2747 0d8d 84100000 		.4byte	0x1084
 2748 0d91 9C0D0000 		.4byte	0xd9c
 2749 0d95 18       		.uleb128 0x18
 2750 0d96 01       		.uleb128 0x1
 2751 0d97 50       		.byte	0x50
 2752 0d98 02       		.uleb128 0x2
 2753 0d99 74       		.byte	0x74
 2754 0d9a 00       		.sleb128 0
 2755 0d9b 00       		.byte	0
 2756 0d9c 17       		.uleb128 0x17
ARM GAS  /tmp/cc0Aowt3.s 			page 68


 2757 0d9d F4020000 		.4byte	.LVL90
 2758 0da1 62100000 		.4byte	0x1062
 2759 0da5 B30D0000 		.4byte	0xdb3
 2760 0da9 18       		.uleb128 0x18
 2761 0daa 01       		.uleb128 0x1
 2762 0dab 50       		.byte	0x50
 2763 0dac 05       		.uleb128 0x5
 2764 0dad 03       		.byte	0x3
 2765 0dae C4030000 		.4byte	.LC31
 2766 0db2 00       		.byte	0
 2767 0db3 17       		.uleb128 0x17
 2768 0db4 FA020000 		.4byte	.LVL91
 2769 0db8 73100000 		.4byte	0x1073
 2770 0dbc C70D0000 		.4byte	0xdc7
 2771 0dc0 18       		.uleb128 0x18
 2772 0dc1 01       		.uleb128 0x1
 2773 0dc2 50       		.byte	0x50
 2774 0dc3 02       		.uleb128 0x2
 2775 0dc4 08       		.byte	0x8
 2776 0dc5 80       		.byte	0x80
 2777 0dc6 00       		.byte	0
 2778 0dc7 17       		.uleb128 0x17
 2779 0dc8 00030000 		.4byte	.LVL92
 2780 0dcc 84100000 		.4byte	0x1084
 2781 0dd0 DB0D0000 		.4byte	0xddb
 2782 0dd4 18       		.uleb128 0x18
 2783 0dd5 01       		.uleb128 0x1
 2784 0dd6 50       		.byte	0x50
 2785 0dd7 02       		.uleb128 0x2
 2786 0dd8 74       		.byte	0x74
 2787 0dd9 00       		.sleb128 0
 2788 0dda 00       		.byte	0
 2789 0ddb 17       		.uleb128 0x17
 2790 0ddc 0C030000 		.4byte	.LVL93
 2791 0de0 62100000 		.4byte	0x1062
 2792 0de4 F20D0000 		.4byte	0xdf2
 2793 0de8 18       		.uleb128 0x18
 2794 0de9 01       		.uleb128 0x1
 2795 0dea 50       		.byte	0x50
 2796 0deb 05       		.uleb128 0x5
 2797 0dec 03       		.byte	0x3
 2798 0ded E4030000 		.4byte	.LC32
 2799 0df1 00       		.byte	0
 2800 0df2 17       		.uleb128 0x17
 2801 0df3 12030000 		.4byte	.LVL94
 2802 0df7 73100000 		.4byte	0x1073
 2803 0dfb 050E0000 		.4byte	0xe05
 2804 0dff 18       		.uleb128 0x18
 2805 0e00 01       		.uleb128 0x1
 2806 0e01 50       		.byte	0x50
 2807 0e02 01       		.uleb128 0x1
 2808 0e03 30       		.byte	0x30
 2809 0e04 00       		.byte	0
 2810 0e05 17       		.uleb128 0x17
 2811 0e06 18030000 		.4byte	.LVL95
 2812 0e0a 84100000 		.4byte	0x1084
 2813 0e0e 190E0000 		.4byte	0xe19
ARM GAS  /tmp/cc0Aowt3.s 			page 69


 2814 0e12 18       		.uleb128 0x18
 2815 0e13 01       		.uleb128 0x1
 2816 0e14 50       		.byte	0x50
 2817 0e15 02       		.uleb128 0x2
 2818 0e16 74       		.byte	0x74
 2819 0e17 00       		.sleb128 0
 2820 0e18 00       		.byte	0
 2821 0e19 17       		.uleb128 0x17
 2822 0e1a 24030000 		.4byte	.LVL96
 2823 0e1e 62100000 		.4byte	0x1062
 2824 0e22 300E0000 		.4byte	0xe30
 2825 0e26 18       		.uleb128 0x18
 2826 0e27 01       		.uleb128 0x1
 2827 0e28 50       		.byte	0x50
 2828 0e29 05       		.uleb128 0x5
 2829 0e2a 03       		.byte	0x3
 2830 0e2b 04040000 		.4byte	.LC33
 2831 0e2f 00       		.byte	0
 2832 0e30 17       		.uleb128 0x17
 2833 0e31 2A030000 		.4byte	.LVL97
 2834 0e35 73100000 		.4byte	0x1073
 2835 0e39 430E0000 		.4byte	0xe43
 2836 0e3d 18       		.uleb128 0x18
 2837 0e3e 01       		.uleb128 0x1
 2838 0e3f 50       		.byte	0x50
 2839 0e40 01       		.uleb128 0x1
 2840 0e41 30       		.byte	0x30
 2841 0e42 00       		.byte	0
 2842 0e43 17       		.uleb128 0x17
 2843 0e44 30030000 		.4byte	.LVL98
 2844 0e48 84100000 		.4byte	0x1084
 2845 0e4c 570E0000 		.4byte	0xe57
 2846 0e50 18       		.uleb128 0x18
 2847 0e51 01       		.uleb128 0x1
 2848 0e52 50       		.byte	0x50
 2849 0e53 02       		.uleb128 0x2
 2850 0e54 74       		.byte	0x74
 2851 0e55 00       		.sleb128 0
 2852 0e56 00       		.byte	0
 2853 0e57 17       		.uleb128 0x17
 2854 0e58 3C030000 		.4byte	.LVL99
 2855 0e5c 62100000 		.4byte	0x1062
 2856 0e60 6E0E0000 		.4byte	0xe6e
 2857 0e64 18       		.uleb128 0x18
 2858 0e65 01       		.uleb128 0x1
 2859 0e66 50       		.byte	0x50
 2860 0e67 05       		.uleb128 0x5
 2861 0e68 03       		.byte	0x3
 2862 0e69 24040000 		.4byte	.LC34
 2863 0e6d 00       		.byte	0
 2864 0e6e 17       		.uleb128 0x17
 2865 0e6f 42030000 		.4byte	.LVL100
 2866 0e73 73100000 		.4byte	0x1073
 2867 0e77 810E0000 		.4byte	0xe81
 2868 0e7b 18       		.uleb128 0x18
 2869 0e7c 01       		.uleb128 0x1
 2870 0e7d 50       		.byte	0x50
ARM GAS  /tmp/cc0Aowt3.s 			page 70


 2871 0e7e 01       		.uleb128 0x1
 2872 0e7f 30       		.byte	0x30
 2873 0e80 00       		.byte	0
 2874 0e81 19       		.uleb128 0x19
 2875 0e82 4C030000 		.4byte	.LVL101
 2876 0e86 84100000 		.4byte	0x1084
 2877 0e8a 18       		.uleb128 0x18
 2878 0e8b 01       		.uleb128 0x1
 2879 0e8c 50       		.byte	0x50
 2880 0e8d 05       		.uleb128 0x5
 2881 0e8e 03       		.byte	0x3
 2882 0e8f 20000000 		.4byte	.LC1
 2883 0e93 00       		.byte	0
 2884 0e94 00       		.byte	0
 2885 0e95 16       		.uleb128 0x16
 2886 0e96 37010000 		.4byte	.LASF95
 2887 0e9a 01       		.byte	0x1
 2888 0e9b 3C       		.byte	0x3c
 2889 0e9c 00000000 		.4byte	.LFB219
 2890 0ea0 9E000000 		.4byte	.LFE219-.LFB219
 2891 0ea4 01       		.uleb128 0x1
 2892 0ea5 9C       		.byte	0x9c
 2893 0ea6 E80F0000 		.4byte	0xfe8
 2894 0eaa 17       		.uleb128 0x17
 2895 0eab 1A000000 		.4byte	.LVL102
 2896 0eaf 84100000 		.4byte	0x1084
 2897 0eb3 C10E0000 		.4byte	0xec1
 2898 0eb7 18       		.uleb128 0x18
 2899 0eb8 01       		.uleb128 0x1
 2900 0eb9 50       		.byte	0x50
 2901 0eba 05       		.uleb128 0x5
 2902 0ebb 03       		.byte	0x3
 2903 0ebc 44040000 		.4byte	.LC35
 2904 0ec0 00       		.byte	0
 2905 0ec1 17       		.uleb128 0x17
 2906 0ec2 2E000000 		.4byte	.LVL103
 2907 0ec6 62100000 		.4byte	0x1062
 2908 0eca D80E0000 		.4byte	0xed8
 2909 0ece 18       		.uleb128 0x18
 2910 0ecf 01       		.uleb128 0x1
 2911 0ed0 50       		.byte	0x50
 2912 0ed1 05       		.uleb128 0x5
 2913 0ed2 03       		.byte	0x3
 2914 0ed3 70040000 		.4byte	.LC36
 2915 0ed7 00       		.byte	0
 2916 0ed8 17       		.uleb128 0x17
 2917 0ed9 34000000 		.4byte	.LVL104
 2918 0edd 73100000 		.4byte	0x1073
 2919 0ee1 EC0E0000 		.4byte	0xeec
 2920 0ee5 18       		.uleb128 0x18
 2921 0ee6 01       		.uleb128 0x1
 2922 0ee7 50       		.byte	0x50
 2923 0ee8 02       		.uleb128 0x2
 2924 0ee9 75       		.byte	0x75
 2925 0eea 00       		.sleb128 0
 2926 0eeb 00       		.byte	0
 2927 0eec 17       		.uleb128 0x17
ARM GAS  /tmp/cc0Aowt3.s 			page 71


 2928 0eed 3A000000 		.4byte	.LVL105
 2929 0ef1 84100000 		.4byte	0x1084
 2930 0ef5 000F0000 		.4byte	0xf00
 2931 0ef9 18       		.uleb128 0x18
 2932 0efa 01       		.uleb128 0x1
 2933 0efb 50       		.byte	0x50
 2934 0efc 02       		.uleb128 0x2
 2935 0efd 74       		.byte	0x74
 2936 0efe 00       		.sleb128 0
 2937 0eff 00       		.byte	0
 2938 0f00 17       		.uleb128 0x17
 2939 0f01 46000000 		.4byte	.LVL106
 2940 0f05 62100000 		.4byte	0x1062
 2941 0f09 170F0000 		.4byte	0xf17
 2942 0f0d 18       		.uleb128 0x18
 2943 0f0e 01       		.uleb128 0x1
 2944 0f0f 50       		.byte	0x50
 2945 0f10 05       		.uleb128 0x5
 2946 0f11 03       		.byte	0x3
 2947 0f12 90040000 		.4byte	.LC37
 2948 0f16 00       		.byte	0
 2949 0f17 17       		.uleb128 0x17
 2950 0f18 52000000 		.4byte	.LVL107
 2951 0f1c 84100000 		.4byte	0x1084
 2952 0f20 2E0F0000 		.4byte	0xf2e
 2953 0f24 18       		.uleb128 0x18
 2954 0f25 01       		.uleb128 0x1
 2955 0f26 50       		.byte	0x50
 2956 0f27 05       		.uleb128 0x5
 2957 0f28 03       		.byte	0x3
 2958 0f29 B0040000 		.4byte	.LC38
 2959 0f2d 00       		.byte	0
 2960 0f2e 17       		.uleb128 0x17
 2961 0f2f 5E000000 		.4byte	.LVL108
 2962 0f33 62100000 		.4byte	0x1062
 2963 0f37 450F0000 		.4byte	0xf45
 2964 0f3b 18       		.uleb128 0x18
 2965 0f3c 01       		.uleb128 0x1
 2966 0f3d 50       		.byte	0x50
 2967 0f3e 05       		.uleb128 0x5
 2968 0f3f 03       		.byte	0x3
 2969 0f40 B8040000 		.4byte	.LC39
 2970 0f44 00       		.byte	0
 2971 0f45 17       		.uleb128 0x17
 2972 0f46 64000000 		.4byte	.LVL109
 2973 0f4a 73100000 		.4byte	0x1073
 2974 0f4e 580F0000 		.4byte	0xf58
 2975 0f52 18       		.uleb128 0x18
 2976 0f53 01       		.uleb128 0x1
 2977 0f54 50       		.byte	0x50
 2978 0f55 01       		.uleb128 0x1
 2979 0f56 34       		.byte	0x34
 2980 0f57 00       		.byte	0
 2981 0f58 17       		.uleb128 0x17
 2982 0f59 6A000000 		.4byte	.LVL110
 2983 0f5d 84100000 		.4byte	0x1084
 2984 0f61 6C0F0000 		.4byte	0xf6c
ARM GAS  /tmp/cc0Aowt3.s 			page 72


 2985 0f65 18       		.uleb128 0x18
 2986 0f66 01       		.uleb128 0x1
 2987 0f67 50       		.byte	0x50
 2988 0f68 02       		.uleb128 0x2
 2989 0f69 74       		.byte	0x74
 2990 0f6a 00       		.sleb128 0
 2991 0f6b 00       		.byte	0
 2992 0f6c 17       		.uleb128 0x17
 2993 0f6d 76000000 		.4byte	.LVL111
 2994 0f71 62100000 		.4byte	0x1062
 2995 0f75 830F0000 		.4byte	0xf83
 2996 0f79 18       		.uleb128 0x18
 2997 0f7a 01       		.uleb128 0x1
 2998 0f7b 50       		.byte	0x50
 2999 0f7c 05       		.uleb128 0x5
 3000 0f7d 03       		.byte	0x3
 3001 0f7e D8040000 		.4byte	.LC40
 3002 0f82 00       		.byte	0
 3003 0f83 17       		.uleb128 0x17
 3004 0f84 7C000000 		.4byte	.LVL112
 3005 0f88 73100000 		.4byte	0x1073
 3006 0f8c 960F0000 		.4byte	0xf96
 3007 0f90 18       		.uleb128 0x18
 3008 0f91 01       		.uleb128 0x1
 3009 0f92 50       		.byte	0x50
 3010 0f93 01       		.uleb128 0x1
 3011 0f94 30       		.byte	0x30
 3012 0f95 00       		.byte	0
 3013 0f96 17       		.uleb128 0x17
 3014 0f97 82000000 		.4byte	.LVL113
 3015 0f9b 84100000 		.4byte	0x1084
 3016 0f9f AA0F0000 		.4byte	0xfaa
 3017 0fa3 18       		.uleb128 0x18
 3018 0fa4 01       		.uleb128 0x1
 3019 0fa5 50       		.byte	0x50
 3020 0fa6 02       		.uleb128 0x2
 3021 0fa7 74       		.byte	0x74
 3022 0fa8 00       		.sleb128 0
 3023 0fa9 00       		.byte	0
 3024 0faa 17       		.uleb128 0x17
 3025 0fab 8E000000 		.4byte	.LVL114
 3026 0faf 62100000 		.4byte	0x1062
 3027 0fb3 C10F0000 		.4byte	0xfc1
 3028 0fb7 18       		.uleb128 0x18
 3029 0fb8 01       		.uleb128 0x1
 3030 0fb9 50       		.byte	0x50
 3031 0fba 05       		.uleb128 0x5
 3032 0fbb 03       		.byte	0x3
 3033 0fbc F8040000 		.4byte	.LC41
 3034 0fc0 00       		.byte	0
 3035 0fc1 17       		.uleb128 0x17
 3036 0fc2 94000000 		.4byte	.LVL115
 3037 0fc6 73100000 		.4byte	0x1073
 3038 0fca D40F0000 		.4byte	0xfd4
 3039 0fce 18       		.uleb128 0x18
 3040 0fcf 01       		.uleb128 0x1
 3041 0fd0 50       		.byte	0x50
ARM GAS  /tmp/cc0Aowt3.s 			page 73


 3042 0fd1 01       		.uleb128 0x1
 3043 0fd2 32       		.byte	0x32
 3044 0fd3 00       		.byte	0
 3045 0fd4 19       		.uleb128 0x19
 3046 0fd5 9E000000 		.4byte	.LVL116
 3047 0fd9 84100000 		.4byte	0x1084
 3048 0fdd 18       		.uleb128 0x18
 3049 0fde 01       		.uleb128 0x1
 3050 0fdf 50       		.byte	0x50
 3051 0fe0 05       		.uleb128 0x5
 3052 0fe1 03       		.byte	0x3
 3053 0fe2 20000000 		.4byte	.LC1
 3054 0fe6 00       		.byte	0
 3055 0fe7 00       		.byte	0
 3056 0fe8 1A       		.uleb128 0x1a
 3057 0fe9 BC020000 		.4byte	.LASF96
 3058 0fed 01       		.byte	0x1
 3059 0fee 53       		.byte	0x53
 3060 0fef F90F0000 		.4byte	0xff9
 3061 0ff3 05       		.uleb128 0x5
 3062 0ff4 03       		.byte	0x3
 3063 0ff5 00000000 		.4byte	test_001_001
 3064 0ff9 12       		.uleb128 0x12
 3065 0ffa 26060000 		.4byte	0x626
 3066 0ffe 1A       		.uleb128 0x1a
 3067 0fff C9020000 		.4byte	.LASF97
 3068 1003 01       		.byte	0x1
 3069 1004 D3       		.byte	0xd3
 3070 1005 F90F0000 		.4byte	0xff9
 3071 1009 05       		.uleb128 0x5
 3072 100a 03       		.byte	0x3
 3073 100b 00000000 		.4byte	test_001_002
 3074 100f 1B       		.uleb128 0x1b
 3075 1010 DC040000 		.4byte	.LASF98
 3076 1014 0D       		.byte	0xd
 3077 1015 9606     		.2byte	0x696
 3078 1017 1B100000 		.4byte	0x101b
 3079 101b 13       		.uleb128 0x13
 3080 101c C3000000 		.4byte	0xc3
 3081 1020 1C       		.uleb128 0x1c
 3082 1021 636800   		.ascii	"ch\000"
 3083 1024 07       		.byte	0x7
 3084 1025 D201     		.2byte	0x1d2
 3085 1027 DC030000 		.4byte	0x3dc
 3086 102b 1D       		.uleb128 0x1d
 3087 102c D1030000 		.4byte	.LASF99
 3088 1030 0C       		.byte	0xc
 3089 1031 9E       		.byte	0x9e
 3090 1032 37000000 		.4byte	0x37
 3091 1036 1E       		.uleb128 0x1e
 3092 1037 46100000 		.4byte	0x1046
 3093 103b 46100000 		.4byte	0x1046
 3094 103f 1F       		.uleb128 0x1f
 3095 1040 29040000 		.4byte	0x429
 3096 1044 02       		.byte	0x2
 3097 1045 00       		.byte	0
 3098 1046 0A       		.uleb128 0xa
ARM GAS  /tmp/cc0Aowt3.s 			page 74


 3099 1047 04       		.byte	0x4
 3100 1048 F90F0000 		.4byte	0xff9
 3101 104c 20       		.uleb128 0x20
 3102 104d 11000000 		.4byte	.LASF100
 3103 1051 01       		.byte	0x1
 3104 1052 E1       		.byte	0xe1
 3105 1053 5D100000 		.4byte	0x105d
 3106 1057 05       		.uleb128 0x5
 3107 1058 03       		.byte	0x3
 3108 1059 00000000 		.4byte	test_sequence_001
 3109 105d 12       		.uleb128 0x12
 3110 105e 36100000 		.4byte	0x1036
 3111 1062 21       		.uleb128 0x21
 3112 1063 D3010000 		.4byte	.LASF101
 3113 1067 0C       		.byte	0xc
 3114 1068 AC       		.byte	0xac
 3115 1069 73100000 		.4byte	0x1073
 3116 106d 0D       		.uleb128 0xd
 3117 106e AB050000 		.4byte	0x5ab
 3118 1072 00       		.byte	0
 3119 1073 21       		.uleb128 0x21
 3120 1074 F4030000 		.4byte	.LASF102
 3121 1078 0C       		.byte	0xc
 3122 1079 AB       		.byte	0xab
 3123 107a 84100000 		.4byte	0x1084
 3124 107e 0D       		.uleb128 0xd
 3125 107f CE000000 		.4byte	0xce
 3126 1083 00       		.byte	0
 3127 1084 22       		.uleb128 0x22
 3128 1085 53010000 		.4byte	.LASF106
 3129 1089 0C       		.byte	0xc
 3130 108a AD       		.byte	0xad
 3131 108b 0D       		.uleb128 0xd
 3132 108c AB050000 		.4byte	0x5ab
 3133 1090 00       		.byte	0
 3134 1091 00       		.byte	0
 3135              		.section	.debug_abbrev,"",%progbits
 3136              	.Ldebug_abbrev0:
 3137 0000 01       		.uleb128 0x1
 3138 0001 11       		.uleb128 0x11
 3139 0002 01       		.byte	0x1
 3140 0003 25       		.uleb128 0x25
 3141 0004 0E       		.uleb128 0xe
 3142 0005 13       		.uleb128 0x13
 3143 0006 0B       		.uleb128 0xb
 3144 0007 03       		.uleb128 0x3
 3145 0008 0E       		.uleb128 0xe
 3146 0009 1B       		.uleb128 0x1b
 3147 000a 0E       		.uleb128 0xe
 3148 000b 55       		.uleb128 0x55
 3149 000c 17       		.uleb128 0x17
 3150 000d 11       		.uleb128 0x11
 3151 000e 01       		.uleb128 0x1
 3152 000f 10       		.uleb128 0x10
 3153 0010 17       		.uleb128 0x17
 3154 0011 00       		.byte	0
 3155 0012 00       		.byte	0
ARM GAS  /tmp/cc0Aowt3.s 			page 75


 3156 0013 02       		.uleb128 0x2
 3157 0014 24       		.uleb128 0x24
 3158 0015 00       		.byte	0
 3159 0016 0B       		.uleb128 0xb
 3160 0017 0B       		.uleb128 0xb
 3161 0018 3E       		.uleb128 0x3e
 3162 0019 0B       		.uleb128 0xb
 3163 001a 03       		.uleb128 0x3
 3164 001b 08       		.uleb128 0x8
 3165 001c 00       		.byte	0
 3166 001d 00       		.byte	0
 3167 001e 03       		.uleb128 0x3
 3168 001f 16       		.uleb128 0x16
 3169 0020 00       		.byte	0
 3170 0021 03       		.uleb128 0x3
 3171 0022 0E       		.uleb128 0xe
 3172 0023 3A       		.uleb128 0x3a
 3173 0024 0B       		.uleb128 0xb
 3174 0025 3B       		.uleb128 0x3b
 3175 0026 0B       		.uleb128 0xb
 3176 0027 49       		.uleb128 0x49
 3177 0028 13       		.uleb128 0x13
 3178 0029 00       		.byte	0
 3179 002a 00       		.byte	0
 3180 002b 04       		.uleb128 0x4
 3181 002c 24       		.uleb128 0x24
 3182 002d 00       		.byte	0
 3183 002e 0B       		.uleb128 0xb
 3184 002f 0B       		.uleb128 0xb
 3185 0030 3E       		.uleb128 0x3e
 3186 0031 0B       		.uleb128 0xb
 3187 0032 03       		.uleb128 0x3
 3188 0033 0E       		.uleb128 0xe
 3189 0034 00       		.byte	0
 3190 0035 00       		.byte	0
 3191 0036 05       		.uleb128 0x5
 3192 0037 13       		.uleb128 0x13
 3193 0038 01       		.byte	0x1
 3194 0039 03       		.uleb128 0x3
 3195 003a 0E       		.uleb128 0xe
 3196 003b 0B       		.uleb128 0xb
 3197 003c 0B       		.uleb128 0xb
 3198 003d 3A       		.uleb128 0x3a
 3199 003e 0B       		.uleb128 0xb
 3200 003f 3B       		.uleb128 0x3b
 3201 0040 0B       		.uleb128 0xb
 3202 0041 01       		.uleb128 0x1
 3203 0042 13       		.uleb128 0x13
 3204 0043 00       		.byte	0
 3205 0044 00       		.byte	0
 3206 0045 06       		.uleb128 0x6
 3207 0046 0D       		.uleb128 0xd
 3208 0047 00       		.byte	0
 3209 0048 03       		.uleb128 0x3
 3210 0049 0E       		.uleb128 0xe
 3211 004a 3A       		.uleb128 0x3a
 3212 004b 0B       		.uleb128 0xb
ARM GAS  /tmp/cc0Aowt3.s 			page 76


 3213 004c 3B       		.uleb128 0x3b
 3214 004d 0B       		.uleb128 0xb
 3215 004e 49       		.uleb128 0x49
 3216 004f 13       		.uleb128 0x13
 3217 0050 38       		.uleb128 0x38
 3218 0051 0B       		.uleb128 0xb
 3219 0052 00       		.byte	0
 3220 0053 00       		.byte	0
 3221 0054 07       		.uleb128 0x7
 3222 0055 0D       		.uleb128 0xd
 3223 0056 00       		.byte	0
 3224 0057 03       		.uleb128 0x3
 3225 0058 08       		.uleb128 0x8
 3226 0059 3A       		.uleb128 0x3a
 3227 005a 0B       		.uleb128 0xb
 3228 005b 3B       		.uleb128 0x3b
 3229 005c 0B       		.uleb128 0xb
 3230 005d 49       		.uleb128 0x49
 3231 005e 13       		.uleb128 0x13
 3232 005f 38       		.uleb128 0x38
 3233 0060 0B       		.uleb128 0xb
 3234 0061 00       		.byte	0
 3235 0062 00       		.byte	0
 3236 0063 08       		.uleb128 0x8
 3237 0064 0D       		.uleb128 0xd
 3238 0065 00       		.byte	0
 3239 0066 03       		.uleb128 0x3
 3240 0067 08       		.uleb128 0x8
 3241 0068 3A       		.uleb128 0x3a
 3242 0069 0B       		.uleb128 0xb
 3243 006a 3B       		.uleb128 0x3b
 3244 006b 05       		.uleb128 0x5
 3245 006c 49       		.uleb128 0x49
 3246 006d 13       		.uleb128 0x13
 3247 006e 38       		.uleb128 0x38
 3248 006f 0B       		.uleb128 0xb
 3249 0070 00       		.byte	0
 3250 0071 00       		.byte	0
 3251 0072 09       		.uleb128 0x9
 3252 0073 0D       		.uleb128 0xd
 3253 0074 00       		.byte	0
 3254 0075 03       		.uleb128 0x3
 3255 0076 0E       		.uleb128 0xe
 3256 0077 3A       		.uleb128 0x3a
 3257 0078 0B       		.uleb128 0xb
 3258 0079 3B       		.uleb128 0x3b
 3259 007a 05       		.uleb128 0x5
 3260 007b 49       		.uleb128 0x49
 3261 007c 13       		.uleb128 0x13
 3262 007d 38       		.uleb128 0x38
 3263 007e 0B       		.uleb128 0xb
 3264 007f 00       		.byte	0
 3265 0080 00       		.byte	0
 3266 0081 0A       		.uleb128 0xa
 3267 0082 0F       		.uleb128 0xf
 3268 0083 00       		.byte	0
 3269 0084 0B       		.uleb128 0xb
ARM GAS  /tmp/cc0Aowt3.s 			page 77


 3270 0085 0B       		.uleb128 0xb
 3271 0086 49       		.uleb128 0x49
 3272 0087 13       		.uleb128 0x13
 3273 0088 00       		.byte	0
 3274 0089 00       		.byte	0
 3275 008a 0B       		.uleb128 0xb
 3276 008b 13       		.uleb128 0x13
 3277 008c 01       		.byte	0x1
 3278 008d 03       		.uleb128 0x3
 3279 008e 0E       		.uleb128 0xe
 3280 008f 0B       		.uleb128 0xb
 3281 0090 0B       		.uleb128 0xb
 3282 0091 3A       		.uleb128 0x3a
 3283 0092 0B       		.uleb128 0xb
 3284 0093 3B       		.uleb128 0x3b
 3285 0094 05       		.uleb128 0x5
 3286 0095 01       		.uleb128 0x1
 3287 0096 13       		.uleb128 0x13
 3288 0097 00       		.byte	0
 3289 0098 00       		.byte	0
 3290 0099 0C       		.uleb128 0xc
 3291 009a 15       		.uleb128 0x15
 3292 009b 01       		.byte	0x1
 3293 009c 27       		.uleb128 0x27
 3294 009d 19       		.uleb128 0x19
 3295 009e 01       		.uleb128 0x1
 3296 009f 13       		.uleb128 0x13
 3297 00a0 00       		.byte	0
 3298 00a1 00       		.byte	0
 3299 00a2 0D       		.uleb128 0xd
 3300 00a3 05       		.uleb128 0x5
 3301 00a4 00       		.byte	0
 3302 00a5 49       		.uleb128 0x49
 3303 00a6 13       		.uleb128 0x13
 3304 00a7 00       		.byte	0
 3305 00a8 00       		.byte	0
 3306 00a9 0E       		.uleb128 0xe
 3307 00aa 0F       		.uleb128 0xf
 3308 00ab 00       		.byte	0
 3309 00ac 0B       		.uleb128 0xb
 3310 00ad 0B       		.uleb128 0xb
 3311 00ae 00       		.byte	0
 3312 00af 00       		.byte	0
 3313 00b0 0F       		.uleb128 0xf
 3314 00b1 17       		.uleb128 0x17
 3315 00b2 01       		.byte	0x1
 3316 00b3 0B       		.uleb128 0xb
 3317 00b4 0B       		.uleb128 0xb
 3318 00b5 3A       		.uleb128 0x3a
 3319 00b6 0B       		.uleb128 0xb
 3320 00b7 3B       		.uleb128 0x3b
 3321 00b8 0B       		.uleb128 0xb
 3322 00b9 01       		.uleb128 0x1
 3323 00ba 13       		.uleb128 0x13
 3324 00bb 00       		.byte	0
 3325 00bc 00       		.byte	0
 3326 00bd 10       		.uleb128 0x10
ARM GAS  /tmp/cc0Aowt3.s 			page 78


 3327 00be 0D       		.uleb128 0xd
 3328 00bf 00       		.byte	0
 3329 00c0 03       		.uleb128 0x3
 3330 00c1 0E       		.uleb128 0xe
 3331 00c2 3A       		.uleb128 0x3a
 3332 00c3 0B       		.uleb128 0xb
 3333 00c4 3B       		.uleb128 0x3b
 3334 00c5 0B       		.uleb128 0xb
 3335 00c6 49       		.uleb128 0x49
 3336 00c7 13       		.uleb128 0x13
 3337 00c8 00       		.byte	0
 3338 00c9 00       		.byte	0
 3339 00ca 11       		.uleb128 0x11
 3340 00cb 0D       		.uleb128 0xd
 3341 00cc 00       		.byte	0
 3342 00cd 03       		.uleb128 0x3
 3343 00ce 0E       		.uleb128 0xe
 3344 00cf 3A       		.uleb128 0x3a
 3345 00d0 0B       		.uleb128 0xb
 3346 00d1 3B       		.uleb128 0x3b
 3347 00d2 05       		.uleb128 0x5
 3348 00d3 49       		.uleb128 0x49
 3349 00d4 13       		.uleb128 0x13
 3350 00d5 00       		.byte	0
 3351 00d6 00       		.byte	0
 3352 00d7 12       		.uleb128 0x12
 3353 00d8 26       		.uleb128 0x26
 3354 00d9 00       		.byte	0
 3355 00da 49       		.uleb128 0x49
 3356 00db 13       		.uleb128 0x13
 3357 00dc 00       		.byte	0
 3358 00dd 00       		.byte	0
 3359 00de 13       		.uleb128 0x13
 3360 00df 35       		.uleb128 0x35
 3361 00e0 00       		.byte	0
 3362 00e1 49       		.uleb128 0x49
 3363 00e2 13       		.uleb128 0x13
 3364 00e3 00       		.byte	0
 3365 00e4 00       		.byte	0
 3366 00e5 14       		.uleb128 0x14
 3367 00e6 15       		.uleb128 0x15
 3368 00e7 00       		.byte	0
 3369 00e8 27       		.uleb128 0x27
 3370 00e9 19       		.uleb128 0x19
 3371 00ea 00       		.byte	0
 3372 00eb 00       		.byte	0
 3373 00ec 15       		.uleb128 0x15
 3374 00ed 13       		.uleb128 0x13
 3375 00ee 01       		.byte	0x1
 3376 00ef 0B       		.uleb128 0xb
 3377 00f0 0B       		.uleb128 0xb
 3378 00f1 3A       		.uleb128 0x3a
 3379 00f2 0B       		.uleb128 0xb
 3380 00f3 3B       		.uleb128 0x3b
 3381 00f4 0B       		.uleb128 0xb
 3382 00f5 01       		.uleb128 0x1
 3383 00f6 13       		.uleb128 0x13
ARM GAS  /tmp/cc0Aowt3.s 			page 79


 3384 00f7 00       		.byte	0
 3385 00f8 00       		.byte	0
 3386 00f9 16       		.uleb128 0x16
 3387 00fa 2E       		.uleb128 0x2e
 3388 00fb 01       		.byte	0x1
 3389 00fc 03       		.uleb128 0x3
 3390 00fd 0E       		.uleb128 0xe
 3391 00fe 3A       		.uleb128 0x3a
 3392 00ff 0B       		.uleb128 0xb
 3393 0100 3B       		.uleb128 0x3b
 3394 0101 0B       		.uleb128 0xb
 3395 0102 27       		.uleb128 0x27
 3396 0103 19       		.uleb128 0x19
 3397 0104 11       		.uleb128 0x11
 3398 0105 01       		.uleb128 0x1
 3399 0106 12       		.uleb128 0x12
 3400 0107 06       		.uleb128 0x6
 3401 0108 40       		.uleb128 0x40
 3402 0109 18       		.uleb128 0x18
 3403 010a 9742     		.uleb128 0x2117
 3404 010c 19       		.uleb128 0x19
 3405 010d 01       		.uleb128 0x1
 3406 010e 13       		.uleb128 0x13
 3407 010f 00       		.byte	0
 3408 0110 00       		.byte	0
 3409 0111 17       		.uleb128 0x17
 3410 0112 898201   		.uleb128 0x4109
 3411 0115 01       		.byte	0x1
 3412 0116 11       		.uleb128 0x11
 3413 0117 01       		.uleb128 0x1
 3414 0118 31       		.uleb128 0x31
 3415 0119 13       		.uleb128 0x13
 3416 011a 01       		.uleb128 0x1
 3417 011b 13       		.uleb128 0x13
 3418 011c 00       		.byte	0
 3419 011d 00       		.byte	0
 3420 011e 18       		.uleb128 0x18
 3421 011f 8A8201   		.uleb128 0x410a
 3422 0122 00       		.byte	0
 3423 0123 02       		.uleb128 0x2
 3424 0124 18       		.uleb128 0x18
 3425 0125 9142     		.uleb128 0x2111
 3426 0127 18       		.uleb128 0x18
 3427 0128 00       		.byte	0
 3428 0129 00       		.byte	0
 3429 012a 19       		.uleb128 0x19
 3430 012b 898201   		.uleb128 0x4109
 3431 012e 01       		.byte	0x1
 3432 012f 11       		.uleb128 0x11
 3433 0130 01       		.uleb128 0x1
 3434 0131 9542     		.uleb128 0x2115
 3435 0133 19       		.uleb128 0x19
 3436 0134 31       		.uleb128 0x31
 3437 0135 13       		.uleb128 0x13
 3438 0136 00       		.byte	0
 3439 0137 00       		.byte	0
 3440 0138 1A       		.uleb128 0x1a
ARM GAS  /tmp/cc0Aowt3.s 			page 80


 3441 0139 34       		.uleb128 0x34
 3442 013a 00       		.byte	0
 3443 013b 03       		.uleb128 0x3
 3444 013c 0E       		.uleb128 0xe
 3445 013d 3A       		.uleb128 0x3a
 3446 013e 0B       		.uleb128 0xb
 3447 013f 3B       		.uleb128 0x3b
 3448 0140 0B       		.uleb128 0xb
 3449 0141 49       		.uleb128 0x49
 3450 0142 13       		.uleb128 0x13
 3451 0143 02       		.uleb128 0x2
 3452 0144 18       		.uleb128 0x18
 3453 0145 00       		.byte	0
 3454 0146 00       		.byte	0
 3455 0147 1B       		.uleb128 0x1b
 3456 0148 34       		.uleb128 0x34
 3457 0149 00       		.byte	0
 3458 014a 03       		.uleb128 0x3
 3459 014b 0E       		.uleb128 0xe
 3460 014c 3A       		.uleb128 0x3a
 3461 014d 0B       		.uleb128 0xb
 3462 014e 3B       		.uleb128 0x3b
 3463 014f 05       		.uleb128 0x5
 3464 0150 49       		.uleb128 0x49
 3465 0151 13       		.uleb128 0x13
 3466 0152 3F       		.uleb128 0x3f
 3467 0153 19       		.uleb128 0x19
 3468 0154 3C       		.uleb128 0x3c
 3469 0155 19       		.uleb128 0x19
 3470 0156 00       		.byte	0
 3471 0157 00       		.byte	0
 3472 0158 1C       		.uleb128 0x1c
 3473 0159 34       		.uleb128 0x34
 3474 015a 00       		.byte	0
 3475 015b 03       		.uleb128 0x3
 3476 015c 08       		.uleb128 0x8
 3477 015d 3A       		.uleb128 0x3a
 3478 015e 0B       		.uleb128 0xb
 3479 015f 3B       		.uleb128 0x3b
 3480 0160 05       		.uleb128 0x5
 3481 0161 49       		.uleb128 0x49
 3482 0162 13       		.uleb128 0x13
 3483 0163 3F       		.uleb128 0x3f
 3484 0164 19       		.uleb128 0x19
 3485 0165 3C       		.uleb128 0x3c
 3486 0166 19       		.uleb128 0x19
 3487 0167 00       		.byte	0
 3488 0168 00       		.byte	0
 3489 0169 1D       		.uleb128 0x1d
 3490 016a 34       		.uleb128 0x34
 3491 016b 00       		.byte	0
 3492 016c 03       		.uleb128 0x3
 3493 016d 0E       		.uleb128 0xe
 3494 016e 3A       		.uleb128 0x3a
 3495 016f 0B       		.uleb128 0xb
 3496 0170 3B       		.uleb128 0x3b
 3497 0171 0B       		.uleb128 0xb
ARM GAS  /tmp/cc0Aowt3.s 			page 81


 3498 0172 49       		.uleb128 0x49
 3499 0173 13       		.uleb128 0x13
 3500 0174 3F       		.uleb128 0x3f
 3501 0175 19       		.uleb128 0x19
 3502 0176 3C       		.uleb128 0x3c
 3503 0177 19       		.uleb128 0x19
 3504 0178 00       		.byte	0
 3505 0179 00       		.byte	0
 3506 017a 1E       		.uleb128 0x1e
 3507 017b 01       		.uleb128 0x1
 3508 017c 01       		.byte	0x1
 3509 017d 49       		.uleb128 0x49
 3510 017e 13       		.uleb128 0x13
 3511 017f 01       		.uleb128 0x1
 3512 0180 13       		.uleb128 0x13
 3513 0181 00       		.byte	0
 3514 0182 00       		.byte	0
 3515 0183 1F       		.uleb128 0x1f
 3516 0184 21       		.uleb128 0x21
 3517 0185 00       		.byte	0
 3518 0186 49       		.uleb128 0x49
 3519 0187 13       		.uleb128 0x13
 3520 0188 2F       		.uleb128 0x2f
 3521 0189 0B       		.uleb128 0xb
 3522 018a 00       		.byte	0
 3523 018b 00       		.byte	0
 3524 018c 20       		.uleb128 0x20
 3525 018d 34       		.uleb128 0x34
 3526 018e 00       		.byte	0
 3527 018f 03       		.uleb128 0x3
 3528 0190 0E       		.uleb128 0xe
 3529 0191 3A       		.uleb128 0x3a
 3530 0192 0B       		.uleb128 0xb
 3531 0193 3B       		.uleb128 0x3b
 3532 0194 0B       		.uleb128 0xb
 3533 0195 49       		.uleb128 0x49
 3534 0196 13       		.uleb128 0x13
 3535 0197 3F       		.uleb128 0x3f
 3536 0198 19       		.uleb128 0x19
 3537 0199 02       		.uleb128 0x2
 3538 019a 18       		.uleb128 0x18
 3539 019b 00       		.byte	0
 3540 019c 00       		.byte	0
 3541 019d 21       		.uleb128 0x21
 3542 019e 2E       		.uleb128 0x2e
 3543 019f 01       		.byte	0x1
 3544 01a0 3F       		.uleb128 0x3f
 3545 01a1 19       		.uleb128 0x19
 3546 01a2 03       		.uleb128 0x3
 3547 01a3 0E       		.uleb128 0xe
 3548 01a4 3A       		.uleb128 0x3a
 3549 01a5 0B       		.uleb128 0xb
 3550 01a6 3B       		.uleb128 0x3b
 3551 01a7 0B       		.uleb128 0xb
 3552 01a8 27       		.uleb128 0x27
 3553 01a9 19       		.uleb128 0x19
 3554 01aa 3C       		.uleb128 0x3c
ARM GAS  /tmp/cc0Aowt3.s 			page 82


 3555 01ab 19       		.uleb128 0x19
 3556 01ac 01       		.uleb128 0x1
 3557 01ad 13       		.uleb128 0x13
 3558 01ae 00       		.byte	0
 3559 01af 00       		.byte	0
 3560 01b0 22       		.uleb128 0x22
 3561 01b1 2E       		.uleb128 0x2e
 3562 01b2 01       		.byte	0x1
 3563 01b3 3F       		.uleb128 0x3f
 3564 01b4 19       		.uleb128 0x19
 3565 01b5 03       		.uleb128 0x3
 3566 01b6 0E       		.uleb128 0xe
 3567 01b7 3A       		.uleb128 0x3a
 3568 01b8 0B       		.uleb128 0xb
 3569 01b9 3B       		.uleb128 0x3b
 3570 01ba 0B       		.uleb128 0xb
 3571 01bb 27       		.uleb128 0x27
 3572 01bc 19       		.uleb128 0x19
 3573 01bd 3C       		.uleb128 0x3c
 3574 01be 19       		.uleb128 0x19
 3575 01bf 00       		.byte	0
 3576 01c0 00       		.byte	0
 3577 01c1 00       		.byte	0
 3578              		.section	.debug_aranges,"",%progbits
 3579 0000 24000000 		.4byte	0x24
 3580 0004 0200     		.2byte	0x2
 3581 0006 00000000 		.4byte	.Ldebug_info0
 3582 000a 04       		.byte	0x4
 3583 000b 00       		.byte	0
 3584 000c 0000     		.2byte	0
 3585 000e 0000     		.2byte	0
 3586 0010 00000000 		.4byte	.LFB220
 3587 0014 4C030000 		.4byte	.LFE220-.LFB220
 3588 0018 00000000 		.4byte	.LFB219
 3589 001c 9E000000 		.4byte	.LFE219-.LFB219
 3590 0020 00000000 		.4byte	0
 3591 0024 00000000 		.4byte	0
 3592              		.section	.debug_ranges,"",%progbits
 3593              	.Ldebug_ranges0:
 3594 0000 00000000 		.4byte	.LFB220
 3595 0004 4C030000 		.4byte	.LFE220
 3596 0008 00000000 		.4byte	.LFB219
 3597 000c 9E000000 		.4byte	.LFE219
 3598 0010 00000000 		.4byte	0
 3599 0014 00000000 		.4byte	0
 3600              		.section	.debug_line,"",%progbits
 3601              	.Ldebug_line0:
 3602 0000 64020000 		.section	.debug_str,"MS",%progbits,1
 3602      0200BA01 
 3602      00000201 
 3602      FB0E0D00 
 3602      01010101 
 3603              	.LASF28:
 3604 0000 74687265 		.ascii	"thread_t\000"
 3604      61645F74 
 3604      00
 3605              	.LASF22:
ARM GAS  /tmp/cc0Aowt3.s 			page 83


 3606 0009 74726566 		.ascii	"trefs_t\000"
 3606      735F7400 
 3607              	.LASF100:
 3608 0011 74657374 		.ascii	"test_sequence_001\000"
 3608      5F736571 
 3608      75656E63 
 3608      655F3030 
 3608      3100
 3609              	.LASF64:
 3610 0023 63685F73 		.ascii	"ch_system_debug\000"
 3610      79737465 
 3610      6D5F6465 
 3610      62756700 
 3611              	.LASF40:
 3612 0033 6570656E 		.ascii	"epending\000"
 3612      64696E67 
 3612      00
 3613              	.LASF103:
 3614 003c 474E5520 		.ascii	"GNU C 4.8.2 -mcpu=cortex-m3 -mno-thumb-interwork -m"
 3614      4320342E 
 3614      382E3220 
 3614      2D6D6370 
 3614      753D636F 
 3615 006f 7468756D 		.ascii	"thumb -ggdb -O2 -fomit-frame-pointer -falign-functi"
 3615      62202D67 
 3615      67646220 
 3615      2D4F3220 
 3615      2D666F6D 
 3616 00a2 6F6E733D 		.ascii	"ons=16 -ffunction-sections -fdata-sections -fno-com"
 3616      3136202D 
 3616      6666756E 
 3616      6374696F 
 3616      6E2D7365 
 3617 00d5 6D6F6E20 		.ascii	"mon -flto\000"
 3617      2D666C74 
 3617      6F00
 3618              	.LASF35:
 3619 00df 73746174 		.ascii	"state\000"
 3619      6500
 3620              	.LASF19:
 3621 00e5 75696E74 		.ascii	"uint64_t\000"
 3621      36345F74 
 3621      00
 3622              	.LASF70:
 3623 00ee 6D61696E 		.ascii	"mainthread\000"
 3623      74687265 
 3623      616400
 3624              	.LASF5:
 3625 00f9 73686F72 		.ascii	"short int\000"
 3625      7420696E 
 3625      7400
 3626              	.LASF2:
 3627 0103 73697A65 		.ascii	"size_t\000"
 3627      5F7400
 3628              	.LASF71:
 3629 010a 73697A65 		.ascii	"sizetype\000"
 3629      74797065 
ARM GAS  /tmp/cc0Aowt3.s 			page 84


 3629      00
 3630              	.LASF63:
 3631 0113 73797374 		.ascii	"system_debug_t\000"
 3631      656D5F64 
 3631      65627567 
 3631      5F7400
 3632              	.LASF94:
 3633 0122 74657374 		.ascii	"test_001_002_execute\000"
 3633      5F303031 
 3633      5F303032 
 3633      5F657865 
 3633      63757465 
 3634              	.LASF95:
 3635 0137 74657374 		.ascii	"test_001_001_execute\000"
 3635      5F303031 
 3635      5F303031 
 3635      5F657865 
 3635      63757465 
 3636              	.LASF81:
 3637 014c 77747365 		.ascii	"wtsemp\000"
 3637      6D7000
 3638              	.LASF106:
 3639 0153 74657374 		.ascii	"test_println\000"
 3639      5F707269 
 3639      6E746C6E 
 3639      00
 3640              	.LASF6:
 3641 0160 5F5F7569 		.ascii	"__uint16_t\000"
 3641      6E743136 
 3641      5F7400
 3642              	.LASF25:
 3643 016b 6576656E 		.ascii	"eventmask_t\000"
 3643      746D6173 
 3643      6B5F7400 
 3644              	.LASF20:
 3645 0177 746D6F64 		.ascii	"tmode_t\000"
 3645      655F7400 
 3646              	.LASF47:
 3647 017f 63685F74 		.ascii	"ch_threads_list\000"
 3647      68726561 
 3647      64735F6C 
 3647      69737400 
 3648              	.LASF69:
 3649 018f 76746C69 		.ascii	"vtlist\000"
 3649      737400
 3650              	.LASF66:
 3651 0196 63685F73 		.ascii	"ch_system_t\000"
 3651      79737465 
 3651      6D5F7400 
 3652              	.LASF39:
 3653 01a2 6D736771 		.ascii	"msgqueue\000"
 3653      75657565 
 3653      00
 3654              	.LASF72:
 3655 01ab 72656761 		.ascii	"regarm_t\000"
 3655      726D5F74 
 3655      00
ARM GAS  /tmp/cc0Aowt3.s 			page 85


 3656              	.LASF58:
 3657 01b4 64656C74 		.ascii	"delta\000"
 3657      6100
 3658              	.LASF15:
 3659 01ba 75696E74 		.ascii	"uint8_t\000"
 3659      385F7400 
 3660              	.LASF50:
 3661 01c2 63685F74 		.ascii	"ch_threads_queue\000"
 3661      68726561 
 3661      64735F71 
 3661      75657565 
 3661      00
 3662              	.LASF101:
 3663 01d3 74657374 		.ascii	"test_print\000"
 3663      5F707269 
 3663      6E7400
 3664              	.LASF85:
 3665 01de 63685F6D 		.ascii	"ch_mutex\000"
 3665      75746578 
 3665      00
 3666              	.LASF105:
 3667 01e7 2F686F6D 		.ascii	"/home/jerson/ChibiOS/rt_stm32f100rb_onion\000"
 3667      652F6A65 
 3667      72736F6E 
 3667      2F436869 
 3667      62694F53 
 3668              	.LASF46:
 3669 0211 63685F74 		.ascii	"ch_thread\000"
 3669      68726561 
 3669      6400
 3670              	.LASF32:
 3671 021b 6F6C6465 		.ascii	"older\000"
 3671      7200
 3672              	.LASF34:
 3673 0221 77616261 		.ascii	"wabase\000"
 3673      736500
 3674              	.LASF90:
 3675 0228 73657475 		.ascii	"setup\000"
 3675      7000
 3676              	.LASF59:
 3677 022e 66756E63 		.ascii	"func\000"
 3677      00
 3678              	.LASF12:
 3679 0233 6C6F6E67 		.ascii	"long long int\000"
 3679      206C6F6E 
 3679      6720696E 
 3679      7400
 3680              	.LASF14:
 3681 0241 6C6F6E67 		.ascii	"long long unsigned int\000"
 3681      206C6F6E 
 3681      6720756E 
 3681      7369676E 
 3681      65642069 
 3682              	.LASF23:
 3683 0258 74707269 		.ascii	"tprio_t\000"
 3683      6F5F7400 
 3684              	.LASF9:
ARM GAS  /tmp/cc0Aowt3.s 			page 86


 3685 0260 6C6F6E67 		.ascii	"long int\000"
 3685      20696E74 
 3685      00
 3686              	.LASF67:
 3687 0269 63685F73 		.ascii	"ch_system\000"
 3687      79737465 
 3687      6D00
 3688              	.LASF74:
 3689 0273 706F7274 		.ascii	"port_context\000"
 3689      5F636F6E 
 3689      74657874 
 3689      00
 3690              	.LASF56:
 3691 0280 76697274 		.ascii	"virtual_timer_t\000"
 3691      75616C5F 
 3691      74696D65 
 3691      725F7400 
 3692              	.LASF3:
 3693 0290 5F5F7569 		.ascii	"__uint8_t\000"
 3693      6E74385F 
 3693      7400
 3694              	.LASF80:
 3695 029a 73656E74 		.ascii	"sentmsg\000"
 3695      6D736700 
 3696              	.LASF91:
 3697 02a2 74656172 		.ascii	"teardown\000"
 3697      646F776E 
 3697      00
 3698              	.LASF31:
 3699 02ab 6E657765 		.ascii	"newer\000"
 3699      7200
 3700              	.LASF29:
 3701 02b1 71756575 		.ascii	"queue\000"
 3701      6500
 3702              	.LASF33:
 3703 02b7 6E616D65 		.ascii	"name\000"
 3703      00
 3704              	.LASF96:
 3705 02bc 74657374 		.ascii	"test_001_001\000"
 3705      5F303031 
 3705      5F303031 
 3705      00
 3706              	.LASF97:
 3707 02c9 74657374 		.ascii	"test_001_002\000"
 3707      5F303031 
 3707      5F303032 
 3707      00
 3708              	.LASF4:
 3709 02d6 756E7369 		.ascii	"unsigned char\000"
 3709      676E6564 
 3709      20636861 
 3709      7200
 3710              	.LASF86:
 3711 02e4 6F776E65 		.ascii	"owner\000"
 3711      7200
 3712              	.LASF104:
 3713 02ea 2E2E2F74 		.ascii	"../test/rt/source/test/test_sequence_001.c\000"
ARM GAS  /tmp/cc0Aowt3.s 			page 87


 3713      6573742F 
 3713      72742F73 
 3713      6F757263 
 3713      652F7465 
 3714              	.LASF83:
 3715 0315 65776D61 		.ascii	"ewmask\000"
 3715      736B00
 3716              	.LASF1:
 3717 031c 7369676E 		.ascii	"signed char\000"
 3717      65642063 
 3717      68617200 
 3718              	.LASF36:
 3719 0328 666C6167 		.ascii	"flags\000"
 3719      7300
 3720              	.LASF18:
 3721 032e 75696E74 		.ascii	"uint32_t\000"
 3721      33325F74 
 3721      00
 3722              	.LASF0:
 3723 0337 756E7369 		.ascii	"unsigned int\000"
 3723      676E6564 
 3723      20696E74 
 3723      00
 3724              	.LASF16:
 3725 0344 75696E74 		.ascii	"uint16_t\000"
 3725      31365F74 
 3725      00
 3726              	.LASF60:
 3727 034d 76697274 		.ascii	"virtual_timers_list_t\000"
 3727      75616C5F 
 3727      74696D65 
 3727      72735F6C 
 3727      6973745F 
 3728              	.LASF49:
 3729 0363 74687265 		.ascii	"threads_queue_t\000"
 3729      6164735F 
 3729      71756575 
 3729      655F7400 
 3730              	.LASF7:
 3731 0373 73686F72 		.ascii	"short unsigned int\000"
 3731      7420756E 
 3731      7369676E 
 3731      65642069 
 3731      6E7400
 3732              	.LASF27:
 3733 0386 73797374 		.ascii	"systime_t\000"
 3733      696D655F 
 3733      7400
 3734              	.LASF68:
 3735 0390 726C6973 		.ascii	"rlist\000"
 3735      7400
 3736              	.LASF87:
 3737 0396 63686172 		.ascii	"char\000"
 3737      00
 3738              	.LASF88:
 3739 039b 6D757465 		.ascii	"mutex_t\000"
 3739      785F7400 
ARM GAS  /tmp/cc0Aowt3.s 			page 88


 3740              	.LASF57:
 3741 03a3 63685F76 		.ascii	"ch_virtual_timer\000"
 3741      69727475 
 3741      616C5F74 
 3741      696D6572 
 3741      00
 3742              	.LASF17:
 3743 03b4 696E7433 		.ascii	"int32_t\000"
 3743      325F7400 
 3744              	.LASF26:
 3745 03bc 636E745F 		.ascii	"cnt_t\000"
 3745      7400
 3746              	.LASF42:
 3747 03c2 7265616C 		.ascii	"realprio\000"
 3747      7072696F 
 3747      00
 3748              	.LASF89:
 3749 03cb 5F426F6F 		.ascii	"_Bool\000"
 3749      6C00
 3750              	.LASF99:
 3751 03d1 74657374 		.ascii	"test_step\000"
 3751      5F737465 
 3751      7000
 3752              	.LASF13:
 3753 03db 5F5F7569 		.ascii	"__uint64_t\000"
 3753      6E743634 
 3753      5F7400
 3754              	.LASF37:
 3755 03e6 72656673 		.ascii	"refs\000"
 3755      00
 3756              	.LASF62:
 3757 03eb 6C617374 		.ascii	"lasttime\000"
 3757      74696D65 
 3757      00
 3758              	.LASF102:
 3759 03f4 74657374 		.ascii	"test_printn\000"
 3759      5F707269 
 3759      6E746E00 
 3760              	.LASF21:
 3761 0400 74737461 		.ascii	"tstate_t\000"
 3761      74655F74 
 3761      00
 3762              	.LASF11:
 3763 0409 6C6F6E67 		.ascii	"long unsigned int\000"
 3763      20756E73 
 3763      69676E65 
 3763      6420696E 
 3763      7400
 3764              	.LASF65:
 3765 041b 70616E69 		.ascii	"panic_msg\000"
 3765      635F6D73 
 3765      6700
 3766              	.LASF10:
 3767 0425 5F5F7569 		.ascii	"__uint32_t\000"
 3767      6E743332 
 3767      5F7400
 3768              	.LASF79:
ARM GAS  /tmp/cc0Aowt3.s 			page 89


 3769 0430 77747472 		.ascii	"wttrp\000"
 3769      7000
 3770              	.LASF84:
 3771 0436 63685F73 		.ascii	"ch_semaphore\000"
 3771      656D6170 
 3771      686F7265 
 3771      00
 3772              	.LASF75:
 3773 0443 706F7274 		.ascii	"port_intctx\000"
 3773      5F696E74 
 3773      63747800 
 3774              	.LASF8:
 3775 044f 5F5F696E 		.ascii	"__int32_t\000"
 3775      7433325F 
 3775      7400
 3776              	.LASF44:
 3777 0459 74687265 		.ascii	"thread_reference_t\000"
 3777      61645F72 
 3777      65666572 
 3777      656E6365 
 3777      5F7400
 3778              	.LASF78:
 3779 046c 77746F62 		.ascii	"wtobjp\000"
 3779      6A7000
 3780              	.LASF41:
 3781 0473 6D74786C 		.ascii	"mtxlist\000"
 3781      69737400 
 3782              	.LASF73:
 3783 047b 73746B61 		.ascii	"stkalign_t\000"
 3783      6C69676E 
 3783      5F7400
 3784              	.LASF77:
 3785 0486 65786974 		.ascii	"exitcode\000"
 3785      636F6465 
 3785      00
 3786              	.LASF43:
 3787 048f 6D706F6F 		.ascii	"mpool\000"
 3787      6C00
 3788              	.LASF55:
 3789 0495 76746675 		.ascii	"vtfunc_t\000"
 3789      6E635F74 
 3789      00
 3790              	.LASF52:
 3791 049e 72656164 		.ascii	"ready_list_t\000"
 3791      795F6C69 
 3791      73745F74 
 3791      00
 3792              	.LASF93:
 3793 04ab 74657374 		.ascii	"testcase_t\000"
 3793      63617365 
 3793      5F7400
 3794              	.LASF92:
 3795 04b6 65786563 		.ascii	"execute\000"
 3795      75746500 
 3796              	.LASF54:
 3797 04be 63757272 		.ascii	"current\000"
 3797      656E7400 
ARM GAS  /tmp/cc0Aowt3.s 			page 90


 3798              	.LASF38:
 3799 04c6 77616974 		.ascii	"waiting\000"
 3799      696E6700 
 3800              	.LASF53:
 3801 04ce 63685F72 		.ascii	"ch_ready_list\000"
 3801      65616479 
 3801      5F6C6973 
 3801      7400
 3802              	.LASF98:
 3803 04dc 49544D5F 		.ascii	"ITM_RxBuffer\000"
 3803      52784275 
 3803      66666572 
 3803      00
 3804              	.LASF51:
 3805 04e9 70726576 		.ascii	"prev\000"
 3805      00
 3806              	.LASF61:
 3807 04ee 63685F76 		.ascii	"ch_virtual_timers_list\000"
 3807      69727475 
 3807      616C5F74 
 3807      696D6572 
 3807      735F6C69 
 3808              	.LASF76:
 3809 0505 7264796D 		.ascii	"rdymsg\000"
 3809      736700
 3810              	.LASF24:
 3811 050c 6D73675F 		.ascii	"msg_t\000"
 3811      7400
 3812              	.LASF30:
 3813 0512 7072696F 		.ascii	"prio\000"
 3813      00
 3814              	.LASF48:
 3815 0517 6E657874 		.ascii	"next\000"
 3815      00
 3816              	.LASF82:
 3817 051c 77746D74 		.ascii	"wtmtxp\000"
 3817      787000
 3818              	.LASF45:
 3819 0523 74687265 		.ascii	"threads_list_t\000"
 3819      6164735F 
 3819      6C697374 
 3819      5F7400
 3820              		.comm	__gnu_lto_v1,1,1
 3821              		.ident	"GCC: (4.8.2-14ubuntu1+6) 4.8.2"
ARM GAS  /tmp/cc0Aowt3.s 			page 91


DEFINED SYMBOLS
                            *ABS*:0000000000000000 test_sequence_001.c
     /tmp/cc0Aowt3.s:289    .text.test_001_002_execute:0000000000000000 $t
     /tmp/cc0Aowt3.s:294    .text.test_001_002_execute:0000000000000000 test_001_002_execute
     /tmp/cc0Aowt3.s:899    .rodata.str1.4:0000000000000000 .LC0
     /tmp/cc0Aowt3.s:901    .rodata.str1.4:0000000000000020 .LC1
     /tmp/cc0Aowt3.s:904    .rodata.str1.4:0000000000000024 .LC2
     /tmp/cc0Aowt3.s:906    .rodata.str1.4:0000000000000044 .LC3
     /tmp/cc0Aowt3.s:908    .rodata.str1.4:0000000000000064 .LC4
     /tmp/cc0Aowt3.s:910    .rodata.str1.4:0000000000000084 .LC5
     /tmp/cc0Aowt3.s:912    .rodata.str1.4:00000000000000a4 .LC6
     /tmp/cc0Aowt3.s:914    .rodata.str1.4:00000000000000c4 .LC7
     /tmp/cc0Aowt3.s:916    .rodata.str1.4:00000000000000e4 .LC8
     /tmp/cc0Aowt3.s:918    .rodata.str1.4:0000000000000104 .LC9
     /tmp/cc0Aowt3.s:920    .rodata.str1.4:0000000000000124 .LC10
     /tmp/cc0Aowt3.s:922    .rodata.str1.4:0000000000000144 .LC11
     /tmp/cc0Aowt3.s:924    .rodata.str1.4:0000000000000164 .LC12
     /tmp/cc0Aowt3.s:926    .rodata.str1.4:0000000000000184 .LC13
     /tmp/cc0Aowt3.s:928    .rodata.str1.4:00000000000001a4 .LC14
     /tmp/cc0Aowt3.s:930    .rodata.str1.4:00000000000001c4 .LC15
     /tmp/cc0Aowt3.s:932    .rodata.str1.4:00000000000001e4 .LC16
     /tmp/cc0Aowt3.s:934    .rodata.str1.4:0000000000000204 .LC17
     /tmp/cc0Aowt3.s:936    .rodata.str1.4:0000000000000224 .LC18
     /tmp/cc0Aowt3.s:938    .rodata.str1.4:0000000000000244 .LC19
     /tmp/cc0Aowt3.s:940    .rodata.str1.4:0000000000000264 .LC20
     /tmp/cc0Aowt3.s:942    .rodata.str1.4:0000000000000284 .LC21
     /tmp/cc0Aowt3.s:944    .rodata.str1.4:00000000000002a4 .LC22
     /tmp/cc0Aowt3.s:946    .rodata.str1.4:00000000000002c4 .LC23
     /tmp/cc0Aowt3.s:948    .rodata.str1.4:00000000000002e4 .LC24
     /tmp/cc0Aowt3.s:950    .rodata.str1.4:0000000000000304 .LC25
     /tmp/cc0Aowt3.s:952    .rodata.str1.4:0000000000000324 .LC26
     /tmp/cc0Aowt3.s:954    .rodata.str1.4:0000000000000344 .LC27
     /tmp/cc0Aowt3.s:956    .rodata.str1.4:0000000000000364 .LC28
     /tmp/cc0Aowt3.s:958    .rodata.str1.4:0000000000000384 .LC29
     /tmp/cc0Aowt3.s:960    .rodata.str1.4:00000000000003a4 .LC30
     /tmp/cc0Aowt3.s:962    .rodata.str1.4:00000000000003c4 .LC31
     /tmp/cc0Aowt3.s:964    .rodata.str1.4:00000000000003e4 .LC32
     /tmp/cc0Aowt3.s:966    .rodata.str1.4:0000000000000404 .LC33
     /tmp/cc0Aowt3.s:968    .rodata.str1.4:0000000000000424 .LC34
     /tmp/cc0Aowt3.s:768    .text.test_001_001_execute:0000000000000000 $t
     /tmp/cc0Aowt3.s:773    .text.test_001_001_execute:0000000000000000 test_001_001_execute
     /tmp/cc0Aowt3.s:970    .rodata.str1.4:0000000000000444 .LC35
     /tmp/cc0Aowt3.s:973    .rodata.str1.4:0000000000000470 .LC36
     /tmp/cc0Aowt3.s:975    .rodata.str1.4:0000000000000490 .LC37
     /tmp/cc0Aowt3.s:977    .rodata.str1.4:00000000000004b0 .LC38
     /tmp/cc0Aowt3.s:980    .rodata.str1.4:00000000000004b8 .LC39
     /tmp/cc0Aowt3.s:982    .rodata.str1.4:00000000000004d8 .LC40
     /tmp/cc0Aowt3.s:984    .rodata.str1.4:00000000000004f8 .LC41
     /tmp/cc0Aowt3.s:875    .rodata.test_sequence_001:0000000000000000 test_sequence_001
     /tmp/cc0Aowt3.s:872    .rodata.test_sequence_001:0000000000000000 $d
     /tmp/cc0Aowt3.s:883    .rodata.test_001_001:0000000000000000 test_001_001
     /tmp/cc0Aowt3.s:892    .rodata.test_001_002:0000000000000000 test_001_002
     /tmp/cc0Aowt3.s:880    .rodata.test_001_001:0000000000000000 $d
     /tmp/cc0Aowt3.s:889    .rodata.test_001_002:0000000000000000 $d
     /tmp/cc0Aowt3.s:898    .rodata.str1.4:0000000000000000 $d
                            *COM*:0000000000000001 __gnu_lto_v1
                     .debug_frame:0000000000000010 $d
ARM GAS  /tmp/cc0Aowt3.s 			page 92



UNDEFINED SYMBOLS
test_step
test_print
test_printn
test_println
