ARM GAS  /tmp/ccQneqRX.s 			page 1


   1              		.syntax unified
   2              		.cpu cortex-m3
   3              		.fpu softvfp
   4              		.eabi_attribute 20, 1
   5              		.eabi_attribute 21, 1
   6              		.eabi_attribute 23, 3
   7              		.eabi_attribute 24, 1
   8              		.eabi_attribute 25, 1
   9              		.eabi_attribute 26, 1
  10              		.eabi_attribute 30, 2
  11              		.eabi_attribute 34, 1
  12              		.eabi_attribute 18, 4
  13              		.thumb
  14              		.file	"test_root.c"
  15              		.text
  16              	.Ltext0:
  17              		.section	.gnu.lto_.jmpfuncs.740bfd153261cb2b,"",%progbits
  18 0000 789C6362 		.ascii	"x\234cb`b\300\006>\001q+\020\2630002U3\374j\230\321"
  18      6062C006 
  18      3E01712B 
  18      10B33030 
  18      30325533 
  19 0018 2090C9C8 		.ascii	" \220\311\310 \307\3008\267a\206C&##X\025\222\024\223"
  19      20C7C038 
  19      B7618643 
  19      26232358 
  19      15921493 
  20 002c 1C833844 		.ascii	"\034\2038D\212\031]\212E\216A\033\"\305\212E\227\031"
  20      8A195D8A 
  20      458E411B 
  20      22C58A45 
  20      9719
  21 003e 0E5D6C72 		.ascii	"\016]lr\014^\020)v,\272\202q\333\225\216\333\256\"\024"
  21      0C5E1029 
  21      762CBA82 
  21      71DB958E 
  21      DBAE2214 
  22 0052 5D40C8C0 		.ascii	"]@\310\300\014\"X\200\312\"\0303\0319@\276\022uL)K\314"
  22      0C225880 
  22      CA221833 
  22      193940BE 
  22      12754C29 
  23 0068 4B4E4D51 		.ascii	"KNMQ\310N-\312K\315Q\310\315OIe\020\326\322\322R\010"
  23      C84E2DCA 
  23      4BCD51C8 
  23      CD4F4965 
  23      10D6D2D2 
  24 007e C82F2A51 		.ascii	"\310/*Q\360\314K\313\267R\000\002\006.g ?\265B\327\327"
  24      F0CC4BCB 
  24      B7520002 
  24      062E6720 
  24      3FB542D7 
  25 0093 18220DE4 		.ascii	"\030\"\015\344\246*\204%\026e&\346\225X)0p8\006\371"
  25      A62A8425 
  25      166526E6 
  25      95582930 
  25      703806F9 
ARM GAS  /tmp/ccQneqRX.s 			page 2


  26 00a7 9699EBFA 		.ascii	"\226\231\353\372B$\035\213\22232KR\223KJ\213R\201\222"
  26      42241D8B 
  26      9233324B 
  26      52934B4A 
  26      8B528192 
  27 00bb 5CEECECE 		.ascii	"\\\356\316\316\012&z\026zF0\275\271\005\2319\251E`\223"
  27      0A267A16 
  27      7A4630BD 
  27      B9059939 
  27      A9456093 
  28 00cf 151800EE 		.ascii	"\025\030\000\356\023Xj"
  28      13586A
  29              		.text
  30              		.section	.gnu.lto_.inline.740bfd153261cb2b,"",%progbits
  31 0000 789C6362 		.ascii	"x\234cb`b\300\006\246Ai\026\006\006\341[\014\214`Ul"
  31      6062C006 
  31      A6416916 
  31      0606E15B 
  31      0C8C6055 
  32 0015 0BE4C18A 		.ascii	"\013\344\301\212\231\270\031@\"D\223\214\014\334'@\034"
  32      99B81940 
  32      2244938C 
  32      0CDC2740 
  32      1C
  33 0026 9E179F99 		.ascii	"\236\027\237\231\221\014\001JL\360cf\3409\003\222\343"
  33      910C014A 
  33      4CF06366 
  33      E0390392 
  33      E3
  34 0037 5BB38A05 		.ascii	"[\263\212\005]\216\205\201C\000(\305\366A\017\315j\006"
  34      5D8E8581 
  34      430028C5 
  34      F6410FCD 
  34      6A06
  35 0049 0080DD0D 		.ascii	"\000\200\335\015M"
  35      4D
  36              		.text
  37              		.section	.gnu.lto_.pureconst.740bfd153261cb2b,"",%progbits
  38 0000 789C6362 		.ascii	"x\234cb`b\340d\200\000\026\006\011F\011f\011\026+\000"
  38      6062E064 
  38      80001606 
  38      09460966 
  38      09162B00 
  39 0014 02DE009C 		.ascii	"\002\336\000\234"
  40              		.text
  41              		.section	.gnu.lto_test_print_port_info.740bfd153261cb2b,"",%progbits
  42 0000 789C6362 		.ascii	"x\234cb`b@\007\222@\\\000\024^\005\244\031\231\031\030"
  42      60624007 
  42      92405C00 
  42      145E05A4 
  42      19991918 
  43 0014 99269C63 		.ascii	"\231&\234c`h\344`bd\0041\030\030\031\352\231\030\353"
  43      6068E460 
  43      62640431 
  43      181819EA 
  43      9918EB
  44 0027 2319C16A 		.ascii	"#\031\301j\3273\035x\360\377\377\272\177\307\226\374"
ARM GAS  /tmp/ccQneqRX.s 			page 3


  44      D7331D78 
  44      F0FFFFBA 
  44      7FC796FC 
  45 0037 619CCBC4 		.ascii	"a\234\313\304\005\024aehih\230\240\300\300\220\014V"
  45      05146165 
  45      68696898 
  45      A0C0C090 
  45      0C56
  46 0049 11022441 		.ascii	"\021\002$A\332B\031\231@4\363y\206\226\007\247\026\263"
  46      DA421999 
  46      4034F379 
  46      869607A7 
  46      16B3
  47 005b 27322E64 		.ascii	"'2.dd\005JW3\374j\350h\020\310d\004*\207\230\010\022"
  47      64054A57 
  47      33FC6AE8 
  47      6810C864 
  47      042A8798 
  48 0071 99D1D060 		.ascii	"\231\321\320`\233\311\310(\307\2406\267a\206C&P+T}&"
  48      9BC9C828 
  48      C7A036B7 
  48      61864326 
  48      502B547D 
  49 0086 D03D0C20 		.ascii	"\320=\014 #N?\306j\004\023\262\021\201\231\214,r\014"
  49      234E3FC6 
  49      6A0413B2 
  49      1181998C 
  49      2C720C
  50 0099 56102358 		.ascii	"V\020#X1\2148K\264+\\q\271\342\034q\256`\223c\210\204"
  50      318C384B 
  50      B42B5C71 
  50      B9E21C71 
  50      AE609363 
  51 00af 18C18E61 		.ascii	"\030\301\216a\304\015\242]\221\204\313\0257\211\016"
  51      C40DA25D 
  51      9184CB15 
  51      37890E
  52 00be 8B325C61 		.ascii	"\2132\\aq\207hW42\342r\306]\342\234\301!\3070\025j\006"
  52      71876857 
  52      3432E272 
  52      C65DE29C 
  52      C121C730 
  53 00d5 278A1917 		.ascii	"'\212\031\027\031\032\037\334W\206\031\001\001!@'\000"
  53      191A1FDC 
  53      57861901 
  53      01214027 
  53      00
  54 00e6 530DC80C 		.ascii	"S\015\310\014e==\375\222\324\342\022\375\242\022\375"
  54      653D3DFD 
  54      92D4E212 
  54      FDA212FD 
  55 00f6 E2FCD2A2 		.ascii	"\342\374\322\242\344T\010\027D\304\027\345\347\227\350"
  55      E4540817 
  55      44C417E5 
  55      E797E8
  56 0105 2533086B 		.ascii	"%3\010kii)8\347\347\026d\346\244\026Y)\200\000\003\227"
  56      69692938 
ARM GAS  /tmp/ccQneqRX.s 			page 4


  56      E7E71664 
  56      E6A41659 
  56      29800003 
  57 011a BBB3B382 		.ascii	"\273\263\263\202\211\236\205\236\021D\332\261(9#\263"
  57      899E859E 
  57      1144DAB1 
  57      283923B3 
  58 012a 2435B9A4 		.ascii	"$5\271\244\264(\325J\201\201\3031\310\267\314\\\327"
  58      B428D54A 
  58      8181C331 
  58      C8B7CC5C 
  58      D7
  59 013b 17A6B728 		.ascii	"\027\246\267(U!,\261(31\257\004(\311\005\344\227\244"
  59      55212CB1 
  59      283331AF 
  59      0428C905 
  59      E497A4
  60 014e 56E8FA1A 		.ascii	"V\350\372\032C\244\003\200\\\005\317\274\264|\260\331"
  60      43A40380 
  60      5C05CFBC 
  60      B47CB0D9 
  61 015e 0CA28E29 		.ascii	"\014\242\216)e\211y\311\251)\012\331\251Ey\2519\012"
  61      658979C9 
  61      A9290AD9 
  61      A94579A9 
  61      390A
  62 0170 B9F929A9 		.ascii	"\271\371)\251\014\000)\016\325\330"
  62      0C00290E 
  62      D5D8
  63              		.text
  64              		.section	.gnu.lto_test_terminate_threads.740bfd153261cb2b,"",%progbits
  65 0000 789C5D92 		.ascii	"x\234]\222\277K\034A\024\307\277\337\231\235\3355\211"
  65      BF4B1C41 
  65      14C7BFDF 
  65      999DDD35 
  65      89
  66 0011 20366925 		.ascii	" 6i%\242i\364\016\233\374\017\366\236$U\220E\216-\302"
  66      A269F40E 
  66      9BFC0FF6 
  66      9E245590 
  66      458E2DC2 
  67 0025 C179A952 		.ascii	"\301y\251R8\353\235`\023\020I\241&\202\"\021\013!\177"
  67      38EB9D60 
  67      131049A1 
  67      26822211 
  67      0B217F
  68 0038 401AAF08 		.ascii	"@\032\257\010\311\0251X\012\026\233\0246\311\037\020"
  68      C9153158 
  68      0A169B14 
  68      36C91F10 
  69 0048 C2C1F966 		.ascii	"\302\301\371f\177\334\031\037\354\274y3\357}\336\217"
  69      7FDC191F 
  69      ECBC7933 
  69      EF7DDE8F 
  70 0058 590585FB 		.ascii	"Y\005\205\373\262,_\237\300S\321\014A\265}\001$\241"
  70      B22C5F9F 
  70      C053D10C 
ARM GAS  /tmp/ccQneqRX.s 			page 5


  70      41B57D01 
  70      24A1
  71 006a A29F6FB4 		.ascii	"\242\237o\264\362\276>\203}`z\217a\037y4\371\261\311"
  71      F2BE3E83 
  71      7D607A8F 
  71      611F7934 
  71      F9B1C9
  72 007d EFBBA1AF 		.ascii	"\357\273\241\257\364\333.\304!h\217\213C@\272s\020\353"
  72      F4DB2EC4 
  72      21688F8B 
  72      4340BA73 
  72      10EB
  73 008f 4A7BC60F 		.ascii	"J{\306\017\270\376\202.\017\237\340\310\332\235t\363"
  73      B8FE822E 
  73      0F9FE0C8 
  73      DA9D74F3 
  74 009f E427F7EC 		.ascii	"\344'\367\354y\347\320\366\007\0032\246\3244KD\304s"
  74      79E7D0F6 
  74      070332A6 
  74      D4344B44 
  74      C473
  75 00b1 31389529 		.ascii	"18\225)\345\375_\344'u\236\016\006\375\313\263_\007"
  75      E5FD5FE4 
  75      27759E0E 
  75      06FDCBB3 
  75      5F07
  76 00c3 9C0C8915 		.ascii	"\234\014\211\025\036\011\317 \246\016\012C\304\240c"
  76      1E09CF20 
  76      A60E0A43 
  76      C4A063
  77 00d2 EDF65469 		.ascii	"\355\366TiGY\336%Y\245\262\032\225(\335\303F\272\377"
  77      4759DE25 
  77      59A5B21A 
  77      9528DDC3 
  77      46BAFF
  78 00e5 C55FE131 		.ascii	"\305_\3411M\021\350\362\015\023\325\250!\355\350\357"
  78      4D11E8F2 
  78      0D13D5A8 
  78      21EDE8EF 
  79 00f5 D8B8FE7B 		.ascii	"\330\270\376{\322U\271c\235f\036s\222\354=\366\023k"
  79      D255B963 
  79      9D661E73 
  79      92EC3DF6 
  79      136B
  80 0107 27627A6F 		.ascii	"'bzo\360\317n\271\235y\225E;\212\311\020u\216p\337\320"
  80      F0CF6EB9 
  80      9D799545 
  80      3B8AC910 
  80      758E70DF 
  81 011c F9932C0C 		.ascii	"\371\223,\014!\316I\337\355\253F\017\237\347\365\017"
  81      21CE49DF 
  81      EDAB460F 
  81      9FE7F50F 
  82 012c 74D20F1F 		.ascii	"t\322\017\037\037\346~\300\220\355G\005Kbc\006e\214"
  82      1FE67EC0 
  82      90ED4705 
  82      4B626306 
ARM GAS  /tmp/ccQneqRX.s 			page 6


  82      658C
  83 013e 294A6C6F 		.ascii	")Jlo\265\177\277[,\351\201$\316zq!=\250\273=\326G\301"
  83      B57FBF5B 
  83      2CE98124 
  83      CE7A7121 
  83      3DA8BB3D 
  84 0155 3EE47DDC 		.ascii	">\344}\334\034B\014/\231Uz\223\004%+\007\215\036\341"
  84      1C420C2F 
  84      99557A93 
  84      04252B07 
  84      8D1EE1
  85 0168 0A2CC6A4 		.ascii	"\012,\306\244N\265\300\314\356\230c\005n\244\227H\322"
  85      4EB5C0CC 
  85      EE986305 
  85      6EA49748 
  85      D2
  86 0179 8399B2F6 		.ascii	"\203\231\262\366\\\226\004\331\036w?\333t\245Rm\255"
  86      5C9604D9 
  86      1E773FDB 
  86      74A5526D 
  86      AD
  87 018a AEB5AACD 		.ascii	"\256\265\252\315Vu\255\361\272\031\255\346\246[^6\033"
  87      5675ADF1 
  87      BA19ADE6 
  87      A65B5E36 
  87      1B
  88 019b 8D562502 		.ascii	"\215V%\002\343[N,\204l"
  88      E35B4E2C 
  88      846C
  89              		.text
  90              		.section	.gnu.lto_test_wait_threads.740bfd153261cb2b,"",%progbits
  91 0000 789C9552 		.ascii	"x\234\225R\277k\024A\024\376\276\231\235\335M0 il\203"
  91      BF6B1441 
  91      14FEBE99 
  91      9DDD4D30 
  91      20696C83 
  92 0014 626CBC3B 		.ascii	"bl\274;l\354\374\003\204\224\271\240\225\204%\204-\344"
  92      6CECFC03 
  92      8494B9A0 
  92      95842584 
  92      2DE4
  93 0026 E0725616 		.ascii	"\340rV\026\231\315\235\220F\010\202\220hc\260\221\030"
  93      99CD9D90 
  93      46088290 
  93      6863B091 
  93      18
  94 0037 4DA9C426 		.ascii	"M\251\304&W\210\271\"\206\024\202\202\305\246\320\312"
  94      5788B922 
  94      86148282 
  94      C5A6D0CA 
  95 0047 3F404438 		.ascii	"?@D8\337\354\354^~t>\330\231y\277\276\367\275\367VA"
  95      DFECEC5E 
  95      7E743ED8 
  95      9979BFBE 
  95      F7BDF756 
  96 005c E1BCCCC9 		.ascii	"\341\274\314\3117#\346kr3\006\325\332g \213\025C\377"
  96      3723E66B 
ARM GAS  /tmp/ccQneqRX.s 			page 7


  96      723306D5 
  96      DA67208B 
  96      1543FF
  97 006f D02AF874 		.ascii	"\320*\370t\023v\334\014.\301^\010h\274\331x\177?\016"
  97      1376DC0C 
  97      2EC15E08 
  97      68BCD978 
  97      7F3F0E
  98 0082 957EDC87 		.ascii	"\225~\334\207\004D\335\011\011\210Hg\007\261\254t`\302"
  98      0444DD09 
  98      09884867 
  98      07B1AC74 
  98      60C2
  99 0094 88CB77E9 		.ascii	"\210\313w\351\352\36026\255}\222\377\330:\346\206\335"
  99      EAF03236 
  99      AD7D92FF 
  99      D83AE686 
  99      DD
 100 00a5 EBBDB07F 		.ascii	"\353\275\260\177\207C2\245p\232&\022\342\216(\234*."
 100      874332A5 
 100      709A2612 
 100      E28E289C 
 100      2A2E
 101 00b7 159C25B9 		.ascii	"\025\234%\271\243\366\362\341p\373\313\357\343]N\216"
 101      A3F6F2E1 
 101      70FBCBEF 
 101      E35D4E8E 
 102 00c7 11F3DC14 		.ascii	"\021\363\334\024<\203\224:.\025\021\203\236\265kS\225"
 102      3C83943A 
 102      2E151183 
 102      9EB56B53 
 102      95
 103 00d8 9E147567 		.ascii	"\236\024ug\345\024fM*\271\364\000+\371\233\217\341<"
 103      E514664D 
 103      2AB9F400 
 103      2BF99B8F 
 103      E13C
 104 00ea 5FD29489 		.ascii	"_\322\224\211\256\336\250P\223\032\322\216>\300\312"
 104      AEDEA850 
 104      931AD28E 
 104      3EC0CA
 105 00f9 F7AFAFFB 		.ascii	"\367\257\257\373\312\007.\322\324p]\212=\307\263\314"
 105      CA072ED2 
 105      D4705D8A 
 105      3DC7B3CC 
 106 0109 DA8B2983 		.ascii	"\332\213)\203\207\370cW\335\313\334/\262\035\212) \026"
 106      87F86357 
 106      DDCBDC2F 
 106      B21D8A29 
 106      2016
 107 011b 7902B78F 		.ascii	"y\002\267\217\336\257\354\306\010\304\005\351\323}5"
 107      DEAFECC6 
 107      08C405E9 
 107      D37D35
 108 012a 19E0434D 		.ascii	"\031\340CM\037\242\227\357<\032\367q\300\010;LJ,\311"
 108      1FA297EF 
 108      3C1AF771 
ARM GAS  /tmp/ccQneqRX.s 			page 8


 108      C0083B4C 
 108      4A2CC9
 109 013d 4D190142 		.ascii	"M\031\001B\353\375\372\333\243\222V\015\333V\344\326"
 109      EBFDFADB 
 109      A392560D 
 109      DB56E4D6 
 110 014d 7F133BC3 		.ascii	"\177\023;\303\243)n\337rw\265\373\356\351\355\212m,"
 110      A3296EDF 
 110      7277B5FB 
 110      EEE9ED8A 
 110      6D2C
 111 015f F1C56C5C 		.ascii	"\361\305l\\\326\000\352\364\314\304[%\207\220}\273\271"
 111      D600EAF4 
 111      CCC45B25 
 111      87907DBB 
 111      B9
 112 0170 8AA572B2 		.ascii	"\212\245r\262\350\374g\026UX\036\350d\251\337\300r\354"
 112      E8FC6716 
 112      55581EE8 
 112      64A9DFC0 
 112      72EC
 113 0182 EA951630 		.ascii	"\352\225\0260\263>\346\260\"\267\242#d\371\356\325j"
 113      B33EE6B0 
 113      22B7A223 
 113      64F9EED5 
 113      6A
 114 0193 165E6605 		.ascii	"\026^f\005\262;\341~\336+\365z\243\263\260\324i\264"
 114      B23BE17E 
 114      DE2BF57A 
 114      A3B3B0D4 
 114      69B4
 115 01a5 3B8DA5D6 		.ascii	";\215\245\326\203v\262\340Uw\334k\267Z\235z\002\246"
 115      8376B2E0 
 115      5577DC6B 
 115      B75A9D7A 
 115      02A6
 116 01b7 FF00C42F 		.ascii	"\377\000\304/\225\331"
 116      95D9
 117              		.text
 118              		.section	.gnu.lto_test_wait_tick.740bfd153261cb2b,"",%progbits
 119 0000 789C8D53 		.ascii	"x\234\215SOH\024a\024\177ov\266]5\303\243V\330bD\205"
 119      4F481461 
 119      147F6F76 
 119      B65D35C3 
 119      A356D862 
 120 0016 B55376E8 		.ascii	"\265Sv\350Z\330Ep;\270\006uZ\306q\330\035\330qdf\\\224"
 120      5AD84570 
 120      3BB80675 
 120      5AC671D8 
 120      1DD87164 
 121 002d 0ECEEA1E 		.ascii	"\016\316\352\036\242 d)\210d)\323\002E\224\222(2b\353"
 121      A2206429 
 121      886429D3 
 121      02459492 
 121      283262EB 
 122 0041 A4902B75 		.ascii	"\244\220+uK\017\355\305\203\005a\267\212p{\337|6\272"
 122      4B0FEDC5 
ARM GAS  /tmp/ccQneqRX.s 			page 9


 122      830561B7 
 122      8A707BDF 
 122      7C36BA
 123 0054 9B5403DF 		.ascii	"\233T\003\337\277\371\275\357\275\337\357\375f\004\020"
 123      BFF9BDEF 
 123      BDDFEFFD 
 123      660410
 124 0063 A0F269A0 		.ascii	"\240\362i\240!\373\000\302\010\200>@a\244\000\220\016"
 124      21FB00C2 
 124      08803E40 
 124      61A40090 
 124      0E
 125 0074 0A886C03 		.ascii	"\012\210l\003\010\203\002\016^A7vV\310\027K\245\231"
 125      0883020E 
 125      5E413776 
 125      56C8174B 
 125      A599
 126 0086 CDEB132F 		.ascii	"\315\353\023/qZ\010\212\240!\370ib\250\0372\2163\022"
 126      715A088A 
 126      A021F869 
 126      62A81F32 
 126      8E3312
 127 0099 0250DCD8 		.ascii	"\002P\334\330N\232Y\202K(\260\325\267\014\231\342\342"
 127      4E9A5982 
 127      4B28B0D5 
 127      B70C99E2 
 127      E2
 128 00aa C3808C63 		.ascii	"\303\200\214c\350'\370*\374p\2569u\032\012\012\362\334"
 128      E827F82A 
 128      FC70AE39 
 128      751A0A0A 
 128      F2DC
 129 00bc 9791F220 		.ascii	"\227\221\362 %#.\2130\024\004h\2021\307\311\026s\223"
 129      25232E8B 
 129      30140468 
 129      8231C7C9 
 129      167393
 130 00cf 4BAF313B 		.ascii	"K\2571;\354,8\231|\251\204\2074\024\005\270\210\254"
 130      EC2C3899 
 130      7CA98487 
 130      341405B8 
 130      88AC
 131 00e1 0EBBE30F 		.ascii	"\016\273\343\017\271\313\036\261\\\026{'\022\033(\300"
 131      B9CB1EB1 
 131      5C167B27 
 131      121B28C0 
 132 00f1 D0D7E9E1 		.ascii	"\320\327\351\341G\373=~|\223\237\177?\352;&\34386y\344"
 132      47FB3D7E 
 132      7C939F7F 
 132      3FEA3B26 
 132      E3383679 
 133 0106 F3E3B7BE 		.ascii	"\363\343\267\276\325\034\364N\353\267_\325z\2728\231"
 133      D51CF44E 
 133      EBB75FD5 
 133      7ABA3899 
 134 0116 FCF7959B 		.ascii	"\374\367\225\233\365\316\375\364\210\263IT\210\260\000"
 134      F5CEFDF4 
ARM GAS  /tmp/ccQneqRX.s 			page 10


 134      88B34954 
 134      88B000
 135 0125 73B84DA5 		.ascii	"s\270M\245\216S\371\243\311[\011o\254\265P\257\335\016"
 135      8E53F9A3 
 135      C95B096F 
 135      ACB550AF 
 135      DD0E
 136 0137 28E80629 		.ascii	"(\350\006)\244VA\221\006k\0125\033a\236^\021\346\343"
 136      A4564191 
 136      066B0A35 
 136      1B619E5E 
 136      11E6E3
 137 014a 5635C25B 		.ascii	"V5\302[\3149w\316i\030(S\265\215/o\341A^j\011\336\254"
 137      CC3977CE 
 137      69182853 
 137      B58D2F6F 
 137      E1415E6A 
 138 0161 FCFCBC3E 		.ascii	"\374\374\274>\231\305J\301\317&V}\276\035\342r\2368"
 138      99C54AC1 
 138      CF26567D 
 138      BE1DE272 
 138      9E38
 139 0173 A7F4F400 		.ascii	"\247\364\364\000#6\351\022\333C#@\303M\030G\261\031"
 139      2336E912 
 139      DB432340 
 139      C34D1847 
 139      B119
 140 0185 A69C4CBA 		.ascii	"\246\234L\272\370\261P\310\242\250a\325(\334%\375d]"
 140      F8B150C8 
 140      A2A861D5 
 140      28DC25FD 
 140      645D
 141 0197 356353E3 		.ascii	"5cS\343\320#\272\304j\\\002]\314N\031\347\270\242%\030"
 141      D023BAC4 
 141      6A5C025D 
 141      CC4E19E7 
 141      B8A22518 
 142 01ab FA32BC4F 		.ascii	"\3722\274O\306't\214\243\237\322\271\356n\274X\233]"
 142      C627748C 
 142      A39FD2B9 
 142      EE6EBC58 
 142      9B5D
 143 01bd 455E51C6 		.ascii	"E^Q\306)\327\203J\333\327\013\225\266\3138Am\373\017"
 143      29D7834A 
 143      DBD70B95 
 143      B6CB3841 
 143      6DFB0F
 144 01d0 DFE16FBE 		.ascii	"\337\341o\276\177\3121\337\237\227\373~\257\266q\307"
 144      7FCA31DF 
 144      9F97FB7E 
 144      AFB671C7 
 145 01e0 27ECF568 		.ascii	"'\354\365h\241v\273/U\334\260\352]\314\222q\2066^\351"
 145      A176BB2F 
 145      55DCB0EA 
 145      5DCC9271 
 145      86365EE9 
 146 01f4 DFE6C8F8 		.ascii	"\337\346\310\370\030\0339\255w\220\336x\360a/7?\316"
ARM GAS  /tmp/ccQneqRX.s 			page 11


 146      181B39AD 
 146      7790DE78 
 146      F0612F37 
 146      3FCE
 147 0206 13B09F04 		.ascii	"\023\260\237\004\331\317\301\202\017\207\303\222\255"
 147      D9CFC182 
 147      0F87C392 
 147      AD
 148 0213 5AB664DA 		.ascii	"Z\266d\332\222e\364\231\212\312\217l\212\231\206a\207"
 148      9265F499 
 148      8ACA8F6C 
 148      8A998661 
 148      87
 149 0224 15384A31 		.ascii	"\0258J1\206%)\206\256\033=R\257a\332\226t\276#\322\032"
 149      86252986 
 149      AE1B3D52 
 149      AF61DA96 
 149      74BE23D2 
 150 0239 E9979484 		.ascii	"\351\227\224\204b\230j,uV\017'\300\237\222\223}jsY\264"
 150      62986A2C 
 150      75560F27 
 150      C09F9293 
 150      7D6A7359 
 151 024e DA6F4BAD 		.ascii	"\332oK\255\221h[T\322z\224d_\267*)\272\245Y\261\270"
 151      91685B54 
 151      D27A9464 
 151      5FB72A29 
 151      BAA559B1 
 152 0263 A2D08D06 		.ascii	"\242\320\215\006\036K\265=4a\015X\204\324\357\202\244"
 152      1E4BB53D 
 152      34610D58 
 152      84D4EF82 
 152      A4
 153 0274 6C020284 		.ascii	"l\002\002\204\333\232\256\326E\242\035\241.\331R{M\355"
 153      DB9AAED6 
 153      45A21DA1 
 153      2ED9527B 
 153      4DED
 154 0286 44E8C829 		.ascii	"D\350\310)\020L\010\350\252n\230\003p\222_N\310\311"
 154      104C08E8 
 154      AA6E9803 
 154      70925F4E 
 154      C8C9
 155 0298 2DB6D1CE 		.ascii	"-\266\321\316\310\231\026\251\275\375\202\324\331\026"
 155      C89916A9 
 155      BDFD82D4 
 155      D916
 156 02a6 499D6648 		.ascii	"I\235fH\214\364%\223\335\224\361\370?\345\261z&E\376"
 156      8CF42593 
 156      DD94F1F8 
 156      3FE5B17A 
 156      2645FE
 157 02b9 02130C39 		.ascii	"\002\023\0149J"
 157      4A
 158              		.text
 159              		.section	.gnu.lto_.symbol_nodes.740bfd153261cb2b,"",%progbits
 160 0000 789C4DCD 		.ascii	"x\234M\315IR\002A\020@\321\374U]\315$\342F\206sy\240"
ARM GAS  /tmp/ccQneqRX.s 			page 12


 160      49520241 
 160      1040D1FC 
 160      555DCD24 
 160      E2468673 
 161 0016 24828D4B 		.ascii	"$\202\215KO\340\306\215\367`\317\005\034\240i\006Q\300"
 161      4FE0C68D 
 161      F760CF05 
 161      1CA06906 
 161      51C0
 162 0028 31581A76 		.ascii	"1X\032v\322\0256\265y\361#3\262\2348\271B\312\347\036"
 162      D21536B5 
 162      79F12333 
 162      B29C38B9 
 162      42CAE71E 
 163 003c 51919B89 		.ascii	"Q\221\233\211\210\352\3555n\206RexF\202\212\313Pw\262"
 163      88EAED35 
 163      6E865265 
 163      7846828A 
 163      CB5077B2 
 164 0050 3447FDC9 		.ascii	"4G\375\311\322\024\212\245\360\2043\036\360FN\"\005"
 164      D2148AA5 
 164      F084331E 
 164      F0464E22 
 164      05
 165 0061 0B82B124 		.ascii	"\013\202\261$5V\324\2145u\343\205\206\261\241i\274\322"
 165      3556D48C 
 165      3575E385 
 165      86B1A169 
 165      BCD2
 166 0073 32DE3833 		.ascii	"2\33683\266\264\215\035\347\306\236\216\361\316E\001"
 166      B6B48D1D 
 166      E7C69E8E 
 166      F1CE4501 
 167 0083 9F68527E 		.ascii	"\237hR~?\034\302\007\032\252\372B\323\252\276\321ZU"
 167      3F1CC207 
 167      1AAAFA42 
 167      D3AABED1 
 167      5A55
 168 0095 3F68FDBF 		.ascii	"?h\375\277\274te4\373-\274\224\273\243]\031\307\316"
 168      BC746534 
 168      FB2DBC94 
 168      BBA35D19 
 168      C7CE
 169 00a7 638FB238 		.ascii	"c\217\2628\317\342<vn\322\223\374\376\220z\337/M\006"
 169      CFE23C76 
 169      6ED293FC 
 169      FE907ADF 
 169      2F4D06
 170 00ba C77BF207 		.ascii	"\307{\362\007\246E_\201"
 170      A6455F81 
 171              		.text
 172              		.section	.gnu.lto_.refs.740bfd153261cb2b,"",%progbits
 173 0000 789C35C1 		.ascii	"x\2345\301\307\021\2000\014\0000[\\\350\201P6a\377\335"
 173      C7118030 
 173      0C00305B 
 173      5CE88150 
 173      3661FFDD 
ARM GAS  /tmp/ccQneqRX.s 			page 13


 174 0014 78704842 		.ascii	"xpHB<\361\311\014\272\220J\321\377\353`4\231-V\325f"
 174      3CF1C90C 
 174      BA904AD1 
 174      FFEB6034 
 174      992D56D5 
 175 0029 D71C4E97 		.ascii	"\327\034N\227;^\"\266\001\\"
 175      3B5E22B6 
 175      015C
 176              		.text
 177              		.section	.gnu.lto_.decls.740bfd153261cb2b,"",%progbits
 178 0000 789CBD5B 		.ascii	"x\234\275[}p\024U\266\357\217\231L\206\204o\265pK\326"
 178      7D701455 
 178      B6EF8F99 
 178      4C86846F 
 178      B5704BD6 
 179 0014 B8BBAEAB 		.ascii	"\270\273\256\253\273\222\004\020\241\352\275\005\015"
 179      BB920410 
 179      A1EABD05 
 179      0D
 180 0021 945A25FB 		.ascii	"\224Z%\373\250\200\357Y\265\365\336l;iH\036\223I\336"
 180      A880EF59 
 180      B5F5DE6C 
 180      3B69481E 
 180      9349DE
 181 0034 4C878F7A 		.ascii	"L\207\217z\177\330\011\312\227\260\204D |\217\210\362"
 181      7FD809CA 
 181      97B08444 
 181      207C8F88 
 181      F2
 182 0045 0D895101 		.ascii	"\015\211Q\001\2110 `\010\312W\200\010y\222\021V@\024"
 182      89302060 
 182      08CA5780 
 182      08799211 
 182      564014
 183 0058 F9521031 		.ascii	"\371R\0201\316;\367v\367t\337\236\3333\335\241\334\256"
 183      CE3BF776 
 183      F774DF9E 
 183      DB33DDA1 
 183      DCAE
 184 006a BA77BA7B 		.ascii	"\272w\272{\356\371\235s\3179\367\334\323\367vs\014\307"
 184      EEF99D73 
 184      CF39F7DC 
 184      D3F77673 
 184      0CC7
 185 007c 3CC0314C 		.ascii	"<\3001L\034\216{\236f\230&/\303\270\031\206\3713\024"
 185      1C8E7B9E 
 185      6698262F 
 185      C3B81986 
 185      F93314
 186 008f 3865DE80 		.ascii	"8e\336\200\262\012\312\032(k\241\254\207\262\001\312"
 186      B20ACA1A 
 186      286BA1AC 
 186      87B201CA 
 187 009f 26289BA1 		.ascii	"&(\233\241\3243\312\201\332~\000e'\224\335P\366Bi\206"
 187      D433CA81 
 187      DA7E0065 
 187      2794DD50 
ARM GAS  /tmp/ccQneqRX.s 			page 14


 187      F6426986 
 188 00b3 7208CA11 		.ascii	"r\010\312\021(\323Y\206\231\015\2457\234\377\035~k\240"
 188      28D35986 
 188      990DA537 
 188      9CFF1D7E 
 188      6BA0
 189 00c5 2C83B20E 		.ascii	",\203\262\016\312^(\037Ci\201\362)\224#PZ\241\234\204"
 189      CA5E281F 
 189      436981F2 
 189      29942350 
 189      5AA19C84 
 190 00d9 720ACAFF 		.ascii	"r\012\312\377A\351\200r\026\312\227P.\262\014q \276"
 190      41E98072 
 190      16CA9750 
 190      2EB20C71 
 190      20BE
 191 00eb DDA05C62 		.ascii	"\335\240\\bu9\017Pd\325\372\202\016^\245;\244\312i>"
 191      75390F50 
 191      64D5FA82 
 191      0E5EA53B 
 191      A4CA693E 
 192 00ff 503F3219 		.ascii	"P?2\031E\027=\240dCi\2052\017x|\015\345\033(G\325\266"
 192      45173DA0 
 192      64436985 
 192      320F787C 
 192      0DE51B28 
 193 0116 9CDA1EF5 		.ascii	"\234\332\036\365\223U\373g<v\247\301\272\014e\006\253"
 193      9355FB67 
 193      3C76A7C1 
 193      BA0C6506 
 193      AB
 194 0127 63ED56F5 		.ascii	"c\355V\365E\303\332\253\322{T\335\177\013\377\277\006"
 194      45C3DAAB 
 194      D27B54DD 
 194      7F0BFFBF 
 194      06
 195 0138 E59201FB 		.ascii	"\345\222\001\373\012\\_\203r\003\312wP~\317)XY\360\233"
 195      0A5C5F83 
 195      7203CA77 
 195      507ECF29 
 195      5859F09B 
 196 014c A562205B 		.ascii	"\245b [<\002\327\217Ay\034J\036\224aP\376\005\312p("
 196      3C02D78F 
 196      41791C4A 
 196      1E946150 
 196      FE05CA70 
 197 0161 4F4319C5 		.ascii	"OC\031\305%\353%\213\231-\313Urd\272\374ls\217\336L"
 197      25EB258B 
 197      992DCB55 
 197      7264BAFC 
 197      6C738FDE 
 198 0176 B50C474E 		.ascii	"\265\014GN]\017/3\023\335\216\275%\367\353\3070/\262"
 198      5D0F2F33 
 198      13DD8EBD 
 198      25F7EBC7 
 198      302FB2
 199 0189 020BB732 		.ascii	"\002\013\2672\361I\266\0273\177\230Y\015M\241='\260"
ARM GAS  /tmp/ccQneqRX.s 			page 15


 199      F149B617 
 199      337F9859 
 199      0D4DA13D 
 199      27B0
 200 019b 6FB25EE8 		.ascii	"o\262^\350(\307&\303\243C\371\037\035\210\\9\327\316"
 200      28C726C3 
 200      A343F91F 
 200      1D885C39 
 200      D7CE
 201 01ad E26C027D 		.ascii	"\342l\002}-\253\301\337\253\222\255b{\3433,\214\254"
 201      2DABC1DF 
 201      AB92AD62 
 201      7BE3332C 
 201      8CAC
 202 01bf CA885BA8 		.ascii	"\312\210[\250$9\032\205K\245x\333\300(\333\253\237\334"
 202      24391A85 
 202      4BA578DB 
 202      C028DBAB 
 202      9FDC
 203 01d1 A38A6245 		.ascii	"\243\212bE\367\006\233\225F!\212\270*}]B\324\276*\300"
 203      F7069B95 
 203      46218AB8 
 203      2A7D5D42 
 203      D4BE2AC0 
 204 01e5 5AC7A2AE 		.ascii	"Z\307\242\256\263\020\265O\032Q\3278\023u\214F\337M"
 204      B310B54F 
 204      1A51D738 
 204      13758C46 
 204      DF4D
 205 01f7 A5DFE058 		.ascii	"\245\337\340X\322\215\026\222z\323H\272>\265\244\221"
 205      D28D1692 
 205      7AD348BA 
 205      3EB5A491 
 206 0207 11265147 		.ascii	"\021&QGh\000\231*\300f\307\242n\261\020\325\223F\324"
 206      6800992A 
 206      C066C7A2 
 206      6EB110D5 
 206      9346D4
 207 021a 4DBAA8AA 		.ascii	"M\272\250\252\347\313\323\345?\254\355\221\240\350\245"
 207      E7CBD3E5 
 207      3FACED91 
 207      A0E8A5
 208 0229 51A02184 		.ascii	"Q\240!\204]\277:\266e\351\275\262K`\353\261\363\377"
 208      5DBF3AB6 
 208      65E9BDB2 
 208      4B60EBB1 
 208      F3FF
 209 023b 9E651E63 		.ascii	"\236e\036c\326)#\242\352WIc\300\011n\307\366s\234,g"
 209      D62923A2 
 209      EA574963 
 209      C0096EC7 
 209      F6739C2C 
 210 0250 0AECBB18 		.ascii	"\012\354\273\030\371\005\026\004ld\037s\214\3239}\315"
 210      F9051604 
 210      6C641F73 
 210      8CD3397D 
 210      CD
ARM GAS  /tmp/ccQneqRX.s 			page 16


 211 0261 308CB315 		.ascii	"0\214\263\025\343\314aI \201\345\275F\001\361\265\326"
 211      E3CC6149 
 211      2081E5BD 
 211      4601F1B5 
 211      D6
 212 0272 00A1F15E 		.ascii	"\000\241\361^\375$\036\347\231_\260\361\203\314\012"
 212      FD241EE7 
 212      995FB0F1 
 212      83CC0A
 213 0281 39128B75 		.ascii	"9\022\213u\264t\010\213\345\350+r<\3762s\037\263@\265"
 213      B474088B 
 213      E5E82B72 
 213      3CFE3273 
 213      1FB340B5 
 214 0295 BACC4A02 		.ascii	"\272\314J\002\373\347{-\255\267\203\275O={Ae\3141;L"
 214      FBE77B2D 
 214      ADB783BD 
 214      4F3D7B41 
 214      65CC313B 
 215 02aa BD85A8C9 		.ascii	"\275\205\250\311\274\205\360\344\2652\217\321P\373\017"
 215      BC85F0E4 
 215      B5328FD1 
 215      50FB0F
 216 02b9 D8074941 		.ascii	"\330\007IA\233X\"F*rEW\264dWW\306\342\361\007\025^\034"
 216      9B582246 
 216      2A724557 
 216      B4645757 
 216      C6E2F107 
 217 02d0 CC6876D0 		.ascii	"\314hv\320w\232\321wQ\321\217\233\321/\330B\337mF\337"
 217      779AD177 
 217      51D18F9B 
 217      D12FD842 
 217      DF6D46DF 
 218 02e4 43458FB7 		.ascii	"CE\217\267\314\275_\216TE\343\361\341f\225\326\263\326"
 218      CCBD5F8E 
 218      5445E3F1 
 218      E16695D6 
 218      B3D6
 219 02f6 23691F45 		.ascii	"#i\037E\247\267\351rU\311\365ke\267\002\207\010\366"
 219      A7B7E972 
 219      55C9F56B 
 219      65B70287 
 219      08F6
 220 0308 826034B7 		.ascii	"\202`4\267T\361\366'\213\031\253\2165\034\373\266\212"
 220      54F1F627 
 220      8B19AB8E 
 220      351CFBB6 
 220      8A
 221 0319 9D3F2DD2 		.ascii	"\235?-\322,_\215\307{:0\376\001UP^\341AD\232\304,\026"
 221      2C5F8DC7 
 221      7B3A30FE 
 221      0155505E 
 221      E141449A 
 222 0330 ED57A78F 		.ascii	"\355W\247\217\025b\032\023\330\325\354\303v\247\250"
 222      15621A13 
 222      D8D5ECC3 
 222      76A7A8
ARM GAS  /tmp/ccQneqRX.s 			page 17


 223 033f 24E607F5 		.ascii	"$\346\007\365\270\241+\012\353j%g\326\225\322\350SZ"
 223      B8A12B0A 
 223      EB6A2567 
 223      D695D2E8 
 223      535A
 224 0351 EFA3DB0E 		.ascii	"\357\243\333\016\316\221Y\315\011\016`'\330h\001p\230"
 224      CE9159CD 
 224      090E6027 
 224      D8680170 
 224      98
 225 0362 AABE33B5 		.ascii	"\252\2763\265{]\213\345=NG\316\321\024\312\353\303\314"
 225      7B5D8BE5 
 225      3D4E47CE 
 225      D114CAEB 
 225      C3CC
 226 0374 C7134AB3 		.ascii	"\307\023J\263\256\271\210K\003\030\311$\302\314\225"
 226      AEB9884B 
 226      0318C924 
 226      C2CC95
 227 0383 95FD5118 		.ascii	"\225\375Q\030<\316\366\001\220\023&\251\323\202p\314"
 227      3CCEF601 
 227      901326A9 
 227      D38270CC 
 228 0393 194CD206 		.ascii	"\031L\322\006\344\012\241\222X\304\032\026}^\305VB\017"
 228      E40AA192 
 228      58C41A16 
 228      7D5EC556 
 228      420F
 229 03a5 94FF188A 		.ascii	"\224\377\030\2122\324\343!&\002\004\321[-\313X9\262"
 229      32D4E321 
 229      260204D1 
 229      5B2DCB58 
 229      39B2
 230 03b7 87A5B024 		.ascii	"\207\245\260$f\026U\354y\227\232]8:\266c\301\247\361"
 230      661655EC 
 230      79979A5D 
 230      383AB663 
 230      C1A7F1
 231 03ca 54C12323 		.ascii	"T\301##\254`8\246\026\223\234I\022\274\355\260&\370"
 231      AC6038A6 
 231      16939C49 
 231      12BCEDB0 
 231      26F8
 232 03dc 191B8257 		.ascii	"\031\033\202WE\217\316^~?\022\\`[\301\2358fu\002\227"
 232      458FCE5E 
 232      7E3F125C 
 232      605BC19D 
 232      38667502 
 233 03f1 66B6C4D4 		.ascii	"f\266\304\324\246yk\017\257\011\357\030\304\023A\003"
 233      A6796B0F 
 233      AF09EF18 
 233      C4134103 
 234 0401 5BE7182C 		.ascii	"[\347\030,\207&\252\346}zo\0056\206\007\316\027\354"
 234      8726AAE6 
 234      7D7A6F05 
 234      368607CE 
 234      17EC
ARM GAS  /tmp/ccQneqRX.s 			page 18


 235 0413 43509F83 		.ascii	"CP\237\203:qp\314f^\263)Mu\351\273p\273e\031V\211:\200"
 235      3A7170CC 
 235      665EB329 
 235      4D75E9BB 
 235      70BB6519 
 236 042b 1587A40F 		.ascii	"\025\207\244\017C\325\234\247\226\356=\312N\303Z\277"
 236      43D59CA7 
 236      96EE3DCA 
 236      4EC35ABF 
 237 043b 80A7BB0B 		.ascii	"\200\247\273\013<u\336\264\001\325\261n\316\237\260"
 237      3C75DEB4 
 237      01D5B16E 
 237      CE9FB0
 238 044a 675CC240 		.ascii	"g\\\302@W\272\014\3249\275I\231\200/c\240\037x\363\004"
 238      57BA0CD4 
 238      39BD4999 
 238      802F63A0 
 238      1F78F304 
 239 045e EC314DC0 		.ascii	"\3541M\300\036r\232\364x\365\023\364<\327\223\371\205"
 239      1E729AF4 
 239      78F513F4 
 239      3CD793F9 
 239      85
 240 046f 9BC33070 		.ascii	"\233\3030p\231\014Gs\227L+\303\311\261\372\2663\034"
 240      990C4773 
 240      974C2BC3 
 240      C9B1FAB6 
 240      331C
 241 0481 9AC1796D 		.ascii	"\232\301ym\374dX\351\210cfb^\327\315\343\247\375l\363"
 241      FC6458E9 
 241      88636662 
 241      5ED7CDE3 
 241      A7FD6CF3 
 242 0495 A375B2DC 		.ascii	"\243u\262\334K\371+\375\360y\257e\021\366\225\264\301"
 242      4BF92BFD 
 242      F079AF65 
 242      11F695B4 
 242      C1
 243 04a6 8BD3D8FF 		.ascii	"\213\323\330\377\016\263\337\216\331\3372\263_z\276"
 243      0EB3DF8E 
 243      D9DF32B3 
 243      5F7ABE
 244 04b5 F9AF0AFB 		.ascii	"\371\257\012\373[\266\330oo{=\231\275e\320U=\243\375"
 244      5BB6D86F 
 244      6F7B3D99 
 244      BD65D055 
 244      3DA3FD
 245 04c8 ECC50756 		.ascii	"\354\305\007Vb&w\360(\275\3542\273\306\360,#/|mh\300"
 245      622677F0 
 245      28BDEC32 
 245      BBC6F02C 
 245      232F7C6D 
 246 04de 313713D2 		.ascii	"17\023\322w)H@7/\376\347\272wdyV\206&\303m\307\2109"
 246      77294840 
 246      372FFEE7 
 246      BA776479 
 246      568626C3 
ARM GAS  /tmp/ccQneqRX.s 			page 19


 247 04f6 84229ADA 		.ascii	"\204\"\232\332p\330Q\300~\262\003f\351GU\321\235F\260"
 247      70D851C0 
 247      7EB20366 
 247      E94755D1 
 247      9D46B0
 248 0509 B8633052 		.ascii	"\270c0R\262#F\260*\267\015\260^\326\222\0353\202\275"
 248      B22346B0 
 248      2AB70DB0 
 248      5ED6921D 
 248      3382BD
 249 051c EA188C94 		.ascii	"\352\030\214\224\354\270\021l\246\035\260~\326\222\235"
 249      ECB8116C 
 249      A61DB07E 
 249      D6929D
 250 052b 3482CD71 		.ascii	"4\202\315q\014FJ\366\231\021\254\332\016X\016E\262\304"
 250      0C464AF6 
 250      9911ACDA 
 250      0E580E45 
 250      B2C4
 251 053d 619580DC 		.ascii	"a\225\200\334\324\023(\230P\335Z@p\350\323\214\216\261"
 251      D4132898 
 251      50DD5A40 
 251      70E8D38C 
 251      8EB1
 252 054f D0ED3480 		.ascii	"\320\3554\200\021\375\206\331\273c\025[;Mn\316\323f"
 252      11FD86D9 
 252      BB63155B 
 252      3B4D6ECE 
 252      D366
 253 0561 D0257610 		.ascii	"\320%v\020S8L\365A\303t\034q\014F\232e\205\002v\020"
 253      53384CF5 
 253      41C3741C 
 253      710C469A 
 253      65850276 
 254 0576 83BD6D07 		.ascii	"\203\275m\007,\205\303\034A`\264\2049:]\236\311V6<\220"
 254      2C85C31C 
 254      4160B484 
 254      393A5D9E 
 254      C956363C 
 255 058b 32818218 		.ascii	"2\201\202\030\326\177=\216a\21394\275mpS\347I[X\035"
 255      D67F3D8E 
 255      618B3934 
 255      BD6D7053 
 255      E7495B58 
 256 05a0 B7D52977 		.ascii	"\267\325)w\031\206z\277\353P\221\316\375\017\240tt%"
 256      19867ABF 
 256      EB5091CE 
 256      FD0FA074 
 256      7425
 257 05b2 06DAE536 		.ascii	"\006\332\3456\307U\257i\312\365\222\223\242\327\253"
 257      C755AF69 
 257      CAF59293 
 257      A2D7AB
 258 05c1 9FC4B583 		.ascii	"\237\304\265\203\\\327\372Ei\254\306I\035g\030'-\216"
 258      5CD7FA45 
 258      69ACC649 
 258      1D671827 
ARM GAS  /tmp/ccQneqRX.s 			page 20


 258      2D8E
 259 05d3 ED4EFA78 		.ascii	"\355N\372x}\333Mn\221\034\255\344\015\253|V\317GZz\325"
 259      7DDB4D6E 
 259      911CADE4 
 259      0DAB7C56 
 259      CF475A7A 
 260 05e8 BEF35FB1 		.ascii	"\276\363_\261\201Vc\275\036\245\033\310\006P\307W\247"
 260      815663BD 
 260      1EA51BC8 
 260      0650C757 
 260      A7
 261 05f9 95C58D35 		.ascii	"\225\305\2155\030\350t\227\201:\247\257\030\212\201"
 261      18E87497 
 261      813AA7AF 
 261      188A81
 262 0608 D663A0B3 		.ascii	"\326c\240\263I\226fM\226fI\013$\236\361\324G\274_\252"
 262      4996664D 
 262      9666490B 
 262      249EF1D4 
 262      47BC5FAA 
 263 061c 2DC77C63 		.ascii	"-\307|c6\027\321\235\024\3213\021\222~\252aoT\311uy"
 263      3617D19D 
 263      14D13311 
 263      927EAA61 
 263      6F54C975 
 264 0631 0EECB554 		.ascii	"\016\354\265T\265\327\026\254\235\353I\332A\352w\326"
 264      B5D716AC 
 264      9DEB49DA 
 264      41EA77D6 
 265 0641 8D1F1D77 		.ascii	"\215\037\035w#\223\354\306\242x\027\272\261K\351\306"
 265      2393ECC6 
 265      A27817BA 
 265      B14BE9C6 
 266 0651 BBB81B72 		.ascii	"\273\270\033r\306\335wcf\206\323n\3642t\003?\336\275"
 266      C6DD7763 
 266      6686D36E 
 266      F4327403 
 266      3FDEBD
 267 0664 AE4C107D 		.ascii	"\256L\020}\231\232\324).\222g;\327\227\310/\243'\016"
 267      999AD429 
 267      2E92673B 
 267      D797C82F 
 267      A3270E
 268 0677 B139CAED 		.ascii	"\2619\312\355\364\217\2647\016\031\036\203d[\217A\355"
 268      F48FB437 
 268      0E191E83 
 268      645B8F41 
 268      ED
 269 0688 89C7A026 		.ascii	"\211\307\240&\254\262\271\031\224\001f\007*\322\261"
 269      ACB2B919 
 269      94016607 
 269      2AD2B1
 270 0697 0909BA0B 		.ascii	"\011\011\272\013\243\324v\025%\326\271\177\2532L\367"
 270      A3D47615 
 270      25D6B97F 
 270      AB324CF7 
 271 06a7 60A0A549 		.ascii	"`\240\245I\026\3140\0310\2034 \\\"N?\340\370\370\262"
ARM GAS  /tmp/ccQneqRX.s 			page 21


 271      16CC3019 
 271      30833420 
 271      5C224E3F 
 271      E0F8F8B2 
 272 06bb 7A075D78 		.ascii	"z\007]x\230\177:\035\307\274\205\305G\306\353J\326\215"
 272      987F3A1D 
 272      C7BC85C5 
 272      47C6EB4A 
 272      D68D
 273 06cd 1635FE51 		.ascii	"\0265\376Q\253e\027\212}6\336\025bUt\345<m\361`8J\011"
 273      AB65178A 
 273      7D36DE15 
 273      625574E5 
 273      3C6DF160 
 274 06e4 DEBB4BB8 		.ascii	"\336\273K\270\246\303\346\224\300\364\\s\334b\326\321"
 274      A6C3E694 
 274      C0F45C73 
 274      DC62D6D1 
 275 06f4 5655CEC5 		.ascii	"VU\316\305\224\360\376\011\207\304iJ2w+kz\260A7\014"
 275      94F0FE09 
 275      87C4694A 
 275      32772B6B 
 275      7AB04137 
 276 0709 4DACC6D1 		.ascii	"M\254\306\321A\343\004x\370n\315\320\366\275\311\014"
 276      41E30478 
 276      F86ECDD0 
 276      F6BDC90C 
 277 0719 27EE526F 		.ascii	"'\356Ro\267U3\244{\010\375\233\206\225\215;\3629f{\234"
 277      B75533A4 
 277      7B08FD9B 
 277      86958D3B 
 277      F239667B 
 278 072e 333D83BE 		.ascii	"3=\203\276w+6\235\255\302\243\030\375\227>P\264\177"
 278      772B369D 
 278      ADC2A318 
 278      FD973E50 
 278      B47F
 279 0740 E9956BB2 		.ascii	"\351\225k\262\225\265,\201\375\222\345TTZ\236\224V="
 279      95B52C81 
 279      FD92E554 
 279      545A9E94 
 279      563D
 280 0752 D1336273 		.ascii	"\3213bs\236\223\220\263_\0139\247\260._\361\230\215"
 280      9E9390B3 
 280      5F0B39A7 
 280      B02E5FF1 
 280      988D
 281 0764 BECB1CA5 		.ascii	"\276\313\034\245\035\015\272\331\036\226\354\216\335"
 281      1D0DBAD9 
 281      1E96EC8E 
 281      DD
 282 0771 67C9C461 		.ascii	"g\311\304a\345T\255F\247\372\273\347\256\\\000\234j"
 282      E554AD46 
 282      A7FABBE7 
 282      AE5C009C 
 282      6A
 283 0782 FF6AC5A9 		.ascii	"\377j\305\251\3229\201\234\330>\354\2059/\300\234cf"
ARM GAS  /tmp/ccQneqRX.s 			page 22


 283      D239819C 
 283      D83EEC85 
 283      392FC09C 
 283      6366
 284 0794 2FE8FCB1 		.ascii	"/\350\374\261y\206\272\220\030\263\345\005\337S\274"
 284      7986BA90 
 284      18B3E505 
 284      DF53BC
 285 07a3 20D6452F 		.ascii	" \326E/\000\227\376\352\000\213\341\224'\227m\011!\035"
 285      0097FEEA 
 285      008BE194 
 285      27976D09 
 285      211D
 286 07b5 5A4185FB 		.ascii	"ZA\205\373It\252\030\305\277\242\247\276D\363\320E\016"
 286      4974AA18 
 286      C5BFA2A7 
 286      BE44F3D0 
 286      450E
 287 07c7 ADD2EE4C 		.ascii	"\255\322\356Lr-E3\006"
 287      722D4533 
 287      06
 288 07d0 D7D2D528 		.ascii	"\327\322\325(\260g9\264By\216C+\224\377\300\365y\316"
 288      B06739B4 
 288      42798E43 
 288      2B94FFC0 
 288      F579CE
 289 07e3 B04E69E5 		.ascii	"\260Ni\345\026\0278\303\252\376Y\263\032\355>P\246e"
 289      161738C3 
 289      AAFE59B3 
 289      1AED3E50 
 289      A665
 290 07f5 D361F4BE 		.ascii	"\323a\364\276\375w\351}\365m\207\\x\341\315\301\222"
 290      FD77E97D 
 290      F56D875C 
 290      78E1CDC1 
 290      92
 291 0806 69FB3E6D 		.ascii	"i\373>m\340^\306\003\367\323$\355^2'\321v\326\020Ou"
 291      E05EC603 
 291      F7D324ED 
 291      5E3227D1 
 291      76D6104F 
 292 081b B52B8983 		.ascii	"\265+\211\203cb\036\033\21789\024\255'&\332\223j\226"
 292      63621E1B 
 292      8F383914 
 292      AD2726DA 
 292      936A96
 293 082e 96762152 		.ascii	"\226v!R\333\315=\037U\366\003n`O;k\322\205\215\365\314"
 293      DBCD3D1F 
 293      55F6036E 
 293      604F3B6B 
 293      D2858DF5 
 294 0843 6B98E4A6 		.ascii	"k\230\344\246y\0307,\372D\333\017\270ic\030WE\033\211"
 294      7918372C 
 294      FA44DB0F 
 294      B8696318 
 294      57451B89 
 295 0857 FD00CD03 		.ascii	"\375\000\315\003o\246\366\300\224\372$Lx\3230@~\300"
ARM GAS  /tmp/ccQneqRX.s 			page 23


 295      6FA6F6C0 
 295      94FA244C 
 295      78D33040 
 295      7EC0
 296 0869 03E4B671 		.ascii	"\003\344\266qPpLe\246\015\335\377\301\312\025!\014\035"
 296      50704C65 
 296      A60DDDFF 
 296      C1CA1521 
 296      0C1D
 297 087b 533662B4 		.ascii	"S6b\264\255\225Yf<Z \"\360\214\266\254\212V\267\342"
 297      AD955966 
 297      3C5A2022 
 297      F08CB6AC 
 297      8A56B7E2 
 298 088f 350FC547 		.ascii	"5\017\305Gk\354\010\227g\015\266\262VSn\007\316P\226"
 298      6BEC0897 
 298      670DB6B2 
 298      56536E07 
 298      CE5096
 299 08a2 DAC11B6A 		.ascii	"\332\301\033j\325\331\252\350\326\326e*\236\262\355"
 299      D5D9AAE8 
 299      D6D6652A 
 299      9EB2ED
 300 08b1 F0A6633C 		.ascii	"\360\246c<R\276\023\265D>\267\321\016\334\010\333\266"
 300      52BE13B5 
 300      443EB7D1 
 300      0EDC08DB 
 300      B6
 301 08c2 D777D960 		.ascii	"\327w\331`\262\306\3337\247\361\366\315y\\_\303\365"
 301      B2C6DB37 
 301      A7F1F6CD 
 301      795C5FC3 
 301      F5
 302 08d3 7C1C286B 		.ascii	"|\034(kq\275\000\327\213p\375&\2567\343\272\021\327"
 302      71BD00D7 
 302      8B70FD26 
 302      AE37E3BA 
 302      11D7
 303 08e5 DB707D1D 		.ascii	"\333p}\035\327wp\335\211\3538\256+yTO\343m\004\\S\016"
 303      D77770DD 
 303      89EB38AE 
 303      2B79544F 
 303      E36D045C 
 304 08fb 68DA4A7D 		.ascii	"h\332J}'\223\276\023\372*O\333\011\355h\375\271\326"
 304      2793BE13 
 304      FA2A4FDB 
 304      09ED68FD 
 304      B9D6
 305 090d 7A231965 		.ascii	"z#\031e{VR\314\340\211\315PM,B\226\335\026\262\314\242"
 305      7B5652CC 
 305      E089CD50 
 305      4D2C4296 
 305      DD16B2CC 
 306 0922 C9126DAC 		.ascii	"\311\022m\254\231s\277\374\006u\357=\305\246\354kf9"
 306      9973BFFC 
 306      0675EF3D 
 306      C5A6EC6B 
ARM GAS  /tmp/ccQneqRX.s 			page 24


 306      6639
 307 0934 EAF1432D 		.ascii	"\352\361C-!\307A\0139\346\222r\374\206yC\216\035\211"
 307      21C7410B 
 307      39E69272 
 307      FC867943 
 307      8E1D89
 308 0947 75B4FCD4 		.ascii	"u\264\374\324\300B\374j\206\321\011\031\326\203\332"
 308      C042FC6A 
 308      86D10919 
 308      D683DA
 309 0956 BB4228A1 		.ascii	"\273B(\241G\235T%\211$\246\337{T\270y\274\3237p\252"
 309      479D5425 
 309      8924A6DF 
 309      7B54B879 
 309      BCD33770 
 310 096b 79FA1B38 		.ascii	"y\372\0338\256\204\350'\023\242[\262\235\257\367\002"
 310      AE84E827 
 310      13A25BB2 
 310      9DAFF702 
 311 097b F5A03E1A 		.ascii	"\365\240>\032\355\374\370u\210)\220\022\377\014\362"
 311      EDFCF875 
 311      88299012 
 311      FF0CF2
 312 098a EBE22712 		.ascii	"\353\342'\022\212h\252M\227\344\375\023\013\316F\275"
 312      8A68AA4D 
 312      97E4FD13 
 312      0BCE46BD 
 313 099a 0C4FA196 		.ascii	"\014O\241\226\005\252Z\364\356\232/9\346L\372n.T\273"
 313      05AA5AF4 
 313      EE9A2F39 
 313      E64CFA6E 
 313      2E54BB
 314 09ad 39986994 		.ascii	"9\230i\224gF\307\300\240\003\334\3040\376_\346G\031"
 314      6746C7C0 
 314      A003DCC4 
 314      30FE5FE6 
 314      4719
 315 09bf B45E61F9 		.ascii	"\264^a\371\226\327\032\335\227\243\3435\354\213\331"
 315      96D71ADD 
 315      97A3E335 
 315      EC8BD9
 316 09ce 2AF812C7 		.ascii	"*\370\022\307\246[ja\272\013\331\014\241\265$\302\305"
 316      A65B6A61 
 316      BA0BD90C 
 316      A1B524C2 
 316      C5
 317 09df 7C229151 		.ascii	"|\"\221Q\034.zj\306\026\266:2\007f?\374F\003\222\205"
 317      1C2E7A6A 
 317      C616B63A 
 317      3207663F 
 317      FC460392 
 318 09f4 63BE306B 		.ascii	"c\2760k\204\220\032{;\307\\\206F\252\343\243\377\334"
 318      84901A7B 
 318      3BC75C86 
 318      46AAE3A3 
 318      FFDC
 319 0a06 895524CC 		.ascii	"\211U$\314i9\341\336*\014\313\214d>\002UE\3433\036\301"
ARM GAS  /tmp/ccQneqRX.s 			page 25


 319      6939E1DE 
 319      2A0CCB8C 
 319      643E0255 
 319      45E3331E 
 320 0a1b 76D334A7 		.ascii	"v\3234\247H&\260\313\370\337\030\372\325\314\031h9\215"
 320      4826B0CB 
 320      F8DF18FA 
 320      D5CC1968 
 320      398D
 321 0a2d 76FE6C3B 		.ascii	"v\376l;\264\325n\003-\257\321\326\332\242\375\314c\240"
 321      B4D56E03 
 321      2DAFD1D6 
 321      DAA2FDCC 
 321      63A0
 322 0a3f 7569B40B 		.ascii	"ui\264\013l\321F\272\351\352\215D\243\337_\206D_\306"
 322      6CD146BA 
 322      E9EA8D44 
 322      A3DF5F86 
 322      445FC6
 323 0a52 018E3216 		.ascii	"\001\2162\026\210\247\366\250\236i\303\374\302\246I"
 323      88A7F6A8 
 323      9E69C3FC 
 323      C2A649
 324 0a61 B6630D35 		.ascii	"\266c\0155\373\362!\013J\233\233\303D\300?L{\273\203"
 324      FBF2210B 
 324      4A9B9BC3 
 324      44C03F4C 
 324      7BBB83
 325 0a74 6C86A317 		.ascii	"l\206\243\027O&D\321;b\216r7}*\324\331\331\254<\203"
 325      4F2644D1 
 325      3B628E72 
 325      377D2AD4 
 325      D9D9AC3C 
 326 0a89 1CC4A178 		.ascii	"\034\304\241x!\307\251\200]J\222\243\361\2570\234iI"
 326      21C7A980 
 326      5D4A92A3 
 326      F1AF309C 
 326      6949
 327 0a9b 03BD7465 		.ascii	"\003\275te\345\332\357\362\246}\327\357\261\023;\021"
 327      E5DAEFF2 
 327      A67DD7EF 
 327      B1133B11 
 328 0aab 218710A1 		.ascii	"!\207\020\241z?Nf\020.\307\334\261\003\226\342\231\252"
 328      7A3F4E66 
 328      102EC7DC 
 328      B10396E2 
 328      99AA
 329 0abd C608F68A 		.ascii	"\306\010\366\212\327)X\216I\351Zf\320\300\243\314\340"
 329      D729588E 
 329      49E95A66 
 329      D0C0A3CC 
 329      E0
 330 0ace 1D3C7F37 		.ascii	"\035<\1777\342\372}\\o\343\211<q\216\327\374\270\240"
 330      E2FA7D5C 
 330      6FE3893C 
 330      718ED7FC 
 330      B8A0
ARM GAS  /tmp/ccQneqRX.s 			page 26


 331 0ae0 18D580A7 		.ascii	"\030\325\200\247\333\236I\217H\267\201\311X\233,\372"
 331      DB9E498F 
 331      48B781C9 
 331      589B2CFA 
 332 0af0 87DF03E4 		.ascii	"\207\337\003\344\211\265%KH\201\335\240\267\324b\021"
 332      89B5254B 
 332      4881DDA0 
 332      B7D46211 
 333 0b00 4F266702 		.ascii	"O&g\002\273\336q\000m\262\010\240\335\023*[\3445\207"
 333      BBDE7100 
 333      6DB208A0 
 333      DD132A5B 
 333      E43587
 334 0b13 C024B61F 		.ascii	"\300$\266\037B\210\3735\263\312\273\\Vl\245L\0161^\021"
 334      4288FB35 
 334      B3CABB5C 
 334      566CA54C 
 334      0E315E11 
 335 0b27 88981DEA 		.ascii	"\210\230\035\352d\230\331?\344\251\023\004\022u\243"
 335      6498D93F 
 335      E4A91304 
 335      1275A3
 336 0b36 411FC6FB 		.ascii	"A\037\306\373F=\011\354Gj?\223\017\253~\356&\343\375"
 336      463D09EC 
 336      476A3F93 
 336      0FAB7EEE 
 336      26E3FD
 337 0b49 D5EA58DB 		.ascii	"\325\352X\333\206\003\265\354\353rDK0\004v\017\016\371"
 337      8603B5EC 
 337      EB72444B 
 337      3004760F 
 337      0EF9
 338 0b5b 1D5E739A 		.ascii	"\035^s\232\"\260\373\3501\\\353\320\354\235\274\302"
 338      22B0FBE8 
 338      315CEBD0 
 338      EC9DBCC2 
 339 0b6b 41856EDD 		.ascii	"A\205n\335B\207^\336-\031\272\231\006\315\351\2722A"
 339      42875EDE 
 339      2D19BA99 
 339      06CDE9BA 
 339      3241
 340 0b7d EF6AA443 		.ascii	"\357j\244C\267S\240\017\322\240y]\352]$\364\216\255"
 340      B753A00F 
 340      D2A0795D 
 340      EA5D24F4 
 340      8EAD
 341 0b8f 74E8C559 		.ascii	"t\350\305Y\311\320\207h\320.\035zo>\001\275u\007\035"
 341      C9D08768 
 341      D02E1D7A 
 341      6F3E01BD 
 341      75071D
 342 0ba2 BA8D027D 		.ascii	"\272\215\002}\224\006\355\326\025\262\217\204n\334E"
 342      9406EDD6 
 342      15B28F84 
 342      6EDC45
 343 0bb1 875E909D 		.ascii	"\207^\220\235\014}\234\006\235\241K\3751\011\275\362"
 343      0C7D9C06 
ARM GAS  /tmp/ccQneqRX.s 			page 27


 343      9DA14BFD 
 343      3109BDF2 
 344 0bc1 1C1DBA95 		.ascii	"\034\035\272\225\002\335F\203\366\350R\177BB/\275@\207"
 344      02DD4683 
 344      F6E8527F 
 344      42422FBD 
 344      4087
 345 0bd3 9EDF3D19 		.ascii	"\236\337=\031\3724\015:S\227\372\020\011\275\350k:\364"
 345      FA340D3A 
 345      5397FA10 
 345      09BDE86B 
 345      3AF4
 346 0be5 610AF4E7 		.ascii	"a\012\364\3474h\257.\365a\022\272\366\012\035zn\217"
 346      3468AF2E 
 346      F56112BA 
 346      F60A1D7A 
 346      6E8F
 347 0bf7 64E8180D 		.ascii	"d\350\030\015\272\233.\365\011\022:~\235\016}\220\002"
 347      BA9B2EF5 
 347      09123A7E 
 347      9D0E7D90 
 347      02
 348 0c08 7D8E069D 		.ascii	"}\216\006\235\245K}\222\204\276s\223\016=\253g2\364"
 348      A54B7D92 
 348      84BE7393 
 348      0E3DAB67 
 348      32F4
 349 0c1a 791A74B6 		.ascii	"y\032t\266\016\335FB\337\372\221\016\3751\005\372+\032"
 349      0EDD4642 
 349      DFFA910E 
 349      FD3105FA 
 349      2B1A
 350 0c2c 74777CA2 		.ascii	"tw|\242\205v\323\274q \305$\177\211\247\177\250\240"
 350      8576D3BC 
 350      7120C524 
 350      7F89A77F 
 350      A8A0
 351 0c3e 3CFF5851 		.ascii	"<\377XQ}mIu4\005\257o,\251\320\343\247\025\325eK\252"
 351      7D6D4975 
 351      3405AF6F 
 351      2CA9D0E3 
 351      A715D565 
 352 0c54 D752507D 		.ascii	"\327RP}\253SY}sazA[`\2578\236\365\256Z\314z,\311\332"
 352      AB53597D 
 352      73617A41 
 352      5B60AF38 
 352      9EF5AE5A 
 353 0c6d FC61CA50 		.ascii	"\374a\312P\255\235G\305\271\346\230\363u\013\316\031"
 353      AD9D47C5 
 353      B9E698F3 
 353      750BCE19 
 354 0c7d 2A678C34 		.ascii	"*g\2144-\345R(\230\021/\203\244_\327\244\345\272\031"
 354      2DE55228 
 354      98112F83 
 354      A45FD7A4 
 354      E5BA19
 355 0c90 1AD4DF98 		.ascii	"\032\324\337\230D\006}\343\347kAeQ\365;\036\255~M\357"
ARM GAS  /tmp/ccQneqRX.s 			page 28


 355      44067DE3 
 355      E76B4165 
 355      51F53B1E 
 355      AD7E4DEF 
 356 0ca4 95F68D68 		.ascii	"\225\366\215h\022\007\011u\313\2343\327\266g\243\267"
 356      12070975 
 356      CB9C33D7 
 356      B667A3B7 
 357 0cb4 5A6EA5CF 		.ascii	"Zn\245\317\232_\231\026]\320\256\255I\335\340\361\232"
 357      9A5F9916 
 357      5DD0AEAD 
 357      49DDE0F1 
 357      9A
 358 0cc5 1916E156 		.ascii	"\031\026\341V\327\322f\300[\330\216\323L\005l\241c\260"
 358      D7D266C0 
 358      5BD88ED3 
 358      4C056CA1 
 358      63B0
 359 0cd7 1C02ACCE 		.ascii	"\034\002\254\316\010\266\304\016\230U\002\014`K\214"
 359      08B6C40E 
 359      9855020C 
 359      604B8C
 360 0ce6 602B1D83 		.ascii	"`+\035\203\221\222-3\202\255\266\003f\365\326\027\200"
 360      91922D33 
 360      82ADB603 
 360      66F5D617 
 360      80
 361 0cf7 AD3082AD 		.ascii	"\2550\202\255q\014FJVo\004\333`\007\314\352\255/\000"
 361      710C464A 
 361      566F04DB 
 361      6007CCEA 
 361      AD2F00
 362 0d0a 7BC708D6 		.ascii	"{\307\010\326\340\030\214\224\354]#\330V;`9\326\222"
 362      E0188C94 
 362      EC5D23D8 
 362      563B6039 
 362      D692
 363 0d1c BD6F046B 		.ascii	"\275o\004kr\014FJ\266\315\010\026\265\003f\265\244\015"
 363      720C464A 
 363      B6CD0816 
 363      B50366B5 
 363      A40D
 364 0d2e 601F18C1 		.ascii	"`\037\030\301\366:\006#%k2\2025\333\001\313\263\222"
 364      F63A0623 
 364      256B3282 
 364      35DB01CB 
 364      B392
 365 0d40 AC32BAF3 		.ascii	"\2542\272\363\257\325\2021\267G\250ZX1=\212\033\233"
 365      AFD58231 
 365      B747A85A 
 365      58313D8A 
 365      1B9B
 366 0d52 5D622D9B 		.ascii	"]b-\233\011\354\002\227\323H\274\320E\217\304\306\357"
 366      09EC0297 
 366      D348BCD0 
 366      458FC4C6 
 366      EF
ARM GAS  /tmp/ccQneqRX.s 			page 29


 367 0d63 C0F456D0 		.ascii	"\300\364V\320\355O\314\335&\245\240\365\233T\342\021"
 367      ED4FCCDD 
 367      26A5A0F5 
 367      9B54E211 
 368 0d73 A3128FD8 		.ascii	"\243\022\217\330Q\342\010k\260cF\260\023v\300\236\265"
 368      51E2086B 
 368      B06346B0 
 368      1376C09E 
 368      B5
 369 0d84 F695E346 		.ascii	"\366\225\343F\260S\216\301H\311N\032\301\316\330\001"
 369      B0538EC1 
 369      48C94E1A 
 369      C1CED801 
 370 0d94 1B632DD9 		.ascii	"\033c-\331gF\260/\034\203\031%\253\214\236\326\035\017"
 370      6746B02F 
 370      1C831925 
 370      AB8C9ED6 
 370      1D0F
 371 0da6 7D244378 		.ascii	"}$Cx\336\0102\332\022\315\014\236gj&\260\253]\332\272"
 371      DE0832DA 
 371      12CD0C9E 
 371      676A26B0 
 371      AB5DDABA 
 372 0dba EA55725D 		.ascii	"\352Ur]\365\252\276\256z\301,7\201\242\236\276HQ\002"
 372      F5AABEAE 
 372      7AC12C37 
 372      81A29EBE 
 372      485102
 373 0dcd ED30CEB4 		.ascii	"\3550\316\264\002\373\003^\367\270\215W&\356\340\272"
 373      02FB035E 
 373      F7B88D57 
 373      26EEE0BA 
 374 0ddd 13D7715C 		.ascii	"\023\327q\\W\272\360~\006\256_\305\365\014\\\317\302"
 374      57BAF07E 
 374      06AE5FC5 
 374      F50C5CCF 
 374      C2
 375 0dee F56BB89E 		.ascii	"\365k\270\236\213\353y\270\236\217\353Z\\\327\341z\011"
 375      8BEB79B8 
 375      9E8FEB5A 
 375      5CD7E17A 
 375      09
 376 0dff AE97E17A 		.ascii	"\256\227\341z\005\256#\270^\3452\254\202\230\362\273"
 376      05AE23B8 
 376      5EE532AC 
 376      8298F2BB 
 377 0e0f EF52AC77 		.ascii	"\357R\254w\274\355J\344wh\303!z5\266m\315\351\211\332"
 377      BCED4AE4 
 377      7768C321 
 377      7A35B66D 
 377      CDE989DA 
 378 0e23 07940F29 		.ascii	"\007\224\017)\037\361q\314\253\275\315\0114\365\263"
 378      1FF171CC 
 378      ABBDCD09 
 378      34F5B3
 379 0e32 BD35AE94 		.ascii	"\2755\256\224\237\355\255u%\355p\000\303\216\365\327"
 379      9FEDAD75 
ARM GAS  /tmp/ccQneqRX.s 			page 30


 379      25ED7000 
 379      C38EF5D7 
 380 0e42 FF6B23FA 		.ascii	"\377k#\372\214@\3769\376r\345+\254\366\011c\003\235"
 380      8C40FE39 
 380      FE72E52B 
 380      ACF60963 
 380      039D
 381 0e54 A74C7EC2 		.ascii	"\247L~\302\270\336e\372\204q\003\225\311\222\363G\226"
 381      B8DE65FA 
 381      84710395 
 381      C992F347 
 381      96
 382 0e65 B0F3A7C9 		.ascii	"\260\363\247\311\312\226N$Sc\262\303\026\223Mf&\233"
 382      CA964E24 
 382      5363B2C3 
 382      16934D66 
 382      269B
 383 0e77 A94C966E 		.ascii	"\251L\226n\276\376\354m\275'\017\331\337\257ip\231\366"
 383      BEFEEC6D 
 383      BD270FD9 
 383      DFAF6970 
 383      99F6
 384 0e89 6B2E25EF 		.ascii	"k.%\357\327\\#DU\327\272\343\275\325\034\371w\314\233"
 384      D75C2344 
 384      55D7BAE3 
 384      BDD51CF9 
 384      77CC9B
 385 0e9c B25C231F 		.ascii	"\262\\#\037\335\237]\315j\237\035\315\355\203\227\363"
 385      DD9F5DCD 
 385      6A9F1DCD 
 385      ED8397F3 
 386 0eac 74A398F2 		.ascii	"t\243\230\362Vuk^\355\361\215\3121\375\022=\2567\367"
 386      56756B5E 
 386      EDF18DCA 
 386      31FD123D 
 386      AE37F7
 387 0ebf B891DAE3 		.ascii	"\270\221\332\343\355k\366\224l'l\247\370Km\037[\376"
 387      ED6BF694 
 387      6C276CA7 
 387      F84B6D1F 
 387      5BFE
 388 0ed1 B23DB5BF 		.ascii	"\262=\265\277|@\345\271\254\261\245\177\222\203\036"
 388      7C40E5B9 
 388      ACB1A57F 
 388      92831E
 389 0ee0 B1C7B029 		.ascii	"\261\307\260)5\303\017\251\014\353\266\236~4\211aM_"
 389      35C30FA9 
 389      0CEBB69E 
 389      7E348961 
 389      4D5F
 390 0ef2 5B0C77A5 		.ascii	"[\014w\245f\030\265\030\021\307\212i#\342-:O\223\263"
 390      6618B518 
 390      11C78A69 
 390      23E22D3A 
 390      4F93B3
 391 0f05 EE319BEE 		.ascii	"\3561\233\356#\253\021\261\2346\"\032l1\331gf\262\237"
 391      23AB11B1 
ARM GAS  /tmp/ccQneqRX.s 			page 31


 391      9C36221A 
 391      6C31D967 
 391      66B29F
 392 0f18 64C2B8FC 		.ascii	"d\302\270\374\305B\350\327\003\006\344\226\205sCRnI"
 392      C542E8D7 
 392      0306E496 
 392      85734352 
 392      6E49
 393 0f2a D01FA828 		.ascii	"\320\037\250(\022s\375\305\341\251aij\271\030\036P\314"
 393      1273FDC5 
 393      E1A96169 
 393      6AB9181E 
 393      50CC
 394 0f3c 78D17949 		.ascii	"x\321yI\251\350\2232\236\371\313\0139\005L\377\334\212"
 394      A9E89332 
 394      9EF9CB0B 
 394      39054CFF 
 394      DC8A
 395 0f4e 7028D136 		.ascii	"p(\3216(N\016\224\274\224\033\226\212J\202\0224\317"
 395      284E0E94 
 395      BC941B96 
 395      8A4A8212 
 395      34CF
 396 0f60 AC80DFFC 		.ascii	"\254\200\337\374!>\351qZ\263R\301_\\\022\024s}E\342"
 396      213EE971 
 396      5AB352C1 
 396      5F5C1214 
 396      737D45E2 
 397 0f74 78A12220 		.ascii	"x\241\" \3714.\335|>\215\360\267 \217$\206%$Q\270\254"
 397      F9342EDD 
 397      7C3E8DF0 
 397      B7208F24 
 397      86252451 
 398 0f8a 22E41795 		.ascii	"\"\344\027\225KT\371Bee\322\000?s\017\276(\017\001\211"
 398      4B54F942 
 398      6565D200 
 398      3F730FBE 
 398      280F0189 
 399 0f9e AFBC     		.ascii	"\257\274"
 400 0fa0 2C24F94A 		.ascii	",$\371J\202\343\313\356\3037%1TZ\022\024$\020\2708$"
 400      82E3CBEE 
 400      C3372531 
 400      545A1214 
 400      2410B838 
 401 0fb5 0A45E1DE 		.ascii	"\012E\341\336\370\366d\241D\322\356\3640\334)\361O\274"
 401      F8F664A1 
 401      44D2EEF4 
 401      30DC29F1 
 401      4FBC
 402 0fc7 4F638824 		.ascii	"Oc\210$\364\027\373\3209\210\224\255\363\010\004\273"
 402      F417FBD0 
 402      398894AD 
 402      F30804BB 
 403 0fd7 E917FD29 		.ascii	"\351\027\375)\372R\201Q\377\225S\237\344EH\370\374W"
 403      FA528151 
 403      FF95539F 
 403      E44548F8 
ARM GAS  /tmp/ccQneqRX.s 			page 32


 403      FC57
 404 0fe9 3405FB8B 		.ascii	"4\005\373\213\213\240uO\225\320\367?\025b\005H\334+"
 404      8BA0754F 
 404      95D0F73F 
 404      15620548 
 404      DC2B
 405 0ffb 41A4DE72 		.ascii	"A\244\336r\005"
 405      05
 406 1000 C52992AB 		.ascii	"\305)\222\253<$Nr\343\353\201\012\226\277\254\264\264"
 406      3C244E72 
 406      E3EB810A 
 406      96BFACB4 
 406      B4
 407 1011 2C988BBA 		.ascii	",\230\213\272\036\316}\252pt\301\350)\350^yI@\014\205"
 407      1ECE7DAA 
 407      7074C1E8 
 407      29E85E79 
 407      49400C85 
 408 1025 739F2928 		.ascii	"s\237)(@2\251\252\365H v\231O\302\226\0314\320'\251"
 408      4032A9AA 
 408      F5482076 
 408      994FC296 
 408      1934D027 
 409 103a BA46A72E 		.ascii	"\272F\247.\364W6\326\240\277,(\001\257\337\246`P\354"
 409      F45736D6 
 409      A0BF2C28 
 409      01AFDFA6 
 409      6050EC
 410 104d 2F0B8980 		.ascii	"/\013\211\200\230\245\252\\\362KS\036I\327\3367\351"
 410      98A5AA5C 
 410      F24B531E 
 410      49D7DE37 
 410      E9
 411 105e C952A497 		.ascii	"\311R\244\227\2208A\010\225\372$.4\230\013=\301\205"
 411      90384108 
 411      95FA242E 
 411      34980B3D 
 411      C185
 412 1070 8670A127 		.ascii	"\206p\241'\271\320P.4\214\017\345\347A\311\347\002!"
 412      B9D0502E 
 412      348C0FE5 
 412      E741C9E7 
 412      0221
 413 1082 2E5CCE03 		.ascii	".\\\316\003\250\033\334E\014\271\313\002Eb\310\025\024"
 413      A81BDC45 
 413      0CB9CB02 
 413      4562C815 
 413      14
 414 1093 4AC56E61 		.ascii	"J\305nai\242\020(\231\020T\2731dp\242\033\3504c\262"
 414      69A21028 
 414      991054BB 
 414      316470A2 
 414      1BE83463 
 415 10a8 F0921016 		.ascii	"\360\222\020\0263\245\260\204\015\357A\177\014\005\033"
 415      33A5B084 
 415      0DEF417F 
 415      0C051B
ARM GAS  /tmp/ccQneqRX.s 			page 33


 416 10b7 284DE0CC 		.ascii	"(M\340\314\215\377\361H\245eE\360\277{|@\230\020\366"
 416      8DFFF148 
 416      A56545F0 
 416      BF7B7C40 
 416      9810F6
 417 10ca 4821717C 		.ascii	"H!q|\030\224\200~\334\245\341\011@\250\352\005\010\325"
 417      1894807E 
 417      DCA5E109 
 417      40A8EA05 
 417      08D5
 418 10dc B38C50D1 		.ascii	"\263\214P\321T\370+S\234R\"\371\2018c\262T\366\322\177"
 418      54F82B53 
 418      9C5222F9 
 418      813863B2 
 418      54F6D27F 
 419 10f0 97F751CD 		.ascii	"\227\367Q\315\014\244bH\014\372\021\350dI\012\225{\302"
 419      0CA46248 
 419      0CFA11E8 
 419      64490A95 
 419      7BC2
 420 1102 62500282 		.ascii	"bP\002\202l\260dX,\025\312\213A\007\367\323<@Djq\373"
 420      6CB06458 
 420      2C15CA8B 
 420      4107F7D3 
 420      3C40446A 
 421 1118 C183251E 		.ascii	"\301\203%\036j\000\206[\345\231@WZ\001\226\240\321\224"
 421      6A00865B 
 421      E5994057 
 421      5A0196A0 
 421      D194
 422 112a 4A53104D 		.ascii	"JS\020M\331\344\240\030\362\340V\250\357\022\334.\317"
 422      D9E4A018 
 422      F2E056A8 
 422      EF12DC2E 
 422      CF
 423 113b 122721C6 		.ascii	"\022'!\306Bx\"\334\022'\243\023\266\242\207\346K\201"
 423      427822DC 
 423      1227A313 
 423      B6A287E6 
 423      4B81
 424 114d 1234327A 		.ascii	"\02242z\032\274\013\335\361\240!P\022\234\220\011\362"
 424      1ABC0BDD 
 424      F1A02150 
 424      129C9009 
 424      F2
 425 115e 62EFCA14 		.ascii	"b\357\312\024\313\305 \014\344\011\036\200D-\300jB\000"
 425      CBC5200C 
 425      E4091E80 
 425      442DC06A 
 425      4200
 426 1170 F988BBB4 		.ascii	"\371\210\273\264\274\254,\320\303_<\256\270h\2346\302"
 426      BCAC2CD0 
 426      C35F3CAE 
 426      B8689C36 
 426      C2
 427 1181 BCF8F23F 		.ascii	"\274\370\362?\000\244\033>\033\033\020\305r\217\312"
 427      00A41B3E 
ARM GAS  /tmp/ccQneqRX.s 			page 34


 427      1B1B10C5 
 427      728FCA
 428 1190 819B2C64 		.ascii	"\201\233,d\341A\363R\305x\320\221\007\233O,r\207E\251"
 428      E141F352 
 428      C578D091 
 428      079B4F2C 
 428      728745A9 
 429 11a4 A23C5312 		.ascii	"\242<S\022\205P\021\364\303#N\021\375\320\021<\276\374"
 429      855011F4 
 429      C3234E11 
 429      FDD0113C 
 429      BEFC
 430 11b6 6043B02B 		.ascii	"`C\260+\246\012W\224Hb\257\001E\202$\014\320o\3741U"
 430      A60A5794 
 430      4862AF01 
 430      4582240C 
 430      D06FFC31 
 431 11cb 6C088BD0 		.ascii	"l\010\213\320\011d\212\274\274|PS\357\244\233v\251\007"
 431      09648ABC 
 431      BC7C5053 
 431      EFA49B76 
 431      A907
 432 11dd D2A807DA 		.ascii	"\322\250\007\332\245\036D\243\036d\227z0\215z\260]\352"
 432      A51E44A3 
 432      1E64977A 
 432      308D7AB0 
 432      5DEA
 433 11ef 2768D44F 		.ascii	"'h\324O\330\245\036B\243\036b\227\372I\032\365\223v"
 433      D8A51E42 
 433      A31E6297 
 433      FA491AF5 
 433      9376
 434 1201 A987D2A8 		.ascii	"\251\207\322\250\207\332\245\036F\243\036f\223:?\217"
 434      87DAA51E 
 434      46A31E66 
 434      933A3F8F 
 435 1211 429D9F67 		.ascii	"B\235\237g\227\232\346k\371v}-\237\346k\371v}-\237\346"
 435      979AE66B 
 435      F9767D2D 
 435      9FE66BF9 
 435      767D2D9F 
 436 1226 6BF983FE 		.ascii	"k\371\203\376\244\204\216b!\240\006\344\261\343F\017"
 436      A4848E62 
 436      21A006E4 
 436      B1E3460F 
 437 1236 1A98FBFC 		.ascii	"\032\230\373\374\363#s\307=7zR>\314\326\245(\266\225"
 437      F32373C7 
 437      3D377A52 
 437      3ECCD6A5 
 437      28B695
 438 1249 A0089495 		.ascii	"\240\010\224\225\270\2008TP\230\017e\240k\354\350\202"
 438      B8803854 
 438      50980F65 
 438      A06BECE8 
 438      82
 439 125a 42D7C8E7 		.ascii	"B\327\310\347F\025rc\013\371Q\317\024\272\013\012F\027"
 439      46157263 
ARM GAS  /tmp/ccQneqRX.s 			page 35


 439      0BF951CF 
 439      14BA0B0A 
 439      4617
 440 126c E6E37AA0 		.ascii	"\346\343z\240\253\240`T!_\360\227q\374\230\261\005\374"
 440      ABA06054 
 440      215FF097 
 440      71FC98B1 
 440      05FC
 441 127e 5385857C 		.ascii	"S\205\205|a\001\\\003\301\323#\307\025\362#\021\345"
 441      61015C03 
 441      C1D323C7 
 441      15F22311 
 441      E5
 442 128f E8A70AB9 		.ascii	"\350\247\012\271\177S\250\006A\373\027\013\373Q\242"
 442      7F53A806 
 442      41FB170B 
 442      FB51A2
 443 129e D92434CB 		.ascii	"\331$4\313\366\366\027\377\373\270gDi,d\031b\3518H4"
 443      F6F617FF 
 443      FBB86744 
 443      692C6419 
 443      62E93848 
 444 12b3 A8C1722A 		.ascii	"\250\301r*NE\374\305\320\354\3712\377D/\236\201\002"
 444      4E45FCC5 
 444      D0ECF932 
 444      FF442F9E 
 444      8102
 445 12c5 70F64762 		.ascii	"p\366Gb\376\201\011,\267`\364\330\347\306\352\264\245"
 445      FE81092C 
 445      B760F4D8 
 445      E7C6EAB4 
 445      A5
 446 12d6 E192B06F 		.ascii	"\341\222\260o\202\337\017\364\335}\240&\311\367\364"
 446      82DF0FF4 
 446      DD7DA026 
 446      C9F7F4
 447 12e5 5363478D 		.ascii	"ScG\215)|\256\273\020\230,L\015C\240\017@J\342\236$"
 447      297CAEBB 
 447      10982C4C 
 447      0D43A00F 
 447      404AE29E 
 448 12fa 042AC43E 		.ascii	"\004*\304>I\322\274\370h\332\011\016eG!\200\357\213"
 448      49D2BCF8 
 448      68DA090E 
 448      65472180 
 448      EF8B
 449 130c 85C257BE 		.ascii	"\205\302W\276\011\242r\366x:S\300?>0_ \200\322\201>"
 449      09A272F6 
 449      783A53C0 
 449      3F3E305F 
 449      2080D281 
 450 1321 CA19A6F6 		.ascii	"\312\031\246\366\227U\300\204\034\312\302}~!\210\372"
 450      9755C084 
 450      1CCAC27D 
 450      7E2188FA 
 451 1331 AACCBB15 		.ascii	"\252\314\273\025\370\374\377\001\355\204N\361"
 451      F8FCFF01 
ARM GAS  /tmp/ccQneqRX.s 			page 36


 451      ED844EF1 
 452              		.text
 453              		.section	.gnu.lto_.symtab.740bfd153261cb2b,"",%progbits
 454 0000 74657374 		.ascii	"test_print_port_info\000\000\000\000\000\000\000\000"
 454      5F707269 
 454      6E745F70 
 454      6F72745F 
 454      696E666F 
 455 001c 00000000 		.ascii	"\000\000\000\000\272\000\000\000test_terminate_thre"
 455      BA000000 
 455      74657374 
 455      5F746572 
 455      6D696E61 
 456 0037 61647300 		.ascii	"ads\000\000\000\000\000\000\000\000\000\000\000\000"
 456      00000000 
 456      00000000 
 456      000000
 457 0046 BE000000 		.ascii	"\276\000\000\000threads\000\000\000\000\000\000\000"
 457      74687265 
 457      61647300 
 457      00000000 
 457      0000
 458 0058 00000000 		.ascii	"\000\000\000\000\000\216\001\000\000test_wait_threa"
 458      008E0100 
 458      00746573 
 458      745F7761 
 458      69745F74 
 459 0070 64730000 		.ascii	"ds\000\000\000\000\000\000\000\000\000\000\000\000\301"
 459      00000000 
 459      00000000 
 459      0000C1
 460 007f 00000074 		.ascii	"\000\000\000test_wait_tick\000\000\000\000\000\000\000"
 460      6573745F 
 460      77616974 
 460      5F746963 
 460      6B000000 
 461 0097 00000000 		.ascii	"\000\000\000\000\000\304\000\000\000wa\000\000\000\000"
 461      00C40000 
 461      00776100 
 461      000000
 462 00a6 00000000 		.ascii	"\000\000\000\000\000\000\000\000\222\001\000\000tes"
 462      00000000 
 462      92010000 
 462      746573
 463 00b5 745F6275 		.ascii	"t_buffer\000\000\000\000\000\000\000\000\000\000\000"
 463      66666572 
 463      00000000 
 463      00000000 
 463      000000
 464 00c8 009C0100 		.ascii	"\000\234\001\000\000test_suite\000\000\000\000\000\000"
 464      00746573 
 464      745F7375 
 464      69746500 
 464      00000000 
 465 00dd 00000000 		.ascii	"\000\000\000\000\000\000\251\001\000\000test_sequen"
 465      0000A901 
 465      00007465 
ARM GAS  /tmp/ccQneqRX.s 			page 37


 465      73745F73 
 465      65717565 
 466 00f2 63655F30 		.ascii	"ce_001\000\000\002\000\000\000\000\000\000\000\000\000"
 466      30310000 
 466      02000000 
 466      00000000 
 466      0000
 467 0104 C4010000 		.ascii	"\304\001\000\000test_sequence_002\000\000\002\000\000"
 467      74657374 
 467      5F736571 
 467      75656E63 
 467      655F3030 
 468 011e 00000000 		.ascii	"\000\000\000\000\000\000\000\307\001\000\000test_se"
 468      000000C7 
 468      01000074 
 468      6573745F 
 468      7365
 469 0130 7175656E 		.ascii	"quence_003\000\000\002\000\000\000\000\000\000\000\000"
 469      63655F30 
 469      30330000 
 469      02000000 
 469      00000000 
 470 0145 00CA0100 		.ascii	"\000\312\001\000\000test_sequence_004\000\000\002\000"
 470      00746573 
 470      745F7365 
 470      7175656E 
 470      63655F30 
 471 015f 00000000 		.ascii	"\000\000\000\000\000\000\000\000\315\001\000\000tes"
 471      00000000 
 471      CD010000 
 471      746573
 472 016e 745F7365 		.ascii	"t_sequence_005\000\000\002\000\000\000\000\000\000\000"
 472      7175656E 
 472      63655F30 
 472      30350000 
 472      02000000 
 473 0186 0000D001 		.ascii	"\000\000\320\001\000\000test_sequence_006\000\000\002"
 473      00007465 
 473      73745F73 
 473      65717565 
 473      6E63655F 
 474 01a0 00000000 		.ascii	"\000\000\000\000\000\000\000\000\000\323\001\000\000"
 474      00000000 
 474      00D30100 
 474      00
 475 01ad 74657374 		.ascii	"test_sequence_007\000\000\002\000\000\000\000\000\000"
 475      5F736571 
 475      75656E63 
 475      655F3030 
 475      37000002 
 476 01c7 000000D6 		.ascii	"\000\000\000\326\001\000\000test_sequence_008\000\000"
 476      01000074 
 476      6573745F 
 476      73657175 
 476      656E6365 
 477 01e1 02000000 		.ascii	"\002\000\000\000\000\000\000\000\000\000\331\001\000"
 477      00000000 
ARM GAS  /tmp/ccQneqRX.s 			page 38


 477      0000D901 
 477      00
 478 01ee 00746573 		.ascii	"\000test_sequence_009\000\000\002\000\000\000\000\000"
 478      745F7365 
 478      7175656E 
 478      63655F30 
 478      30390000 
 479 0208 00000000 		.ascii	"\000\000\000\000\334\001\000\000test_sequence_010\000"
 479      DC010000 
 479      74657374 
 479      5F736571 
 479      75656E63 
 480 0222 00020000 		.ascii	"\000\002\000\000\000\000\000\000\000\000\000\337\001"
 480      00000000 
 480      000000DF 
 480      01
 481 022f 00007465 		.ascii	"\000\000test_sequence_011\000\000\002\000\000\000\000"
 481      73745F73 
 481      65717565 
 481      6E63655F 
 481      30313100 
 482 0249 00000000 		.ascii	"\000\000\000\000\000\342\001\000\000test_sequence_0"
 482      00E20100 
 482      00746573 
 482      745F7365 
 482      7175656E 
 483 0261 31320000 		.ascii	"12\000\000\002\000\000\000\000\000\000\000\000\000\345"
 483      02000000 
 483      00000000 
 483      0000E5
 484 0270 01000074 		.ascii	"\001\000\000test_sequence_013\000\000\002\000\000\000"
 484      6573745F 
 484      73657175 
 484      656E6365 
 484      5F303133 
 485 028a 00000000 		.ascii	"\000\000\000\000\000\000\350\001\000\000test_printl"
 485      0000E801 
 485      00007465 
 485      73745F70 
 485      72696E74 
 486 029f 6E000002 		.ascii	"n\000\000\002\000\000\000\000\000\000\000\000\000\310"
 486      00000000 
 486      00000000 
 486      00C8
 487 02ad 00000074 		.ascii	"\000\000\000test_print\000\000\002\000\000\000\000\000"
 487      6573745F 
 487      7072696E 
 487      74000002 
 487      00000000 
 488 02c2 00000000 		.ascii	"\000\000\000\000\316\000\000\000chThdTerminate\000\000"
 488      CE000000 
 488      63685468 
 488      64546572 
 488      6D696E61 
 489 02da 02000000 		.ascii	"\002\000\000\000\000\000\000\000\000\000\320\000\000"
 489      00000000 
 489      0000D000 
ARM GAS  /tmp/ccQneqRX.s 			page 39


 489      00
 490 02e7 00636854 		.ascii	"\000chThdWait\000\000\002\000\000\000\000\000\000\000"
 490      68645761 
 490      69740000 
 490      02000000 
 490      00000000 
 491 02fb 00008601 		.ascii	"\000\000\206\001\000\000chThdSleep\000\000\002\000\000"
 491      00006368 
 491      54686453 
 491      6C656570 
 491      00000200 
 492 0310 00000000 		.ascii	"\000\000\000\000\000\000\000\212\001\000\000"
 492      0000008A 
 492      010000
 493              		.text
 494              		.section	.gnu.lto_.opts,"",%progbits
 495 0000 272D6D63 		.ascii	"'-mcpu=cortex-m3' '-mno-thumb-interwork' '-mthumb' "
 495      70753D63 
 495      6F727465 
 495      782D6D33 
 495      2720272D 
 496 0033 272D6767 		.ascii	"'-ggdb' '-O2' '-fomit-frame-pointer' '-falign-funct"
 496      64622720 
 496      272D4F32 
 496      2720272D 
 496      666F6D69 
 497 0066 696F6E73 		.ascii	"ions=16' '-ffunction-sections' '-fdata-sections' '-"
 497      3D313627 
 497      20272D66 
 497      66756E63 
 497      74696F6E 
 498 0099 666E6F2D 		.ascii	"fno-common' '-flto'\000"
 498      636F6D6D 
 498      6F6E2720 
 498      272D666C 
 498      746F2700 
 499              		.text
 500              		.cfi_sections	.debug_frame
 501              		.section	.text.test_print_port_info,"ax",%progbits
 502              		.align	2
 503              		.p2align 4,,15
 504              		.global	test_print_port_info
 505              		.thumb
 506              		.thumb_func
 507              		.type	test_print_port_info, %function
 508              	test_print_port_info:
 509              	.LFB219:
 510              		.file 1 "../test/rt/source/test/test_root.c"
 511              		.loc 1 95 0
 512              		.cfi_startproc
 513              		@ args = 0, pretend = 0, frame = 0
 514              		@ frame_needed = 0, uses_anonymous_args = 0
 515              		.loc 1 98 0
 516 0000 40F20000 		movw	r0, #:lower16:.LC0
 517              		.loc 1 95 0
 518 0004 08B5     		push	{r3, lr}
 519              		.cfi_def_cfa_offset 8
ARM GAS  /tmp/ccQneqRX.s 			page 40


 520              		.cfi_offset 3, -8
 521              		.cfi_offset 14, -4
 522              		.loc 1 98 0
 523 0006 C0F20000 		movt	r0, #:upper16:.LC0
 524 000a FFF7FEFF 		bl	test_print
 525              	.LVL0:
 526              		.loc 1 99 0
 527 000e 40F20000 		movw	r0, #:lower16:.LC1
 528 0012 C0F20000 		movt	r0, #:upper16:.LC1
 529 0016 FFF7FEFF 		bl	test_println
 530              	.LVL1:
 531              		.loc 1 101 0
 532 001a 40F20000 		movw	r0, #:lower16:.LC2
 533 001e C0F20000 		movt	r0, #:upper16:.LC2
 534 0022 FFF7FEFF 		bl	test_print
 535              	.LVL2:
 536              		.loc 1 102 0
 537 0026 40F20000 		movw	r0, #:lower16:.LC3
 538 002a C0F20000 		movt	r0, #:upper16:.LC3
 539 002e FFF7FEFF 		bl	test_println
 540              	.LVL3:
 541              		.loc 1 104 0
 542 0032 40F20000 		movw	r0, #:lower16:.LC4
 543 0036 C0F20000 		movt	r0, #:upper16:.LC4
 544 003a FFF7FEFF 		bl	test_print
 545              	.LVL4:
 546              		.loc 1 105 0
 547 003e 40F20000 		movw	r0, #:lower16:.LC5
 548 0042 C0F20000 		movt	r0, #:upper16:.LC5
 549 0046 FFF7FEFF 		bl	test_println
 550              	.LVL5:
 551              		.loc 1 108 0
 552 004a 40F20000 		movw	r0, #:lower16:.LC6
 553 004e C0F20000 		movt	r0, #:upper16:.LC6
 554 0052 FFF7FEFF 		bl	test_print
 555              	.LVL6:
 556              		.loc 1 111 0
 557 0056 BDE80840 		pop	{r3, lr}
 558              		.loc 1 109 0
 559 005a 40F20000 		movw	r0, #:lower16:.LC7
 560 005e C0F20000 		movt	r0, #:upper16:.LC7
 561 0062 FFF7FEBF 		b	test_println
 562              	.LVL7:
 563              		.cfi_endproc
 564              	.LFE219:
 565              		.size	test_print_port_info, .-test_print_port_info
 566 0066 00BFAFF3 		.section	.text.test_terminate_threads,"ax",%progbits
 566      0080AFF3 
 566      0080
 567              		.align	2
 568              		.p2align 4,,15
 569              		.global	test_terminate_threads
 570              		.thumb
 571              		.thumb_func
 572              		.type	test_terminate_threads, %function
 573              	test_terminate_threads:
 574              	.LFB220:
ARM GAS  /tmp/ccQneqRX.s 			page 41


 575              		.loc 1 135 0
 576              		.cfi_startproc
 577              		@ args = 0, pretend = 0, frame = 0
 578              		@ frame_needed = 0, uses_anonymous_args = 0
 579              	.LVL8:
 580 0000 38B5     		push	{r3, r4, r5, lr}
 581              		.cfi_def_cfa_offset 16
 582              		.cfi_offset 3, -16
 583              		.cfi_offset 4, -12
 584              		.cfi_offset 5, -8
 585              		.cfi_offset 14, -4
 586 0002 064C     		ldr	r4, .L10
 587 0004 04F11405 		add	r5, r4, #20
 588              	.LVL9:
 589              	.L5:
 590              		.loc 1 139 0
 591 0008 54F8043F 		ldr	r3, [r4, #4]!
 592              		.loc 1 140 0
 593 000c 1846     		mov	r0, r3
 594              		.loc 1 139 0
 595 000e 0BB1     		cbz	r3, .L3
 596              		.loc 1 140 0
 597 0010 FFF7FEFF 		bl	chThdTerminate
 598              	.LVL10:
 599              	.L3:
 600              		.loc 1 138 0
 601 0014 AC42     		cmp	r4, r5
 602 0016 F7D1     		bne	.L5
 603              		.loc 1 141 0
 604 0018 38BD     		pop	{r3, r4, r5, pc}
 605              	.L11:
 606 001a 00BF     		.align	2
 607              	.L10:
 608 001c FCFFFFFF 		.word	.LANCHOR0-4
 609              		.cfi_endproc
 610              	.LFE220:
 611              		.size	test_terminate_threads, .-test_terminate_threads
 612              		.section	.text.test_wait_threads,"ax",%progbits
 613              		.align	2
 614              		.p2align 4,,15
 615              		.global	test_wait_threads
 616              		.thumb
 617              		.thumb_func
 618              		.type	test_wait_threads, %function
 619              	test_wait_threads:
 620              	.LFB221:
 621              		.loc 1 146 0
 622              		.cfi_startproc
 623              		@ args = 0, pretend = 0, frame = 0
 624              		@ frame_needed = 0, uses_anonymous_args = 0
 625              	.LVL11:
 626 0000 70B5     		push	{r4, r5, r6, lr}
 627              		.cfi_def_cfa_offset 16
 628              		.cfi_offset 4, -16
 629              		.cfi_offset 5, -12
 630              		.cfi_offset 6, -8
 631              		.cfi_offset 14, -4
ARM GAS  /tmp/ccQneqRX.s 			page 42


 632 0002 40F20004 		movw	r4, #:lower16:.LANCHOR0
 633 0006 C0F20004 		movt	r4, #:upper16:.LANCHOR0
 634 000a 04F11405 		add	r5, r4, #20
 635              		.loc 1 152 0
 636 000e 0026     		movs	r6, #0
 637              	.LVL12:
 638              	.L15:
 639              		.loc 1 150 0
 640 0010 54F8043B 		ldr	r3, [r4], #4
 641              		.loc 1 151 0
 642 0014 1846     		mov	r0, r3
 643              		.loc 1 150 0
 644 0016 1BB1     		cbz	r3, .L13
 645              		.loc 1 151 0
 646 0018 FFF7FEFF 		bl	chThdWait
 647              	.LVL13:
 648              		.loc 1 152 0
 649 001c 44F8046C 		str	r6, [r4, #-4]
 650              	.L13:
 651              		.loc 1 149 0
 652 0020 AC42     		cmp	r4, r5
 653 0022 F5D1     		bne	.L15
 654              		.loc 1 154 0
 655 0024 70BD     		pop	{r4, r5, r6, pc}
 656              		.cfi_endproc
 657              	.LFE221:
 658              		.size	test_wait_threads, .-test_wait_threads
 659 0026 00BFAFF3 		.section	.text.test_wait_tick,"ax",%progbits
 659      0080AFF3 
 659      0080
 660              		.align	2
 661              		.p2align 4,,15
 662              		.global	test_wait_tick
 663              		.thumb
 664              		.thumb_func
 665              		.type	test_wait_tick, %function
 666              	test_wait_tick:
 667              	.LFB222:
 668              		.loc 1 159 0
 669              		.cfi_startproc
 670              		@ args = 0, pretend = 0, frame = 0
 671              		@ frame_needed = 0, uses_anonymous_args = 0
 672 0000 08B5     		push	{r3, lr}
 673              		.cfi_def_cfa_offset 8
 674              		.cfi_offset 3, -8
 675              		.cfi_offset 14, -4
 676              		.loc 1 161 0
 677 0002 0120     		movs	r0, #1
 678 0004 FFF7FEFF 		bl	chThdSleep
 679              	.LVL14:
 680              	.LBB50:
 681              	.LBB51:
 682              	.LBB52:
 683              	.LBB53:
 684              	.LBB54:
 685              	.LBB55:
 686              		.file 2 "../os/common/ext/CMSIS/include/cmsis_gcc.h"
ARM GAS  /tmp/ccQneqRX.s 			page 43


 687              		.loc 2 264 0
 688 0008 2023     		movs	r3, #32
 689              	@ 264 "../os/common/ext/CMSIS/include/cmsis_gcc.h" 1
 690 000a 83F31188 		MSR basepri, r3
 691              	@ 0 "" 2
 692              		.thumb
 693              	.LBE55:
 694              	.LBE54:
 695              	.LBE53:
 696              	.LBE52:
 697              	.LBB56:
 698              	.LBB57:
 699              	.LBB58:
 700              	.LBB59:
 701              		.file 3 "../os/hal/ports/STM32/LLD/TIMv1/hal_st_lld.h"
 702              		.loc 3 141 0
 703 000e 4FF08043 		mov	r3, #1073741824
 704 0012 586A     		ldr	r0, [r3, #36]
 705              	.LVL15:
 706              	.LBE59:
 707              	.LBE58:
 708              	.LBE57:
 709              	.LBE56:
 710              	.LBB60:
 711              	.LBB61:
 712              	.LBB62:
 713              	.LBB63:
 714              	.LBB64:
 715              		.loc 2 264 0
 716 0014 0023     		movs	r3, #0
 717              	@ 264 "../os/common/ext/CMSIS/include/cmsis_gcc.h" 1
 718 0016 83F31188 		MSR basepri, r3
 719              	@ 0 "" 2
 720              		.thumb
 721              	.LBE64:
 722              	.LBE63:
 723              	.LBE62:
 724              	.LBE61:
 725              	.LBE60:
 726              	.LBE51:
 727              	.LBE50:
 728              		.loc 1 163 0
 729 001a 80B2     		uxth	r0, r0
 730 001c 08BD     		pop	{r3, pc}
 731              		.cfi_endproc
 732              	.LFE222:
 733              		.size	test_wait_tick, .-test_wait_tick
 734              		.global	wa
 735              		.global	threads
 736              		.global	test_buffer
 737              		.global	test_suite
 738 001e 00BF     		.section	.bss.test_buffer,"aw",%nobits
 739              		.align	3
 740              		.type	test_buffer, %object
 741              		.size	test_buffer, 1640
 742              	test_buffer:
 743 0000 00000000 		.space	1640
ARM GAS  /tmp/ccQneqRX.s 			page 44


 743      00000000 
 743      00000000 
 743      00000000 
 743      00000000 
 744              		.section	.data.test_suite,"aw",%progbits
 745              		.align	2
 746              		.type	test_suite, %object
 747              		.size	test_suite, 56
 748              	test_suite:
 749 0000 00000000 		.word	test_sequence_001
 750 0004 00000000 		.word	test_sequence_002
 751 0008 00000000 		.word	test_sequence_003
 752 000c 00000000 		.word	test_sequence_004
 753 0010 00000000 		.word	test_sequence_005
 754 0014 00000000 		.word	test_sequence_006
 755 0018 00000000 		.word	test_sequence_007
 756 001c 00000000 		.word	test_sequence_008
 757 0020 00000000 		.word	test_sequence_009
 758 0024 00000000 		.word	test_sequence_010
 759 0028 00000000 		.word	test_sequence_011
 760 002c 00000000 		.word	test_sequence_012
 761 0030 00000000 		.word	test_sequence_013
 762 0034 00000000 		.word	0
 763              		.section	.rodata.wa,"a",%progbits
 764              		.align	2
 765              		.type	wa, %object
 766              		.size	wa, 20
 767              	wa:
 768 0000 00000000 		.word	test_buffer
 769 0004 48010000 		.word	test_buffer+328
 770 0008 90020000 		.word	test_buffer+656
 771 000c D8030000 		.word	test_buffer+984
 772 0010 20050000 		.word	test_buffer+1312
 773              		.section	.rodata.str1.4,"aMS",%progbits,1
 774              		.align	2
 775              	.LC0:
 776 0000 2A2A2A20 		.ascii	"*** Compiler:     \000"
 776      436F6D70 
 776      696C6572 
 776      3A202020 
 776      202000
 777 0013 00       		.space	1
 778              	.LC1:
 779 0014 47434320 		.ascii	"GCC 4.8.2\000"
 779      342E382E 
 779      3200
 780 001e 0000     		.space	2
 781              	.LC2:
 782 0020 2A2A2A20 		.ascii	"*** Architecture: \000"
 782      41726368 
 782      69746563 
 782      74757265 
 782      3A2000
 783 0033 00       		.space	1
 784              	.LC3:
 785 0034 41524D76 		.ascii	"ARMv7-M\000"
 785      372D4D00 
ARM GAS  /tmp/ccQneqRX.s 			page 45


 786              	.LC4:
 787 003c 2A2A2A20 		.ascii	"*** Core Variant: \000"
 787      436F7265 
 787      20566172 
 787      69616E74 
 787      3A2000
 788 004f 00       		.space	1
 789              	.LC5:
 790 0050 436F7274 		.ascii	"Cortex-M3\000"
 790      65782D4D 
 790      3300
 791 005a 0000     		.space	2
 792              	.LC6:
 793 005c 2A2A2A20 		.ascii	"*** Port Info:    \000"
 793      506F7274 
 793      20496E66 
 793      6F3A2020 
 793      202000
 794 006f 00       		.space	1
 795              	.LC7:
 796 0070 41647661 		.ascii	"Advanced kernel mode\000"
 796      6E636564 
 796      206B6572 
 796      6E656C20 
 796      6D6F6465 
 797 0085 000000   		.section	.bss.threads,"aw",%nobits
 798              		.align	2
 799              		.set	.LANCHOR0,. + 0
 800              		.type	threads, %object
 801              		.size	threads, 20
 802              	threads:
 803 0000 00000000 		.space	20
 803      00000000 
 803      00000000 
 803      00000000 
 803      00000000 
 804              		.text
 805              	.Letext0:
 806              		.file 4 "/usr/lib/gcc/arm-none-eabi/4.8.2/include/stddef.h"
 807              		.file 5 "/usr/include/newlib/machine/_default_types.h"
 808              		.file 6 "/usr/include/newlib/stdint.h"
 809              		.file 7 "../os/common/ports/ARMCMx/compilers/GCC/chtypes.h"
 810              		.file 8 "../os/rt/include/chsystypes.h"
 811              		.file 9 "../os/rt/include/chschd.h"
 812              		.file 10 "../os/common/ports/ARMCMx/chcore.h"
 813              		.file 11 "../os/common/ports/ARMCMx/chcore_v7m.h"
 814              		.file 12 "../os/hal/ports/STM32/LLD/TIMv1/stm32_tim.h"
 815              		.file 13 "../os/rt/include/chsem.h"
 816              		.file 14 "../os/rt/include/chmtx.h"
 817              		.file 15 "../test/lib/ch_test.h"
 818              		.file 16 "../os/common/ports/ARMCMx/chcore_timer.h"
 819              		.file 17 "../os/rt/include/chsys.h"
 820              		.file 18 "../os/rt/include/chvt.h"
 821              		.file 19 "../os/common/ext/CMSIS/include/core_cm3.h"
 822              		.file 20 "../test/rt/source/test/test_sequence_001.h"
 823              		.file 21 "../test/rt/source/test/test_sequence_002.h"
 824              		.file 22 "../test/rt/source/test/test_sequence_003.h"
ARM GAS  /tmp/ccQneqRX.s 			page 46


 825              		.file 23 "../test/rt/source/test/test_sequence_004.h"
 826              		.file 24 "../test/rt/source/test/test_sequence_005.h"
 827              		.file 25 "../test/rt/source/test/test_sequence_006.h"
 828              		.file 26 "../test/rt/source/test/test_sequence_007.h"
 829              		.file 27 "../test/rt/source/test/test_sequence_008.h"
 830              		.file 28 "../test/rt/source/test/test_sequence_009.h"
 831              		.file 29 "../test/rt/source/test/test_sequence_010.h"
 832              		.file 30 "../test/rt/source/test/test_sequence_011.h"
 833              		.file 31 "../test/rt/source/test/test_sequence_012.h"
 834              		.file 32 "../test/rt/source/test/test_sequence_013.h"
 835              		.file 33 "../os/rt/include/chthreads.h"
 836              		.section	.debug_info,"",%progbits
 837              	.Ldebug_info0:
 838 0000 320C0000 		.4byte	0xc32
 839 0004 0400     		.2byte	0x4
 840 0006 00000000 		.4byte	.Ldebug_abbrev0
 841 000a 04       		.byte	0x4
 842 000b 01       		.uleb128 0x1
 843 000c 90050000 		.4byte	.LASF137
 844 0010 01       		.byte	0x1
 845 0011 25020000 		.4byte	.LASF138
 846 0015 FB010000 		.4byte	.LASF139
 847 0019 00000000 		.4byte	.Ldebug_ranges0+0
 848 001d 00000000 		.4byte	0
 849 0021 00000000 		.4byte	.Ldebug_line0
 850 0025 02       		.uleb128 0x2
 851 0026 04       		.byte	0x4
 852 0027 05       		.byte	0x5
 853 0028 696E7400 		.ascii	"int\000"
 854 002c 03       		.uleb128 0x3
 855 002d 12000000 		.4byte	.LASF2
 856 0031 04       		.byte	0x4
 857 0032 D4       		.byte	0xd4
 858 0033 37000000 		.4byte	0x37
 859 0037 04       		.uleb128 0x4
 860 0038 04       		.byte	0x4
 861 0039 07       		.byte	0x7
 862 003a C6040000 		.4byte	.LASF0
 863 003e 04       		.uleb128 0x4
 864 003f 01       		.byte	0x1
 865 0040 06       		.byte	0x6
 866 0041 25010000 		.4byte	.LASF1
 867 0045 03       		.uleb128 0x3
 868 0046 73000000 		.4byte	.LASF3
 869 004a 05       		.byte	0x5
 870 004b 1C       		.byte	0x1c
 871 004c 50000000 		.4byte	0x50
 872 0050 04       		.uleb128 0x4
 873 0051 01       		.byte	0x1
 874 0052 08       		.byte	0x8
 875 0053 EA030000 		.4byte	.LASF4
 876 0057 04       		.uleb128 0x4
 877 0058 02       		.byte	0x2
 878 0059 05       		.byte	0x5
 879 005a 00040000 		.4byte	.LASF5
 880 005e 03       		.uleb128 0x3
 881 005f BB040000 		.4byte	.LASF6
ARM GAS  /tmp/ccQneqRX.s 			page 47


 882 0063 05       		.byte	0x5
 883 0064 26       		.byte	0x26
 884 0065 69000000 		.4byte	0x69
 885 0069 04       		.uleb128 0x4
 886 006a 02       		.byte	0x2
 887 006b 07       		.byte	0x7
 888 006c 17050000 		.4byte	.LASF7
 889 0070 03       		.uleb128 0x3
 890 0071 C7020000 		.4byte	.LASF8
 891 0075 05       		.byte	0x5
 892 0076 37       		.byte	0x37
 893 0077 7B000000 		.4byte	0x7b
 894 007b 04       		.uleb128 0x4
 895 007c 04       		.byte	0x4
 896 007d 05       		.byte	0x5
 897 007e 60010000 		.4byte	.LASF9
 898 0082 03       		.uleb128 0x3
 899 0083 A8010000 		.4byte	.LASF10
 900 0087 05       		.byte	0x5
 901 0088 38       		.byte	0x38
 902 0089 8D000000 		.4byte	0x8d
 903 008d 04       		.uleb128 0x4
 904 008e 04       		.byte	0x4
 905 008f 07       		.byte	0x7
 906 0090 9D040000 		.4byte	.LASF11
 907 0094 04       		.uleb128 0x4
 908 0095 08       		.byte	0x8
 909 0096 05       		.byte	0x5
 910 0097 7C010000 		.4byte	.LASF12
 911 009b 03       		.uleb128 0x3
 912 009c 87030000 		.4byte	.LASF13
 913 00a0 05       		.byte	0x5
 914 00a1 4E       		.byte	0x4e
 915 00a2 A6000000 		.4byte	0xa6
 916 00a6 04       		.uleb128 0x4
 917 00a7 08       		.byte	0x8
 918 00a8 07       		.byte	0x7
 919 00a9 A7000000 		.4byte	.LASF14
 920 00ad 03       		.uleb128 0x3
 921 00ae 82050000 		.4byte	.LASF15
 922 00b2 06       		.byte	0x6
 923 00b3 2A       		.byte	0x2a
 924 00b4 45000000 		.4byte	0x45
 925 00b8 03       		.uleb128 0x3
 926 00b9 8A010000 		.4byte	.LASF16
 927 00bd 06       		.byte	0x6
 928 00be 36       		.byte	0x36
 929 00bf 5E000000 		.4byte	0x5e
 930 00c3 03       		.uleb128 0x3
 931 00c4 E2030000 		.4byte	.LASF17
 932 00c8 06       		.byte	0x6
 933 00c9 41       		.byte	0x41
 934 00ca 70000000 		.4byte	0x70
 935 00ce 03       		.uleb128 0x3
 936 00cf 77040000 		.4byte	.LASF18
 937 00d3 06       		.byte	0x6
 938 00d4 42       		.byte	0x42
ARM GAS  /tmp/ccQneqRX.s 			page 48


 939 00d5 82000000 		.4byte	0x82
 940 00d9 03       		.uleb128 0x3
 941 00da 3A030000 		.4byte	.LASF19
 942 00de 06       		.byte	0x6
 943 00df 4E       		.byte	0x4e
 944 00e0 9B000000 		.4byte	0x9b
 945 00e4 03       		.uleb128 0x3
 946 00e5 EB060000 		.4byte	.LASF20
 947 00e9 07       		.byte	0x7
 948 00ea 3C       		.byte	0x3c
 949 00eb AD000000 		.4byte	0xad
 950 00ef 03       		.uleb128 0x3
 951 00f0 69010000 		.4byte	.LASF21
 952 00f4 07       		.byte	0x7
 953 00f5 3D       		.byte	0x3d
 954 00f6 AD000000 		.4byte	0xad
 955 00fa 03       		.uleb128 0x3
 956 00fb 92030000 		.4byte	.LASF22
 957 00ff 07       		.byte	0x7
 958 0100 3E       		.byte	0x3e
 959 0101 AD000000 		.4byte	0xad
 960 0105 03       		.uleb128 0x3
 961 0106 C6030000 		.4byte	.LASF23
 962 010a 07       		.byte	0x7
 963 010b 40       		.byte	0x40
 964 010c CE000000 		.4byte	0xce
 965 0110 03       		.uleb128 0x3
 966 0111 7E020000 		.4byte	.LASF24
 967 0115 07       		.byte	0x7
 968 0116 41       		.byte	0x41
 969 0117 C3000000 		.4byte	0xc3
 970 011b 03       		.uleb128 0x3
 971 011c BB020000 		.4byte	.LASF25
 972 0120 07       		.byte	0x7
 973 0121 43       		.byte	0x43
 974 0122 CE000000 		.4byte	0xce
 975 0126 03       		.uleb128 0x3
 976 0127 E2010000 		.4byte	.LASF26
 977 012b 07       		.byte	0x7
 978 012c 45       		.byte	0x45
 979 012d C3000000 		.4byte	0xc3
 980 0131 03       		.uleb128 0x3
 981 0132 EC040000 		.4byte	.LASF27
 982 0136 08       		.byte	0x8
 983 0137 35       		.byte	0x35
 984 0138 B8000000 		.4byte	0xb8
 985 013c 03       		.uleb128 0x3
 986 013d D8040000 		.4byte	.LASF28
 987 0141 08       		.byte	0x8
 988 0142 3F       		.byte	0x3f
 989 0143 47010000 		.4byte	0x147
 990 0147 05       		.uleb128 0x5
 991 0148 74020000 		.4byte	.LASF46
 992 014c 44       		.byte	0x44
 993 014d 09       		.byte	0x9
 994 014e 9A       		.byte	0x9a
 995 014f 25020000 		.4byte	0x225
ARM GAS  /tmp/ccQneqRX.s 			page 49


 996 0153 06       		.uleb128 0x6
 997 0154 63020000 		.4byte	.LASF29
 998 0158 09       		.byte	0x9
 999 0159 9B       		.byte	0x9b
 1000 015a 5A020000 		.4byte	0x25a
 1001 015e 00       		.byte	0
 1002 015f 06       		.uleb128 0x6
 1003 0160 7A030000 		.4byte	.LASF30
 1004 0164 09       		.byte	0x9
 1005 0165 9C       		.byte	0x9c
 1006 0166 05010000 		.4byte	0x105
 1007 016a 08       		.byte	0x8
 1008 016b 07       		.uleb128 0x7
 1009 016c 63747800 		.ascii	"ctx\000"
 1010 0170 09       		.byte	0x9
 1011 0171 9D       		.byte	0x9d
 1012 0172 6B040000 		.4byte	0x46b
 1013 0176 0C       		.byte	0xc
 1014 0177 06       		.uleb128 0x6
 1015 0178 3E050000 		.4byte	.LASF31
 1016 017c 09       		.byte	0x9
 1017 017d 9F       		.byte	0x9f
 1018 017e 30020000 		.4byte	0x230
 1019 0182 10       		.byte	0x10
 1020 0183 06       		.uleb128 0x6
 1021 0184 A2010000 		.4byte	.LASF32
 1022 0188 09       		.byte	0x9
 1023 0189 A0       		.byte	0xa0
 1024 018a 30020000 		.4byte	0x230
 1025 018e 14       		.byte	0x14
 1026 018f 06       		.uleb128 0x6
 1027 0190 5E020000 		.4byte	.LASF33
 1028 0194 09       		.byte	0x9
 1029 0195 A7       		.byte	0xa7
 1030 0196 F2060000 		.4byte	0x6f2
 1031 019a 18       		.byte	0x18
 1032 019b 06       		.uleb128 0x6
 1033 019c AF040000 		.4byte	.LASF34
 1034 01a0 09       		.byte	0x9
 1035 01a1 B0       		.byte	0xb0
 1036 01a2 04070000 		.4byte	0x704
 1037 01a6 1C       		.byte	0x1c
 1038 01a7 06       		.uleb128 0x6
 1039 01a8 5A010000 		.4byte	.LASF35
 1040 01ac 09       		.byte	0x9
 1041 01ad B5       		.byte	0xb5
 1042 01ae EF000000 		.4byte	0xef
 1043 01b2 20       		.byte	0x20
 1044 01b3 06       		.uleb128 0x6
 1045 01b4 8A050000 		.4byte	.LASF36
 1046 01b8 09       		.byte	0x9
 1047 01b9 B9       		.byte	0xb9
 1048 01ba E4000000 		.4byte	0xe4
 1049 01be 21       		.byte	0x21
 1050 01bf 06       		.uleb128 0x6
 1051 01c0 B1030000 		.4byte	.LASF37
 1052 01c4 09       		.byte	0x9
ARM GAS  /tmp/ccQneqRX.s 			page 50


 1053 01c5 BE       		.byte	0xbe
 1054 01c6 FA000000 		.4byte	0xfa
 1055 01ca 22       		.byte	0x22
 1056 01cb 08       		.uleb128 0x8
 1057 01cc 7500     		.ascii	"u\000"
 1058 01ce 09       		.byte	0x9
 1059 01cf 0F01     		.2byte	0x10f
 1060 01d1 27060000 		.4byte	0x627
 1061 01d5 24       		.byte	0x24
 1062 01d6 09       		.uleb128 0x9
 1063 01d7 CC010000 		.4byte	.LASF38
 1064 01db 09       		.byte	0x9
 1065 01dc 1401     		.2byte	0x114
 1066 01de 36020000 		.4byte	0x236
 1067 01e2 28       		.byte	0x28
 1068 01e3 09       		.uleb128 0x9
 1069 01e4 51010000 		.4byte	.LASF39
 1070 01e8 09       		.byte	0x9
 1071 01e9 1A01     		.2byte	0x11a
 1072 01eb 5A020000 		.4byte	0x25a
 1073 01ef 2C       		.byte	0x2c
 1074 01f0 09       		.uleb128 0x9
 1075 01f1 84020000 		.4byte	.LASF40
 1076 01f5 09       		.byte	0x9
 1077 01f6 2001     		.2byte	0x120
 1078 01f8 1B010000 		.4byte	0x11b
 1079 01fc 34       		.byte	0x34
 1080 01fd 09       		.uleb128 0x9
 1081 01fe FF060000 		.4byte	.LASF41
 1082 0202 09       		.byte	0x9
 1083 0203 2701     		.2byte	0x127
 1084 0205 EC060000 		.4byte	0x6ec
 1085 0209 38       		.byte	0x38
 1086 020a 09       		.uleb128 0x9
 1087 020b F2020000 		.4byte	.LASF42
 1088 020f 09       		.byte	0x9
 1089 0210 2B01     		.2byte	0x12b
 1090 0212 05010000 		.4byte	0x105
 1091 0216 3C       		.byte	0x3c
 1092 0217 09       		.uleb128 0x9
 1093 0218 69020000 		.4byte	.LASF43
 1094 021c 09       		.byte	0x9
 1095 021d 3201     		.2byte	0x132
 1096 021f 0D030000 		.4byte	0x30d
 1097 0223 40       		.byte	0x40
 1098 0224 00       		.byte	0
 1099 0225 03       		.uleb128 0x3
 1100 0226 04030000 		.4byte	.LASF44
 1101 022a 08       		.byte	0x8
 1102 022b 44       		.byte	0x44
 1103 022c 30020000 		.4byte	0x230
 1104 0230 0A       		.uleb128 0xa
 1105 0231 04       		.byte	0x4
 1106 0232 3C010000 		.4byte	0x13c
 1107 0236 03       		.uleb128 0x3
 1108 0237 DC060000 		.4byte	.LASF45
 1109 023b 08       		.byte	0x8
ARM GAS  /tmp/ccQneqRX.s 			page 51


 1110 023c 49       		.byte	0x49
 1111 023d 41020000 		.4byte	0x241
 1112 0241 05       		.uleb128 0x5
 1113 0242 87040000 		.4byte	.LASF47
 1114 0246 04       		.byte	0x4
 1115 0247 09       		.byte	0x9
 1116 0248 88       		.byte	0x88
 1117 0249 5A020000 		.4byte	0x25a
 1118 024d 06       		.uleb128 0x6
 1119 024e 19000000 		.4byte	.LASF48
 1120 0252 09       		.byte	0x9
 1121 0253 89       		.byte	0x89
 1122 0254 30020000 		.4byte	0x230
 1123 0258 00       		.byte	0
 1124 0259 00       		.byte	0
 1125 025a 03       		.uleb128 0x3
 1126 025b 63050000 		.4byte	.LASF49
 1127 025f 08       		.byte	0x8
 1128 0260 50       		.byte	0x50
 1129 0261 65020000 		.4byte	0x265
 1130 0265 05       		.uleb128 0x5
 1131 0266 02010000 		.4byte	.LASF50
 1132 026a 08       		.byte	0x8
 1133 026b 09       		.byte	0x9
 1134 026c 8F       		.byte	0x8f
 1135 026d 8A020000 		.4byte	0x28a
 1136 0271 06       		.uleb128 0x6
 1137 0272 19000000 		.4byte	.LASF48
 1138 0276 09       		.byte	0x9
 1139 0277 90       		.byte	0x90
 1140 0278 30020000 		.4byte	0x230
 1141 027c 00       		.byte	0
 1142 027d 06       		.uleb128 0x6
 1143 027e 7D000000 		.4byte	.LASF51
 1144 0282 09       		.byte	0x9
 1145 0283 91       		.byte	0x91
 1146 0284 30020000 		.4byte	0x230
 1147 0288 04       		.byte	0x4
 1148 0289 00       		.byte	0
 1149 028a 03       		.uleb128 0x3
 1150 028b 00000000 		.4byte	.LASF52
 1151 028f 08       		.byte	0x8
 1152 0290 57       		.byte	0x57
 1153 0291 95020000 		.4byte	0x295
 1154 0295 0B       		.uleb128 0xb
 1155 0296 AD020000 		.4byte	.LASF53
 1156 029a 1C       		.byte	0x1c
 1157 029b 09       		.byte	0x9
 1158 029c 6A01     		.2byte	0x16a
 1159 029e F1020000 		.4byte	0x2f1
 1160 02a2 09       		.uleb128 0x9
 1161 02a3 63020000 		.4byte	.LASF29
 1162 02a7 09       		.byte	0x9
 1163 02a8 6B01     		.2byte	0x16b
 1164 02aa 5A020000 		.4byte	0x25a
 1165 02ae 00       		.byte	0
 1166 02af 09       		.uleb128 0x9
ARM GAS  /tmp/ccQneqRX.s 			page 52


 1167 02b0 7A030000 		.4byte	.LASF30
 1168 02b4 09       		.byte	0x9
 1169 02b5 6C01     		.2byte	0x16c
 1170 02b7 05010000 		.4byte	0x105
 1171 02bb 08       		.byte	0x8
 1172 02bc 08       		.uleb128 0x8
 1173 02bd 63747800 		.ascii	"ctx\000"
 1174 02c1 09       		.byte	0x9
 1175 02c2 6E01     		.2byte	0x16e
 1176 02c4 6B040000 		.4byte	0x46b
 1177 02c8 0C       		.byte	0xc
 1178 02c9 09       		.uleb128 0x9
 1179 02ca 3E050000 		.4byte	.LASF31
 1180 02ce 09       		.byte	0x9
 1181 02cf 7101     		.2byte	0x171
 1182 02d1 30020000 		.4byte	0x230
 1183 02d5 10       		.byte	0x10
 1184 02d6 09       		.uleb128 0x9
 1185 02d7 A2010000 		.4byte	.LASF32
 1186 02db 09       		.byte	0x9
 1187 02dc 7201     		.2byte	0x172
 1188 02de 30020000 		.4byte	0x230
 1189 02e2 14       		.byte	0x14
 1190 02e3 09       		.uleb128 0x9
 1191 02e4 7F030000 		.4byte	.LASF54
 1192 02e8 09       		.byte	0x9
 1193 02e9 7501     		.2byte	0x175
 1194 02eb 30020000 		.4byte	0x230
 1195 02ef 18       		.byte	0x18
 1196 02f0 00       		.byte	0
 1197 02f1 03       		.uleb128 0x3
 1198 02f2 F6040000 		.4byte	.LASF55
 1199 02f6 08       		.byte	0x8
 1200 02f7 5C       		.byte	0x5c
 1201 02f8 FC020000 		.4byte	0x2fc
 1202 02fc 0A       		.uleb128 0xa
 1203 02fd 04       		.byte	0x4
 1204 02fe 02030000 		.4byte	0x302
 1205 0302 0C       		.uleb128 0xc
 1206 0303 0D030000 		.4byte	0x30d
 1207 0307 0D       		.uleb128 0xd
 1208 0308 0D030000 		.4byte	0x30d
 1209 030c 00       		.byte	0
 1210 030d 0E       		.uleb128 0xe
 1211 030e 04       		.byte	0x4
 1212 030f 03       		.uleb128 0x3
 1213 0310 B6030000 		.4byte	.LASF56
 1214 0314 08       		.byte	0x8
 1215 0315 61       		.byte	0x61
 1216 0316 1A030000 		.4byte	0x31a
 1217 031a 0B       		.uleb128 0xb
 1218 031b 36040000 		.4byte	.LASF57
 1219 031f 14       		.byte	0x14
 1220 0320 09       		.byte	0x9
 1221 0321 4501     		.2byte	0x145
 1222 0323 69030000 		.4byte	0x369
 1223 0327 09       		.uleb128 0x9
ARM GAS  /tmp/ccQneqRX.s 			page 53


 1224 0328 19000000 		.4byte	.LASF48
 1225 032c 09       		.byte	0x9
 1226 032d 4601     		.2byte	0x146
 1227 032f 0A070000 		.4byte	0x70a
 1228 0333 00       		.byte	0
 1229 0334 09       		.uleb128 0x9
 1230 0335 7D000000 		.4byte	.LASF51
 1231 0339 09       		.byte	0x9
 1232 033a 4701     		.2byte	0x147
 1233 033c 0A070000 		.4byte	0x70a
 1234 0340 04       		.byte	0x4
 1235 0341 09       		.uleb128 0x9
 1236 0342 1E000000 		.4byte	.LASF58
 1237 0346 09       		.byte	0x9
 1238 0347 4801     		.2byte	0x148
 1239 0349 31010000 		.4byte	0x131
 1240 034d 08       		.byte	0x8
 1241 034e 09       		.uleb128 0x9
 1242 034f 72010000 		.4byte	.LASF59
 1243 0353 09       		.byte	0x9
 1244 0354 4901     		.2byte	0x149
 1245 0356 F1020000 		.4byte	0x2f1
 1246 035a 0C       		.byte	0xc
 1247 035b 08       		.uleb128 0x8
 1248 035c 70617200 		.ascii	"par\000"
 1249 0360 09       		.byte	0x9
 1250 0361 4B01     		.2byte	0x14b
 1251 0363 0D030000 		.4byte	0x30d
 1252 0367 10       		.byte	0x10
 1253 0368 00       		.byte	0
 1254 0369 03       		.uleb128 0x3
 1255 036a DA000000 		.4byte	.LASF60
 1256 036e 08       		.byte	0x8
 1257 036f 66       		.byte	0x66
 1258 0370 74030000 		.4byte	0x374
 1259 0374 0B       		.uleb128 0xb
 1260 0375 17030000 		.4byte	.LASF61
 1261 0379 0C       		.byte	0xc
 1262 037a 09       		.byte	0x9
 1263 037b 5501     		.2byte	0x155
 1264 037d B6030000 		.4byte	0x3b6
 1265 0381 09       		.uleb128 0x9
 1266 0382 19000000 		.4byte	.LASF48
 1267 0386 09       		.byte	0x9
 1268 0387 5601     		.2byte	0x156
 1269 0389 0A070000 		.4byte	0x70a
 1270 038d 00       		.byte	0
 1271 038e 09       		.uleb128 0x9
 1272 038f 7D000000 		.4byte	.LASF51
 1273 0393 09       		.byte	0x9
 1274 0394 5801     		.2byte	0x158
 1275 0396 0A070000 		.4byte	0x70a
 1276 039a 04       		.byte	0x4
 1277 039b 09       		.uleb128 0x9
 1278 039c 1E000000 		.4byte	.LASF58
 1279 03a0 09       		.byte	0x9
 1280 03a1 5A01     		.2byte	0x15a
ARM GAS  /tmp/ccQneqRX.s 			page 54


 1281 03a3 31010000 		.4byte	0x131
 1282 03a7 08       		.byte	0x8
 1283 03a8 09       		.uleb128 0x9
 1284 03a9 0A040000 		.4byte	.LASF62
 1285 03ad 09       		.byte	0x9
 1286 03ae 6201     		.2byte	0x162
 1287 03b0 31010000 		.4byte	0x131
 1288 03b4 0A       		.byte	0xa
 1289 03b5 00       		.byte	0
 1290 03b6 03       		.uleb128 0x3
 1291 03b7 8E000000 		.4byte	.LASF63
 1292 03bb 08       		.byte	0x8
 1293 03bc 6B       		.byte	0x6b
 1294 03bd C1030000 		.4byte	0x3c1
 1295 03c1 0B       		.uleb128 0xb
 1296 03c2 BC010000 		.4byte	.LASF64
 1297 03c6 04       		.byte	0x4
 1298 03c7 09       		.byte	0x9
 1299 03c8 7C01     		.2byte	0x17c
 1300 03ca DC030000 		.4byte	0x3dc
 1301 03ce 09       		.uleb128 0x9
 1302 03cf 0D050000 		.4byte	.LASF65
 1303 03d3 09       		.byte	0x9
 1304 03d4 8401     		.2byte	0x184
 1305 03d6 10070000 		.4byte	0x710
 1306 03da 00       		.byte	0
 1307 03db 00       		.byte	0
 1308 03dc 03       		.uleb128 0x3
 1309 03dd 8D020000 		.4byte	.LASF66
 1310 03e1 08       		.byte	0x8
 1311 03e2 70       		.byte	0x70
 1312 03e3 E7030000 		.4byte	0x3e7
 1313 03e7 0B       		.uleb128 0xb
 1314 03e8 22040000 		.4byte	.LASF67
 1315 03ec 70       		.byte	0x70
 1316 03ed 09       		.byte	0x9
 1317 03ee 9C01     		.2byte	0x19c
 1318 03f0 29040000 		.4byte	0x429
 1319 03f4 09       		.uleb128 0x9
 1320 03f5 7C050000 		.4byte	.LASF68
 1321 03f9 09       		.byte	0x9
 1322 03fa A001     		.2byte	0x1a0
 1323 03fc 8A020000 		.4byte	0x28a
 1324 0400 00       		.byte	0
 1325 0401 09       		.uleb128 0x9
 1326 0402 3E010000 		.4byte	.LASF69
 1327 0406 09       		.byte	0x9
 1328 0407 A401     		.2byte	0x1a4
 1329 0409 69030000 		.4byte	0x369
 1330 040d 1C       		.byte	0x1c
 1331 040e 08       		.uleb128 0x8
 1332 040f 64626700 		.ascii	"dbg\000"
 1333 0413 09       		.byte	0x9
 1334 0414 A801     		.2byte	0x1a8
 1335 0416 B6030000 		.4byte	0x3b6
 1336 041a 28       		.byte	0x28
 1337 041b 09       		.uleb128 0x9
ARM GAS  /tmp/ccQneqRX.s 			page 55


 1338 041c C7000000 		.4byte	.LASF70
 1339 0420 09       		.byte	0x9
 1340 0421 AC01     		.2byte	0x1ac
 1341 0423 3C010000 		.4byte	0x13c
 1342 0427 2C       		.byte	0x2c
 1343 0428 00       		.byte	0
 1344 0429 04       		.uleb128 0x4
 1345 042a 04       		.byte	0x4
 1346 042b 07       		.byte	0x7
 1347 042c FB020000 		.4byte	.LASF71
 1348 0430 0F       		.uleb128 0xf
 1349 0431 CE000000 		.4byte	0xce
 1350 0435 10       		.uleb128 0x10
 1351 0436 CE000000 		.4byte	0xce
 1352 043a 45040000 		.4byte	0x445
 1353 043e 11       		.uleb128 0x11
 1354 043f 29040000 		.4byte	0x429
 1355 0443 01       		.byte	0x1
 1356 0444 00       		.byte	0
 1357 0445 10       		.uleb128 0x10
 1358 0446 CE000000 		.4byte	0xce
 1359 044a 55040000 		.4byte	0x455
 1360 044e 11       		.uleb128 0x11
 1361 044f 29040000 		.4byte	0x429
 1362 0453 03       		.byte	0x3
 1363 0454 00       		.byte	0
 1364 0455 03       		.uleb128 0x3
 1365 0456 B3010000 		.4byte	.LASF72
 1366 045a 0A       		.byte	0xa
 1367 045b 65       		.byte	0x65
 1368 045c 0D030000 		.4byte	0x30d
 1369 0460 03       		.uleb128 0x3
 1370 0461 D1020000 		.4byte	.LASF73
 1371 0465 0A       		.byte	0xa
 1372 0466 6D       		.byte	0x6d
 1373 0467 D9000000 		.4byte	0xd9
 1374 046b 05       		.uleb128 0x5
 1375 046c 55030000 		.4byte	.LASF74
 1376 0470 04       		.byte	0x4
 1377 0471 0A       		.byte	0xa
 1378 0472 89       		.byte	0x89
 1379 0473 83040000 		.4byte	0x483
 1380 0477 07       		.uleb128 0x7
 1381 0478 737000   		.ascii	"sp\000"
 1382 047b 0A       		.byte	0xa
 1383 047c 8A       		.byte	0x8a
 1384 047d FF040000 		.4byte	0x4ff
 1385 0481 00       		.byte	0
 1386 0482 00       		.byte	0
 1387 0483 0B       		.uleb128 0xb
 1388 0484 82000000 		.4byte	.LASF75
 1389 0488 24       		.byte	0x24
 1390 0489 0B       		.byte	0xb
 1391 048a 5901     		.2byte	0x159
 1392 048c FF040000 		.4byte	0x4ff
 1393 0490 08       		.uleb128 0x8
 1394 0491 723400   		.ascii	"r4\000"
ARM GAS  /tmp/ccQneqRX.s 			page 56


 1395 0494 0B       		.byte	0xb
 1396 0495 6C01     		.2byte	0x16c
 1397 0497 55040000 		.4byte	0x455
 1398 049b 00       		.byte	0
 1399 049c 08       		.uleb128 0x8
 1400 049d 723500   		.ascii	"r5\000"
 1401 04a0 0B       		.byte	0xb
 1402 04a1 6D01     		.2byte	0x16d
 1403 04a3 55040000 		.4byte	0x455
 1404 04a7 04       		.byte	0x4
 1405 04a8 08       		.uleb128 0x8
 1406 04a9 723600   		.ascii	"r6\000"
 1407 04ac 0B       		.byte	0xb
 1408 04ad 6E01     		.2byte	0x16e
 1409 04af 55040000 		.4byte	0x455
 1410 04b3 08       		.byte	0x8
 1411 04b4 08       		.uleb128 0x8
 1412 04b5 723700   		.ascii	"r7\000"
 1413 04b8 0B       		.byte	0xb
 1414 04b9 6F01     		.2byte	0x16f
 1415 04bb 55040000 		.4byte	0x455
 1416 04bf 0C       		.byte	0xc
 1417 04c0 08       		.uleb128 0x8
 1418 04c1 723800   		.ascii	"r8\000"
 1419 04c4 0B       		.byte	0xb
 1420 04c5 7001     		.2byte	0x170
 1421 04c7 55040000 		.4byte	0x455
 1422 04cb 10       		.byte	0x10
 1423 04cc 08       		.uleb128 0x8
 1424 04cd 723900   		.ascii	"r9\000"
 1425 04d0 0B       		.byte	0xb
 1426 04d1 7101     		.2byte	0x171
 1427 04d3 55040000 		.4byte	0x455
 1428 04d7 14       		.byte	0x14
 1429 04d8 08       		.uleb128 0x8
 1430 04d9 72313000 		.ascii	"r10\000"
 1431 04dd 0B       		.byte	0xb
 1432 04de 7201     		.2byte	0x172
 1433 04e0 55040000 		.4byte	0x455
 1434 04e4 18       		.byte	0x18
 1435 04e5 08       		.uleb128 0x8
 1436 04e6 72313100 		.ascii	"r11\000"
 1437 04ea 0B       		.byte	0xb
 1438 04eb 7301     		.2byte	0x173
 1439 04ed 55040000 		.4byte	0x455
 1440 04f1 1C       		.byte	0x1c
 1441 04f2 08       		.uleb128 0x8
 1442 04f3 6C7200   		.ascii	"lr\000"
 1443 04f6 0B       		.byte	0xb
 1444 04f7 7401     		.2byte	0x174
 1445 04f9 55040000 		.4byte	0x455
 1446 04fd 20       		.byte	0x20
 1447 04fe 00       		.byte	0
 1448 04ff 0A       		.uleb128 0xa
 1449 0500 04       		.byte	0x4
 1450 0501 83040000 		.4byte	0x483
 1451 0505 12       		.uleb128 0x12
ARM GAS  /tmp/ccQneqRX.s 			page 57


 1452 0506 60       		.byte	0x60
 1453 0507 0C       		.byte	0xc
 1454 0508 A101     		.2byte	0x1a1
 1455 050a 11060000 		.4byte	0x611
 1456 050e 08       		.uleb128 0x8
 1457 050f 43523100 		.ascii	"CR1\000"
 1458 0513 0C       		.byte	0xc
 1459 0514 A201     		.2byte	0x1a2
 1460 0516 30040000 		.4byte	0x430
 1461 051a 00       		.byte	0
 1462 051b 08       		.uleb128 0x8
 1463 051c 43523200 		.ascii	"CR2\000"
 1464 0520 0C       		.byte	0xc
 1465 0521 A301     		.2byte	0x1a3
 1466 0523 30040000 		.4byte	0x430
 1467 0527 04       		.byte	0x4
 1468 0528 09       		.uleb128 0x9
 1469 0529 6F020000 		.4byte	.LASF76
 1470 052d 0C       		.byte	0xc
 1471 052e A401     		.2byte	0x1a4
 1472 0530 30040000 		.4byte	0x430
 1473 0534 08       		.byte	0x8
 1474 0535 09       		.uleb128 0x9
 1475 0536 0D000000 		.4byte	.LASF77
 1476 053a 0C       		.byte	0xc
 1477 053b A501     		.2byte	0x1a5
 1478 053d 30040000 		.4byte	0x430
 1479 0541 0C       		.byte	0xc
 1480 0542 08       		.uleb128 0x8
 1481 0543 535200   		.ascii	"SR\000"
 1482 0546 0C       		.byte	0xc
 1483 0547 A601     		.2byte	0x1a6
 1484 0549 30040000 		.4byte	0x430
 1485 054d 10       		.byte	0x10
 1486 054e 08       		.uleb128 0x8
 1487 054f 45475200 		.ascii	"EGR\000"
 1488 0553 0C       		.byte	0xc
 1489 0554 A701     		.2byte	0x1a7
 1490 0556 30040000 		.4byte	0x430
 1491 055a 14       		.byte	0x14
 1492 055b 09       		.uleb128 0x9
 1493 055c 13010000 		.4byte	.LASF78
 1494 0560 0C       		.byte	0xc
 1495 0561 A801     		.2byte	0x1a8
 1496 0563 30040000 		.4byte	0x430
 1497 0567 18       		.byte	0x18
 1498 0568 09       		.uleb128 0x9
 1499 0569 19010000 		.4byte	.LASF79
 1500 056d 0C       		.byte	0xc
 1501 056e A901     		.2byte	0x1a9
 1502 0570 30040000 		.4byte	0x430
 1503 0574 1C       		.byte	0x1c
 1504 0575 09       		.uleb128 0x9
 1505 0576 77010000 		.4byte	.LASF80
 1506 057a 0C       		.byte	0xc
 1507 057b AA01     		.2byte	0x1aa
 1508 057d 30040000 		.4byte	0x430
ARM GAS  /tmp/ccQneqRX.s 			page 58


 1509 0581 20       		.byte	0x20
 1510 0582 08       		.uleb128 0x8
 1511 0583 434E5400 		.ascii	"CNT\000"
 1512 0587 0C       		.byte	0xc
 1513 0588 AB01     		.2byte	0x1ab
 1514 058a 30040000 		.4byte	0x430
 1515 058e 24       		.byte	0x24
 1516 058f 08       		.uleb128 0x8
 1517 0590 50534300 		.ascii	"PSC\000"
 1518 0594 0C       		.byte	0xc
 1519 0595 AC01     		.2byte	0x1ac
 1520 0597 30040000 		.4byte	0x430
 1521 059b 28       		.byte	0x28
 1522 059c 08       		.uleb128 0x8
 1523 059d 41525200 		.ascii	"ARR\000"
 1524 05a1 0C       		.byte	0xc
 1525 05a2 AD01     		.2byte	0x1ad
 1526 05a4 30040000 		.4byte	0x430
 1527 05a8 2C       		.byte	0x2c
 1528 05a9 08       		.uleb128 0x8
 1529 05aa 52435200 		.ascii	"RCR\000"
 1530 05ae 0C       		.byte	0xc
 1531 05af AE01     		.2byte	0x1ae
 1532 05b1 30040000 		.4byte	0x430
 1533 05b5 30       		.byte	0x30
 1534 05b6 08       		.uleb128 0x8
 1535 05b7 43435200 		.ascii	"CCR\000"
 1536 05bb 0C       		.byte	0xc
 1537 05bc AF01     		.2byte	0x1af
 1538 05be 11060000 		.4byte	0x611
 1539 05c2 34       		.byte	0x34
 1540 05c3 09       		.uleb128 0x9
 1541 05c4 FD000000 		.4byte	.LASF81
 1542 05c8 0C       		.byte	0xc
 1543 05c9 B001     		.2byte	0x1b0
 1544 05cb 30040000 		.4byte	0x430
 1545 05cf 44       		.byte	0x44
 1546 05d0 08       		.uleb128 0x8
 1547 05d1 44435200 		.ascii	"DCR\000"
 1548 05d5 0C       		.byte	0xc
 1549 05d6 B101     		.2byte	0x1b1
 1550 05d8 30040000 		.4byte	0x430
 1551 05dc 48       		.byte	0x48
 1552 05dd 09       		.uleb128 0x9
 1553 05de D3040000 		.4byte	.LASF82
 1554 05e2 0C       		.byte	0xc
 1555 05e3 B201     		.2byte	0x1b2
 1556 05e5 30040000 		.4byte	0x430
 1557 05e9 4C       		.byte	0x4c
 1558 05ea 08       		.uleb128 0x8
 1559 05eb 4F5200   		.ascii	"OR\000"
 1560 05ee 0C       		.byte	0xc
 1561 05ef B301     		.2byte	0x1b3
 1562 05f1 30040000 		.4byte	0x430
 1563 05f5 50       		.byte	0x50
 1564 05f6 09       		.uleb128 0x9
 1565 05f7 1F010000 		.4byte	.LASF83
ARM GAS  /tmp/ccQneqRX.s 			page 59


 1566 05fb 0C       		.byte	0xc
 1567 05fc B401     		.2byte	0x1b4
 1568 05fe 30040000 		.4byte	0x430
 1569 0602 54       		.byte	0x54
 1570 0603 09       		.uleb128 0x9
 1571 0604 54040000 		.4byte	.LASF84
 1572 0608 0C       		.byte	0xc
 1573 0609 B501     		.2byte	0x1b5
 1574 060b 16060000 		.4byte	0x616
 1575 060f 58       		.byte	0x58
 1576 0610 00       		.byte	0
 1577 0611 0F       		.uleb128 0xf
 1578 0612 45040000 		.4byte	0x445
 1579 0616 0F       		.uleb128 0xf
 1580 0617 35040000 		.4byte	0x435
 1581 061b 13       		.uleb128 0x13
 1582 061c 99020000 		.4byte	.LASF85
 1583 0620 0C       		.byte	0xc
 1584 0621 B601     		.2byte	0x1b6
 1585 0623 05050000 		.4byte	0x505
 1586 0627 14       		.uleb128 0x14
 1587 0628 04       		.byte	0x4
 1588 0629 09       		.byte	0x9
 1589 062a D2       		.byte	0xd2
 1590 062b 8A060000 		.4byte	0x68a
 1591 062f 15       		.uleb128 0x15
 1592 0630 24000000 		.4byte	.LASF86
 1593 0634 09       		.byte	0x9
 1594 0635 D9       		.byte	0xd9
 1595 0636 10010000 		.4byte	0x110
 1596 063a 15       		.uleb128 0x15
 1597 063b BE000000 		.4byte	.LASF87
 1598 063f 09       		.byte	0x9
 1599 0640 E0       		.byte	0xe0
 1600 0641 10010000 		.4byte	0x110
 1601 0645 15       		.uleb128 0x15
 1602 0646 D5060000 		.4byte	.LASF88
 1603 064a 09       		.byte	0x9
 1604 064b E7       		.byte	0xe7
 1605 064c 0D030000 		.4byte	0x30d
 1606 0650 15       		.uleb128 0x15
 1607 0651 4F020000 		.4byte	.LASF89
 1608 0655 09       		.byte	0x9
 1609 0656 EE       		.byte	0xee
 1610 0657 8A060000 		.4byte	0x68a
 1611 065b 15       		.uleb128 0x15
 1612 065c D2000000 		.4byte	.LASF90
 1613 0660 09       		.byte	0x9
 1614 0661 F3       		.byte	0xf3
 1615 0662 10010000 		.4byte	0x110
 1616 0666 15       		.uleb128 0x15
 1617 0667 48020000 		.4byte	.LASF91
 1618 066b 09       		.byte	0x9
 1619 066c FC       		.byte	0xfc
 1620 066d B5060000 		.4byte	0x6b5
 1621 0671 16       		.uleb128 0x16
 1622 0672 80040000 		.4byte	.LASF92
ARM GAS  /tmp/ccQneqRX.s 			page 60


 1623 0676 09       		.byte	0x9
 1624 0677 0501     		.2byte	0x105
 1625 0679 EC060000 		.4byte	0x6ec
 1626 067d 16       		.uleb128 0x16
 1627 067e 1B040000 		.4byte	.LASF93
 1628 0682 09       		.byte	0x9
 1629 0683 0D01     		.2byte	0x10d
 1630 0685 1B010000 		.4byte	0x11b
 1631 0689 00       		.byte	0
 1632 068a 0A       		.uleb128 0xa
 1633 068b 04       		.byte	0x4
 1634 068c 25020000 		.4byte	0x225
 1635 0690 05       		.uleb128 0x5
 1636 0691 47040000 		.4byte	.LASF94
 1637 0695 0C       		.byte	0xc
 1638 0696 0D       		.byte	0xd
 1639 0697 34       		.byte	0x34
 1640 0698 B5060000 		.4byte	0x6b5
 1641 069c 06       		.uleb128 0x6
 1642 069d 63020000 		.4byte	.LASF29
 1643 06a1 0D       		.byte	0xd
 1644 06a2 35       		.byte	0x35
 1645 06a3 5A020000 		.4byte	0x25a
 1646 06a7 00       		.byte	0
 1647 06a8 07       		.uleb128 0x7
 1648 06a9 636E7400 		.ascii	"cnt\000"
 1649 06ad 0D       		.byte	0xd
 1650 06ae 37       		.byte	0x37
 1651 06af 26010000 		.4byte	0x126
 1652 06b3 08       		.byte	0x8
 1653 06b4 00       		.byte	0
 1654 06b5 0A       		.uleb128 0xa
 1655 06b6 04       		.byte	0x4
 1656 06b7 90060000 		.4byte	0x690
 1657 06bb 05       		.uleb128 0x5
 1658 06bc 73050000 		.4byte	.LASF95
 1659 06c0 10       		.byte	0x10
 1660 06c1 0E       		.byte	0xe
 1661 06c2 39       		.byte	0x39
 1662 06c3 EC060000 		.4byte	0x6ec
 1663 06c7 06       		.uleb128 0x6
 1664 06c8 63020000 		.4byte	.LASF29
 1665 06cc 0E       		.byte	0xe
 1666 06cd 3A       		.byte	0x3a
 1667 06ce 5A020000 		.4byte	0x25a
 1668 06d2 00       		.byte	0
 1669 06d3 06       		.uleb128 0x6
 1670 06d4 97040000 		.4byte	.LASF96
 1671 06d8 0E       		.byte	0xe
 1672 06d9 3C       		.byte	0x3c
 1673 06da 30020000 		.4byte	0x230
 1674 06de 08       		.byte	0x8
 1675 06df 06       		.uleb128 0x6
 1676 06e0 19000000 		.4byte	.LASF48
 1677 06e4 0E       		.byte	0xe
 1678 06e5 3E       		.byte	0x3e
 1679 06e6 20070000 		.4byte	0x720
ARM GAS  /tmp/ccQneqRX.s 			page 61


 1680 06ea 0C       		.byte	0xc
 1681 06eb 00       		.byte	0
 1682 06ec 0A       		.uleb128 0xa
 1683 06ed 04       		.byte	0x4
 1684 06ee BB060000 		.4byte	0x6bb
 1685 06f2 0A       		.uleb128 0xa
 1686 06f3 04       		.byte	0x4
 1687 06f4 F8060000 		.4byte	0x6f8
 1688 06f8 17       		.uleb128 0x17
 1689 06f9 FD060000 		.4byte	0x6fd
 1690 06fd 04       		.uleb128 0x4
 1691 06fe 01       		.byte	0x1
 1692 06ff 08       		.byte	0x8
 1693 0700 B6040000 		.4byte	.LASF97
 1694 0704 0A       		.uleb128 0xa
 1695 0705 04       		.byte	0x4
 1696 0706 60040000 		.4byte	0x460
 1697 070a 0A       		.uleb128 0xa
 1698 070b 04       		.byte	0x4
 1699 070c 0F030000 		.4byte	0x30f
 1700 0710 0F       		.uleb128 0xf
 1701 0711 F2060000 		.4byte	0x6f2
 1702 0715 03       		.uleb128 0x3
 1703 0716 D4010000 		.4byte	.LASF98
 1704 071a 0E       		.byte	0xe
 1705 071b 34       		.byte	0x34
 1706 071c BB060000 		.4byte	0x6bb
 1707 0720 0A       		.uleb128 0xa
 1708 0721 04       		.byte	0x4
 1709 0722 15070000 		.4byte	0x715
 1710 0726 04       		.uleb128 0x4
 1711 0727 01       		.byte	0x1
 1712 0728 02       		.byte	0x2
 1713 0729 DC030000 		.4byte	.LASF99
 1714 072d 0A       		.uleb128 0xa
 1715 072e 04       		.byte	0x4
 1716 072f 33070000 		.4byte	0x733
 1717 0733 18       		.uleb128 0x18
 1718 0734 19       		.uleb128 0x19
 1719 0735 10       		.byte	0x10
 1720 0736 0F       		.byte	0xf
 1721 0737 3D       		.byte	0x3d
 1722 0738 6D070000 		.4byte	0x76d
 1723 073c 06       		.uleb128 0x6
 1724 073d 5E020000 		.4byte	.LASF33
 1725 0741 0F       		.byte	0xf
 1726 0742 3E       		.byte	0x3e
 1727 0743 F2060000 		.4byte	0x6f2
 1728 0747 00       		.byte	0
 1729 0748 06       		.uleb128 0x6
 1730 0749 62030000 		.4byte	.LASF100
 1731 074d 0F       		.byte	0xf
 1732 074e 3F       		.byte	0x3f
 1733 074f 2D070000 		.4byte	0x72d
 1734 0753 04       		.byte	0x4
 1735 0754 06       		.uleb128 0x6
 1736 0755 55020000 		.4byte	.LASF101
ARM GAS  /tmp/ccQneqRX.s 			page 62


 1737 0759 0F       		.byte	0xf
 1738 075a 40       		.byte	0x40
 1739 075b 2D070000 		.4byte	0x72d
 1740 075f 08       		.byte	0x8
 1741 0760 06       		.uleb128 0x6
 1742 0761 F8030000 		.4byte	.LASF102
 1743 0765 0F       		.byte	0xf
 1744 0766 41       		.byte	0x41
 1745 0767 2D070000 		.4byte	0x72d
 1746 076b 0C       		.byte	0xc
 1747 076c 00       		.byte	0
 1748 076d 03       		.uleb128 0x3
 1749 076e DC020000 		.4byte	.LASF103
 1750 0772 0F       		.byte	0xf
 1751 0773 42       		.byte	0x42
 1752 0774 34070000 		.4byte	0x734
 1753 0778 1A       		.uleb128 0x1a
 1754 0779 FF040000 		.4byte	.LASF110
 1755 077d 02       		.byte	0x2
 1756 077e 0601     		.2byte	0x106
 1757 0780 03       		.byte	0x3
 1758 0781 92070000 		.4byte	0x792
 1759 0785 1B       		.uleb128 0x1b
 1760 0786 DC010000 		.4byte	.LASF140
 1761 078a 02       		.byte	0x2
 1762 078b 0601     		.2byte	0x106
 1763 078d CE000000 		.4byte	0xce
 1764 0791 00       		.byte	0
 1765 0792 1C       		.uleb128 0x1c
 1766 0793 64040000 		.4byte	.LASF106
 1767 0797 03       		.byte	0x3
 1768 0798 8B       		.byte	0x8b
 1769 0799 31010000 		.4byte	0x131
 1770 079d 03       		.byte	0x3
 1771 079e 1D       		.uleb128 0x1d
 1772 079f 9D000000 		.4byte	.LASF104
 1773 07a3 0B       		.byte	0xb
 1774 07a4 5202     		.2byte	0x252
 1775 07a6 03       		.byte	0x3
 1776 07a7 1D       		.uleb128 0x1d
 1777 07a8 45010000 		.4byte	.LASF105
 1778 07ac 0B       		.byte	0xb
 1779 07ad 6A02     		.2byte	0x26a
 1780 07af 03       		.byte	0x3
 1781 07b0 1C       		.uleb128 0x1c
 1782 07b1 2A050000 		.4byte	.LASF107
 1783 07b5 10       		.byte	0x10
 1784 07b6 69       		.byte	0x69
 1785 07b7 31010000 		.4byte	0x131
 1786 07bb 03       		.byte	0x3
 1787 07bc 1D       		.uleb128 0x1d
 1788 07bd 2C040000 		.4byte	.LASF108
 1789 07c1 11       		.byte	0x11
 1790 07c2 7601     		.2byte	0x176
 1791 07c4 03       		.byte	0x3
 1792 07c5 1E       		.uleb128 0x1e
 1793 07c6 E8010000 		.4byte	.LASF109
ARM GAS  /tmp/ccQneqRX.s 			page 63


 1794 07ca 12       		.byte	0x12
 1795 07cb 8801     		.2byte	0x188
 1796 07cd 31010000 		.4byte	0x131
 1797 07d1 03       		.byte	0x3
 1798 07d2 1A       		.uleb128 0x1a
 1799 07d3 F3060000 		.4byte	.LASF111
 1800 07d7 11       		.byte	0x11
 1801 07d8 8201     		.2byte	0x182
 1802 07da 03       		.byte	0x3
 1803 07db ED070000 		.4byte	0x7ed
 1804 07df 1F       		.uleb128 0x1f
 1805 07e0 CE030000 		.4byte	.LASF112
 1806 07e4 FD070000 		.4byte	0x7fd
 1807 07e8 F3060000 		.4byte	.LASF111
 1808 07ec 00       		.byte	0
 1809 07ed 10       		.uleb128 0x10
 1810 07ee FD060000 		.4byte	0x6fd
 1811 07f2 FD070000 		.4byte	0x7fd
 1812 07f6 11       		.uleb128 0x11
 1813 07f7 29040000 		.4byte	0x429
 1814 07fb 0B       		.byte	0xb
 1815 07fc 00       		.byte	0
 1816 07fd 17       		.uleb128 0x17
 1817 07fe ED070000 		.4byte	0x7ed
 1818 0802 20       		.uleb128 0x20
 1819 0803 68030000 		.4byte	.LASF141
 1820 0807 12       		.byte	0x12
 1821 0808 9B01     		.2byte	0x19b
 1822 080a 31010000 		.4byte	0x131
 1823 080e 03       		.byte	0x3
 1824 080f 20080000 		.4byte	0x820
 1825 0813 21       		.uleb128 0x21
 1826 0814 A5020000 		.4byte	.LASF113
 1827 0818 12       		.byte	0x12
 1828 0819 9C01     		.2byte	0x19c
 1829 081b 31010000 		.4byte	0x131
 1830 081f 00       		.byte	0
 1831 0820 22       		.uleb128 0x22
 1832 0821 44050000 		.4byte	.LASF114
 1833 0825 01       		.byte	0x1
 1834 0826 5F       		.byte	0x5f
 1835 0827 00000000 		.4byte	.LFB219
 1836 082b 66000000 		.4byte	.LFE219-.LFB219
 1837 082f 01       		.uleb128 0x1
 1838 0830 9C       		.byte	0x9c
 1839 0831 EA080000 		.4byte	0x8ea
 1840 0835 23       		.uleb128 0x23
 1841 0836 0E000000 		.4byte	.LVL0
 1842 083a DE0B0000 		.4byte	0xbde
 1843 083e 4C080000 		.4byte	0x84c
 1844 0842 24       		.uleb128 0x24
 1845 0843 01       		.uleb128 0x1
 1846 0844 50       		.byte	0x50
 1847 0845 05       		.uleb128 0x5
 1848 0846 03       		.byte	0x3
 1849 0847 00000000 		.4byte	.LC0
 1850 084b 00       		.byte	0
ARM GAS  /tmp/ccQneqRX.s 			page 64


 1851 084c 23       		.uleb128 0x23
 1852 084d 1A000000 		.4byte	.LVL1
 1853 0851 EF0B0000 		.4byte	0xbef
 1854 0855 63080000 		.4byte	0x863
 1855 0859 24       		.uleb128 0x24
 1856 085a 01       		.uleb128 0x1
 1857 085b 50       		.byte	0x50
 1858 085c 05       		.uleb128 0x5
 1859 085d 03       		.byte	0x3
 1860 085e 14000000 		.4byte	.LC1
 1861 0862 00       		.byte	0
 1862 0863 23       		.uleb128 0x23
 1863 0864 26000000 		.4byte	.LVL2
 1864 0868 DE0B0000 		.4byte	0xbde
 1865 086c 7A080000 		.4byte	0x87a
 1866 0870 24       		.uleb128 0x24
 1867 0871 01       		.uleb128 0x1
 1868 0872 50       		.byte	0x50
 1869 0873 05       		.uleb128 0x5
 1870 0874 03       		.byte	0x3
 1871 0875 20000000 		.4byte	.LC2
 1872 0879 00       		.byte	0
 1873 087a 23       		.uleb128 0x23
 1874 087b 32000000 		.4byte	.LVL3
 1875 087f EF0B0000 		.4byte	0xbef
 1876 0883 91080000 		.4byte	0x891
 1877 0887 24       		.uleb128 0x24
 1878 0888 01       		.uleb128 0x1
 1879 0889 50       		.byte	0x50
 1880 088a 05       		.uleb128 0x5
 1881 088b 03       		.byte	0x3
 1882 088c 34000000 		.4byte	.LC3
 1883 0890 00       		.byte	0
 1884 0891 23       		.uleb128 0x23
 1885 0892 3E000000 		.4byte	.LVL4
 1886 0896 DE0B0000 		.4byte	0xbde
 1887 089a A8080000 		.4byte	0x8a8
 1888 089e 24       		.uleb128 0x24
 1889 089f 01       		.uleb128 0x1
 1890 08a0 50       		.byte	0x50
 1891 08a1 05       		.uleb128 0x5
 1892 08a2 03       		.byte	0x3
 1893 08a3 3C000000 		.4byte	.LC4
 1894 08a7 00       		.byte	0
 1895 08a8 23       		.uleb128 0x23
 1896 08a9 4A000000 		.4byte	.LVL5
 1897 08ad EF0B0000 		.4byte	0xbef
 1898 08b1 BF080000 		.4byte	0x8bf
 1899 08b5 24       		.uleb128 0x24
 1900 08b6 01       		.uleb128 0x1
 1901 08b7 50       		.byte	0x50
 1902 08b8 05       		.uleb128 0x5
 1903 08b9 03       		.byte	0x3
 1904 08ba 50000000 		.4byte	.LC5
 1905 08be 00       		.byte	0
 1906 08bf 23       		.uleb128 0x23
 1907 08c0 56000000 		.4byte	.LVL6
ARM GAS  /tmp/ccQneqRX.s 			page 65


 1908 08c4 DE0B0000 		.4byte	0xbde
 1909 08c8 D6080000 		.4byte	0x8d6
 1910 08cc 24       		.uleb128 0x24
 1911 08cd 01       		.uleb128 0x1
 1912 08ce 50       		.byte	0x50
 1913 08cf 05       		.uleb128 0x5
 1914 08d0 03       		.byte	0x3
 1915 08d1 5C000000 		.4byte	.LC6
 1916 08d5 00       		.byte	0
 1917 08d6 25       		.uleb128 0x25
 1918 08d7 66000000 		.4byte	.LVL7
 1919 08db EF0B0000 		.4byte	0xbef
 1920 08df 24       		.uleb128 0x24
 1921 08e0 01       		.uleb128 0x1
 1922 08e1 50       		.byte	0x50
 1923 08e2 05       		.uleb128 0x5
 1924 08e3 03       		.byte	0x3
 1925 08e4 70000000 		.4byte	.LC7
 1926 08e8 00       		.byte	0
 1927 08e9 00       		.byte	0
 1928 08ea 22       		.uleb128 0x22
 1929 08eb 9A030000 		.4byte	.LASF115
 1930 08ef 01       		.byte	0x1
 1931 08f0 87       		.byte	0x87
 1932 08f1 00000000 		.4byte	.LFB220
 1933 08f5 20000000 		.4byte	.LFE220-.LFB220
 1934 08f9 01       		.uleb128 0x1
 1935 08fa 9C       		.byte	0x9c
 1936 08fb 16090000 		.4byte	0x916
 1937 08ff 26       		.uleb128 0x26
 1938 0900 6900     		.ascii	"i\000"
 1939 0902 01       		.byte	0x1
 1940 0903 88       		.byte	0x88
 1941 0904 37000000 		.4byte	0x37
 1942 0908 00000000 		.4byte	.LLST0
 1943 090c 27       		.uleb128 0x27
 1944 090d 14000000 		.4byte	.LVL10
 1945 0911 000C0000 		.4byte	0xc00
 1946 0915 00       		.byte	0
 1947 0916 22       		.uleb128 0x22
 1948 0917 43030000 		.4byte	.LASF116
 1949 091b 01       		.byte	0x1
 1950 091c 92       		.byte	0x92
 1951 091d 00000000 		.4byte	.LFB221
 1952 0921 26000000 		.4byte	.LFE221-.LFB221
 1953 0925 01       		.uleb128 0x1
 1954 0926 9C       		.byte	0x9c
 1955 0927 42090000 		.4byte	0x942
 1956 092b 26       		.uleb128 0x26
 1957 092c 6900     		.ascii	"i\000"
 1958 092e 01       		.byte	0x1
 1959 092f 93       		.byte	0x93
 1960 0930 37000000 		.4byte	0x37
 1961 0934 14000000 		.4byte	.LLST1
 1962 0938 27       		.uleb128 0x27
 1963 0939 1C000000 		.4byte	.LVL13
 1964 093d 120C0000 		.4byte	0xc12
ARM GAS  /tmp/ccQneqRX.s 			page 66


 1965 0941 00       		.byte	0
 1966 0942 28       		.uleb128 0x28
 1967 0943 07070000 		.4byte	.LASF142
 1968 0947 01       		.byte	0x1
 1969 0948 9F       		.byte	0x9f
 1970 0949 31010000 		.4byte	0x131
 1971 094d 00000000 		.4byte	.LFB222
 1972 0951 1E000000 		.4byte	.LFE222-.LFB222
 1973 0955 01       		.uleb128 0x1
 1974 0956 9C       		.byte	0x9c
 1975 0957 480A0000 		.4byte	0xa48
 1976 095b 29       		.uleb128 0x29
 1977 095c 02080000 		.4byte	0x802
 1978 0960 08000000 		.4byte	.LBB50
 1979 0964 12000000 		.4byte	.LBE50-.LBB50
 1980 0968 01       		.byte	0x1
 1981 0969 A2       		.byte	0xa2
 1982 096a 380A0000 		.4byte	0xa38
 1983 096e 2A       		.uleb128 0x2a
 1984 096f 08000000 		.4byte	.LBB51
 1985 0973 12000000 		.4byte	.LBE51-.LBB51
 1986 0977 2B       		.uleb128 0x2b
 1987 0978 13080000 		.4byte	0x813
 1988 097c 2C       		.uleb128 0x2c
 1989 097d BC070000 		.4byte	0x7bc
 1990 0981 08000000 		.4byte	.LBB52
 1991 0985 06000000 		.4byte	.LBE52-.LBB52
 1992 0989 12       		.byte	0x12
 1993 098a 9E01     		.2byte	0x19e
 1994 098c B9090000 		.4byte	0x9b9
 1995 0990 2D       		.uleb128 0x2d
 1996 0991 9E070000 		.4byte	0x79e
 1997 0995 08000000 		.4byte	.LBB53
 1998 0999 06000000 		.4byte	.LBE53-.LBB53
 1999 099d 11       		.byte	0x11
 2000 099e 7801     		.2byte	0x178
 2001 09a0 2D       		.uleb128 0x2d
 2002 09a1 78070000 		.4byte	0x778
 2003 09a5 08000000 		.4byte	.LBB54
 2004 09a9 06000000 		.4byte	.LBE54-.LBB54
 2005 09ad 0B       		.byte	0xb
 2006 09ae 5A02     		.2byte	0x25a
 2007 09b0 2E       		.uleb128 0x2e
 2008 09b1 85070000 		.4byte	0x785
 2009 09b5 20       		.byte	0x20
 2010 09b6 00       		.byte	0
 2011 09b7 00       		.byte	0
 2012 09b8 00       		.byte	0
 2013 09b9 2C       		.uleb128 0x2c
 2014 09ba C5070000 		.4byte	0x7c5
 2015 09be 0E000000 		.4byte	.LBB56
 2016 09c2 06000000 		.4byte	.LBE56-.LBB56
 2017 09c6 12       		.byte	0x12
 2018 09c7 9F01     		.2byte	0x19f
 2019 09c9 EE090000 		.4byte	0x9ee
 2020 09cd 2D       		.uleb128 0x2d
 2021 09ce B0070000 		.4byte	0x7b0
ARM GAS  /tmp/ccQneqRX.s 			page 67


 2022 09d2 0E000000 		.4byte	.LBB57
 2023 09d6 06000000 		.4byte	.LBE57-.LBB57
 2024 09da 12       		.byte	0x12
 2025 09db 8D01     		.2byte	0x18d
 2026 09dd 2F       		.uleb128 0x2f
 2027 09de 92070000 		.4byte	0x792
 2028 09e2 0E000000 		.4byte	.LBB58
 2029 09e6 06000000 		.4byte	.LBE58-.LBB58
 2030 09ea 10       		.byte	0x10
 2031 09eb 6B       		.byte	0x6b
 2032 09ec 00       		.byte	0
 2033 09ed 00       		.byte	0
 2034 09ee 2D       		.uleb128 0x2d
 2035 09ef D2070000 		.4byte	0x7d2
 2036 09f3 14000000 		.4byte	.LBB60
 2037 09f7 06000000 		.4byte	.LBE60-.LBB60
 2038 09fb 12       		.byte	0x12
 2039 09fc A001     		.2byte	0x1a0
 2040 09fe 2A       		.uleb128 0x2a
 2041 09ff 14000000 		.4byte	.LBB61
 2042 0a03 06000000 		.4byte	.LBE61-.LBB61
 2043 0a07 2B       		.uleb128 0x2b
 2044 0a08 DF070000 		.4byte	0x7df
 2045 0a0c 2D       		.uleb128 0x2d
 2046 0a0d A7070000 		.4byte	0x7a7
 2047 0a11 14000000 		.4byte	.LBB62
 2048 0a15 06000000 		.4byte	.LBE62-.LBB62
 2049 0a19 11       		.byte	0x11
 2050 0a1a 8F01     		.2byte	0x18f
 2051 0a1c 2D       		.uleb128 0x2d
 2052 0a1d 78070000 		.4byte	0x778
 2053 0a21 14000000 		.4byte	.LBB63
 2054 0a25 06000000 		.4byte	.LBE63-.LBB63
 2055 0a29 0B       		.byte	0xb
 2056 0a2a 6D02     		.2byte	0x26d
 2057 0a2c 2E       		.uleb128 0x2e
 2058 0a2d 85070000 		.4byte	0x785
 2059 0a31 00       		.byte	0
 2060 0a32 00       		.byte	0
 2061 0a33 00       		.byte	0
 2062 0a34 00       		.byte	0
 2063 0a35 00       		.byte	0
 2064 0a36 00       		.byte	0
 2065 0a37 00       		.byte	0
 2066 0a38 30       		.uleb128 0x30
 2067 0a39 08000000 		.4byte	.LVL14
 2068 0a3d 270C0000 		.4byte	0xc27
 2069 0a41 24       		.uleb128 0x24
 2070 0a42 01       		.uleb128 0x1
 2071 0a43 50       		.byte	0x50
 2072 0a44 01       		.uleb128 0x1
 2073 0a45 31       		.byte	0x31
 2074 0a46 00       		.byte	0
 2075 0a47 00       		.byte	0
 2076 0a48 31       		.uleb128 0x31
 2077 0a49 F0000000 		.4byte	.LASF117
 2078 0a4d 13       		.byte	0x13
ARM GAS  /tmp/ccQneqRX.s 			page 68


 2079 0a4e 9606     		.2byte	0x696
 2080 0a50 540A0000 		.4byte	0xa54
 2081 0a54 0F       		.uleb128 0xf
 2082 0a55 C3000000 		.4byte	0xc3
 2083 0a59 32       		.uleb128 0x32
 2084 0a5a 636800   		.ascii	"ch\000"
 2085 0a5d 09       		.byte	0x9
 2086 0a5e D201     		.2byte	0x1d2
 2087 0a60 DC030000 		.4byte	0x3dc
 2088 0a64 10       		.uleb128 0x10
 2089 0a65 6F0A0000 		.4byte	0xa6f
 2090 0a69 6F0A0000 		.4byte	0xa6f
 2091 0a6d 33       		.uleb128 0x33
 2092 0a6e 00       		.byte	0
 2093 0a6f 0A       		.uleb128 0xa
 2094 0a70 04       		.byte	0x4
 2095 0a71 750A0000 		.4byte	0xa75
 2096 0a75 17       		.uleb128 0x17
 2097 0a76 6D070000 		.4byte	0x76d
 2098 0a7a 34       		.uleb128 0x34
 2099 0a7b 33060000 		.4byte	.LASF118
 2100 0a7f 14       		.byte	0x14
 2101 0a80 19       		.byte	0x19
 2102 0a81 850A0000 		.4byte	0xa85
 2103 0a85 17       		.uleb128 0x17
 2104 0a86 640A0000 		.4byte	0xa64
 2105 0a8a 34       		.uleb128 0x34
 2106 0a8b 45060000 		.4byte	.LASF119
 2107 0a8f 15       		.byte	0x15
 2108 0a90 19       		.byte	0x19
 2109 0a91 950A0000 		.4byte	0xa95
 2110 0a95 17       		.uleb128 0x17
 2111 0a96 640A0000 		.4byte	0xa64
 2112 0a9a 34       		.uleb128 0x34
 2113 0a9b 57060000 		.4byte	.LASF120
 2114 0a9f 16       		.byte	0x16
 2115 0aa0 19       		.byte	0x19
 2116 0aa1 A50A0000 		.4byte	0xaa5
 2117 0aa5 17       		.uleb128 0x17
 2118 0aa6 640A0000 		.4byte	0xa64
 2119 0aaa 34       		.uleb128 0x34
 2120 0aab 69060000 		.4byte	.LASF121
 2121 0aaf 17       		.byte	0x17
 2122 0ab0 19       		.byte	0x19
 2123 0ab1 B50A0000 		.4byte	0xab5
 2124 0ab5 17       		.uleb128 0x17
 2125 0ab6 640A0000 		.4byte	0xa64
 2126 0aba 34       		.uleb128 0x34
 2127 0abb 7B060000 		.4byte	.LASF122
 2128 0abf 18       		.byte	0x18
 2129 0ac0 19       		.byte	0x19
 2130 0ac1 C50A0000 		.4byte	0xac5
 2131 0ac5 17       		.uleb128 0x17
 2132 0ac6 640A0000 		.4byte	0xa64
 2133 0aca 34       		.uleb128 0x34
 2134 0acb 8D060000 		.4byte	.LASF123
 2135 0acf 19       		.byte	0x19
ARM GAS  /tmp/ccQneqRX.s 			page 69


 2136 0ad0 19       		.byte	0x19
 2137 0ad1 D50A0000 		.4byte	0xad5
 2138 0ad5 17       		.uleb128 0x17
 2139 0ad6 640A0000 		.4byte	0xa64
 2140 0ada 34       		.uleb128 0x34
 2141 0adb 9F060000 		.4byte	.LASF124
 2142 0adf 1A       		.byte	0x1a
 2143 0ae0 19       		.byte	0x19
 2144 0ae1 E50A0000 		.4byte	0xae5
 2145 0ae5 17       		.uleb128 0x17
 2146 0ae6 640A0000 		.4byte	0xa64
 2147 0aea 34       		.uleb128 0x34
 2148 0aeb B1060000 		.4byte	.LASF125
 2149 0aef 1B       		.byte	0x1b
 2150 0af0 19       		.byte	0x19
 2151 0af1 F50A0000 		.4byte	0xaf5
 2152 0af5 17       		.uleb128 0x17
 2153 0af6 640A0000 		.4byte	0xa64
 2154 0afa 34       		.uleb128 0x34
 2155 0afb C3060000 		.4byte	.LASF126
 2156 0aff 1C       		.byte	0x1c
 2157 0b00 19       		.byte	0x19
 2158 0b01 050B0000 		.4byte	0xb05
 2159 0b05 17       		.uleb128 0x17
 2160 0b06 640A0000 		.4byte	0xa64
 2161 0b0a 34       		.uleb128 0x34
 2162 0b0b 2B000000 		.4byte	.LASF127
 2163 0b0f 1D       		.byte	0x1d
 2164 0b10 19       		.byte	0x19
 2165 0b11 150B0000 		.4byte	0xb15
 2166 0b15 17       		.uleb128 0x17
 2167 0b16 640A0000 		.4byte	0xa64
 2168 0b1a 34       		.uleb128 0x34
 2169 0b1b 3D000000 		.4byte	.LASF128
 2170 0b1f 1E       		.byte	0x1e
 2171 0b20 19       		.byte	0x19
 2172 0b21 250B0000 		.4byte	0xb25
 2173 0b25 17       		.uleb128 0x17
 2174 0b26 640A0000 		.4byte	0xa64
 2175 0b2a 34       		.uleb128 0x34
 2176 0b2b 4F000000 		.4byte	.LASF129
 2177 0b2f 1F       		.byte	0x1f
 2178 0b30 19       		.byte	0x19
 2179 0b31 350B0000 		.4byte	0xb35
 2180 0b35 17       		.uleb128 0x17
 2181 0b36 640A0000 		.4byte	0xa64
 2182 0b3a 34       		.uleb128 0x34
 2183 0b3b 61000000 		.4byte	.LASF130
 2184 0b3f 20       		.byte	0x20
 2185 0b40 19       		.byte	0x19
 2186 0b41 450B0000 		.4byte	0xb45
 2187 0b45 17       		.uleb128 0x17
 2188 0b46 640A0000 		.4byte	0xa64
 2189 0b4a 10       		.uleb128 0x10
 2190 0b4b 5A0B0000 		.4byte	0xb5a
 2191 0b4f 5A0B0000 		.4byte	0xb5a
 2192 0b53 11       		.uleb128 0x11
ARM GAS  /tmp/ccQneqRX.s 			page 70


 2193 0b54 29040000 		.4byte	0x429
 2194 0b58 0D       		.byte	0xd
 2195 0b59 00       		.byte	0
 2196 0b5a 0A       		.uleb128 0xa
 2197 0b5b 04       		.byte	0x4
 2198 0b5c 600B0000 		.4byte	0xb60
 2199 0b60 17       		.uleb128 0x17
 2200 0b61 6F0A0000 		.4byte	0xa6f
 2201 0b65 35       		.uleb128 0x35
 2202 0b66 E1040000 		.4byte	.LASF131
 2203 0b6a 01       		.byte	0x1
 2204 0b6b 3A       		.byte	0x3a
 2205 0b6c 4A0B0000 		.4byte	0xb4a
 2206 0b70 05       		.uleb128 0x5
 2207 0b71 03       		.byte	0x3
 2208 0b72 00000000 		.4byte	test_suite
 2209 0b76 10       		.uleb128 0x10
 2210 0b77 AD000000 		.4byte	0xad
 2211 0b7b 870B0000 		.4byte	0xb87
 2212 0b7f 36       		.uleb128 0x36
 2213 0b80 29040000 		.4byte	0x429
 2214 0b84 6706     		.2byte	0x667
 2215 0b86 00       		.byte	0
 2216 0b87 35       		.uleb128 0x35
 2217 0b88 2E030000 		.4byte	.LASF132
 2218 0b8c 01       		.byte	0x1
 2219 0b8d 74       		.byte	0x74
 2220 0b8e 760B0000 		.4byte	0xb76
 2221 0b92 05       		.uleb128 0x5
 2222 0b93 03       		.byte	0x3
 2223 0b94 00000000 		.4byte	test_buffer
 2224 0b98 10       		.uleb128 0x10
 2225 0b99 30020000 		.4byte	0x230
 2226 0b9d A80B0000 		.4byte	0xba8
 2227 0ba1 11       		.uleb128 0x11
 2228 0ba2 29040000 		.4byte	0x429
 2229 0ba6 04       		.byte	0x4
 2230 0ba7 00       		.byte	0
 2231 0ba8 35       		.uleb128 0x35
 2232 0ba9 13040000 		.4byte	.LASF133
 2233 0bad 01       		.byte	0x1
 2234 0bae 79       		.byte	0x79
 2235 0baf 980B0000 		.4byte	0xb98
 2236 0bb3 05       		.uleb128 0x5
 2237 0bb4 03       		.byte	0x3
 2238 0bb5 00000000 		.4byte	threads
 2239 0bb9 10       		.uleb128 0x10
 2240 0bba 0D030000 		.4byte	0x30d
 2241 0bbe C90B0000 		.4byte	0xbc9
 2242 0bc2 11       		.uleb128 0x11
 2243 0bc3 29040000 		.4byte	0x429
 2244 0bc7 04       		.byte	0x4
 2245 0bc8 00       		.byte	0
 2246 0bc9 37       		.uleb128 0x37
 2247 0bca 776100   		.ascii	"wa\000"
 2248 0bcd 01       		.byte	0x1
 2249 0bce 7E       		.byte	0x7e
ARM GAS  /tmp/ccQneqRX.s 			page 71


 2250 0bcf D90B0000 		.4byte	0xbd9
 2251 0bd3 05       		.uleb128 0x5
 2252 0bd4 03       		.byte	0x3
 2253 0bd5 00000000 		.4byte	wa
 2254 0bd9 17       		.uleb128 0x17
 2255 0bda B90B0000 		.4byte	0xbb9
 2256 0bde 38       		.uleb128 0x38
 2257 0bdf E7020000 		.4byte	.LASF134
 2258 0be3 0F       		.byte	0xf
 2259 0be4 AC       		.byte	0xac
 2260 0be5 EF0B0000 		.4byte	0xbef
 2261 0be9 0D       		.uleb128 0xd
 2262 0bea F2060000 		.4byte	0x6f2
 2263 0bee 00       		.byte	0
 2264 0bef 38       		.uleb128 0x38
 2265 0bf0 31010000 		.4byte	.LASF135
 2266 0bf4 0F       		.byte	0xf
 2267 0bf5 AD       		.byte	0xad
 2268 0bf6 000C0000 		.4byte	0xc00
 2269 0bfa 0D       		.uleb128 0xd
 2270 0bfb F2060000 		.4byte	0x6f2
 2271 0bff 00       		.byte	0
 2272 0c00 39       		.uleb128 0x39
 2273 0c01 93010000 		.4byte	.LASF136
 2274 0c05 21       		.byte	0x21
 2275 0c06 0001     		.2byte	0x100
 2276 0c08 120C0000 		.4byte	0xc12
 2277 0c0c 0D       		.uleb128 0xd
 2278 0c0d 30020000 		.4byte	0x230
 2279 0c11 00       		.byte	0
 2280 0c12 3A       		.uleb128 0x3a
 2281 0c13 59050000 		.4byte	.LASF143
 2282 0c17 21       		.byte	0x21
 2283 0c18 FD       		.byte	0xfd
 2284 0c19 10010000 		.4byte	0x110
 2285 0c1d 270C0000 		.4byte	0xc27
 2286 0c21 0D       		.uleb128 0xd
 2287 0c22 30020000 		.4byte	0x230
 2288 0c26 00       		.byte	0
 2289 0c27 3B       		.uleb128 0x3b
 2290 0c28 59040000 		.4byte	.LASF144
 2291 0c2c 21       		.byte	0x21
 2292 0c2d 0901     		.2byte	0x109
 2293 0c2f 0D       		.uleb128 0xd
 2294 0c30 31010000 		.4byte	0x131
 2295 0c34 00       		.byte	0
 2296 0c35 00       		.byte	0
 2297              		.section	.debug_abbrev,"",%progbits
 2298              	.Ldebug_abbrev0:
 2299 0000 01       		.uleb128 0x1
 2300 0001 11       		.uleb128 0x11
 2301 0002 01       		.byte	0x1
 2302 0003 25       		.uleb128 0x25
 2303 0004 0E       		.uleb128 0xe
 2304 0005 13       		.uleb128 0x13
 2305 0006 0B       		.uleb128 0xb
 2306 0007 03       		.uleb128 0x3
ARM GAS  /tmp/ccQneqRX.s 			page 72


 2307 0008 0E       		.uleb128 0xe
 2308 0009 1B       		.uleb128 0x1b
 2309 000a 0E       		.uleb128 0xe
 2310 000b 55       		.uleb128 0x55
 2311 000c 17       		.uleb128 0x17
 2312 000d 11       		.uleb128 0x11
 2313 000e 01       		.uleb128 0x1
 2314 000f 10       		.uleb128 0x10
 2315 0010 17       		.uleb128 0x17
 2316 0011 00       		.byte	0
 2317 0012 00       		.byte	0
 2318 0013 02       		.uleb128 0x2
 2319 0014 24       		.uleb128 0x24
 2320 0015 00       		.byte	0
 2321 0016 0B       		.uleb128 0xb
 2322 0017 0B       		.uleb128 0xb
 2323 0018 3E       		.uleb128 0x3e
 2324 0019 0B       		.uleb128 0xb
 2325 001a 03       		.uleb128 0x3
 2326 001b 08       		.uleb128 0x8
 2327 001c 00       		.byte	0
 2328 001d 00       		.byte	0
 2329 001e 03       		.uleb128 0x3
 2330 001f 16       		.uleb128 0x16
 2331 0020 00       		.byte	0
 2332 0021 03       		.uleb128 0x3
 2333 0022 0E       		.uleb128 0xe
 2334 0023 3A       		.uleb128 0x3a
 2335 0024 0B       		.uleb128 0xb
 2336 0025 3B       		.uleb128 0x3b
 2337 0026 0B       		.uleb128 0xb
 2338 0027 49       		.uleb128 0x49
 2339 0028 13       		.uleb128 0x13
 2340 0029 00       		.byte	0
 2341 002a 00       		.byte	0
 2342 002b 04       		.uleb128 0x4
 2343 002c 24       		.uleb128 0x24
 2344 002d 00       		.byte	0
 2345 002e 0B       		.uleb128 0xb
 2346 002f 0B       		.uleb128 0xb
 2347 0030 3E       		.uleb128 0x3e
 2348 0031 0B       		.uleb128 0xb
 2349 0032 03       		.uleb128 0x3
 2350 0033 0E       		.uleb128 0xe
 2351 0034 00       		.byte	0
 2352 0035 00       		.byte	0
 2353 0036 05       		.uleb128 0x5
 2354 0037 13       		.uleb128 0x13
 2355 0038 01       		.byte	0x1
 2356 0039 03       		.uleb128 0x3
 2357 003a 0E       		.uleb128 0xe
 2358 003b 0B       		.uleb128 0xb
 2359 003c 0B       		.uleb128 0xb
 2360 003d 3A       		.uleb128 0x3a
 2361 003e 0B       		.uleb128 0xb
 2362 003f 3B       		.uleb128 0x3b
 2363 0040 0B       		.uleb128 0xb
ARM GAS  /tmp/ccQneqRX.s 			page 73


 2364 0041 01       		.uleb128 0x1
 2365 0042 13       		.uleb128 0x13
 2366 0043 00       		.byte	0
 2367 0044 00       		.byte	0
 2368 0045 06       		.uleb128 0x6
 2369 0046 0D       		.uleb128 0xd
 2370 0047 00       		.byte	0
 2371 0048 03       		.uleb128 0x3
 2372 0049 0E       		.uleb128 0xe
 2373 004a 3A       		.uleb128 0x3a
 2374 004b 0B       		.uleb128 0xb
 2375 004c 3B       		.uleb128 0x3b
 2376 004d 0B       		.uleb128 0xb
 2377 004e 49       		.uleb128 0x49
 2378 004f 13       		.uleb128 0x13
 2379 0050 38       		.uleb128 0x38
 2380 0051 0B       		.uleb128 0xb
 2381 0052 00       		.byte	0
 2382 0053 00       		.byte	0
 2383 0054 07       		.uleb128 0x7
 2384 0055 0D       		.uleb128 0xd
 2385 0056 00       		.byte	0
 2386 0057 03       		.uleb128 0x3
 2387 0058 08       		.uleb128 0x8
 2388 0059 3A       		.uleb128 0x3a
 2389 005a 0B       		.uleb128 0xb
 2390 005b 3B       		.uleb128 0x3b
 2391 005c 0B       		.uleb128 0xb
 2392 005d 49       		.uleb128 0x49
 2393 005e 13       		.uleb128 0x13
 2394 005f 38       		.uleb128 0x38
 2395 0060 0B       		.uleb128 0xb
 2396 0061 00       		.byte	0
 2397 0062 00       		.byte	0
 2398 0063 08       		.uleb128 0x8
 2399 0064 0D       		.uleb128 0xd
 2400 0065 00       		.byte	0
 2401 0066 03       		.uleb128 0x3
 2402 0067 08       		.uleb128 0x8
 2403 0068 3A       		.uleb128 0x3a
 2404 0069 0B       		.uleb128 0xb
 2405 006a 3B       		.uleb128 0x3b
 2406 006b 05       		.uleb128 0x5
 2407 006c 49       		.uleb128 0x49
 2408 006d 13       		.uleb128 0x13
 2409 006e 38       		.uleb128 0x38
 2410 006f 0B       		.uleb128 0xb
 2411 0070 00       		.byte	0
 2412 0071 00       		.byte	0
 2413 0072 09       		.uleb128 0x9
 2414 0073 0D       		.uleb128 0xd
 2415 0074 00       		.byte	0
 2416 0075 03       		.uleb128 0x3
 2417 0076 0E       		.uleb128 0xe
 2418 0077 3A       		.uleb128 0x3a
 2419 0078 0B       		.uleb128 0xb
 2420 0079 3B       		.uleb128 0x3b
ARM GAS  /tmp/ccQneqRX.s 			page 74


 2421 007a 05       		.uleb128 0x5
 2422 007b 49       		.uleb128 0x49
 2423 007c 13       		.uleb128 0x13
 2424 007d 38       		.uleb128 0x38
 2425 007e 0B       		.uleb128 0xb
 2426 007f 00       		.byte	0
 2427 0080 00       		.byte	0
 2428 0081 0A       		.uleb128 0xa
 2429 0082 0F       		.uleb128 0xf
 2430 0083 00       		.byte	0
 2431 0084 0B       		.uleb128 0xb
 2432 0085 0B       		.uleb128 0xb
 2433 0086 49       		.uleb128 0x49
 2434 0087 13       		.uleb128 0x13
 2435 0088 00       		.byte	0
 2436 0089 00       		.byte	0
 2437 008a 0B       		.uleb128 0xb
 2438 008b 13       		.uleb128 0x13
 2439 008c 01       		.byte	0x1
 2440 008d 03       		.uleb128 0x3
 2441 008e 0E       		.uleb128 0xe
 2442 008f 0B       		.uleb128 0xb
 2443 0090 0B       		.uleb128 0xb
 2444 0091 3A       		.uleb128 0x3a
 2445 0092 0B       		.uleb128 0xb
 2446 0093 3B       		.uleb128 0x3b
 2447 0094 05       		.uleb128 0x5
 2448 0095 01       		.uleb128 0x1
 2449 0096 13       		.uleb128 0x13
 2450 0097 00       		.byte	0
 2451 0098 00       		.byte	0
 2452 0099 0C       		.uleb128 0xc
 2453 009a 15       		.uleb128 0x15
 2454 009b 01       		.byte	0x1
 2455 009c 27       		.uleb128 0x27
 2456 009d 19       		.uleb128 0x19
 2457 009e 01       		.uleb128 0x1
 2458 009f 13       		.uleb128 0x13
 2459 00a0 00       		.byte	0
 2460 00a1 00       		.byte	0
 2461 00a2 0D       		.uleb128 0xd
 2462 00a3 05       		.uleb128 0x5
 2463 00a4 00       		.byte	0
 2464 00a5 49       		.uleb128 0x49
 2465 00a6 13       		.uleb128 0x13
 2466 00a7 00       		.byte	0
 2467 00a8 00       		.byte	0
 2468 00a9 0E       		.uleb128 0xe
 2469 00aa 0F       		.uleb128 0xf
 2470 00ab 00       		.byte	0
 2471 00ac 0B       		.uleb128 0xb
 2472 00ad 0B       		.uleb128 0xb
 2473 00ae 00       		.byte	0
 2474 00af 00       		.byte	0
 2475 00b0 0F       		.uleb128 0xf
 2476 00b1 35       		.uleb128 0x35
 2477 00b2 00       		.byte	0
ARM GAS  /tmp/ccQneqRX.s 			page 75


 2478 00b3 49       		.uleb128 0x49
 2479 00b4 13       		.uleb128 0x13
 2480 00b5 00       		.byte	0
 2481 00b6 00       		.byte	0
 2482 00b7 10       		.uleb128 0x10
 2483 00b8 01       		.uleb128 0x1
 2484 00b9 01       		.byte	0x1
 2485 00ba 49       		.uleb128 0x49
 2486 00bb 13       		.uleb128 0x13
 2487 00bc 01       		.uleb128 0x1
 2488 00bd 13       		.uleb128 0x13
 2489 00be 00       		.byte	0
 2490 00bf 00       		.byte	0
 2491 00c0 11       		.uleb128 0x11
 2492 00c1 21       		.uleb128 0x21
 2493 00c2 00       		.byte	0
 2494 00c3 49       		.uleb128 0x49
 2495 00c4 13       		.uleb128 0x13
 2496 00c5 2F       		.uleb128 0x2f
 2497 00c6 0B       		.uleb128 0xb
 2498 00c7 00       		.byte	0
 2499 00c8 00       		.byte	0
 2500 00c9 12       		.uleb128 0x12
 2501 00ca 13       		.uleb128 0x13
 2502 00cb 01       		.byte	0x1
 2503 00cc 0B       		.uleb128 0xb
 2504 00cd 0B       		.uleb128 0xb
 2505 00ce 3A       		.uleb128 0x3a
 2506 00cf 0B       		.uleb128 0xb
 2507 00d0 3B       		.uleb128 0x3b
 2508 00d1 05       		.uleb128 0x5
 2509 00d2 01       		.uleb128 0x1
 2510 00d3 13       		.uleb128 0x13
 2511 00d4 00       		.byte	0
 2512 00d5 00       		.byte	0
 2513 00d6 13       		.uleb128 0x13
 2514 00d7 16       		.uleb128 0x16
 2515 00d8 00       		.byte	0
 2516 00d9 03       		.uleb128 0x3
 2517 00da 0E       		.uleb128 0xe
 2518 00db 3A       		.uleb128 0x3a
 2519 00dc 0B       		.uleb128 0xb
 2520 00dd 3B       		.uleb128 0x3b
 2521 00de 05       		.uleb128 0x5
 2522 00df 49       		.uleb128 0x49
 2523 00e0 13       		.uleb128 0x13
 2524 00e1 00       		.byte	0
 2525 00e2 00       		.byte	0
 2526 00e3 14       		.uleb128 0x14
 2527 00e4 17       		.uleb128 0x17
 2528 00e5 01       		.byte	0x1
 2529 00e6 0B       		.uleb128 0xb
 2530 00e7 0B       		.uleb128 0xb
 2531 00e8 3A       		.uleb128 0x3a
 2532 00e9 0B       		.uleb128 0xb
 2533 00ea 3B       		.uleb128 0x3b
 2534 00eb 0B       		.uleb128 0xb
ARM GAS  /tmp/ccQneqRX.s 			page 76


 2535 00ec 01       		.uleb128 0x1
 2536 00ed 13       		.uleb128 0x13
 2537 00ee 00       		.byte	0
 2538 00ef 00       		.byte	0
 2539 00f0 15       		.uleb128 0x15
 2540 00f1 0D       		.uleb128 0xd
 2541 00f2 00       		.byte	0
 2542 00f3 03       		.uleb128 0x3
 2543 00f4 0E       		.uleb128 0xe
 2544 00f5 3A       		.uleb128 0x3a
 2545 00f6 0B       		.uleb128 0xb
 2546 00f7 3B       		.uleb128 0x3b
 2547 00f8 0B       		.uleb128 0xb
 2548 00f9 49       		.uleb128 0x49
 2549 00fa 13       		.uleb128 0x13
 2550 00fb 00       		.byte	0
 2551 00fc 00       		.byte	0
 2552 00fd 16       		.uleb128 0x16
 2553 00fe 0D       		.uleb128 0xd
 2554 00ff 00       		.byte	0
 2555 0100 03       		.uleb128 0x3
 2556 0101 0E       		.uleb128 0xe
 2557 0102 3A       		.uleb128 0x3a
 2558 0103 0B       		.uleb128 0xb
 2559 0104 3B       		.uleb128 0x3b
 2560 0105 05       		.uleb128 0x5
 2561 0106 49       		.uleb128 0x49
 2562 0107 13       		.uleb128 0x13
 2563 0108 00       		.byte	0
 2564 0109 00       		.byte	0
 2565 010a 17       		.uleb128 0x17
 2566 010b 26       		.uleb128 0x26
 2567 010c 00       		.byte	0
 2568 010d 49       		.uleb128 0x49
 2569 010e 13       		.uleb128 0x13
 2570 010f 00       		.byte	0
 2571 0110 00       		.byte	0
 2572 0111 18       		.uleb128 0x18
 2573 0112 15       		.uleb128 0x15
 2574 0113 00       		.byte	0
 2575 0114 27       		.uleb128 0x27
 2576 0115 19       		.uleb128 0x19
 2577 0116 00       		.byte	0
 2578 0117 00       		.byte	0
 2579 0118 19       		.uleb128 0x19
 2580 0119 13       		.uleb128 0x13
 2581 011a 01       		.byte	0x1
 2582 011b 0B       		.uleb128 0xb
 2583 011c 0B       		.uleb128 0xb
 2584 011d 3A       		.uleb128 0x3a
 2585 011e 0B       		.uleb128 0xb
 2586 011f 3B       		.uleb128 0x3b
 2587 0120 0B       		.uleb128 0xb
 2588 0121 01       		.uleb128 0x1
 2589 0122 13       		.uleb128 0x13
 2590 0123 00       		.byte	0
 2591 0124 00       		.byte	0
ARM GAS  /tmp/ccQneqRX.s 			page 77


 2592 0125 1A       		.uleb128 0x1a
 2593 0126 2E       		.uleb128 0x2e
 2594 0127 01       		.byte	0x1
 2595 0128 03       		.uleb128 0x3
 2596 0129 0E       		.uleb128 0xe
 2597 012a 3A       		.uleb128 0x3a
 2598 012b 0B       		.uleb128 0xb
 2599 012c 3B       		.uleb128 0x3b
 2600 012d 05       		.uleb128 0x5
 2601 012e 27       		.uleb128 0x27
 2602 012f 19       		.uleb128 0x19
 2603 0130 20       		.uleb128 0x20
 2604 0131 0B       		.uleb128 0xb
 2605 0132 01       		.uleb128 0x1
 2606 0133 13       		.uleb128 0x13
 2607 0134 00       		.byte	0
 2608 0135 00       		.byte	0
 2609 0136 1B       		.uleb128 0x1b
 2610 0137 05       		.uleb128 0x5
 2611 0138 00       		.byte	0
 2612 0139 03       		.uleb128 0x3
 2613 013a 0E       		.uleb128 0xe
 2614 013b 3A       		.uleb128 0x3a
 2615 013c 0B       		.uleb128 0xb
 2616 013d 3B       		.uleb128 0x3b
 2617 013e 05       		.uleb128 0x5
 2618 013f 49       		.uleb128 0x49
 2619 0140 13       		.uleb128 0x13
 2620 0141 00       		.byte	0
 2621 0142 00       		.byte	0
 2622 0143 1C       		.uleb128 0x1c
 2623 0144 2E       		.uleb128 0x2e
 2624 0145 00       		.byte	0
 2625 0146 03       		.uleb128 0x3
 2626 0147 0E       		.uleb128 0xe
 2627 0148 3A       		.uleb128 0x3a
 2628 0149 0B       		.uleb128 0xb
 2629 014a 3B       		.uleb128 0x3b
 2630 014b 0B       		.uleb128 0xb
 2631 014c 27       		.uleb128 0x27
 2632 014d 19       		.uleb128 0x19
 2633 014e 49       		.uleb128 0x49
 2634 014f 13       		.uleb128 0x13
 2635 0150 20       		.uleb128 0x20
 2636 0151 0B       		.uleb128 0xb
 2637 0152 00       		.byte	0
 2638 0153 00       		.byte	0
 2639 0154 1D       		.uleb128 0x1d
 2640 0155 2E       		.uleb128 0x2e
 2641 0156 00       		.byte	0
 2642 0157 03       		.uleb128 0x3
 2643 0158 0E       		.uleb128 0xe
 2644 0159 3A       		.uleb128 0x3a
 2645 015a 0B       		.uleb128 0xb
 2646 015b 3B       		.uleb128 0x3b
 2647 015c 05       		.uleb128 0x5
 2648 015d 27       		.uleb128 0x27
ARM GAS  /tmp/ccQneqRX.s 			page 78


 2649 015e 19       		.uleb128 0x19
 2650 015f 20       		.uleb128 0x20
 2651 0160 0B       		.uleb128 0xb
 2652 0161 00       		.byte	0
 2653 0162 00       		.byte	0
 2654 0163 1E       		.uleb128 0x1e
 2655 0164 2E       		.uleb128 0x2e
 2656 0165 00       		.byte	0
 2657 0166 03       		.uleb128 0x3
 2658 0167 0E       		.uleb128 0xe
 2659 0168 3A       		.uleb128 0x3a
 2660 0169 0B       		.uleb128 0xb
 2661 016a 3B       		.uleb128 0x3b
 2662 016b 05       		.uleb128 0x5
 2663 016c 27       		.uleb128 0x27
 2664 016d 19       		.uleb128 0x19
 2665 016e 49       		.uleb128 0x49
 2666 016f 13       		.uleb128 0x13
 2667 0170 20       		.uleb128 0x20
 2668 0171 0B       		.uleb128 0xb
 2669 0172 00       		.byte	0
 2670 0173 00       		.byte	0
 2671 0174 1F       		.uleb128 0x1f
 2672 0175 34       		.uleb128 0x34
 2673 0176 00       		.byte	0
 2674 0177 03       		.uleb128 0x3
 2675 0178 0E       		.uleb128 0xe
 2676 0179 49       		.uleb128 0x49
 2677 017a 13       		.uleb128 0x13
 2678 017b 34       		.uleb128 0x34
 2679 017c 19       		.uleb128 0x19
 2680 017d 1C       		.uleb128 0x1c
 2681 017e 0E       		.uleb128 0xe
 2682 017f 00       		.byte	0
 2683 0180 00       		.byte	0
 2684 0181 20       		.uleb128 0x20
 2685 0182 2E       		.uleb128 0x2e
 2686 0183 01       		.byte	0x1
 2687 0184 03       		.uleb128 0x3
 2688 0185 0E       		.uleb128 0xe
 2689 0186 3A       		.uleb128 0x3a
 2690 0187 0B       		.uleb128 0xb
 2691 0188 3B       		.uleb128 0x3b
 2692 0189 05       		.uleb128 0x5
 2693 018a 27       		.uleb128 0x27
 2694 018b 19       		.uleb128 0x19
 2695 018c 49       		.uleb128 0x49
 2696 018d 13       		.uleb128 0x13
 2697 018e 20       		.uleb128 0x20
 2698 018f 0B       		.uleb128 0xb
 2699 0190 01       		.uleb128 0x1
 2700 0191 13       		.uleb128 0x13
 2701 0192 00       		.byte	0
 2702 0193 00       		.byte	0
 2703 0194 21       		.uleb128 0x21
 2704 0195 34       		.uleb128 0x34
 2705 0196 00       		.byte	0
ARM GAS  /tmp/ccQneqRX.s 			page 79


 2706 0197 03       		.uleb128 0x3
 2707 0198 0E       		.uleb128 0xe
 2708 0199 3A       		.uleb128 0x3a
 2709 019a 0B       		.uleb128 0xb
 2710 019b 3B       		.uleb128 0x3b
 2711 019c 05       		.uleb128 0x5
 2712 019d 49       		.uleb128 0x49
 2713 019e 13       		.uleb128 0x13
 2714 019f 00       		.byte	0
 2715 01a0 00       		.byte	0
 2716 01a1 22       		.uleb128 0x22
 2717 01a2 2E       		.uleb128 0x2e
 2718 01a3 01       		.byte	0x1
 2719 01a4 3F       		.uleb128 0x3f
 2720 01a5 19       		.uleb128 0x19
 2721 01a6 03       		.uleb128 0x3
 2722 01a7 0E       		.uleb128 0xe
 2723 01a8 3A       		.uleb128 0x3a
 2724 01a9 0B       		.uleb128 0xb
 2725 01aa 3B       		.uleb128 0x3b
 2726 01ab 0B       		.uleb128 0xb
 2727 01ac 27       		.uleb128 0x27
 2728 01ad 19       		.uleb128 0x19
 2729 01ae 11       		.uleb128 0x11
 2730 01af 01       		.uleb128 0x1
 2731 01b0 12       		.uleb128 0x12
 2732 01b1 06       		.uleb128 0x6
 2733 01b2 40       		.uleb128 0x40
 2734 01b3 18       		.uleb128 0x18
 2735 01b4 9742     		.uleb128 0x2117
 2736 01b6 19       		.uleb128 0x19
 2737 01b7 01       		.uleb128 0x1
 2738 01b8 13       		.uleb128 0x13
 2739 01b9 00       		.byte	0
 2740 01ba 00       		.byte	0
 2741 01bb 23       		.uleb128 0x23
 2742 01bc 898201   		.uleb128 0x4109
 2743 01bf 01       		.byte	0x1
 2744 01c0 11       		.uleb128 0x11
 2745 01c1 01       		.uleb128 0x1
 2746 01c2 31       		.uleb128 0x31
 2747 01c3 13       		.uleb128 0x13
 2748 01c4 01       		.uleb128 0x1
 2749 01c5 13       		.uleb128 0x13
 2750 01c6 00       		.byte	0
 2751 01c7 00       		.byte	0
 2752 01c8 24       		.uleb128 0x24
 2753 01c9 8A8201   		.uleb128 0x410a
 2754 01cc 00       		.byte	0
 2755 01cd 02       		.uleb128 0x2
 2756 01ce 18       		.uleb128 0x18
 2757 01cf 9142     		.uleb128 0x2111
 2758 01d1 18       		.uleb128 0x18
 2759 01d2 00       		.byte	0
 2760 01d3 00       		.byte	0
 2761 01d4 25       		.uleb128 0x25
 2762 01d5 898201   		.uleb128 0x4109
ARM GAS  /tmp/ccQneqRX.s 			page 80


 2763 01d8 01       		.byte	0x1
 2764 01d9 11       		.uleb128 0x11
 2765 01da 01       		.uleb128 0x1
 2766 01db 9542     		.uleb128 0x2115
 2767 01dd 19       		.uleb128 0x19
 2768 01de 31       		.uleb128 0x31
 2769 01df 13       		.uleb128 0x13
 2770 01e0 00       		.byte	0
 2771 01e1 00       		.byte	0
 2772 01e2 26       		.uleb128 0x26
 2773 01e3 34       		.uleb128 0x34
 2774 01e4 00       		.byte	0
 2775 01e5 03       		.uleb128 0x3
 2776 01e6 08       		.uleb128 0x8
 2777 01e7 3A       		.uleb128 0x3a
 2778 01e8 0B       		.uleb128 0xb
 2779 01e9 3B       		.uleb128 0x3b
 2780 01ea 0B       		.uleb128 0xb
 2781 01eb 49       		.uleb128 0x49
 2782 01ec 13       		.uleb128 0x13
 2783 01ed 02       		.uleb128 0x2
 2784 01ee 17       		.uleb128 0x17
 2785 01ef 00       		.byte	0
 2786 01f0 00       		.byte	0
 2787 01f1 27       		.uleb128 0x27
 2788 01f2 898201   		.uleb128 0x4109
 2789 01f5 00       		.byte	0
 2790 01f6 11       		.uleb128 0x11
 2791 01f7 01       		.uleb128 0x1
 2792 01f8 31       		.uleb128 0x31
 2793 01f9 13       		.uleb128 0x13
 2794 01fa 00       		.byte	0
 2795 01fb 00       		.byte	0
 2796 01fc 28       		.uleb128 0x28
 2797 01fd 2E       		.uleb128 0x2e
 2798 01fe 01       		.byte	0x1
 2799 01ff 3F       		.uleb128 0x3f
 2800 0200 19       		.uleb128 0x19
 2801 0201 03       		.uleb128 0x3
 2802 0202 0E       		.uleb128 0xe
 2803 0203 3A       		.uleb128 0x3a
 2804 0204 0B       		.uleb128 0xb
 2805 0205 3B       		.uleb128 0x3b
 2806 0206 0B       		.uleb128 0xb
 2807 0207 27       		.uleb128 0x27
 2808 0208 19       		.uleb128 0x19
 2809 0209 49       		.uleb128 0x49
 2810 020a 13       		.uleb128 0x13
 2811 020b 11       		.uleb128 0x11
 2812 020c 01       		.uleb128 0x1
 2813 020d 12       		.uleb128 0x12
 2814 020e 06       		.uleb128 0x6
 2815 020f 40       		.uleb128 0x40
 2816 0210 18       		.uleb128 0x18
 2817 0211 9742     		.uleb128 0x2117
 2818 0213 19       		.uleb128 0x19
 2819 0214 01       		.uleb128 0x1
ARM GAS  /tmp/ccQneqRX.s 			page 81


 2820 0215 13       		.uleb128 0x13
 2821 0216 00       		.byte	0
 2822 0217 00       		.byte	0
 2823 0218 29       		.uleb128 0x29
 2824 0219 1D       		.uleb128 0x1d
 2825 021a 01       		.byte	0x1
 2826 021b 31       		.uleb128 0x31
 2827 021c 13       		.uleb128 0x13
 2828 021d 11       		.uleb128 0x11
 2829 021e 01       		.uleb128 0x1
 2830 021f 12       		.uleb128 0x12
 2831 0220 06       		.uleb128 0x6
 2832 0221 58       		.uleb128 0x58
 2833 0222 0B       		.uleb128 0xb
 2834 0223 59       		.uleb128 0x59
 2835 0224 0B       		.uleb128 0xb
 2836 0225 01       		.uleb128 0x1
 2837 0226 13       		.uleb128 0x13
 2838 0227 00       		.byte	0
 2839 0228 00       		.byte	0
 2840 0229 2A       		.uleb128 0x2a
 2841 022a 0B       		.uleb128 0xb
 2842 022b 01       		.byte	0x1
 2843 022c 11       		.uleb128 0x11
 2844 022d 01       		.uleb128 0x1
 2845 022e 12       		.uleb128 0x12
 2846 022f 06       		.uleb128 0x6
 2847 0230 00       		.byte	0
 2848 0231 00       		.byte	0
 2849 0232 2B       		.uleb128 0x2b
 2850 0233 34       		.uleb128 0x34
 2851 0234 00       		.byte	0
 2852 0235 31       		.uleb128 0x31
 2853 0236 13       		.uleb128 0x13
 2854 0237 00       		.byte	0
 2855 0238 00       		.byte	0
 2856 0239 2C       		.uleb128 0x2c
 2857 023a 1D       		.uleb128 0x1d
 2858 023b 01       		.byte	0x1
 2859 023c 31       		.uleb128 0x31
 2860 023d 13       		.uleb128 0x13
 2861 023e 11       		.uleb128 0x11
 2862 023f 01       		.uleb128 0x1
 2863 0240 12       		.uleb128 0x12
 2864 0241 06       		.uleb128 0x6
 2865 0242 58       		.uleb128 0x58
 2866 0243 0B       		.uleb128 0xb
 2867 0244 59       		.uleb128 0x59
 2868 0245 05       		.uleb128 0x5
 2869 0246 01       		.uleb128 0x1
 2870 0247 13       		.uleb128 0x13
 2871 0248 00       		.byte	0
 2872 0249 00       		.byte	0
 2873 024a 2D       		.uleb128 0x2d
 2874 024b 1D       		.uleb128 0x1d
 2875 024c 01       		.byte	0x1
 2876 024d 31       		.uleb128 0x31
ARM GAS  /tmp/ccQneqRX.s 			page 82


 2877 024e 13       		.uleb128 0x13
 2878 024f 11       		.uleb128 0x11
 2879 0250 01       		.uleb128 0x1
 2880 0251 12       		.uleb128 0x12
 2881 0252 06       		.uleb128 0x6
 2882 0253 58       		.uleb128 0x58
 2883 0254 0B       		.uleb128 0xb
 2884 0255 59       		.uleb128 0x59
 2885 0256 05       		.uleb128 0x5
 2886 0257 00       		.byte	0
 2887 0258 00       		.byte	0
 2888 0259 2E       		.uleb128 0x2e
 2889 025a 05       		.uleb128 0x5
 2890 025b 00       		.byte	0
 2891 025c 31       		.uleb128 0x31
 2892 025d 13       		.uleb128 0x13
 2893 025e 1C       		.uleb128 0x1c
 2894 025f 0B       		.uleb128 0xb
 2895 0260 00       		.byte	0
 2896 0261 00       		.byte	0
 2897 0262 2F       		.uleb128 0x2f
 2898 0263 1D       		.uleb128 0x1d
 2899 0264 00       		.byte	0
 2900 0265 31       		.uleb128 0x31
 2901 0266 13       		.uleb128 0x13
 2902 0267 11       		.uleb128 0x11
 2903 0268 01       		.uleb128 0x1
 2904 0269 12       		.uleb128 0x12
 2905 026a 06       		.uleb128 0x6
 2906 026b 58       		.uleb128 0x58
 2907 026c 0B       		.uleb128 0xb
 2908 026d 59       		.uleb128 0x59
 2909 026e 0B       		.uleb128 0xb
 2910 026f 00       		.byte	0
 2911 0270 00       		.byte	0
 2912 0271 30       		.uleb128 0x30
 2913 0272 898201   		.uleb128 0x4109
 2914 0275 01       		.byte	0x1
 2915 0276 11       		.uleb128 0x11
 2916 0277 01       		.uleb128 0x1
 2917 0278 31       		.uleb128 0x31
 2918 0279 13       		.uleb128 0x13
 2919 027a 00       		.byte	0
 2920 027b 00       		.byte	0
 2921 027c 31       		.uleb128 0x31
 2922 027d 34       		.uleb128 0x34
 2923 027e 00       		.byte	0
 2924 027f 03       		.uleb128 0x3
 2925 0280 0E       		.uleb128 0xe
 2926 0281 3A       		.uleb128 0x3a
 2927 0282 0B       		.uleb128 0xb
 2928 0283 3B       		.uleb128 0x3b
 2929 0284 05       		.uleb128 0x5
 2930 0285 49       		.uleb128 0x49
 2931 0286 13       		.uleb128 0x13
 2932 0287 3F       		.uleb128 0x3f
 2933 0288 19       		.uleb128 0x19
ARM GAS  /tmp/ccQneqRX.s 			page 83


 2934 0289 3C       		.uleb128 0x3c
 2935 028a 19       		.uleb128 0x19
 2936 028b 00       		.byte	0
 2937 028c 00       		.byte	0
 2938 028d 32       		.uleb128 0x32
 2939 028e 34       		.uleb128 0x34
 2940 028f 00       		.byte	0
 2941 0290 03       		.uleb128 0x3
 2942 0291 08       		.uleb128 0x8
 2943 0292 3A       		.uleb128 0x3a
 2944 0293 0B       		.uleb128 0xb
 2945 0294 3B       		.uleb128 0x3b
 2946 0295 05       		.uleb128 0x5
 2947 0296 49       		.uleb128 0x49
 2948 0297 13       		.uleb128 0x13
 2949 0298 3F       		.uleb128 0x3f
 2950 0299 19       		.uleb128 0x19
 2951 029a 3C       		.uleb128 0x3c
 2952 029b 19       		.uleb128 0x19
 2953 029c 00       		.byte	0
 2954 029d 00       		.byte	0
 2955 029e 33       		.uleb128 0x33
 2956 029f 21       		.uleb128 0x21
 2957 02a0 00       		.byte	0
 2958 02a1 00       		.byte	0
 2959 02a2 00       		.byte	0
 2960 02a3 34       		.uleb128 0x34
 2961 02a4 34       		.uleb128 0x34
 2962 02a5 00       		.byte	0
 2963 02a6 03       		.uleb128 0x3
 2964 02a7 0E       		.uleb128 0xe
 2965 02a8 3A       		.uleb128 0x3a
 2966 02a9 0B       		.uleb128 0xb
 2967 02aa 3B       		.uleb128 0x3b
 2968 02ab 0B       		.uleb128 0xb
 2969 02ac 49       		.uleb128 0x49
 2970 02ad 13       		.uleb128 0x13
 2971 02ae 3F       		.uleb128 0x3f
 2972 02af 19       		.uleb128 0x19
 2973 02b0 3C       		.uleb128 0x3c
 2974 02b1 19       		.uleb128 0x19
 2975 02b2 00       		.byte	0
 2976 02b3 00       		.byte	0
 2977 02b4 35       		.uleb128 0x35
 2978 02b5 34       		.uleb128 0x34
 2979 02b6 00       		.byte	0
 2980 02b7 03       		.uleb128 0x3
 2981 02b8 0E       		.uleb128 0xe
 2982 02b9 3A       		.uleb128 0x3a
 2983 02ba 0B       		.uleb128 0xb
 2984 02bb 3B       		.uleb128 0x3b
 2985 02bc 0B       		.uleb128 0xb
 2986 02bd 49       		.uleb128 0x49
 2987 02be 13       		.uleb128 0x13
 2988 02bf 3F       		.uleb128 0x3f
 2989 02c0 19       		.uleb128 0x19
 2990 02c1 02       		.uleb128 0x2
ARM GAS  /tmp/ccQneqRX.s 			page 84


 2991 02c2 18       		.uleb128 0x18
 2992 02c3 00       		.byte	0
 2993 02c4 00       		.byte	0
 2994 02c5 36       		.uleb128 0x36
 2995 02c6 21       		.uleb128 0x21
 2996 02c7 00       		.byte	0
 2997 02c8 49       		.uleb128 0x49
 2998 02c9 13       		.uleb128 0x13
 2999 02ca 2F       		.uleb128 0x2f
 3000 02cb 05       		.uleb128 0x5
 3001 02cc 00       		.byte	0
 3002 02cd 00       		.byte	0
 3003 02ce 37       		.uleb128 0x37
 3004 02cf 34       		.uleb128 0x34
 3005 02d0 00       		.byte	0
 3006 02d1 03       		.uleb128 0x3
 3007 02d2 08       		.uleb128 0x8
 3008 02d3 3A       		.uleb128 0x3a
 3009 02d4 0B       		.uleb128 0xb
 3010 02d5 3B       		.uleb128 0x3b
 3011 02d6 0B       		.uleb128 0xb
 3012 02d7 49       		.uleb128 0x49
 3013 02d8 13       		.uleb128 0x13
 3014 02d9 3F       		.uleb128 0x3f
 3015 02da 19       		.uleb128 0x19
 3016 02db 02       		.uleb128 0x2
 3017 02dc 18       		.uleb128 0x18
 3018 02dd 00       		.byte	0
 3019 02de 00       		.byte	0
 3020 02df 38       		.uleb128 0x38
 3021 02e0 2E       		.uleb128 0x2e
 3022 02e1 01       		.byte	0x1
 3023 02e2 3F       		.uleb128 0x3f
 3024 02e3 19       		.uleb128 0x19
 3025 02e4 03       		.uleb128 0x3
 3026 02e5 0E       		.uleb128 0xe
 3027 02e6 3A       		.uleb128 0x3a
 3028 02e7 0B       		.uleb128 0xb
 3029 02e8 3B       		.uleb128 0x3b
 3030 02e9 0B       		.uleb128 0xb
 3031 02ea 27       		.uleb128 0x27
 3032 02eb 19       		.uleb128 0x19
 3033 02ec 3C       		.uleb128 0x3c
 3034 02ed 19       		.uleb128 0x19
 3035 02ee 01       		.uleb128 0x1
 3036 02ef 13       		.uleb128 0x13
 3037 02f0 00       		.byte	0
 3038 02f1 00       		.byte	0
 3039 02f2 39       		.uleb128 0x39
 3040 02f3 2E       		.uleb128 0x2e
 3041 02f4 01       		.byte	0x1
 3042 02f5 3F       		.uleb128 0x3f
 3043 02f6 19       		.uleb128 0x19
 3044 02f7 03       		.uleb128 0x3
 3045 02f8 0E       		.uleb128 0xe
 3046 02f9 3A       		.uleb128 0x3a
 3047 02fa 0B       		.uleb128 0xb
ARM GAS  /tmp/ccQneqRX.s 			page 85


 3048 02fb 3B       		.uleb128 0x3b
 3049 02fc 05       		.uleb128 0x5
 3050 02fd 27       		.uleb128 0x27
 3051 02fe 19       		.uleb128 0x19
 3052 02ff 3C       		.uleb128 0x3c
 3053 0300 19       		.uleb128 0x19
 3054 0301 01       		.uleb128 0x1
 3055 0302 13       		.uleb128 0x13
 3056 0303 00       		.byte	0
 3057 0304 00       		.byte	0
 3058 0305 3A       		.uleb128 0x3a
 3059 0306 2E       		.uleb128 0x2e
 3060 0307 01       		.byte	0x1
 3061 0308 3F       		.uleb128 0x3f
 3062 0309 19       		.uleb128 0x19
 3063 030a 03       		.uleb128 0x3
 3064 030b 0E       		.uleb128 0xe
 3065 030c 3A       		.uleb128 0x3a
 3066 030d 0B       		.uleb128 0xb
 3067 030e 3B       		.uleb128 0x3b
 3068 030f 0B       		.uleb128 0xb
 3069 0310 27       		.uleb128 0x27
 3070 0311 19       		.uleb128 0x19
 3071 0312 49       		.uleb128 0x49
 3072 0313 13       		.uleb128 0x13
 3073 0314 3C       		.uleb128 0x3c
 3074 0315 19       		.uleb128 0x19
 3075 0316 01       		.uleb128 0x1
 3076 0317 13       		.uleb128 0x13
 3077 0318 00       		.byte	0
 3078 0319 00       		.byte	0
 3079 031a 3B       		.uleb128 0x3b
 3080 031b 2E       		.uleb128 0x2e
 3081 031c 01       		.byte	0x1
 3082 031d 3F       		.uleb128 0x3f
 3083 031e 19       		.uleb128 0x19
 3084 031f 03       		.uleb128 0x3
 3085 0320 0E       		.uleb128 0xe
 3086 0321 3A       		.uleb128 0x3a
 3087 0322 0B       		.uleb128 0xb
 3088 0323 3B       		.uleb128 0x3b
 3089 0324 05       		.uleb128 0x5
 3090 0325 27       		.uleb128 0x27
 3091 0326 19       		.uleb128 0x19
 3092 0327 3C       		.uleb128 0x3c
 3093 0328 19       		.uleb128 0x19
 3094 0329 00       		.byte	0
 3095 032a 00       		.byte	0
 3096 032b 00       		.byte	0
 3097              		.section	.debug_loc,"",%progbits
 3098              	.Ldebug_loc0:
 3099              	.LLST0:
 3100 0000 00000000 		.4byte	.LVL8
 3101 0004 08000000 		.4byte	.LVL9
 3102 0008 0200     		.2byte	0x2
 3103 000a 30       		.byte	0x30
 3104 000b 9F       		.byte	0x9f
ARM GAS  /tmp/ccQneqRX.s 			page 86


 3105 000c 00000000 		.4byte	0
 3106 0010 00000000 		.4byte	0
 3107              	.LLST1:
 3108 0014 00000000 		.4byte	.LVL11
 3109 0018 10000000 		.4byte	.LVL12
 3110 001c 0200     		.2byte	0x2
 3111 001e 30       		.byte	0x30
 3112 001f 9F       		.byte	0x9f
 3113 0020 00000000 		.4byte	0
 3114 0024 00000000 		.4byte	0
 3115              		.section	.debug_aranges,"",%progbits
 3116 0000 34000000 		.4byte	0x34
 3117 0004 0200     		.2byte	0x2
 3118 0006 00000000 		.4byte	.Ldebug_info0
 3119 000a 04       		.byte	0x4
 3120 000b 00       		.byte	0
 3121 000c 0000     		.2byte	0
 3122 000e 0000     		.2byte	0
 3123 0010 00000000 		.4byte	.LFB219
 3124 0014 66000000 		.4byte	.LFE219-.LFB219
 3125 0018 00000000 		.4byte	.LFB220
 3126 001c 20000000 		.4byte	.LFE220-.LFB220
 3127 0020 00000000 		.4byte	.LFB221
 3128 0024 26000000 		.4byte	.LFE221-.LFB221
 3129 0028 00000000 		.4byte	.LFB222
 3130 002c 1E000000 		.4byte	.LFE222-.LFB222
 3131 0030 00000000 		.4byte	0
 3132 0034 00000000 		.4byte	0
 3133              		.section	.debug_ranges,"",%progbits
 3134              	.Ldebug_ranges0:
 3135 0000 00000000 		.4byte	.LFB219
 3136 0004 66000000 		.4byte	.LFE219
 3137 0008 00000000 		.4byte	.LFB220
 3138 000c 20000000 		.4byte	.LFE220
 3139 0010 00000000 		.4byte	.LFB221
 3140 0014 26000000 		.4byte	.LFE221
 3141 0018 00000000 		.4byte	.LFB222
 3142 001c 1E000000 		.4byte	.LFE222
 3143 0020 00000000 		.4byte	0
 3144 0024 00000000 		.4byte	0
 3145              		.section	.debug_line,"",%progbits
 3146              	.Ldebug_line0:
 3147 0000 D9030000 		.section	.debug_str,"MS",%progbits,1
 3147      02006103 
 3147      00000201 
 3147      FB0E0D00 
 3147      01010101 
 3148              	.LASF52:
 3149 0000 72656164 		.ascii	"ready_list_t\000"
 3149      795F6C69 
 3149      73745F74 
 3149      00
 3150              	.LASF77:
 3151 000d 44494552 		.ascii	"DIER\000"
 3151      00
 3152              	.LASF2:
 3153 0012 73697A65 		.ascii	"size_t\000"
ARM GAS  /tmp/ccQneqRX.s 			page 87


 3153      5F7400
 3154              	.LASF48:
 3155 0019 6E657874 		.ascii	"next\000"
 3155      00
 3156              	.LASF58:
 3157 001e 64656C74 		.ascii	"delta\000"
 3157      6100
 3158              	.LASF86:
 3159 0024 7264796D 		.ascii	"rdymsg\000"
 3159      736700
 3160              	.LASF127:
 3161 002b 74657374 		.ascii	"test_sequence_010\000"
 3161      5F736571 
 3161      75656E63 
 3161      655F3031 
 3161      3000
 3162              	.LASF128:
 3163 003d 74657374 		.ascii	"test_sequence_011\000"
 3163      5F736571 
 3163      75656E63 
 3163      655F3031 
 3163      3100
 3164              	.LASF129:
 3165 004f 74657374 		.ascii	"test_sequence_012\000"
 3165      5F736571 
 3165      75656E63 
 3165      655F3031 
 3165      3200
 3166              	.LASF130:
 3167 0061 74657374 		.ascii	"test_sequence_013\000"
 3167      5F736571 
 3167      75656E63 
 3167      655F3031 
 3167      3300
 3168              	.LASF3:
 3169 0073 5F5F7569 		.ascii	"__uint8_t\000"
 3169      6E74385F 
 3169      7400
 3170              	.LASF51:
 3171 007d 70726576 		.ascii	"prev\000"
 3171      00
 3172              	.LASF75:
 3173 0082 706F7274 		.ascii	"port_intctx\000"
 3173      5F696E74 
 3173      63747800 
 3174              	.LASF63:
 3175 008e 73797374 		.ascii	"system_debug_t\000"
 3175      656D5F64 
 3175      65627567 
 3175      5F7400
 3176              	.LASF104:
 3177 009d 706F7274 		.ascii	"port_lock\000"
 3177      5F6C6F63 
 3177      6B00
 3178              	.LASF14:
 3179 00a7 6C6F6E67 		.ascii	"long long unsigned int\000"
 3179      206C6F6E 
ARM GAS  /tmp/ccQneqRX.s 			page 88


 3179      6720756E 
 3179      7369676E 
 3179      65642069 
 3180              	.LASF87:
 3181 00be 65786974 		.ascii	"exitcode\000"
 3181      636F6465 
 3181      00
 3182              	.LASF70:
 3183 00c7 6D61696E 		.ascii	"mainthread\000"
 3183      74687265 
 3183      616400
 3184              	.LASF90:
 3185 00d2 73656E74 		.ascii	"sentmsg\000"
 3185      6D736700 
 3186              	.LASF60:
 3187 00da 76697274 		.ascii	"virtual_timers_list_t\000"
 3187      75616C5F 
 3187      74696D65 
 3187      72735F6C 
 3187      6973745F 
 3188              	.LASF117:
 3189 00f0 49544D5F 		.ascii	"ITM_RxBuffer\000"
 3189      52784275 
 3189      66666572 
 3189      00
 3190              	.LASF81:
 3191 00fd 42445452 		.ascii	"BDTR\000"
 3191      00
 3192              	.LASF50:
 3193 0102 63685F74 		.ascii	"ch_threads_queue\000"
 3193      68726561 
 3193      64735F71 
 3193      75657565 
 3193      00
 3194              	.LASF78:
 3195 0113 43434D52 		.ascii	"CCMR1\000"
 3195      3100
 3196              	.LASF79:
 3197 0119 43434D52 		.ascii	"CCMR2\000"
 3197      3200
 3198              	.LASF83:
 3199 011f 43434D52 		.ascii	"CCMR3\000"
 3199      3300
 3200              	.LASF1:
 3201 0125 7369676E 		.ascii	"signed char\000"
 3201      65642063 
 3201      68617200 
 3202              	.LASF135:
 3203 0131 74657374 		.ascii	"test_println\000"
 3203      5F707269 
 3203      6E746C6E 
 3203      00
 3204              	.LASF69:
 3205 013e 76746C69 		.ascii	"vtlist\000"
 3205      737400
 3206              	.LASF105:
 3207 0145 706F7274 		.ascii	"port_unlock\000"
ARM GAS  /tmp/ccQneqRX.s 			page 89


 3207      5F756E6C 
 3207      6F636B00 
 3208              	.LASF39:
 3209 0151 6D736771 		.ascii	"msgqueue\000"
 3209      75657565 
 3209      00
 3210              	.LASF35:
 3211 015a 73746174 		.ascii	"state\000"
 3211      6500
 3212              	.LASF9:
 3213 0160 6C6F6E67 		.ascii	"long int\000"
 3213      20696E74 
 3213      00
 3214              	.LASF21:
 3215 0169 74737461 		.ascii	"tstate_t\000"
 3215      74655F74 
 3215      00
 3216              	.LASF59:
 3217 0172 66756E63 		.ascii	"func\000"
 3217      00
 3218              	.LASF80:
 3219 0177 43434552 		.ascii	"CCER\000"
 3219      00
 3220              	.LASF12:
 3221 017c 6C6F6E67 		.ascii	"long long int\000"
 3221      206C6F6E 
 3221      6720696E 
 3221      7400
 3222              	.LASF16:
 3223 018a 75696E74 		.ascii	"uint16_t\000"
 3223      31365F74 
 3223      00
 3224              	.LASF136:
 3225 0193 63685468 		.ascii	"chThdTerminate\000"
 3225      64546572 
 3225      6D696E61 
 3225      746500
 3226              	.LASF32:
 3227 01a2 6F6C6465 		.ascii	"older\000"
 3227      7200
 3228              	.LASF10:
 3229 01a8 5F5F7569 		.ascii	"__uint32_t\000"
 3229      6E743332 
 3229      5F7400
 3230              	.LASF72:
 3231 01b3 72656761 		.ascii	"regarm_t\000"
 3231      726D5F74 
 3231      00
 3232              	.LASF64:
 3233 01bc 63685F73 		.ascii	"ch_system_debug\000"
 3233      79737465 
 3233      6D5F6465 
 3233      62756700 
 3234              	.LASF38:
 3235 01cc 77616974 		.ascii	"waiting\000"
 3235      696E6700 
 3236              	.LASF98:
ARM GAS  /tmp/ccQneqRX.s 			page 90


 3237 01d4 6D757465 		.ascii	"mutex_t\000"
 3237      785F7400 
 3238              	.LASF140:
 3239 01dc 76616C75 		.ascii	"value\000"
 3239      6500
 3240              	.LASF26:
 3241 01e2 636E745F 		.ascii	"cnt_t\000"
 3241      7400
 3242              	.LASF109:
 3243 01e8 63685654 		.ascii	"chVTGetSystemTimeX\000"
 3243      47657453 
 3243      79737465 
 3243      6D54696D 
 3243      655800
 3244              	.LASF139:
 3245 01fb 2F686F6D 		.ascii	"/home/jerson/ChibiOS/rt_stm32f100rb_onion\000"
 3245      652F6A65 
 3245      72736F6E 
 3245      2F436869 
 3245      62694F53 
 3246              	.LASF138:
 3247 0225 2E2E2F74 		.ascii	"../test/rt/source/test/test_root.c\000"
 3247      6573742F 
 3247      72742F73 
 3247      6F757263 
 3247      652F7465 
 3248              	.LASF91:
 3249 0248 77747365 		.ascii	"wtsemp\000"
 3249      6D7000
 3250              	.LASF89:
 3251 024f 77747472 		.ascii	"wttrp\000"
 3251      7000
 3252              	.LASF101:
 3253 0255 74656172 		.ascii	"teardown\000"
 3253      646F776E 
 3253      00
 3254              	.LASF33:
 3255 025e 6E616D65 		.ascii	"name\000"
 3255      00
 3256              	.LASF29:
 3257 0263 71756575 		.ascii	"queue\000"
 3257      6500
 3258              	.LASF43:
 3259 0269 6D706F6F 		.ascii	"mpool\000"
 3259      6C00
 3260              	.LASF76:
 3261 026f 534D4352 		.ascii	"SMCR\000"
 3261      00
 3262              	.LASF46:
 3263 0274 63685F74 		.ascii	"ch_thread\000"
 3263      68726561 
 3263      6400
 3264              	.LASF24:
 3265 027e 6D73675F 		.ascii	"msg_t\000"
 3265      7400
 3266              	.LASF40:
 3267 0284 6570656E 		.ascii	"epending\000"
ARM GAS  /tmp/ccQneqRX.s 			page 91


 3267      64696E67 
 3267      00
 3268              	.LASF66:
 3269 028d 63685F73 		.ascii	"ch_system_t\000"
 3269      79737465 
 3269      6D5F7400 
 3270              	.LASF85:
 3271 0299 73746D33 		.ascii	"stm32_tim_t\000"
 3271      325F7469 
 3271      6D5F7400 
 3272              	.LASF113:
 3273 02a5 73797374 		.ascii	"systime\000"
 3273      696D6500 
 3274              	.LASF53:
 3275 02ad 63685F72 		.ascii	"ch_ready_list\000"
 3275      65616479 
 3275      5F6C6973 
 3275      7400
 3276              	.LASF25:
 3277 02bb 6576656E 		.ascii	"eventmask_t\000"
 3277      746D6173 
 3277      6B5F7400 
 3278              	.LASF8:
 3279 02c7 5F5F696E 		.ascii	"__int32_t\000"
 3279      7433325F 
 3279      7400
 3280              	.LASF73:
 3281 02d1 73746B61 		.ascii	"stkalign_t\000"
 3281      6C69676E 
 3281      5F7400
 3282              	.LASF103:
 3283 02dc 74657374 		.ascii	"testcase_t\000"
 3283      63617365 
 3283      5F7400
 3284              	.LASF134:
 3285 02e7 74657374 		.ascii	"test_print\000"
 3285      5F707269 
 3285      6E7400
 3286              	.LASF42:
 3287 02f2 7265616C 		.ascii	"realprio\000"
 3287      7072696F 
 3287      00
 3288              	.LASF71:
 3289 02fb 73697A65 		.ascii	"sizetype\000"
 3289      74797065 
 3289      00
 3290              	.LASF44:
 3291 0304 74687265 		.ascii	"thread_reference_t\000"
 3291      61645F72 
 3291      65666572 
 3291      656E6365 
 3291      5F7400
 3292              	.LASF61:
 3293 0317 63685F76 		.ascii	"ch_virtual_timers_list\000"
 3293      69727475 
 3293      616C5F74 
 3293      696D6572 
ARM GAS  /tmp/ccQneqRX.s 			page 92


 3293      735F6C69 
 3294              	.LASF132:
 3295 032e 74657374 		.ascii	"test_buffer\000"
 3295      5F627566 
 3295      66657200 
 3296              	.LASF19:
 3297 033a 75696E74 		.ascii	"uint64_t\000"
 3297      36345F74 
 3297      00
 3298              	.LASF116:
 3299 0343 74657374 		.ascii	"test_wait_threads\000"
 3299      5F776169 
 3299      745F7468 
 3299      72656164 
 3299      7300
 3300              	.LASF74:
 3301 0355 706F7274 		.ascii	"port_context\000"
 3301      5F636F6E 
 3301      74657874 
 3301      00
 3302              	.LASF100:
 3303 0362 73657475 		.ascii	"setup\000"
 3303      7000
 3304              	.LASF141:
 3305 0368 63685654 		.ascii	"chVTGetSystemTime\000"
 3305      47657453 
 3305      79737465 
 3305      6D54696D 
 3305      6500
 3306              	.LASF30:
 3307 037a 7072696F 		.ascii	"prio\000"
 3307      00
 3308              	.LASF54:
 3309 037f 63757272 		.ascii	"current\000"
 3309      656E7400 
 3310              	.LASF13:
 3311 0387 5F5F7569 		.ascii	"__uint64_t\000"
 3311      6E743634 
 3311      5F7400
 3312              	.LASF22:
 3313 0392 74726566 		.ascii	"trefs_t\000"
 3313      735F7400 
 3314              	.LASF115:
 3315 039a 74657374 		.ascii	"test_terminate_threads\000"
 3315      5F746572 
 3315      6D696E61 
 3315      74655F74 
 3315      68726561 
 3316              	.LASF37:
 3317 03b1 72656673 		.ascii	"refs\000"
 3317      00
 3318              	.LASF56:
 3319 03b6 76697274 		.ascii	"virtual_timer_t\000"
 3319      75616C5F 
 3319      74696D65 
 3319      725F7400 
 3320              	.LASF23:
ARM GAS  /tmp/ccQneqRX.s 			page 93


 3321 03c6 74707269 		.ascii	"tprio_t\000"
 3321      6F5F7400 
 3322              	.LASF112:
 3323 03ce 5F5F6675 		.ascii	"__func__.5198\000"
 3323      6E635F5F 
 3323      2E353139 
 3323      3800
 3324              	.LASF99:
 3325 03dc 5F426F6F 		.ascii	"_Bool\000"
 3325      6C00
 3326              	.LASF17:
 3327 03e2 696E7433 		.ascii	"int32_t\000"
 3327      325F7400 
 3328              	.LASF4:
 3329 03ea 756E7369 		.ascii	"unsigned char\000"
 3329      676E6564 
 3329      20636861 
 3329      7200
 3330              	.LASF102:
 3331 03f8 65786563 		.ascii	"execute\000"
 3331      75746500 
 3332              	.LASF5:
 3333 0400 73686F72 		.ascii	"short int\000"
 3333      7420696E 
 3333      7400
 3334              	.LASF62:
 3335 040a 6C617374 		.ascii	"lasttime\000"
 3335      74696D65 
 3335      00
 3336              	.LASF133:
 3337 0413 74687265 		.ascii	"threads\000"
 3337      61647300 
 3338              	.LASF93:
 3339 041b 65776D61 		.ascii	"ewmask\000"
 3339      736B00
 3340              	.LASF67:
 3341 0422 63685F73 		.ascii	"ch_system\000"
 3341      79737465 
 3341      6D00
 3342              	.LASF108:
 3343 042c 63685379 		.ascii	"chSysLock\000"
 3343      734C6F63 
 3343      6B00
 3344              	.LASF57:
 3345 0436 63685F76 		.ascii	"ch_virtual_timer\000"
 3345      69727475 
 3345      616C5F74 
 3345      696D6572 
 3345      00
 3346              	.LASF94:
 3347 0447 63685F73 		.ascii	"ch_semaphore\000"
 3347      656D6170 
 3347      686F7265 
 3347      00
 3348              	.LASF84:
 3349 0454 43435852 		.ascii	"CCXR\000"
 3349      00
ARM GAS  /tmp/ccQneqRX.s 			page 94


 3350              	.LASF144:
 3351 0459 63685468 		.ascii	"chThdSleep\000"
 3351      64536C65 
 3351      657000
 3352              	.LASF106:
 3353 0464 73745F6C 		.ascii	"st_lld_get_counter\000"
 3353      6C645F67 
 3353      65745F63 
 3353      6F756E74 
 3353      657200
 3354              	.LASF18:
 3355 0477 75696E74 		.ascii	"uint32_t\000"
 3355      33325F74 
 3355      00
 3356              	.LASF92:
 3357 0480 77746D74 		.ascii	"wtmtxp\000"
 3357      787000
 3358              	.LASF47:
 3359 0487 63685F74 		.ascii	"ch_threads_list\000"
 3359      68726561 
 3359      64735F6C 
 3359      69737400 
 3360              	.LASF96:
 3361 0497 6F776E65 		.ascii	"owner\000"
 3361      7200
 3362              	.LASF11:
 3363 049d 6C6F6E67 		.ascii	"long unsigned int\000"
 3363      20756E73 
 3363      69676E65 
 3363      6420696E 
 3363      7400
 3364              	.LASF34:
 3365 04af 77616261 		.ascii	"wabase\000"
 3365      736500
 3366              	.LASF97:
 3367 04b6 63686172 		.ascii	"char\000"
 3367      00
 3368              	.LASF6:
 3369 04bb 5F5F7569 		.ascii	"__uint16_t\000"
 3369      6E743136 
 3369      5F7400
 3370              	.LASF0:
 3371 04c6 756E7369 		.ascii	"unsigned int\000"
 3371      676E6564 
 3371      20696E74 
 3371      00
 3372              	.LASF82:
 3373 04d3 444D4152 		.ascii	"DMAR\000"
 3373      00
 3374              	.LASF28:
 3375 04d8 74687265 		.ascii	"thread_t\000"
 3375      61645F74 
 3375      00
 3376              	.LASF131:
 3377 04e1 74657374 		.ascii	"test_suite\000"
 3377      5F737569 
 3377      746500
ARM GAS  /tmp/ccQneqRX.s 			page 95


 3378              	.LASF27:
 3379 04ec 73797374 		.ascii	"systime_t\000"
 3379      696D655F 
 3379      7400
 3380              	.LASF55:
 3381 04f6 76746675 		.ascii	"vtfunc_t\000"
 3381      6E635F74 
 3381      00
 3382              	.LASF110:
 3383 04ff 5F5F7365 		.ascii	"__set_BASEPRI\000"
 3383      745F4241 
 3383      53455052 
 3383      4900
 3384              	.LASF65:
 3385 050d 70616E69 		.ascii	"panic_msg\000"
 3385      635F6D73 
 3385      6700
 3386              	.LASF7:
 3387 0517 73686F72 		.ascii	"short unsigned int\000"
 3387      7420756E 
 3387      7369676E 
 3387      65642069 
 3387      6E7400
 3388              	.LASF107:
 3389 052a 706F7274 		.ascii	"port_timer_get_time\000"
 3389      5F74696D 
 3389      65725F67 
 3389      65745F74 
 3389      696D6500 
 3390              	.LASF31:
 3391 053e 6E657765 		.ascii	"newer\000"
 3391      7200
 3392              	.LASF114:
 3393 0544 74657374 		.ascii	"test_print_port_info\000"
 3393      5F707269 
 3393      6E745F70 
 3393      6F72745F 
 3393      696E666F 
 3394              	.LASF143:
 3395 0559 63685468 		.ascii	"chThdWait\000"
 3395      64576169 
 3395      7400
 3396              	.LASF49:
 3397 0563 74687265 		.ascii	"threads_queue_t\000"
 3397      6164735F 
 3397      71756575 
 3397      655F7400 
 3398              	.LASF95:
 3399 0573 63685F6D 		.ascii	"ch_mutex\000"
 3399      75746578 
 3399      00
 3400              	.LASF68:
 3401 057c 726C6973 		.ascii	"rlist\000"
 3401      7400
 3402              	.LASF15:
 3403 0582 75696E74 		.ascii	"uint8_t\000"
 3403      385F7400 
ARM GAS  /tmp/ccQneqRX.s 			page 96


 3404              	.LASF36:
 3405 058a 666C6167 		.ascii	"flags\000"
 3405      7300
 3406              	.LASF137:
 3407 0590 474E5520 		.ascii	"GNU C 4.8.2 -mcpu=cortex-m3 -mno-thumb-interwork -m"
 3407      4320342E 
 3407      382E3220 
 3407      2D6D6370 
 3407      753D636F 
 3408 05c3 7468756D 		.ascii	"thumb -ggdb -O2 -fomit-frame-pointer -falign-functi"
 3408      62202D67 
 3408      67646220 
 3408      2D4F3220 
 3408      2D666F6D 
 3409 05f6 6F6E733D 		.ascii	"ons=16 -ffunction-sections -fdata-sections -fno-com"
 3409      3136202D 
 3409      6666756E 
 3409      6374696F 
 3409      6E2D7365 
 3410 0629 6D6F6E20 		.ascii	"mon -flto\000"
 3410      2D666C74 
 3410      6F00
 3411              	.LASF118:
 3412 0633 74657374 		.ascii	"test_sequence_001\000"
 3412      5F736571 
 3412      75656E63 
 3412      655F3030 
 3412      3100
 3413              	.LASF119:
 3414 0645 74657374 		.ascii	"test_sequence_002\000"
 3414      5F736571 
 3414      75656E63 
 3414      655F3030 
 3414      3200
 3415              	.LASF120:
 3416 0657 74657374 		.ascii	"test_sequence_003\000"
 3416      5F736571 
 3416      75656E63 
 3416      655F3030 
 3416      3300
 3417              	.LASF121:
 3418 0669 74657374 		.ascii	"test_sequence_004\000"
 3418      5F736571 
 3418      75656E63 
 3418      655F3030 
 3418      3400
 3419              	.LASF122:
 3420 067b 74657374 		.ascii	"test_sequence_005\000"
 3420      5F736571 
 3420      75656E63 
 3420      655F3030 
 3420      3500
 3421              	.LASF123:
 3422 068d 74657374 		.ascii	"test_sequence_006\000"
 3422      5F736571 
 3422      75656E63 
 3422      655F3030 
ARM GAS  /tmp/ccQneqRX.s 			page 97


 3422      3600
 3423              	.LASF124:
 3424 069f 74657374 		.ascii	"test_sequence_007\000"
 3424      5F736571 
 3424      75656E63 
 3424      655F3030 
 3424      3700
 3425              	.LASF125:
 3426 06b1 74657374 		.ascii	"test_sequence_008\000"
 3426      5F736571 
 3426      75656E63 
 3426      655F3030 
 3426      3800
 3427              	.LASF126:
 3428 06c3 74657374 		.ascii	"test_sequence_009\000"
 3428      5F736571 
 3428      75656E63 
 3428      655F3030 
 3428      3900
 3429              	.LASF88:
 3430 06d5 77746F62 		.ascii	"wtobjp\000"
 3430      6A7000
 3431              	.LASF45:
 3432 06dc 74687265 		.ascii	"threads_list_t\000"
 3432      6164735F 
 3432      6C697374 
 3432      5F7400
 3433              	.LASF20:
 3434 06eb 746D6F64 		.ascii	"tmode_t\000"
 3434      655F7400 
 3435              	.LASF111:
 3436 06f3 63685379 		.ascii	"chSysUnlock\000"
 3436      73556E6C 
 3436      6F636B00 
 3437              	.LASF41:
 3438 06ff 6D74786C 		.ascii	"mtxlist\000"
 3438      69737400 
 3439              	.LASF142:
 3440 0707 74657374 		.ascii	"test_wait_tick\000"
 3440      5F776169 
 3440      745F7469 
 3440      636B00
 3441              		.comm	__gnu_lto_v1,1,1
 3442              		.ident	"GCC: (4.8.2-14ubuntu1+6) 4.8.2"
ARM GAS  /tmp/ccQneqRX.s 			page 98


DEFINED SYMBOLS
                            *ABS*:0000000000000000 test_root.c
     /tmp/ccQneqRX.s:502    .text.test_print_port_info:0000000000000000 $t
     /tmp/ccQneqRX.s:508    .text.test_print_port_info:0000000000000000 test_print_port_info
     /tmp/ccQneqRX.s:775    .rodata.str1.4:0000000000000000 .LC0
     /tmp/ccQneqRX.s:778    .rodata.str1.4:0000000000000014 .LC1
     /tmp/ccQneqRX.s:781    .rodata.str1.4:0000000000000020 .LC2
     /tmp/ccQneqRX.s:784    .rodata.str1.4:0000000000000034 .LC3
     /tmp/ccQneqRX.s:786    .rodata.str1.4:000000000000003c .LC4
     /tmp/ccQneqRX.s:789    .rodata.str1.4:0000000000000050 .LC5
     /tmp/ccQneqRX.s:792    .rodata.str1.4:000000000000005c .LC6
     /tmp/ccQneqRX.s:795    .rodata.str1.4:0000000000000070 .LC7
     /tmp/ccQneqRX.s:567    .text.test_terminate_threads:0000000000000000 $t
     /tmp/ccQneqRX.s:573    .text.test_terminate_threads:0000000000000000 test_terminate_threads
     /tmp/ccQneqRX.s:608    .text.test_terminate_threads:000000000000001c $d
     /tmp/ccQneqRX.s:613    .text.test_wait_threads:0000000000000000 $t
     /tmp/ccQneqRX.s:619    .text.test_wait_threads:0000000000000000 test_wait_threads
     /tmp/ccQneqRX.s:799    .bss.threads:0000000000000000 .LANCHOR0
     /tmp/ccQneqRX.s:660    .text.test_wait_tick:0000000000000000 $t
     /tmp/ccQneqRX.s:666    .text.test_wait_tick:0000000000000000 test_wait_tick
     /tmp/ccQneqRX.s:767    .rodata.wa:0000000000000000 wa
     /tmp/ccQneqRX.s:802    .bss.threads:0000000000000000 threads
     /tmp/ccQneqRX.s:742    .bss.test_buffer:0000000000000000 test_buffer
     /tmp/ccQneqRX.s:748    .data.test_suite:0000000000000000 test_suite
     /tmp/ccQneqRX.s:739    .bss.test_buffer:0000000000000000 $d
     /tmp/ccQneqRX.s:745    .data.test_suite:0000000000000000 $d
     /tmp/ccQneqRX.s:764    .rodata.wa:0000000000000000 $d
     /tmp/ccQneqRX.s:774    .rodata.str1.4:0000000000000000 $d
     /tmp/ccQneqRX.s:798    .bss.threads:0000000000000000 $d
                            *COM*:0000000000000001 __gnu_lto_v1
                     .debug_frame:0000000000000010 $d

UNDEFINED SYMBOLS
test_print
test_println
chThdTerminate
chThdWait
chThdSleep
test_sequence_001
test_sequence_002
test_sequence_003
test_sequence_004
test_sequence_005
test_sequence_006
test_sequence_007
test_sequence_008
test_sequence_009
test_sequence_010
test_sequence_011
test_sequence_012
test_sequence_013
