ARM GAS  /tmp/cc2MVQ1V.s 			page 1


   1              		.syntax unified
   2              		.cpu cortex-m3
   3              		.fpu softvfp
   4              		.eabi_attribute 20, 1
   5              		.eabi_attribute 21, 1
   6              		.eabi_attribute 23, 3
   7              		.eabi_attribute 24, 1
   8              		.eabi_attribute 25, 1
   9              		.eabi_attribute 26, 1
  10              		.eabi_attribute 30, 2
  11              		.eabi_attribute 34, 1
  12              		.eabi_attribute 18, 4
  13              		.thumb
  14              		.file	"test_sequence_007.c"
  15              		.text
  16              	.Ltext0:
  17              		.section	.gnu.lto_.jmpfuncs.2ce54cc7b95ac860,"",%progbits
  18 0000 789C6362 		.ascii	"x\234cb`b\300\006\326\000\261\004\020\003e\231\230\252"
  18      6062C006 
  18      D600B104 
  18      10036599 
  18      98AA
  19 0012 197E35CC 		.ascii	"\031~5\314h\020\310dd\220c`\234\3330\303!\223\221\021"
  19      6810C864 
  19      64906360 
  19      9CDB30C3 
  19      21939111 
  20 0026 AC0A21C3 		.ascii	"\254\012!\303$\307\300\016\221a\206\030\300\310\000"
  20      24C7C00E 
  20      91618618 
  20      C0C800
  21 0035 359915C8 		.ascii	"5\231\025\310\210`\314dd9\301\004\327\322\001\322\302"
  21      8860CC64 
  21      6439C104 
  21      D7D201D2 
  21      C2
  22 0046 9ACC08B5 		.ascii	"\232\314\010\265\214\205\221\011\244\253\014\252\222"
  22      8C859109 
  22      A4AB0CAA 
  22      92
  23 0053 CD05C840 		.ascii	"\315\005\310@\021pF\027pB\027p\004\331\344\350\344\354"
  23      11704617 
  23      70421770 
  23      04D9E4E8 
  23      E4EC
  24 0065 C2209899 		.ascii	"\302 \230\231W\226\230\223\231\242P\234ZX\232\232\227"
  24      57969893 
  24      99A2509C 
  24      5A589A9A 
  24      97
  25 0076 9CCA0000 		.ascii	"\234\312\000\000\333\023 \013"
  25      DB13200B 
  26              		.text
  27              		.section	.gnu.lto_.inline.2ce54cc7b95ac860,"",%progbits
  28 0000 789C6362 		.ascii	"x\234cb`b\300\006\312\2414PV\341$##\003\223\330\205"
  28      6062C006 
  28      CAA13450 
ARM GAS  /tmp/cc2MVQ1V.s 			page 2


  28      56E12423 
  28      230393D8 
  29 0015 366606B6 		.ascii	"6f\006\266\005\362`\345\314<`\031F.\220\012nF\006\306"
  29      05F260E5 
  29      CC3C6019 
  29      462E900A 
  29      6E4606C6 
  30 0029 097ECC3C 		.ascii	"\011~\314<@E\023\374&\370\201\370\014\354\002\014\014"
  30      404513FC 
  30      26F881F8 
  30      0CEC020C 
  30      0C
  31 003a AC13FC18 		.ascii	"\254\023\374\030\300\210\205\201\337\210\021l\017\212"
  31      C0888581 
  31      DF88116C 
  31      0F8A
  32 0048 7EA01C2E 		.ascii	"~\240\034.\232\001\000ot\016\007"
  32      9A01006F 
  32      740E07
  33              		.text
  34              		.section	.gnu.lto_.pureconst.2ce54cc7b95ac860,"",%progbits
  35 0000 789C6362 		.ascii	"x\234cb`b`e\200\000&\006I\026\011\000\001\007\000A"
  35      60626065 
  35      80002606 
  35      49160900 
  35      01070041 
  36              		.text
  37              		.section	.gnu.lto_test_007_001_execute.2ce54cc7b95ac860,"",%progbits
  38 0000 789C9554 		.ascii	"x\234\225TQkTW\020\2369\367\336\315f\263q\263\232hb"
  38      516B5457 
  38      109E39F7 
  38      DECD66B3 
  38      71B39A68 
  39 0015 4D8C367D 		.ascii	"M\2146}Q\334UZ\020AD\255?\301\200}\222\365f\331\\\310"
  39      51DC555A 
  39      104144AD 
  39      3FC1807D 
  39      92F566D9 
  40 002b 269ADDF8 		.ascii	"&\232\335\370\322\207\234d\223\340\203\266\213OQ\021"
  40      D2879C64 
  40      93E083B6 
  40      8B4F5111 
  41 003b D4100B45 		.ascii	"\324\020\013E\252\"\324 hW\002\262\0225\346A\260Up\321"
  41      AA22D420 
  41      685702B2 
  41      1235E641 
  41      B05570D1 
  42 004f D28A425B 		.ascii	"\322\212B[\372\222T\202\351\3149\367\\c\023*.\354\271"
  42      FA925482 
  42      E9CC39F7 
  42      5C63132A 
  42      2EECB9
  43 0062 7367E6FB 		.ascii	"sg\346\373\31673\347\\\001\002\376\373\333I\377\272"
  43      CE3733E7 
  43      5C0102FE 
  43      FBDB49FF 
  43      BA
ARM GAS  /tmp/cc2MVQ1V.s 			page 3


  44 0073 10C0083D 		.ascii	"\020\300\010=1\004(\212\017\000\006\302\002mmX\332\270"
  44      3104288A 
  44      0F0006C2 
  44      026D6D58 
  44      DAB8
  45 0085 1DB68555 		.ascii	"\035\266\205U\332\0052\342<\214\201\214:\210\354\006"
  45      DA0532E2 
  45      3C8C818C 
  45      3A88EC06 
  46 0095 847E61D9 		.ascii	"\204~a\331\016\366\177\205\314&6\302y)OV\306\177\177"
  46      0EF67F85 
  46      CC2636C2 
  46      79294F56 
  46      C67F7F
  47 00a8 89A76469 		.ascii	"\211\247di\350\234\234_X@\364\220vN \270\010\007\350"
  47      E89C9C5F 
  47      5840F490 
  47      764E20B8 
  47      0807E8
  48 00bb 055BD543 		.ascii	"\005[\325C\330\357K\321\330\322\354\310\267M\362\334"
  48      D8EF4BD1 
  48      D8D2ECC8 
  48      B74DF2DC 
  49 00cb 6051BE25 		.ascii	"`Q\276%\250\207\226\200m\037B^\026\245\312\302\302\275"
  49      A8879680 
  49      6D1F425E 
  49      16A5CAC2 
  49      C2BD
  50 00dd 6B95E70F 		.ascii	"k\225\347\0170\276\032!\205c\270\021\034\360\320\016"
  50      30BE1A21 
  50      8563B811 
  50      1CF0D00E 
  51 00ed D1E28469 		.ascii	"\321\342\204i\201(\271\317\223\273\226^B1Z\252\342~"
  51      8128B9CF 
  51      93BB965E 
  51      42315AAA 
  51      E27E
  52 00ff 623D871B 		.ascii	"b=\207\033h\011\023\227\003CR\026[u\256\222T,\335\274"
  52      68091397 
  52      03435216 
  52      5B75AE92 
  52      542CDDBC 
  53 0113 737CB1A4 		.ascii	"s|\261\244j\001\237\177H\022p\234~\373i\245\216\265"
  53      6A019F7F 
  53      4812709C 
  53      7EFB69A5 
  53      8EB5
  54 0125 A3A08775 		.ascii	"\243\240\207u\037\006'&^5\246p\034\0358\003\247\007"
  54      1F062726 
  54      5E35A670 
  54      1C1D3803 
  54      A707
  55 0137 A4ACA312 		.ascii	"\244\254\243\022\277\2067\362\030[\221\254\0021a\004"
  55      BF8637F2 
  55      185B91AC 
  55      02316104 
  56 0147 8C65B18F 		.ascii	"\214e\261\217\220O\347^=\26654\203\316\026\270\304\210"
ARM GAS  /tmp/cc2MVQ1V.s 			page 4


  56      904FE75E 
  56      3DB63534 
  56      83CE16B8 
  56      C488
  57 0159 1A6629B2 		.ascii	"\032f)\262\025e\226Q\266j\263\210>\2666`Y\261H\032\221"
  57      15659651 
  57      B66AB388 
  57      3EB63660 
  57      59B1481A 
  58 016e FD327FE6 		.ascii	"\3752\177\346\331\027~\255\246h\371\347\305d\320\000"
  58      D9177EAD 
  58      A668F9E7 
  58      C564D000 
  59 017e 6394A61E 		.ascii	"c\224\246\036\315\304\211No\354*fz\250\223\224\301\372"
  59      CDC4894E 
  59      6FEC2A66 
  59      7AA89394 
  59      C1FA
  60 0190 CDF0BD94 		.ascii	"\315\360\275\224\262\362\354\237\361M\324D\375&wx\030"
  60      B2F2EC9F 
  60      F14DD444 
  60      FD267778 
  60      18
  61 01a1 0BAAAB0B 		.ascii	"\013\252\253\013\252\213g\025\214\325\304\225\216CL"
  61      AA8B6715 
  61      8CD5C495 
  61      8E434C
  62 01b0 96C21F88 		.ascii	"\226\302\037\210\230l\014l\255p\356\307\265)\274\254"
  62      986C0C6C 
  62      AD70EEC7 
  62      B529BCAC 
  63 01c0 AA6DF089 		.ascii	"\252m\360\211s4\243\200x%m\317\\\340s\011\306_1\370"
  63      7334A380 
  63      78256DCF 
  63      5CE07309 
  63      C65F31F8 
  64 01d4 C2B1C9A9 		.ascii	"\302\261\311\251GW\253M\277BD\302\311\016\247OC\243"
  64      4757AB4D 
  64      BF4244C2 
  64      C90EA74F 
  64      43A3
  65 01e6 F1870375 		.ascii	"\361\207\003u\253\\\264@W\345\250\266\227\005\3438\036"
  65      AB5CB440 
  65      57E5A8B6 
  65      9705E338 
  65      1E
  66 01f7 F6B0DE45 		.ascii	"\366\260\336E\277\367\\\265\207\015J\343\335bD;y\032"
  66      BFF75CB5 
  66      870D4AE3 
  66      DD62443B 
  66      791A
  67 0209 BAF07763 		.ascii	"\272\360wc]\035P\257\311*jf]\263\314@2|\360\324\321"
  67      5D1D50AF 
  67      C92A6A66 
  67      5DB3CC40 
  67      327CF0D4 
  68 021e F8E3638F 		.ascii	"\370\343c\217\006\367\363.\014Vn\026\252\202\203\313"
ARM GAS  /tmp/cc2MVQ1V.s 			page 5


  68      06F7F32E 
  68      0C566E16 
  68      AA8283CB 
  69 022e 47DACC4B 		.ascii	"G\332\314K\031\354P\331f\303v2K\273\254i(TnM\206RxK"
  69      19EC50D9 
  69      66C37632 
  69      4BBBAC69 
  69      28546E4D 
  70 0246 B5221AEC 		.ascii	"\265\"\032\354\325\350j(]\211&\346\027:E\337\011JTj"
  70      D5E86A28 
  70      5D8926E6 
  70      173A45DF 
  70      094A546A 
  71 025a 6F0CCF1E 		.ascii	"o\014\317\036of\361\265\244\226o\005\005\3248\332\364"
  71      6F66F1B5 
  71      A4966F05 
  71      05D438DA 
  71      F4
  72 026b 262CEBA7 		.ascii	"&,\353\247\027>{\026m\205#g\330\334\364\312\223\221"
  72      173E7B16 
  72      6D852367 
  72      D8DCF4CA 
  72      9391
  73 027d 5F67F064 		.ascii	"_g\360dA\226\345P\211.\326z\217o\356\005\232\343\377"
  73      4196E550 
  73      892ED67A 
  73      8F6FEE05 
  73      9AE3FF
  74 0290 5F2DE252 		.ascii	"_-\342RD\177\375}\275\313\010\273\250j\346\311\016W"
  74      447FFD7D 
  74      BDCB08BB 
  74      A86AE6C9 
  74      0E57
  75 02a2 CA2F22DA 		.ascii	"\312/\"\332\015\020T\264\326\245\217\233\356u\224\024"
  75      0D1054B4 
  75      D6A58F9B 
  75      EE759414 
  76 02b2 7BF889AA 		.ascii	"{\370\211\252\341u\341\273o\022\246\376X\206\257\313"
  76      E175E1BB 
  76      6F12A6FE 
  76      5886AFCB 
  77 02c2 34D84BD0 		.ascii	"4\330K\320\353\\\254\362\3211\017\233\365\361*\314\236"
  77      EB5CACF2 
  77      D1310F9B 
  77      F5F12ACC 
  77      9E
  78 02d3 D861A0F1 		.ascii	"\330a\240\361\014bpU\027\365kL\365+n\272n\003}4-\335"
  78      0C627055 
  78      17F56B4C 
  78      F52B6EBA 
  78      6E037D34 
  79 02e9 03132444 		.ascii	"\003\023$D\031\206~\033\2501\\\232(\230\025\374\014"
  79      19867E1B 
  79      A8315C9A 
  79      289815FC 
  79      0C
  80 02fa E80F4F94 		.ascii	"\350\017O\224-\"\263F\253\230\313\341\357\011Opj\262"
ARM GAS  /tmp/cc2MVQ1V.s 			page 6


  80      2D22B346 
  80      AB98CBE1 
  80      EF094F70 
  80      6AB2
  81 030c 6689E016 		.ascii	"f\211\340\026W}\313x\200\353uS\356\215\341\222\254V"
  81      577DCB78 
  81      80EB7553 
  81      EE8DE192 
  81      AC56
  82 031e 17AB5516 		.ascii	"\027\253U\026{\032=\334\320\002=g\345\350n\217\204\371"
  82      7B1A3DDC 
  82      D0023D67 
  82      E5E86E8F 
  82      84F9
  83 0330 C97EE4D3 		.ascii	"\311~\344\323\026\350\323\2216\023\361\3603\200\031"
  83      16E8D391 
  83      3613F1F0 
  83      338019
  84 033f 0858F56F 		.ascii	"\010X\365o?\325\3630\306\247rs\"\221\314\247s\371do"
  84      3FD5F330 
  84      C6A77273 
  84      2291CCA7 
  84      73F9646F 
  85 0353 3E99EBE9 		.ascii	">\231\353\351\353u\323\372\225\227\203\271\364\221\276"
  85      EB75D3FA 
  85      959783B9 
  85      F491BE
  86 0362 74B79B3E 		.ascii	"t\267\233>\270u\353\366\204\013\"\177\030=+\233\313"
  86      B875EBF6 
  86      840B227F 
  86      183D2B9B 
  86      CB
  87 0373 3413A827 		.ascii	"4\023\250'\307\020\257\333\355\352\353H'\335\316|go"
  87      C710AFDB 
  87      EDEAEB48 
  87      27DDCE7C 
  87      676F
  88 0385 3AD5914B 		.ascii	":\325\221KtB\3232Q\002Q\304\331\263\367\313}\020\367"
  88      7442D332 
  88      510251C4 
  88      D9B3F7CB 
  88      7D10F7
  89 0398 BA8FA6BA 		.ascii	"\272\217\246\272\274\216VC\017\377\002\\\031\226\375"
  89      BC8E5643 
  89      0FFF025C 
  89      1996FD
  90              		.text
  91              		.section	.gnu.lto_msg_thread1.2ce54cc7b95ac860,"",%progbits
  92 0000 789C6362 		.ascii	"x\234cb`b@\007\222@,\304\310\300\240\013\244\031\231"
  92      60624007 
  92      92402CC4 
  92      C8C0A00B 
  92      A41999
  93 0013 19189926 		.ascii	"\031\030\231&\234c`h\344`bd\0041\030\030\031\352\231"
  93      9C636068 
  93      E4606264 
  93      04311818 
ARM GAS  /tmp/cc2MVQ1V.s 			page 7


  93      19EA99
  94 0026 18EB2319 		.ascii	"\030\353#\031\301j\3273\035x\360\377\377\272+[\037U"
  94      C16AD733 
  94      1D78F0FF 
  94      FFBA2B5B 
  94      1F55
  95 0038 30B23331 		.ascii	"0\26231\346\202EY\031Z\032\032&(00$\203\271!@\022\244"
  95      E6824559 
  95      195A1A1A 
  95      26283030 
  95      2483B921 
  96 004f 33949109 		.ascii	"3\224\221\011D3\237gh}\360\306\"\221q!#+P\266\232\341"
  96      44339F67 
  96      687DF0C6 
  96      22917121 
  96      232B50B6 
  97 0065 57434783 		.ascii	"WCG\203@&#P5\304\314tF\246\010\306LFFG\206L\240\016"
  97      40262350 
  97      35C4CC74 
  97      46A608C6 
  97      4C464647 
  98 007d 06A0F205 		.ascii	"\006\240\362\005\271\204U;!T\347\021V\355\214P\235O"
  98      B984553B 
  98      2154E711 
  98      56ED8C50 
  98      9D4F
  99 008f 58B50B44 		.ascii	"X\265\013D\365E\206\306\007?\230`\312! \004\250\024"
  99      F54586C6 
  99      073F9860 
  99      CA212004 
  99      A814
 100 00a1 E8295028 		.ascii	"\350)P(j\353\351\351\227\244\026\227\350\027\225\350"
 100      6AEBE9E9 
 100      97A41697 
 100      E81795E8 
 101 00b1 17E79716 		.ascii	"\027\347\227\026%\247B\270 \"\2768\265\26045/95\336"
 101      25A742B8 
 101      2022BE38 
 101      B5B03435 
 101      2F3935DE 
 102 00c5 C0C05C2F 		.ascii	"\300\300\\/\231\001\000\306\227NC"
 102      990100C6 
 102      974E43
 103              		.text
 104              		.section	.gnu.lto_.symbol_nodes.2ce54cc7b95ac860,"",%progbits
 105 0000 789C4DCA 		.ascii	"x\234M\312\311\015\3020\024\204\341\031/\020\326\026"
 105      C90DC230 
 105      1484E119 
 105      2F10D616 
 106 0010 A88D4678 		.ascii	"\250\215Fx\221\220@\300\205\002\270\271\224\334i\200"
 106      919040C0 
 106      8502B8B9 
 106      94DC6980 
 107 0020 2DC16193 		.ascii	"-\301a\223(\001!l\021a|\371\374\353\215\202\302\013"
 107      2801216C 
 107      11617CF9 
 107      FCEB8D82 
ARM GAS  /tmp/cc2MVQ1V.s 			page 8


 107      C20B
 108 0032 CD537B0A 		.ascii	"\315S{\012\261\336\002\"\233\305\330\236\030~\260%\031"
 108      B1DE0222 
 108      9BC5D89E 
 108      187EB025 
 108      19
 109 0043 795005D4 		.ascii	"yP\005\324\216\202\277\315\231:\036\21746p\2405\242"
 109      8E82BFCD 
 109      993A1E8F 
 109      343670A0 
 109      35A2
 110 0055 79A3A8EF 		.ascii	"y\243\250\357&\317\311+E\247\272PL\252\232bSyJ+UEi\247"
 110      26CFC92B 
 110      45A7BA50 
 110      4CAA9A62 
 110      53794A2B 
 111 006d BA53B25F 		.ascii	"\272S\262_i\014\340\252w\260\0177\253'\032=\370y\264"
 111      690CE0AA 
 111      77B00F37 
 111      AB271A3D 
 111      F879B4
 112 0080 0BB78C76 		.ascii	"\013\267\214vP\254\236#\215\014>j\206\230\226a\037t"
 112      50AC9E23 
 112      8D0C3E6A 
 112      86989661 
 112      1F74
 113 0092 8D45A30F 		.ascii	"\215E\243\017\342\003\201\272L%"
 113      E20381BA 
 113      4C25
 114              		.text
 115              		.section	.gnu.lto_.refs.2ce54cc7b95ac860,"",%progbits
 116 0000 789C6362 		.ascii	"x\234cb`b\020g\200\0006\006FF \227\231\211\205\221\225"
 116      60621067 
 116      80003606 
 116      46462097 
 116      99898591 
 117 0015 9191918D 		.ascii	"\221\221\221\215\211\235\221\235\211\201\001\000\005"
 117      899D919D 
 117      89810100 
 117      05
 118 0022 C70051   		.ascii	"\307\000Q"
 119              		.text
 120              		.section	.gnu.lto_.decls.2ce54cc7b95ac860,"",%progbits
 121 0000 789CBD5B 		.ascii	"x\234\275[yp\024\327\231\177\3353\243\231A2\207m\\\260"
 121      797014D7 
 121      997FDD33 
 121      A3994132 
 121      876D5CB0 
 122 0014 856D7993 		.ascii	"\205my\223l\274\316\032\201\327k\223T\305\306\313Vy"
 122      6CBCCE1A 
 122      81D76B93 
 122      54C5C6CB 
 122      5679
 123 0026 FF616B2B 		.ascii	"\377ak+N*\256\332\332\2324\243F\322Z\232\231\364\264"
 123      4E2AAEDA 
 123      DA9A34A3 
 123      46D25A9A 
ARM GAS  /tmp/cc2MVQ1V.s 			page 9


 123      99F4B4
 124 0039 3876ABD6 		.ascii	"8v\253\326\215\000\001&\011\222\300HB\200\206\303\342"
 124      8D000126 
 124      0992C048 
 124      428086C3 
 124      E2
 125 004a 8AC160CC 		.ascii	"\212\301`\314a\256\201`\020\207\271A\030\005\220\003"
 125      61AE8160 
 125      1087B941 
 125      18059003 
 126 005a 18113698 		.ascii	"\030\0216\230\303,\020c\264\337\373^wOwO\367L\267\210"
 126      C32C1063 
 126      B4DFFB5E 
 126      774F774F 
 126      F74CB788 
 127 006e 77AADE9B 		.ascii	"w\252\336\233\236\356\367\375\336w\277\253\207'<Y\317"
 127      9EEEF7FD 
 127      DE77BFAB 
 127      87273C59 
 127      CF
 128 007f 11D2039F 		.ascii	"\021\322\003\237]?&\344\277\013\010\361\021B^\201\022"
 128      5D3F26E4 
 128      BF0B08F1 
 128      11425E81 
 128      12
 129 0090 84B208CA 		.ascii	"\204\262\010\312b(\313\240,\207\022\200\262\022\312"
 129      6228CBA0 
 129      2C871280 
 129      B212CA
 130 009f 6AC23E61 		.ascii	"j\302>a(\033\241l\205\222\206r\000\312\247P\216By\033"
 130      281BA16C 
 130      85928672 
 130      00CAA750 
 130      8E42791B 
 131 00b3 706BA0D4 		.ascii	"pk\240\324A\001X\362.|7B\231\017\245\033\312U(>\236"
 131      410158F2 
 131      2E7C3742 
 131      990FA51B 
 131      CA55283E 
 132 00c8 983E14E7 		.ascii	"\230>\024\347o\240\234\200\322\027J\221\332\347\253"
 132      6FA09C80 
 132      D2174A91 
 132      DAE7AB
 133 00d7 2A3F1467 		.ascii	"*?\024g\011\224n\225\207\"\240o\006\234&(\217\300\265"
 133      09946E95 
 133      8722A06F 
 133      069C2628 
 133      8FC0B5
 134 00ea 1FEE2D85 		.ascii	"\037\356-\205\353\005P\372\302\357\223\360\273\037\317"
 134      EB0550FA 
 134      C2EF93F0 
 134      BB1FCF
 135 00f9 789E0CF7 		.ascii	"x\236\014\367\256@\351\017\277\007@Q\340\372Q\370>\006"
 135      AE40E90F 
 135      BF074051 
 135      E0FA51F8 
 135      3E06
ARM GAS  /tmp/cc2MVQ1V.s 			page 10


 136 010b CF1E83EF 		.ascii	"\317\036\203\357C\360}\033\356m\203\357\307\371l\331"
 136      43F07D1B 
 136      EE6D83EF 
 136      C7F96CD9 
 137 011b 7712A69B 		.ascii	"w\022\246\233%\320f\015\224\313p\335G\345y \264\037"
 137      25D0660D 
 137      94CB70DD 
 137      47E57920 
 137      B41F
 138 012d CC337937 		.ascii	"\3143y7\252\262\037Uuq@\325M\300F\007C,\362oT\373x\222"
 138      AAB21F55 
 138      757140D5 
 138      4DC04607 
 138      432CF26F 
 139 0145 67F2D573 		.ascii	"g\362\325s\354>\257>\243\272\244\2676\233\311H!yGQj"
 139      EC3EAF3E 
 139      A3BAA4B7 
 139      369BC948 
 139      21794751 
 140 015a 9454ADF2 		.ascii	"\224T\255\362\317\355}\007\220:\005>\305M}\303d:\275"
 140      CFED7D07 
 140      903A053E 
 140      C54D7DC3 
 140      643ABD
 141 016d DDF59E32 		.ascii	"\335\365\2362h\020!or\002\007\267BxQ\024F\240\357\221"
 141      6810216F 
 141      720207B7 
 141      42785114 
 141      46A0EF91 
 142 0181 A5D014DA 		.ascii	"\245\320\024\332\363\002\267\204\013CG<Gl?\3549\375"
 142      F302B784 
 142      0B43473C 
 142      476C3FEC 
 142      39FD
 143 0193 507276AD 		.ascii	"Prv\255]\365p:\372\263\032z@\245Z\314\015P]e:\345\212"
 143      5DF5703A 
 143      FAB31A7A 
 143      40A55ACC 
 143      0D505D65 
 144 01aa B1882D54 		.ascii	"\261\210-T\212b\215\302\257R\264\031\372)\012g.\374"
 144      8A628DC2 
 144      AF52B419 
 144      FA290A67 
 144      2EFC
 145 01bc 2A274E74 		.ascii	"*'Nt\213\270\302<\372`\334\252\364\3239\015`\200\012"
 145      8BB8C23C 
 145      FA60DCAA 
 145      F4D3390D 
 145      60800A
 146 01cf B0DC33AB 		.ascii	"\260\3343\253+\034X\355\237\207\325e\016\254>A\336U"
 146      2B1C58ED 
 146      9F87D565 
 146      0EAC3E41 
 146      DE55
 147 01e1 7B563859 		.ascii	"{V8Y\340^\031\350\210\260\212{\002\257|\350\033p\343"
 147      E05E19E8 
 147      88B08A7B 
ARM GAS  /tmp/cc2MVQ1V.s 			page 11


 147      02AF7CE8 
 147      1B70E3
 148 01f4 D542A87E 		.ascii	"\325B\250~\346\323\355\345D\270\022\272~\216\254`V\377"
 148      E6D3EDE5 
 148      44B812BA 
 148      7E8EAC60 
 148      56FF
 149 0206 838DB14D 		.ascii	"\203\215\261M\322\333\343\240\327\324um[\372\253\037"
 149      D2DBE3A0 
 149      D7D4756D 
 149      5BFAAB1F 
 150 0216 2B4A48E0 		.ascii	"+JH\340V\243\347\274\306\001\374\373\334s^qR\255{\006"
 150      56A3E7BC 
 150      C601FCFB 
 150      DC735E71 
 150      52AD7B06 
 151 022a 2A7E815B 		.ascii	"*~\201[\213(b/Q\272\266\354\3358\002\271Y\2178-\234"
 151      8B28622F 
 151      51BAB6EC 
 151      DD3802B9 
 151      598F382D 
 152 023f 1948E00A 		.ascii	"\031H\340\012\302f\177\206\337Z\003\212\006?iOwi.\344"
 152      C2667F86 
 152      DF5A038A 
 152      063F694F 
 152      77692EE4 
 153 0253 DE56EFD0 		.ascii	"\336V\357\320\037A\362\377N\3674Y\250\244\257w\265\314"
 153      1F41F2FF 
 153      4EF73459 
 153      A8A4AF77 
 153      B5CC
 154 0265 FC6850B3 		.ascii	"\374hP\263\222\236\242\364\364\274\255\332\234'G-\202"
 154      929EA2F4 
 154      F4BCADDA 
 154      9C27472D 
 154      82
 155 0276 7D972C51 		.ascii	"}\227,Q\224\006e\235\242\204\321\013xr\026[l\344\236"
 155      9406659D 
 155      A284D10B 
 155      7872165B 
 155      6CE49E
 156 0289 B6551736 		.ascii	"\266U\0276\"4\317\276G\373W\226+>\3644\242\322\230x"
 156      2234CFBE 
 156      47FB5796 
 156      2B3EF434 
 156      A2D29878 
 157 029d DEC49932 		.ascii	"\336\304\2312\024\343+\275y\317o\006+\251\232tO\317"
 157      14E32BBD 
 157      79CF6F06 
 157      2BA99A74 
 157      4FCF
 158 02af ABC4BDCB 		.ascii	"\253\304\275\313nS]6\343\246<9o\021\306\236\255\255"
 158      6E535D36 
 158      E3A63C39 
 158      6F11C69E 
 158      ADAD
 159 02c1 56B6B667 		.ascii	"V\266\266g\263\325U\327\365\331\341\3135\\\375\344T"
ARM GAS  /tmp/cc2MVQ1V.s 			page 12


 159      B3D555D7 
 159      F5D9E1CB 
 159      355CFDE4 
 159      54
 160 02d2 BB72BDA7 		.ascii	"\273r\275\247\247\237\231\263\020\231\206\251p\2522"
 160      A79F99B3 
 160      109986A9 
 160      70AA32
 161 02e1 89FB65FE 		.ascii	"\211\373e\376\\\270\213\013\001w3\235\223!m@TK\262k"
 161      5CB88B0B 
 161      0177339D 
 161      93216D40 
 161      544BB26B 
 162 02f5 ED8A738E 		.ascii	"\355\212s\216\275\235\346\2405\205\276)7eQ\356\311$"
 162      BD9DE6A0 
 162      3585BE29 
 162      376551EE 
 162      C924
 163 0307 0C3B623D 		.ascii	"\014;b=\321\247\0075\365\265\227N\340\226r\337s\233"
 163      D1A70735 
 163      F5B5974E 
 163      E09672DF 
 163      739B
 164 0319 C5B3FA6F 		.ascii	"\305\263\372o\317\364o\262 \032\261\236\267\032\221"
 164      CFF46FB2 
 164      201AB19E 
 164      B71A91
 165 0328 35DA6F6B 		.ascii	"5\332ok\245\326\343\027\205fe\227\346\324\333\320\251"
 165      A5D6E317 
 165      85666597 
 165      E6D4DBD0 
 165      A9
 166 0339 0F38401C 		.ascii	"\0178@\034\2647\364\254/\035\015\235\323\005\017Y\263"
 166      B437F4AC 
 166      2F1D0D9D 
 166      D3050F59 
 166      B3
 167 034a 2695DB22 		.ascii	"&\225\333\"\315Y\007V\216\330\262\362q\343\216\301\312"
 167      CD590756 
 167      8ED8B2F2 
 167      71E38EC1 
 167      CA
 168 035b 22AFA170 		.ascii	"\"\257\241p,\207#<J\352q\2702\244\273\224_\003\370'"
 168      2C87233C 
 168      4AEA71B8 
 168      32A4BB94 
 168      5F03F827 
 169 036f A2E7BBD6 		.ascii	"\242\347\273\3263;~\204\371\356$\367(\300\264\371\314"
 169      333B7E84 
 169      F9EE24F7 
 169      28C0B4F9 
 169      CC
 170 0380 6CE785E1 		.ascii	"l\347\205\341\311\032$9\015\344\214\220\005@\327\255"
 170      C91A2439 
 170      0DE48C90 
 170      0540D7AD 
 171 0390 96B335DC 		.ascii	"\226\2635\334$\220\201=#6\332P?\317\220\024\020\244"
ARM GAS  /tmp/cc2MVQ1V.s 			page 13


 171      2490813D 
 171      2336DA50 
 171      3FCF9014 
 171      10A4
 172 03a2 EFEC9FCF 		.ascii	"\357\354\237\317)\251]\234M\227#\265\036C\006\306\347"
 172      29A95D9C 
 172      4D9723B5 
 172      1E4306C6 
 172      E7
 173 03b3 9DA8E7A6 		.ascii	"\235\250\347\246 \376\357\221\365\023\366\254\247F:"
 173      20FEEF91 
 173      F513F6AC 
 173      A7463A
 174 03c2 01F1E422 		.ascii	"\001\361\344\"\222\234\317b\275\363\260\306\372y\027"
 174      929CCF62 
 174      BDF3B0C6 
 174      FA7917
 175 03d1 ACD7A48F 		.ascii	"\254\327\244\217\276\263`0e]\340Np4u\336\326q\355L\247"
 175      BEB36030 
 175      655DE04E 
 175      703475DE 
 175      D671ED4C 
 176 03e6 0FF384E8 		.ascii	"\017\363\204\350\214\231\361\216\355/\252\0234\260?"
 176      8C99F18E 
 176      ED2FAA13 
 176      34B03F
 177 03f5 7B062BB6 		.ascii	"{\006+\266cUs\300\214\264\002\3679\306\362\037\270g"
 177      635573C0 
 177      8CB402F7 
 177      39C6F21F 
 177      B867
 178 0407 A0BE08B5 		.ascii	"\240\276\010\265\376\341I\217nU;\325\345\027\341\336"
 178      FEE1498F 
 178      6E553BD5 
 178      E517E1DE 
 179 0417 FEF9A812 		.ascii	"\376\371\250\0225\247\270\231\007\244\324y@7\216\274"
 179      35A7B899 
 179      07A4D479 
 179      40378EBC 
 180 0427 53FD3643 		.ascii	"S\3756C\270+\240\326\332Ovr5h\276\253\010\365\353^C"
 180      B82BA0D6 
 180      DA4F7672 
 180      3568BEAB 
 180      08F5EB5E 
 181 043c 6D99B6F5 		.ascii	"m\231\266\365\207\310\3235\004\232\353\267\316\006\202"
 181      87C8D335 
 181      049AEBB7 
 181      CE0682
 182 044b 96D940D0 		.ascii	"\226\331@\320<:\007\303\231\013:(\367#\337rs\236,\362"
 182      3C3A07C3 
 182      990B3A28 
 182      F723DF72 
 182      739E2CF2 
 183 045f 5B0C67E7 		.ascii	"[\014g\347.\231Q\307b8\245\353f\3479\236\316\026|Z\374"
 183      2E9951C7 
 183      6238A5EB 
 183      66E7399E 
ARM GAS  /tmp/cc2MVQ1V.s 			page 14


 183      CE167C5A 
 184 0474 1438E908 		.ascii	"\0248\351\010\262\005\366u\313\032?\035\027\332\377"
 184      B205F675 
 184      CB1A3F1D 
 184      17DAFF
 185 0483 B64951FA 		.ascii	"\266IQ\372\263G\371\303\347\243\375\215\350+y\023\030"
 185      B347F9C3 
 185      E7A3FD8D 
 185      E82B7913 
 185      18
 186 0494 AF75FF5D 		.ascii	"\257u\377]\354\276\003\273\277k\355\276\361r\373\277"
 186      ECBE03BB 
 186      BF6BEDBE 
 186      F172FBBF 
 187 04a4 B1EEEFBA 		.ascii	"\261\356\357\272\352~s\307\234\354\356\035\023\257\352"
 187      EA7E73C7 
 187      9CECEE1D 
 187      13AFEA
 188 04b3 191D17BA 		.ascii	"\031\035\027\272\207\264b'\3671Jg\006\254\256\361\252"
 188      87B46227 
 188      F7314A67 
 188      06ACAEF1 
 188      AA
 189 04c4 71ACD3A6 		.ascii	"q\254\323\246\326z\003\236\314\011h\334\367*I\200\230"
 189      D67A039E 
 189      CC0968DC 
 189      F72A4980 
 189      98
 190 04d5 DDFFBE02 		.ascii	"\335\377\276\002\346k3\0124\036\032=#\026\233\024\261"
 190      E66B330A 
 190      341E1A3D 
 190      23169B14 
 190      B1
 191 04e6 B503D30E 		.ascii	"\265\003\323\016\003\233\347\006\314\321\217j\322\333"
 191      039BE706 
 191      CCD18F6A 
 191      D2DB
 192 04f4 8D600B3C 		.ascii	"\215`\013<\203\2319;b\004K\271\001\353\357\314\3311"
 192      8399393B 
 192      62044BB9 
 192      01EBEFCC 
 192      D931
 193 0506 23D812CF 		.ascii	"#\330\022\317`f\316N\030\301\332\334\200\015r\346\354"
 193      6066CE4E 
 193      18C1DADC 
 193      800D72E6 
 193      EC
 194 0517 94116CA5 		.ascii	"\224\021l\245g03g\247\215`\253\335\200\025\333p\246"
 194      67303367 
 194      A78D60AB 
 194      DD8015DB 
 194      70A6
 195 0529 7F9C2621 		.ascii	"\177\234&!w2s:\236\254\015h\011\301\243O\223\014\306"
 195      7732733A 
 195      9EAC0D68 
 195      09C1A34F 
 195      930CC6
ARM GAS  /tmp/cc2MVQ1V.s 			page 15


 196 053c FA80D704 		.ascii	"\372\200\327\004f\222\033F\357\363\213\271\331\223\225"
 196      66921B46 
 196      EFF38BB9 
 196      D99395
 197 054b F661DA08 		.ascii	"\366a\332\010\272\311\015b\016\207\251;`\030\216\267"
 197      BAC90D62 
 197      0E87A93B 
 197      60188EB7 
 198 055b 7B06339B 		.ascii	"{\0063\233e!\003kG\260\335n\300r8\314\021\012f7\207"
 198      6521036B 
 198      47B0DD6E 
 198      C07238CC 
 198      110A6637 
 199 0570 4FD72AD3 		.ascii	"O\327*\323\271Ik\207\344\234BA\016{r%\346\260y<\035"
 199      B9496B87 
 199      E49C4241 
 199      0E7B7225 
 199      E6B0793C 
 200 0585 DEF6056C 		.ascii	"\336\366\005l\307IWX\255\265\207\265Aw\001\202\235\350"
 200      C7495758 
 200      ADB587B5 
 200      41770182 
 200      9DE8
 201 0597 3D586ACB 		.ascii	"=Xj\313\336!t)\237B\240\263Y\2315l\031t\303\346a1\034"
 201      DE217429 
 201      9F42A0B3 
 201      5999356C 
 201      1974C3E6 
 202 05ae CE5CF468 		.ascii	"\316\\\364h\037\363\022\354[\245q\212\224f\336\020)"
 202      1FF312EC 
 202      5BA5718A 
 202      9466DE10 
 202      29
 203 05bf DD9E2D6F 		.ascii	"\335\236-o\366\362\233\235\377\3137*\351I>\303\356\234"
 203      F6F29B9D 
 203      FFCB372A 
 203      E9493EC3 
 203      EE9C
 204 05d1 D3A24D9B 		.ascii	"\323\242M\233`}u\325\207\223\231\367P\257_\332\033\310"
 204      607D75D5 
 204      879399F7 
 204      50AF5FDA 
 204      1BC8
 205 05e3 05506BED 		.ascii	"\005Pk\355\373?@\240\345\010t\267\327@[\246-d\233-\253"
 205      FB3F40A0 
 205      E50874B7 
 205      D7405BA6 
 205      2D649B2D 
 206 05f8 104829B0 		.ascii	"\020H)\260Z\232\263X\2323[@_x\252\353\316o\253-O\336"
 206      5A9AB358 
 206      9A335B40 
 206      5F78AAEB 
 206      CE6FAB2D 
 207 060e 29B098CB 		.ascii	")\260\230\313$N\216\374\251'\245\373\015\334\255\032"
 207      244E8EFC 
 207      A927A5FB 
 207      0DDCAD1A 
ARM GAS  /tmp/cc2MVQ1V.s 			page 16


 208 061e A5699807 		.ascii	"\245i\230\007{]W\355\365\001j\247.K;T\375\336\304h\362"
 208      7B5D57ED 
 208      F5016AA7 
 208      2E4B3B54 
 208      FDDEC468 
 209 0633 2C46C82C 		.ascii	",F\310,FK\217w1\356\252b|\204b,\374\013\210\321\346"
 209      464B8F77 
 209      31EEAA62 
 209      7C84622C 
 209      FC0B88D1 
 210 0648 598CFE06 		.ascii	"Y\214\376\0061p\2017\207\015\021\217\221\206\334\223"
 210      31708137 
 210      870D118F 
 210      9186DC93 
 211 0658 5CCACFC7 		.ascii	"\\\312\317\307\374c\246\031f\372\344!\256\230\335\316"
 211      FC63A619 
 211      66FAE421 
 211      AE98DDCE 
 212 0668 BFACBD75 		.ascii	"\277\254\275uh\276\2726d\373\233\253\220wJ\333\233i"
 212      68BEBA36 
 212      64FB9BAB 
 212      90774ADB 
 212      9B69
 213 067a 9F92AE3B 		.ascii	"\237\222\256;\214\343\007\003[\367P`5\351\326Y\332\302"
 213      8CE30703 
 213      5BF75060 
 213      35E9D659 
 213      DAC2
 214 068c 15B7FCB6 		.ascii	"\025\267\374\266<$\334\326\303\326\341\3102\247>\351"
 214      3C24DCD6 
 214      C3D6E1C8 
 214      32A73EE9 
 215 069c 90EFF435 		.ascii	"\220\357\3645\375\036m\020\331\315S\206ve9\313\011\316"
 215      FD1E6D10 
 215      D9CD5386 
 215      766539CB 
 215      09CE
 216 06ae 32ADA637 		.ascii	"2\255\2467\014M\234l\370;c\362=\371p6\000\377\271=["
 216      0C4D9C6C 
 216      F83B63F2 
 216      3DF97036 
 216      00FFB93D 
 217 06c3 9B623043 		.ascii	"\233b0Ct>\244\346\356\251\206\310\267\004\372\205\206"
 217      743EA4E6 
 217      EEA986C8 
 217      B704FA85 
 217      86
 218 06d4 5584825C 		.ascii	"U\204\202\\\300n\017\362\226\025\320\321;]\265\252\036"
 218      C06E0FF2 
 218      9615D0D1 
 218      3B5DB5AA 
 218      1E
 219 06e5 E9B3FC4E 		.ascii	"\351\263\374N\332y)\2544\024\261\235\024\201\373\202"
 219      DA7929AC 
 219      3414B19D 
 219      1481FB82 
 220 06f5 E35554BB 		.ascii	"\343UT\2731:\277\213\236\023\333\207y\330\377_\257\256"
ARM GAS  /tmp/cc2MVQ1V.s 			page 17


 220      313ABF8B 
 220      9E13DB87 
 220      79D8FF5F 
 220      AFAE
 221 0707 FB8F627E 		.ascii	"\373\217b~x'h5\371Z\353(\340a\013\034\322f\2203\013"
 221      78276835 
 221      F95AEB28 
 221      E0610B1C 
 221      D2669033 
 222 071c E3761DA3 		.ascii	"\343v\035\243\177\234\\\352\200\321\245\346\004\037"
 222      7F9C5CEA 
 222      80D1A5E6 
 222      041F
 223 072a CA01C0A5 		.ascii	"\312\001\300\245\366,e.\225\317\005\024\375\304\251"
 223      F62C652E 
 223      95CF0514 
 223      FDC4A9
 224 0739 3FF6DC82 		.ascii	"?\366\334\202=\237\266\372@\363\327\355\323\264\375"
 224      3D9FB6FA 
 224      40F3D7ED 
 224      D3B4FD
 225 0748 37573E70 		.ascii	"7W>p\333\306\007N\367\322\007\300\241\257\354\343\020"
 225      DBC6074E 
 225      F7D207C0 
 225      A1AFECE3 
 225      10
 226 0759 4E9D35EB 		.ascii	"N\2355\353Lz\264\202\012w_\364\252\030\346]\351\317"
 226      4C7AB482 
 226      0A775FF4 
 226      AA18E65D 
 226      E9CF
 227 076b 2ED154DD 		.ascii	".\321T\335\305\323\035\302\335Y\256\3054cp\255\214\032"
 227      C5D31DC2 
 227      DD59AEC5 
 227      346370AD 
 227      8C1A
 228 077d 05EE0C4F 		.ascii	"\005\356\014Ow\307:y\272;\366{\254\317\361\206=2'\267"
 228      77C73A79 
 228      BA3BF67B 
 228      ACCFF186 
 228      3D3227B7 
 229 0791 389F710B 		.ascii	"8\237q\013\201\273`U\243\333\305L\336n:\214\336w\360"
 229      81BB6055 
 229      A3DBC54C 
 229      DE6E3A8C 
 229      DE77F0
 230 07a4 21BDEF66 		.ascii	"!\275\357f\347!?n\372x\330\256\373\255\032\266\2270"
 230      E7213F6E 
 230      FA78D8AE 
 230      FBAD1AB6 
 230      9730
 231 07b6 6C8F67E9 		.ascii	"l\217g\351\366\2525l\335\354^\235\357\255 \372\207'"
 231      F6AA356C 
 231      DDEC5E9D 
 231      EFAD20FA 
 231      8727
 232 07c8 5F045D4C 		.ascii	"_\004]L\255\213mt"
ARM GAS  /tmp/cc2MVQ1V.s 			page 18


 232      AD8B6D74 
 233 07d0 AE65F796 		.ascii	"\256e\367\226S\352\354 \357\026\230\276\211~p\222\272"
 233      53EAEC20 
 233      EF1698BE 
 233      897E7092 
 233      BA
 234 07e1 177D153D 		.ascii	"\027}\025=\255\333\242\015\027{iw\220\344\2325\214o"
 234      ADDBA20D 
 234      177B6977 
 234      90E49A35 
 234      8C6F
 235 07f3 B51CD4F6 		.ascii	"\265\034\324\366\242\257\271\010\343\232\364\207\246"
 235      A2AFB908 
 235      E39AF487 
 235      A6
 236 0800 BD68CD03 		.ascii	"\275h\315\003\257\345\366\300\234\0325\031\361\232!"
 236      AFE5F6C0 
 236      9C1A3519 
 236      F19A21
 237 080f 40AE6380 		.ascii	"@\256c\200\3340\006\005O\246\205\\h\377Y'W\2044t\214"
 237      DC300605 
 237      4FA6855C 
 237      68FF5927 
 237      57843474 
 238 0824 1D0368DB 		.ascii	"\035\003h\333\372\263\254xv\211\310\204g\264&,\336\217"
 238      FAB3AC78 
 238      7689C884 
 238      67B4262C 
 238      DE8F
 239 0836 E37C8979 		.ascii	"\343|\211yi\223\033\346\2069\203\265\316\326\224\333"
 239      69931BE6 
 239      863983B5 
 239      CED694DB 
 240 0846 81F39345 		.ascii	"\201\363\223En\360F8\011[\223\336x\\\233\034\262M\357"
 240      6EF04638 
 240      095B93DE 
 240      785C9B1C 
 240      B24DEF
 241 0859 159EF1CC 		.ascii	"\025\236\361\314\374\235\234m\232\317\255s\0037\322"
 241      FC9D9C6D 
 241      9ACFAD73 
 241      0337D2
 242 0868 B5ED3367 		.ascii	"\265\3553g<\220\034\361\350\240\023\217\016.c}\023\353"
 242      3C901CF1 
 242      E8A0138F 
 242      0E2E637D 
 242      13EB
 243 087a 064C9473 		.ascii	"\006L\224s\260\236\213u\023\326K\261^\203\365z\2547"
 243      B09E8B75 
 243      13D64BB1 
 243      5E83F57A 
 243      AC37
 244 088c 63FD47AC 		.ascii	"c\375G\254oa}\033\353;X\337\303\372k7\011\3272\003\324"
 244      6F617D1B 
 244      EB3B58DF 
 244      C3FA6B37 
 244      09D73203 
ARM GAS  /tmp/cc2MVQ1V.s 			page 19


 245 08a1 4FE556B3 		.ascii	"O\345V\263\004d9\230\333\024\262?\230{\300\333\035\314"
 245      04643998 
 245      DB14B23F 
 245      987BC0DB 
 245      1DCC
 246 08b3 6DE9D8FE 		.ascii	"m\351\330\376\224~\314h9\231\243\375:\361\244\370\262"
 246      947ECC68 
 246      3999A3FD 
 246      3AF1A4F8 
 246      B2
 247 08c4 4FA93F71 		.ascii	"O\251?q\350y\222\317\256\347\035m\237\275\262`\2352"
 247      E87992CF 
 247      AEE71D6D 
 247      9FBDB260 
 247      9D32
 248 08d6 6586F2A0 		.ascii	"e\206\362\240\347m\316C\327\223}\331\357t\250\327\036"
 248      E76DCE43 
 248      D7937DD9 
 248      EF74A8D7 
 248      1E
 249 08e7 0E3E967D 		.ascii	"\016>\226}\376\2435\2705T\353\243\216\231\012[\323{"
 249      FEA335B8 
 249      3554EBA3 
 249      8E990A5B 
 249      D37B
 250 08f9 C092DD03 		.ascii	"\300\222\335\003\346\354\036\010g.2G\031:O\335\3146"
 250      E6EC1E08 
 250      672E3247 
 250      193A4FDD 
 250      CC36
 251 090b F647D8F4 		.ascii	"\366G\330\364\015\205\034\274\355h\3339h9\3626\323G"
 251      0D851CBC 
 251      ED68DB39 
 251      6839F236 
 251      D347
 252 091d BD7C5916 		.ascii	"\275|Y\026o+\255\213\204\225f\027\261h'\333I\326\204"
 252      6F2BAD8B 
 252      84956617 
 252      B16827DB 
 252      49D684
 253 0930 ED4D35CB 		.ascii	"\355M5\313\326T[\032\267\017vr\222\3259\216\343\353"
 253      D6545B1A 
 253      B70F7672 
 253      92D5398E 
 253      E3EB
 254 0942 AD96A266 		.ascii	"\255\226\242f\315\343\276;\0358\233c\346\354\257\311"
 254      CDE3BE3B 
 254      1D389B63 
 254      E6ECAFC9 
 255 0952 2225D5D0 		.ascii	"\"%\325\320\365\331\254\363\015\\\003=\342V\32209~\032"
 255      F5D9ACF3 
 255      0D5C033D 
 255      E256D230 
 255      397E1A
 256 0965 CDC19303 		.ascii	"\315\301\223\003:\210\023ks3p\024\352\003z\340~n\022"
 256      3A88136B 
 256      73337014 
ARM GAS  /tmp/cc2MVQ1V.s 			page 20


 256      EA037AE0 
 256      7E6E12
 257 0978 375BD1A1 		.ascii	"7[\321\241\264\367\241\014k\274t\256s\223\354#\020\265"
 257      B4F7A10C 
 257      6BBC74AE 
 257      7393EC23 
 257      10B5
 258 098a 554A9FB6 		.ascii	"UJ\237\266=\216\2673\300H\340\320J\340\346\371\2647"
 258      3D8EB733 
 258      C048E0D0 
 258      4AE0E6F9 
 258      B437
 259 099c AEDA8C33 		.ascii	"\256\332\2143\015\303OX\350Y\005\315\206i1K\012\346"
 259      0DC34F58 
 259      E85905CD 
 259      8669314B 
 259      0AE6
 260 09ae BCD57272 		.ascii	"\274\325rr/\327\220\221\324n\252\031\324`\022\304\260"
 260      2FD79091 
 260      D46EAA19 
 260      D46012C4 
 260      B0
 261 09bf 7AFD6A11 		.ascii	"z\375j\0217\231m\201\372\350\320u:l;\013p\006\342\311"
 261      37996D81 
 261      FAE8D075 
 261      3A6C3B0B 
 261      7006E2C9 
 262 09d3 452449F9 		.ascii	"E$I\371\262f\001\347j\325Y\000}\226\1772_\337\351x\230"
 262      B26601E7 
 262      6AD55900 
 262      7D967F32 
 262      5FDFE978 
 263 09e8 DEA5AB60 		.ascii	"\336\245\253`\210\201\3673\035\237\253\274/E\336\257"
 263      8881F733 
 263      1D9FABBC 
 263      2F45DEAF 
 264 09f8 E5E7DD0C 		.ascii	"\345\347\335\014\304\223\257\221dY6\357\177\232\252"
 264      C493AF91 
 264      645936EF 
 264      7F9AAA
 265 0a07 F2BECC15 		.ascii	"\362\276\314\025\357\033;\2143\000m)Bi{\267\024\331"
 265      EF1B3B8C 
 265      33006D29 
 265      42697BB7 
 265      14D9
 266 0a19 C40E42BA 		.ascii	"\304\016B\272q[\351\206\025\314\323BD\321\316\310\330"
 266      715BE986 
 266      15CCD342 
 266      44D1CEC8 
 266      D8
 267 0a2a 99673DEF 		.ascii	"\231g=\357\025\254\330\304\331\361F\363\\m\266\033\274"
 267      15ACD8C4 
 267      D9F146F3 
 267      5C6DB61B 
 267      BC
 268 0a3b 1C0715EA 		.ascii	"\034\007\025\352a\024\003{\3273\230\231\2713\035\206"
 268      6114037B 
ARM GAS  /tmp/cc2MVQ1V.s 			page 21


 268      D7339899 
 268      B9331D86 
 269 0a4b 538F197D 		.ascii	"S\217\031}\270\374`v\007\025v\037\243\223\010\334\012"
 269      B8FC6076 
 269      0715761F 
 269      A39308DC 
 269      0A
 270 0a5c 1F9D49AC 		.ascii	"\037\235I\254\364\321\361~\025\326\277\305\372}\254"
 270      F4D1F17E 
 270      15D6BFC5 
 270      FA7DAC
 271 0a6b 5763BDC6 		.ascii	"Wc\275\306g\232c\326\367\321\242\304\326\025\363\271"
 271      679A63D6 
 271      F7D1A2C4 
 271      D615F3B9 
 272 0a7b 84926E76 		.ascii	"\204\222nv\016\017\323\016\213\036\331\227'qS\321\205"
 272      0E0FD30E 
 272      8B1ED997 
 272      277153D1 
 272      85
 273 0a8c 3FC4E868 		.ascii	"?\304\350h\354\2237:,;5\357#\305\206\254\340\350<\245"
 273      EC93373A 
 273      2C3B35EF 
 273      23C586AC 
 273      E0E83CA5 
 274 0aa0 05C70617 		.ascii	"\005\307\006\027\301Q\223>;\327\335F\2219\321\351Q~"
 274      C151933E 
 274      3BD7DD46 
 274      9139D1E9 
 274      517E
 275 0ab2 517B6766 		.ascii	"Q{gf\013\312\261;\277\034f \236\234@\222\355\331\202"
 275      0BCAB13B 
 275      BF1C6620 
 275      9E9C4092 
 275      EDD982
 276 0ac5 ECD104D9 		.ascii	"\354\321\004\331\356J\220\005s5\337\377\330\227Y\247"
 276      EE4A9005 
 276      7335DFFF 
 276      D89759A7 
 277 0ad5 6CCFED61 		.ascii	"l\317\355a\216&\255I/<\205\356\312\300.y\0063\373\376"
 277      8E26AD49 
 277      2F3C85EE 
 277      CAC02E79 
 277      0633FBFE 
 278 0ae9 DA53F307 		.ascii	"\332S\363\007)\251\235\332\333+J\255\362\354\362\214"
 278      29A99DDA 
 278      DB2B4AAD 
 278      F2ECF28C 
 279 0af9 4AFA6B08 		.ascii	"J\372k\010\274Q\265\033\236\303\345\360n\234/]\262("
 279      BC51B51B 
 279      9EC3E5F0 
 279      6E9C2F5D 
 279      B228
 280 0b0b D60350ED 		.ascii	"\326\003P\355\306\277C\240\275\010\364e\257\201\266"
 280      C6BF43A0 
 280      BD08F465 
 280      AF81B6
ARM GAS  /tmp/cc2MVQ1V.s 			page 22


 281 0b1a 4C5BC6DE 		.ascii	"L[\306\336]\331\217@w\373XgI>\313\014\316g\236\301\371"
 281      5DD98F40 
 281      77FB5867 
 281      493ECB0C 
 281      CE679EC1 
 282 0b2f C2998B9E 		.ascii	"\302\231\213\236\036\037\371\026\033\363dr!g6\230I\242"
 282      1E1FF916 
 282      1BF36472 
 282      21673698 
 282      49A2
 283 0b41 7C69996E 		.ascii	"|i\231n`\034\014\340\006\206\267\251d\353<\230\324\260"
 283      601C0CE0 
 283      0686B7A9 
 283      64EB3C98 
 283      D4B0
 284 0b53 8DD2C338 		.ascii	"\215\322\3038\227\234Q\350u.\311\223\006+\357\336F\001"
 284      979C51E8 
 284      752EC993 
 284      062BEFDE 
 284      4601
 285 0b65 089D4FDF 		.ascii	"\010\235O\337\323v\223q\331\326\350\006\320n\030\260"
 285      D3769371 
 285      D9D6E806 
 285      D06E18B0 
 286 0b75 FB186355 		.ascii	"\373\030cU\340\322\230lwbR\335\205\365\357\260>\204"
 286      E0D2986C 
 286      776252DD 
 286      85F5EFB0 
 286      3E84
 287 0b87 F5719F8B 		.ascii	"\365q\237\213\345\026\2150\035\233E\355\206^G\355\365"
 287      E5168D30 
 287      1D9B45ED 
 287      865E47ED 
 287      F5
 288 0b98 ECA8F502 		.ascii	"\354\250\365\002fRd\372\266\032\265,\010\005\356S\237"
 288      665264FA 
 288      B61AB52C 
 288      0805EE53 
 288      9F
 289 0ba9 05CF9B53 		.ascii	"\005\317\233S\245\3474\026\035\371\205\026\321-\205"
 289      A5E73416 
 289      1DF98516 
 289      D12D85
 290 0bb8 9C4730ED 		.ascii	"\234G0\355\365}[\243l0\030e\023\032e3\232\340$\326\247"
 290      F57D5BA3 
 290      6C301865 
 290      131A6533 
 290      9AE024D6 
 291 0bcd B0EE308F 		.ascii	"\260\3560\217zK\013-\243\236i\210\261\033\203\215\352"
 291      7A4B0B2D 
 291      A39E6988 
 291      B11B838D 
 291      EA
 292 0bde 51D21F74 		.ascii	"Q\322\037t\202\256\335oi\375I\333\322\352\304\241bU"
 292      82AEDD6F 
 292      69FD49DB 
 292      D2EAC4A1 
ARM GAS  /tmp/cc2MVQ1V.s 			page 23


 292      6255
 293 0bf0 A1ED5091 		.ascii	"\241\355P\221kK\353c$9\227=!|\240\015\025\347\362\017"
 293      6B4BEB63 
 293      2439973D 
 293      217CA00D 
 293      15E7F20F 
 294 0c04 155326A7 		.ascii	"\025S&\247\233\347\265e\306\274\311zl\357\313\261\264"
 294      9BE7B565 
 294      C6BCC97A 
 294      6CEFCBB1 
 294      B4
 295 0c15 6A37BE95 		.ascii	"j7\276\225\262_\347\303\243\223\332\233\356\234\301"
 295      B25FE7C3 
 295      A393DA9B 
 295      EE9CC1
 296 0c24 745D68BA 		.ascii	"t]h\272\317\315\206:a5\224\307-\260\315\235\332\004"
 296      CFCD863A 
 296      613594C7 
 296      2DB0CD9D 
 296      DA04
 297 0c36 98BD947B 		.ascii	"\230\275\224{\332\212g~\005\327\016\2608\227\000)\203"
 297      DA8A677E 
 297      05D70EB0 
 297      38970029 
 297      83
 298 0c47 008B5180 		.ascii	"\000\213Q\200%\350o\353\260>\203\365%\263H\027t\353"
 298      25E86FEB 
 298      B03E83F5 
 298      25B34817 
 298      74EB
 299 0c59 DB2E5C28 		.ascii	"\333.\\(\352e\363B*\005>4\373\334\"\343B\312\270\262"
 299      EA65F342 
 299      2A053E34 
 299      FBDC22E3 
 299      42CAB8B2 
 300 0c6d 33EC6064 		.ascii	"3\354`d\257\311\256d/\355x\362\205\225\205l\272?ZV\255"
 300      AFC9AE64 
 300      2FED78F2 
 300      8595856C 
 300      BA3F5A56 
 301 0c82 E9AE9699 		.ascii	"\351\256\226\231w\026\301\252U\261\260@_\0126-[5o\006"
 301      7716C1AA 
 301      55B1B040 
 301      5F0A362D 
 301      5B356F06 
 302 0c96 AFCC73A2 		.ascii	"\257\314s\242\000k\352O\206\303\270\232\367\000B\340"
 302      006BEA4F 
 302      86C3B89A 
 302      F70042E0 
 303 0ca6 BE04DDE6 		.ascii	"\276\004\335\346mF\033\336\260\204H\372k\261\230\335"
 303      6D461BDE 
 303      B08448FA 
 303      6BB198DD 
 304 0cb6 CD3F8FFA 		.ascii	"\315?\217\372\346\233vv\320\322\216\343R#\316\372o\364"
 304      E69B7676 
 304      D0D28EE3 
 304      5223CEFA 
ARM GAS  /tmp/cc2MVQ1V.s 			page 24


 304      6FF4
 305 0cc8 3A21F75C 		.ascii	":!\367\\A8\3130\272\315a\030\245\354\335\366Y\306\303"
 305      4138CB30 
 305      BACD6118 
 305      A5ECDDF6 
 305      59C6C3
 306 0cdb 6B68282F 		.ascii	"kh(/,\024\233X\250\333\203c\302m\034\220\277r\003\226"
 306      2C149B58 
 306      A8DB8363 
 306      C26D1C90 
 306      BF720396 
 307 0cef 23873718 		.ascii	"#\2077\030\301\276\361\014V\234\025<,lnb\330\334\302"
 307      C1BEF10C 
 307      569C153C 
 307      2C6C6E62 
 307      D8DCC2
 308 0d02 50F90AEB 		.ascii	"P\371\012\353;X\3373\207\315\324\"\353t\202\031\325"
 308      3B58DF33 
 308      87CDD422 
 308      EB748219 
 308      D5
 309 0d13 8097B13D 		.ascii	"\200\227\261=\311\217ho\003\213\261\2569\310G\361\357"
 309      C98F686F 
 309      038BB1AE 
 309      39C847F1 
 309      EF
 310 0d24 FB4CB399 		.ascii	"\373L\263\231\014\344H\263\370\2068aD\366\315\004\356"
 310      0CE448B3 
 310      F8863861 
 310      44F6CD04 
 310      EE
 311 0d35 1B9FD77F 		.ascii	"\033\237\327\177\273=\360\331\377\333\315\370NN\246"
 311      BB3DF0D9 
 311      FFDBCDF8 
 311      4E4EA6
 312 0d44 153DC12D 		.ascii	"\025=\301-\262\004~\026\023=\020\367O\221\305E\013\024"
 312      B2047E16 
 312      133D10F7 
 312      4F91C545 
 312      0B14
 313 0d56 76E745F2 		.ascii	"v\347E\362\2412=\015!\364?\300\235\356\026\377E\376"
 313      A1323D0D 
 313      21F43FC0 
 313      9DEE16FF 
 313      45FE
 314 0d68 AC34295D 		.ascii	"\2544)]-\007\356\014g2\321\034q\344Hz\355^\232na\026"
 314      2D07EE0C 
 314      6732D11C 
 314      71E4487A 
 314      ED5E9A6E 
 315 0d7e F8003204 		.ascii	"\370\0002\004S\037O\266Z;\315\216\332)~\336\320\333"
 315      531F4FB6 
 315      5A3BCD8E 
 315      DA297EDE 
 315      D0DB
 316 0d90 4846C94C 		.ascii	"HF\311L\310\272J\177\270\227s\363\037\302\345:\364@"
 316      C8BA4A7F 
ARM GAS  /tmp/cc2MVQ1V.s 			page 25


 316      B89773F3 
 316      1FC2E53A 
 316      F440
 317 0da2 157ABADF 		.ascii	"\025z\272\337\253Vg\370\355\265\372xN\317\021\270i~"
 317      AB5667F8 
 317      EDB5FA78 
 317      4ECF11B8 
 317      697E
 318 0db4 DD219E22 		.ascii	"\335!\236\"\373@\203M#3\3353O\244\024\267\321o\230O"
 318      FB40834D 
 318      2333DD33 
 318      4FA414B7 
 318      D16F984F 
 319 0dc8 1A7FDF53 		.ascii	"\032\177\337S\205\235\256\2447\005\265\\`\374\243\225"
 319      859DAEA4 
 319      3705B55C 
 319      60FCA395 
 320 0dd8 DA2F9350 		.ascii	"\332/\223P\363>\213\303\006\234\305\372\225\337\376"
 320      F33E8BC3 
 320      069CC5FA 
 320      95DFFE
 321 0de7 2F8E02D7 		.ascii	"/\216\002\327\2241m\026\325\257\035\251\026\344\210"
 321      94316D16 
 321      D5AF1DA9 
 321      16E488
 322 0df6 8DDF3852 		.ascii	"\215\3378R\321-u'\252Y\216TWrpX\347H\245\344\350\253"
 322      D12D7527 
 322      AA598E54 
 322      57727058 
 322      E748A5E4 
 323 0e0c DE91EA58 		.ascii	"\336\221\352X\216\004\335\340Hu(\007\325lG\252\2359"
 323      8E04DDE0 
 323      48752807 
 323      D56C47AA 
 323      9D39
 324 0e1e A8E664A8 		.ascii	"\250\346d\250\324\177\037\356h\3337z\015}M\235\236c"
 324      D47F1FEE 
 324      68DB377A 
 324      0D7D4D9D 
 324      9E63
 325 0e30 4C9AF29A 		.ascii	"L\232\362\232e\177\274;\307$n\256\337\346\257~\226\214"
 325      657FBC3B 
 325      C7246EAE 
 325      DFE6AF7E 
 325      968C
 326 0e42 AAFED5AF 		.ascii	"\252\376\325\257FY\267\234\376s\221\235+\010\334\273"
 326      4659B79C 
 326      FE73919D 
 326      2B08DCBB 
 327 0e52 7EFBBF2D 		.ascii	"~\373\277-\252x\215~\273?$\336;6_\375C\342\016\345\231"
 327      AA788D7E 
 327      BB3F24DE 
 327      3B365FFD 
 327      43E20EE5 
 328 0e67 1033054F 		.ascii	"\0203\005On\344\356\221\275\220$p\315\271{\234g\356"
 328      6EE4EE91 
 328      BD902470 
ARM GAS  /tmp/cc2MVQ1V.s 			page 26


 328      CDB97B9C 
 328      67EE
 329 0e79 F1FBA48D 		.ascii	"\361\373\244\215N\205[\016\334\037\320\\\027\312z\255"
 329      4E855B0E 
 329      DC1FD05C 
 329      17CA7AAD 
 330 0e89 294BE7F5 		.ascii	")K\347\3659\274bAF\347\304\037-\027\244\202\327\377"
 330      39BC6241 
 330      46E7C41F 
 330      2D17A482 
 330      D7FF
 331 0e9b E567C5A3 		.ascii	"\345g\305\243\310\013C\207\226\304\223%\321xUU<V\222"
 331      C80B4387 
 331      96C49325 
 331      D1785555 
 331      3C5692
 332 0eae 884B72B2 		.ascii	"\210Kr\262\344\265\237\214\0365z\002\275\227\250\250"
 332      E4B59F8C 
 332      1E357A02 
 332      BD97A8A8 
 333 0ebe 14A564C9 		.ascii	"\024\245d\311\353\243F\225D\313\345\211\01119\264\234"
 333      EBA34695 
 333      44CBE589 
 333      093139B4 
 333      9C
 334 0ecf 04AA9265 		.ascii	"\004\252\222e\021\371\311\222\352\244TR\021\213VV\227"
 334      11F9C992 
 334      EAA45452 
 334      118B5656 
 334      97
 335 0ee0 8A253171 		.ascii	"\212%1q|e\305\230\222\244\\Z\021\223\241M\020\276\376"
 335      7C65C598 
 335      92A45C5A 
 335      1193A14D 
 335      10BEFE
 336 0ef3 FE8588FC 		.ascii	"\376\205\210\374\274]\253*!Z^\021\023K\"\245\342X\241"
 336      BC5DAB2A 
 336      215A5E11 
 336      134B22A5 
 336      E258A1
 337 0f06 BA528E68 		.ascii	"\272R\216h\310\341HD\245\373\001\260%\213I\271D\222"
 337      C8E14844 
 337      A5FB01B0 
 337      258B49B9 
 337      4492
 338 0f18 4B92F16A 		.ascii	"K\222\361j)*\262\237\264\212$\305_V\213\261\250\030"
 338      292AB29F 
 338      B48A24C5 
 338      5F568BB1 
 338      A818
 339 0f2a 1936ECE5 		.ascii	"\0316\354\345\241QR\210\374\224K\242P:\234K<\216M\340"
 339      A1515288 
 339      FC944BA2 
 339      503A9C4B 
 339      3C8E4DE0 
 340 0f3e 0994E111 		.ascii	"\011\224\341\021q\202\030\255\226\305'48\332}\264<B"
 340      718218AD 
ARM GAS  /tmp/cc2MVQ1V.s 			page 27


 340      96C52734 
 340      38DA7DB4 
 340      3C42
 341 0f50 AFA92491 		.ascii	"\257\251$\221\177\214\307+\007\342\317\210\220L\212"
 341      7F8CC72B 
 341      07E2CF88 
 341      904C8A
 342 0f5f 5206FC3B 		.ascii	"R\006\374;\2718\220\342qJ?\000\177\214\027*d\265\377"
 342      B93890E2 
 342      714A3F00 
 342      7F8C172A 
 342      64B5FF
 343 0f72 643FBC23 		.ascii	"d?\274#V\321;\361\267\304\330`\246^\300\320t\020-\007"
 343      56D13BF1 
 343      B7C4D860 
 343      A65EC0D0 
 343      74102D07 
 344 0f86 7681F629 		.ascii	"v\201\366)\233'\311\211IM\025!\006\030\221\303\224]"
 344      9B27C989 
 344      494D1521 
 344      061891C3 
 344      945D
 345 0f98 BCFE2B3B 		.ascii	"\274\376+;\212hy)"
 345      8A687929 
 346 0fa0 B4EEA776 		.ascii	"\264\356\247v\037\001\336\253\305\210\334_'Ro\371c\342"
 346      1F01DEAB 
 346      C588DC5F 
 346      27526FF9 
 346      63E2
 347 0fb2 04D99F90 		.ascii	"\004\331\237\220\304q\001\374\035\224\023RE<\"\207\252"
 347      C47101FC 
 347      1D941352 
 347      453C2287 
 347      AA
 348 0fc3 5585F789 		.ascii	"U\205\367\211D\264K?}TD]!\022\215\307d \374N\016')\217"
 348      44B44B3F 
 348      7D54445D 
 348      21128DC7 
 348      6420FC4E 
 349 0fdb C6251158 		.ascii	"\306%\021X(D\002\200\210\312\023\276\237\257}d\334\313"
 349      28440280 
 349      88CA13BE 
 349      9FAF7D64 
 349      DCCB
 350 0fed 55544849 		.ascii	"UTHI,\023\244\252\210\314K/\362\322?\360\322K\274"
 350      2C13A4AA 
 350      88CC4B2F 
 350      F2D23FF0 
 350      D24BBC
 351 1000 F4322F8D 		.ascii	"\3642/\215\340\245\037\372\244\341\303\240\014\347+"
 351      E0A51FFA 
 351      A4E1C3A0 
 351      0CE72B
 352 100f 253E99F0 		.ascii	"%>\231\360\001h\000\274G\224\002\361\312RQ\362\307\204"
 352      016800BC 
 352      479402F1 
 352      CA5251F2 
ARM GAS  /tmp/cc2MVQ1V.s 			page 28


 352      C784
 353 1021 2AB14F52 		.ascii	"*\261OR~K\250\254(\213\251b\274\364\242.\006\275,\030"
 353      7E4BA8AC 
 353      288BA962 
 353      BCF4A22E 
 353      06BD2C18 
 354 1035 2F8C1192 		.ascii	"/\214\021\222bHN\312\202\014:\011\322\007#@\241\254"
 354      62484ECA 
 354      820C3A09 
 354      D2072340 
 354      A1AC
 355 1047 095C05F0 		.ascii	"\011\\\005\360IP\256\212\227\302\363\300\330J\241,\031"
 355      4950AE8A 
 355      97C2F3C0 
 355      D84AA12C 
 355      19
 356 1058 9425716C 		.ascii	"\224%ql\022\224@\277\012\244\322\211`\255\2208\241B"
 356      129440BF 
 356      0AA4D289 
 356      60AD9038 
 356      A142
 357 106a 8E42A382 		.ascii	"\216B\243\202\361r|\314\177$\036Um\003MD\011\035Q\016"
 357      F1727CCC 
 357      7F241E55 
 357      6D034D44 
 357      091D510E 
 358 107e 8C976529 		.ascii	"\214\227e)\021L\2121\031\010\212@\375I\261JH\224\203"
 358      114C8A31 
 358      19088A40 
 358      FD49B14A 
 358      489483
 359 1091 AC762E00 		.ascii	"\254v.\000\017\251\373Ec\340&>\250\001\030n%B@W\005"
 359      0FA9FB45 
 359      63E0263E 
 359      A801186E 
 359      25424057 
 360 10a6 EE3AC1D6 		.ascii	"\356:\301\326m\344\011\224&>>&JAlEe\224\341v\242P\034"
 360      6DE40994 
 360      263E3E26 
 360      4A416C45 
 360      6594E176 
 361 10bd 473B1692 		.ascii	"G;\026\222o\301-q<\275\340\252\373j\016PY\001.)\367"
 361      6FC12D71 
 361      3CBDE0AA 
 361      FB6A0E50 
 361      59012E29 
 362 10d2 33B804BD 		.ascii	"3\270\004\275\023\244n[\021+\013\001\277\350\022!1!"
 362      13A46E5B 
 362      112B0B01 
 362      BFE81221 
 362      3121
 363 10e4 C6207CCB 		.ascii	"\306 |\313\202\000I[\200u\204J\352\013\201\252\004\204"
 363      8200495B 
 363      8075844A 
 363      EA0B81AA 
 363      0484
 364 10f6 0908353A 		.ascii	"\011\0105:Y\366\023\261R\004\255\206\361\307\317\001"
ARM GAS  /tmp/cc2MVQ1V.s 			page 29


 364      59F613B1 
 364      5204AD86 
 364      F1C7CF01 
 365 1106 E2491B56 		.ascii	"\342I\033V\325~\200\335\0270\376i\324\225E\243%`\353"
 365      D57E80DD 
 365      1730FE69 
 365      D49545A3 
 365      2560EB
 366 1119 E763F198 		.ascii	"\347c\361\230\370\274(\214\251(yq\350\210\241/\350T"
 366      F8BC288C 
 366      A9287971 
 366      E888A12F 
 366      E854
 367 112b 903A201D 		.ascii	"\220: \035\000IA\262\342?\251\271\344\261\325\261hD"
 367      004941B2 
 367      E23FA9B9 
 367      E4B1D5B1 
 367      6844
 368 113d 1E102DFF 		.ascii	"\036\020-\377iy\351(\000\224\3057\300^\025Q\326\367"
 368      6979E928 
 368      0094C537 
 368      C05E1551 
 368      D6F7
 369 114f 1BC06C98 		.ascii	"\033\300l\230\245\003YL\360\343\205B\252t\010 \261\212"
 369      A503594C 
 369      F0E38542 
 369      AA740820 
 369      B18A
 370 1161 050DBB2E 		.ascii	"\005\015\273.\242\234LTu\360\010\334\316\374\016F\253"
 370      A29C4C54 
 370      75F008DC 
 370      CEFC0E46 
 370      AB
 371 1172 25309F1C 		.ascii	"%0\237\034\220\350\257\201\343*$\271Z\250\214\310\025"
 371      90E8AF81 
 371      E32A24B9 
 371      5AA88CC8 
 371      15
 372 1183 5590F354 		.ascii	"U\220\363T\212'\200\302\346A?\323=\026o\246[a\332;\\"
 372      8A2780C2 
 372      E6413FD3 
 372      3D166FA6 
 372      5B61DA3B 
 373 1198 A8AE39FC 		.ascii	"\250\2569\374%\3355\351e\240T\254\224\205\3208UD?\375"
 373      25DD35E9 
 373      65A054AC 
 373      9485D038 
 373      55443FFD 
 374 11ac F2250429 		.ascii	"\362%\004)T)$eJV0N\246\335\364U\345)\025\307T\2271\023"
 374      54292465 
 374      4A56304E 
 374      A6DDF455 
 374      E52915C7 
 375 11c4 1AEF8413 		.ascii	"\032\357\204\023B\254\"\032\001\003\372J\307\224\365"
 375      42AC221A 
 375      0103FA4A 
 375      C794F5
ARM GAS  /tmp/cc2MVQ1V.s 			page 30


 376 11d3 A912001E 		.ascii	"\251\022\000\0365\317G\313\203\252\015\002IQ\256N\204"
 376      35CF47CB 
 376      83AA0D02 
 376      4951AE4E 
 376      84
 377 11e4 6451904A 		.ascii	"dQ\220J\301u\202jB\354C5\027\005C\202\202\263r\352\340"
 377      C175826A 
 377      42EC4335 
 377      17054382 
 377      82B372EA 
 378 11f9 A152BC54 		.ascii	"\241R\274T\220\205\241YO\212\214\311u\340h1\231\024"
 378      9085A159 
 378      4F8A8CC9 
 378      75E06831 
 378      9914
 379 120b CAC464F1 		.ascii	"\312\304d\361\033\2424N\224\212+\343\361\004a\366z]"
 379      1BA2344E 
 379      948A2BE3 
 379      F10461F6 
 379      7A5D
 380 121d 94FF153C 		.ascii	"\224\377\025<G\252\220'\276\371\210v\347\015\261r\354"
 380      47AA9027 
 380      BEF98876 
 380      E70DB172 
 380      EC
 381 122e 9BFF07CF 		.ascii	"\233\377\007\317Y\350q"
 381      59E871
 382              		.text
 383              		.section	.gnu.lto_.symtab.2ce54cc7b95ac860,"",%progbits
 384 0000 74657374 		.ascii	"test_sequence_007\000\000\000\000\000\000\000\000\000"
 384      5F736571 
 384      75656E63 
 384      655F3030 
 384      37000000 
 385 001a 000000EB 		.ascii	"\000\000\000\353\001\000\000test_step\000\000\002\000"
 385      01000074 
 385      6573745F 
 385      73746570 
 385      00000200 
 386 002e 00000000 		.ascii	"\000\000\000\000\000\000\000\000\225\001\000\000wa\000"
 386      00000000 
 386      95010000 
 386      776100
 387 003d 00020000 		.ascii	"\000\002\000\000\000\000\000\000\000\000\000\227\001"
 387      00000000 
 387      00000097 
 387      01
 388 004a 00006368 		.ascii	"\000\000ch\000\000\002\000\000\000\000\000\000\000\000"
 388      00000200 
 388      00000000 
 388      000000
 389 0059 009C0100 		.ascii	"\000\234\001\000\000threads\000\000\002\000\000\000"
 389      00746872 
 389      65616473 
 389      00000200 
 389      0000
 390 006b 00000000 		.ascii	"\000\000\000\000\000\000\350\001\000\000_test_asser"
ARM GAS  /tmp/cc2MVQ1V.s 			page 31


 390      0000E801 
 390      00005F74 
 390      6573745F 
 390      61737365 
 391 0080 745F7365 		.ascii	"t_sequence\000\000\002\000\000\000\000\000\000\000\000"
 391      7175656E 
 391      63650000 
 391      02000000 
 391      00000000 
 392 0095 00C00000 		.ascii	"\000\300\000\000\000test_wait_threads\000\000\002\000"
 392      00746573 
 392      745F7761 
 392      69745F74 
 392      68726561 
 393 00af 00000000 		.ascii	"\000\000\000\000\000\000\000\000\313\000\000\000tes"
 393      00000000 
 393      CB000000 
 393      746573
 394 00be 745F656D 		.ascii	"t_emit_token\000\000\002\000\000\000\000\000\000\000"
 394      69745F74 
 394      6F6B656E 
 394      00000200 
 394      00000000 
 395 00d4 0000CD00 		.ascii	"\000\000\315\000\000\000chMsgRelease\000\000\002\000"
 395      00006368 
 395      4D736752 
 395      656C6561 
 395      73650000 
 396 00ea 00000000 		.ascii	"\000\000\000\000\000\000\000\000\321\000\000\000chM"
 396      00000000 
 396      D1000000 
 396      63684D
 397 00f9 73675761 		.ascii	"sgWait\000\000\002\000\000\000\000\000\000\000\000\000"
 397      69740000 
 397      02000000 
 397      00000000 
 397      0000
 398 010b 7F010000 		.ascii	"\177\001\000\000chThdCreateStatic\000\000\002\000\000"
 398      63685468 
 398      64437265 
 398      61746553 
 398      74617469 
 399 0125 00000000 		.ascii	"\000\000\000\000\000\000\000\202\001\000\000chMsgSe"
 399      00000082 
 399      01000063 
 399      684D7367 
 399      5365
 400 0137 6E640000 		.ascii	"nd\000\000\002\000\000\000\000\000\000\000\000\000\220"
 400      02000000 
 400      00000000 
 400      000090
 401 0146 010000   		.ascii	"\001\000\000"
 402              		.text
 403              		.section	.gnu.lto_.opts,"",%progbits
 404 0000 272D6D63 		.ascii	"'-mcpu=cortex-m3' '-mno-thumb-interwork' '-mthumb' "
 404      70753D63 
 404      6F727465 
ARM GAS  /tmp/cc2MVQ1V.s 			page 32


 404      782D6D33 
 404      2720272D 
 405 0033 272D6767 		.ascii	"'-ggdb' '-O2' '-fomit-frame-pointer' '-falign-funct"
 405      64622720 
 405      272D4F32 
 405      2720272D 
 405      666F6D69 
 406 0066 696F6E73 		.ascii	"ions=16' '-ffunction-sections' '-fdata-sections' '-"
 406      3D313627 
 406      20272D66 
 406      66756E63 
 406      74696F6E 
 407 0099 666E6F2D 		.ascii	"fno-common' '-flto'\000"
 407      636F6D6D 
 407      6F6E2720 
 407      272D666C 
 407      746F2700 
 408              		.text
 409              		.cfi_sections	.debug_frame
 410              		.section	.text.test_007_001_execute,"ax",%progbits
 411              		.align	2
 412              		.p2align 4,,15
 413              		.thumb
 414              		.thumb_func
 415              		.type	test_007_001_execute, %function
 416              	test_007_001_execute:
 417              	.LFB220:
 418              		.file 1 "../test/rt/source/test/test_sequence_007.c"
 419              		.loc 1 76 0
 420              		.cfi_startproc
 421              		@ args = 0, pretend = 0, frame = 0
 422              		@ frame_needed = 0, uses_anonymous_args = 0
 423 0000 30B5     		push	{r4, r5, lr}
 424              		.cfi_def_cfa_offset 12
 425              		.cfi_offset 4, -12
 426              		.cfi_offset 5, -8
 427              		.cfi_offset 14, -4
 428              	.LBB13:
 429              	.LBB14:
 430              	.LBB15:
 431              	.LBB16:
 432              		.file 2 "../os/rt/include/chthreads.h"
 433              		.loc 2 286 0
 434 0002 40F20003 		movw	r3, #:lower16:ch
 435 0006 C0F20003 		movt	r3, #:upper16:ch
 436 000a 9969     		ldr	r1, [r3, #24]
 437              	.LBE16:
 438              	.LBE15:
 439              	.LBE14:
 440              	.LBE13:
 441              		.loc 1 83 0
 442 000c 40F20003 		movw	r3, #:lower16:wa
 443 0010 8A68     		ldr	r2, [r1, #8]
 444 0012 C0F20003 		movt	r3, #:upper16:wa
 445              		.loc 1 81 0
 446 0016 40F20004 		movw	r4, #:lower16:test_step
 447 001a C0F20004 		movt	r4, #:upper16:test_step
ARM GAS  /tmp/cc2MVQ1V.s 			page 33


 448              		.loc 1 76 0
 449 001e 83B0     		sub	sp, sp, #12
 450              		.cfi_def_cfa_offset 24
 451              		.loc 1 83 0
 452 0020 1868     		ldr	r0, [r3]
 453              		.loc 1 81 0
 454 0022 0125     		movs	r5, #1
 455              		.loc 1 83 0
 456 0024 40F20003 		movw	r3, #:lower16:msg_thread1
 457 0028 0091     		str	r1, [sp]
 458 002a 0132     		adds	r2, r2, #1
 459 002c C0F20003 		movt	r3, #:upper16:msg_thread1
 460              		.loc 1 81 0
 461 0030 2560     		str	r5, [r4]
 462              		.loc 1 83 0
 463 0032 4FF4A471 		mov	r1, #328
 464 0036 FFF7FEFF 		bl	chThdCreateStatic
 465              	.LVL0:
 466 003a 40F20003 		movw	r3, #:lower16:threads
 467 003e C0F20003 		movt	r3, #:upper16:threads
 468              		.loc 1 89 0
 469 0042 0222     		movs	r2, #2
 470 0044 2260     		str	r2, [r4]
 471              	.LVL1:
 472              		.loc 1 83 0
 473 0046 1860     		str	r0, [r3]
 474              		.loc 1 89 0
 475 0048 0424     		movs	r4, #4
 476              	.LVL2:
 477              	.L3:
 478              	.LBB17:
 479              		.loc 1 94 0 discriminator 2
 480 004a FFF7FEFF 		bl	chMsgWait
 481              	.LVL3:
 482              	.LBE17:
 483              		.loc 1 77 0 discriminator 2
 484 004e 456A     		ldr	r5, [r0, #36]
 485              	.LVL4:
 486              	.LBB18:
 487              		.loc 1 96 0 discriminator 2
 488 0050 2946     		mov	r1, r5
 489 0052 FFF7FEFF 		bl	chMsgRelease
 490              	.LVL5:
 491              		.loc 1 97 0 discriminator 2
 492 0056 E8B2     		uxtb	r0, r5
 493 0058 FFF7FEFF 		bl	test_emit_token
 494              	.LVL6:
 495              		.loc 1 93 0 discriminator 2
 496 005c 013C     		subs	r4, r4, #1
 497              	.LVL7:
 498 005e F4D1     		bne	.L3
 499              		.loc 1 99 0
 500 0060 FFF7FEFF 		bl	test_wait_threads
 501              	.LVL8:
 502              		.loc 1 100 0
 503 0064 40F20000 		movw	r0, #:lower16:.LC0
 504 0068 40F20001 		movw	r1, #:lower16:.LC1
ARM GAS  /tmp/cc2MVQ1V.s 			page 34


 505 006c C0F20000 		movt	r0, #:upper16:.LC0
 506 0070 C0F20001 		movt	r1, #:upper16:.LC1
 507              	.LBE18:
 508              		.loc 1 102 0
 509 0074 03B0     		add	sp, sp, #12
 510              		@ sp needed
 511 0076 BDE83040 		pop	{r4, r5, lr}
 512              	.LVL9:
 513              	.LBB19:
 514              		.loc 1 100 0
 515 007a FFF7FEBF 		b	_test_assert_sequence
 516              	.LVL10:
 517              	.LBE19:
 518              		.cfi_endproc
 519              	.LFE220:
 520              		.size	test_007_001_execute, .-test_007_001_execute
 521 007e 00BF     		.section	.text.msg_thread1,"ax",%progbits
 522              		.align	2
 523              		.p2align 4,,15
 524              		.thumb
 525              		.thumb_func
 526              		.type	msg_thread1, %function
 527              	msg_thread1:
 528              	.LFB219:
 529              		.loc 1 50 0
 530              		.cfi_startproc
 531              		@ args = 0, pretend = 0, frame = 0
 532              		@ frame_needed = 0, uses_anonymous_args = 0
 533              	.LVL11:
 534 0000 10B5     		push	{r4, lr}
 535              		.cfi_def_cfa_offset 8
 536              		.cfi_offset 4, -8
 537              		.cfi_offset 14, -4
 538              		.loc 1 52 0
 539 0002 4121     		movs	r1, #65
 540              		.loc 1 50 0
 541 0004 0446     		mov	r4, r0
 542              		.loc 1 52 0
 543 0006 FFF7FEFF 		bl	chMsgSend
 544              	.LVL12:
 545              		.loc 1 53 0
 546 000a 2046     		mov	r0, r4
 547 000c 4221     		movs	r1, #66
 548 000e FFF7FEFF 		bl	chMsgSend
 549              	.LVL13:
 550              		.loc 1 54 0
 551 0012 2046     		mov	r0, r4
 552 0014 4321     		movs	r1, #67
 553 0016 FFF7FEFF 		bl	chMsgSend
 554              	.LVL14:
 555              		.loc 1 55 0
 556 001a 2046     		mov	r0, r4
 557 001c 4421     		movs	r1, #68
 558              		.loc 1 56 0
 559 001e BDE81040 		pop	{r4, lr}
 560              	.LVL15:
 561              		.loc 1 55 0
ARM GAS  /tmp/cc2MVQ1V.s 			page 35


 562 0022 FFF7FEBF 		b	chMsgSend
 563              	.LVL16:
 564              		.cfi_endproc
 565              	.LFE219:
 566              		.size	msg_thread1, .-msg_thread1
 567              		.global	test_sequence_007
 568 0026 00BFAFF3 		.section	.rodata.test_007_001,"a",%progbits
 568      0080AFF3 
 568      0080
 569              		.align	2
 570              		.type	test_007_001, %object
 571              		.size	test_007_001, 16
 572              	test_007_001:
 573 0000 1C000000 		.word	.LC2
 574 0004 00000000 		.word	0
 575 0008 00000000 		.word	0
 576 000c 00000000 		.word	test_007_001_execute
 577              		.section	.rodata.test_sequence_007,"a",%progbits
 578              		.align	2
 579              		.type	test_sequence_007, %object
 580              		.size	test_sequence_007, 8
 581              	test_sequence_007:
 582 0000 00000000 		.word	test_007_001
 583 0004 00000000 		.word	0
 584              		.section	.rodata.str1.4,"aMS",%progbits,1
 585              		.align	2
 586              	.LC0:
 587 0000 41424344 		.ascii	"ABCD\000"
 587      00
 588 0005 000000   		.space	3
 589              	.LC1:
 590 0008 696E7661 		.ascii	"invalid sequence\000"
 590      6C696420 
 590      73657175 
 590      656E6365 
 590      00
 591 0019 000000   		.space	3
 592              	.LC2:
 593 001c 4D657373 		.ascii	"Messages Server loop\000"
 593      61676573 
 593      20536572 
 593      76657220 
 593      6C6F6F70 
 594 0031 000000   		.text
 595              	.Letext0:
 596              		.file 3 "/usr/lib/gcc/arm-none-eabi/4.8.2/include/stddef.h"
 597              		.file 4 "/usr/include/newlib/machine/_default_types.h"
 598              		.file 5 "/usr/include/newlib/stdint.h"
 599              		.file 6 "../os/common/ports/ARMCMx/compilers/GCC/chtypes.h"
 600              		.file 7 "../os/rt/include/chsystypes.h"
 601              		.file 8 "../os/rt/include/chschd.h"
 602              		.file 9 "../os/common/ports/ARMCMx/chcore.h"
 603              		.file 10 "../os/common/ports/ARMCMx/chcore_v7m.h"
 604              		.file 11 "../os/rt/include/chsem.h"
 605              		.file 12 "../os/rt/include/chmtx.h"
 606              		.file 13 "../test/lib/ch_test.h"
 607              		.file 14 "../os/common/ext/CMSIS/include/core_cm3.h"
ARM GAS  /tmp/cc2MVQ1V.s 			page 36


 608              		.file 15 "../test/rt/source/test/test_root.h"
 609              		.file 16 "../os/rt/include/chmsg.h"
 610              		.section	.debug_info,"",%progbits
 611              	.Ldebug_info0:
 612 0000 2D090000 		.4byte	0x92d
 613 0004 0400     		.2byte	0x4
 614 0006 00000000 		.4byte	.Ldebug_abbrev0
 615 000a 04       		.byte	0x4
 616 000b 01       		.uleb128 0x1
 617 000c 15000000 		.4byte	.LASF110
 618 0010 01       		.byte	0x1
 619 0011 53050000 		.4byte	.LASF111
 620 0015 26020000 		.4byte	.LASF112
 621 0019 20000000 		.4byte	.Ldebug_ranges0+0x20
 622 001d 00000000 		.4byte	0
 623 0021 00000000 		.4byte	.Ldebug_line0
 624 0025 02       		.uleb128 0x2
 625 0026 04       		.byte	0x4
 626 0027 05       		.byte	0x5
 627 0028 696E7400 		.ascii	"int\000"
 628 002c 03       		.uleb128 0x3
 629 002d B8000000 		.4byte	.LASF2
 630 0031 03       		.byte	0x3
 631 0032 D4       		.byte	0xd4
 632 0033 37000000 		.4byte	0x37
 633 0037 04       		.uleb128 0x4
 634 0038 04       		.byte	0x4
 635 0039 07       		.byte	0x7
 636 003a B1040000 		.4byte	.LASF0
 637 003e 04       		.uleb128 0x4
 638 003f 01       		.byte	0x1
 639 0040 06       		.byte	0x6
 640 0041 85010000 		.4byte	.LASF1
 641 0045 03       		.uleb128 0x3
 642 0046 D5000000 		.4byte	.LASF3
 643 004a 04       		.byte	0x4
 644 004b 1C       		.byte	0x1c
 645 004c 50000000 		.4byte	0x50
 646 0050 04       		.uleb128 0x4
 647 0051 01       		.byte	0x1
 648 0052 08       		.byte	0x8
 649 0053 02040000 		.4byte	.LASF4
 650 0057 04       		.uleb128 0x4
 651 0058 02       		.byte	0x2
 652 0059 05       		.byte	0x5
 653 005a 10040000 		.4byte	.LASF5
 654 005e 03       		.uleb128 0x3
 655 005f BE040000 		.4byte	.LASF6
 656 0063 04       		.byte	0x4
 657 0064 26       		.byte	0x26
 658 0065 69000000 		.4byte	0x69
 659 0069 04       		.uleb128 0x4
 660 006a 02       		.byte	0x2
 661 006b 07       		.byte	0x7
 662 006c 80020000 		.4byte	.LASF7
 663 0070 03       		.uleb128 0x3
 664 0071 DA020000 		.4byte	.LASF8
ARM GAS  /tmp/cc2MVQ1V.s 			page 37


 665 0075 04       		.byte	0x4
 666 0076 37       		.byte	0x37
 667 0077 7B000000 		.4byte	0x7b
 668 007b 04       		.uleb128 0x4
 669 007c 04       		.byte	0x4
 670 007d 05       		.byte	0x5
 671 007e C4010000 		.4byte	.LASF9
 672 0082 03       		.uleb128 0x3
 673 0083 FC010000 		.4byte	.LASF10
 674 0087 04       		.byte	0x4
 675 0088 38       		.byte	0x38
 676 0089 8D000000 		.4byte	0x8d
 677 008d 04       		.uleb128 0x4
 678 008e 04       		.byte	0x4
 679 008f 07       		.byte	0x7
 680 0090 8D040000 		.4byte	.LASF11
 681 0094 04       		.uleb128 0x4
 682 0095 08       		.byte	0x8
 683 0096 05       		.byte	0x5
 684 0097 77010000 		.4byte	.LASF12
 685 009b 03       		.uleb128 0x3
 686 009c AC030000 		.4byte	.LASF13
 687 00a0 04       		.byte	0x4
 688 00a1 4E       		.byte	0x4e
 689 00a2 A6000000 		.4byte	0xa6
 690 00a6 04       		.uleb128 0x4
 691 00a7 08       		.byte	0x8
 692 00a8 07       		.byte	0x7
 693 00a9 0B010000 		.4byte	.LASF14
 694 00ad 03       		.uleb128 0x3
 695 00ae 2C050000 		.4byte	.LASF15
 696 00b2 05       		.byte	0x5
 697 00b3 2A       		.byte	0x2a
 698 00b4 45000000 		.4byte	0x45
 699 00b8 03       		.uleb128 0x3
 700 00b9 F3010000 		.4byte	.LASF16
 701 00bd 05       		.byte	0x5
 702 00be 36       		.byte	0x36
 703 00bf 5E000000 		.4byte	0x5e
 704 00c3 03       		.uleb128 0x3
 705 00c4 FA030000 		.4byte	.LASF17
 706 00c8 05       		.byte	0x5
 707 00c9 41       		.byte	0x41
 708 00ca 70000000 		.4byte	0x70
 709 00ce 03       		.uleb128 0x3
 710 00cf 67040000 		.4byte	.LASF18
 711 00d3 05       		.byte	0x5
 712 00d4 42       		.byte	0x42
 713 00d5 82000000 		.4byte	0x82
 714 00d9 03       		.uleb128 0x3
 715 00da CC000000 		.4byte	.LASF19
 716 00de 05       		.byte	0x5
 717 00df 4E       		.byte	0x4e
 718 00e0 9B000000 		.4byte	0x9b
 719 00e4 03       		.uleb128 0x3
 720 00e5 B8020000 		.4byte	.LASF20
 721 00e9 06       		.byte	0x6
ARM GAS  /tmp/cc2MVQ1V.s 			page 38


 722 00ea 3C       		.byte	0x3c
 723 00eb AD000000 		.4byte	0xad
 724 00ef 03       		.uleb128 0x3
 725 00f0 E5010000 		.4byte	.LASF21
 726 00f4 06       		.byte	0x6
 727 00f5 3D       		.byte	0x3d
 728 00f6 AD000000 		.4byte	0xad
 729 00fa 03       		.uleb128 0x3
 730 00fb B7030000 		.4byte	.LASF22
 731 00ff 06       		.byte	0x6
 732 0100 3E       		.byte	0x3e
 733 0101 AD000000 		.4byte	0xad
 734 0105 03       		.uleb128 0x3
 735 0106 DC030000 		.4byte	.LASF23
 736 010a 06       		.byte	0x6
 737 010b 40       		.byte	0x40
 738 010c CE000000 		.4byte	0xce
 739 0110 03       		.uleb128 0x3
 740 0111 9D020000 		.4byte	.LASF24
 741 0115 06       		.byte	0x6
 742 0116 41       		.byte	0x41
 743 0117 C3000000 		.4byte	0xc3
 744 011b 03       		.uleb128 0x3
 745 011c CE020000 		.4byte	.LASF25
 746 0120 06       		.byte	0x6
 747 0121 43       		.byte	0x43
 748 0122 CE000000 		.4byte	0xce
 749 0126 03       		.uleb128 0x3
 750 0127 20020000 		.4byte	.LASF26
 751 012b 06       		.byte	0x6
 752 012c 45       		.byte	0x45
 753 012d C3000000 		.4byte	0xc3
 754 0131 03       		.uleb128 0x3
 755 0132 D2040000 		.4byte	.LASF27
 756 0136 07       		.byte	0x7
 757 0137 35       		.byte	0x35
 758 0138 B8000000 		.4byte	0xb8
 759 013c 03       		.uleb128 0x3
 760 013d C9040000 		.4byte	.LASF28
 761 0141 07       		.byte	0x7
 762 0142 3F       		.byte	0x3f
 763 0143 47010000 		.4byte	0x147
 764 0147 05       		.uleb128 0x5
 765 0148 93020000 		.4byte	.LASF46
 766 014c 44       		.byte	0x44
 767 014d 08       		.byte	0x8
 768 014e 9A       		.byte	0x9a
 769 014f 25020000 		.4byte	0x225
 770 0153 06       		.uleb128 0x6
 771 0154 74020000 		.4byte	.LASF29
 772 0158 08       		.byte	0x8
 773 0159 9B       		.byte	0x9b
 774 015a 5A020000 		.4byte	0x25a
 775 015e 00       		.byte	0
 776 015f 06       		.uleb128 0x6
 777 0160 9F030000 		.4byte	.LASF30
 778 0164 08       		.byte	0x8
ARM GAS  /tmp/cc2MVQ1V.s 			page 39


 779 0165 9C       		.byte	0x9c
 780 0166 05010000 		.4byte	0x105
 781 016a 08       		.byte	0x8
 782 016b 07       		.uleb128 0x7
 783 016c 63747800 		.ascii	"ctx\000"
 784 0170 08       		.byte	0x8
 785 0171 9D       		.byte	0x9d
 786 0172 46040000 		.4byte	0x446
 787 0176 0C       		.byte	0xc
 788 0177 06       		.uleb128 0x6
 789 0178 EF040000 		.4byte	.LASF31
 790 017c 08       		.byte	0x8
 791 017d 9F       		.byte	0x9f
 792 017e 30020000 		.4byte	0x230
 793 0182 10       		.byte	0x10
 794 0183 06       		.uleb128 0x6
 795 0184 AB040000 		.4byte	.LASF32
 796 0188 08       		.byte	0x8
 797 0189 A0       		.byte	0xa0
 798 018a 30020000 		.4byte	0x230
 799 018e 14       		.byte	0x14
 800 018f 06       		.uleb128 0x6
 801 0190 6F020000 		.4byte	.LASF33
 802 0194 08       		.byte	0x8
 803 0195 A7       		.byte	0xa7
 804 0196 AB050000 		.4byte	0x5ab
 805 019a 18       		.byte	0x18
 806 019b 06       		.uleb128 0x6
 807 019c 9F040000 		.4byte	.LASF34
 808 01a0 08       		.byte	0x8
 809 01a1 B0       		.byte	0xb0
 810 01a2 BD050000 		.4byte	0x5bd
 811 01a6 1C       		.byte	0x1c
 812 01a7 06       		.uleb128 0x6
 813 01a8 BE010000 		.4byte	.LASF35
 814 01ac 08       		.byte	0x8
 815 01ad B5       		.byte	0xb5
 816 01ae EF000000 		.4byte	0xef
 817 01b2 20       		.byte	0x20
 818 01b3 06       		.uleb128 0x6
 819 01b4 34050000 		.4byte	.LASF36
 820 01b8 08       		.byte	0x8
 821 01b9 B9       		.byte	0xb9
 822 01ba E4000000 		.4byte	0xe4
 823 01be 21       		.byte	0x21
 824 01bf 06       		.uleb128 0x6
 825 01c0 BF030000 		.4byte	.LASF37
 826 01c4 08       		.byte	0x8
 827 01c5 BE       		.byte	0xbe
 828 01c6 FA000000 		.4byte	0xfa
 829 01ca 22       		.byte	0x22
 830 01cb 08       		.uleb128 0x8
 831 01cc 7500     		.ascii	"u\000"
 832 01ce 08       		.byte	0x8
 833 01cf 0F01     		.2byte	0x10f
 834 01d1 E0040000 		.4byte	0x4e0
 835 01d5 24       		.byte	0x24
ARM GAS  /tmp/cc2MVQ1V.s 			page 40


 836 01d6 09       		.uleb128 0x9
 837 01d7 10020000 		.4byte	.LASF38
 838 01db 08       		.byte	0x8
 839 01dc 1401     		.2byte	0x114
 840 01de 36020000 		.4byte	0x236
 841 01e2 28       		.byte	0x28
 842 01e3 09       		.uleb128 0x9
 843 01e4 B5010000 		.4byte	.LASF39
 844 01e8 08       		.byte	0x8
 845 01e9 1A01     		.2byte	0x11a
 846 01eb 5A020000 		.4byte	0x25a
 847 01ef 2C       		.byte	0x2c
 848 01f0 09       		.uleb128 0x9
 849 01f1 A3020000 		.4byte	.LASF40
 850 01f5 08       		.byte	0x8
 851 01f6 2001     		.2byte	0x120
 852 01f8 1B010000 		.4byte	0x11b
 853 01fc 34       		.byte	0x34
 854 01fd 09       		.uleb128 0x9
 855 01fe A2050000 		.4byte	.LASF41
 856 0202 08       		.byte	0x8
 857 0203 2701     		.2byte	0x127
 858 0205 A5050000 		.4byte	0x5a5
 859 0209 38       		.byte	0x38
 860 020a 09       		.uleb128 0x9
 861 020b 0C030000 		.4byte	.LASF42
 862 020f 08       		.byte	0x8
 863 0210 2B01     		.2byte	0x12b
 864 0212 05010000 		.4byte	0x105
 865 0216 3C       		.byte	0x3c
 866 0217 09       		.uleb128 0x9
 867 0218 7A020000 		.4byte	.LASF43
 868 021c 08       		.byte	0x8
 869 021d 3201     		.2byte	0x132
 870 021f 0D030000 		.4byte	0x30d
 871 0223 40       		.byte	0x40
 872 0224 00       		.byte	0
 873 0225 03       		.uleb128 0x3
 874 0226 1E030000 		.4byte	.LASF44
 875 022a 07       		.byte	0x7
 876 022b 44       		.byte	0x44
 877 022c 30020000 		.4byte	0x230
 878 0230 0A       		.uleb128 0xa
 879 0231 04       		.byte	0x4
 880 0232 3C010000 		.4byte	0x13c
 881 0236 03       		.uleb128 0x3
 882 0237 7E050000 		.4byte	.LASF45
 883 023b 07       		.byte	0x7
 884 023c 49       		.byte	0x49
 885 023d 41020000 		.4byte	0x241
 886 0241 05       		.uleb128 0x5
 887 0242 77040000 		.4byte	.LASF47
 888 0246 04       		.byte	0x4
 889 0247 08       		.byte	0x8
 890 0248 88       		.byte	0x88
 891 0249 5A020000 		.4byte	0x25a
 892 024d 06       		.uleb128 0x6
ARM GAS  /tmp/cc2MVQ1V.s 			page 41


 893 024e 61010000 		.4byte	.LASF48
 894 0252 08       		.byte	0x8
 895 0253 89       		.byte	0x89
 896 0254 30020000 		.4byte	0x230
 897 0258 00       		.byte	0
 898 0259 00       		.byte	0
 899 025a 03       		.uleb128 0x3
 900 025b FF040000 		.4byte	.LASF49
 901 025f 07       		.byte	0x7
 902 0260 50       		.byte	0x50
 903 0261 65020000 		.4byte	0x265
 904 0265 05       		.uleb128 0x5
 905 0266 66010000 		.4byte	.LASF50
 906 026a 08       		.byte	0x8
 907 026b 08       		.byte	0x8
 908 026c 8F       		.byte	0x8f
 909 026d 8A020000 		.4byte	0x28a
 910 0271 06       		.uleb128 0x6
 911 0272 61010000 		.4byte	.LASF48
 912 0276 08       		.byte	0x8
 913 0277 90       		.byte	0x90
 914 0278 30020000 		.4byte	0x230
 915 027c 00       		.byte	0
 916 027d 06       		.uleb128 0x6
 917 027e DF000000 		.4byte	.LASF51
 918 0282 08       		.byte	0x8
 919 0283 91       		.byte	0x91
 920 0284 30020000 		.4byte	0x230
 921 0288 04       		.byte	0x4
 922 0289 00       		.byte	0
 923 028a 03       		.uleb128 0x3
 924 028b 08000000 		.4byte	.LASF52
 925 028f 07       		.byte	0x7
 926 0290 57       		.byte	0x57
 927 0291 95020000 		.4byte	0x295
 928 0295 0B       		.uleb128 0xb
 929 0296 C0020000 		.4byte	.LASF53
 930 029a 1C       		.byte	0x1c
 931 029b 08       		.byte	0x8
 932 029c 6A01     		.2byte	0x16a
 933 029e F1020000 		.4byte	0x2f1
 934 02a2 09       		.uleb128 0x9
 935 02a3 74020000 		.4byte	.LASF29
 936 02a7 08       		.byte	0x8
 937 02a8 6B01     		.2byte	0x16b
 938 02aa 5A020000 		.4byte	0x25a
 939 02ae 00       		.byte	0
 940 02af 09       		.uleb128 0x9
 941 02b0 9F030000 		.4byte	.LASF30
 942 02b4 08       		.byte	0x8
 943 02b5 6C01     		.2byte	0x16c
 944 02b7 05010000 		.4byte	0x105
 945 02bb 08       		.byte	0x8
 946 02bc 08       		.uleb128 0x8
 947 02bd 63747800 		.ascii	"ctx\000"
 948 02c1 08       		.byte	0x8
 949 02c2 6E01     		.2byte	0x16e
ARM GAS  /tmp/cc2MVQ1V.s 			page 42


 950 02c4 46040000 		.4byte	0x446
 951 02c8 0C       		.byte	0xc
 952 02c9 09       		.uleb128 0x9
 953 02ca EF040000 		.4byte	.LASF31
 954 02ce 08       		.byte	0x8
 955 02cf 7101     		.2byte	0x171
 956 02d1 30020000 		.4byte	0x230
 957 02d5 10       		.byte	0x10
 958 02d6 09       		.uleb128 0x9
 959 02d7 AB040000 		.4byte	.LASF32
 960 02db 08       		.byte	0x8
 961 02dc 7201     		.2byte	0x172
 962 02de 30020000 		.4byte	0x230
 963 02e2 14       		.byte	0x14
 964 02e3 09       		.uleb128 0x9
 965 02e4 A4030000 		.4byte	.LASF54
 966 02e8 08       		.byte	0x8
 967 02e9 7501     		.2byte	0x175
 968 02eb 30020000 		.4byte	0x230
 969 02ef 18       		.byte	0x18
 970 02f0 00       		.byte	0
 971 02f1 03       		.uleb128 0x3
 972 02f2 DC040000 		.4byte	.LASF55
 973 02f6 07       		.byte	0x7
 974 02f7 5C       		.byte	0x5c
 975 02f8 FC020000 		.4byte	0x2fc
 976 02fc 0A       		.uleb128 0xa
 977 02fd 04       		.byte	0x4
 978 02fe 02030000 		.4byte	0x302
 979 0302 0C       		.uleb128 0xc
 980 0303 0D030000 		.4byte	0x30d
 981 0307 0D       		.uleb128 0xd
 982 0308 0D030000 		.4byte	0x30d
 983 030c 00       		.byte	0
 984 030d 0E       		.uleb128 0xe
 985 030e 04       		.byte	0x4
 986 030f 03       		.uleb128 0x3
 987 0310 C4030000 		.4byte	.LASF56
 988 0314 07       		.byte	0x7
 989 0315 61       		.byte	0x61
 990 0316 1A030000 		.4byte	0x31a
 991 031a 0B       		.uleb128 0xb
 992 031b 3C040000 		.4byte	.LASF57
 993 031f 14       		.byte	0x14
 994 0320 08       		.byte	0x8
 995 0321 4501     		.2byte	0x145
 996 0323 69030000 		.4byte	0x369
 997 0327 09       		.uleb128 0x9
 998 0328 61010000 		.4byte	.LASF48
 999 032c 08       		.byte	0x8
 1000 032d 4601     		.2byte	0x146
 1001 032f C3050000 		.4byte	0x5c3
 1002 0333 00       		.byte	0
 1003 0334 09       		.uleb128 0x9
 1004 0335 DF000000 		.4byte	.LASF51
 1005 0339 08       		.byte	0x8
 1006 033a 4701     		.2byte	0x147
ARM GAS  /tmp/cc2MVQ1V.s 			page 43


 1007 033c C3050000 		.4byte	0x5c3
 1008 0340 04       		.byte	0x4
 1009 0341 09       		.uleb128 0x9
 1010 0342 BF000000 		.4byte	.LASF58
 1011 0346 08       		.byte	0x8
 1012 0347 4801     		.2byte	0x148
 1013 0349 31010000 		.4byte	0x131
 1014 034d 08       		.byte	0x8
 1015 034e 09       		.uleb128 0x9
 1016 034f EE010000 		.4byte	.LASF59
 1017 0353 08       		.byte	0x8
 1018 0354 4901     		.2byte	0x149
 1019 0356 F1020000 		.4byte	0x2f1
 1020 035a 0C       		.byte	0xc
 1021 035b 08       		.uleb128 0x8
 1022 035c 70617200 		.ascii	"par\000"
 1023 0360 08       		.byte	0x8
 1024 0361 4B01     		.2byte	0x14b
 1025 0363 0D030000 		.4byte	0x30d
 1026 0367 10       		.byte	0x10
 1027 0368 00       		.byte	0
 1028 0369 03       		.uleb128 0x3
 1029 036a 3E010000 		.4byte	.LASF60
 1030 036e 07       		.byte	0x7
 1031 036f 66       		.byte	0x66
 1032 0370 74030000 		.4byte	0x374
 1033 0374 0B       		.uleb128 0xb
 1034 0375 31030000 		.4byte	.LASF61
 1035 0379 0C       		.byte	0xc
 1036 037a 08       		.byte	0x8
 1037 037b 5501     		.2byte	0x155
 1038 037d B6030000 		.4byte	0x3b6
 1039 0381 09       		.uleb128 0x9
 1040 0382 61010000 		.4byte	.LASF48
 1041 0386 08       		.byte	0x8
 1042 0387 5601     		.2byte	0x156
 1043 0389 C3050000 		.4byte	0x5c3
 1044 038d 00       		.byte	0
 1045 038e 09       		.uleb128 0x9
 1046 038f DF000000 		.4byte	.LASF51
 1047 0393 08       		.byte	0x8
 1048 0394 5801     		.2byte	0x158
 1049 0396 C3050000 		.4byte	0x5c3
 1050 039a 04       		.byte	0x4
 1051 039b 09       		.uleb128 0x9
 1052 039c BF000000 		.4byte	.LASF58
 1053 03a0 08       		.byte	0x8
 1054 03a1 5A01     		.2byte	0x15a
 1055 03a3 31010000 		.4byte	0x131
 1056 03a7 08       		.byte	0x8
 1057 03a8 09       		.uleb128 0x9
 1058 03a9 1A040000 		.4byte	.LASF62
 1059 03ad 08       		.byte	0x8
 1060 03ae 6201     		.2byte	0x162
 1061 03b0 31010000 		.4byte	0x131
 1062 03b4 0A       		.byte	0xa
 1063 03b5 00       		.byte	0
ARM GAS  /tmp/cc2MVQ1V.s 			page 44


 1064 03b6 03       		.uleb128 0x3
 1065 03b7 F0000000 		.4byte	.LASF63
 1066 03bb 07       		.byte	0x7
 1067 03bc 6B       		.byte	0x6b
 1068 03bd C1030000 		.4byte	0x3c1
 1069 03c1 0B       		.uleb128 0xb
 1070 03c2 E4030000 		.4byte	.LASF64
 1071 03c6 04       		.byte	0x4
 1072 03c7 08       		.byte	0x8
 1073 03c8 7C01     		.2byte	0x17c
 1074 03ca DC030000 		.4byte	0x3dc
 1075 03ce 09       		.uleb128 0x9
 1076 03cf E5040000 		.4byte	.LASF65
 1077 03d3 08       		.byte	0x8
 1078 03d4 8401     		.2byte	0x184
 1079 03d6 C9050000 		.4byte	0x5c9
 1080 03da 00       		.byte	0
 1081 03db 00       		.byte	0
 1082 03dc 03       		.uleb128 0x3
 1083 03dd AC020000 		.4byte	.LASF66
 1084 03e1 07       		.byte	0x7
 1085 03e2 70       		.byte	0x70
 1086 03e3 E7030000 		.4byte	0x3e7
 1087 03e7 0B       		.uleb128 0xb
 1088 03e8 32040000 		.4byte	.LASF67
 1089 03ec 70       		.byte	0x70
 1090 03ed 08       		.byte	0x8
 1091 03ee 9C01     		.2byte	0x19c
 1092 03f0 29040000 		.4byte	0x429
 1093 03f4 09       		.uleb128 0x9
 1094 03f5 18050000 		.4byte	.LASF68
 1095 03f9 08       		.byte	0x8
 1096 03fa A001     		.2byte	0x1a0
 1097 03fc 8A020000 		.4byte	0x28a
 1098 0400 00       		.byte	0
 1099 0401 09       		.uleb128 0x9
 1100 0402 AE010000 		.4byte	.LASF69
 1101 0406 08       		.byte	0x8
 1102 0407 A401     		.2byte	0x1a4
 1103 0409 69030000 		.4byte	0x369
 1104 040d 1C       		.byte	0x1c
 1105 040e 08       		.uleb128 0x8
 1106 040f 64626700 		.ascii	"dbg\000"
 1107 0413 08       		.byte	0x8
 1108 0414 A801     		.2byte	0x1a8
 1109 0416 B6030000 		.4byte	0x3b6
 1110 041a 28       		.byte	0x28
 1111 041b 09       		.uleb128 0x9
 1112 041c 2B010000 		.4byte	.LASF70
 1113 0420 08       		.byte	0x8
 1114 0421 AC01     		.2byte	0x1ac
 1115 0423 3C010000 		.4byte	0x13c
 1116 0427 2C       		.byte	0x2c
 1117 0428 00       		.byte	0
 1118 0429 04       		.uleb128 0x4
 1119 042a 04       		.byte	0x4
 1120 042b 07       		.byte	0x7
ARM GAS  /tmp/cc2MVQ1V.s 			page 45


 1121 042c 15030000 		.4byte	.LASF71
 1122 0430 03       		.uleb128 0x3
 1123 0431 07020000 		.4byte	.LASF72
 1124 0435 09       		.byte	0x9
 1125 0436 65       		.byte	0x65
 1126 0437 0D030000 		.4byte	0x30d
 1127 043b 03       		.uleb128 0x3
 1128 043c E4020000 		.4byte	.LASF73
 1129 0440 09       		.byte	0x9
 1130 0441 6D       		.byte	0x6d
 1131 0442 D9000000 		.4byte	0xd9
 1132 0446 05       		.uleb128 0x5
 1133 0447 64030000 		.4byte	.LASF74
 1134 044b 04       		.byte	0x4
 1135 044c 09       		.byte	0x9
 1136 044d 89       		.byte	0x89
 1137 044e 5E040000 		.4byte	0x45e
 1138 0452 07       		.uleb128 0x7
 1139 0453 737000   		.ascii	"sp\000"
 1140 0456 09       		.byte	0x9
 1141 0457 8A       		.byte	0x8a
 1142 0458 DA040000 		.4byte	0x4da
 1143 045c 00       		.byte	0
 1144 045d 00       		.byte	0
 1145 045e 0B       		.uleb128 0xb
 1146 045f E4000000 		.4byte	.LASF75
 1147 0463 24       		.byte	0x24
 1148 0464 0A       		.byte	0xa
 1149 0465 5901     		.2byte	0x159
 1150 0467 DA040000 		.4byte	0x4da
 1151 046b 08       		.uleb128 0x8
 1152 046c 723400   		.ascii	"r4\000"
 1153 046f 0A       		.byte	0xa
 1154 0470 6C01     		.2byte	0x16c
 1155 0472 30040000 		.4byte	0x430
 1156 0476 00       		.byte	0
 1157 0477 08       		.uleb128 0x8
 1158 0478 723500   		.ascii	"r5\000"
 1159 047b 0A       		.byte	0xa
 1160 047c 6D01     		.2byte	0x16d
 1161 047e 30040000 		.4byte	0x430
 1162 0482 04       		.byte	0x4
 1163 0483 08       		.uleb128 0x8
 1164 0484 723600   		.ascii	"r6\000"
 1165 0487 0A       		.byte	0xa
 1166 0488 6E01     		.2byte	0x16e
 1167 048a 30040000 		.4byte	0x430
 1168 048e 08       		.byte	0x8
 1169 048f 08       		.uleb128 0x8
 1170 0490 723700   		.ascii	"r7\000"
 1171 0493 0A       		.byte	0xa
 1172 0494 6F01     		.2byte	0x16f
 1173 0496 30040000 		.4byte	0x430
 1174 049a 0C       		.byte	0xc
 1175 049b 08       		.uleb128 0x8
 1176 049c 723800   		.ascii	"r8\000"
 1177 049f 0A       		.byte	0xa
ARM GAS  /tmp/cc2MVQ1V.s 			page 46


 1178 04a0 7001     		.2byte	0x170
 1179 04a2 30040000 		.4byte	0x430
 1180 04a6 10       		.byte	0x10
 1181 04a7 08       		.uleb128 0x8
 1182 04a8 723900   		.ascii	"r9\000"
 1183 04ab 0A       		.byte	0xa
 1184 04ac 7101     		.2byte	0x171
 1185 04ae 30040000 		.4byte	0x430
 1186 04b2 14       		.byte	0x14
 1187 04b3 08       		.uleb128 0x8
 1188 04b4 72313000 		.ascii	"r10\000"
 1189 04b8 0A       		.byte	0xa
 1190 04b9 7201     		.2byte	0x172
 1191 04bb 30040000 		.4byte	0x430
 1192 04bf 18       		.byte	0x18
 1193 04c0 08       		.uleb128 0x8
 1194 04c1 72313100 		.ascii	"r11\000"
 1195 04c5 0A       		.byte	0xa
 1196 04c6 7301     		.2byte	0x173
 1197 04c8 30040000 		.4byte	0x430
 1198 04cc 1C       		.byte	0x1c
 1199 04cd 08       		.uleb128 0x8
 1200 04ce 6C7200   		.ascii	"lr\000"
 1201 04d1 0A       		.byte	0xa
 1202 04d2 7401     		.2byte	0x174
 1203 04d4 30040000 		.4byte	0x430
 1204 04d8 20       		.byte	0x20
 1205 04d9 00       		.byte	0
 1206 04da 0A       		.uleb128 0xa
 1207 04db 04       		.byte	0x4
 1208 04dc 5E040000 		.4byte	0x45e
 1209 04e0 0F       		.uleb128 0xf
 1210 04e1 04       		.byte	0x4
 1211 04e2 08       		.byte	0x8
 1212 04e3 D2       		.byte	0xd2
 1213 04e4 43050000 		.4byte	0x543
 1214 04e8 10       		.uleb128 0x10
 1215 04e9 C5000000 		.4byte	.LASF76
 1216 04ed 08       		.byte	0x8
 1217 04ee D9       		.byte	0xd9
 1218 04ef 10010000 		.4byte	0x110
 1219 04f3 10       		.uleb128 0x10
 1220 04f4 22010000 		.4byte	.LASF77
 1221 04f8 08       		.byte	0x8
 1222 04f9 E0       		.byte	0xe0
 1223 04fa 10010000 		.4byte	0x110
 1224 04fe 10       		.uleb128 0x10
 1225 04ff 4C050000 		.4byte	.LASF78
 1226 0503 08       		.byte	0x8
 1227 0504 E7       		.byte	0xe7
 1228 0505 0D030000 		.4byte	0x30d
 1229 0509 10       		.uleb128 0x10
 1230 050a 57020000 		.4byte	.LASF79
 1231 050e 08       		.byte	0x8
 1232 050f EE       		.byte	0xee
 1233 0510 43050000 		.4byte	0x543
 1234 0514 10       		.uleb128 0x10
ARM GAS  /tmp/cc2MVQ1V.s 			page 47


 1235 0515 36010000 		.4byte	.LASF80
 1236 0519 08       		.byte	0x8
 1237 051a F3       		.byte	0xf3
 1238 051b 10010000 		.4byte	0x110
 1239 051f 10       		.uleb128 0x10
 1240 0520 50020000 		.4byte	.LASF81
 1241 0524 08       		.byte	0x8
 1242 0525 FC       		.byte	0xfc
 1243 0526 6E050000 		.4byte	0x56e
 1244 052a 11       		.uleb128 0x11
 1245 052b 70040000 		.4byte	.LASF82
 1246 052f 08       		.byte	0x8
 1247 0530 0501     		.2byte	0x105
 1248 0532 A5050000 		.4byte	0x5a5
 1249 0536 11       		.uleb128 0x11
 1250 0537 2B040000 		.4byte	.LASF83
 1251 053b 08       		.byte	0x8
 1252 053c 0D01     		.2byte	0x10d
 1253 053e 1B010000 		.4byte	0x11b
 1254 0542 00       		.byte	0
 1255 0543 0A       		.uleb128 0xa
 1256 0544 04       		.byte	0x4
 1257 0545 25020000 		.4byte	0x225
 1258 0549 05       		.uleb128 0x5
 1259 054a 5A040000 		.4byte	.LASF84
 1260 054e 0C       		.byte	0xc
 1261 054f 0B       		.byte	0xb
 1262 0550 34       		.byte	0x34
 1263 0551 6E050000 		.4byte	0x56e
 1264 0555 06       		.uleb128 0x6
 1265 0556 74020000 		.4byte	.LASF29
 1266 055a 0B       		.byte	0xb
 1267 055b 35       		.byte	0x35
 1268 055c 5A020000 		.4byte	0x25a
 1269 0560 00       		.byte	0
 1270 0561 07       		.uleb128 0x7
 1271 0562 636E7400 		.ascii	"cnt\000"
 1272 0566 0B       		.byte	0xb
 1273 0567 37       		.byte	0x37
 1274 0568 26010000 		.4byte	0x126
 1275 056c 08       		.byte	0x8
 1276 056d 00       		.byte	0
 1277 056e 0A       		.uleb128 0xa
 1278 056f 04       		.byte	0x4
 1279 0570 49050000 		.4byte	0x549
 1280 0574 05       		.uleb128 0x5
 1281 0575 0F050000 		.4byte	.LASF85
 1282 0579 10       		.byte	0x10
 1283 057a 0C       		.byte	0xc
 1284 057b 39       		.byte	0x39
 1285 057c A5050000 		.4byte	0x5a5
 1286 0580 06       		.uleb128 0x6
 1287 0581 74020000 		.4byte	.LASF29
 1288 0585 0C       		.byte	0xc
 1289 0586 3A       		.byte	0x3a
 1290 0587 5A020000 		.4byte	0x25a
 1291 058b 00       		.byte	0
ARM GAS  /tmp/cc2MVQ1V.s 			page 48


 1292 058c 06       		.uleb128 0x6
 1293 058d 87040000 		.4byte	.LASF86
 1294 0591 0C       		.byte	0xc
 1295 0592 3C       		.byte	0x3c
 1296 0593 30020000 		.4byte	0x230
 1297 0597 08       		.byte	0x8
 1298 0598 06       		.uleb128 0x6
 1299 0599 61010000 		.4byte	.LASF48
 1300 059d 0C       		.byte	0xc
 1301 059e 3E       		.byte	0x3e
 1302 059f E4050000 		.4byte	0x5e4
 1303 05a3 0C       		.byte	0xc
 1304 05a4 00       		.byte	0
 1305 05a5 0A       		.uleb128 0xa
 1306 05a6 04       		.byte	0x4
 1307 05a7 74050000 		.4byte	0x574
 1308 05ab 0A       		.uleb128 0xa
 1309 05ac 04       		.byte	0x4
 1310 05ad B1050000 		.4byte	0x5b1
 1311 05b1 12       		.uleb128 0x12
 1312 05b2 B6050000 		.4byte	0x5b6
 1313 05b6 04       		.uleb128 0x4
 1314 05b7 01       		.byte	0x1
 1315 05b8 08       		.byte	0x8
 1316 05b9 A6040000 		.4byte	.LASF87
 1317 05bd 0A       		.uleb128 0xa
 1318 05be 04       		.byte	0x4
 1319 05bf 3B040000 		.4byte	0x43b
 1320 05c3 0A       		.uleb128 0xa
 1321 05c4 04       		.byte	0x4
 1322 05c5 0F030000 		.4byte	0x30f
 1323 05c9 13       		.uleb128 0x13
 1324 05ca AB050000 		.4byte	0x5ab
 1325 05ce 03       		.uleb128 0x3
 1326 05cf 00000000 		.4byte	.LASF88
 1327 05d3 02       		.byte	0x2
 1328 05d4 40       		.byte	0x40
 1329 05d5 FC020000 		.4byte	0x2fc
 1330 05d9 03       		.uleb128 0x3
 1331 05da 18020000 		.4byte	.LASF89
 1332 05de 0C       		.byte	0xc
 1333 05df 34       		.byte	0x34
 1334 05e0 74050000 		.4byte	0x574
 1335 05e4 0A       		.uleb128 0xa
 1336 05e5 04       		.byte	0x4
 1337 05e6 D9050000 		.4byte	0x5d9
 1338 05ea 04       		.uleb128 0x4
 1339 05eb 01       		.byte	0x1
 1340 05ec 02       		.byte	0x2
 1341 05ed F4030000 		.4byte	.LASF90
 1342 05f1 0A       		.uleb128 0xa
 1343 05f2 04       		.byte	0x4
 1344 05f3 F7050000 		.4byte	0x5f7
 1345 05f7 14       		.uleb128 0x14
 1346 05f8 15       		.uleb128 0x15
 1347 05f9 10       		.byte	0x10
 1348 05fa 0D       		.byte	0xd
ARM GAS  /tmp/cc2MVQ1V.s 			page 49


 1349 05fb 3D       		.byte	0x3d
 1350 05fc 31060000 		.4byte	0x631
 1351 0600 06       		.uleb128 0x6
 1352 0601 6F020000 		.4byte	.LASF33
 1353 0605 0D       		.byte	0xd
 1354 0606 3E       		.byte	0x3e
 1355 0607 AB050000 		.4byte	0x5ab
 1356 060b 00       		.byte	0
 1357 060c 06       		.uleb128 0x6
 1358 060d 83030000 		.4byte	.LASF91
 1359 0611 0D       		.byte	0xd
 1360 0612 3F       		.byte	0x3f
 1361 0613 F1050000 		.4byte	0x5f1
 1362 0617 04       		.byte	0x4
 1363 0618 06       		.uleb128 0x6
 1364 0619 5D020000 		.4byte	.LASF92
 1365 061d 0D       		.byte	0xd
 1366 061e 40       		.byte	0x40
 1367 061f F1050000 		.4byte	0x5f1
 1368 0623 08       		.byte	0x8
 1369 0624 06       		.uleb128 0x6
 1370 0625 D4030000 		.4byte	.LASF93
 1371 0629 0D       		.byte	0xd
 1372 062a 41       		.byte	0x41
 1373 062b F1050000 		.4byte	0x5f1
 1374 062f 0C       		.byte	0xc
 1375 0630 00       		.byte	0
 1376 0631 03       		.uleb128 0x3
 1377 0632 EF020000 		.4byte	.LASF94
 1378 0636 0D       		.byte	0xd
 1379 0637 42       		.byte	0x42
 1380 0638 F8050000 		.4byte	0x5f8
 1381 063c 16       		.uleb128 0x16
 1382 063d 1E050000 		.4byte	.LASF95
 1383 0641 02       		.byte	0x2
 1384 0642 1C01     		.2byte	0x11c
 1385 0644 30020000 		.4byte	0x230
 1386 0648 03       		.byte	0x3
 1387 0649 17       		.uleb128 0x17
 1388 064a 66020000 		.4byte	.LASF113
 1389 064e 10       		.byte	0x10
 1390 064f 60       		.byte	0x60
 1391 0650 10010000 		.4byte	0x110
 1392 0654 03       		.byte	0x3
 1393 0655 71060000 		.4byte	0x671
 1394 0659 18       		.uleb128 0x18
 1395 065a 747000   		.ascii	"tp\000"
 1396 065d 10       		.byte	0x10
 1397 065e 60       		.byte	0x60
 1398 065f 30020000 		.4byte	0x230
 1399 0663 19       		.uleb128 0x19
 1400 0664 D7010000 		.4byte	.LASF97
 1401 0668 81060000 		.4byte	0x681
 1402 066c 66020000 		.4byte	.LASF113
 1403 0670 00       		.byte	0
 1404 0671 1A       		.uleb128 0x1a
 1405 0672 B6050000 		.4byte	0x5b6
ARM GAS  /tmp/cc2MVQ1V.s 			page 50


 1406 0676 81060000 		.4byte	0x681
 1407 067a 1B       		.uleb128 0x1b
 1408 067b 29040000 		.4byte	0x429
 1409 067f 08       		.byte	0x8
 1410 0680 00       		.byte	0
 1411 0681 12       		.uleb128 0x12
 1412 0682 71060000 		.4byte	0x671
 1413 0686 16       		.uleb128 0x16
 1414 0687 71030000 		.4byte	.LASF96
 1415 068b 02       		.byte	0x2
 1416 068c 2901     		.2byte	0x129
 1417 068e 05010000 		.4byte	0x105
 1418 0692 03       		.byte	0x3
 1419 0693 1C       		.uleb128 0x1c
 1420 0694 8D050000 		.4byte	.LASF98
 1421 0698 01       		.byte	0x1
 1422 0699 4C       		.byte	0x4c
 1423 069a 00000000 		.4byte	.LFB220
 1424 069e 7E000000 		.4byte	.LFE220-.LFB220
 1425 06a2 01       		.uleb128 0x1
 1426 06a3 9C       		.byte	0x9c
 1427 06a4 6D070000 		.4byte	0x76d
 1428 06a8 1D       		.uleb128 0x1d
 1429 06a9 747000   		.ascii	"tp\000"
 1430 06ac 01       		.byte	0x1
 1431 06ad 4D       		.byte	0x4d
 1432 06ae 30020000 		.4byte	0x230
 1433 06b2 00000000 		.4byte	.LLST0
 1434 06b6 1E       		.uleb128 0x1e
 1435 06b7 6D736700 		.ascii	"msg\000"
 1436 06bb 01       		.byte	0x1
 1437 06bc 4E       		.byte	0x4e
 1438 06bd 10010000 		.4byte	0x110
 1439 06c1 1F       		.uleb128 0x1f
 1440 06c2 86060000 		.4byte	0x686
 1441 06c6 02000000 		.4byte	.LBB13
 1442 06ca 0A000000 		.4byte	.LBE13-.LBB13
 1443 06ce 01       		.byte	0x1
 1444 06cf 53       		.byte	0x53
 1445 06d0 E5060000 		.4byte	0x6e5
 1446 06d4 20       		.uleb128 0x20
 1447 06d5 3C060000 		.4byte	0x63c
 1448 06d9 02000000 		.4byte	.LBB15
 1449 06dd 0A000000 		.4byte	.LBE15-.LBB15
 1450 06e1 02       		.byte	0x2
 1451 06e2 2B01     		.2byte	0x12b
 1452 06e4 00       		.byte	0
 1453 06e5 21       		.uleb128 0x21
 1454 06e6 00000000 		.4byte	.Ldebug_ranges0+0
 1455 06ea 52070000 		.4byte	0x752
 1456 06ee 1D       		.uleb128 0x1d
 1457 06ef 6900     		.ascii	"i\000"
 1458 06f1 01       		.byte	0x1
 1459 06f2 5B       		.byte	0x5b
 1460 06f3 37000000 		.4byte	0x37
 1461 06f7 13000000 		.4byte	.LLST1
 1462 06fb 22       		.uleb128 0x22
ARM GAS  /tmp/cc2MVQ1V.s 			page 51


 1463 06fc 4E000000 		.4byte	.LVL3
 1464 0700 98080000 		.4byte	0x898
 1465 0704 23       		.uleb128 0x23
 1466 0705 56000000 		.4byte	.LVL5
 1467 0709 A3080000 		.4byte	0x8a3
 1468 070d 18070000 		.4byte	0x718
 1469 0711 24       		.uleb128 0x24
 1470 0712 01       		.uleb128 0x1
 1471 0713 51       		.byte	0x51
 1472 0714 02       		.uleb128 0x2
 1473 0715 75       		.byte	0x75
 1474 0716 00       		.sleb128 0
 1475 0717 00       		.byte	0
 1476 0718 23       		.uleb128 0x23
 1477 0719 5C000000 		.4byte	.LVL6
 1478 071d B9080000 		.4byte	0x8b9
 1479 0721 2C070000 		.4byte	0x72c
 1480 0725 24       		.uleb128 0x24
 1481 0726 01       		.uleb128 0x1
 1482 0727 50       		.byte	0x50
 1483 0728 02       		.uleb128 0x2
 1484 0729 75       		.byte	0x75
 1485 072a 00       		.sleb128 0
 1486 072b 00       		.byte	0
 1487 072c 22       		.uleb128 0x22
 1488 072d 64000000 		.4byte	.LVL8
 1489 0731 CA080000 		.4byte	0x8ca
 1490 0735 25       		.uleb128 0x25
 1491 0736 7E000000 		.4byte	.LVL10
 1492 073a D1080000 		.4byte	0x8d1
 1493 073e 24       		.uleb128 0x24
 1494 073f 01       		.uleb128 0x1
 1495 0740 51       		.byte	0x51
 1496 0741 05       		.uleb128 0x5
 1497 0742 03       		.byte	0x3
 1498 0743 08000000 		.4byte	.LC1
 1499 0747 24       		.uleb128 0x24
 1500 0748 01       		.uleb128 0x1
 1501 0749 50       		.byte	0x50
 1502 074a 05       		.uleb128 0x5
 1503 074b 03       		.byte	0x3
 1504 074c 00000000 		.4byte	.LC0
 1505 0750 00       		.byte	0
 1506 0751 00       		.byte	0
 1507 0752 26       		.uleb128 0x26
 1508 0753 3A000000 		.4byte	.LVL0
 1509 0757 F1080000 		.4byte	0x8f1
 1510 075b 24       		.uleb128 0x24
 1511 075c 01       		.uleb128 0x1
 1512 075d 53       		.byte	0x53
 1513 075e 05       		.uleb128 0x5
 1514 075f 03       		.byte	0x3
 1515 0760 00000000 		.4byte	msg_thread1
 1516 0764 24       		.uleb128 0x24
 1517 0765 01       		.uleb128 0x1
 1518 0766 51       		.byte	0x51
 1519 0767 03       		.uleb128 0x3
ARM GAS  /tmp/cc2MVQ1V.s 			page 52


 1520 0768 0A       		.byte	0xa
 1521 0769 4801     		.2byte	0x148
 1522 076b 00       		.byte	0
 1523 076c 00       		.byte	0
 1524 076d 1C       		.uleb128 0x1c
 1525 076e FF000000 		.4byte	.LASF99
 1526 0772 01       		.byte	0x1
 1527 0773 32       		.byte	0x32
 1528 0774 00000000 		.4byte	.LFB219
 1529 0778 26000000 		.4byte	.LFE219-.LFB219
 1530 077c 01       		.uleb128 0x1
 1531 077d 9C       		.byte	0x9c
 1532 077e F5070000 		.4byte	0x7f5
 1533 0782 27       		.uleb128 0x27
 1534 0783 7000     		.ascii	"p\000"
 1535 0785 01       		.byte	0x1
 1536 0786 32       		.byte	0x32
 1537 0787 0D030000 		.4byte	0x30d
 1538 078b 54000000 		.4byte	.LLST2
 1539 078f 23       		.uleb128 0x23
 1540 0790 0A000000 		.4byte	.LVL12
 1541 0794 1A090000 		.4byte	0x91a
 1542 0798 A9070000 		.4byte	0x7a9
 1543 079c 24       		.uleb128 0x24
 1544 079d 01       		.uleb128 0x1
 1545 079e 51       		.byte	0x51
 1546 079f 02       		.uleb128 0x2
 1547 07a0 08       		.byte	0x8
 1548 07a1 41       		.byte	0x41
 1549 07a2 24       		.uleb128 0x24
 1550 07a3 01       		.uleb128 0x1
 1551 07a4 50       		.byte	0x50
 1552 07a5 02       		.uleb128 0x2
 1553 07a6 74       		.byte	0x74
 1554 07a7 00       		.sleb128 0
 1555 07a8 00       		.byte	0
 1556 07a9 23       		.uleb128 0x23
 1557 07aa 12000000 		.4byte	.LVL13
 1558 07ae 1A090000 		.4byte	0x91a
 1559 07b2 C3070000 		.4byte	0x7c3
 1560 07b6 24       		.uleb128 0x24
 1561 07b7 01       		.uleb128 0x1
 1562 07b8 51       		.byte	0x51
 1563 07b9 02       		.uleb128 0x2
 1564 07ba 08       		.byte	0x8
 1565 07bb 42       		.byte	0x42
 1566 07bc 24       		.uleb128 0x24
 1567 07bd 01       		.uleb128 0x1
 1568 07be 50       		.byte	0x50
 1569 07bf 02       		.uleb128 0x2
 1570 07c0 74       		.byte	0x74
 1571 07c1 00       		.sleb128 0
 1572 07c2 00       		.byte	0
 1573 07c3 23       		.uleb128 0x23
 1574 07c4 1A000000 		.4byte	.LVL14
 1575 07c8 1A090000 		.4byte	0x91a
 1576 07cc DD070000 		.4byte	0x7dd
ARM GAS  /tmp/cc2MVQ1V.s 			page 53


 1577 07d0 24       		.uleb128 0x24
 1578 07d1 01       		.uleb128 0x1
 1579 07d2 51       		.byte	0x51
 1580 07d3 02       		.uleb128 0x2
 1581 07d4 08       		.byte	0x8
 1582 07d5 43       		.byte	0x43
 1583 07d6 24       		.uleb128 0x24
 1584 07d7 01       		.uleb128 0x1
 1585 07d8 50       		.byte	0x50
 1586 07d9 02       		.uleb128 0x2
 1587 07da 74       		.byte	0x74
 1588 07db 00       		.sleb128 0
 1589 07dc 00       		.byte	0
 1590 07dd 25       		.uleb128 0x25
 1591 07de 26000000 		.4byte	.LVL16
 1592 07e2 1A090000 		.4byte	0x91a
 1593 07e6 24       		.uleb128 0x24
 1594 07e7 01       		.uleb128 0x1
 1595 07e8 51       		.byte	0x51
 1596 07e9 02       		.uleb128 0x2
 1597 07ea 08       		.byte	0x8
 1598 07eb 44       		.byte	0x44
 1599 07ec 24       		.uleb128 0x24
 1600 07ed 01       		.uleb128 0x1
 1601 07ee 50       		.byte	0x50
 1602 07ef 03       		.uleb128 0x3
 1603 07f0 F3       		.byte	0xf3
 1604 07f1 01       		.uleb128 0x1
 1605 07f2 50       		.byte	0x50
 1606 07f3 00       		.byte	0
 1607 07f4 00       		.byte	0
 1608 07f5 28       		.uleb128 0x28
 1609 07f6 91010000 		.4byte	.LASF100
 1610 07fa 01       		.byte	0x1
 1611 07fb 68       		.byte	0x68
 1612 07fc 06080000 		.4byte	0x806
 1613 0800 05       		.uleb128 0x5
 1614 0801 03       		.byte	0x3
 1615 0802 00000000 		.4byte	test_007_001
 1616 0806 12       		.uleb128 0x12
 1617 0807 31060000 		.4byte	0x631
 1618 080b 29       		.uleb128 0x29
 1619 080c 54010000 		.4byte	.LASF101
 1620 0810 0E       		.byte	0xe
 1621 0811 9606     		.2byte	0x696
 1622 0813 17080000 		.4byte	0x817
 1623 0817 13       		.uleb128 0x13
 1624 0818 C3000000 		.4byte	0xc3
 1625 081c 2A       		.uleb128 0x2a
 1626 081d 636800   		.ascii	"ch\000"
 1627 0820 08       		.byte	0x8
 1628 0821 D201     		.2byte	0x1d2
 1629 0823 DC030000 		.4byte	0x3dc
 1630 0827 2B       		.uleb128 0x2b
 1631 0828 48030000 		.4byte	.LASF102
 1632 082c 0D       		.byte	0xd
 1633 082d 9E       		.byte	0x9e
ARM GAS  /tmp/cc2MVQ1V.s 			page 54


 1634 082e 37000000 		.4byte	0x37
 1635 0832 1A       		.uleb128 0x1a
 1636 0833 42080000 		.4byte	0x842
 1637 0837 42080000 		.4byte	0x842
 1638 083b 1B       		.uleb128 0x1b
 1639 083c 29040000 		.4byte	0x429
 1640 0840 01       		.byte	0x1
 1641 0841 00       		.byte	0
 1642 0842 0A       		.uleb128 0xa
 1643 0843 04       		.byte	0x4
 1644 0844 06080000 		.4byte	0x806
 1645 0848 2C       		.uleb128 0x2c
 1646 0849 3A050000 		.4byte	.LASF103
 1647 084d 01       		.byte	0x1
 1648 084e 76       		.byte	0x76
 1649 084f 59080000 		.4byte	0x859
 1650 0853 05       		.uleb128 0x5
 1651 0854 03       		.byte	0x3
 1652 0855 00000000 		.4byte	test_sequence_007
 1653 0859 12       		.uleb128 0x12
 1654 085a 32080000 		.4byte	0x832
 1655 085e 1A       		.uleb128 0x1a
 1656 085f 30020000 		.4byte	0x230
 1657 0863 6E080000 		.4byte	0x86e
 1658 0867 1B       		.uleb128 0x1b
 1659 0868 29040000 		.4byte	0x429
 1660 086c 04       		.byte	0x4
 1661 086d 00       		.byte	0
 1662 086e 2B       		.uleb128 0x2b
 1663 086f 23040000 		.4byte	.LASF104
 1664 0873 0F       		.byte	0xf
 1665 0874 5C       		.byte	0x5c
 1666 0875 5E080000 		.4byte	0x85e
 1667 0879 1A       		.uleb128 0x1a
 1668 087a 0D030000 		.4byte	0x30d
 1669 087e 89080000 		.4byte	0x889
 1670 0882 1B       		.uleb128 0x1b
 1671 0883 29040000 		.4byte	0x429
 1672 0887 04       		.byte	0x4
 1673 0888 00       		.byte	0
 1674 0889 2D       		.uleb128 0x2d
 1675 088a 776100   		.ascii	"wa\000"
 1676 088d 0F       		.byte	0xf
 1677 088e 5D       		.byte	0x5d
 1678 088f 93080000 		.4byte	0x893
 1679 0893 12       		.uleb128 0x12
 1680 0894 79080000 		.4byte	0x879
 1681 0898 2E       		.uleb128 0x2e
 1682 0899 F5040000 		.4byte	.LASF114
 1683 089d 10       		.byte	0x10
 1684 089e 3D       		.byte	0x3d
 1685 089f 30020000 		.4byte	0x230
 1686 08a3 2F       		.uleb128 0x2f
 1687 08a4 4D040000 		.4byte	.LASF105
 1688 08a8 10       		.byte	0x10
 1689 08a9 3E       		.byte	0x3e
 1690 08aa B9080000 		.4byte	0x8b9
ARM GAS  /tmp/cc2MVQ1V.s 			page 55


 1691 08ae 0D       		.uleb128 0xd
 1692 08af 30020000 		.4byte	0x230
 1693 08b3 0D       		.uleb128 0xd
 1694 08b4 10010000 		.4byte	0x110
 1695 08b8 00       		.byte	0
 1696 08b9 2F       		.uleb128 0x2f
 1697 08ba 9E010000 		.4byte	.LASF106
 1698 08be 0D       		.byte	0xd
 1699 08bf AE       		.byte	0xae
 1700 08c0 CA080000 		.4byte	0x8ca
 1701 08c4 0D       		.uleb128 0xd
 1702 08c5 B6050000 		.4byte	0x5b6
 1703 08c9 00       		.byte	0
 1704 08ca 30       		.uleb128 0x30
 1705 08cb 52030000 		.4byte	.LASF115
 1706 08cf 0F       		.byte	0xf
 1707 08d0 61       		.byte	0x61
 1708 08d1 31       		.uleb128 0x31
 1709 08d2 89030000 		.4byte	.LASF107
 1710 08d6 0D       		.byte	0xd
 1711 08d7 A7       		.byte	0xa7
 1712 08d8 EA050000 		.4byte	0x5ea
 1713 08dc EB080000 		.4byte	0x8eb
 1714 08e0 0D       		.uleb128 0xd
 1715 08e1 EB080000 		.4byte	0x8eb
 1716 08e5 0D       		.uleb128 0xd
 1717 08e6 AB050000 		.4byte	0x5ab
 1718 08ea 00       		.byte	0
 1719 08eb 0A       		.uleb128 0xa
 1720 08ec 04       		.byte	0x4
 1721 08ed B6050000 		.4byte	0x5b6
 1722 08f1 31       		.uleb128 0x31
 1723 08f2 FA020000 		.4byte	.LASF108
 1724 08f6 02       		.byte	0x2
 1725 08f7 F3       		.byte	0xf3
 1726 08f8 30020000 		.4byte	0x230
 1727 08fc 1A090000 		.4byte	0x91a
 1728 0900 0D       		.uleb128 0xd
 1729 0901 0D030000 		.4byte	0x30d
 1730 0905 0D       		.uleb128 0xd
 1731 0906 2C000000 		.4byte	0x2c
 1732 090a 0D       		.uleb128 0xd
 1733 090b 05010000 		.4byte	0x105
 1734 090f 0D       		.uleb128 0xd
 1735 0910 CE050000 		.4byte	0x5ce
 1736 0914 0D       		.uleb128 0xd
 1737 0915 0D030000 		.4byte	0x30d
 1738 0919 00       		.byte	0
 1739 091a 32       		.uleb128 0x32
 1740 091b CD010000 		.4byte	.LASF109
 1741 091f 10       		.byte	0x10
 1742 0920 3C       		.byte	0x3c
 1743 0921 10010000 		.4byte	0x110
 1744 0925 0D       		.uleb128 0xd
 1745 0926 30020000 		.4byte	0x230
 1746 092a 0D       		.uleb128 0xd
 1747 092b 10010000 		.4byte	0x110
ARM GAS  /tmp/cc2MVQ1V.s 			page 56


 1748 092f 00       		.byte	0
 1749 0930 00       		.byte	0
 1750              		.section	.debug_abbrev,"",%progbits
 1751              	.Ldebug_abbrev0:
 1752 0000 01       		.uleb128 0x1
 1753 0001 11       		.uleb128 0x11
 1754 0002 01       		.byte	0x1
 1755 0003 25       		.uleb128 0x25
 1756 0004 0E       		.uleb128 0xe
 1757 0005 13       		.uleb128 0x13
 1758 0006 0B       		.uleb128 0xb
 1759 0007 03       		.uleb128 0x3
 1760 0008 0E       		.uleb128 0xe
 1761 0009 1B       		.uleb128 0x1b
 1762 000a 0E       		.uleb128 0xe
 1763 000b 55       		.uleb128 0x55
 1764 000c 17       		.uleb128 0x17
 1765 000d 11       		.uleb128 0x11
 1766 000e 01       		.uleb128 0x1
 1767 000f 10       		.uleb128 0x10
 1768 0010 17       		.uleb128 0x17
 1769 0011 00       		.byte	0
 1770 0012 00       		.byte	0
 1771 0013 02       		.uleb128 0x2
 1772 0014 24       		.uleb128 0x24
 1773 0015 00       		.byte	0
 1774 0016 0B       		.uleb128 0xb
 1775 0017 0B       		.uleb128 0xb
 1776 0018 3E       		.uleb128 0x3e
 1777 0019 0B       		.uleb128 0xb
 1778 001a 03       		.uleb128 0x3
 1779 001b 08       		.uleb128 0x8
 1780 001c 00       		.byte	0
 1781 001d 00       		.byte	0
 1782 001e 03       		.uleb128 0x3
 1783 001f 16       		.uleb128 0x16
 1784 0020 00       		.byte	0
 1785 0021 03       		.uleb128 0x3
 1786 0022 0E       		.uleb128 0xe
 1787 0023 3A       		.uleb128 0x3a
 1788 0024 0B       		.uleb128 0xb
 1789 0025 3B       		.uleb128 0x3b
 1790 0026 0B       		.uleb128 0xb
 1791 0027 49       		.uleb128 0x49
 1792 0028 13       		.uleb128 0x13
 1793 0029 00       		.byte	0
 1794 002a 00       		.byte	0
 1795 002b 04       		.uleb128 0x4
 1796 002c 24       		.uleb128 0x24
 1797 002d 00       		.byte	0
 1798 002e 0B       		.uleb128 0xb
 1799 002f 0B       		.uleb128 0xb
 1800 0030 3E       		.uleb128 0x3e
 1801 0031 0B       		.uleb128 0xb
 1802 0032 03       		.uleb128 0x3
 1803 0033 0E       		.uleb128 0xe
 1804 0034 00       		.byte	0
ARM GAS  /tmp/cc2MVQ1V.s 			page 57


 1805 0035 00       		.byte	0
 1806 0036 05       		.uleb128 0x5
 1807 0037 13       		.uleb128 0x13
 1808 0038 01       		.byte	0x1
 1809 0039 03       		.uleb128 0x3
 1810 003a 0E       		.uleb128 0xe
 1811 003b 0B       		.uleb128 0xb
 1812 003c 0B       		.uleb128 0xb
 1813 003d 3A       		.uleb128 0x3a
 1814 003e 0B       		.uleb128 0xb
 1815 003f 3B       		.uleb128 0x3b
 1816 0040 0B       		.uleb128 0xb
 1817 0041 01       		.uleb128 0x1
 1818 0042 13       		.uleb128 0x13
 1819 0043 00       		.byte	0
 1820 0044 00       		.byte	0
 1821 0045 06       		.uleb128 0x6
 1822 0046 0D       		.uleb128 0xd
 1823 0047 00       		.byte	0
 1824 0048 03       		.uleb128 0x3
 1825 0049 0E       		.uleb128 0xe
 1826 004a 3A       		.uleb128 0x3a
 1827 004b 0B       		.uleb128 0xb
 1828 004c 3B       		.uleb128 0x3b
 1829 004d 0B       		.uleb128 0xb
 1830 004e 49       		.uleb128 0x49
 1831 004f 13       		.uleb128 0x13
 1832 0050 38       		.uleb128 0x38
 1833 0051 0B       		.uleb128 0xb
 1834 0052 00       		.byte	0
 1835 0053 00       		.byte	0
 1836 0054 07       		.uleb128 0x7
 1837 0055 0D       		.uleb128 0xd
 1838 0056 00       		.byte	0
 1839 0057 03       		.uleb128 0x3
 1840 0058 08       		.uleb128 0x8
 1841 0059 3A       		.uleb128 0x3a
 1842 005a 0B       		.uleb128 0xb
 1843 005b 3B       		.uleb128 0x3b
 1844 005c 0B       		.uleb128 0xb
 1845 005d 49       		.uleb128 0x49
 1846 005e 13       		.uleb128 0x13
 1847 005f 38       		.uleb128 0x38
 1848 0060 0B       		.uleb128 0xb
 1849 0061 00       		.byte	0
 1850 0062 00       		.byte	0
 1851 0063 08       		.uleb128 0x8
 1852 0064 0D       		.uleb128 0xd
 1853 0065 00       		.byte	0
 1854 0066 03       		.uleb128 0x3
 1855 0067 08       		.uleb128 0x8
 1856 0068 3A       		.uleb128 0x3a
 1857 0069 0B       		.uleb128 0xb
 1858 006a 3B       		.uleb128 0x3b
 1859 006b 05       		.uleb128 0x5
 1860 006c 49       		.uleb128 0x49
 1861 006d 13       		.uleb128 0x13
ARM GAS  /tmp/cc2MVQ1V.s 			page 58


 1862 006e 38       		.uleb128 0x38
 1863 006f 0B       		.uleb128 0xb
 1864 0070 00       		.byte	0
 1865 0071 00       		.byte	0
 1866 0072 09       		.uleb128 0x9
 1867 0073 0D       		.uleb128 0xd
 1868 0074 00       		.byte	0
 1869 0075 03       		.uleb128 0x3
 1870 0076 0E       		.uleb128 0xe
 1871 0077 3A       		.uleb128 0x3a
 1872 0078 0B       		.uleb128 0xb
 1873 0079 3B       		.uleb128 0x3b
 1874 007a 05       		.uleb128 0x5
 1875 007b 49       		.uleb128 0x49
 1876 007c 13       		.uleb128 0x13
 1877 007d 38       		.uleb128 0x38
 1878 007e 0B       		.uleb128 0xb
 1879 007f 00       		.byte	0
 1880 0080 00       		.byte	0
 1881 0081 0A       		.uleb128 0xa
 1882 0082 0F       		.uleb128 0xf
 1883 0083 00       		.byte	0
 1884 0084 0B       		.uleb128 0xb
 1885 0085 0B       		.uleb128 0xb
 1886 0086 49       		.uleb128 0x49
 1887 0087 13       		.uleb128 0x13
 1888 0088 00       		.byte	0
 1889 0089 00       		.byte	0
 1890 008a 0B       		.uleb128 0xb
 1891 008b 13       		.uleb128 0x13
 1892 008c 01       		.byte	0x1
 1893 008d 03       		.uleb128 0x3
 1894 008e 0E       		.uleb128 0xe
 1895 008f 0B       		.uleb128 0xb
 1896 0090 0B       		.uleb128 0xb
 1897 0091 3A       		.uleb128 0x3a
 1898 0092 0B       		.uleb128 0xb
 1899 0093 3B       		.uleb128 0x3b
 1900 0094 05       		.uleb128 0x5
 1901 0095 01       		.uleb128 0x1
 1902 0096 13       		.uleb128 0x13
 1903 0097 00       		.byte	0
 1904 0098 00       		.byte	0
 1905 0099 0C       		.uleb128 0xc
 1906 009a 15       		.uleb128 0x15
 1907 009b 01       		.byte	0x1
 1908 009c 27       		.uleb128 0x27
 1909 009d 19       		.uleb128 0x19
 1910 009e 01       		.uleb128 0x1
 1911 009f 13       		.uleb128 0x13
 1912 00a0 00       		.byte	0
 1913 00a1 00       		.byte	0
 1914 00a2 0D       		.uleb128 0xd
 1915 00a3 05       		.uleb128 0x5
 1916 00a4 00       		.byte	0
 1917 00a5 49       		.uleb128 0x49
 1918 00a6 13       		.uleb128 0x13
ARM GAS  /tmp/cc2MVQ1V.s 			page 59


 1919 00a7 00       		.byte	0
 1920 00a8 00       		.byte	0
 1921 00a9 0E       		.uleb128 0xe
 1922 00aa 0F       		.uleb128 0xf
 1923 00ab 00       		.byte	0
 1924 00ac 0B       		.uleb128 0xb
 1925 00ad 0B       		.uleb128 0xb
 1926 00ae 00       		.byte	0
 1927 00af 00       		.byte	0
 1928 00b0 0F       		.uleb128 0xf
 1929 00b1 17       		.uleb128 0x17
 1930 00b2 01       		.byte	0x1
 1931 00b3 0B       		.uleb128 0xb
 1932 00b4 0B       		.uleb128 0xb
 1933 00b5 3A       		.uleb128 0x3a
 1934 00b6 0B       		.uleb128 0xb
 1935 00b7 3B       		.uleb128 0x3b
 1936 00b8 0B       		.uleb128 0xb
 1937 00b9 01       		.uleb128 0x1
 1938 00ba 13       		.uleb128 0x13
 1939 00bb 00       		.byte	0
 1940 00bc 00       		.byte	0
 1941 00bd 10       		.uleb128 0x10
 1942 00be 0D       		.uleb128 0xd
 1943 00bf 00       		.byte	0
 1944 00c0 03       		.uleb128 0x3
 1945 00c1 0E       		.uleb128 0xe
 1946 00c2 3A       		.uleb128 0x3a
 1947 00c3 0B       		.uleb128 0xb
 1948 00c4 3B       		.uleb128 0x3b
 1949 00c5 0B       		.uleb128 0xb
 1950 00c6 49       		.uleb128 0x49
 1951 00c7 13       		.uleb128 0x13
 1952 00c8 00       		.byte	0
 1953 00c9 00       		.byte	0
 1954 00ca 11       		.uleb128 0x11
 1955 00cb 0D       		.uleb128 0xd
 1956 00cc 00       		.byte	0
 1957 00cd 03       		.uleb128 0x3
 1958 00ce 0E       		.uleb128 0xe
 1959 00cf 3A       		.uleb128 0x3a
 1960 00d0 0B       		.uleb128 0xb
 1961 00d1 3B       		.uleb128 0x3b
 1962 00d2 05       		.uleb128 0x5
 1963 00d3 49       		.uleb128 0x49
 1964 00d4 13       		.uleb128 0x13
 1965 00d5 00       		.byte	0
 1966 00d6 00       		.byte	0
 1967 00d7 12       		.uleb128 0x12
 1968 00d8 26       		.uleb128 0x26
 1969 00d9 00       		.byte	0
 1970 00da 49       		.uleb128 0x49
 1971 00db 13       		.uleb128 0x13
 1972 00dc 00       		.byte	0
 1973 00dd 00       		.byte	0
 1974 00de 13       		.uleb128 0x13
 1975 00df 35       		.uleb128 0x35
ARM GAS  /tmp/cc2MVQ1V.s 			page 60


 1976 00e0 00       		.byte	0
 1977 00e1 49       		.uleb128 0x49
 1978 00e2 13       		.uleb128 0x13
 1979 00e3 00       		.byte	0
 1980 00e4 00       		.byte	0
 1981 00e5 14       		.uleb128 0x14
 1982 00e6 15       		.uleb128 0x15
 1983 00e7 00       		.byte	0
 1984 00e8 27       		.uleb128 0x27
 1985 00e9 19       		.uleb128 0x19
 1986 00ea 00       		.byte	0
 1987 00eb 00       		.byte	0
 1988 00ec 15       		.uleb128 0x15
 1989 00ed 13       		.uleb128 0x13
 1990 00ee 01       		.byte	0x1
 1991 00ef 0B       		.uleb128 0xb
 1992 00f0 0B       		.uleb128 0xb
 1993 00f1 3A       		.uleb128 0x3a
 1994 00f2 0B       		.uleb128 0xb
 1995 00f3 3B       		.uleb128 0x3b
 1996 00f4 0B       		.uleb128 0xb
 1997 00f5 01       		.uleb128 0x1
 1998 00f6 13       		.uleb128 0x13
 1999 00f7 00       		.byte	0
 2000 00f8 00       		.byte	0
 2001 00f9 16       		.uleb128 0x16
 2002 00fa 2E       		.uleb128 0x2e
 2003 00fb 00       		.byte	0
 2004 00fc 03       		.uleb128 0x3
 2005 00fd 0E       		.uleb128 0xe
 2006 00fe 3A       		.uleb128 0x3a
 2007 00ff 0B       		.uleb128 0xb
 2008 0100 3B       		.uleb128 0x3b
 2009 0101 05       		.uleb128 0x5
 2010 0102 27       		.uleb128 0x27
 2011 0103 19       		.uleb128 0x19
 2012 0104 49       		.uleb128 0x49
 2013 0105 13       		.uleb128 0x13
 2014 0106 20       		.uleb128 0x20
 2015 0107 0B       		.uleb128 0xb
 2016 0108 00       		.byte	0
 2017 0109 00       		.byte	0
 2018 010a 17       		.uleb128 0x17
 2019 010b 2E       		.uleb128 0x2e
 2020 010c 01       		.byte	0x1
 2021 010d 03       		.uleb128 0x3
 2022 010e 0E       		.uleb128 0xe
 2023 010f 3A       		.uleb128 0x3a
 2024 0110 0B       		.uleb128 0xb
 2025 0111 3B       		.uleb128 0x3b
 2026 0112 0B       		.uleb128 0xb
 2027 0113 27       		.uleb128 0x27
 2028 0114 19       		.uleb128 0x19
 2029 0115 49       		.uleb128 0x49
 2030 0116 13       		.uleb128 0x13
 2031 0117 20       		.uleb128 0x20
 2032 0118 0B       		.uleb128 0xb
ARM GAS  /tmp/cc2MVQ1V.s 			page 61


 2033 0119 01       		.uleb128 0x1
 2034 011a 13       		.uleb128 0x13
 2035 011b 00       		.byte	0
 2036 011c 00       		.byte	0
 2037 011d 18       		.uleb128 0x18
 2038 011e 05       		.uleb128 0x5
 2039 011f 00       		.byte	0
 2040 0120 03       		.uleb128 0x3
 2041 0121 08       		.uleb128 0x8
 2042 0122 3A       		.uleb128 0x3a
 2043 0123 0B       		.uleb128 0xb
 2044 0124 3B       		.uleb128 0x3b
 2045 0125 0B       		.uleb128 0xb
 2046 0126 49       		.uleb128 0x49
 2047 0127 13       		.uleb128 0x13
 2048 0128 00       		.byte	0
 2049 0129 00       		.byte	0
 2050 012a 19       		.uleb128 0x19
 2051 012b 34       		.uleb128 0x34
 2052 012c 00       		.byte	0
 2053 012d 03       		.uleb128 0x3
 2054 012e 0E       		.uleb128 0xe
 2055 012f 49       		.uleb128 0x49
 2056 0130 13       		.uleb128 0x13
 2057 0131 34       		.uleb128 0x34
 2058 0132 19       		.uleb128 0x19
 2059 0133 1C       		.uleb128 0x1c
 2060 0134 0E       		.uleb128 0xe
 2061 0135 00       		.byte	0
 2062 0136 00       		.byte	0
 2063 0137 1A       		.uleb128 0x1a
 2064 0138 01       		.uleb128 0x1
 2065 0139 01       		.byte	0x1
 2066 013a 49       		.uleb128 0x49
 2067 013b 13       		.uleb128 0x13
 2068 013c 01       		.uleb128 0x1
 2069 013d 13       		.uleb128 0x13
 2070 013e 00       		.byte	0
 2071 013f 00       		.byte	0
 2072 0140 1B       		.uleb128 0x1b
 2073 0141 21       		.uleb128 0x21
 2074 0142 00       		.byte	0
 2075 0143 49       		.uleb128 0x49
 2076 0144 13       		.uleb128 0x13
 2077 0145 2F       		.uleb128 0x2f
 2078 0146 0B       		.uleb128 0xb
 2079 0147 00       		.byte	0
 2080 0148 00       		.byte	0
 2081 0149 1C       		.uleb128 0x1c
 2082 014a 2E       		.uleb128 0x2e
 2083 014b 01       		.byte	0x1
 2084 014c 03       		.uleb128 0x3
 2085 014d 0E       		.uleb128 0xe
 2086 014e 3A       		.uleb128 0x3a
 2087 014f 0B       		.uleb128 0xb
 2088 0150 3B       		.uleb128 0x3b
 2089 0151 0B       		.uleb128 0xb
ARM GAS  /tmp/cc2MVQ1V.s 			page 62


 2090 0152 27       		.uleb128 0x27
 2091 0153 19       		.uleb128 0x19
 2092 0154 11       		.uleb128 0x11
 2093 0155 01       		.uleb128 0x1
 2094 0156 12       		.uleb128 0x12
 2095 0157 06       		.uleb128 0x6
 2096 0158 40       		.uleb128 0x40
 2097 0159 18       		.uleb128 0x18
 2098 015a 9742     		.uleb128 0x2117
 2099 015c 19       		.uleb128 0x19
 2100 015d 01       		.uleb128 0x1
 2101 015e 13       		.uleb128 0x13
 2102 015f 00       		.byte	0
 2103 0160 00       		.byte	0
 2104 0161 1D       		.uleb128 0x1d
 2105 0162 34       		.uleb128 0x34
 2106 0163 00       		.byte	0
 2107 0164 03       		.uleb128 0x3
 2108 0165 08       		.uleb128 0x8
 2109 0166 3A       		.uleb128 0x3a
 2110 0167 0B       		.uleb128 0xb
 2111 0168 3B       		.uleb128 0x3b
 2112 0169 0B       		.uleb128 0xb
 2113 016a 49       		.uleb128 0x49
 2114 016b 13       		.uleb128 0x13
 2115 016c 02       		.uleb128 0x2
 2116 016d 17       		.uleb128 0x17
 2117 016e 00       		.byte	0
 2118 016f 00       		.byte	0
 2119 0170 1E       		.uleb128 0x1e
 2120 0171 34       		.uleb128 0x34
 2121 0172 00       		.byte	0
 2122 0173 03       		.uleb128 0x3
 2123 0174 08       		.uleb128 0x8
 2124 0175 3A       		.uleb128 0x3a
 2125 0176 0B       		.uleb128 0xb
 2126 0177 3B       		.uleb128 0x3b
 2127 0178 0B       		.uleb128 0xb
 2128 0179 49       		.uleb128 0x49
 2129 017a 13       		.uleb128 0x13
 2130 017b 00       		.byte	0
 2131 017c 00       		.byte	0
 2132 017d 1F       		.uleb128 0x1f
 2133 017e 1D       		.uleb128 0x1d
 2134 017f 01       		.byte	0x1
 2135 0180 31       		.uleb128 0x31
 2136 0181 13       		.uleb128 0x13
 2137 0182 11       		.uleb128 0x11
 2138 0183 01       		.uleb128 0x1
 2139 0184 12       		.uleb128 0x12
 2140 0185 06       		.uleb128 0x6
 2141 0186 58       		.uleb128 0x58
 2142 0187 0B       		.uleb128 0xb
 2143 0188 59       		.uleb128 0x59
 2144 0189 0B       		.uleb128 0xb
 2145 018a 01       		.uleb128 0x1
 2146 018b 13       		.uleb128 0x13
ARM GAS  /tmp/cc2MVQ1V.s 			page 63


 2147 018c 00       		.byte	0
 2148 018d 00       		.byte	0
 2149 018e 20       		.uleb128 0x20
 2150 018f 1D       		.uleb128 0x1d
 2151 0190 00       		.byte	0
 2152 0191 31       		.uleb128 0x31
 2153 0192 13       		.uleb128 0x13
 2154 0193 11       		.uleb128 0x11
 2155 0194 01       		.uleb128 0x1
 2156 0195 12       		.uleb128 0x12
 2157 0196 06       		.uleb128 0x6
 2158 0197 58       		.uleb128 0x58
 2159 0198 0B       		.uleb128 0xb
 2160 0199 59       		.uleb128 0x59
 2161 019a 05       		.uleb128 0x5
 2162 019b 00       		.byte	0
 2163 019c 00       		.byte	0
 2164 019d 21       		.uleb128 0x21
 2165 019e 0B       		.uleb128 0xb
 2166 019f 01       		.byte	0x1
 2167 01a0 55       		.uleb128 0x55
 2168 01a1 17       		.uleb128 0x17
 2169 01a2 01       		.uleb128 0x1
 2170 01a3 13       		.uleb128 0x13
 2171 01a4 00       		.byte	0
 2172 01a5 00       		.byte	0
 2173 01a6 22       		.uleb128 0x22
 2174 01a7 898201   		.uleb128 0x4109
 2175 01aa 00       		.byte	0
 2176 01ab 11       		.uleb128 0x11
 2177 01ac 01       		.uleb128 0x1
 2178 01ad 31       		.uleb128 0x31
 2179 01ae 13       		.uleb128 0x13
 2180 01af 00       		.byte	0
 2181 01b0 00       		.byte	0
 2182 01b1 23       		.uleb128 0x23
 2183 01b2 898201   		.uleb128 0x4109
 2184 01b5 01       		.byte	0x1
 2185 01b6 11       		.uleb128 0x11
 2186 01b7 01       		.uleb128 0x1
 2187 01b8 31       		.uleb128 0x31
 2188 01b9 13       		.uleb128 0x13
 2189 01ba 01       		.uleb128 0x1
 2190 01bb 13       		.uleb128 0x13
 2191 01bc 00       		.byte	0
 2192 01bd 00       		.byte	0
 2193 01be 24       		.uleb128 0x24
 2194 01bf 8A8201   		.uleb128 0x410a
 2195 01c2 00       		.byte	0
 2196 01c3 02       		.uleb128 0x2
 2197 01c4 18       		.uleb128 0x18
 2198 01c5 9142     		.uleb128 0x2111
 2199 01c7 18       		.uleb128 0x18
 2200 01c8 00       		.byte	0
 2201 01c9 00       		.byte	0
 2202 01ca 25       		.uleb128 0x25
 2203 01cb 898201   		.uleb128 0x4109
ARM GAS  /tmp/cc2MVQ1V.s 			page 64


 2204 01ce 01       		.byte	0x1
 2205 01cf 11       		.uleb128 0x11
 2206 01d0 01       		.uleb128 0x1
 2207 01d1 9542     		.uleb128 0x2115
 2208 01d3 19       		.uleb128 0x19
 2209 01d4 31       		.uleb128 0x31
 2210 01d5 13       		.uleb128 0x13
 2211 01d6 00       		.byte	0
 2212 01d7 00       		.byte	0
 2213 01d8 26       		.uleb128 0x26
 2214 01d9 898201   		.uleb128 0x4109
 2215 01dc 01       		.byte	0x1
 2216 01dd 11       		.uleb128 0x11
 2217 01de 01       		.uleb128 0x1
 2218 01df 31       		.uleb128 0x31
 2219 01e0 13       		.uleb128 0x13
 2220 01e1 00       		.byte	0
 2221 01e2 00       		.byte	0
 2222 01e3 27       		.uleb128 0x27
 2223 01e4 05       		.uleb128 0x5
 2224 01e5 00       		.byte	0
 2225 01e6 03       		.uleb128 0x3
 2226 01e7 08       		.uleb128 0x8
 2227 01e8 3A       		.uleb128 0x3a
 2228 01e9 0B       		.uleb128 0xb
 2229 01ea 3B       		.uleb128 0x3b
 2230 01eb 0B       		.uleb128 0xb
 2231 01ec 49       		.uleb128 0x49
 2232 01ed 13       		.uleb128 0x13
 2233 01ee 02       		.uleb128 0x2
 2234 01ef 17       		.uleb128 0x17
 2235 01f0 00       		.byte	0
 2236 01f1 00       		.byte	0
 2237 01f2 28       		.uleb128 0x28
 2238 01f3 34       		.uleb128 0x34
 2239 01f4 00       		.byte	0
 2240 01f5 03       		.uleb128 0x3
 2241 01f6 0E       		.uleb128 0xe
 2242 01f7 3A       		.uleb128 0x3a
 2243 01f8 0B       		.uleb128 0xb
 2244 01f9 3B       		.uleb128 0x3b
 2245 01fa 0B       		.uleb128 0xb
 2246 01fb 49       		.uleb128 0x49
 2247 01fc 13       		.uleb128 0x13
 2248 01fd 02       		.uleb128 0x2
 2249 01fe 18       		.uleb128 0x18
 2250 01ff 00       		.byte	0
 2251 0200 00       		.byte	0
 2252 0201 29       		.uleb128 0x29
 2253 0202 34       		.uleb128 0x34
 2254 0203 00       		.byte	0
 2255 0204 03       		.uleb128 0x3
 2256 0205 0E       		.uleb128 0xe
 2257 0206 3A       		.uleb128 0x3a
 2258 0207 0B       		.uleb128 0xb
 2259 0208 3B       		.uleb128 0x3b
 2260 0209 05       		.uleb128 0x5
ARM GAS  /tmp/cc2MVQ1V.s 			page 65


 2261 020a 49       		.uleb128 0x49
 2262 020b 13       		.uleb128 0x13
 2263 020c 3F       		.uleb128 0x3f
 2264 020d 19       		.uleb128 0x19
 2265 020e 3C       		.uleb128 0x3c
 2266 020f 19       		.uleb128 0x19
 2267 0210 00       		.byte	0
 2268 0211 00       		.byte	0
 2269 0212 2A       		.uleb128 0x2a
 2270 0213 34       		.uleb128 0x34
 2271 0214 00       		.byte	0
 2272 0215 03       		.uleb128 0x3
 2273 0216 08       		.uleb128 0x8
 2274 0217 3A       		.uleb128 0x3a
 2275 0218 0B       		.uleb128 0xb
 2276 0219 3B       		.uleb128 0x3b
 2277 021a 05       		.uleb128 0x5
 2278 021b 49       		.uleb128 0x49
 2279 021c 13       		.uleb128 0x13
 2280 021d 3F       		.uleb128 0x3f
 2281 021e 19       		.uleb128 0x19
 2282 021f 3C       		.uleb128 0x3c
 2283 0220 19       		.uleb128 0x19
 2284 0221 00       		.byte	0
 2285 0222 00       		.byte	0
 2286 0223 2B       		.uleb128 0x2b
 2287 0224 34       		.uleb128 0x34
 2288 0225 00       		.byte	0
 2289 0226 03       		.uleb128 0x3
 2290 0227 0E       		.uleb128 0xe
 2291 0228 3A       		.uleb128 0x3a
 2292 0229 0B       		.uleb128 0xb
 2293 022a 3B       		.uleb128 0x3b
 2294 022b 0B       		.uleb128 0xb
 2295 022c 49       		.uleb128 0x49
 2296 022d 13       		.uleb128 0x13
 2297 022e 3F       		.uleb128 0x3f
 2298 022f 19       		.uleb128 0x19
 2299 0230 3C       		.uleb128 0x3c
 2300 0231 19       		.uleb128 0x19
 2301 0232 00       		.byte	0
 2302 0233 00       		.byte	0
 2303 0234 2C       		.uleb128 0x2c
 2304 0235 34       		.uleb128 0x34
 2305 0236 00       		.byte	0
 2306 0237 03       		.uleb128 0x3
 2307 0238 0E       		.uleb128 0xe
 2308 0239 3A       		.uleb128 0x3a
 2309 023a 0B       		.uleb128 0xb
 2310 023b 3B       		.uleb128 0x3b
 2311 023c 0B       		.uleb128 0xb
 2312 023d 49       		.uleb128 0x49
 2313 023e 13       		.uleb128 0x13
 2314 023f 3F       		.uleb128 0x3f
 2315 0240 19       		.uleb128 0x19
 2316 0241 02       		.uleb128 0x2
 2317 0242 18       		.uleb128 0x18
ARM GAS  /tmp/cc2MVQ1V.s 			page 66


 2318 0243 00       		.byte	0
 2319 0244 00       		.byte	0
 2320 0245 2D       		.uleb128 0x2d
 2321 0246 34       		.uleb128 0x34
 2322 0247 00       		.byte	0
 2323 0248 03       		.uleb128 0x3
 2324 0249 08       		.uleb128 0x8
 2325 024a 3A       		.uleb128 0x3a
 2326 024b 0B       		.uleb128 0xb
 2327 024c 3B       		.uleb128 0x3b
 2328 024d 0B       		.uleb128 0xb
 2329 024e 49       		.uleb128 0x49
 2330 024f 13       		.uleb128 0x13
 2331 0250 3F       		.uleb128 0x3f
 2332 0251 19       		.uleb128 0x19
 2333 0252 3C       		.uleb128 0x3c
 2334 0253 19       		.uleb128 0x19
 2335 0254 00       		.byte	0
 2336 0255 00       		.byte	0
 2337 0256 2E       		.uleb128 0x2e
 2338 0257 2E       		.uleb128 0x2e
 2339 0258 00       		.byte	0
 2340 0259 3F       		.uleb128 0x3f
 2341 025a 19       		.uleb128 0x19
 2342 025b 03       		.uleb128 0x3
 2343 025c 0E       		.uleb128 0xe
 2344 025d 3A       		.uleb128 0x3a
 2345 025e 0B       		.uleb128 0xb
 2346 025f 3B       		.uleb128 0x3b
 2347 0260 0B       		.uleb128 0xb
 2348 0261 27       		.uleb128 0x27
 2349 0262 19       		.uleb128 0x19
 2350 0263 49       		.uleb128 0x49
 2351 0264 13       		.uleb128 0x13
 2352 0265 3C       		.uleb128 0x3c
 2353 0266 19       		.uleb128 0x19
 2354 0267 00       		.byte	0
 2355 0268 00       		.byte	0
 2356 0269 2F       		.uleb128 0x2f
 2357 026a 2E       		.uleb128 0x2e
 2358 026b 01       		.byte	0x1
 2359 026c 3F       		.uleb128 0x3f
 2360 026d 19       		.uleb128 0x19
 2361 026e 03       		.uleb128 0x3
 2362 026f 0E       		.uleb128 0xe
 2363 0270 3A       		.uleb128 0x3a
 2364 0271 0B       		.uleb128 0xb
 2365 0272 3B       		.uleb128 0x3b
 2366 0273 0B       		.uleb128 0xb
 2367 0274 27       		.uleb128 0x27
 2368 0275 19       		.uleb128 0x19
 2369 0276 3C       		.uleb128 0x3c
 2370 0277 19       		.uleb128 0x19
 2371 0278 01       		.uleb128 0x1
 2372 0279 13       		.uleb128 0x13
 2373 027a 00       		.byte	0
 2374 027b 00       		.byte	0
ARM GAS  /tmp/cc2MVQ1V.s 			page 67


 2375 027c 30       		.uleb128 0x30
 2376 027d 2E       		.uleb128 0x2e
 2377 027e 00       		.byte	0
 2378 027f 3F       		.uleb128 0x3f
 2379 0280 19       		.uleb128 0x19
 2380 0281 03       		.uleb128 0x3
 2381 0282 0E       		.uleb128 0xe
 2382 0283 3A       		.uleb128 0x3a
 2383 0284 0B       		.uleb128 0xb
 2384 0285 3B       		.uleb128 0x3b
 2385 0286 0B       		.uleb128 0xb
 2386 0287 27       		.uleb128 0x27
 2387 0288 19       		.uleb128 0x19
 2388 0289 3C       		.uleb128 0x3c
 2389 028a 19       		.uleb128 0x19
 2390 028b 00       		.byte	0
 2391 028c 00       		.byte	0
 2392 028d 31       		.uleb128 0x31
 2393 028e 2E       		.uleb128 0x2e
 2394 028f 01       		.byte	0x1
 2395 0290 3F       		.uleb128 0x3f
 2396 0291 19       		.uleb128 0x19
 2397 0292 03       		.uleb128 0x3
 2398 0293 0E       		.uleb128 0xe
 2399 0294 3A       		.uleb128 0x3a
 2400 0295 0B       		.uleb128 0xb
 2401 0296 3B       		.uleb128 0x3b
 2402 0297 0B       		.uleb128 0xb
 2403 0298 27       		.uleb128 0x27
 2404 0299 19       		.uleb128 0x19
 2405 029a 49       		.uleb128 0x49
 2406 029b 13       		.uleb128 0x13
 2407 029c 3C       		.uleb128 0x3c
 2408 029d 19       		.uleb128 0x19
 2409 029e 01       		.uleb128 0x1
 2410 029f 13       		.uleb128 0x13
 2411 02a0 00       		.byte	0
 2412 02a1 00       		.byte	0
 2413 02a2 32       		.uleb128 0x32
 2414 02a3 2E       		.uleb128 0x2e
 2415 02a4 01       		.byte	0x1
 2416 02a5 3F       		.uleb128 0x3f
 2417 02a6 19       		.uleb128 0x19
 2418 02a7 03       		.uleb128 0x3
 2419 02a8 0E       		.uleb128 0xe
 2420 02a9 3A       		.uleb128 0x3a
 2421 02aa 0B       		.uleb128 0xb
 2422 02ab 3B       		.uleb128 0x3b
 2423 02ac 0B       		.uleb128 0xb
 2424 02ad 27       		.uleb128 0x27
 2425 02ae 19       		.uleb128 0x19
 2426 02af 49       		.uleb128 0x49
 2427 02b0 13       		.uleb128 0x13
 2428 02b1 3C       		.uleb128 0x3c
 2429 02b2 19       		.uleb128 0x19
 2430 02b3 00       		.byte	0
 2431 02b4 00       		.byte	0
ARM GAS  /tmp/cc2MVQ1V.s 			page 68


 2432 02b5 00       		.byte	0
 2433              		.section	.debug_loc,"",%progbits
 2434              	.Ldebug_loc0:
 2435              	.LLST0:
 2436 0000 4E000000 		.4byte	.LVL3
 2437 0004 55000000 		.4byte	.LVL5-1
 2438 0008 0100     		.2byte	0x1
 2439 000a 50       		.byte	0x50
 2440 000b 00000000 		.4byte	0
 2441 000f 00000000 		.4byte	0
 2442              	.LLST1:
 2443 0013 46000000 		.4byte	.LVL1
 2444 0017 4A000000 		.4byte	.LVL2
 2445 001b 0200     		.2byte	0x2
 2446 001d 30       		.byte	0x30
 2447 001e 9F       		.byte	0x9f
 2448 001f 4A000000 		.4byte	.LVL2
 2449 0023 5C000000 		.4byte	.LVL6
 2450 0027 0500     		.2byte	0x5
 2451 0029 34       		.byte	0x34
 2452 002a 74       		.byte	0x74
 2453 002b 00       		.sleb128 0
 2454 002c 1C       		.byte	0x1c
 2455 002d 9F       		.byte	0x9f
 2456 002e 5C000000 		.4byte	.LVL6
 2457 0032 5E000000 		.4byte	.LVL7
 2458 0036 0500     		.2byte	0x5
 2459 0038 35       		.byte	0x35
 2460 0039 74       		.byte	0x74
 2461 003a 00       		.sleb128 0
 2462 003b 1C       		.byte	0x1c
 2463 003c 9F       		.byte	0x9f
 2464 003d 5E000000 		.4byte	.LVL7
 2465 0041 7A000000 		.4byte	.LVL9
 2466 0045 0500     		.2byte	0x5
 2467 0047 34       		.byte	0x34
 2468 0048 74       		.byte	0x74
 2469 0049 00       		.sleb128 0
 2470 004a 1C       		.byte	0x1c
 2471 004b 9F       		.byte	0x9f
 2472 004c 00000000 		.4byte	0
 2473 0050 00000000 		.4byte	0
 2474              	.LLST2:
 2475 0054 00000000 		.4byte	.LVL11
 2476 0058 09000000 		.4byte	.LVL12-1
 2477 005c 0100     		.2byte	0x1
 2478 005e 50       		.byte	0x50
 2479 005f 09000000 		.4byte	.LVL12-1
 2480 0063 22000000 		.4byte	.LVL15
 2481 0067 0100     		.2byte	0x1
 2482 0069 54       		.byte	0x54
 2483 006a 22000000 		.4byte	.LVL15
 2484 006e 25000000 		.4byte	.LVL16-1
 2485 0072 0100     		.2byte	0x1
 2486 0074 50       		.byte	0x50
 2487 0075 25000000 		.4byte	.LVL16-1
 2488 0079 26000000 		.4byte	.LFE219
ARM GAS  /tmp/cc2MVQ1V.s 			page 69


 2489 007d 0400     		.2byte	0x4
 2490 007f F3       		.byte	0xf3
 2491 0080 01       		.uleb128 0x1
 2492 0081 50       		.byte	0x50
 2493 0082 9F       		.byte	0x9f
 2494 0083 00000000 		.4byte	0
 2495 0087 00000000 		.4byte	0
 2496              		.section	.debug_aranges,"",%progbits
 2497 0000 24000000 		.4byte	0x24
 2498 0004 0200     		.2byte	0x2
 2499 0006 00000000 		.4byte	.Ldebug_info0
 2500 000a 04       		.byte	0x4
 2501 000b 00       		.byte	0
 2502 000c 0000     		.2byte	0
 2503 000e 0000     		.2byte	0
 2504 0010 00000000 		.4byte	.LFB220
 2505 0014 7E000000 		.4byte	.LFE220-.LFB220
 2506 0018 00000000 		.4byte	.LFB219
 2507 001c 26000000 		.4byte	.LFE219-.LFB219
 2508 0020 00000000 		.4byte	0
 2509 0024 00000000 		.4byte	0
 2510              		.section	.debug_ranges,"",%progbits
 2511              	.Ldebug_ranges0:
 2512 0000 4A000000 		.4byte	.LBB17
 2513 0004 4E000000 		.4byte	.LBE17
 2514 0008 50000000 		.4byte	.LBB18
 2515 000c 74000000 		.4byte	.LBE18
 2516 0010 7A000000 		.4byte	.LBB19
 2517 0014 7E000000 		.4byte	.LBE19
 2518 0018 00000000 		.4byte	0
 2519 001c 00000000 		.4byte	0
 2520 0020 00000000 		.4byte	.LFB220
 2521 0024 7E000000 		.4byte	.LFE220
 2522 0028 00000000 		.4byte	.LFB219
 2523 002c 26000000 		.4byte	.LFE219
 2524 0030 00000000 		.4byte	0
 2525 0034 00000000 		.4byte	0
 2526              		.section	.debug_line,"",%progbits
 2527              	.Ldebug_line0:
 2528 0000 49020000 		.section	.debug_str,"MS",%progbits,1
 2528      0200E301 
 2528      00000201 
 2528      FB0E0D00 
 2528      01010101 
 2529              	.LASF88:
 2530 0000 7466756E 		.ascii	"tfunc_t\000"
 2530      635F7400 
 2531              	.LASF52:
 2532 0008 72656164 		.ascii	"ready_list_t\000"
 2532      795F6C69 
 2532      73745F74 
 2532      00
 2533              	.LASF110:
 2534 0015 474E5520 		.ascii	"GNU C 4.8.2 -mcpu=cortex-m3 -mno-thumb-interwork -m"
 2534      4320342E 
 2534      382E3220 
 2534      2D6D6370 
ARM GAS  /tmp/cc2MVQ1V.s 			page 70


 2534      753D636F 
 2535 0048 7468756D 		.ascii	"thumb -ggdb -O2 -fomit-frame-pointer -falign-functi"
 2535      62202D67 
 2535      67646220 
 2535      2D4F3220 
 2535      2D666F6D 
 2536 007b 6F6E733D 		.ascii	"ons=16 -ffunction-sections -fdata-sections -fno-com"
 2536      3136202D 
 2536      6666756E 
 2536      6374696F 
 2536      6E2D7365 
 2537 00ae 6D6F6E20 		.ascii	"mon -flto\000"
 2537      2D666C74 
 2537      6F00
 2538              	.LASF2:
 2539 00b8 73697A65 		.ascii	"size_t\000"
 2539      5F7400
 2540              	.LASF58:
 2541 00bf 64656C74 		.ascii	"delta\000"
 2541      6100
 2542              	.LASF76:
 2543 00c5 7264796D 		.ascii	"rdymsg\000"
 2543      736700
 2544              	.LASF19:
 2545 00cc 75696E74 		.ascii	"uint64_t\000"
 2545      36345F74 
 2545      00
 2546              	.LASF3:
 2547 00d5 5F5F7569 		.ascii	"__uint8_t\000"
 2547      6E74385F 
 2547      7400
 2548              	.LASF51:
 2549 00df 70726576 		.ascii	"prev\000"
 2549      00
 2550              	.LASF75:
 2551 00e4 706F7274 		.ascii	"port_intctx\000"
 2551      5F696E74 
 2551      63747800 
 2552              	.LASF63:
 2553 00f0 73797374 		.ascii	"system_debug_t\000"
 2553      656D5F64 
 2553      65627567 
 2553      5F7400
 2554              	.LASF99:
 2555 00ff 6D73675F 		.ascii	"msg_thread1\000"
 2555      74687265 
 2555      61643100 
 2556              	.LASF14:
 2557 010b 6C6F6E67 		.ascii	"long long unsigned int\000"
 2557      206C6F6E 
 2557      6720756E 
 2557      7369676E 
 2557      65642069 
 2558              	.LASF77:
 2559 0122 65786974 		.ascii	"exitcode\000"
 2559      636F6465 
 2559      00
ARM GAS  /tmp/cc2MVQ1V.s 			page 71


 2560              	.LASF70:
 2561 012b 6D61696E 		.ascii	"mainthread\000"
 2561      74687265 
 2561      616400
 2562              	.LASF80:
 2563 0136 73656E74 		.ascii	"sentmsg\000"
 2563      6D736700 
 2564              	.LASF60:
 2565 013e 76697274 		.ascii	"virtual_timers_list_t\000"
 2565      75616C5F 
 2565      74696D65 
 2565      72735F6C 
 2565      6973745F 
 2566              	.LASF101:
 2567 0154 49544D5F 		.ascii	"ITM_RxBuffer\000"
 2567      52784275 
 2567      66666572 
 2567      00
 2568              	.LASF48:
 2569 0161 6E657874 		.ascii	"next\000"
 2569      00
 2570              	.LASF50:
 2571 0166 63685F74 		.ascii	"ch_threads_queue\000"
 2571      68726561 
 2571      64735F71 
 2571      75657565 
 2571      00
 2572              	.LASF12:
 2573 0177 6C6F6E67 		.ascii	"long long int\000"
 2573      206C6F6E 
 2573      6720696E 
 2573      7400
 2574              	.LASF1:
 2575 0185 7369676E 		.ascii	"signed char\000"
 2575      65642063 
 2575      68617200 
 2576              	.LASF100:
 2577 0191 74657374 		.ascii	"test_007_001\000"
 2577      5F303037 
 2577      5F303031 
 2577      00
 2578              	.LASF106:
 2579 019e 74657374 		.ascii	"test_emit_token\000"
 2579      5F656D69 
 2579      745F746F 
 2579      6B656E00 
 2580              	.LASF69:
 2581 01ae 76746C69 		.ascii	"vtlist\000"
 2581      737400
 2582              	.LASF39:
 2583 01b5 6D736771 		.ascii	"msgqueue\000"
 2583      75657565 
 2583      00
 2584              	.LASF35:
 2585 01be 73746174 		.ascii	"state\000"
 2585      6500
 2586              	.LASF9:
ARM GAS  /tmp/cc2MVQ1V.s 			page 72


 2587 01c4 6C6F6E67 		.ascii	"long int\000"
 2587      20696E74 
 2587      00
 2588              	.LASF109:
 2589 01cd 63684D73 		.ascii	"chMsgSend\000"
 2589      6753656E 
 2589      6400
 2590              	.LASF97:
 2591 01d7 5F5F6675 		.ascii	"__func__.5697\000"
 2591      6E635F5F 
 2591      2E353639 
 2591      3700
 2592              	.LASF21:
 2593 01e5 74737461 		.ascii	"tstate_t\000"
 2593      74655F74 
 2593      00
 2594              	.LASF59:
 2595 01ee 66756E63 		.ascii	"func\000"
 2595      00
 2596              	.LASF16:
 2597 01f3 75696E74 		.ascii	"uint16_t\000"
 2597      31365F74 
 2597      00
 2598              	.LASF10:
 2599 01fc 5F5F7569 		.ascii	"__uint32_t\000"
 2599      6E743332 
 2599      5F7400
 2600              	.LASF72:
 2601 0207 72656761 		.ascii	"regarm_t\000"
 2601      726D5F74 
 2601      00
 2602              	.LASF38:
 2603 0210 77616974 		.ascii	"waiting\000"
 2603      696E6700 
 2604              	.LASF89:
 2605 0218 6D757465 		.ascii	"mutex_t\000"
 2605      785F7400 
 2606              	.LASF26:
 2607 0220 636E745F 		.ascii	"cnt_t\000"
 2607      7400
 2608              	.LASF112:
 2609 0226 2F686F6D 		.ascii	"/home/jerson/ChibiOS/rt_stm32f100rb_onion\000"
 2609      652F6A65 
 2609      72736F6E 
 2609      2F436869 
 2609      62694F53 
 2610              	.LASF81:
 2611 0250 77747365 		.ascii	"wtsemp\000"
 2611      6D7000
 2612              	.LASF79:
 2613 0257 77747472 		.ascii	"wttrp\000"
 2613      7000
 2614              	.LASF92:
 2615 025d 74656172 		.ascii	"teardown\000"
 2615      646F776E 
 2615      00
 2616              	.LASF113:
ARM GAS  /tmp/cc2MVQ1V.s 			page 73


 2617 0266 63684D73 		.ascii	"chMsgGet\000"
 2617      67476574 
 2617      00
 2618              	.LASF33:
 2619 026f 6E616D65 		.ascii	"name\000"
 2619      00
 2620              	.LASF29:
 2621 0274 71756575 		.ascii	"queue\000"
 2621      6500
 2622              	.LASF43:
 2623 027a 6D706F6F 		.ascii	"mpool\000"
 2623      6C00
 2624              	.LASF7:
 2625 0280 73686F72 		.ascii	"short unsigned int\000"
 2625      7420756E 
 2625      7369676E 
 2625      65642069 
 2625      6E7400
 2626              	.LASF46:
 2627 0293 63685F74 		.ascii	"ch_thread\000"
 2627      68726561 
 2627      6400
 2628              	.LASF24:
 2629 029d 6D73675F 		.ascii	"msg_t\000"
 2629      7400
 2630              	.LASF40:
 2631 02a3 6570656E 		.ascii	"epending\000"
 2631      64696E67 
 2631      00
 2632              	.LASF66:
 2633 02ac 63685F73 		.ascii	"ch_system_t\000"
 2633      79737465 
 2633      6D5F7400 
 2634              	.LASF20:
 2635 02b8 746D6F64 		.ascii	"tmode_t\000"
 2635      655F7400 
 2636              	.LASF53:
 2637 02c0 63685F72 		.ascii	"ch_ready_list\000"
 2637      65616479 
 2637      5F6C6973 
 2637      7400
 2638              	.LASF25:
 2639 02ce 6576656E 		.ascii	"eventmask_t\000"
 2639      746D6173 
 2639      6B5F7400 
 2640              	.LASF8:
 2641 02da 5F5F696E 		.ascii	"__int32_t\000"
 2641      7433325F 
 2641      7400
 2642              	.LASF73:
 2643 02e4 73746B61 		.ascii	"stkalign_t\000"
 2643      6C69676E 
 2643      5F7400
 2644              	.LASF94:
 2645 02ef 74657374 		.ascii	"testcase_t\000"
 2645      63617365 
 2645      5F7400
ARM GAS  /tmp/cc2MVQ1V.s 			page 74


 2646              	.LASF108:
 2647 02fa 63685468 		.ascii	"chThdCreateStatic\000"
 2647      64437265 
 2647      61746553 
 2647      74617469 
 2647      6300
 2648              	.LASF42:
 2649 030c 7265616C 		.ascii	"realprio\000"
 2649      7072696F 
 2649      00
 2650              	.LASF71:
 2651 0315 73697A65 		.ascii	"sizetype\000"
 2651      74797065 
 2651      00
 2652              	.LASF44:
 2653 031e 74687265 		.ascii	"thread_reference_t\000"
 2653      61645F72 
 2653      65666572 
 2653      656E6365 
 2653      5F7400
 2654              	.LASF61:
 2655 0331 63685F76 		.ascii	"ch_virtual_timers_list\000"
 2655      69727475 
 2655      616C5F74 
 2655      696D6572 
 2655      735F6C69 
 2656              	.LASF102:
 2657 0348 74657374 		.ascii	"test_step\000"
 2657      5F737465 
 2657      7000
 2658              	.LASF115:
 2659 0352 74657374 		.ascii	"test_wait_threads\000"
 2659      5F776169 
 2659      745F7468 
 2659      72656164 
 2659      7300
 2660              	.LASF74:
 2661 0364 706F7274 		.ascii	"port_context\000"
 2661      5F636F6E 
 2661      74657874 
 2661      00
 2662              	.LASF96:
 2663 0371 63685468 		.ascii	"chThdGetPriorityX\000"
 2663      64476574 
 2663      5072696F 
 2663      72697479 
 2663      5800
 2664              	.LASF91:
 2665 0383 73657475 		.ascii	"setup\000"
 2665      7000
 2666              	.LASF107:
 2667 0389 5F746573 		.ascii	"_test_assert_sequence\000"
 2667      745F6173 
 2667      73657274 
 2667      5F736571 
 2667      75656E63 
 2668              	.LASF30:
ARM GAS  /tmp/cc2MVQ1V.s 			page 75


 2669 039f 7072696F 		.ascii	"prio\000"
 2669      00
 2670              	.LASF54:
 2671 03a4 63757272 		.ascii	"current\000"
 2671      656E7400 
 2672              	.LASF13:
 2673 03ac 5F5F7569 		.ascii	"__uint64_t\000"
 2673      6E743634 
 2673      5F7400
 2674              	.LASF22:
 2675 03b7 74726566 		.ascii	"trefs_t\000"
 2675      735F7400 
 2676              	.LASF37:
 2677 03bf 72656673 		.ascii	"refs\000"
 2677      00
 2678              	.LASF56:
 2679 03c4 76697274 		.ascii	"virtual_timer_t\000"
 2679      75616C5F 
 2679      74696D65 
 2679      725F7400 
 2680              	.LASF93:
 2681 03d4 65786563 		.ascii	"execute\000"
 2681      75746500 
 2682              	.LASF23:
 2683 03dc 74707269 		.ascii	"tprio_t\000"
 2683      6F5F7400 
 2684              	.LASF64:
 2685 03e4 63685F73 		.ascii	"ch_system_debug\000"
 2685      79737465 
 2685      6D5F6465 
 2685      62756700 
 2686              	.LASF90:
 2687 03f4 5F426F6F 		.ascii	"_Bool\000"
 2687      6C00
 2688              	.LASF17:
 2689 03fa 696E7433 		.ascii	"int32_t\000"
 2689      325F7400 
 2690              	.LASF4:
 2691 0402 756E7369 		.ascii	"unsigned char\000"
 2691      676E6564 
 2691      20636861 
 2691      7200
 2692              	.LASF5:
 2693 0410 73686F72 		.ascii	"short int\000"
 2693      7420696E 
 2693      7400
 2694              	.LASF62:
 2695 041a 6C617374 		.ascii	"lasttime\000"
 2695      74696D65 
 2695      00
 2696              	.LASF104:
 2697 0423 74687265 		.ascii	"threads\000"
 2697      61647300 
 2698              	.LASF83:
 2699 042b 65776D61 		.ascii	"ewmask\000"
 2699      736B00
 2700              	.LASF67:
ARM GAS  /tmp/cc2MVQ1V.s 			page 76


 2701 0432 63685F73 		.ascii	"ch_system\000"
 2701      79737465 
 2701      6D00
 2702              	.LASF57:
 2703 043c 63685F76 		.ascii	"ch_virtual_timer\000"
 2703      69727475 
 2703      616C5F74 
 2703      696D6572 
 2703      00
 2704              	.LASF105:
 2705 044d 63684D73 		.ascii	"chMsgRelease\000"
 2705      6752656C 
 2705      65617365 
 2705      00
 2706              	.LASF84:
 2707 045a 63685F73 		.ascii	"ch_semaphore\000"
 2707      656D6170 
 2707      686F7265 
 2707      00
 2708              	.LASF18:
 2709 0467 75696E74 		.ascii	"uint32_t\000"
 2709      33325F74 
 2709      00
 2710              	.LASF82:
 2711 0470 77746D74 		.ascii	"wtmtxp\000"
 2711      787000
 2712              	.LASF47:
 2713 0477 63685F74 		.ascii	"ch_threads_list\000"
 2713      68726561 
 2713      64735F6C 
 2713      69737400 
 2714              	.LASF86:
 2715 0487 6F776E65 		.ascii	"owner\000"
 2715      7200
 2716              	.LASF11:
 2717 048d 6C6F6E67 		.ascii	"long unsigned int\000"
 2717      20756E73 
 2717      69676E65 
 2717      6420696E 
 2717      7400
 2718              	.LASF34:
 2719 049f 77616261 		.ascii	"wabase\000"
 2719      736500
 2720              	.LASF87:
 2721 04a6 63686172 		.ascii	"char\000"
 2721      00
 2722              	.LASF32:
 2723 04ab 6F6C6465 		.ascii	"older\000"
 2723      7200
 2724              	.LASF0:
 2725 04b1 756E7369 		.ascii	"unsigned int\000"
 2725      676E6564 
 2725      20696E74 
 2725      00
 2726              	.LASF6:
 2727 04be 5F5F7569 		.ascii	"__uint16_t\000"
 2727      6E743136 
ARM GAS  /tmp/cc2MVQ1V.s 			page 77


 2727      5F7400
 2728              	.LASF28:
 2729 04c9 74687265 		.ascii	"thread_t\000"
 2729      61645F74 
 2729      00
 2730              	.LASF27:
 2731 04d2 73797374 		.ascii	"systime_t\000"
 2731      696D655F 
 2731      7400
 2732              	.LASF55:
 2733 04dc 76746675 		.ascii	"vtfunc_t\000"
 2733      6E635F74 
 2733      00
 2734              	.LASF65:
 2735 04e5 70616E69 		.ascii	"panic_msg\000"
 2735      635F6D73 
 2735      6700
 2736              	.LASF31:
 2737 04ef 6E657765 		.ascii	"newer\000"
 2737      7200
 2738              	.LASF114:
 2739 04f5 63684D73 		.ascii	"chMsgWait\000"
 2739      67576169 
 2739      7400
 2740              	.LASF49:
 2741 04ff 74687265 		.ascii	"threads_queue_t\000"
 2741      6164735F 
 2741      71756575 
 2741      655F7400 
 2742              	.LASF85:
 2743 050f 63685F6D 		.ascii	"ch_mutex\000"
 2743      75746578 
 2743      00
 2744              	.LASF68:
 2745 0518 726C6973 		.ascii	"rlist\000"
 2745      7400
 2746              	.LASF95:
 2747 051e 63685468 		.ascii	"chThdGetSelfX\000"
 2747      64476574 
 2747      53656C66 
 2747      5800
 2748              	.LASF15:
 2749 052c 75696E74 		.ascii	"uint8_t\000"
 2749      385F7400 
 2750              	.LASF36:
 2751 0534 666C6167 		.ascii	"flags\000"
 2751      7300
 2752              	.LASF103:
 2753 053a 74657374 		.ascii	"test_sequence_007\000"
 2753      5F736571 
 2753      75656E63 
 2753      655F3030 
 2753      3700
 2754              	.LASF78:
 2755 054c 77746F62 		.ascii	"wtobjp\000"
 2755      6A7000
 2756              	.LASF111:
ARM GAS  /tmp/cc2MVQ1V.s 			page 78


 2757 0553 2E2E2F74 		.ascii	"../test/rt/source/test/test_sequence_007.c\000"
 2757      6573742F 
 2757      72742F73 
 2757      6F757263 
 2757      652F7465 
 2758              	.LASF45:
 2759 057e 74687265 		.ascii	"threads_list_t\000"
 2759      6164735F 
 2759      6C697374 
 2759      5F7400
 2760              	.LASF98:
 2761 058d 74657374 		.ascii	"test_007_001_execute\000"
 2761      5F303037 
 2761      5F303031 
 2761      5F657865 
 2761      63757465 
 2762              	.LASF41:
 2763 05a2 6D74786C 		.ascii	"mtxlist\000"
 2763      69737400 
 2764              		.comm	__gnu_lto_v1,1,1
 2765              		.ident	"GCC: (4.8.2-14ubuntu1+6) 4.8.2"
ARM GAS  /tmp/cc2MVQ1V.s 			page 79


DEFINED SYMBOLS
                            *ABS*:0000000000000000 test_sequence_007.c
     /tmp/cc2MVQ1V.s:411    .text.test_007_001_execute:0000000000000000 $t
     /tmp/cc2MVQ1V.s:416    .text.test_007_001_execute:0000000000000000 test_007_001_execute
     /tmp/cc2MVQ1V.s:527    .text.msg_thread1:0000000000000000 msg_thread1
     /tmp/cc2MVQ1V.s:586    .rodata.str1.4:0000000000000000 .LC0
     /tmp/cc2MVQ1V.s:589    .rodata.str1.4:0000000000000008 .LC1
     /tmp/cc2MVQ1V.s:522    .text.msg_thread1:0000000000000000 $t
     /tmp/cc2MVQ1V.s:581    .rodata.test_sequence_007:0000000000000000 test_sequence_007
     /tmp/cc2MVQ1V.s:569    .rodata.test_007_001:0000000000000000 $d
     /tmp/cc2MVQ1V.s:572    .rodata.test_007_001:0000000000000000 test_007_001
     /tmp/cc2MVQ1V.s:578    .rodata.test_sequence_007:0000000000000000 $d
     /tmp/cc2MVQ1V.s:585    .rodata.str1.4:0000000000000000 $d
                            *COM*:0000000000000001 __gnu_lto_v1
                     .debug_frame:0000000000000010 $d

UNDEFINED SYMBOLS
ch
wa
test_step
chThdCreateStatic
threads
chMsgWait
chMsgRelease
test_emit_token
test_wait_threads
_test_assert_sequence
chMsgSend
