ARM GAS  /tmp/cceOrkpj.s 			page 1


   1              		.syntax unified
   2              		.cpu cortex-m3
   3              		.fpu softvfp
   4              		.eabi_attribute 20, 1
   5              		.eabi_attribute 21, 1
   6              		.eabi_attribute 23, 3
   7              		.eabi_attribute 24, 1
   8              		.eabi_attribute 25, 1
   9              		.eabi_attribute 26, 1
  10              		.eabi_attribute 30, 2
  11              		.eabi_attribute 34, 1
  12              		.eabi_attribute 18, 4
  13              		.thumb
  14              		.file	"test_sequence_010.c"
  15              		.text
  16              	.Ltext0:
  17              		.section	.gnu.lto_.jmpfuncs.a3f47859fae3c435,"",%progbits
  18 0000 789CB591 		.ascii	"x\234\265\221=\016\202@\020\205\337,\210?h\324\322B"
  18      3D0E8240 
  18      1085DF2C 
  18      883F68D4 
  18      D242
  19 0012 C2218CB5 		.ascii	"\302!\214\265\307\260\227-6q\201\254hbl(=\202\215\027"
  19      C7B0972D 
  19      367181AC 
  19      68626C28 
  19      3D828D17 
  20 0026 B5121645 		.ascii	"\265\022\026EC\026\320Di\030\346{\314\316{\313\300`"
  20      4316D044 
  20      6918E67B 
  20      CCCE7BCB 
  20      C060
  21 0038 7A1616B0 		.ascii	"z\026\026\260\314\336}\200r\011;\341\226^\322\211 x"
  21      CCDE7D80 
  21      72093BE1 
  21      965ED289 
  21      2078
  22 004a A06B7A59 		.ascii	"\240kzY\011\"\255d\032\235s\304\344\243\265&AV\000\330"
  22      0922AD64 
  22      1A9D73C4 
  22      E4A3B526 
  22      415600D8 
  23 005e B5D4B681 		.ascii	"\265\324\266\201N#u`\275hG\026\247\225T\027N\326\351"
  23      4E237560 
  23      BD684716 
  23      A7955417 
  23      4ED6E9
  24 0071 9986346C 		.ascii	"\231\2064l\225\027\357v\272\036\246\205\235\336w?Vs"
  24      9517EF76 
  24      BA1EA685 
  24      9DDE773F 
  24      5673
  25 0083 18B4F0BF 		.ascii	"\030\264\360\277ld\031X\331\351Kb\245z\220\205\346\276"
  25      6C641958 
  25      D9E94B62 
  25      A57A9085 
  25      E6BE
ARM GAS  /tmp/cceOrkpj.s 			page 2


  26 0095 CF7A469A 		.ascii	"\317zF\232]\260!\347\246\205\332\364U\347\215\367X\""
  26      5DB021E7 
  26      A685DAF4 
  26      55E78DF7 
  26      5822
  27 00a7 77431F4D 		.ascii	"wC\037M\037z\230\027\323GZ?l9\375\007\356L\006\352S"
  27      1F7A9817 
  27      D3475A3F 
  27      6C39FD07 
  27      EE4C06EA 
  28 00bc C6782B76 		.ascii	"\306x+v\211\037F\211\317e\234\034\341\352\357\242\236"
  28      891F4689 
  28      CF659C1C 
  28      E1EAEFA2 
  28      9E
  29 00cd C52A3A88 		.ascii	"\305*:\210\200+_\361d\257B\036\370\222\313H\035q\007"
  29      802B5FF1 
  29      64AF421E 
  29      F892CB48 
  29      1D7107
  30 00e0 8147AD91 		.ascii	"\201G\255\221"
  31              		.text
  32              		.section	.gnu.lto_.inline.a3f47859fae3c435,"",%progbits
  33 0000 789C7D8F 		.ascii	"x\234}\217;\016\3020\020Dgm\307@p\240EH(\222E\317Mr"
  33      3B0EC230 
  33      1044676D 
  33      C74070A0 
  33      45482892 
  34 0018 2A2A1A22 		.ascii	"**\032\":\032\224:\005\327\240\347\030\234\002\257c"
  34      3A1A943A 
  34      05D7A0E7 
  34      189C02AF 
  34      63
  35 0029 3BB1F8B8 		.ascii	";\261\370\270Yiw\346\315X@\340\333;\3210\027\200\024"
  35      596977E6 
  35      CD5840E0 
  35      DB3BD130 
  35      178014
  36 003c E445BAAB 		.ascii	"\344E\272\253\275\226`vn\243\272:\255\244\001D\333@"
  36      BD966076 
  36      6EA3BA3A 
  36      ADA40144 
  36      DB40
  37 004e 5560A982 		.ascii	"U`\251\202^\345\036/\000\212_\007\215\331:?0J\2729\207"
  37      5EE51E2F 
  37      008A5F07 
  37      8DD93A3F 
  37      304ABA39 
  38 0063 7D903B6D 		.ascii	"}\220;m\357/5q\261\270mT\345M~\214\361\261M\211\375"
  38      EF2F3571 
  38      B1B86D54 
  38      E54D7E8C 
  38      F1B14D89 
  39 0078 8DAD9B63 		.ascii	"\215\255\233c/\307\366e\200O\373&\177\300\015\321K\034"
  39      2FC7F665 
  39      804FFB26 
  39      7FC00DD1 
ARM GAS  /tmp/cceOrkpj.s 			page 3


  39      4B1C
  40 008a 9EECB797 		.ascii	"\236\354\267\227s\361\021\315\223\222\223#)\303\312"
  40      73F111CD 
  40      93929323 
  40      29C3CA
  41 0099 F0394A75 		.ascii	"\3609Ju\014\354\365\177\235H\211L\012Lf\341\015\371"
  41      0CECF57F 
  41      9D48894C 
  41      0A4C66E1 
  41      0DF9
  42 00ab B71E99   		.ascii	"\267\036\231"
  43              		.text
  44              		.section	.gnu.lto_.pureconst.a3f47859fae3c435,"",%progbits
  45 0000 789C6362 		.ascii	"x\234cb`b\020f\200\000N\006\006F\011\026\011V\0116\011"
  45      60621066 
  45      80004E06 
  45      06460916 
  45      09560936 
  46 0015 0E092E09 		.ascii	"\016\011.\011n\011\036\011\000\012\303\001\032"
  46      6E091E09 
  46      000AC301 
  46      1A
  47              		.text
  48              		.section	.gnu.lto_null_provider.a3f47859fae3c435,"",%progbits
  49 0000 789C6362 		.ascii	"x\234cb`b@\007\222@\034\005\304\272@\314\310\314\300"
  49      60624007 
  49      92401C05 
  49      C4BA40CC 
  49      C8CCC0
  50 0013 C834E11C 		.ascii	"\3104\341\034\003C#\007\023##\210\301\300\310P\317\304"
  50      03432307 
  50      13232388 
  50      C1C0C850 
  50      CFC4
  51 0025 581FC908 		.ascii	"X\037\311\010V\273\236\351\300\203\377\377\327\375z"
  51      56BB9EE9 
  51      C083FFFF 
  51      D7FD7A
  52 0034 FAB89B51 		.ascii	"\372\270\233Q\020d\024+CKC\303\004\005\006\206d\260"
  52      1064142B 
  52      434B43C3 
  52      04050686 
  52      64B0
  53 0046 82102009 		.ascii	"\202\020 \011\322\025\312\310\004\242\231/24>\350JN"
  53      D215CAC8 
  53      04A2992F 
  53      32343EE8 
  53      4A4E
  54 0058 645CC8C8 		.ascii	"d\\\310\310\312\020\301\230\311\010\2674\204\221\021"
  54      CA10C198 
  54      C908B734 
  54      849111
  55 0067 A4006484 		.ascii	"\244\000d\204\266\236\236~Ijq\211~Q\211~q~iQr*\204\013"
  55      B69E9E7E 
  55      496A7189 
  55      7E51897E 
  55      717E6951 
ARM GAS  /tmp/cceOrkpj.s 			page 4


  56 007f 22E28B53 		.ascii	"\"\342\213S\013KS\363\222S\343\015\014\015\364\222\031"
  56      0B4B53F3 
  56      9253E30D 
  56      0C0DF492 
  56      19
  57 0090 00851429 		.ascii	"\000\205\024)\273"
  57      BB
  58              		.text
  59              		.section	.gnu.lto_test_010_003_execute.a3f47859fae3c435,"",%progbits
  60 0000 789C5D50 		.ascii	"x\234]P=K\003A\020}\263wkN-\264T\013\271^\270\234?@"
  60      3D4B0341 
  60      107DB377 
  60      6B4E2DB4 
  60      540BB95E 
  61 0018 F04744D0 		.ascii	"\360GD\320*\310\272\310\202\227hnS\210E6~\200e\260\222"
  61      2AC8BAC8 
  61      8297686E 
  61      53884536 
  61      7E8065B0 
  62 002d 048B3482 		.ascii	"\004\2134\202 \332\246\264\265\210\207\275E~\207M\334"
  62      20DAA6B4 
  62      B58887BD 
  62      457E874D 
  62      DC
  63 003e BD8F140E 		.ascii	"\275\217\024\016\314\314\333\231\367fg\227\201\341\277"
  63      CCCCDB99 
  63      F7666797 
  63      81E1BF
  64 004d 6D5A8F09 		.ascii	"mZ\217\011\330\263\231<\020\033|\001\375\200\0219\000"
  64      D8B3993C 
  64      101B7C01 
  64      FD801139 
  64      00
  65 005e 428F51EF 		.ascii	"B\217Q\357\210r\356;\373\230\315\347o\303\207\327\037"
  65      8872EE3B 
  65      FB98CDE7 
  65      6FC387D7 
  65      1F
  66 006f FA64351F 		.ascii	"\372d5\037\212\300mp]\216[c\006! rn\303F7\340\200\230"
  66      8AC06D70 
  66      5D8E5B63 
  66      06212072 
  66      6EC34637 
  67 0086 CBDE14D7 		.ascii	"\313\336\024\327\223\311\363\3261\215\211c\204a\337"
  67      93C9F3D6 
  67      318D8963 
  67      8461DF
  68 0095 987545EC 		.ascii	"\230uE\354\012\277\346\336!/\311e\207d!*\304\\-\303"
  68      0ABFE6DE 
  68      212FC965 
  68      8764212A 
  68      C45C2DC3 
  69 00a9 DD6CF442 		.ascii	"\335l\364B\205\362\224\374\205\304\027T\254\345*\201"
  69      85F294FC 
  69      85C41754 
  69      ACE52A81 
  70 00b9 229E50C9 		.ascii	"\"\236P\311\312\305K'v\263\0320\305M\346Ujn\007\270"
ARM GAS  /tmp/cceOrkpj.s 			page 5


  70      CAC54B27 
  70      76B31A30 
  70      C54DE655 
  70      6A6E07B8 
  71 00cd 66AECBC0 		.ascii	"f\256\313\300K>\026C\003A\305\037Y\256+n(Z\336F\364"
  71      4B3E1643 
  71      0341C51F 
  71      59AE2B6E 
  71      285ADE46 
  72 00e2 641EF715 		.ascii	"d\036\367\025\255\240\344+Z\005\276Q]WZ\303\356c\337"
  72      ADA0E42B 
  72      5A05BE51 
  72      5D575AC3 
  72      EE63DF
  73 00f5 EAF43B51 		.ascii	"\352\364;QT\3272\325\365\216\256\247\355nG\310\342\350"
  73      54D732D5 
  73      F58EAEA7 
  73      ED6E47C8 
  73      E2E8
  74 0107 42339517 		.ascii	"B3\225\027]\331\022\262\031\357\306\221\300\332\231"
  74      5DD912B2 
  74      19EFC691 
  74      C0DA99
  75 0116 4A75D86A 		.ascii	"Ju\330j\353P&\347\372\022\177\203lZH"
  75      EB5026E7 
  75      FA127F83 
  75      6C5A48
  76              		.text
  77              		.section	.gnu.lto_test_010_003_setup.a3f47859fae3c435,"",%progbits
  78 0000 789C6362 		.ascii	"x\234cb`b@\007\222@<\025\210u\201\230\221\231\201\221"
  78      60624007 
  78      92403C15 
  78      88758198 
  78      91998191 
  79 0014 69C23906 		.ascii	"i\3029\006\206F\016&FF\020\203\201\221\241\236\211\261"
  79      86460E26 
  79      46461083 
  79      8191A19E 
  79      89B1
  80 0026 3E9211AC 		.ascii	">\222\021\254v=\323\201\007\377\377\257\2334i\371\036"
  80      763DD381 
  80      07FFFFAF 
  80      9B3469F9 
  80      1E
  81 0037 C6134CCC 		.ascii	"\306\023L\314@\021V\206\226\206\206\011\012\014\014"
  81      40115686 
  81      96868609 
  81      0A0C0C
  82 0046 C9601521 		.ascii	"\311`\025!@\022\244-\224\221\011D3\237gh}\320u\222/"
  82      4012A42D 
  82      94910944 
  82      339F6768 
  82      7DD07592 
  83 005b 91712123 		.ascii	"\221q!#+P\272\232\341WCG\203@&#P9\304D\220\010G&#c."
  83      2B50BA9A 
  83      E1574347 
  83      83402623 
ARM GAS  /tmp/cceOrkpj.s 			page 6


  83      5039C444 
  84 0076 23035451 		.ascii	"#\003TQ\004c&#\023\013C&\320-\014\027\031\032\037tk"
  84      04632623 
  84      130B4326 
  84      D02D0C17 
  84      191A1F74 
  85 008b C2744340 		.ascii	"\302tC@\010P'\320h\220G\264\365\364\364KR\213K\364\213"
  85      085027D0 
  85      689047B4 
  85      F5F4F44B 
  85      528B4BF4 
  86 00a0 4AF48BF3 		.ascii	"J\364\213\363K\213\222S!\\\020\021_\234ZX\232\232\227"
  86      4B8B9253 
  86      215C1011 
  86      5F9C5A58 
  86      9A9A97
  87 00b3 9C1A6F60 		.ascii	"\234\032o`h\240\227\314\000\000\370\0146}"
  87      68A097CC 
  87      0000F80C 
  87      367D
  88              		.text
  89              		.section	.gnu.lto_test_010_002_setup.a3f47859fae3c435,"",%progbits
  90 0000 789C6362 		.ascii	"x\234cb`b@\007\222@<\025\210u\201\230\221\231\201\221"
  90      60624007 
  90      92403C15 
  90      88758198 
  90      91998191 
  91 0014 69C23906 		.ascii	"i\3029\006\206F\016&FF\020\203\201\221\241\236\211\261"
  91      86460E26 
  91      46461083 
  91      8191A19E 
  91      89B1
  92 0026 3E9211AC 		.ascii	">\222\021\254v=\323\201\007\377\377\257\273\321\275"
  92      763DD381 
  92      07FFFFAF 
  92      BBD1BD
  93 0035 FC0DE33A 		.ascii	"\374\015\343:&f\240\010+CKC\303\004\005\006\206d\260"
  93      2666A008 
  93      2B434B43 
  93      C3040506 
  93      8664B0
  94 0048 8A102009 		.ascii	"\212\020 \011\322\026\312\310\004\242\231\3173\264>"
  94      D216CAC8 
  94      04A299CF 
  94      33B43E
  95 0057 787B942F 		.ascii	"x{\224/\221q!#+P\272\232\341WCG\203@&#P9\304D\220\010"
  95      91712123 
  95      2B50BA9A 
  95      E1574347 
  95      83402623 
  96 0071 47262363 		.ascii	"G&#c.#\003TQ\004c&#\023\013C&\320-\014\027\031\032\037"
  96      2E230354 
  96      51046326 
  96      23130B43 
  96      26D02D0C 
  97 0089 BC5385E9 		.ascii	"\274S\205\351\206\200\020\240N\240\321 \217h\353\351"
  97      868010A0 
ARM GAS  /tmp/cceOrkpj.s 			page 7


  97      4EA0D120 
  97      8F68EBE9 
  98 0099 E997A416 		.ascii	"\351\227\244\026\227\350\027\225\350\027\347\227\026"
  98      97E81795 
  98      E817E797 
  98      16
  99 00a6 25A742B8 		.ascii	"%\247B\270 \"\2768\265\26045/95\336\300\320@/\231\001"
  99      2022BE38 
  99      B5B03435 
  99      2F3935DE 
  99      C0D0402F 
 100 00bc 007FF337 		.ascii	"\000\177\3637\220"
 100      90
 101              		.text
 102              		.section	.gnu.lto_test_010_001_setup.a3f47859fae3c435,"",%progbits
 103 0000 789C6362 		.ascii	"x\234cb`b@\007\222@<\007\210u\201\230\221\231\201\221"
 103      60624007 
 103      92403C07 
 103      88758198 
 103      91998191 
 104 0014 69C23906 		.ascii	"i\3029\006\206F\016&FF\020\203\201\221\241\236\211\261"
 104      86460E26 
 104      46461083 
 104      8191A19E 
 104      89B1
 105 0026 3E9211AC 		.ascii	">\222\021\254v=\323\201\007\377\377\257\373\321\266"
 105      763DD381 
 105      07FFFFAF 
 105      FBD1B6
 106 0035 FC0DE36C 		.ascii	"\374\015\343l&f\240\010+CKC\303\004\005\006\206d\260"
 106      2666A008 
 106      2B434B43 
 106      C3040506 
 106      8664B0
 107 0048 8A102009 		.ascii	"\212\020 \011\322\026\312\310\004\242\231\3173\264="
 107      D216CAC8 
 107      04A299CF 
 107      33B43D
 108 0057 D8FB982B 		.ascii	"\330\373\230+\221q!#+P\272\232\341WCG\203@&#P9\304D"
 108      91712123 
 108      2B50BA9A 
 108      E1574347 
 108      83402623 
 109 006f 90084726 		.ascii	"\220\010G&#c.#\003TQ\004c&#\023\013\230\002Z\220\311"
 109      23632E23 
 109      03545104 
 109      63262313 
 109      0B98025A 
 110 0085 C8C2C070 		.ascii	"\310\302\300p\221\241\361\301>e\230!\020\020\0024\000"
 110      91A1F1C1 
 110      3E659821 
 110      10100234 
 110      00
 111 0096 6803C83F 		.ascii	"h\003\310?\332zz\372%\251\305%\372E%\372\305\371\245"
 111      DA7A7AFA 
 111      25A9C525 
 111      FA4525FA 
ARM GAS  /tmp/cceOrkpj.s 			page 8


 111      C5F9A5
 112 00a9 45C9A910 		.ascii	"E\311\251\020.\210\210/N-,M\315KN\215704\320Kf\000\000"
 112      2E88882F 
 112      4E2D2C4D 
 112      CD4B4E8D 
 112      373034D0 
 113 00c1 A204381F 		.ascii	"\242\0048\037"
 114              		.text
 115              		.section	.gnu.lto_test_010_002_execute.part.0.a3f47859fae3c435,"",%progbits
 116 0000 789C9D54 		.ascii	"x\234\235T=h\024A\024~of\177fw\023/j\2416!\330\212\227"
 116      3D681441 
 116      147E6F66 
 116      7F667713 
 116      2F6AA136 
 117 0018 532C2C24 		.ascii	"S,,$X\012\266\011\304*\204\345\010\013^\242\271K\241"
 117      580AB609 
 117      C42A84E5 
 117      080B5EA2 
 117      B94BA1
 118 002b 2932973B 		.ascii	")2\227;\361\312`\225\030\202\006\021\013\225 6\001E"
 118      F1CA6095 
 118      18820611 
 118      0B952036 
 118      0145
 119 003d 2EA96224 		.ascii	".\251b$?v\332\235\215\202\210\202v!p\276\231\331\335"
 119      3F76DA9D 
 119      8D828882 
 119      762170BE 
 119      99D9DD
 120 0050 BB244488 		.ascii	"\273$D\210\003;o\346\375\3157\3377,\003\006\373G\231"
 120      033B6FE6 
 120      FDCD37DF 
 120      372C0306 
 120      FB4799
 121 0063 BE9716C0 		.ascii	"\276\227\026\300u\262\330\001\030\314l\322\"@\246-C"
 121      75B2D801 
 121      18CC6CD2 
 121      2240A62D 
 121      43
 122 0074 4BD9B2E0 		.ascii	"K\331\262\340f\261\",\306\353} }{;\003\262\303Fa\342"
 122      66B1222C 
 122      C6EB7D20 
 122      7D7B3B03 
 122      B2C34661 
 123 0089 0EF35739 		.ascii	"\016\363W9\271\335\315u \277k\374+B0G\247{:\335C\337"
 123      B9DDCD75 
 123      20BF6BFC 
 123      2B423047 
 123      A77B3ADD 
 124 009f A4FB886A 		.ascii	"\244\373\210j\001\010S\001\343\226\355\270\302\363q"
 124      01085301 
 124      E396EDB8 
 124      C2F371
 125 00ae EA062A48 		.ascii	"\352\006*Hx\026\026\245|\320x\372\356\013\316\311z\365"
 125      781616A5 
 125      7CD078FA 
 125      EE0BCEC9 
ARM GAS  /tmp/cceOrkpj.s 			page 9


 125      7AF5
 126 00c0 B1DC6D36 		.ascii	"\261\334m6\021#$\370Y\204\020a\2206\330\243\015\263"
 126      112324F8 
 126      59841061 
 126      9036D8A3 
 126      0DB3
 127 00d2 F6DE6789 		.ascii	"\366\336g\211\311F\2639\367\307;\2050\214\213\324\213"
 127      C946B339 
 127      F7C73B85 
 127      308C8BD4 
 127      8B
 128 00e3 41849CC7 		.ascii	"A\204\234\307\033\2136\226M\223\355\250\311\215\335"
 128      1B8B3696 
 128      4D93EDA8 
 128      C98DDD
 129 00f2 22B69E0A 		.ascii	"\"\266\236\012\373*B\255l\250J9\323c\"\240\316\245\321"
 129      FB2A42AD 
 129      6CA84A39 
 129      D36322A0 
 129      CEA5D1
 130 0105 4F33DDA5 		.ascii	"O3\335\245\037\0032|\000\2312\0330\275\274\374\375\314"
 130      1F03327C 
 130      0099321B 
 130      30BDBCFC 
 130      FDCC
 131 0117 303EA1C2 		.ascii	"0>\241\302yxX\226\262\213\340N\302\216\254\251\225S"
 131      79785896 
 131      B28BE04E 
 131      C28EACA9 
 131      9553
 132 0129 D0B50AAF 		.ascii	"\320\265\012\257\003\311\012\024\362\3670\335x~\337"
 132      03C90A14 
 132      F2F730DD 
 132      787EDF
 133 0138 3595E624 		.ascii	"5\225\346$\035K\306\000r\250\367\251\003v*\257\027\256"
 133      1D4BC600 
 133      72A8F7A9 
 133      03762AAF 
 133      17AE
 134 014a 99BC1164 		.ascii	"\231\274\021d\223p\227nu\036^H\032\257\250\302- \216"
 134      9370976E 
 134      751E5E48 
 134      1AAFA8C2 
 134      2D208E
 135 015d 20B653B1 		.ascii	" \266S\261\005\367\352\227M\005\264\260\2100\316R\036"
 135      05F7EA97 
 135      4D05B4B0 
 135      8830CE52 
 135      1E
 136 016e 11A15740 		.ascii	"\021\241W@\026'Q\337\010}\200\015\250\324*K\013\203"
 136      162751DF 
 136      087D800D 
 136      A8D42A4B 
 136      0B83
 137 0180 C9699C1A 		.ascii	"\311i\234\032kT\250\021\263v\264\024M\220Z@\232r\272"
 137      6B54A811 
 137      B376B414 
ARM GAS  /tmp/cceOrkpj.s 			page 10


 137      4D905A40 
 137      9A72BA
 138 0193 91803448 		.ascii	"\221\2004H\025kP\375Z\016\222^\246\021OA~\006\214/\314"
 138      156B50FD 
 138      5A0E925E 
 138      A6114F41 
 138      7E068C2F 
 139 01a8 D6E81CCE 		.ascii	"\326\350\034\316k\201\352e\247\264\376<*\255vL\353\233"
 139      6B81EA65 
 139      A7B4FE3C 
 139      2AAD764C 
 139      EB9B
 140 01ba 7FD2EAC0 		.ascii	"\177\322\352\300\356%N\0145\336~\303\004\233\225v\016"
 140      EE254E0C 
 140      35DE7EC3 
 140      049B9576 
 140      0E
 141 01cb 42648790 		.ascii	"Bd\207\220\244\372t\000=\221NM\324'\236T\333\324@\005"
 141      A4FA7400 
 141      3D914E4D 
 141      D4279E54 
 141      DBD44005 
 142 01df 2DC3BD9D 		.ascii	"-\303\275\235\370\235\264\353\2610&\213\222\225\363"
 142      F89DB4EB 
 142      B130268B 
 142      9295F3
 143 01ee 7484996E 		.ascii	"t\204\231n\310-\310\331\253\021vA|@\204\3075i?R\\\216"
 143      C82DC8D9 
 143      AB117641 
 143      7C4084C7 
 143      35693F52 
 144 0204 6A6BB74B 		.ascii	"jk\267K;\200.|\270\310\265P\277ZB\211\021t\017\027J"
 144      3B802E7C 
 144      B8C8B550 
 144      BF5A4289 
 144      11740F17 
 145 0219 24B502E6 		.ascii	"$\265\002\346W\367\013\345\356\027\312= \224\033Sh+"
 145      57F70BE5 
 145      EE17CA3D 
 145      20941B53 
 145      682B
 146 022b A1846B84 		.ascii	"\241\204k\204\362\340Q\247\026j\366\367Q\205r\314\033"
 146      F2E051A7 
 146      166AF6F7 
 146      518572CC 
 146      1B
 147 023c 6DAC3F4B 		.ascii	"m\254?Ko\352\375\207\002[\251\002>58\250@\333\333o\023"
 147      6FEAFD87 
 147      025BA902 
 147      3E3538A8 
 147      40DBDB6F 
 148 0251 C08F0538 		.ascii	"\300\217\0058\321\015W\214\000'\367\010`\230\362\325"
 148      D10D578C 
 148      0027F708 
 148      6098F2D5 
 149 0261 33FC483F 		.ascii	"3\374H?\254\026\365\375\364\246\2673\012\333\271l\266"
 149      AC16F5FD 
ARM GAS  /tmp/cceOrkpj.s 			page 11


 149      F4A6B733 
 149      0ADBB96C 
 149      B6
 150 0272 B7942F96 		.ascii	"\267\224/\226z\307K\275\305\261\211\3610o\266j\032*"
 150      7AC74BBD 
 150      C5B189F1 
 150      306FB66A 
 150      1A2A
 151 0284 E66F4FE4 		.ascii	"\346oO\344G\303\374P\356B.\033\002F\301\315\250X\352"
 151      47C3FC50 
 151      EE422E1B 
 151      0246C1CD 
 151      A858EA
 152 0297 C9176E95 		.ascii	"\311\027n\225\356@F\257G\307\222\375_\204\017#Z"
 152      EE4046AF 
 152      47C792FD 
 152      5F840F23 
 152      5A
 153              		.text
 154              		.section	.gnu.lto_test_010_002_execute.a3f47859fae3c435,"",%progbits
 155 0000 789C9D54 		.ascii	"x\234\235T\317k\023A\024~of7\231tc\023S\013\012\022"
 155      CF6B1341 
 155      147E6F66 
 155      37997463 
 155      13530B0A 
 156 0015 82572189 		.ascii	"\202W!\211g\245x\367\332@=\225\262\206\260`Zm\322\203"
 156      67A578F7 
 156      DA403D95 
 156      B286B060 
 156      5A6DD283 
 157 0029 78E8A449 		.ascii	"x\350\244I5\007\225\342\305_\025,\"\036=\232\203h\024"
 157      350795E2 
 157      C55F152C 
 157      221E3D9A 
 157      836814
 158 003c 0FAD685B 		.ascii	"\017\255h[\301C<\271\026\254\027\377\000\021!\276\267"
 158      C1433CB9 
 158      16AC17FF 
 158      001121BE 
 158      B7
 159 004d BFDA6A7A 		.ascii	"\277\332jz\250\003\231\231\367\315{\337|3\337l\004\010"
 159      A8039999 
 159      F7CD7BDF 
 159      7C33DF6C 
 159      0408
 160 005f F8BB5DA0 		.ascii	"\370\273]\240\337q\003\340\034\215\230\000\024K\353"
 160      DF7103E0 
 160      1C8D9800 
 160      144BEB
 161 006e 000D25D0 		.ascii	"\000\015%\320\364'R\2507\022\364\220\261\376\016@'\015"
 161      F42752A8 
 161      3712F490 
 161      B1FE0E40 
 161      270D
 162 0080 1F7FAD4C 		.ascii	"\037\177\255L!\273c\204\3076S\004\307\204z\221\245("
 162      21BB6384 
 162      C7365304 
ARM GAS  /tmp/cceOrkpj.s 			page 12


 162      C7847A91 
 162      A528
 163 0092 FEA94051 		.ascii	"\376\251@Q\034\025'\241B\344\021\020\346\2054\314X\\"
 163      1C1527A1 
 163      42E41110 
 163      E68534CC 
 163      585C
 164 00a4 E1FC79E4 		.ascii	"\341\374y\344]\361\004\254h}\333}\362\362+\336\323\335"
 164      5DF104AC 
 164      687DDB7D 
 164      F2F22BDE 
 164      D3DD
 165 00b6 D623FDBB 		.ascii	"\326#\375\273\337Gt\220\024\346\021l\204\011\0120\347"
 165      DF477490 
 165      14E6116C 
 165      84090A30 
 165      E7
 166 00c7 0DC2D82B 		.ascii	"\015\302\330+\371\231\350\272\375\376\215/\356\326{"
 166      F999E8BA 
 166      FDFE8D2F 
 166      EED67B
 167 00d6 1C194598 		.ascii	"\034\031E\230\302\025\342S\340\240LPgX\334%\0038\305"
 167      C215E253 
 167      E0A04C50 
 167      6758DC25 
 167      0338C5
 168 00e9 709A910C 		.ascii	"p\232\221\014wTnBK\353\245\234\277\014\274\027\265q"
 168      77546E42 
 168      4BEBA59C 
 168      BF0CBC17 
 168      B571
 169 00fb EA3B1928 		.ascii	"\352;\031(\241\240A~\200\205N\347\325\261)|\214&<\200"
 169      A1A0417E 
 169      80854EE7 
 169      D5B1297C 
 169      8C263C80 
 170 010f FB0DADD3 		.ascii	"\373\015\255\323\244\355*\374\322m\236\231U\257\210"
 170      A4ED2AFC 
 170      D26D9E99 
 170      55AF88
 171 011e C59910CE 		.ascii	"\305\231\020\316\200\261\015\270\346\366\277\015\373"
 171      80B10DB8 
 171      E6F6BF0D 
 171      FB
 172 012b 95B05311 		.ascii	"\225\260S\021\263\321+\361\020\345`\274\212\030$\371"
 172      B3D12BF1 
 172      10E560BC 
 172      8A1824F9 
 173 013b 39FA0E51 		.ascii	"9\372\016Q\250*\212\000e\306\204A\222\207\000X\316\317"
 173      A82A8A00 
 173      65C68441 
 173      92870058 
 173      CECF
 174 014d AD83CA61 		.ascii	"\255\203\312a\257\327`\301\275y=\356W\372'\366\326\302"
 174      AFD760C1 
 174      BD793DEE 
 174      57FA27F6 
ARM GAS  /tmp/cceOrkpj.s 			page 13


 174      D6C2
 175 015f 564209DD 		.ascii	"VB\011\3351\271\001\213\356\255\357\201\240\012\252"
 175      31B9018B 
 175      EEADEF81 
 175      A00AAA
 176 016e 88D9B251 		.ascii	"\210\331\262Q\354#\233y\222@\002\017\261\300fO\206\325"
 176      EC239B79 
 176      9240020F 
 176      B1C0664F 
 176      86D5
 177 0180 0922E045 		.ascii	"\011\"\340E\011\336}\230!nE\254\303\266\277\310\311"
 177      09DE7D98 
 177      216E45AC 
 177      C3B6BFC8 
 177      C9
 178 0191 0C1E7530 		.ascii	"\014\036u0\225\205\342C}\367\254\203i\0106p\3600\300"
 178      9585E243 
 178      7DF7AC83 
 178      69083670 
 178      F030C0
 179 01a4 2AB47E44 		.ascii	"*\264~D\272,\246\335\363\030J\024\366N\223_\315v\363"
 179      BA2CA6DD 
 179      F3184A14 
 179      F64E935F 
 179      CD76F3
 180 01b7 F9F24498 		.ascii	"\371\362D\230\230\254 F\226\254\201\330}\376\012\253"
 180      98AC2046 
 180      96AC81D8 
 180      7DFE0AAB 
 181 01c7 F66B4DA0 		.ascii	"\366kM\240\347)\351\216\024D\213\350\355\271\335\260"
 181      E729E98E 
 181      14448BE8 
 181      EDB9DDB0 
 182 01d7 422E9F48 		.ascii	"B.\237HF[~\006\014\256P\254J\"3\332\026s\305`3\345\275"
 182      465B7E06 
 182      0CAE50AC 
 182      4A2233DA 
 182      1673C560 
 183 01ee 9BDEF641 		.ascii	"\233\336\366A\215\222\336=-\272\313O\243\223\246\376"
 183      8D92DE3D 
 183      2DBACB4F 
 183      A393A6FE 
 184 01fe C3818DC8 		.ascii	"\303\201\215\310\2014\021\014r 3\310\201t\340@&\013"
 184      8134110C 
 184      722033C8 
 184      8174E040 
 184      260B
 185 0210 677C0746 		.ascii	"g|\007F\366w 3\300\2018\274M\320\013j\252\177\036\375"
 185      F6772033 
 185      C08138BC 
 185      4DD00B6A 
 185      AA7F1EFD 
 186 0224 113BC875 		.ascii	"\021;\310up4\314V\374}}\244?\226\035\212q\272\364N\206"
 186      7034CC56 
 186      FC7D7DA4 
 186      3F961D8A 
 186      71BAF44E 
ARM GAS  /tmp/cceOrkpj.s 			page 14


 187 0239 4F79329F 		.ascii	"Oy2\237/\324\313\265za\266^\250\315\314\315\332e?\344"
 187      2FD4CBB5 
 187      7A61B65E 
 187      A8CDCCCD 
 187      DA653FE4 
 188 024d 6EB256BE 		.ascii	"n\262V\276<W\236\266\313\223\305S\305\274\015\350X\027"
 188      3C579EB6 
 188      CB93C553 
 188      C5BC0DE8 
 188      5817
 189 025f 9D5A3D57 		.ascii	"\235Z=W\256^\252_\201\2247\237\236\011\343?\222\244"
 189      AE5EAA5F 
 189      8194379F 
 189      9E09E33F 
 189      92A4
 190 0271 0497     		.ascii	"\004\227"
 191              		.text
 192              		.section	.gnu.lto_test_010_001_execute.part.1.a3f47859fae3c435,"",%progbits
 193 0000 789C9D94 		.ascii	"x\234\235\224\317O\023A\024\307\337\233\375\275\333"
 193      CF4F1341 
 193      14C7DF9B 
 193      FDBDDB
 194 000f 5AFC0D97 		.ascii	"Z\374\015\227\246\361f\214-\032\017\036\014\361\017"
 194      A6F1668C 
 194      2D1A0F1E 
 194      0CF10F
 195 001e F008099E 		.ascii	"\360\010\011\236\010Y6d\023K\261-&\310\201\005\212\251"
 195      08593664 
 195      134BB12D 
 195      26C88105 
 195      8AA9
 196 0030 27D06882 		.ascii	"'\320h\202\022EB\210\2111\361\212\236\012'\324\360\303"
 196      12454288 
 196      8931F18A 
 196      9E0A27D4 
 196      F0C3
 197 0042 8BC15B2F 		.ascii	"\213\301[/\352AO\234\024I\352\233\235\335\245@1\251"
 197      EA414F9C 
 197      1449EA9B 
 197      9DDDA540 
 197      31A9
 198 0054 9374DEBC 		.ascii	"\223t\336\274\231yo\276\357\363\322e\300\340\340\230"
 198      99796FBE 
 198      EFF3D265 
 198      C0E0E098 
 199 0064 A6DFB602 		.ascii	"\246\337\266\002\340\220\3058`lz\235\0261d\276e(s;\246"
 199      E090C538 
 199      606C7A9D 
 199      163164BE 
 199      6528733B 
 200 0079 4B62B1AC 		.ascii	"Kb\261\254\313L\252t\200g*\233\011\360b\012\352\342"
 200      CB4CAA74 
 200      80672A9B 
 200      09F0620A 
 200      EAE2
 201 008b 5C65D68A 		.ascii	"\\e\326\212D\333\332\372\007\240}M\354/\353:S\375\353"
 201      44DBDAFA 
ARM GAS  /tmp/cceOrkpj.s 			page 15


 201      07A07D4D 
 201      EC2FEB3A 
 201      53FDEB
 202 009e 867FDD60 		.ascii	"\206\177\335`\326\347\014y\346\273$y&Z\"\330B\344\013"
 202      D6E70C79 
 202      E6BB2479 
 202      265A22D8 
 202      42E40B
 203 00b1 40188D31 		.ascii	"@\030\2151IVTM7L\013Go\"W\210\347`\336\363\036V\027"
 203      4956544D 
 203      374C0B47 
 203      6F225788 
 203      E760DEF3 
 204 00c8 B7ABF8C4 		.ascii	"\267\253\370\304\253\224^x\273\265\032\242\213TM\032"
 204      AB945E78 
 204      BBB51AA2 
 204      8B544D1A 
 205 00d8 C146E826 		.ascii	"\301F\350&\007S\276a\362\376\362\3360\257Z\253\275}"
 205      0753BE61 
 205      F2FEF2DE 
 205      30AF5AAB 
 205      BD7D
 206 00ea 6524117A 		.ascii	"e$\021zq\236r1pQ\222\002G&GVhRT>i\301\266\036X\203\037"
 206      719E7231 
 206      70519202 
 206      47264756 
 206      6852543E 
 207 0105 9BFCC4E2 		.ascii	"\233\374\304\342S\214\273q\276\242\314\012\224<o:%."
 207      538CBB71 
 207      BEA2CC0A 
 207      943C6F3A 
 207      252E
 208 0117 029741A3 		.ascii	"\002\227A\243\223f\252\264\023cd\244.d\334\254\301\370"
 208      9366AAB4 
 208      136364A4 
 208      2E64DCAC 
 208      C1F8
 209 0129 D2AF3FAD 		.ascii	"\322\257?\255\275\270@\201\263\360t\314\363ZH\375\010"
 209      BDB84081 
 209      B3F074CC 
 209      F35A48FD 
 209      08
 210 013a EC7865BE 		.ascii	"\354xe\276R\263~,\227\257B\270\002^\310{\030\257\376"
 210      52B37E2C 
 210      97AF42B8 
 210      025EC87B 
 210      18AFFE
 211 014d 9ED044A4 		.ascii	"\236\320D\244x\311?\013G\027JP\351\340\017\354L\374"
 211      78C93F0B 
 211      47174A50 
 211      E9E00FEC 
 211      4CFC
 212 015f 98BA2AEE 		.ascii	"\230\272*\356\365#\033\201\273T\344Ex\355\321x@\021"
 212      F5231B81 
 212      BB54E445 
 212      78EDD178 
 212      4011
ARM GAS  /tmp/cceOrkpj.s 			page 16


 213 0171 5A16B11F 		.ascii	"Z\026\261\037\261\236\314\006LV\316\213\010\330\323"
 213      B19ECC06 
 213      4C56CE8B 
 213      08D8D3
 214 0180 A2DBC12D 		.ascii	"\242\333\301-\276\243\273hd\221\005\227(\257\213&\300"
 214      BEA3BB68 
 214      64910597 
 214      28AF8B26 
 214      C0
 215 0191 1A4C9427 		.ascii	"\032L\224'\276Ou\207\257I\224\330W\205\276bV\257\226"
 215      BE4F7587 
 215      AF4994D8 
 215      5785BE62 
 215      56AF96
 216 01a4 4E43A532 		.ascii	"NC\2452P\217%\252H\207\350\220\"V\241\364m\314\012s"
 216      508F25AA 
 216      4887E890 
 216      2256A1F4 
 216      6DCC0A73 
 217 01b8 89445224 		.ascii	"\211DR$\362\013`P0[\245w$\251l\361\\J\210u\253\326,"
 217      F20B6050 
 217      305BA577 
 217      24A96CF1 
 217      5C4A8875 
 218 01cf 5625C05A 		.ascii	"V%\300Z\236\374\027V\025v\257H\033P\252\336\377\212"
 218      9EFC1756 
 218      1576AF48 
 218      1B50AADE 
 218      FF8A
 219 01e1 A13639CA 		.ascii	"\24169\312l\331\310\216\200\344R\3479\241-)\014S(\222"
 219      6CD9C88E 
 219      80E452E7 
 219      39A12D29 
 219      0C532892 
 220 01f5 67970574 		.ascii	"g\227\005t%\334W\243tq;\240D\227\371f\253\213\307\222"
 220      25DC57A3 
 220      74713BA0 
 220      4497F966 
 220      AB8BC792 
 221 0209 D0FECC9B 		.ascii	"\320\376\314\233\271\356b\002\242\314->\255\237\221"
 221      B9EE6202 
 221      A2CC2D3E 
 221      AD9F91
 222 0218 2095A755 		.ascii	" \225\247U\352{\332\205\032|\274,\371\035Zx\024uH\357"
 222      EA7BDA85 
 222      1A7CBC2C 
 222      F91D5A78 
 222      147548EF 
 223 022c 47EDE80E 		.ascii	"G\355\350\016\351a\254\016\263+\007;\244\035\354\220"
 223      E961AC0E 
 223      B32B073B 
 223      A41DEC90 
 224 023c 76A8435A 		.ascii	"v\250CZ\300N\341\035\3225\321!\003\346\342~\207\226"
 224      C04EE11D 
 224      D235D121 
 224      03E6E27E 
 224      8796
ARM GAS  /tmp/cceOrkpj.s 			page 17


 225 024e 16DA9AEC 		.ascii	"\026\332\232\354\220\352s*U\247\026\243J\215f\320oD"
 225      90EA732A 
 225      55A716A3 
 225      4A8D66D0 
 225      6F44
 226 0260 E84D8A6C 		.ascii	"\350M\212l\204\336j\204\336\014\320\037O\3025\201\376"
 226      84DE6A84 
 226      DE0CD01F 
 226      4FC23581 
 226      FE
 227 0271 C4D1E8AD 		.ascii	"\304\321\350\255\006\350Mx\254\370%\317\274l\266d\315"
 227      06E84D78 
 227      ACF825CF 
 227      BC6CB664 
 227      CD
 228 0282 D777AFFA 		.ascii	"\327w\257\372|\321:\364\217<i\013\375\015*\016\276\023"
 228      7CD13AF4 
 228      8F3C690B 
 228      FD0D2A0E 
 228      BE13
 229 0294 C1C1291B 		.ascii	"\301\301)\033\225H\360i\301pn\217a\354\377\030\306)"
 229      9548F069 
 229      C1706E8F 
 229      61ECFF18 
 229      C629
 230 02a6 F230C33A 		.ascii	"\3620\303:}u\010\343\001\3023I\270!\020\236\335\207"
 230      7D7508E3 
 230      01C23349 
 230      B821109E 
 230      DD87
 231 02b8 5070B2F8 		.ascii	"Pp\262\370\237\367\023}\366\367\340u\322\227`3\301E"
 231      9FF7137D 
 231      F6F7E075 
 231      D2976033 
 231      C145
 232 02ca 5D48A733 		.ascii	"]H\2473E\247P\314\344\213\231Bn(o;\302\345SO\301\271"
 232      45A750CC 
 232      E48B9942 
 232      6E286F3B 
 232      C2E5534F 
 233 02e0 3DE40CD8 		.ascii	"=\344\014\330NO\373\245\366\264\015\350Z\267\334B1\345"
 233      4E4FFBA5 
 233      F6B40DE8 
 233      5AB7DC42 
 233      31E5
 234 02f2 64078BC3 		.ascii	"d\007\213\303\220\360\327\003\271\320o\033\314\347\356"
 234      90F0D703 
 234      B9D06F1B 
 234      CCE7EE
 235 0301 B87D4E3E 		.ascii	"\270}N>\225w\212C\371\001\247/\225u\262\271\3740\374"
 235      95778A43 
 235      F901A72F 
 235      9575B2B9 
 235      FC30FC
 236 0314 05C86774 		.ascii	"\005\310gt7"
 236      37
 237              		.text
ARM GAS  /tmp/cceOrkpj.s 			page 18


 238              		.section	.gnu.lto_test_010_001_execute.a3f47859fae3c435,"",%progbits
 239 0000 789C9554 		.ascii	"x\234\225TMh\023A\024~of7;\351\246n\\\025z\012\301\253"
 239      4D681341 
 239      147E6F66 
 239      373BE9A6 
 239      6E5C157A 
 240 0017 90C4B352 		.ascii	"\220\304\263R\274{m\240\236JY\227\260`ZmRD<t\322\015"
 240      BC7B6DA0 
 240      9E4A5997 
 240      B0605A6D 
 240      52443C74 
 241 002d 928348F1 		.ascii	"\222\203H\361T\025\301R<x\362\032\301C\024\017\255`"
 241      5415C152 
 241      3C78F21A 
 241      C143140F 
 241      AD60
 242 003f 52C14304 		.ascii	"R\301C\004\205E\301\213\236,x(B|\263\177\265\232\036"
 242      8545C18B 
 242      9E2C7828 
 242      427CB37F 
 242      B59A1E
 243 0052 32909979 		.ascii	"2\220\231y\337\274\367\3157\337\314\206\001\203\177"
 243      DFBCF7CD 
 243      37DFCC86 
 243      01837F
 244 0061 DB55FA4D 		.ascii	"\333U\372Mk\000\227i\304, \333\350\003\264\004C=\232"
 244      6B009769 
 244      C42C20DB 
 244      E803B404 
 244      433D9A
 245 0074 70265E73 		.ascii	"p&^s\220SZ\377-\200\314i\021\376J\350\214\367f\011\317"
 245      90535AFF 
 245      2D80CC69 
 245      11FE4AE8 
 245      8CF76609 
 246 0089 EC590467 		.ascii	"\354Y\004g\230xY\240\310\370P\246\310@\241\222P \252"
 246      987859A0 
 246      C8F850A6 
 246      C840A192 
 246      5020AA
 247 009c 1110D618 		.ascii	"\021\020\326\030\327\364\214!p\355\012\252]\361,lIy"
 247      D7F48C21 
 247      70ED0AAA 
 247      5DF12C6C 
 247      4979
 248 00ae 3F78FA33 		.ascii	"?x\3723\300\007\262\327~\"\177\217F\210\036\222\302"
 248      C007B2D7 
 248      7E227F8F 
 248      46881E92 
 248      C2
 249 00bf 12828330 		.ascii	"\022\202\2030O\001\026\303\201iG%?g\275`4\272\373\""
 249      4F0116C3 
 249      81694725 
 249      3F67BD60 
 249      34BAFB22 
 250 00d3 F8F20CED 		.ascii	"\370\362\014\3553\010\213\270E|\002<\344Y\3524Su\271"
 250      33088BB8 
ARM GAS  /tmp/cceOrkpj.s 			page 19


 250      457C023C 
 250      E459EA34 
 250      5375B9
 251 00e6 18B6149C 		.ascii	"\030\266\024\234W\210\255:*\327\241-\345F1Z\006\265"
 251      5788AD3A 
 251      2AD7A12D 
 251      E546315A 
 251      06B5
 252 00f8 17B539EA 		.ascii	"\027\2659\352\2736T\221\321\300\337\301zws\177f\021"
 252      BB365491 
 252      D1C0DFC1 
 252      7A77737F 
 252      6611
 253 010a B7518747 		.ascii	"\267Q\207G\360\260%e\236\264\335\206\003\331Q3\275\036"
 253      F0B02565 
 253      9EB4DD86 
 253      03D95133 
 253      BD1E
 254 011c 1629713A 		.ascii	"\026)q:$3P\330\000\356\004}\337\214*\341\260\"\343`"
 254      243350D8 
 254      00EE047D 
 254      DF8C2AE1 
 254      B022E360 
 255 0130 581222C2 		.ascii	"X\022\"\302C\243\216\030'E9\362\246\207\242\216,\006"
 255      43A38E18 
 255      274539F2 
 255      A687A28E 
 255      2C06
 256 0142 15615623 		.ascii	"\025aV#\305S\000J\315\360\327\244j\324U\357\302z\360"
 256      C553004A 
 256      CDF0D7A4 
 256      6AD455EF 
 256      C27AF0
 257 0155 C937A2CA 		.ascii	"\3117\242\312\350\300\341Z\322\252\310\2417\313\007"
 257      E8C0E15A 
 257      D2AAC8A1 
 257      37CB07
 258 0164 D00E3E7F 		.ascii	"\320\016>\177\215\365\324P\244\314\246\203\354\030\325"
 258      8DF5D450 
 258      A4CCA683 
 258      EC18D5
 259 0173 1EE69432 		.ascii	"\036\346\2242\177\310\223\262,U*v\016\241\017z\202\233"
 259      7FC893B2 
 259      2C552A76 
 259      0EA10F7A 
 259      829B
 260 0185 29DDB413 		.ascii	")\335\264\023-\252d\005\316xx\242\000\225\307r\363\222"
 260      2DAA6405 
 260      CE7878A2 
 260      0095C772 
 260      F392
 261 0197 8716A4CC 		.ascii	"\207\026\244\314y\200\035h\377H\005\231\212\366\310"
 261      79801D68 
 261      FF480599 
 261      8AF6C8
 262 01a6 23A85238 		.ascii	"#\250R8\274@\367\344w\374\375{\363Ib\256\206\230^\305"
 262      BC40F7E4 
ARM GAS  /tmp/cceOrkpj.s 			page 20


 262      77FCFD7B 
 262      F34962AE 
 262      86985EC5 
 263 01ba 2EB0BF0F 		.ascii	".\260\277\017^S\202\243Z\035\350Yr2G@\272\210\341\236"
 263      5E5382A3 
 263      5A1DE859 
 263      72324740 
 263      BA88E19E 
 264 01ce DF5A66C2 		.ascii	"\337Zf\302\025\021\361t\313\217\200\261wl\207\023\231"
 264      1511F174 
 264      CB8F80B1 
 264      776C8713 
 264      99
 265 01df D6311557 		.ascii	"\3261\025W\006\366\254\360\275t\017&\275!\036\372\324"
 265      06F6ACF0 
 265      BD740F26 
 265      BD211EFA 
 265      D4
 266 01f0 0EBE6FA7 		.ascii	"\016\276o\247'\265&\261~\220Z\237\247\312q\326\333\343"
 266      27B526B1 
 266      7E905A9F 
 266      A7CA71D6 
 266      DBE3
 267 0202 ACCFC7D6 		.ascii	"\254\317\307\326\237,\300\305\310z\373x\353\3551\326"
 267      9F2CC0C5 
 267      C87AFB78 
 267      EBED31D6 
 268 0212 1BF0264B 		.ascii	"\033\360&Ko\306\027\377\275\362SN\234\353\341\351$["
 268      6FC617FF 
 268      BDF2534E 
 268      9CEBE1E9 
 268      245B
 269 0224 A80FEA3D 		.ascii	"\250\017\352=\375\223\034R\314\221\333][\035\357\\\251"
 269      FD931C52 
 269      CC91DB5D 
 269      5B1DEF5C 
 269      A9
 270 0235 546EBA8D 		.ascii	"Tn\272\215fy\245Yn,\257\2568n\024\252n\241\341\336X"
 270      6679A559 
 270      6E2CAFAE 
 270      386E14AA 
 270      6EA1E1DE 
 271 024a 75971C77 		.ascii	"u\227\034w\241r\276Rr\000=\363\232\327h\026\335\372"
 271      A172BE52 
 271      72003DF3 
 271      9AD76816 
 271      DDFA
 272 025c F5E62DB0 		.ascii	"\365\346-\260\302\371\322r\022\377\001\301\267\003\026"
 272      C2F9D272 
 272      12FF01C1 
 272      B70316
 273              		.text
 274              		.section	.gnu.lto_.symbol_nodes.a3f47859fae3c435,"",%progbits
 275 0000 789C4D8E 		.ascii	"x\234M\216GN\304@\020E\353w\273mc\233`\223\206\005g"
 275      474EC440 
 275      1045EB77 
 275      BB6D639B 
ARM GAS  /tmp/cceOrkpj.s 			page 21


 275      60938605 
 276 0015 E04CECB9 		.ascii	"\340L\354\271C\215d\211\264@\034\000$\204\2172\022H"
 276      438D6489 
 276      B4401C00 
 276      24848F32 
 276      1248
 277 0027 20E000A4 		.ascii	" \340\000\244\001\003C\316\260\004:X\264\275yz\245\252"
 277      010343CE 
 277      B0043A58 
 277      B4BD797A 
 277      A5AA
 278 0039 7E162468 		.ascii	"~\026$hN\220\373\304\031\230h\375\220\210yce^\334\200"
 278      4E90FBC4 
 278      199868FD 
 278      90887963 
 278      655EDC80 
 279 004d E155DD41 		.ascii	"\341U\335A\022\223:\005\005,\3055X\264v/\301\262\245"
 279      12933A05 
 279      052CC535 
 279      58B4762F 
 279      C1B2A5
 280 0060 E7E0A075 		.ascii	"\347\340\240uz\002\230\233\017\260j\246\233\313P\307"
 280      7A02989B 
 280      0FB06AA6 
 280      9BCB50C7 
 281 0070 10665A83 		.ascii	"\020fZ\203\303\326\351'8\362K\242\017\216[/\335\"P\372"
 281      C3D6E927 
 281      38F24BA2 
 281      0F8E5B2F 
 281      DD2250FA 
 282 0084 272EA0F4 		.ascii	"'.\240\364\251\272Bh0@\244\201\007\360\220[\355v\201"
 282      A9BA4268 
 282      3040A481 
 282      07F0905B 
 282      ED7681
 283 0097 7B70E2ED 		.ascii	"{p\342\355\021\234z{\007g\336\236\301\303\336\236\300"
 283      119C7A7B 
 283      0767DE9E 
 283      C1C3DE9E 
 283      C0
 284 00a8 23DEDEC0 		.ascii	"#\336\336\300\243\336^\301c\336^\300\371\277I\024T\365"
 284      A3DE5EC1 
 284      63DE5EC0 
 284      F9BF4914 
 284      54F5
 285 00ba 7F3473AA 		.ascii	"\1774s\252\015\203q*\015U\303p\3021\316\251\332?\232"
 285      0D83712A 
 285      0D55C370 
 285      C231CEA9 
 285      DA3F9A
 286 00cd 957141F5 		.ascii	"\225qA\365\236aN\345\322\357\202\361\336\242\341$\325"
 286      9E614EE5 
 286      D2EF82F1 
 286      DEA2E124 
 286      D5
 287 00de 5BDF914C 		.ascii	"[\337\221L\246\334{IA\345\327 \224IN=K\335\331\325w"
 287      A6DC7B49 
ARM GAS  /tmp/cceOrkpj.s 			page 22


 287      41E5D720 
 287      94494E3D 
 287      4BDDD9D5 
 288 00f3 DA6BCB98 		.ascii	"\332k\313\230\266Ww:2\325\276v\240d\332\241\312R\367"
 288      B657773A 
 288      32D5BE76 
 288      A064DAA1 
 288      CA52F7
 289 0106 2C9B9E9E 		.ascii	",\233\236\236\333^\332\364\264\333^:\355z\331\214\353"
 289      DB5EDAF4 
 289      B4DB5E3A 
 289      ED7AD98C 
 289      EB
 290 0117 651DD7CB 		.ascii	"e\035\327\313\232\236v\333\313\232^\226\332\036\375"
 290      9A9E76DB 
 290      CB9A5E96 
 290      DA1EFD
 291 0126 01BBAEAE 		.ascii	"\001\273\256\256V"
 291      56
 292              		.text
 293              		.section	.gnu.lto_.refs.a3f47859fae3c435,"",%progbits
 294 0000 789C3D8B 		.ascii	"x\234=\213\007\016\300 \014\003\3031RF\307\177\373\371"
 294      070EC020 
 294      0C03C331 
 294      5246C77F 
 294      FBF9
 295 0012 5A209AE8 		.ascii	"Z \232\350,;\003\303^[E\010\020W\207$\262(\270\037\232"
 295      2C3B03C3 
 295      5E5B4508 
 295      10578724 
 295      B228B81F 
 296 0027 577916DE 		.ascii	"Wy\026\336\346]\335\271\367\271w\351\017\246\2771]\335"
 296      E65DDDB9 
 296      F7B977E9 
 296      0FA6BF31 
 296      5DDD
 297 0039 B3787271 		.ascii	"\263xrq\363H\013C.\323\224\022\301>\246\336\002k"
 297      F3480B43 
 297      2ED39412 
 297      C13EA6DE 
 297      026B
 298              		.text
 299              		.section	.gnu.lto_.decls.a3f47859fae3c435,"",%progbits
 300 0000 789CBD5B 		.ascii	"x\234\275[yp\024\327\231\177\3353\243\231\221d.c\"6"
 300      797014D7 
 300      997FDD33 
 300      A3999164 
 300      2E632236 
 301 0014 3E2676BC 		.ascii	">&v\274q\341X\022\230\330\330\336\030\274\336Z{+\353"
 301      71E15812 
 301      98D8D8DE 
 301      18BCDE5A 
 301      7B2BEB
 302 0027 DDD4D6A6 		.ascii	"\335\324\326\246*\377M\332\243\266\244\2154\243\314"
 302      2AFF4DDA 
 302      A3B6A48D 
 302      34A3CC
ARM GAS  /tmp/cceOrkpj.s 			page 23


 303 0036 B40CECFE 		.ascii	"\264\014\354\376AK\2008\254\240\013\214\300\026H\230"
 303      414B8038 
 303      ACA00B8C 
 303      C0164898 
 304 0046 CBC5210C 		.ascii	"\313\305!\014\006Y\346\320\200A\221e\033\011\201\300"
 304      0659E6D0 
 304      80419165 
 304      1B0981C0 
 305 0056 58115612 		.ascii	"X\021V\022\022\254x\227#\304\030\001F\373\275\243{\272"
 305      12AC7897 
 305      23C41801 
 305      46FBBDA3 
 305      7BBA
 306 0068 7BBA7B7A 		.ascii	"{\272{zD9]\365Z\257_\277\357\367\335\357\352\021\217"
 306      44395DF5 
 306      5AAF5FBF 
 306      EFF7DDEF 
 306      EA118F
 307 007b 7854E046 		.ascii	"xT\340Fh\024\256\357\314A\350a/B\231\010\241g\241\214"
 307      6814AEEF 
 307      CC41E861 
 307      2F429908 
 307      A167A18C 
 308 008f 83D20265 		.ascii	"\203\322\002e\003\224-P\\P<P*9\204\346CY\010e\021\224"
 308      03942D50 
 308      5C503C50 
 308      2A3984E6 
 308      43590865 
 309 00a5 2A281294 		.ascii	"*(\022\224\005P\226AY\016\005_\223\240TC\275\001\312"
 309      05509641 
 309      590E055F 
 309      93A05443 
 309      BD01CA
 310 00b8 6A286BA1 		.ascii	"j(k\2414Ai\206\262\021\312\026(\333\240\354\204\262"
 310      34416986 
 310      B211CA16 
 310      28DBA0EC 
 310      84B2
 311 00ca 0FCA5128 		.ascii	"\017\312Q(\037B\351\201r\012\312gP>\207\362\007(>\300"
 311      1F42E981 
 311      720ACA67 
 311      503E87F2 
 311      07283EC0 
 312 00de 1A86BFD7 		.ascii	"\032\206\277\327\240\214@\271\011\345\033(\223y\204"
 312      A08C40B9 
 312      09E51B28 
 312      937984
 313 00ed 1E80328D 		.ascii	"\036\2002\215G\272\013\363\305b\314f\317\034k3^X\266"
 313      47BA0BF3 
 313      C562CC66 
 313      CF1C6B33 
 313      5E58B6
 314 0100 6CD66F17 		.ascii	"l\326o\027G\365\233\011X?\342\023:\267A\373\023|\302"
 314      47F59B09 
 314      583FE213 
 314      3AB741FB 
 314      137CC2
ARM GAS  /tmp/cceOrkpj.s 			page 24


 315 0113 16AD0CC7 		.ascii	"\026\255\014\307\305\350\3671\035\260\010X\256a\003"
 315      C5E8F731 
 315      1DB00858 
 315      AE6103
 316 0122 1FAC3B98 		.ascii	"\037\254;\230\030=\31101\217c\254\017\317\336\037e\362"
 316      183DC930 
 316      318F63AC 
 316      0FCFDE1F 
 316      65F2
 317 0134 1A69D7A6 		.ascii	"\032i\327\246\240]kC\333\304\364\231\305S\237\341:\366"
 317      A05D6B43 
 317      DBC4F499 
 317      C5539FE1 
 317      3AF6
 318 0146 5BB786BE 		.ascii	"[\267\206\276\211\331\0347]3\320c?Mf<q,`;=\305'l\205"
 318      89D91C37 
 318      5D33D063 
 318      3F4D663C 
 318      712C603B 
 319 015f EDD40DF5 		.ascii	"\355\324\015\365\247\231l\275\034\265\233\326fJ\214"
 319      A7996CBD 
 319      1CB59BD6 
 319      664A8C
 320 016e 609B29F6 		.ascii	"`\233)\366\303\227\233\341\367h\354\347b\366\0331\261"
 320      C3979BE1 
 320      F768ECE7 
 320      62F61B31 
 320      B1
 321 017f 218E9729 		.ascii	"!\216\227)\006Y\264r<\303dPb\261\337\241,\377\200\375"
 321      0659B472 
 321      3CC36450 
 321      62B1DFA1 
 321      2CFF80FD 
 322 0193 CA787918 		.ascii	"\312xy\030\237S\032\231\2325r\0153\331\264\027\216\341"
 322      9F531A99 
 322      9A35720D 
 322      33D9B417 
 322      8EE1
 323 01a5 1C0736FA 		.ascii	"\034\0076\3721\363\301\000\224g\241>d#\023\366\327\002"
 323      31F3C100 
 323      9467A13E 
 323      642313F6 
 323      D702
 324 01b7 E6276D3E 		.ascii	"\346'm>e0~J^\354d\276\2536\330\316\350G\234c\367\330"
 324      65307E4A 
 324      5EEC64BE 
 324      AB36D8CE 
 324      E8479C63 
 325 01cd D86E3693 		.ascii	"\330n6\223M\261\335y\0072\316\201\366\255\032\273mc"
 325      4DB1DD79 
 325      0732CE81 
 325      F6AD1ABB 
 325      6D63
 326 01df 79AAC8B5 		.ascii	"y\252\310\265E#\223\222\263\332+\013-\227\345J\271\271"
 326      45239392 
 326      B3DA2B0B 
 326      2D97E54A 
ARM GAS  /tmp/cceOrkpj.s 			page 25


 326      B9B9
 327 01f1 4A7EB16B 		.ascii	"J~\261k\334DT+\303\025h\034\347GKq\363\320&9\007\254"
 327      DC44542B 
 327      C315681C 
 327      E7474B71 
 327      F3D02639 
 328 0207 FA734EE0 		.ascii	"\372sN\340\240\311G*\331~\022\244\017\243\215\320\025"
 328      A0C9472A 
 328      D97E12A4 
 328      0FA38DD0 
 328      15
 329 0218 FAF302F7 		.ascii	"\372\363\002\367\026\347\207 \346M\322\032_\364=\276"
 329      16E78720 
 329      E64DD21A 
 329      5FF43DBE 
 330 0228 3039AD2B 		.ascii	"09\255+\265QNE\237\247\240\217gT\033\270\211\244Fd\221"
 330      B5514E45 
 330      9FA7A08F 
 330      67541BB8 
 330      89A44664 
 331 023d 9988A407 		.ascii	"\231\210\244\007\243\010(\024nF\261Y\303'\333\237\250"
 331      A3082814 
 331      6E46B159 
 331      C327DB9F 
 331      A8
 332 024e 8C639258 		.ascii	"\214c\222X\321\265pY\246\366\230\204\352\210=\272\306"
 332      D1B57059 
 332      A6F69884 
 332      EA883DBA 
 332      C6
 333 025f A9B4714E 		.ascii	"\251\264qN!\316Q\214P;T\363\347\034\331-p[\271I`\206"
 333      21CE518C 
 333      503B54F3 
 333      E71CD92D 
 333      705BB949 
 334 0275 7C0E4D43 		.ascii	"|\016MCoS\333\034y\310\314&)a\261L\333\001L\340\266"
 334      6F53DB1C 
 334      79C8CC26 
 334      2961B14C 
 334      DB014CE0 
 335 028a 71D398A5 		.ascii	"q\323\230\245\343\355\235\331\230\011nG\354\215\311"
 335      E3ED9DD9 
 335      98096E47 
 335      EC8DC9
 336 0299 F53DD48C 		.ascii	"\365=\324\214;\357\357|\223\223\233\217p&\254~\241p"
 336      3BEFEF7C 
 336      93939B8F 
 336      7026AC7E 
 336      A170
 337 02ab CA4E28B0 		.ascii	"\312N(\260\277\352\200K\226}\002\327JT(\344t\014R\201"
 337      BFEA804B 
 337      967D02D7 
 337      4A5428E4 
 337      740C5281 
 338 02bf F0288609 		.ascii	"\360(\206\011v\033%>\333\302\005hsj\201\007\376\350"
 338      761B253E 
 338      DBC20568 
ARM GAS  /tmp/cceOrkpj.s 			page 26


 338      736A8107 
 338      FEE8
 339 02d1 97EBB34D 		.ascii	"\227\353\263M8\315Q8\371\022\342\326-?U\307-\222ex\261"
 339      38CD5138 
 339      F912E2D6 
 339      2D3F55C7 
 339      2D926578 
 340 02e6 8F08BC9E 		.ascii	"\217\010\274\2363\225\270y\216\025\020\017I\204I\332"
 340      3395B879 
 340      8E15100F 
 340      498449DA 
 341 02f6 0D320FD5 		.ascii	"\0152\017\325\035\357\251\344*\010t\273\003\301+\343"
 341      1DEFA9E4 
 341      2A0874BB 
 341      03C12BE3 
 342 0306 2796374D 		.ascii	"'\2267M\305\226N\0258\315n\205\377?%\024\251\355\236"
 342      C5964E15 
 342      38CD6E85 
 342      FF3F2514 
 342      A9ED9E
 343 0319 8D7D7A88 		.ascii	"\215}z\210(1`\256\2045\010\017#\004&9\234\244\304\212"
 343      283160AE 
 343      8435080F 
 343      23042639 
 343      9CA4C48A 
 344 032d 414589C3 		.ascii	"AE\211\303\216\254\377u7\015\027\305\236\027U\\3\343"
 344      8EACFF75 
 344      370D17C5 
 344      9E17555C 
 344      33E3
 345 033f A9E98590 		.ascii	"\251\351\205\220*\231\336(\327\273\263k\0056\206P\213"
 345      2A99DE28 
 345      D7BBB36B 
 345      05368650 
 345      8B
 346 0350 98271F33 		.ascii	"\230'\0373\303\331\232\243'\270\205D\336\337\220\241"
 346      C3D99AA3 
 346      27B88544 
 346      DEDF90A1 
 347 0360 640BAF37 		.ascii	"d\013\2577\205s\250\216\206c\207\271J\002\325M\240>"
 347      8573A88E 
 347      866387B9 
 347      4A02D54D 
 347      A03E
 348 0372 1933D4E0 		.ascii	"\0313\324\340\353\007\236\"I\361\011\001Z\344\322\003"
 348      EB079E22 
 348      49F10901 
 348      5AE4D203 
 349 0382 099C5755 		.ascii	"\011\234WU[}V:`4\257?Q\301\313\272\361\350[\356\316"
 349      5B7D563A 
 349      6034AF3F 
 349      51C1CBBA 
 349      F1E85BEE 
 350 0397 A31A97C1 		.ascii	"\243\032\227\301o:\2754.4\365\233<T{\374\034\277F\216"
 350      6F3ABD34 
 350      2E34F59B 
 350      3C547BFC 
ARM GAS  /tmp/cceOrkpj.s 			page 27


 350      1CBF468E 
 351 03ab 2F722909 		.ascii	"/r)\011\224ae#\036\255$\274\372\214\261\3270\360\261"
 351      94616523 
 351      1EAD24BC 
 351      FA8CB1D7 
 351      30F0B1
 352 03be 127B7D8E 		.ascii	"\022{}\216\022ho\367jg\011\304+\374\277O\370\037#\374"
 352      12686FF7 
 352      6A6709C4 
 352      2BFCBF4F 
 352      F81F23FC 
 353 03d2 CF18F99F 		.ascii	"\317\030\371\237<\367\333\305\214\377\031G\374\333\317"
 353      3CF7DBC5 
 353      8CFF1947 
 353      FCDBCF
 354 03e1 AC4CE62F 		.ascii	"\254L\346/p\317\336c\027\033\015\003\177\272\302\270"
 354      70CFDE63 
 354      171B0D03 
 354      7FBAC2B8 
 355 03f1 0C00258F 		.ascii	"\014\000%\217F\222\242cv\226\226\031y\326t\340Q\245"
 355      4692A263 
 355      76969619 
 355      79D674E0 
 355      51A5
 356 0403 5B91DFC6 		.ascii	"[\221\337\306W\310\312W\225\240\350\305U\\\375B\271"
 356      57C8CA57 
 356      95A0E8C5 
 356      555CFD42 
 356      B9
 357 0414 2B5F9161 		.ascii	"+_\221aq\332\210\001\235%\016\234\201\254U\300\226:"
 357      71DA8801 
 357      9D250E9C 
 357      81AC55C0 
 357      963A
 358 0426 01B30CA5 		.ascii	"\001\263\014\245\312\370!-\330ki\203\351%\353\325\202"
 358      CAF8212D 
 358      D86B6983 
 358      E925EBD5 
 358      82
 359 0437 AD700236 		.ascii	"\255p\0026\301Z\262>-X]\332`z\311Ni\301V:\001\313\261"
 359      C15AB23E 
 359      2D585DDA 
 359      607AC94E 
 359      69C1563A 
 360 044e 96ECB416 		.ascii	"\226\354\264\026\2541m0\275d\237j\301\336t\002\0260"
 360      AC316D30 
 360      BD649F6A 
 360      C1DE7402 
 360      1630
 361 0460 914CBDAC 		.ascii	"\221L\275\254\326N\247\023k'\230\207\335\312\230\220"
 361      D64EA713 
 361      6B279887 
 361      DDCA9890 
 362 0470 664CA304 		.ascii	"fL\243\004\306\006w\272c\230No\230\301?\337\3005\320"
 362      C60677BA 
 362      63984E6F 
 362      98C13FDF 
ARM GAS  /tmp/cceOrkpj.s 			page 28


 362      C035D0
 363 0483 BC384894 		.ascii	"\2748H\224\337\354\004\321&`j?\"\226\244`\333\323\006"
 363      DFEC04D1 
 363      26606A3F 
 363      2296A460 
 363      DBD306
 364 0496 D3BB651D 		.ascii	"\323\273e\035\006\323\2155\352Z;\236\323\230\030\356"
 364      06D38D35 
 364      EA5A3B9E 
 364      D39818EE 
 365 04a6 748B6D81 		.ascii	"t\213m\201\333\310=\354t!\235\344\242kZ\027\355v\"\277"
 365      DBC83DEC 
 365      74219DE4 
 365      A26B5A17 
 365      ED7622BF 
 366 04ba 4D8CF65A 		.ascii	"M\214\366Z\311\037\257\222\227r\025\357\334k\273rk\030"
 366      C91FAF92 
 366      977215EF 
 366      DC6BBB72 
 366      6B18
 367 04cc B8D8C2A6 		.ascii	"\270\330\302\246\347\233dVms\233N\317\216\300:\032z"
 367      E79B6456 
 367      6D739B4E 
 367      CF8EC03A 
 367      1A7A
 368 04de 94B9FE36 		.ascii	"\224\271\3766\001;2v\260\346\301\323\367\342\245X\005"
 368      013B3276 
 368      B0E6C1D3 
 368      F7E2A558 
 368      05
 369 04ef 8F813E72 		.ascii	"\217\201>r\033Gs\277a\256\367\353gc\277?Q\031U.\375"
 369      1B4773BF 
 369      61AEF7EB 
 369      6763BF3F 
 369      5119552E 
 370 0504 DAFF5BA5 		.ascii	"\332\377[\245\261r\375\015\255\353O\247\355z}f\325\036"
 370      B172FD0D 
 370      ADEB4FA7 
 370      ED7A7D66 
 370      D51E
 371 0516 BFC6AF96 		.ascii	"\277\306\257\226\343\025.\315\356\320*b\225\225]\317"
 371      E3152ECD 
 371      EED02A62 
 371      95955DCF 
 372 0526 A11F9335 		.ascii	"\241\037\2235T\025\261\353\240\271\203\034\000u4\354"
 372      5415B1EB 
 372      A0B9831C 
 372      007534EC 
 373 0536 7894002D 		.ascii	"x\224\000-#@\177\0323\320\340\353\353f\021\240j\002"
 373      23407F1A 
 373      33D0E0EB 
 373      EB6611A0 
 373      6A02
 374 0548 7431C9D3 		.ascii	"t1\311\323\234\301\323\234\336\003j\326\261\244\373"
 374      9CC1D39C 
 374      DE036AD6 
 374      B1A4FB
ARM GAS  /tmp/cceOrkpj.s 			page 29


 375 0557 B6FAF2E8 		.ascii	"\266\372\362\350\272\321]:ul\306lu \274U\317]\255\224"
 375      BAD15D3A 
 375      756CC66C 
 375      7520BC55 
 375      CF5DAD94 
 376 056b 1BF3D3F0 		.ascii	"\033\363\323\360W\015\363W\035\261\316\355$\353`\363"
 376      570DF357 
 376      1DB1CEED 
 376      24EB60F3 
 377 057b A7A74695 		.ascii	"\247\247F\225']5|z5V\214\216A\215\016\252\306\353D\215"
 377      275D357C 
 377      7A35568C 
 377      8E418D0E 
 377      AAC6EB44 
 378 0590 6ACF9DAB 		.ascii	"j\317\235\253\2612m5&h\324 \033\313\225tZ\272\033\325"
 378      B1326D35 
 378      2668D420 
 378      1BCB9574 
 378      5ABA1BD5 
 379 05a4 DBAFADB1 		.ascii	"\333\257\255\261<o\360w\3537\323\375\307\361f\0327\247"
 379      3C6FF077 
 379      EB37D3FD 
 379      C7F1661A 
 379      37A7
 380 05b6 DECE5D3D 		.ascii	"\336\316]=\376&Y\322\352NN\354w`=\352\016l\0351\331"
 380      FE2659D2 
 380      EA4E4EEC 
 380      77603DEA 
 380      0E6C1D31 
 381 05cb 1A8F4982 		.ascii	"\032\217I\2029\201j\3568y\017\036H[\010\314\372\261"
 381      39816AEE 
 381      38790F1E 
 381      485B08CC 
 381      FAB1
 382 05dd C20C0D9E 		.ascii	"\302\014\015\236n\243y\272\221\000mIra\206\301\203\031"
 382      6EA379BA 
 382      91006D49 
 382      726186C1 
 382      8319
 383 05ef 7A0FC223 		.ascii	"z\017\302#\346t\235\014\220\013X\013~\360\242\2779\035"
 383      E6749D0C 
 383      900B580B 
 383      7EF0A2BF 
 383      391D
 384 0601 8FDE21E2 		.ascii	"\217\336!\342c\357\215e\261\217w\364\347\033\224E\015"
 384      63EF8D65 
 384      B18F77F4 
 384      E71B9445 
 384      0D
 385 0612 75D07B77 		.ascii	"u\320{w\204X\031__C\317-\310\306\204G\207\357\020\356"
 385      8458195F 
 385      5F43CF2D 
 385      C8C68447 
 385      87EF10EE 
 386 0626 408F7159 		.ascii	"@\217qY`\330O\035\262\230v\324#\235Ne.\337\311c\201"
 386      60D84F1D 
 386      B29876D4 
ARM GAS  /tmp/cceOrkpj.s 			page 30


 386      239D4E65 
 386      2EDFC963 
 387 063b BA921C7E 		.ascii	"\272\222\034~\2203\354\250p\203\246\213U*\355\3405s"
 387      9033ECA8 
 387      7083A68B 
 387      552AEDE0 
 387      3573
 388 064d E0C09D3A 		.ascii	"\340\300\235:\342\370W\006G\374\356\016-7Rcr\200D\217"
 388      E2F85706 
 388      47FCEE0E 
 388      2D375263 
 388      7280448F 
 389 0661 CDAC34DA 		.ascii	"\315\2544\332\253\325h\370\016\371\257\3553z\316d\363"
 389      ABD568F8 
 389      0EF9AFED 
 389      337ACE64 
 389      F3
 390 0672 2DABE793 		.ascii	"-\253\347\223\023\010\323\313\204i;o\330|_\275\324\265"
 390      1308D3CB 
 390      84693B6F 
 390      D87C5FBD 
 390      D4B5
 391 0684 44393DE3 		.ascii	"D9=\343\235\034<}E\216\375\350\261\223\300\035\343x"
 391      9D1C3C7D 
 391      458EFDE8 
 391      B193C01D 
 391      E378
 392 0696 866AB650 		.ascii	"\206j\266Ps`\312\341\0179\002G\227\352\015\031\234\036"
 392      7360CAE1 
 392      0F390247 
 392      97EA0D19 
 392      9C1E
 393 06a8 2ECD2DEC 		.ascii	".\315-\354-\261+?=\303\320`\216\237\375#\036\253\017"
 393      2DB12B3F 
 393      3DC3D060 
 393      8E9FFD23 
 393      1EAB0F
 394 06bb F3F8286D 		.ascii	"\363\370(mM\2061\216\251e4q\2340\243\300\355\347\361"
 394      4D86318E 
 394      A9653471 
 394      9C30A3C0 
 394      EDE7F1
 395 06ce 3AFF00FF 		.ascii	":\377\000\377=\034\337\344\336\001w\365\262\212\210"
 395      3D1CDFE4 
 395      DE0177F5 
 395      B28A88
 396 06dd B836225A 		.ascii	"\2706\"Z\322\326;`\360\216\025\233\367\264l6g\334Q\340"
 396      D2D63B60 
 396      F08E159B 
 396      F7B46C36 
 396      67DC51E0 
 397 06f1 C172F2B8 		.ascii	"\301r\362\270\233\0346\245qP\330sL=($\311\267#\311\272"
 397      9B1C36A5 
 397      7150D873 
 397      4C3D2824 
 397      C9B723C9 
 398 0706 DDC6F59B 		.ascii	"\335\306\365\233\223s\263\366\261\252\242^<\212g8X]"
ARM GAS  /tmp/cceOrkpj.s 			page 31


 398      9373B3F6 
 398      B1AAA25E 
 398      3C8A6738 
 398      585D
 399 0718 074CACAE 		.ascii	"\007L\254\256\016\361\247\331\002!\345\341\2332fv\177"
 399      0EF1A7D9 
 399      0221E5E1 
 399      9B326676 
 399      7F
 400 0729 5CC18EC1 		.ascii	"\\\301\216\301?!\261v\304`\015\007\247x'\010I\2571\221"
 400      3F21B176 
 400      C4600D07 
 400      A7782708 
 400      49AF3191 
 401 073d EB56A8A7 		.ascii	"\353V\250\247x\275\016\022\2712\276g\2712\235\320Q\371"
 401      78BD0E12 
 401      B932BE67 
 401      B9329DD0 
 401      51F9
 402 074f 28CF33DC 		.ascii	"(\3173\334\261ZT\347\304^M\212\364\221\0249\251M\013"
 402      B15A54E7 
 402      C45E4D8A 
 402      F4911439 
 402      A94D0B
 403 0762 18859D58 		.ascii	"\030\205\235X\377\021\253`\204\201\250O\177\002>l\304"
 403      FF11AB60 
 403      8481A84F 
 403      7F023E6C 
 403      C4
 404 0773 331B8A74 		.ascii	"3\033\212txZoV\306kO\2223\003\032\245\177q\"\\\2765"
 404      785A6F56 
 404      C66B4F92 
 404      33031AA5 
 404      7F71225C 
 405 0789 D8FA06C5 		.ascii	"\330\372\006\305\270\357\221\271\361\246\023\274YV\312"
 405      B8EF91B9 
 405      F1A613BC 
 405      5956CA
 406 0798 56C6DB4E 		.ascii	"V\306\333N\276\311\360\350q\373Bo\272xz\371\372\033"
 406      BEC9F0E8 
 406      71FB426F 
 406      BA787AF9 
 406      FA1B
 407 07aa 746B896A 		.ascii	"tk\211j'ps\034\373>\361yC\340> \307 G9<0v\222\373\011"
 407      2770731C 
 407      FB3EF179 
 407      43E03E20 
 407      C7204739 
 408 07c4 72BF42EE 		.ascii	"r\277B\356W\311\375+r\037!\367"
 408      57C9FD2B 
 408      721F21F7 
 409 07d0 C56408AD 		.ascii	"\305d\010\255%\367U\344\276\226\334?&\367~r?C\356g\311"
 409      25F755E4 
 409      BE96DC3F 
 409      26F77E72 
 409      3F43EE67 
 410 07e5 7D80DC07 		.ascii	"}\200\334\007\235\014\271\206\325\207\022\362\355c="
ARM GAS  /tmp/cceOrkpj.s 			page 32


 410      9D0CB986 
 410      D58712F2 
 410      ED633D
 411 07f4 D08DF775 		.ascii	"\320\215\367uk\216\231\352\275\\\232`\001;\033\266k"
 411      6B8E99EA 
 411      BD5C9A60 
 411      013B1BB6 
 411      6B
 412 0805 6CB89FD8 		.ascii	"l\270\237\330\360\000\261\317\347ZM\225\011x\267}\324"
 412      F000B1CF 
 412      E75A4D95 
 412      0978B77D 
 412      D4
 413 0816 5BAA200F 		.ascii	"[\252 \017\355\357l{*1\244;\334yt*C\372\357I\262\254"
 413      EDEF6C7B 
 413      2A31A43B 
 413      DC79742A 
 413      43FAEF49 
 414 082c F61A87F4 		.ascii	"\366\032\207\364\026\343f-\255\245w\223\227C\326\313"
 414      16E3662D 
 414      ADA57793 
 414      9743D6CB 
 415 083c 299B5580 		.ascii	")\233U\200\271%wk,\371.\261\344^b\311\337\351\307\243"
 415      B925776B 
 415      2CF92EB1 
 415      E45E62C9 
 415      DFE9C7A3 
 416 0850 16C2757B 		.ascii	"\026\302u{\202\353/\024V\331\216,y\351B\227\253B\363"
 416      82EB2F14 
 416      56D98E2C 
 416      79E94297 
 416      AB42F3
 417 0863 2526C517 		.ascii	"%&\305\027\334xS'^r|A\246\201M^\323i\300\022\002\253"
 417      DC785327 
 417      5E727C41 
 417      A6814D5E 
 417      D369C012 
 418 0879 F5A56106 		.ascii	"\365\245a\006\210\327\321\317\315_:\032\375\033\252"
 418      88D7D1CF 
 418      CD5F3A1A 
 418      FD1BAA
 419 0888 AC3F82DA 		.ascii	"\254?\202\332\315>{\210\244\227\214\274\257\010\001"
 419      CD3E7B88 
 419      A4978CBC 
 419      AF0801
 420 0897 DA9A9AF3 		.ascii	"\332\232\232\363Ue\311w\221OL;\227\356`\332\261J\367"
 420      5565C977 
 420      914F4C3B 
 420      97EE60DA 
 420      B14AF7
 421 08aa 8B89A58F 		.ascii	"\213\211\245\217\302\346\313\364\3310\251Wuj6\350\216"
 421      C2E6CBF4 
 421      D930A957 
 421      756A36E8 
 421      8E
 422 08bb 563EA337 		.ascii	"V>\2437\207\236n\225\345\011\002\367W:\245$e\211\307"
 422      879E6E95 
ARM GAS  /tmp/cceOrkpj.s 			page 33


 422      E50902F7 
 422      573AA524 
 422      6589C7
 423 08ce 90241E7D 		.ascii	"\220$\036}\222x\374\211\212\272\356\031!(\351\350\021"
 423      9278FC89 
 423      8ABAEE19 
 423      2128E9E8 
 423      11
 424 08df D0EA3154 		.ascii	"\320\3521T\363\207.\027\311w\235\343\247\240U,\371e"
 424      F3872E17 
 424      C9779DE3 
 424      A7A0552C 
 424      F965
 425 08f1 4E227382 		.ascii	"N\"s\202\225Qo\360SH\315E~\003\205\250r\352\003\325"
 425      95516FF0 
 425      5348CD45 
 425      7E0385A8 
 425      72EA03D5 
 426 0905 48E07EE6 		.ascii	"H\340~\346\262\365\016\263\320\033\033Fr\336&\026\032"
 426      B2F50EB3 
 426      D01B1B46 
 426      72DE2616 
 426      1A
 427 0916 2193E40E 		.ascii	"!\223\344\016\237\336B\206\375\025fm%\326(\237e\021"
 427      9FDE4286 
 427      FD15666D 
 427      25D6289F 
 427      6511
 428 0928 7849EF78 		.ascii	"xI\357x\364\276\317\201\015\235\217/_jV:\377KV:\377"
 428      F4BECF81 
 428      0D9D8F2F 
 428      5F6A563A 
 428      FF4B563A 
 429 093d 47E6A4AB 		.ascii	"G\346\244\253\344~]?\312|\340s0\312\330\256\364u\274"
 429      E47E5D3F 
 429      CA7CE073 
 429      30CAD8AE 
 429      F475BC
 430 0950 B76BC6B6 		.ascii	"\267k\306\266\035dl\333I\306\266\013N\346\303-\026?"
 430      1D646CDB 
 430      49C6B60B 
 430      4EE6C32D 
 430      163F
 431 0962 A2A1A392 		.ascii	"\242\241\243\222\025U\245\313\234*\361S$\372}\203\321"
 431      1555A5CB 
 431      9C2AF153 
 431      24FA7D83 
 431      D1
 432 0973 FF5CA1CF 		.ascii	"\377\\\241\317b\364\213\\\351\376Hh\261\313\374GB\231"
 432      62F48B5C 
 432      E9FE4868 
 432      B1CBFC47 
 432      4299
 433 0985 29F45B98 		.ascii	")\364[\230BR\314\266;!\251~c\210\001\226\244-\352R\013"
 433      4252CCB6 
 433      3B21A97E 
 433      63880196 
ARM GAS  /tmp/cceOrkpj.s 			page 34


 433      A42DEA52 
 434 099a 515D2944 		.ascii	"Q])D\255J\317\250]\252\250S\031\300\362\264E}\315B\324"
 434      AD4ACFA8 
 434      5DAAA853 
 434      19C0F2B4 
 434      457DCD42 
 435 09af 9C14A22E 		.ascii	"\234\024\242.K\210\372\000Z'\367^\036zg\363\360\005"
 435      4B88FA00 
 435      5A27F75E 
 435      1E7A67F3 
 435      F005
 436 09c1 AE0EF641 		.ascii	"\256\016\366A\362e<J\321L\345\321_\015\351\374}\364"
 436      F2653C4A 
 436      D14CE5D1 
 436      5F0DE9FC 
 436      7DF4
 437 09d3 962CD7CB 		.ascii	"\226,\327\313\253\305\027\225!\261\322\217{T\273\036"
 437      ABC51795 
 437      21B1D28F 
 437      7B54BB1E 
 438 09e3 3065467B 		.ascii	"0eF{)d\375\230\314\203\251\226\244\240\242\203\320\337"
 438      2964FD98 
 438      CC83A996 
 438      A4A0A283 
 438      D0DF
 439 09f5 A34DD88C 		.ascii	"\243M\330\214\007\317\377\364E\366e\337\232\206i\366"
 439      07CFFFF4 
 439      45F665DF 
 439      9A8669F6 
 440 0a05 6B97EEA7 		.ascii	"k\227\356\247\260X\273\370\345\370\033}+`\344\257\214"
 440      B058BBF8 
 440      E5F81B7D 
 440      2B60E4AF 
 440      8C
 441 0a16 8F8ECE46 		.ascii	"\217\216\316F\206q\322\342\027\007\030k\245k\012\253"
 441      8671D2E2 
 441      1707186B 
 441      A56B0AAB 
 442 0a26 2963218F 		.ascii	")c!\217~\355\327\033\204\011\011\327V\331E\320p\377"
 442      7EEDD71B 
 442      840909D7 
 442      56D945D0 
 442      70FF
 443 0a38 06105273 		.ascii	"\006\020Rs\301*\330T\254\372\276\354\332\212\241\321"
 443      C12AD854 
 443      ACFABEEC 
 443      DA8AA1D1 
 444 0a48 D107282F 		.ascii	"\321\007(/\036mp\204\276\332\210\336h\212\376\351G\006"
 444      1E6D7084 
 444      BEDA88DE 
 444      688AFEE9 
 444      4706
 445 0a5a F4BD8ED0 		.ascii	"\364\275\216\320\327\032\321\3370E\277\336i@\357r\204"
 445      D71AD1DF 
 445      3045BFDE 
 445      6940EF72 
 445      84
ARM GAS  /tmp/cceOrkpj.s 			page 35


 446 0a6b DE64445F 		.ascii	"\336dD_g\212~\371\243j\037\205w\356\256\026\023w\015"
 446      678A7EF9 
 446      A36A1F85 
 446      77EEAE16 
 446      13770D
 447 0a7e 980B55AB 		.ascii	"\230\013U\253\027\252\331(\324\0063\241\344\335\262"
 447      17AAD928 
 447      D40633A1 
 447      E4DDB2
 448 0a8d EC976112 		.ascii	"\354\227a\022\307?\276\244:\177\355H\347\215F\370M\246"
 448      C73FBEA4 
 448      3A7FED48 
 448      E78D46F8 
 448      4DA6
 449 0a9f 3AD7FE26 		.ascii	":\327\376&}\235\267\232\350\\\235\351D\347-F\241\336"
 449      7D9DB79A 
 449      E85C9DE9 
 449      44E72D46 
 449      A1DE
 450 0ab1 76A8F356 		.ascii	"v\250\363Vsx\203\316\333\214\360\333\223\341\207j\207"
 450      737883CE 
 450      DB8CF0DB 
 450      93E1876A 
 450      87
 451 0ac2 6EEEB9F2 		.ascii	"n\356\271\362\303\306\335\362\242e\362\355\321\005\234"
 451      C3C6DDF2 
 451      A265F2ED 
 451      D1059C
 452 0ad1 4E6F1F5A 		.ascii	"No\037ZB\276;-\226+\270_\251C\231\345\257aw\271| \334"
 452      42BE3B2D 
 452      962BB85F 
 452      A94399E5 
 452      AF6177B9 
 453 0ae8 A94CFD07 		.ascii	"\251L\375\007?\215\000\270\003\2760=\255+5\233/\271"
 453      3F8D00B8 
 453      03BE303D 
 453      AD2B359B 
 453      2FB9
 454 0afa AD2EC352 		.ascii	"\255.\303R\011\367W\037\330'~\335Z\211G\237%\031\210"
 454      09F7571F 
 454      D8277EDD 
 454      5A89479F 
 454      251988
 455 0b0d 76DA6B6A 		.ascii	"v\332kj\201\232\326\017\2715\362\221E`\344\005\306\261"
 455      819AD60F 
 455      B935F291 
 455      4560E405 
 455      C6B1
 456 0b1f C9660DD7 		.ascii	"\311f\015\327f\024\014/\004\330\003[\337\312U\362#["
 456      66140C2F 
 456      04D8035B 
 456      DFCA55F2 
 456      235B
 457 0b31 13EBDB09 		.ascii	"\023\353\333\011\012\004\2174gY\373\246\221\317=\357"
 457      0A048F34 
 457      6759FBA6 
 457      91CF3DEF 
ARM GAS  /tmp/cceOrkpj.s 			page 36


 458 0b41 BB70FB05 		.ascii	"\273p\373\005\203\344\316\201:\032\332~H\200\016\022"
 458      83E4CE81 
 458      3A1ADA7E 
 458      48800E12 
 459 0b51 A02B6306 		.ascii	"\240+c\006\032|}\013\375\371_\234\000\335\3104.\270"
 459      1A7C7D0B 
 459      FDF95F9C 
 459      00DDC834 
 459      2EB8
 460 0b63 5D8605B7 		.ascii	"]\206\005\267K\277\340v\371\023\225\321Q\027\372v;\033"
 460      4BBFE076 
 460      F91395D1 
 460      5117FA76 
 460      3B1B
 461 0b75 3CBF38CB 		.ascii	"<\2778\313\334\363\037\230{~\347aK\317\333\244\3741"
 461      DCF31F98 
 461      7B7EE761 
 461      4BCFDBA4 
 461      FC31
 462 0b87 1BCFB3E9 		.ascii	"\033\317\263\3516I\260\365\026\202u\231\011\026\357"
 462      3649B0F5 
 462      16827599 
 462      0916EF
 463 0b96 EBAE96B9 		.ascii	"\353\256\226\271tG\242n\243Xx\215i\024K}\036\341\315"
 463      7447A26E 
 463      A358788D 
 463      69144B7D 
 463      1EE1CD
 464 0ba9 32A7CD42 		.ascii	"2\247\315B\314\343\246b\336\036\213\230\275\266\326"
 464      CCE3A662 
 464      DE1E8B98 
 464      BDB6D6
 465 0bb8 9B6D2655 		.ascii	"\233m&U\227\205T'M\245\372\313X\244\352w U\012\027\177"
 465      97855427 
 465      4DA5FACB 
 465      58A4EA77 
 465      20550A17 
 466 0bcd 6621E559 		.ascii	"f!\345YS)\177;\026)\007l]lj\273+\026R\2353\225\352l"
 466      53297F3B 
 466      1629076C 
 466      5D6C6ABB 
 466      2B16529D 
 467 0be5 77F554B9 		.ascii	"w\365T\271\305t\231f3\024\016\231\211e\220\343\226\205"
 467      C5749966 
 467      33140E99 
 467      896590E3 
 467      9685
 468 0bf7 1CBF3795 		.ascii	"\034\2777\225\243\177\271\245\0346\3469\357\300<)\234"
 468      A37FB9A5 
 468      1C36E639 
 468      EFC03C29 
 468      9C
 469 0c08 B834DB5C 		.ascii	"\2704\333\\\314/\364b>\210Z\344x\357\320\256\315'\274"
 469      CC2FF462 
 469      3E885AE4 
 469      78EFD0AE 
 469      CD27BC
ARM GAS  /tmp/cceOrkpj.s 			page 37


 470 0c1b F8B44A96 		.ascii	"\370\264J\226o\215\216r\234\362\257\020\215*\010\223"
 470      6F8D8E72 
 470      9CF2AF10 
 470      8D2A0893 
 471 0c2b 34F9DF1C 		.ascii	"4\371\337\034\376\314\360f\242=\362\322x\200R\322}\247"
 471      FECCF066 
 471      A23DF2D2 
 471      788052D2 
 471      7DA7
 472 0c3d DAD44A9A 		.ascii	"\332\324J\232\366j\233\350\367B|\206\371?\350\206\354"
 472      F66A9BE8 
 472      F7427C86 
 472      F93FE886 
 472      EC
 473 0c4e 336C38F7 		.ascii	"3l8\367\331|;\275\224\330p<\212\246\321\276\244B\271"
 473      D97C3BBD 
 473      94D8703C 
 473      8AA6D1BE 
 473      A442B9
 474 0c61 0CBB1E64 		.ascii	"\014\273\036d\354Y\377\275\\b\357K\317K\011G\012\224"
 474      EC59FFBD 
 474      5C62EF4B 
 474      CF4B0947 
 474      0A94
 475 0c73 3602A207 		.ascii	"6\002\242\007\205\354\214\222<\343\3155\325+\237n\225"
 475      85EC8C92 
 475      3CE3CD35 
 475      D52B9F6E 
 475      95
 476 0c84 E98E1F77 		.ascii	"\351\216\037w\241gNt\357\317\216n\334\210\036\002\340"
 476      A1674E74 
 476      EFCF8E6E 
 476      DC881E02 
 476      E0
 477 0c95 C751E548 		.ascii	"\307Q\345H\212z!~\316\323%\3138T\224\203\300&\243\375"
 477      8A7A217E 
 477      CED325CB 
 477      38549483 
 477      C026A3FD 
 478 0ca9 938EFDBE 		.ascii	"\223\216\375\276\326\231\177\254\0020\376\203\233\374"
 478      D6997FAC 
 478      0230FE83 
 478      9BFC
 479 0cb7 B0B522DB 		.ascii	"\260\265\"\3336\272\333\345Q\213Q\202\344m\361\215D"
 479      36BADBE5 
 479      518B5182 
 479      E46DF18D 
 479      44
 480 0cc8 44619CE6 		.ascii	"Da\234\346\372\241\033{\256<J\246#%\232\310F\355m#T"
 480      FAA11B7B 
 480      AE3C4AA6 
 480      23259AC8 
 480      46ED6D23 
 481 0cdd 926B6FE9 		.ascii	"\222ko\351\221v\305a/y\345'\357\303l\277\014\237\016"
 481      9176C561 
 481      2F79E527 
 481      EFC36CBF 
ARM GAS  /tmp/cceOrkpj.s 			page 38


 481      0C9F0E
 482 0cf0 73A3AEC4 		.ascii	"s\243\256\304^]\215\230\270\346\244\022\022+\305\247"
 482      5E5D8D98 
 482      B8E6A412 
 482      122BC5A7 
 483 0d00 5D58269E 		.ascii	"]X&\236\310\301\247\325)?\005\013\\\205\373a\263\243"
 483      C8C1A7D5 
 483      293F050B 
 483      5C85FB61 
 483      B3A3
 484 0d12 D7640B2C 		.ascii	"\327d\013,t\033\316?o\212\001\332\232\372\374\363\233"
 484      741BCE3F 
 484      6F8A01DA 
 484      9AFAFCF3 
 484      9B
 485 0d23 6FBAE8F9 		.ascii	"o\272\350\371\3475\3629\342:9\300\307\244c;\230\034"
 485      E735F239 
 485      E23A39C0 
 485      C7A4633B 
 485      981C
 486 0d35 1D267086 		.ascii	"\035&p\206|\302\313m+\243/q\033\316\303\366\020?\245"
 486      7CC2CB6D 
 486      2BA32F71 
 486      1BCEC3F6 
 486      103FA5
 487 0d48 23424027 		.ascii	"#B@'Bm'\371\014\202qy\324\356\004\314\346\023~\275\026"
 487      426D27F9 
 487      0C827179 
 487      D4EE04CC 
 487      E6137EBD 
 488 0d5d EC48DA60 		.ascii	"\354H\332`\001\203\321\225\303\261En|8\266\330\215\017"
 488      0183D195 
 488      C3B1456E 
 488      7C38B6D8 
 488      8D0F
 489 0d6f C7AAC87D 		.ascii	"\307\252\310}\031\271\277\346\326\035\317ug\033\327"
 489      19B9BFE6 
 489      D61DCF75 
 489      671BD7
 490 0d7e 8CD4A91A 		.ascii	"\214\324\251\032\274\204\357QjDs\037\030\234%[\350\207"
 490      BC84EF51 
 490      6A44731F 
 490      189C255B 
 490      E887
 491 0d90 F157B875 		.ascii	"\361W\270u?\241A\226A\251=\324\302D\226\261[\343\236"
 491      3FA14196 
 491      41A93DD4 
 491      C24496B1 
 491      5BE39E
 492 0da3 C86A4BB5 		.ascii	"\310jK\265\353a\315#\217\372S\017\002\265n\036\335\217"
 492      EB61CD23 
 492      8FFA530F 
 492      02B56E1E 
 492      DD8F
 493 0db5 2E6437C9 		.ascii	".d7\311\324\376t<\232#p\267!gU\317\342\221\267Q\206"
 493      D4FE743C 
 493      9A2370B7 
ARM GAS  /tmp/cceOrkpj.s 			page 39


 493      216755CF 
 493      E291B751 
 494 0dca AC1EF989 		.ascii	"\254\036\371\211\213\312\205\363\274\2677~\206\374\377"
 494      8BCA85F3 
 494      BCB7377E 
 494      86FCFF
 495 0dd9 1224FA6D 		.ascii	"\022$\372m\0300\250\011xTqWJ\266\253\334\274\236\235"
 495      1830A809 
 495      78547157 
 495      4AB6ABDC 
 495      BC9E9D
 496 0dec 4CDC81DD 		.ascii	"L\334\201\335@y\301B\200sr\204\326\250\376s\312C\014"
 496      4079C142 
 496      80737284 
 496      D6A8FE73 
 496      CA430C
 497 0dff 7A8D3BDD 		.ascii	"z\215;\335#\264\265n\363#\264\007m\275/p\215\011\247"
 497      23B4B56E 
 497      F323B407 
 497      6DBD2F70 
 497      8D09A7
 498 0e12 DE8F56DC 		.ascii	"\336\217V\334\325$7\316I\260\247\321\204\225Y*\307?"
 498      D52437CE 
 498      49B0A7D1 
 498      8495592A 
 498      C73F
 499 0e24 CB54F295 		.ascii	"\313T\362\225\035~\320(\303xK\334t\244\177-\321\373"
 499      1D7ED028 
 499      C3784BDC 
 499      74A47F2D 
 499      D1FB
 500 0e36 9CDA5BBB 		.ascii	"\234\332[\273\205fRp\212\201\352\357\326y\242\251\307"
 500      85665270 
 500      8A81EAEF 
 500      D679A2A9 
 500      C7
 501 0e47 C413BB53 		.ascii	"\304\023\273S{\2429\245'\326\3678\362\304\247.\005\372"
 501      7BA239A5 
 501      27D6F738 
 501      F2C4A72E 
 501      05FA
 502 0e59 1906BD31 		.ascii	"\031\006\2751mOl\262\360\304\323)<\361\226\326\023\035"
 502      6D4F6CB2 
 502      F0C4D329 
 502      3CF196D6 
 502      131D
 503 0e6b CC131BCD 		.ascii	"\314\023\033\315<\261k\274b\333\265\016<\361\256\332"
 503      3CB16BBC 
 503      62DBB50E 
 503      3CF1AEDA 
 504 0e7b 7B63B227 		.ascii	"{c\262'x\305@\215zOt\364\231x\342fjOlK\351\211\023}"
 504      78C5408D 
 504      7A4F74F4 
 504      9978E266 
 504      6A4F6C4B 
 505 0e93 8E3CF185 		.ascii	"\216<\361\205\012}\037\203nM\333\023\273,<qo\012O\354"
 505      0A7D1F83 
ARM GAS  /tmp/cceOrkpj.s 			page 40


 505      6E4DDB13 
 505      BB2C3C71 
 505      6F0A4FEC 
 506 0ea7 D47A62E9 		.ascii	"\324zb\3518\352\211V3O\364MRl\273\332\201'N\253\275"
 506      38EA8956 
 506      334FF44D 
 506      526CBBDA 
 506      81274EAB 
 507 0ebc 1B923D41 		.ascii	"\033\222=A#O\031c\015\303\262\307Z\311w\335V_N\332l"
 507      234F1963 
 507      0DC3B2C7 
 507      5AC977DD 
 507      565F4EDA 
 508 0ed1 26DEBD96 		.ascii	"&\336\275\226T\2556T\373,\251\216\331P\265YRu\333P\275"
 508      54AD3654 
 508      FB2CA98E 
 508      D950B559 
 508      5275DB50 
 509 0ee6 674DC559 		.ascii	"gM\305Y[\243\335\222\252\327\206\327\373\226T\3756T"
 509      5BA3DD92 
 509      AAD786D7 
 509      FB9654FD 
 509      3654
 510 0ef8 FB2DA95A 		.ascii	"\373-\251Zl\250\016XR\015\330P\035\264\244\032\262\241"
 510      6CA80E58 
 510      520DD850 
 510      1DB4A41A 
 510      B2A1
 511 0f0a 3A644975 		.ascii	":dIu\336\206\252\303\222j\253\015U\\\263:p\207\212\204"
 511      DE86AAC3 
 511      926AAB0D 
 511      555CB33A 
 511      70878A84 
 512 0f1e E823B9B9 		.ascii	"\350#\271\271y\221X^(RZ\032\011C\255\244\370\345\274"
 512      7991585E 
 512      28525A1A 
 512      0943ADA4 
 512      F8E5BC
 513 0f31 E270A8A4 		.ascii	"\342p\250\244\274@\314\013\025\225\212\245e\221HI,\267"
 513      BC40CC0B 
 513      15958AA5 
 513      65914849 
 513      2CB7
 514 0f43 08DD5358 		.ascii	"\010\335SX.D\013\304\202 \264E\242\363\203\270=(e\274"
 514      2E440BC4 
 514      8220B445 
 514      A2F383B8 
 514      3D2865BC 
 515 0f57 F06F3F0B 		.ascii	"\360o?\013<\217\246R\224\250\244\241\215\211\245@\226"
 515      3C8FA652 
 515      94A8A4A1 
 515      8D89A540 
 515      96
 516 0f68 057F84B2 		.ascii	"\005\177\204\262\242HT\014J\331\241\242\240\372x\277"
 516      A248540C 
 516      4AD9A1A2 
 516      A0FA78BF 
ARM GAS  /tmp/cceOrkpj.s 			page 41


 517 0f78 19C9FC98 		.ascii	"\031\311\374\2304\277L\304\354\306KEQQ(\210\005\177"
 517      34BF4CC4 
 517      ECC64B45 
 517      51512888 
 517      057F
 518 0f8a 552E9603 		.ascii	"U.\226\003\355\004\240\3255\375\235\031}\250\250\000"
 518      ED04A0D5 
 518      35FD9D19 
 518      7DA8A800 
 519 0f9a 687DB463 		.ascii	"h}\264cP\362"
 519      50F2
 520 0fa0 AB441E42 		.ascii	"\253D\036B3C\247lY$*\305\362\236\373\217\227\236\177"
 520      3343A76C 
 520      59242AC5 
 520      F29EFB8F 
 520      979E7F
 521 0fb3 691E6E2B 		.ascii	"i\036n++.\021\243\261\274\027\236\177\036\240\0249\274"
 521      2B2E11A3 
 521      B1BC179E 
 521      7F1EA014 
 521      39BC
 522 0fc5 5259B438 		.ascii	"RY\2648\022\224\356\313+\217EUVaq.6TL*(\016K\230c9\374"
 522      1294EECB 
 522      2B8F4555 
 522      5661712E 
 522      36544C2A 
 523 0fe0 7D7C4650 		.ascii	"}|FPz\314\254[\251\020**\016\213y\301\002\361\025\241"
 523      7ACCAC5B 
 523      A9102A2A 
 523      0E8B79C1 
 523      02F115A1 
 524 0ff4 BC440A2A 		.ascii	"\274D\012*\340\231\301\240B\350\306l"
 524      E099C1A0 
 524      42E8C66C 
 525 1000 B2B148C1 		.ascii	"\262\261H\301P$,\211\363\244\207l\204-\012\201\005\261"
 525      50242C89 
 525      F3A4876C 
 525      842D0A81 
 525      05B1
 526 1012 75090140 		.ascii	"u\011\001@\204\244y?H\325?\370\352\223\330#\276\250"
 526      84A4793F 
 526      48D53FF8 
 526      EA93D823 
 526      BEA8
 527 1024 5828444B 		.ascii	"X(DK\203\022\037\235\311G\177\304G\237\340\243O\362"
 527      83121F9D 
 527      C9477FC4 
 527      479FE0A3 
 527      4FF2
 528 1036 D1597CF4 		.ascii	"\321Y|\364)Wtz>\224\351|I\224\217\225\271\000\324\003"
 528      2957747A 
 528      3E94E97C 
 528      49948F95 
 528      B900D403 
 529 104a 2A88514F 		.ascii	"*\210QO\244\244@\214\272\303B\251\230\031\223~)\224"
 529      A4A4408C 
 529      BAC342A9 
ARM GAS  /tmp/cceOrkpj.s 			page 42


 529      9819937E 
 529      2994
 530 105c 14178683 		.ascii	"\024\027\206\203\022Q\372\211\231A\211\251\201\253\031"
 530      1251FA89 
 530      994189A9 
 530      81AB19
 531 106b 73859785 		.ascii	"s\205\227\205\230\350\223b\222 \201\333\274\370\305"
 531      98E89362 
 531      922081DB 
 531      BCF8C5
 532 107a 2CF004ED 		.ascii	",\360\004\355\0025\017y\343\225J#\005\360\336\363J\211"
 532      02350F79 
 532      E3954A23 
 532      05F0DEF3 
 532      4A89
 533 108c 5018F34A 		.ascii	"P\030\363JQ\361\225\030\030\001\377\361\224\306\012"
 533      51F19518 
 533      1801FFF1 
 533      94C60A
 534 109b 8190D905 		.ascii	"\201\220\331\005\010Y-#Z0\037^\371\304y\305R\010\210"
 534      08592D23 
 534      5A301F5E 
 534      F9C479C5 
 534      520888
 535 10ae 33E64A91 		.ascii	"3\346J\221\227\377\253l\022s6\220\212Q1\034\302\240"
 535      97FFAB6C 
 535      12733690 
 535      8A51311C 
 535      C2A0
 536 10c0 7325295A 		.ascii	"s%)Z\346\215\211a\011\010\240\037\004]\231\017b\241"
 536      E68D8961 
 536      0908A01F 
 536      045D990F 
 536      62A1
 537 10d2 B41C0C6B 		.ascii	"\264\034\014k\026\253\245\322<\260\214'27,F\275\244"
 537      16ABA5D2 
 537      3CB08C27 
 537      32372C46 
 537      BDA4
 538 10e4 17081306 		.ascii	"\027\010\023\006'\0001\274+\313\022_\305`B\354\227 "
 538      270031BC 
 538      2BCB125F 
 538      C56042EC 
 538      9720
 539 10f6 87381757 		.ascii	"\2078\027W\270\362qJ<\226\024\307\300\247\3435\021\212"
 539      B8F2714A 
 539      3C9614C7 
 539      C0A7E335 
 539      118A
 540 1108 5BBC7385 		.ascii	"[\274s\205b\2518\\\350\003\031H\364\371\30421\014\001"
 540      62A9385C 
 540      E8031948 
 540      F4F9C432 
 540      310C01
 541 111b 53E80548 		.ascii	"S\350\005H\334\003<!\224`\277{H\226A\010\210\257zBa"
 541      DC033C21 
 541      9460BF7B 
ARM GAS  /tmp/cceOrkpj.s 			page 43


 541      48964108 
 541      88AF7A42 
 542 1130 C072C1DD 		.ascii	"\300r\301\335\005R\337\245K\266,\362\247\0108\210\321"
 542      0552DFA5 
 542      4BB62CF2 
 542      A7083888 
 542      D1
 543 1141 1924D070 		.ascii	"\031$\320pt\025\206By\340\317\307\302\221\260\370\230"
 543      74158642 
 543      79E0CFC7 
 543      C291B0F8 
 543      98
 544 1152 28BC5C9C 		.ascii	"(\274\\\23473wV\356\014U;\010R\210;P/#V\374\337`\235"
 544      37337756 
 544      EE0C553B 
 544      0852883B 
 544      502F2356 
 545 116a 2CB09A18 		.ascii	",\260\232\030\222\202\370\351\007\251\262\237\305Y6"
 545      9282F8E9 
 545      07A9B29F 
 545      C55936
 546 1179 540B45E9 		.ascii	"T\013E\351\225\362p\010\374^\026\215\274Z\214\003\002"
 546      95F27008 
 546      FC5E168D 
 546      BC5A8C03 
 546      02
 547 118a CBF32840 		.ascii	"\313\363(@HbL\302\006\215E\312\243!\221>\342\033d;h"
 547      48624CC2 
 547      068D45CA 
 547      A321913E 
 547      E21B643B 
 548 119f 8E7D923F 		.ascii	"\216}\222?=?7\204\356\012\227\227\224\004Ur,\201\207"
 548      3D3F3784 
 548      EE0A9797 
 548      94045572 
 548      2C8187
 549 11b2 04D364D2 		.ascii	"\004\323d\322\033:\005\363\363\037\017\212\363\304\020"
 549      1B3A05F3 
 549      F31F0F8A 
 549      F3C410
 550 11c1 F86092AE 		.ascii	"\370`\222\2561&J\345e\332\246\031\311M\323i\323wu\275"
 550      31264AE5 
 550      65DAA619 
 550      C94DD369 
 550      D37775BD 
 551 11d5 185A6E99 		.ascii	"\030Zn\231\020\225r\363'\233\275\373\256\016CG0}\262"
 551      109572F3 
 551      279BBDFB 
 551      AE0E4347 
 551      307DB2
 552 11e8 D9BB298A 		.ascii	"\331\273)\212\322\330`\330\357P\307\001\024\374G\260"
 552      D2D860D8 
 552      EF50C701 
 552      14FC47B0 
 553 11f8 4836790C 		.ascii	"H6y\014\012\261\230\030\225\374xL+.\025Y\272L\177BM"
 553      0AB19818 
 553      95FC784C 
ARM GAS  /tmp/cceOrkpj.s 			page 44


 553      2B2E1559 
 553      BA4C7F42 
 554 120d 175C9D1A 		.ascii	"\027\\\235\032*z\201\016\253?\005\302\347JJ\"\241\377"
 554      2A7A810E 
 554      AB3F05C2 
 554      E74A4A22 
 554      A1FF
 555 121f 84CE9172 		.ascii	"\204\316\221r\351;\2727\377N\\\366/\341b<\016\352\033"
 555      E93BBA37 
 555      FF4E5CF6 
 555      2FE1623C 
 555      0EEA1B
 556 1232 26EA3AFE 		.ascii	"&\352:\376sT\024\247\350Z\3765\"\024<\027\215\012\363"
 556      735414A7 
 556      E85AFE35 
 556      22143C17 
 556      8D0AF3
 557 1245 332925EE 		.ascii	"3)%\356\221E\253\204\337xZW\273\271\013K\313\246\273"
 557      9145AB84 
 557      DF785A57 
 557      BBB90B4B 
 557      CBA6BB
 558 1258 A078699C 		.ascii	"\240xi\234\304\374\324\223\222X\346!\326\365I\"\200"
 558      C4FCD493 
 558      9258E621 
 558      D6F54922 
 558      80
 559 1269 43AA7899 		.ascii	"C\252x\23112q\207\020d}P\232\230\344\365\251\271\321"
 559      31327187 
 559      10647D50 
 559      9A98E4F5 
 559      A9B9D1
 560 127c 48812009 		.ascii	"H\201 \011\271Io\262\265\206}\010\363\207\324\010\010"
 560      B9496FB2 
 560      B5867D08 
 560      F387D408 
 560      08
 561 128d E1820064 		.ascii	"\341\202\000d\2534\237<\004h\374\007p\240!-\301\214"
 561      AB349F3C 
 561      0468FC07 
 561      70A0212D 
 561      C18C
 562 129f 672C08D8 		.ascii	"g,\010\330,\245%\014\314-\226\212\300\244\001\226\220"
 562      2CA5250C 
 562      CC2D968A 
 562      C0A40196 
 562      90
 563 12b0 3AA0C7EF 		.ascii	":\240\307\357c\266\012\274D)\2601b\001\211z\001\375"
 563      63B60ABC 
 563      4429B031 
 563      6201897A 
 563      01FD
 564 12c2 3F827FBF 		.ascii	"?\202\177\277v"
 564      76
 565              		.text
 566              		.section	.gnu.lto_.symtab.a3f47859fae3c435,"",%progbits
 567 0000 74657374 		.ascii	"test_sequence_010\000\000\000\000\000\000\000\000\000"
ARM GAS  /tmp/cceOrkpj.s 			page 45


 567      5F736571 
 567      75656E63 
 567      655F3031 
 567      30000000 
 568 001a 000000FD 		.ascii	"\000\000\000\375\001\000\000test_step\000\000\002\000"
 568      01000074 
 568      6573745F 
 568      73746570 
 568      00000200 
 569 002e 00000000 		.ascii	"\000\000\000\000\000\000\000\000\373\001\000\000_te"
 569      00000000 
 569      FB010000 
 569      5F7465
 570 003d 73745F61 		.ascii	"st_assert\000\000\002\000\000\000\000\000\000\000\000"
 570      73736572 
 570      74000002 
 570      00000000 
 570      00000000 
 571 0051 00AE0100 		.ascii	"\000\256\001\000\000chGuardedPoolAllocTimeout\000\000"
 571      00636847 
 571      75617264 
 571      6564506F 
 571      6F6C416C 
 572 0071 02000000 		.ascii	"\002\000\000\000\000\000\000\000\000\000\266\001\000"
 572      00000000 
 572      0000B601 
 572      00
 573 007e 00636847 		.ascii	"\000chGuardedPoolObjectInit\000\000\002\000\000\000"
 573      75617264 
 573      6564506F 
 573      6F6C4F62 
 573      6A656374 
 574 009c 00000000 		.ascii	"\000\000\000\000\000\000\304\001\000\000chPoolObjec"
 574      0000C401 
 574      00006368 
 574      506F6F6C 
 574      4F626A65 
 575 00b1 74496E69 		.ascii	"tInit\000\000\002\000\000\000\000\000\000\000\000\000"
 575      74000002 
 575      00000000 
 575      00000000 
 575      00
 576 00c2 C9010000 		.ascii	"\311\001\000\000chGuardedPoolFree\000\000\002\000\000"
 576      63684775 
 576      61726465 
 576      64506F6F 
 576      6C467265 
 577 00dc 00000000 		.ascii	"\000\000\000\000\000\000\000\317\001\000\000chGuard"
 577      000000CF 
 577      01000063 
 577      68477561 
 577      7264
 578 00ee 6564506F 		.ascii	"edPoolLoadArray\000\000\002\000\000\000\000\000\000"
 578      6F6C4C6F 
 578      61644172 
 578      72617900 
 578      00020000 
ARM GAS  /tmp/cceOrkpj.s 			page 46


 579 0106 000000D4 		.ascii	"\000\000\000\324\001\000\000chPoolFree\000\000\002\000"
 579      01000063 
 579      68506F6F 
 579      6C467265 
 579      65000002 
 580 011b 00000000 		.ascii	"\000\000\000\000\000\000\000\000\332\001\000\000chP"
 580      00000000 
 580      DA010000 
 580      636850
 581 012a 6F6F6C41 		.ascii	"oolAlloc\000\000\002\000\000\000\000\000\000\000\000"
 581      6C6C6F63 
 581      00000200 
 581      00000000 
 581      000000
 582 013d 00DF0100 		.ascii	"\000\337\001\000\000chPoolLoadArray\000\000\002\000"
 582      00636850 
 582      6F6F6C4C 
 582      6F616441 
 582      72726179 
 583 0155 00000000 		.ascii	"\000\000\000\000\000\000\000\000\343\001\000\000"
 583      00000000 
 583      E3010000 
 584              		.text
 585              		.section	.gnu.lto_.opts,"",%progbits
 586 0000 272D6D63 		.ascii	"'-mcpu=cortex-m3' '-mno-thumb-interwork' '-mthumb' "
 586      70753D63 
 586      6F727465 
 586      782D6D33 
 586      2720272D 
 587 0033 272D6767 		.ascii	"'-ggdb' '-O2' '-fomit-frame-pointer' '-falign-funct"
 587      64622720 
 587      272D4F32 
 587      2720272D 
 587      666F6D69 
 588 0066 696F6E73 		.ascii	"ions=16' '-ffunction-sections' '-fdata-sections' '-"
 588      3D313627 
 588      20272D66 
 588      66756E63 
 588      74696F6E 
 589 0099 666E6F2D 		.ascii	"fno-common' '-flto'\000"
 589      636F6D6D 
 589      6F6E2720 
 589      272D666C 
 589      746F2700 
 590              		.text
 591              		.cfi_sections	.debug_frame
 592              		.section	.text.null_provider,"ax",%progbits
 593              		.align	2
 594              		.p2align 4,,15
 595              		.thumb
 596              		.thumb_func
 597              		.type	null_provider, %function
 598              	null_provider:
 599              	.LFB219:
 600              		.file 1 "../test/rt/source/test/test_sequence_010.c"
 601              		.loc 1 61 0
 602              		.cfi_startproc
ARM GAS  /tmp/cceOrkpj.s 			page 47


 603              		@ args = 0, pretend = 0, frame = 0
 604              		@ frame_needed = 0, uses_anonymous_args = 0
 605              		@ link register save eliminated.
 606              	.LVL0:
 607              		.loc 1 67 0
 608 0000 0020     		movs	r0, #0
 609              	.LVL1:
 610 0002 7047     		bx	lr
 611              		.cfi_endproc
 612              	.LFE219:
 613              		.size	null_provider, .-null_provider
 614 0004 AFF30080 		.section	.text.test_010_003_execute,"ax",%progbits
 614      AFF30080 
 614      AFF30080 
 615              		.align	2
 616              		.p2align 4,,15
 617              		.thumb
 618              		.thumb_func
 619              		.type	test_010_003_execute, %function
 620              	test_010_003_execute:
 621              	.LFB225:
 622              		.loc 1 261 0
 623              		.cfi_startproc
 624              		@ args = 0, pretend = 0, frame = 0
 625              		@ frame_needed = 0, uses_anonymous_args = 0
 626 0000 08B5     		push	{r3, lr}
 627              		.cfi_def_cfa_offset 8
 628              		.cfi_offset 3, -8
 629              		.cfi_offset 14, -4
 630              		.loc 1 267 0
 631 0002 40F20000 		movw	r0, #:lower16:.LANCHOR0
 632              		.loc 1 265 0
 633 0006 40F20003 		movw	r3, #:lower16:test_step
 634 000a C0F20003 		movt	r3, #:upper16:test_step
 635 000e 0122     		movs	r2, #1
 636              		.loc 1 267 0
 637 0010 6421     		movs	r1, #100
 638 0012 C0F20000 		movt	r0, #:upper16:.LANCHOR0
 639              		.loc 1 265 0
 640 0016 1A60     		str	r2, [r3]
 641              		.loc 1 267 0
 642 0018 FFF7FEFF 		bl	chGuardedPoolAllocTimeout
 643              	.LVL2:
 644              		.loc 1 269 0
 645 001c BDE80840 		pop	{r3, lr}
 646              		.loc 1 267 0
 647 0020 40F20001 		movw	r1, #:lower16:.LC0
 648 0024 D0F10100 		rsbs	r0, r0, #1
 649 0028 38BF     		it	cc
 650 002a 0020     		movcc	r0, #0
 651 002c C0F20001 		movt	r1, #:upper16:.LC0
 652 0030 FFF7FEBF 		b	_test_assert
 653              	.LVL3:
 654              		.cfi_endproc
 655              	.LFE225:
 656              		.size	test_010_003_execute, .-test_010_003_execute
 657 0034 AFF30080 		.section	.text.test_010_003_setup,"ax",%progbits
ARM GAS  /tmp/cceOrkpj.s 			page 48


 657      AFF30080 
 657      AFF30080 
 658              		.align	2
 659              		.p2align 4,,15
 660              		.thumb
 661              		.thumb_func
 662              		.type	test_010_003_setup, %function
 663              	test_010_003_setup:
 664              	.LFB224:
 665              		.loc 1 257 0
 666              		.cfi_startproc
 667              		@ args = 0, pretend = 0, frame = 0
 668              		@ frame_needed = 0, uses_anonymous_args = 0
 669              		@ link register save eliminated.
 670              		.loc 1 258 0
 671 0000 40F20000 		movw	r0, #:lower16:.LANCHOR0
 672 0004 C0F20000 		movt	r0, #:upper16:.LANCHOR0
 673 0008 0421     		movs	r1, #4
 674 000a FFF7FEBF 		b	chGuardedPoolObjectInit
 675              	.LVL4:
 676              		.cfi_endproc
 677              	.LFE224:
 678              		.size	test_010_003_setup, .-test_010_003_setup
 679 000e 00BF     		.section	.text.test_010_002_setup,"ax",%progbits
 680              		.align	2
 681              		.p2align 4,,15
 682              		.thumb
 683              		.thumb_func
 684              		.type	test_010_002_setup, %function
 685              	test_010_002_setup:
 686              	.LFB222:
 687              		.loc 1 180 0
 688              		.cfi_startproc
 689              		@ args = 0, pretend = 0, frame = 0
 690              		@ frame_needed = 0, uses_anonymous_args = 0
 691              		@ link register save eliminated.
 692              		.loc 1 181 0
 693 0000 40F20000 		movw	r0, #:lower16:.LANCHOR0
 694 0004 C0F20000 		movt	r0, #:upper16:.LANCHOR0
 695 0008 0421     		movs	r1, #4
 696 000a FFF7FEBF 		b	chGuardedPoolObjectInit
 697              	.LVL5:
 698              		.cfi_endproc
 699              	.LFE222:
 700              		.size	test_010_002_setup, .-test_010_002_setup
 701 000e 00BF     		.section	.text.test_010_001_setup,"ax",%progbits
 702              		.align	2
 703              		.p2align 4,,15
 704              		.thumb
 705              		.thumb_func
 706              		.type	test_010_001_setup, %function
 707              	test_010_001_setup:
 708              	.LFB220:
 709              		.loc 1 92 0
 710              		.cfi_startproc
 711              		@ args = 0, pretend = 0, frame = 0
 712              		@ frame_needed = 0, uses_anonymous_args = 0
ARM GAS  /tmp/cceOrkpj.s 			page 49


 713              		@ link register save eliminated.
 714              		.loc 1 93 0
 715 0000 40F20000 		movw	r0, #:lower16:.LANCHOR1
 716 0004 C0F20000 		movt	r0, #:upper16:.LANCHOR1
 717 0008 0421     		movs	r1, #4
 718 000a 0022     		movs	r2, #0
 719 000c FFF7FEBF 		b	chPoolObjectInit
 720              	.LVL6:
 721              		.cfi_endproc
 722              	.LFE220:
 723              		.size	test_010_001_setup, .-test_010_001_setup
 724              		.section	.text.test_010_002_execute,"ax",%progbits
 725              		.align	2
 726              		.p2align 4,,15
 727              		.thumb
 728              		.thumb_func
 729              		.type	test_010_002_execute, %function
 730              	test_010_002_execute:
 731              	.LFB223:
 732              		.loc 1 184 0
 733              		.cfi_startproc
 734              		@ args = 0, pretend = 0, frame = 0
 735              		@ frame_needed = 0, uses_anonymous_args = 0
 736 0000 F8B5     		push	{r3, r4, r5, r6, r7, lr}
 737              		.cfi_def_cfa_offset 24
 738              		.cfi_offset 3, -24
 739              		.cfi_offset 4, -20
 740              		.cfi_offset 5, -16
 741              		.cfi_offset 6, -12
 742              		.cfi_offset 7, -8
 743              		.cfi_offset 14, -4
 744              		.loc 1 191 0
 745 0002 40F20000 		movw	r0, #:lower16:.LANCHOR0
 746              		.loc 1 189 0
 747 0006 40F20005 		movw	r5, #:lower16:test_step
 748              		.loc 1 191 0
 749 000a 40F20001 		movw	r1, #:lower16:.LANCHOR2
 750              		.loc 1 189 0
 751 000e 0123     		movs	r3, #1
 752 0010 C0F20005 		movt	r5, #:upper16:test_step
 753              		.loc 1 191 0
 754 0014 C0F20000 		movt	r0, #:upper16:.LANCHOR0
 755 0018 C0F20001 		movt	r1, #:upper16:.LANCHOR2
 756 001c 0422     		movs	r2, #4
 757              		.loc 1 189 0
 758 001e 2B60     		str	r3, [r5]
 759              		.loc 1 191 0
 760 0020 FFF7FEFF 		bl	chGuardedPoolLoadArray
 761              	.LVL7:
 762              		.loc 1 195 0
 763 0024 0223     		movs	r3, #2
 764 0026 2B60     		str	r3, [r5]
 765              	.LVL8:
 766 0028 0424     		movs	r4, #4
 767              	.LVL9:
 768              	.L10:
 769              		.loc 1 198 0
ARM GAS  /tmp/cceOrkpj.s 			page 50


 770 002a 40F20000 		movw	r0, #:lower16:.LANCHOR0
 771 002e 0021     		movs	r1, #0
 772 0030 C0F20000 		movt	r0, #:upper16:.LANCHOR0
 773 0034 FFF7FEFF 		bl	chGuardedPoolAllocTimeout
 774              	.LVL10:
 775 0038 40F20001 		movw	r1, #:lower16:.LC1
 776 003c 0030     		adds	r0, r0, #0
 777 003e 18BF     		it	ne
 778 0040 0120     		movne	r0, #1
 779 0042 C0F20001 		movt	r1, #:upper16:.LC1
 780 0046 FFF7FEFF 		bl	_test_assert
 781              	.LVL11:
 782 004a 0028     		cmp	r0, #0
 783 004c 57D1     		bne	.L6
 784              		.loc 1 197 0
 785 004e 013C     		subs	r4, r4, #1
 786              	.LVL12:
 787 0050 EBD1     		bne	.L10
 788              		.loc 1 204 0
 789 0052 40F20000 		movw	r0, #:lower16:.LANCHOR0
 790 0056 2146     		mov	r1, r4
 791              		.loc 1 202 0
 792 0058 0323     		movs	r3, #3
 793              		.loc 1 204 0
 794 005a C0F20000 		movt	r0, #:upper16:.LANCHOR0
 795              		.loc 1 202 0
 796 005e 2B60     		str	r3, [r5]
 797              		.loc 1 204 0
 798 0060 FFF7FEFF 		bl	chGuardedPoolAllocTimeout
 799              	.LVL13:
 800 0064 40F20001 		movw	r1, #:lower16:.LC0
 801 0068 D0F10100 		rsbs	r0, r0, #1
 802 006c 38BF     		it	cc
 803 006e 0020     		movcc	r0, #0
 804              		.loc 1 202 0
 805 0070 40F20006 		movw	r6, #:lower16:test_step
 806              		.loc 1 204 0
 807 0074 C0F20001 		movt	r1, #:upper16:.LC0
 808              		.loc 1 202 0
 809 0078 C0F20006 		movt	r6, #:upper16:test_step
 810              		.loc 1 204 0
 811 007c FFF7FEFF 		bl	_test_assert
 812              	.LVL14:
 813 0080 0028     		cmp	r0, #0
 814 0082 3CD1     		bne	.L6
 815 0084 40F20004 		movw	r4, #:lower16:.LANCHOR2
 816              	.LVL15:
 817 0088 C0F20004 		movt	r4, #:upper16:.LANCHOR2
 818              	.LBB4:
 819              	.LBB5:
 820              		.loc 1 209 0
 821 008c 0423     		movs	r3, #4
 822 008e 04F11007 		add	r7, r4, #16
 823 0092 3360     		str	r3, [r6]
 824              	.LVL16:
 825              	.L13:
 826              		.loc 1 212 0
ARM GAS  /tmp/cceOrkpj.s 			page 51


 827 0094 40F20000 		movw	r0, #:lower16:.LANCHOR0
 828 0098 2146     		mov	r1, r4
 829 009a C0F20000 		movt	r0, #:upper16:.LANCHOR0
 830 009e 0434     		adds	r4, r4, #4
 831 00a0 FFF7FEFF 		bl	chGuardedPoolFree
 832              	.LVL17:
 833              		.loc 1 211 0
 834 00a4 BC42     		cmp	r4, r7
 835 00a6 F5D1     		bne	.L13
 836              		.loc 1 217 0
 837 00a8 0523     		movs	r3, #5
 838 00aa 2B60     		str	r3, [r5]
 839              	.LVL18:
 840 00ac 0424     		movs	r4, #4
 841              	.LVL19:
 842              	.L15:
 843              		.loc 1 220 0
 844 00ae 40F20000 		movw	r0, #:lower16:.LANCHOR0
 845 00b2 0021     		movs	r1, #0
 846 00b4 C0F20000 		movt	r0, #:upper16:.LANCHOR0
 847 00b8 FFF7FEFF 		bl	chGuardedPoolAllocTimeout
 848              	.LVL20:
 849 00bc 40F20001 		movw	r1, #:lower16:.LC1
 850 00c0 0030     		adds	r0, r0, #0
 851 00c2 18BF     		it	ne
 852 00c4 0120     		movne	r0, #1
 853 00c6 C0F20001 		movt	r1, #:upper16:.LC1
 854 00ca FFF7FEFF 		bl	_test_assert
 855              	.LVL21:
 856 00ce B0B9     		cbnz	r0, .L6
 857              		.loc 1 219 0
 858 00d0 013C     		subs	r4, r4, #1
 859              	.LVL22:
 860 00d2 ECD1     		bne	.L15
 861              		.loc 1 226 0
 862 00d4 40F20000 		movw	r0, #:lower16:.LANCHOR0
 863 00d8 2146     		mov	r1, r4
 864              		.loc 1 224 0
 865 00da 0623     		movs	r3, #6
 866              		.loc 1 226 0
 867 00dc C0F20000 		movt	r0, #:upper16:.LANCHOR0
 868              		.loc 1 224 0
 869 00e0 2B60     		str	r3, [r5]
 870              		.loc 1 226 0
 871 00e2 FFF7FEFF 		bl	chGuardedPoolAllocTimeout
 872              	.LVL23:
 873              	.LBE5:
 874              	.LBE4:
 875              		.loc 1 228 0
 876 00e6 BDE8F840 		pop	{r3, r4, r5, r6, r7, lr}
 877              	.LVL24:
 878              	.LBB7:
 879              	.LBB6:
 880              		.loc 1 226 0
 881 00ea 40F20001 		movw	r1, #:lower16:.LC0
 882 00ee D0F10100 		rsbs	r0, r0, #1
 883 00f2 38BF     		it	cc
ARM GAS  /tmp/cceOrkpj.s 			page 52


 884 00f4 0020     		movcc	r0, #0
 885 00f6 C0F20001 		movt	r1, #:upper16:.LC0
 886 00fa FFF7FEBF 		b	_test_assert
 887              	.LVL25:
 888              	.L6:
 889 00fe F8BD     		pop	{r3, r4, r5, r6, r7, pc}
 890              	.LBE6:
 891              	.LBE7:
 892              		.cfi_endproc
 893              	.LFE223:
 894              		.size	test_010_002_execute, .-test_010_002_execute
 895              		.section	.text.test_010_001_execute,"ax",%progbits
 896              		.align	2
 897              		.p2align 4,,15
 898              		.thumb
 899              		.thumb_func
 900              		.type	test_010_001_execute, %function
 901              	test_010_001_execute:
 902              	.LFB221:
 903              		.loc 1 96 0
 904              		.cfi_startproc
 905              		@ args = 0, pretend = 0, frame = 0
 906              		@ frame_needed = 0, uses_anonymous_args = 0
 907 0000 F8B5     		push	{r3, r4, r5, r6, r7, lr}
 908              		.cfi_def_cfa_offset 24
 909              		.cfi_offset 3, -24
 910              		.cfi_offset 4, -20
 911              		.cfi_offset 5, -16
 912              		.cfi_offset 6, -12
 913              		.cfi_offset 7, -8
 914              		.cfi_offset 14, -4
 915              		.loc 1 102 0
 916 0002 40F20000 		movw	r0, #:lower16:.LANCHOR1
 917              		.loc 1 100 0
 918 0006 40F20005 		movw	r5, #:lower16:test_step
 919              		.loc 1 102 0
 920 000a 40F20001 		movw	r1, #:lower16:.LANCHOR2
 921              		.loc 1 100 0
 922 000e 0123     		movs	r3, #1
 923 0010 C0F20005 		movt	r5, #:upper16:test_step
 924              		.loc 1 102 0
 925 0014 C0F20000 		movt	r0, #:upper16:.LANCHOR1
 926 0018 C0F20001 		movt	r1, #:upper16:.LANCHOR2
 927 001c 0422     		movs	r2, #4
 928              		.loc 1 100 0
 929 001e 2B60     		str	r3, [r5]
 930              		.loc 1 102 0
 931 0020 FFF7FEFF 		bl	chPoolLoadArray
 932              	.LVL26:
 933              		.loc 1 106 0
 934 0024 0223     		movs	r3, #2
 935 0026 2B60     		str	r3, [r5]
 936              	.LVL27:
 937 0028 0424     		movs	r4, #4
 938              	.LVL28:
 939              	.L21:
 940              		.loc 1 109 0
ARM GAS  /tmp/cceOrkpj.s 			page 53


 941 002a 40F20000 		movw	r0, #:lower16:.LANCHOR1
 942 002e C0F20000 		movt	r0, #:upper16:.LANCHOR1
 943 0032 FFF7FEFF 		bl	chPoolAlloc
 944              	.LVL29:
 945 0036 40F20001 		movw	r1, #:lower16:.LC1
 946 003a 0030     		adds	r0, r0, #0
 947 003c 18BF     		it	ne
 948 003e 0120     		movne	r0, #1
 949 0040 C0F20001 		movt	r1, #:upper16:.LC1
 950 0044 FFF7FEFF 		bl	_test_assert
 951              	.LVL30:
 952 0048 0028     		cmp	r0, #0
 953 004a 57D1     		bne	.L17
 954              		.loc 1 108 0
 955 004c 013C     		subs	r4, r4, #1
 956              	.LVL31:
 957 004e ECD1     		bne	.L21
 958              		.loc 1 115 0
 959 0050 40F20000 		movw	r0, #:lower16:.LANCHOR1
 960              		.loc 1 113 0
 961 0054 0323     		movs	r3, #3
 962              		.loc 1 115 0
 963 0056 C0F20000 		movt	r0, #:upper16:.LANCHOR1
 964              		.loc 1 113 0
 965 005a 2B60     		str	r3, [r5]
 966              		.loc 1 115 0
 967 005c FFF7FEFF 		bl	chPoolAlloc
 968              	.LVL32:
 969 0060 40F20001 		movw	r1, #:lower16:.LC0
 970 0064 D0F10100 		rsbs	r0, r0, #1
 971 0068 38BF     		it	cc
 972 006a 0020     		movcc	r0, #0
 973              		.loc 1 113 0
 974 006c 40F20006 		movw	r6, #:lower16:test_step
 975              		.loc 1 115 0
 976 0070 C0F20001 		movt	r1, #:upper16:.LC0
 977              		.loc 1 113 0
 978 0074 C0F20006 		movt	r6, #:upper16:test_step
 979              		.loc 1 115 0
 980 0078 FFF7FEFF 		bl	_test_assert
 981              	.LVL33:
 982 007c 0028     		cmp	r0, #0
 983 007e 3DD1     		bne	.L17
 984 0080 40F20004 		movw	r4, #:lower16:.LANCHOR2
 985              	.LVL34:
 986 0084 C0F20004 		movt	r4, #:upper16:.LANCHOR2
 987              	.LBB10:
 988              	.LBB11:
 989              		.loc 1 119 0
 990 0088 0423     		movs	r3, #4
 991 008a 04F11007 		add	r7, r4, #16
 992 008e 3360     		str	r3, [r6]
 993              	.LVL35:
 994              	.L24:
 995              		.loc 1 122 0
 996 0090 40F20000 		movw	r0, #:lower16:.LANCHOR1
 997 0094 2146     		mov	r1, r4
ARM GAS  /tmp/cceOrkpj.s 			page 54


 998 0096 C0F20000 		movt	r0, #:upper16:.LANCHOR1
 999 009a 0434     		adds	r4, r4, #4
 1000 009c FFF7FEFF 		bl	chPoolFree
 1001              	.LVL36:
 1002              		.loc 1 121 0
 1003 00a0 BC42     		cmp	r4, r7
 1004 00a2 F5D1     		bne	.L24
 1005              		.loc 1 126 0
 1006 00a4 0523     		movs	r3, #5
 1007 00a6 2B60     		str	r3, [r5]
 1008              	.LVL37:
 1009 00a8 0424     		movs	r4, #4
 1010              	.LVL38:
 1011              	.L26:
 1012              		.loc 1 129 0
 1013 00aa 40F20000 		movw	r0, #:lower16:.LANCHOR1
 1014 00ae C0F20000 		movt	r0, #:upper16:.LANCHOR1
 1015 00b2 FFF7FEFF 		bl	chPoolAlloc
 1016              	.LVL39:
 1017 00b6 40F20001 		movw	r1, #:lower16:.LC1
 1018 00ba 0030     		adds	r0, r0, #0
 1019 00bc 18BF     		it	ne
 1020 00be 0120     		movne	r0, #1
 1021 00c0 C0F20001 		movt	r1, #:upper16:.LC1
 1022 00c4 FFF7FEFF 		bl	_test_assert
 1023              	.LVL40:
 1024 00c8 C0B9     		cbnz	r0, .L17
 1025              		.loc 1 128 0
 1026 00ca 013C     		subs	r4, r4, #1
 1027              	.LVL41:
 1028 00cc EDD1     		bne	.L26
 1029              		.loc 1 135 0
 1030 00ce 40F20000 		movw	r0, #:lower16:.LANCHOR1
 1031              		.loc 1 133 0
 1032 00d2 0623     		movs	r3, #6
 1033              		.loc 1 135 0
 1034 00d4 C0F20000 		movt	r0, #:upper16:.LANCHOR1
 1035              		.loc 1 133 0
 1036 00d8 2B60     		str	r3, [r5]
 1037              		.loc 1 135 0
 1038 00da FFF7FEFF 		bl	chPoolAlloc
 1039              	.LVL42:
 1040 00de 40F20001 		movw	r1, #:lower16:.LC0
 1041 00e2 D0F10100 		rsbs	r0, r0, #1
 1042 00e6 38BF     		it	cc
 1043 00e8 0020     		movcc	r0, #0
 1044              		.loc 1 133 0
 1045 00ea 40F20004 		movw	r4, #:lower16:test_step
 1046              	.LVL43:
 1047              		.loc 1 135 0
 1048 00ee C0F20001 		movt	r1, #:upper16:.LC0
 1049              		.loc 1 133 0
 1050 00f2 C0F20004 		movt	r4, #:upper16:test_step
 1051              		.loc 1 135 0
 1052 00f6 FFF7FEFF 		bl	_test_assert
 1053              	.LVL44:
 1054 00fa 00B1     		cbz	r0, .L27
ARM GAS  /tmp/cceOrkpj.s 			page 55


 1055              	.L17:
 1056 00fc F8BD     		pop	{r3, r4, r5, r6, r7, pc}
 1057              	.L27:
 1058              		.loc 1 142 0
 1059 00fe 40F20000 		movw	r0, #:lower16:.LANCHOR1
 1060 0102 40F20002 		movw	r2, #:lower16:null_provider
 1061              		.loc 1 140 0
 1062 0106 0723     		movs	r3, #7
 1063              		.loc 1 142 0
 1064 0108 0421     		movs	r1, #4
 1065 010a C0F20000 		movt	r0, #:upper16:.LANCHOR1
 1066 010e C0F20002 		movt	r2, #:upper16:null_provider
 1067              		.loc 1 140 0
 1068 0112 2360     		str	r3, [r4]
 1069              		.loc 1 142 0
 1070 0114 FFF7FEFF 		bl	chPoolObjectInit
 1071              	.LVL45:
 1072              		.loc 1 143 0
 1073 0118 40F20000 		movw	r0, #:lower16:.LANCHOR1
 1074 011c C0F20000 		movt	r0, #:upper16:.LANCHOR1
 1075 0120 FFF7FEFF 		bl	chPoolAlloc
 1076              	.LVL46:
 1077              	.LBE11:
 1078              	.LBE10:
 1079              		.loc 1 145 0
 1080 0124 BDE8F840 		pop	{r3, r4, r5, r6, r7, lr}
 1081              	.LBB13:
 1082              	.LBB12:
 1083              		.loc 1 143 0
 1084 0128 40F20001 		movw	r1, #:lower16:.LC2
 1085 012c D0F10100 		rsbs	r0, r0, #1
 1086 0130 38BF     		it	cc
 1087 0132 0020     		movcc	r0, #0
 1088 0134 C0F20001 		movt	r1, #:upper16:.LC2
 1089 0138 FFF7FEBF 		b	_test_assert
 1090              	.LVL47:
 1091              	.LBE12:
 1092              	.LBE13:
 1093              		.cfi_endproc
 1094              	.LFE221:
 1095              		.size	test_010_001_execute, .-test_010_001_execute
 1096              		.global	test_sequence_010
 1097 013c AFF30080 		.section	.data.gmp1,"aw",%progbits
 1098              		.align	2
 1099              		.set	.LANCHOR0,. + 0
 1100              		.type	gmp1, %object
 1101              		.size	gmp1, 24
 1102              	gmp1:
 1103 0000 00000000 		.word	gmp1
 1104 0004 00000000 		.word	gmp1
 1105 0008 00000000 		.word	0
 1106 000c 00000000 		.word	0
 1107 0010 04000000 		.word	4
 1108 0014 00000000 		.word	0
 1109              		.section	.rodata.test_sequence_010,"a",%progbits
 1110              		.align	2
 1111              		.type	test_sequence_010, %object
ARM GAS  /tmp/cceOrkpj.s 			page 56


 1112              		.size	test_sequence_010, 16
 1113              	test_sequence_010:
 1114 0000 00000000 		.word	test_010_001
 1115 0004 00000000 		.word	test_010_002
 1116 0008 00000000 		.word	test_010_003
 1117 000c 00000000 		.word	0
 1118              		.section	.bss.objects,"aw",%nobits
 1119              		.align	2
 1120              		.set	.LANCHOR2,. + 0
 1121              		.type	objects, %object
 1122              		.size	objects, 16
 1123              	objects:
 1124 0000 00000000 		.space	16
 1124      00000000 
 1124      00000000 
 1124      00000000 
 1125              		.section	.rodata.str1.4,"aMS",%progbits,1
 1126              		.align	2
 1127              	.LC0:
 1128 0000 6C697374 		.ascii	"list not empty\000"
 1128      206E6F74 
 1128      20656D70 
 1128      747900
 1129 000f 00       		.space	1
 1130              	.LC1:
 1131 0010 6C697374 		.ascii	"list empty\000"
 1131      20656D70 
 1131      747900
 1132 001b 00       		.space	1
 1133              	.LC2:
 1134 001c 70726F76 		.ascii	"provider returned memory\000"
 1134      69646572 
 1134      20726574 
 1134      75726E65 
 1134      64206D65 
 1135 0035 000000   		.space	3
 1136              	.LC3:
 1137 0038 47756172 		.ascii	"Guarded Memory Pools timeout\000"
 1137      64656420 
 1137      4D656D6F 
 1137      72792050 
 1137      6F6F6C73 
 1138 0055 000000   		.space	3
 1139              	.LC4:
 1140 0058 4C6F6164 		.ascii	"Loading and emptying a guarded memory pool without "
 1140      696E6720 
 1140      616E6420 
 1140      656D7074 
 1140      79696E67 
 1141 008b 77616974 		.ascii	"waiting\000"
 1141      696E6700 
 1142 0093 00       		.space	1
 1143              	.LC5:
 1144 0094 4C6F6164 		.ascii	"Loading and emptying a memory pool\000"
 1144      696E6720 
 1144      616E6420 
 1144      656D7074 
ARM GAS  /tmp/cceOrkpj.s 			page 57


 1144      79696E67 
 1145 00b7 00       		.section	.rodata.test_010_001,"a",%progbits
 1146              		.align	2
 1147              		.type	test_010_001, %object
 1148              		.size	test_010_001, 16
 1149              	test_010_001:
 1150 0000 94000000 		.word	.LC5
 1151 0004 00000000 		.word	test_010_001_setup
 1152 0008 00000000 		.word	0
 1153 000c 00000000 		.word	test_010_001_execute
 1154              		.section	.rodata.test_010_002,"a",%progbits
 1155              		.align	2
 1156              		.type	test_010_002, %object
 1157              		.size	test_010_002, 16
 1158              	test_010_002:
 1159 0000 58000000 		.word	.LC4
 1160 0004 00000000 		.word	test_010_002_setup
 1161 0008 00000000 		.word	0
 1162 000c 00000000 		.word	test_010_002_execute
 1163              		.section	.rodata.test_010_003,"a",%progbits
 1164              		.align	2
 1165              		.type	test_010_003, %object
 1166              		.size	test_010_003, 16
 1167              	test_010_003:
 1168 0000 38000000 		.word	.LC3
 1169 0004 00000000 		.word	test_010_003_setup
 1170 0008 00000000 		.word	0
 1171 000c 00000000 		.word	test_010_003_execute
 1172              		.section	.data.mp1,"aw",%progbits
 1173              		.align	2
 1174              		.set	.LANCHOR1,. + 0
 1175              		.type	mp1, %object
 1176              		.size	mp1, 12
 1177              	mp1:
 1178 0000 00000000 		.word	0
 1179 0004 04000000 		.word	4
 1180 0008 00000000 		.word	0
 1181              		.text
 1182              	.Letext0:
 1183              		.file 2 "/usr/lib/gcc/arm-none-eabi/4.8.2/include/stddef.h"
 1184              		.file 3 "/usr/include/newlib/machine/_default_types.h"
 1185              		.file 4 "/usr/include/newlib/stdint.h"
 1186              		.file 5 "../os/common/ports/ARMCMx/compilers/GCC/chtypes.h"
 1187              		.file 6 "../os/rt/include/chsystypes.h"
 1188              		.file 7 "../os/rt/include/chschd.h"
 1189              		.file 8 "../os/common/ports/ARMCMx/chcore.h"
 1190              		.file 9 "../os/common/ports/ARMCMx/chcore_v7m.h"
 1191              		.file 10 "../os/rt/include/chsem.h"
 1192              		.file 11 "../os/rt/include/chmtx.h"
 1193              		.file 12 "../os/common/oslib/include/chmemcore.h"
 1194              		.file 13 "../os/common/oslib/include/chmempools.h"
 1195              		.file 14 "../test/lib/ch_test.h"
 1196              		.file 15 "../os/common/ext/CMSIS/include/core_cm3.h"