ARM GAS  /tmp/ccsGAlip.s 			page 1


   1              		.syntax unified
   2              		.cpu cortex-m3
   3              		.fpu softvfp
   4              		.eabi_attribute 20, 1
   5              		.eabi_attribute 21, 1
   6              		.eabi_attribute 23, 3
   7              		.eabi_attribute 24, 1
   8              		.eabi_attribute 25, 1
   9              		.eabi_attribute 26, 1
  10              		.eabi_attribute 30, 2
  11              		.eabi_attribute 34, 1
  12              		.eabi_attribute 18, 4
  13              		.thumb
  14              		.file	"test_sequence_011.c"
  15              		.text
  16              	.Ltext0:
  17              		.section	.gnu.lto_.jmpfuncs.83567f3932ecfd88,"",%progbits
  18 0000 789CC554 		.ascii	"x\234\305T\275N\3030\020>'\245\224\376\246E\252`\261"
  18      BD4EC330 
  18      103E27A5 
  18      94FEA645 
  18      AA60B1
  19 0013 BCF3046C 		.ascii	"\274\363\004l\314\354H\254&qS\213\304\211H@@\227\214"
  19      CCEC48AC 
  19      2671538B 
  19      C4894840 
  19      40978C
  20 0026 B03077E1 		.ascii	"\2600w\341\235x\014\236\241\003\305\211\003$\220\266"
  20      9D780C9E 
  20      A103C589 
  20      032490B6 
  21 0036 A912952C 		.ascii	"\251\022\225,\261\357\356\3739\237t\032hP\364=7\001"
  21      B1EFEEFB 
  21      399F741A 
  21      6850F43D 
  21      3701
  22 0048 5EE45F87 		.ascii	"^\344_\207\270@\233\301\"\232G\006G\200\001\275F\363"
  22      B8409BC1 
  22      229A4706 
  22      478001BD 
  22      46F3
  23 005a 338E5052 		.ascii	"3\216PR\247k\227\210\243\230#9\350\321\307r9\370\272"
  23      A76B9788 
  23      A3982339 
  23      E8D1C772 
  23      39F8BA
  24 006d B400D02F 		.ascii	"\264\000\320/|\003\303\221\302\357\245\3708\365\024"
  24      7C03C391 
  24      C2EFA5F8 
  24      38F514
  25 007c A7345751 		.ascii	"\2474WQ&\330\246\221!\371\021I y\306}\014'\212\261\245"
  25      26D8A691 
  25      21F91149 
  25      2079C67D 
  25      0C278AB1 
  26 0091 E0D9E401 		.ascii	"\340\331\344\001\206S\225l\257\222Ku:\360\327l\027\303"
  26      8653956C 
ARM GAS  /tmp/ccsGAlip.s 			page 2


  26      AF924B75 
  26      3AF0D76C 
  26      17C3
  27 00a3 B942F7D6 		.ascii	"\271B\367\326\232\355\344\016[\266\233\353s\235\273"
  27      9AEDE40E 
  27      5BB69BEB 
  27      739DBB
  28 00b2 6A8DA135 		.ascii	"j\215\2415oM2\036r*}\014\027JePN\245\3448K\024U\356"
  28      6F4D321E 
  28      722A7D0C 
  28      174A6550 
  28      4EA5E438 
  29 00ca B602C1D6 		.ascii	"\266\002\301\326\331\015\366w\374\214\303:\237\261\326"
  29      D90DF677 
  29      FC8CC33A 
  29      9FB1D6
  30 00d9 A1EE66F2 		.ascii	"\241\356f\362\377lY\256H+\273\"\313'\015\0143\225\034"
  30      FF6C59AE 
  30      482BBB22 
  30      CB270D0C 
  30      33951C
  31 00ec AE6EB6A6 		.ascii	"\256n\266\246\235\272a\253\0273\350o\307\365\014\252"
  31      9DBA61AB 
  31      1733E86F 
  31      C7F50CAA 
  32 00fc 5128F11D 		.ascii	"Q(\361\035\031\271\312\210\222z\357\312\343\230:\216"
  32      19B9CA88 
  32      927AEFCA 
  32      E3983A8E 
  33 010c 67D2907B 		.ascii	"g\322\220{\202\010/$\023\312\035f\301(\023NC\275\200"
  33      82082F24 
  33      13CA1D66 
  33      C128134E 
  33      43BD80
  34 011f 3F32624E 		.ascii	"?2bN\251\260\345\315\2302\352\223\311\015\265]&B\031"
  34      A9B0E5CD 
  34      9832EA93 
  34      C90DB55D 
  34      264219
  35 0132 68C768E6 		.ascii	"h\307h\346\372\341\003\364\271\270\243\016\267H\020"
  35      FAE103F4 
  35      B9B8A30E 
  35      B74810
  36 0141 D290C1F8 		.ascii	"\322\220\301\370V\260{\237\231\262\212$(\025>ty\020"
  36      56B07B9F 
  36      99B28A24 
  36      28153E74 
  36      7910
  37 0153 70614B12 		.ascii	"paK\022\306\310\225\224\273\206OT\243RU"
  37      C6C89594 
  37      BB864F54 
  37      A35255
  38              		.text
  39              		.section	.gnu.lto_.inline.83567f3932ecfd88,"",%progbits
  40 0000 789C6362 		.ascii	"x\234cb`b\300\006\354\240\302\314\014\034\312V\214\014"
  40      6062C006 
  40      ECA0C2CC 
ARM GAS  /tmp/ccsGAlip.s 			page 3


  40      0C1CCA56 
  40      8C0C
  41 0012 4C021702 		.ascii	"L\002\027\002\030\330\026\310\203EYx\031\030\230&\370"
  41      18D816C8 
  41      83455978 
  41      19189826 
  41      F8
  42 0023 31B0F281 		.ascii	"1\260\362\201\344\201ln\006\006\306\011~\350\302 >\210"
  42      E4816C6E 
  42      0606C609 
  42      7EE8C220 
  42      3E88
  43 0035 6616D8CA 		.ascii	"f\026\330\312\244\0074\242\217qM\004\206\031$\230\205"
  43      A40734A2 
  43      8F714D04 
  43      86192498 
  43      85
  44 0046 E043F561 		.ascii	"\340C\365aJ\300\365C)\354\332\341\252`\\\002\312p\270"
  44      4AC0F543 
  44      29ECDAE1 
  44      AA605C02 
  44      CA70B8
  45 0059 8948DDA4 		.ascii	"\211H\335\244Y\202C\023U5S\024\366X\370\014\354\374"
  45      59824313 
  45      55355314 
  45      F658F80C 
  45      ECFC
  46 006b 8CE06484 		.ascii	"\214\340d\204\034\271 \031\006\000\310\233*/"
  46      1CB92019 
  46      0600C89B 
  46      2A2F
  47              		.text
  48              		.section	.gnu.lto_.pureconst.83567f3932ecfd88,"",%progbits
  49 0000 789C6362 		.ascii	"x\234cb`b`g\200\000f\006\011f\011\026\011\000\001\305"
  49      60626067 
  49      80006606 
  49      09660916 
  49      090001C5 
  50 0014 005E     		.ascii	"\000^"
  51              		.text
  52              		.section	.gnu.lto_test_011_002_execute.83567f3932ecfd88,"",%progbits
  53 0000 789C9555 		.ascii	"x\234\225UML\023Q\020\236y\333m\313O-\362\323\300\205"
  53      4D4C1351 
  53      109E79DB 
  53      6DCB4F2D 
  53      F2D3C085 
  54 0014 10E2CDA4 		.ascii	"\020\342\315\244\225\304\304x\322\223\211\361\340\005"
  54      95C4C478 
  54      D29389F1 
  54      E005
  55 0022 128D8766 		.ascii	"\022\215\207f]\326\262\261\355\"-\007\341\300\243\255"
  55      5DD6B2B1 
  55      ED222D07 
  55      E1C0A3AD 
  56 0032 86033184 		.ascii	"\206\0031\204\023j\010`\203^T4\\8`hLL0\006\033\022\016"
  56      136A0860 
  56      835E5434 
ARM GAS  /tmp/ccsGAlip.s 			page 4


  56      5C386068 
  56      4C4C3006 
  57 0049 5E348D1E 		.ascii	"^4\215\036\214\001\243'\211h\254\357\247\335\026\254"
  57      8C01A327 
  57      8968ACEF 
  57      A7DD16AC 
  58 0059 AD6EC2EC 		.ascii	"\255n\302\354\233y3\337|o\336\327\205\000\201\203\317"
  58      9B7933DF 
  58      7C6FDED7 
  58      85008183 
  58      CF
  59 006a 39F6D7E0 		.ascii	"9\366\327\340\004\270\307\336\350\002$S\257\001\306"
  59      04B8C7DE 
  59      E8022453 
  59      AF01C6
  60 0079 DD84A8AB 		.ascii	"\335\204\250\253'\200\326+[>\240\215\012Q\267\002\314"
  60      2780D62B 
  60      5B3EA08D 
  60      0A51B702 
  60      CC
  61 008a 73AC7632 		.ascii	"s\254v2\317\201N\231\244\026\027ND\276\000\2041\242"
  61      CF814E99 
  61      A416174E 
  61      44BE0084 
  61      31A2
  62 009c 3854278E 		.ascii	"8T'\216]D\016N\272a\201f\246s7\276m\342m\232I\315\323"
  62      5D440E4E 
  62      BA618166 
  62      A67337BE 
  62      6DE26D9A 
  63 00b3 9FF93CA2 		.ascii	"\237\371<\242\211\214\210\037AG\270\300\034\354\022"
  63      898C881F 
  63      4147B8C0 
  63      1CEC12
  64 00c2 2FE2D8CF 		.ascii	"/\342\330\317L\326\322\267\375\3534\225\311\347O\211"
  64      4CD6D2B7 
  64      FDEB3495 
  64      C9E74F89 
  65 00d2 AA93B5AA 		.ascii	"\252\223\265\252\226H&\227\317\357|\317\275\337\303"
  65      96482697 
  65      CFEF7CCF 
  65      BDDFC3
  66 00e1 96761798 		.ascii	"\226v\027\230\250\324q\343\341\306\313M+3\2166nX\272"
  66      A8D471E3 
  66      E1C6CB4D 
  66      2B338E36 
  66      6E58BA
  67 00f4 0A294AA7 		.ascii	"\012)J\247\272x/:\235\231\313Nv\320\371\304\024\375"
  67      BA782F3A 
  67      9D99CB4E 
  67      76D0F9C4 
  67      14FD
  68 0106 C568B204 		.ascii	"\305h\262\004\002gj\365\323p\001\273\231M3\013<\227"
  68      02676AF5 
  68      D37001BB 
  68      994D330B 
  68      3C97
ARM GAS  /tmp/ccsGAlip.s 			page 5


  69 0118 3DBDCCF2 		.ascii	"=\275\314\362y\364!\341oe\003\022+3\273\035\032.\242"
  69      79F421E1 
  69      6F650312 
  69      2B33BB1D 
  69      1A2EA2
  70 012b 0A77E1CE 		.ascii	"\012w\341\3168\245M&\252\243\260G'\370\312\031\021e"
  70      38A54D26 
  70      AAA3B047 
  70      27F8CA19 
  70      1165
  71 013d 1CDE09C5 		.ascii	"\034\336\011\305\225\312cY\270\231{\367\000e%\200]\341"
  71      95CA6359 
  71      B8997BF7 
  71      00652580 
  71      5DE1
  72 014f D211ED4C 		.ascii	"\322\021\355L\267\334`O\320\304\272\"!Q1\012#\"\224"
  72      B7DC604F 
  72      D0C4BA22 
  72      2151310A 
  72      232294
  73 0162 2E854CAC 		.ascii	".\205L\254\007x\011\211\214*\003\205\243\317fo\225\037"
  73      07780989 
  73      8C2A0385 
  73      A3CF666F 
  73      951F
  74 0174 DD4DE06C 		.ascii	"\335M\340l\255\243K6\231\265\254\217\345G\320f\311\321"
  74      ADA34B36 
  74      99B5AC8F 
  74      E547D066 
  74      C9D1
  75 0186 4BAC2BE3 		.ascii	"K\254+\343\263\253<_\013\237\307\240IN\341\353\303\364"
  75      B3AB3C5F 
  75      0B9FC7A0 
  75      494EE1EB 
  75      C3F4
  76 0198 5247E1B2 		.ascii	"RG\341\262\212\267\226y\365%\251h\370D\234\355\221\230"
  76      8AB79679 
  76      F525A968 
  76      F8449CED 
  76      9198
  77 01aa BF6CA9A3 		.ascii	"\277l\251\243\320y\010[\355\2015\350\310R\227%?\031"
  77      D079085B 
  77      ED8135E8 
  77      C8529725 
  77      3F19
  78 01bc A597F6D1 		.ascii	"\245\227\366\321.t\023\243w\263)5\312)\265\313m\015"
  78      2E7413A3 
  78      77B32935 
  78      CA29B5CB 
  78      6D0D
  79 01ce EF8B0600 		.ascii	"\357\213\006\000\033\220|\223L\317\025\246\027B\027"
  79      1B907C93 
  79      4CCF15A6 
  79      174217
  80 01dd 6BC38B04 		.ascii	"k\303\213\004\371,\330\361:\273\267G\227\233<\231\007"
  80      F92CD8F1 
  80      3ABBB747 
ARM GAS  /tmp/ccsGAlip.s 			page 6


  80      979B3C99 
  80      07
  81 01ee DB4D3CD4 		.ascii	"\333M<\324\011\327g\351\314i\023\275\245{aG]\207\324"
  81      09D767E9 
  81      CC6913BD 
  81      A57B6147 
  81      5D87D4
  82 0201 0EDA081C 		.ascii	"\016\332\010\034V)\237H\037s\267|J\026R\271O\037]\177"
  82      56299F48 
  82      1F73B77C 
  82      4A1652B9 
  82      4F1F5D7F 
  83 0215 A8E2B02E 		.ascii	"\250\342\260.\317\307Onb3\347\232XY\371\361\277\302"
  83      CFC74F6E 
  83      6233E79A 
  83      5859F9F1 
  83      BFC2
  84 0227 23E20A49 		.ascii	"#\342\012IUyh\370\230\015\271\366\375\271\213z\370\034"
  84      557968F8 
  84      980DB9F6 
  84      FDB98B7A 
  84      F81C
  85 0239 AA2A070D 		.ascii	"\252*\007\015\237\376\023\236\312\013\274\3254\261\313"
  85      9FFE139E 
  85      CA0BBCD5 
  85      34B1CB
  86 0248 35F14C68 		.ascii	"5\361Lhb\265\222&\332\016hbM\316\254@\266\254\307~%"
  86      62B59226 
  86      DA0E6862 
  86      4DCEAC40 
  86      B6ACC77E 
  87 025d 900A3AC8 		.ascii	"\220\012:\310&?\224t\340a\320\225t\340\255\244\003O"
  87      263F9474 
  87      E061D095 
  87      74E0ADA4 
  87      034F
  88 026f 41072D9D 		.ascii	"A\007-\2350\211R\010\255\177\027\202\267\202\020\034"
  88      30895208 
  88      AD7F1782 
  88      B782101C 
  89 027f B0ED661F 		.ascii	"\260\355f\037\226\347\33361\376\263?\016\313t\202\317"
  89      96E7DB36 
  89      31FEB33F 
  89      0ECB7482 
  89      CF
  90 0290 53102CDB 		.ascii	"S\020,\333L\037\330\224 *,\276\000\2012\261\207Up\256"
  90      4C1FD894 
  90      202A2CBE 
  90      008132B1 
  90      875570AE 
  91 02a4 5687718A 		.ascii	"V\207q\212\257\334&\373GPb\330\313>P,\312\207~\324\357"
  91      AFDC26FB 
  91      475062D8 
  91      CB3E502C 
  91      CA877ED4 
  92 02b9 0FC48D58 		.ascii	"\017\304\215X<0\024\017\304\254\341!\335\220.7\301\230"
  92      3C30140F 
ARM GAS  /tmp/ccsGAlip.s 			page 7


  92      C4ACE121 
  92      DD902E37 
  92      C198
  93 02cb 716DD888 		.ascii	"qm\330\210\352F\360XO\217_\207\372\270\025\327\302\301"
  93      EA46F058 
  93      4F8F5F87 
  93      FAB815D7 
  93      C2C1
  94 02dd 98396234 		.ascii	"\2309b4\206\265\241\220Ha\016\031\354Q\007\014mp\320"
  94      86B5A190 
  94      48610E19 
  94      EC51070C 
  94      6D70D0
  95 02f0 C1BD230C 		.ascii	"\301\275#\014\321\212\005t+\022\261\242l\0256/\007\314"
  95      D18A0574 
  95      2B12B1A2 
  95      6C15362F 
  95      07CC
  96 0302 A81E1EEE 		.ascii	"\250\036\036\3567\002\372\000\317\363\017@\263\026\016"
  96      3702FA00 
  96      CFF30F40 
  96      B3160E
  97 0311 5BBA1637 		.ascii	"[\272\0267\255h\327\025\315\014\033\375\340+\013E\255"
  97      AD68D715 
  97      CD0C1BFD 
  97      E02B0B45 
  97      AD
  98 0322 7831FC1B 		.ascii	"x1\374\033B\252\252\206"
  98      42AAAA86 
  99              		.text
 100              		.section	.gnu.lto_test_011_001_execute.83567f3932ecfd88,"",%progbits
 101 0000 789CCD5A 		.ascii	"x\234\315Z}lS\327\025\277\367\331N\034\307\211\363i"
 101      7D6C53D7 
 101      15BFF7D9 
 101      4E1CC789 
 101      F369
 102 0012 12C68C95 		.ascii	"\022\306\214\225B\2316))_Z\377*c\322T\206T\201\020\224"
 102      42993629 
 102      295F5AFF 
 102      2A63D254 
 102      86548110 
 103 0027 A26D0AC6 		.ascii	"\242m\012\306\230\304\220\330\001\033\264\205\321\274"
 103      98C490D8 
 103      011BB485 
 103      D1BC
 104 0035 38814249 		.ascii	"8\201BIH\010\341\253\2056\020E\351ZuhE\024\012l\313"
 104      4808E1AB 
 104      85361045 
 104      E95A7568 
 104      45140A6C 
 105 004a AA0D92F0 		.ascii	"\252\015\222\360\265I\250\00514\257[K;\030Puc-\037\365"
 105      B549A805 
 105      3134AF5B 
 105      4B3B1850 
 105      75632D1F 
 106 005f EE39EFDA 		.ascii	"\3569\357\332/~\334<\333\343\021\315\177\234\367\316"
 106      2F7EDC3C 
ARM GAS  /tmp/ccsGAlip.s 			page 8


 106      DBE311CD 
 106      7F9CF7CE 
 107 006f 7DE79E73 		.ascii	"}\347\236s\336\357|\371\371Y\"\022\321~~B\011\331\363"
 107      DEEF7CF9 
 107      F9592212 
 107      D17E7E42 
 107      09D9F3
 108 0082 6D42BECF 		.ascii	"mB\276\317\216t<\241R\347yB\232\255\222Tv\362\273D\266"
 108      8E743CA1 
 108      52E77942 
 108      9AAD9254 
 108      76F2BB44 
 109 0097 992E3A89 		.ascii	"\231.:\211l7q\316\214\234\231s\026\344,R\016rY\310e"
 109      6C3771CE 
 109      8C9C9973 
 109      16E42C52 
 109      0E7259C8 
 110 00ac 712E1BB9 		.ascii	"q.\033\271l\316Y\221\263\362}6\344rh\231b\312\306\227"
 110      6CCE5991 
 110      B3F27D36 
 110      E4726899 
 110      62CAC697 
 111 00c0 73713997 		.ascii	"sq9\227sv\344\354\222\243\375I\306\345\265|\213qyR\376"
 111      7376E4EC 
 111      92A3FD49 
 111      C6E5B57C 
 111      8B717952 
 112 00d5 ED52C639 		.ascii	"\355R\3069z\236f\\>u\200\002\352\340;\012pG\001\347"
 112      7A9E665C 
 112      3E758002 
 112      EAE03B0A 
 112      704701E7 
 113 00e9 0A912BE4 		.ascii	"\012\221+\344\\\021rE\234+F\256\230s%\310\225p\256\024"
 113      5C117245 
 113      9C2B46AE 
 113      987325C8 
 113      9570AE14 
 114 00fd B952CE39 		.ascii	"\271R\3169\221sJe\027\253\0307\356\244\213q\343h\271"
 114      91734A65 
 114      17AB1837 
 114      EEA48B71 
 114      E368B9
 115 0110 E27859FC 		.ascii	"\342xY\374\244\234R8!\2244I&\263%+\333\232c\313\265"
 115      A49C5238 
 115      21943449 
 115      26B3252B 
 115      DB9A63CB 
 116 0125 E7E53B0A 		.ascii	"\347\345;\012\012\213\212KJ\235\343\312\312i\323\022"
 116      0A8B8A4B 
 116      4A9DE3CA 
 116      CA69D312 
 117 0135 0A70DB2A 		.ascii	"\012p\333*\310\001Y\356\212n<\370\231\264\267\373w\255"
 117      C80159EE 
 117      8A6E3CF8 
 117      99B4B7FB 
 117      77AD
 118 0147 3DF2FD58 		.ascii	"=\362\375X\214R?e\241\251\244\304K\311\013\214\241n"
ARM GAS  /tmp/ccsGAlip.s 			page 9


 118      8C523F65 
 118      A1A9A4C4 
 118      4BC90B8C 
 118      A16E
 119 0159 3C4866B6 		.ascii	"<Hf\266\0036\014t\015l\177\251\275\\\356\211t\312_3"
 119      03360C74 
 119      0D6C7FA9 
 119      BD5CEE89 
 119      74CA5F33 
 120 016d 793F3549 		.ascii	"y?5Id\232P\\\364Ql\016\354\030\036>@\345.\271\371v,"
 120      649A505C 
 120      F4516C0E 
 120      EC181E3E 
 120      40E52EB9 
 121 0184 E6408B33 		.ascii	"\346@\2133R\251\340;\273\207\333l\235\315\233\345X\254"
 121      52A9E03B 
 121      BB87DB6C 
 121      9DCD9BE5 
 121      58AC
 122 0196 09F73D9D 		.ascii	"\011\367=\235\346\276]\232}?Hk_\347\300;gF\3543Kda\232"
 122      E6BE5D9A 
 122      7D3F486B 
 122      5FE7C03B 
 122      6746EC33 
 123 01ae F68E9F4F 		.ascii	"\366\216\237O\266\367\343T\373<\264\227V$ >\275M\003"
 123      B6F7E354 
 123      FB3CB497 
 123      5624203E 
 123      BD4D03
 124 01c1 B1271DBB 		.ascii	"\261'\035\273l\347\203\227\264;\227\247\267S\376|\371"
 124      6CE78397 
 124      B43B97A7 
 124      B753FE7C 
 124      F9
 125 01d2 A0DC3A10 		.ascii	"\240\334:\020\213\315\302]\301T\273\016I\003\321X\354"
 125      8BCDC25D 
 125      C154BB0E 
 125      4903D158 
 125      EC
 126 01e3 C6D1E847 		.ascii	"\306\321\350G\257\323\342~J\231\207o\261\033\310!\354"
 126      AFD3E27E 
 126      4A99876F 
 126      B11BC821 
 126      EC
 127 01f4 766D8C58 		.ascii	"vm\214X\354@\034@\012\201\224\000q\002\031\317D\017"
 127      EC401C40 
 127      0A819400 
 127      710219CF 
 127      440F
 128 0206 30D109C0 		.ascii	"0\321\011\300\270\200Ld+\375l\305\015L\005\220'\370"
 128      B8804C64 
 128      2BFD6CC5 
 128      0D4C0590 
 128      27F8
 129 0218 CA2476FC 		.ascii	"\312$v\374\005;N\206\305)@\246\201\201\351p6\023\310"
 129      053B4E86 
 129      C52940A6 
ARM GAS  /tmp/ccsGAlip.s 			page 10


 129      8181E970 
 129      3613C8
 130 022b 33C0CE82 		.ascii	"3\300\316\202\263\331@\236\005v\016\234\315\005\362"
 130      B3D9409E 
 130      05760E9C 
 130      CD05F2
 131 023a 1CB0F380 		.ascii	"\034\260\363\200\314\007v\001\220\347\201]\014gK\200"
 131      CC077601 
 131      90E7815D 
 131      0C674B80 
 132 024a 5403BB14 		.ascii	"T\003\273\024\316\226\001\251\001\266\026\316V\002\251"
 132      CE9601A9 
 132      01B616CE 
 132      5602A9
 133 0259 67F6FB98 		.ascii	"g\366\373\230\375 0\253\201\204@ \014g\353\2004\002"
 133      FD2030AB 
 133      81844020 
 133      0C67EB80 
 133      3402
 134 026b BB1ECE36 		.ascii	"\273\036\3166\000y\221\3137\261\343\333\354(SX\215 "
 134      007991CB 
 134      37B1E3DB 
 134      EC285358 
 134      8D20
 135 027d DD0234EB 		.ascii	"\335\0024\353e\244[\221\266!mG\272\015i\007\322N\244"
 135      65A45B91 
 135      B6216D47 
 135      BA0D6907 
 135      D24EA4
 136 0290 DB917621 		.ascii	"\333\221v!\335\201\264\033\351N\244\273\220\356F\312"
 136      DD81B41B 
 136      E94EA4BB 
 136      90EE46CA 
 137 02a0 C26121AD 		.ascii	"\302a!\255,]\335<\373b\247\332FfA\226D~\236^\336\312"
 137      2C5DDD3C 
 137      FB62A7DA 
 137      46664196 
 137      447E9E5E 
 138 02b6 BF56B380 		.ascii	"\277V\263\200\355jJs\327\207I\273\"4\275d\367\320C\214"
 138      ED6A4A73 
 138      D78749BB 
 138      2234BD64 
 138      F7D0438C 
 139 02ca 1290651F 		.ascii	"\022\220e\037VY\004z\327\"*\301\321t\216D\216\355\371"
 139      5659047A 
 139      D7222AC1 
 139      D1748E44 
 139      8EEDF9
 140 02dd A2CC438F 		.ascii	"\242\314C\217P\013y\225\274\322,\313\005\210\365]y3"
 140      500B7995 
 140      BCD22CCB 
 140      0588F55D 
 140      7933
 141 02ef 9C65D7E3 		.ascii	"\234e\327\3436P\237M\342g\004\326.\220M\321\363\275"
 141      36509F4D 
 141      E26704D6 
 141      2E904DD1 
ARM GAS  /tmp/ccsGAlip.s 			page 11


 141      F3BD
 142 0301 54D95943 		.ascii	"T\331YCs\022[\254^\212{P\211\325Os\352)\227b+\215~j"
 142      73125BAC 
 142      5E8A7B50 
 142      89D54F73 
 142      EA299762 
 143 0319 533CE24B 		.ascii	"S<\342K\240\317F\030\276\271\204\234#-\027Lq\2056\246"
 143      A0CF4618 
 143      BEB9849C 
 143      232D174C 
 143      718536A6 
 144 032d 132E9A14 		.ascii	"\023.\232\024c\226\370\272=a\310\356\245\312|c\302\260"
 144      6396F8BA 
 144      3D61C8EE 
 144      A5CA7C63 
 144      C2B0
 145 033f 58E6A779 		.ascii	"X\346\247y.\262\221\356\227\367|\317O\363\343\026\374"
 145      2EB291EE 
 145      97F77CCF 
 145      4FF3E316 
 145      FC
 146 0350 D441C820 		.ascii	"\324A\310 i\275\221\360\325\016z-#\241ZDM\344\242\023"
 146      69BD91F0 
 146      D50E7A2D 
 146      23A15A44 
 146      4DE4A213 
 147 0364 D1F8F24E 		.ascii	"\321\370\362N\246h\200\023CDRv\361\334xp*\251C\344H"
 147      A6688013 
 147      43445276 
 147      F1DC7870 
 147      2AA943E4 
 148 0379 6457CA78 		.ascii	"dW\312x)f\006N\234v&\201\006\312#\321+^=\375\254\227"
 148      2966064E 
 148      9C762681 
 148      06CA23D1 
 148      2B5E3DFD 
 149 038f EC4BA91F 		.ascii	"\354K\251\037\235\375c\271\022\273\333C}\207\312y>\307"
 149      9DFD63B9 
 149      12BBDB43 
 149      7D87CA79 
 149      3EC7
 150 03a1 137BE0CC 		.ascii	"\023{\340\314\315f\206\377\020F\347\024f\215b\324\313"
 150      CD6686FF 
 150      1046E714 
 150      668D62D4 
 150      CB
 151 03b2 E0419CB7 		.ascii	"\340A\234\267\320\004\026\005^j\366\320\263\212\207"
 151      D0041605 
 151      5E6AF6D0 
 151      B38A87
 152 03c1 CAAAFCA3 		.ascii	"\312\252\374\243$\307\343\366\360heq(\304[\031\340\370"
 152      24C7E3F6 
 152      F0686571 
 152      28C45B19 
 152      E0F8
 153 03d3 7AE8BB68 		.ascii	"z\350\273hB\211{\313\275m\211\020;\300\020\354\202\232"
 153      42897BCB 
ARM GAS  /tmp/ccsGAlip.s 			page 12


 153      BD6D8910 
 153      3BC010EC 
 153      829A
 154 03e5 1B19FB42 		.ascii	"\033\031\373BQ\354\035<\366E.r\212\307\276x\364\330"
 154      51EC1D3C 
 154      F6452E72 
 154      8AC7BE78 
 154      F4D8
 155 03f7 170A626F 		.ascii	"\027\012bo&CYJ\354\357f\032{S\032\261\367\320\323\314"
 155      2643594A 
 155      ECEF661A 
 155      7B531AB1 
 155      F7D0D3CC 
 156 040b D9B4627F 		.ascii	"\331\264b\177E\030\373\353\372\261\367\320\341\224\372"
 156      4518FBEB 
 156      FAB1F7D0 
 156      E194FA
 157 041a B1920AF4 		.ascii	"\261\222\012\364B\177\007B\377\001\206\376\242(\364"
 157      427F0742 
 157      FF0186FE 
 157      A228F4
 158 0429 2F6B437F 		.ascii	"/kC\177)E\350\231\271t\"\177\251\345DG\"\300%`G\024"
 158      2945E899 
 158      B974227F 
 158      A9E54447 
 158      22C02560 
 159 043f 79A728F2 		.ascii	"y\247(\362%<\362%.r\225G\276t\364\310;\005\221\267\220"
 159      253CF225 
 159      2E729547 
 159      BE74F4C8 
 159      3B0591B7 
 160 0454 7F51D305 		.ascii	"\177Q\323\005\322\032\275\365\267\3548\344\011KN/\027"
 160      D21ABDF5 
 160      B7EC38E4 
 160      094B4E2F 
 160      17
 161 0465 07A7FC74 		.ascii	"\007\247\374t\034\270\313\272e,\323\0341+\260G7\367"
 161      1CB8CBBA 
 161      652CD31C 
 161      312BB047 
 161      37F7
 162 0477 E572D43D 		.ascii	"\345r\324=\364W\010\364\341\021@\243\235\361)\272\350"
 162      F45708F4 
 162      E11140A3 
 162      9DF129BA 
 162      E8
 163 0488 5F477651 		.ascii	"_GvQEG\322\322au\211w\324\310\320m\276O\031\007\314"
 163      4547D2D2 
 163      61758977 
 163      D4C8D06D 
 163      BE4F1907 
 164 049d 062FB8FE 		.ascii	"\006/\270\376n\213r\241\206N`\253\311\275VYw\211P\237"
 164      6E8B72A1 
 164      864E60AB 
 164      C9BD5659 
 164      7789509F 
 165 04b1 C0512F73 		.ascii	"\300Q/s\221\333\034\365r\325\250\212:W!@=\213\234\306"
ARM GAS  /tmp/ccsGAlip.s 			page 13


 165      91DB1CF5 
 165      72D5A88A 
 165      3A572140 
 165      3D8B9CC6 
 166 04c5 C9333478 		.ascii	"\31134x0!7Q\271\037\364\355\234)\276\352f\027\3201G"
 166      30213751 
 166      B91FF4ED 
 166      9C29BEEA 
 166      6617D031 
 167 04da B2631522 		.ascii	"\262c\025\"\307\334j#h\225\324F0\212c\025\002\307\262"
 167      C7DC6A23 
 167      6895D446 
 167      308A6315 
 167      02C7B2
 168 04ed 4929FAF5 		.ascii	"I)\372\365\251\352\327\023\252_\221\037\306\027'\305"
 168      A9EAD713 
 168      AA5F911F 
 168      C61727C5 
 169 04fd 43C72796 		.ascii	"C\307'\226\262:\231I\263kI\216N\0219:9#G\247\010\034"
 169      B23A9949 
 169      B36B498E 
 169      4E11393A 
 169      392347A7 
 170 0513 B5126858 		.ascii	"\265\022hX\357_\227\342\241\005\037g\220\303\362f\000"
 170      EF5F97E2 
 170      A1051F67 
 170      90C3F266 
 170      00
 171 0524 0B1D1B71 		.ascii	"\013\035\033q\361\360C\027Y\253\353-\3170\215-\306\266"
 171      F1F04317 
 171      59ABEB2D 
 171      CF308D2D 
 171      C6B6
 172 0536 BAC3C3A2 		.ascii	"\272\303\303\242V\327\341\033\203Vw6\302\024\375\033"
 172      56D7E11B 
 172      83567736 
 172      C214FD1B 
 173 0546 4BE50B51 		.ascii	"K\345\013Q\253\333\252mu\3771\240\325\031\010\335\021"
 173      ABDBAA6D 
 173      75FF31A0 
 173      D51908DD 
 173      11
 174 0557 21747B37 		.ascii	"!t{7f=~\354\266\236\003\354\356#vwE\330\265i\261\373"
 174      663D7EEC 
 174      B69E03EC 
 174      EE237677 
 174      45D8B569 
 175 056d FA11B03B 		.ascii	"\372\021\260;f<vG\205\330\2752\026\330\235A\354Z$\300"
 175      663C7647 
 175      85D8BD32 
 175      16D89D41 
 175      EC5A24C0 
 176 0581 AE591260 		.ascii	"\256Y\022`\327\256\305n\243\364\277cw\234c\007\323m"
 176      D7AEC56E 
 176      A3F4BF63 
 176      779C6307 
 176      D36D
ARM GAS  /tmp/ccsGAlip.s 			page 14


 177 0593 DFC7BAD3 		.ascii	"\337\307\272\323m\2532\335\230d\317~\213\236`\233*\370"
 177      6DAB32DD 
 177      9864CF7E 
 177      8B9E609B 
 177      2AF8
 178 05a5 9AAE607B 		.ascii	"\232\256`{\\pS\364\365\276\304\004\236\226\3113Bo\032"
 178      5C7053F4 
 178      F5BEC404 
 178      9E96C933 
 178      426F1A
 179 05b8 CF08D399 		.ascii	"\317\010\323\231N\3213\302LQ\327\235\236\3213\302LA"
 179      4ED133C2 
 179      4C51D79D 
 179      9ED133C2 
 179      4C41
 180 05ca D7CD2137 		.ascii	"\327\315!7)\266\3357\016R\235\306\273j\264\276\253h"
 180      29B6DD37 
 180      0E529DC6 
 180      BB6AB4BE 
 180      AB68
 181 05dc B11149F9 		.ascii	"\261\021I\371\262\371f\246\0358\313\330R\270\",\205"
 181      B2F966A6 
 181      1D38CBD8 
 181      52B8222C 
 181      85
 182 05ed B7C6A203 		.ascii	"\267\306\242\003\177\000\225\260\033+a\247\250\022\266"
 182      7F0095B0 
 182      1B2B61A7 
 182      A812B6
 183 05fc 692B61EF 		.ascii	"i+a\357#T\302c\350\300W\205\320\275=&\035\370C\300\356"
 183      2354C263 
 183      E8C05785 
 183      D0BD3D26 
 183      1DF843C0 
 184 0611 35C46E9F 		.ascii	"5\304n\237\010\273\016-v=\217\200\335c\350\300\177\021"
 184      08BB0E2D 
 184      763D8F80 
 184      DD63E8C0 
 184      7F11
 185 0623 62F7CB31 		.ascii	"b\367\3131\351\300\210]\037b\327+\302\256S\213]\277"
 185      E9C0885D 
 185      1F62D72B 
 185      C2AE538B 
 185      5DBF
 186 0635 411DF898 		.ascii	"A\035\370\230~\007\356T\033\353{\272\215\265C\025<\256"
 186      7E07EE54 
 186      1BEB7BBA 
 186      8DB54315 
 186      3CAE
 187 0647 2BB84DED 		.ascii	"+\270M\355\300'\324\016\374\214\321\035x\026\323)\352"
 187      C027D40E 
 187      FC8CD11D 
 187      7816D329 
 187      EA
 188 0658 C0B3451D 		.ascii	"\300\263E\035xVF\035x\266\240\003\347\022\252\374d\365"
 188      7856461D 
 188      78B6A003 
ARM GAS  /tmp/ccsGAlip.s 			page 15


 188      E712AAFC 
 188      64F5
 189 066a 4EA6BD33 		.ascii	"N\246\2753\333\330$\336yF\224\304\203\006\365\316B\275"
 189      DBD824DE 
 189      794694C4 
 189      8306F5CE 
 189      42BD
 190 067c FAFF1872 		.ascii	"\372\377\030r\370(\346\360\021Q\016o\327\346\360{\251"
 190      F828E6F0 
 190      11510E6F 
 190      D7E6F07B 
 190      A9
 191 068d 72B8704C 		.ascii	"r\270pL{\347n!t\303cR\377\210\335o\020\273\223\"\354"
 191      7BE76E21 
 191      74C36352 
 191      FF88DD6F 
 191      10BB9322 
 192 06a2 BAB4D80D 		.ascii	"\272\264\330\015\030\320;\241\376\317\352\327\377v\265"
 192      18D03BA1 
 192      FECFEAD7 
 192      FF76B5
 193 06b1 5ACFA9D5 		.ascii	"Z\317\251\325\372\254\321\325:\207\351|A\371\2710\251"
 193      FAACD1D5 
 193      3A87E97C 
 193      41F9B930 
 193      A9
 194 06c2 5AE78AAA 		.ascii	"Z\347\212\252u\016\257\326\361.\362*\177J\375\306\350"
 194      750EAFD6 
 194      F12EF22A 
 194      7F4AFDC6 
 194      E8
 195 06d3 D53A5750 		.ascii	"\325:WP\255vBL\014\021+1 k\366\213\262fT\315\006\215"
 195      AD76424C 
 195      0C112B31 
 195      206BF68B 
 195      B26654CD 
 196 06e9 DA6B902E 		.ascii	"\332k\220.g1]\206E\351\262C\233.\347\015\370\232\002"
 196      67315D86 
 196      45E9B243 
 196      9B2EE70D 
 196      F89A02
 197 06fc 4970594D 		.ascii	"IpYM\202\347\014H\202A\362\373k\252\302D\277V#\225\307"
 197      82E70C48 
 197      8241F2FB 
 197      6BAAC244 
 197      BF562395 
 198 0711 22758164 		.ascii	"\"u\201d\305E\346\031ms^\"\353\342\237\205\254\365\023"
 198      C545E619 
 198      6D735E22 
 198      EBE29F85 
 198      ACF513
 199 0724 BA08F208 		.ascii	"\272\010\362\010:\372\315D\216\316\257\001\213#\222"
 199      3AFACD44 
 199      8ECEAF01 
 199      8B2392
 200 0733 73812839 		.ascii	"s\201(9\347g4J\026h\222\3632\301\037\031\315\224\344"
 200      E767344A 
ARM GAS  /tmp/ccsGAlip.s 			page 16


 200      166892F3 
 200      32C11F19 
 200      CD94E4
 201 0746 A3CF2C31 		.ascii	"\243\317,1\362\010_\261# \005\010Hk\364\212~\335v\251"
 201      F2085FB1 
 201      23200508 
 201      486BF48A 
 201      7EDD76A9 
 202 075a E3F8CFBA 		.ascii	"\343\370\317\272\343x\207Z\340W\325\330>ot\201/f:E\343"
 202      E378875A 
 202      E057D5D8 
 202      3E6F7481 
 202      2F663A45 
 203 076f 788908C3 		.ascii	"x\211\010\303\305\031a\270DP\340\205J\360\216]:\236"
 203      C51961B8 
 203      4450E085 
 203      4AF08E5D 
 203      3A9E
 204 0781 E938B612 		.ascii	"\3518\266\022Cg\312e\341L\371\307\030<\312l\275\003"
 204      4367CA65 
 204      E14CF9C7 
 204      183CCA6C 
 204      BD03
 205 0793 3DE213EC 		.ascii	"=\342\023\354\021\177\027\365\210nm\217\370\364\377"
 205      117F17F5 
 205      886E6D8F 
 205      F8F4FF
 206 07a2 EB51E68A 		.ascii	"\353Q\346\212\020\272\033c2\216\021\273\177\"v\327E"
 206      10BA1B63 
 206      328E11BB 
 206      7F2276D7 
 206      45
 207 07b3 D8EDD462 		.ascii	"\330\355\324bw\313\240q|S\277\254\273\325j\275\245V"
 207      77CBA071 
 207      7C53BFAC 
 207      BBD56ABD 
 207      A556
 208 07c5 6BB5D1D5 		.ascii	"k\265\321\325\272\224\351\024\215\343e"
 208      BA94E914 
 208      8DE365
 209 07d0 A26A5D9A 		.ascii	"\242j]\232\3218^&\250\326\"\003\307\361\347\217i\034"
 209      D1385E26 
 209      A8D62203 
 209      C7F1E78F 
 209      691C
 210 07e2 BBF54AED 		.ascii	"\273\365J\355>\244\313=L\227\257D\351\262K\233.\017"
 210      3EA4CB3D 
 210      4C97AF44 
 210      E9B24B9B 
 210      2E0F
 211 07f4 52A58B3B 		.ascii	"R\245\213;\235q\334\032\375J?]v\251S\340\256\356\024"
 211      9D71DC1A 
 211      FD4A3F5D 
 211      76A953E0 
 211      AEEE14
 212 0807 D8A9E6D5 		.ascii	"\330\251\346\325=5\257j\214\316\253Z\246S4\005V\212"
 212      3D35AF6A 
ARM GAS  /tmp/ccsGAlip.s 			page 17


 212      8CCEAB5A 
 212      A6533405 
 212      568A
 213 0819 F2AA36A3 		.ascii	"\362\2526\243)\260R\220W\305|\012|\371\333L\247@\216"
 213      29B05290 
 213      57C57C0A 
 213      7CF9DB4C 
 213      A7408E
 214 082c 12EDE896 		.ascii	"\022\355\350\226~\372\020lIX\260\350Ug\006Gd\350\322"
 214      7EFA106C 
 214      4958B0E8 
 214      55670647 
 214      64E8D2
 215 083f 479F4971 		.ascii	"G\237Iq\267\353\025Ic\037\001\317?\\\002\272\312\323"
 215      B7EB1549 
 215      631F01CF 
 215      3F5C02BA 
 215      CAD3
 216 0851 AA02E6AB 		.ascii	"\252\002\346\253N\005\374\241\205)\3510\301=\267\233"
 216      4E05FCA1 
 216      8529E930 
 216      C13DB79B 
 217 0861 0415B05B 		.ascii	"\004\025\260[[\001\333M\243W\0003\2252\373\361\005\355"
 217      5B01DB4D 
 217      A3570033 
 217      9532FBF1 
 217      05ED
 218 0873 A17D8914 		.ascii	"\241}\211\024\012\202\015\330\245}A\273Z\224[\301\214"
 218      0A820DD8 
 218      A57D41BB 
 218      5A945BC1 
 218      8C
 219 0884 5ED0AE16 		.ascii	"^\320\256\026\344V\011~\017\333\324\323\226\035\227"
 219      E456097E 
 219      0FDBD4D3 
 219      961D97
 220 0893 0AA5532D 		.ascii	"\012\245S-<\027F\255\2200\323\203\025\242\271\213u\242"
 220      3C1746AD 
 220      9030D383 
 220      15A2B98B 
 220      75A2
 221 08a5 BB08F3BB 		.ascii	"\273\010\363\273\230\340\"o\362\316\373\315\321\357"
 221      98E0226F 
 221      F2CEFBCD 
 221      D1EF
 222 08b3 629DE02E 		.ascii	"b\235\340.J\371\267\311\366k\272}d7M\274e\276\364I\246"
 222      4AF9B7C9 
 222      F66BBA7D 
 222      64374DBC 
 222      65BEF449 
 223 08c8 B564E3B5 		.ascii	"\265d\343\265\264\257?\341J\243\321\215e=\323)j,\033"
 223      B4AF3FE1 
 223      4AA3D18D 
 223      653DD329 
 223      6A2C1B
 224 08db 44B0ADCF 		.ascii	"D\260\255\317\250\261l\020\300\346T\032\313\320\033"
 224      A8B16C10 
ARM GAS  /tmp/ccsGAlip.s 			page 18


 224      C0E6541A 
 224      CBD01B
 225 08ea EA83C48B 		.ascii	"\352\203\304\213\361BV^\307*\213M\361\3778%9+S&\316"
 225      F142565E 
 225      C72A8B4D 
 225      F1FF3825 
 225      392B5326 
 226 08ff 2E26791A 		.ascii	".&y\032\241\"We\312}u\271\310\021\036\342\211\243\373"
 226      A1225765 
 226      CA7D75B9 
 226      C8111EE2 
 226      89A3FB
 227 0912 1AA10267 		.ascii	"\032\241\002g\307\241\263\370\326U)\241^\361+Y\345\342"
 227      C7A1B3F8 
 227      D65529A1 
 227      5EF12B59 
 227      E5E2
 228 0924 21E1AB81 		.ascii	"!\341\253\2012\376\237\254\367\257\017\206t\324\254"
 228      32FE9FAC 
 228      F7AF0F86 
 228      74D4AC
 229 0933 D2D7528E 		.ascii	"\322\327R\216Z\376D\232\255\252\177\013Y\374\331*\334"
 229      5AFE449A 
 229      ADAA7F0B 
 229      59FCD92A 
 229      DC
 230 0944 F0772A2B 		.ascii	"\360w*+\253\302\276P\270jM\270*\024\\\273\306\353SX"
 230      ABC2BE50 
 230      B86A4DB8 
 230      2A145CBB 
 230      C6EB5358 
 231 0958 20D521DF 		.ascii	" \325!\337\352\265\276\200\327W\375\324\324\251\225"
 231      EAB5BE80 
 231      D757FDD4 
 231      D4A995
 232 0967 5E620A54 		.ascii	"^b\012T>E\003\214N\265\207\203aO]u\310\337\350\253\234"
 232      3E45038C 
 232      4EB58783 
 232      614F5D75 
 232      C8DFE8AB 
 233 097c 965FE759 		.ascii	"\226_\347YS\203\342\300N\317\366\257\010\3277T\3160"
 233      5383E2C0 
 233      4ECFF6AF 
 233      08D73754 
 233      CE30
 234 098e 871A2B67 		.ascii	"\207\032+gJ\241F\233*k\037))5L\225\032\246I\015\323"
 234      4AA1469B 
 234      2A6B1F29 
 234      29354C95 
 234      1AA6490D 
 235 09a3 0B6A7D9E 		.ascii	"\013j}\236\006\367\2125\236\232z_ \354[N,\260\320`\006"
 235      06F78A35 
 235      9E9A7A5F 
 235      20EC5B4E 
 235      2CB0D060 
 236 09b8 A149CCBD 		.ascii	"\241I\314\275`\250\312\033\254\257\017\006\330Y\235"
 236      60A8CA1B 
ARM GAS  /tmp/ccsGAlip.s 			page 19


 236      ACAF0F06 
 236      D8599D
 237 09c7 7F59953F 		.ascii	"\177Y\225?\340\255[\273\334W\345\255\005\271\312Z\342"
 237      E0AD5BBB 
 237      DC57E5AD 
 237      05B9CA5A 
 237      E2
 238 09d8 F4D4D505 		.ascii	"\364\324\325\005\275\236\260?\030p\007\202a\367\012"
 238      BD9EB03F 
 238      18700782 
 238      61F70A
 239 09e7 8FBF8EA9 		.ascii	"\217\277\216\251)\032\261\314\227\212\353\375\241\220"
 239      291AB1CC 
 239      978AEBFD 
 239      A190
 240 09f5 3F50C3AC 		.ascii	"?P\303\254\371|\356e\354\362*\342\\\033\360\375\264"
 240      F97CEE65 
 240      ECF22AE2 
 240      5C1BF0FD 
 240      B4
 241 0a06 C1E76596 		.ascii	"\301\347e\226\335\350I(\354\011\373H\276?\260\316S\347"
 241      DDE84928 
 241      EC09FB48 
 241      BE3FB0CE 
 241      53E7
 242 0a18 5FCE591B 		.ascii	"_\316Y\033(\366\3257\204\177F\362\3001\267\267\326\023"
 242      28F6D537 
 242      847F46F2 
 242      C031B7B7 
 242      D613
 243 0a2a A8612AFF 		.ascii	"\250a*\377\013F\260x\276"
 243      0B46B078 
 243      BE
 244              		.text
 245              		.section	.gnu.lto_test_011_001_setup.83567f3932ecfd88,"",%progbits
 246 0000 789C6362 		.ascii	"x\234cb`b@\007\222@\274\006\210u\201\230\221\231\201"
 246      60624007 
 246      9240BC06 
 246      88758198 
 246      919981
 247 0013 9169C239 		.ascii	"\221i\3029\006\206F\016&FF\020\203\201\221\241\236\211"
 247      0686460E 
 247      26464610 
 247      838191A1 
 247      9E89
 248 0025 B13E9211 		.ascii	"\261>\222\021\254v=\323\201\007\377\377\257\373\322"
 248      AC763DD3 
 248      8107FFFF 
 248      AFFBD2
 249 0034 B6FC0CE3 		.ascii	"\266\374\014\343l&f\240\010+CKC\303\004\005\006\206"
 249      6C2666A0 
 249      082B434B 
 249      43C30405 
 249      0686
 250 0046 64B08A10 		.ascii	"d\260\212\020 \011\322\026\312\310\004\242\231\3173"
 250      2009D216 
 250      CAC804A2 
ARM GAS  /tmp/ccsGAlip.s 			page 20


 250      99CF33
 251 0055 B43DD8FD 		.ascii	"\264=\330\375\230+\221q!#+P\272\232\341WCG\203@&#P9"
 251      982B9171 
 251      21232B50 
 251      BA9AE157 
 251      43478340 
 252 006d C4449008 		.ascii	"\304D\220\010G&#c.#\003T\021DM\303D\306LF\246\\FF\250"
 252      47262363 
 252      2E230354 
 252      11444DC3 
 252      44C64C46 
 253 0086 680490CB 		.ascii	"h\004\220\313\374\202\207!\223\221\205\201\341\"C\343"
 253      FC828721 
 253      93918581 
 253      E12243E3 
 254 0096 833DCA30 		.ascii	"\203=\3120C! \004h \320F\220\377\264\365\364\364KR\213"
 254      43212004 
 254      6820D046 
 254      90FFB4F5 
 254      F4F44B52 
 255 00ab 4BF48B4A 		.ascii	"K\364\213J\364\213\363K\213\222S!\\\020\021_\234ZX\232"
 255      F48BF34B 
 255      8B925321 
 255      5C10115F 
 255      9C5A589A 
 256 00bf 9A979C1A 		.ascii	"\232\227\234\032o`h\250\227\314\000\000\017G>&"
 256      6F6068A8 
 256      97CC0000 
 256      0F473E26 
 257              		.text
 258              		.section	.gnu.lto_.symbol_nodes.83567f3932ecfd88,"",%progbits
 259 0000 789C4D50 		.ascii	"x\234MP\313JC1\024<'\271Q\352c\253`\305\357r\253\202"
 259      CB4A4331 
 259      143C27B9 
 259      51EA63AB 
 259      60C5EF72 
 260 0016 5D081514 		.ascii	"]\010\025\024,(\364\024\002\212\025D\\\2732\240\320"
 260      2C28F414 
 260      028A1544 
 260      5CBB32A0 
 260      D0
 261 0027 827E44F6 		.ascii	"\202~D\366\272s\343\2535V\375\0121g\"^\263\230a&3'\017"
 261      BA73E3AB 
 261      3556FD0A 
 261      3167225E 
 261      B3986126 
 262 003e 4386560D 		.ascii	"C\206V\015\225e^Y\210\316\356\210D.\216\327\334\033"
 262      95655E59 
 262      88CEEE88 
 262      442E8ED7 
 262      DC1B
 263 0050 1B12728F 		.ascii	"\033\022r\217LN\310<\263p\275i\236X\314\277\354\027"
 263      4C4EC83C 
 263      B370BD69 
 263      9E58CCBF 
 263      EC17
 264 0062 B366C76C 		.ascii	"\263f\307ls\326\275pU\211u#v\231\370\235\305\226h\257"
ARM GAS  /tmp/ccsGAlip.s 			page 21


 264      73D6BD70 
 264      55897523 
 264      7699F89D 
 264      C59668AF 
 265 0076 C7FCC152 		.ascii	"\307\374\301R\325j\302\342j\225X\246j\365\3112\375\247"
 265      D56AC2E2 
 265      6A9558A6 
 265      6AF5C932 
 265      FDA7
 266 0088 2CCD5118 		.ascii	",\315Q\030}g\236!?VnP\002\317R8\234T\352\207#\345\006"
 266      7D679E21 
 266      3F566E50 
 266      02CF5238 
 266      9C54EA87 
 267 009f F97E66FB 		.ascii	"\371~f\373\233\2679\007\316=\315\251\006g\335\177(\373"
 267      9BB73907 
 267      CE3DCDA9 
 267      0667DD7F 
 267      28FB
 268 00b1 E03CE764 		.ascii	"\340<\347dYkI\251A\361\264\320\275E\346\034#\342\002"
 268      596B49A9 
 268      41F1B4D0 
 268      BD45E61C 
 268      23E202
 269 00c4 7011B8A4 		.ascii	"p\021\270\244%\337D\025\030\233\3507\265\020Vp\304:"
 269      25DF4415 
 269      189BE837 
 269      B5105670 
 269      C43A
 270 00d6 7003B889 		.ascii	"p\003\270\211\0140\001}\013\327l\341\200\0262[\3006"
 270      0C30017D 
 270      0BD76CE1 
 270      8016325B 
 270      C036
 271 00e8 926D4C6B 		.ascii	"\222mLkc\332\266\372a\007\0160\354\252\357\367\220\004"
 271      63DAB6FA 
 271      61070E30 
 271      ECAAEFF7 
 271      9004
 272 00fa A63DF57D 		.ascii	"\246=\365}\007\267\356h>\355\003\017p\303\256\356\306"
 272      07B7EE68 
 272      3EED030F 
 272      70C3AEEE 
 272      C6
 273 010b 2E5A8253 		.ascii	".Z\202S.\361\352X()\345z\300\227\304\000\025\256\360"
 273      2EF1EA58 
 273      2829E57A 
 273      C097C400 
 273      15AEF0
 274 011e EA700DD3 		.ascii	"\352p\015\323\017`\306AQ\303R\037\226\336M\351\025J"
 274      0F60C641 
 274      51C3521F 
 274      96DE4DE9 
 274      154A
 275 0130 B76CAB79 		.ascii	"\267l\253y\362\371\343\351\007\013A\215\313"
 275      F2F9E3E9 
 275      070B418D 
ARM GAS  /tmp/ccsGAlip.s 			page 22


 275      CB
 276              		.text
 277              		.section	.gnu.lto_.refs.83567f3932ecfd88,"",%progbits
 278 0000 789C6D87 		.ascii	"x\234m\207\301\015\300 \020\303\022\037\005&a\273\356"
 278      C10DC020 
 278      10C3121F 
 278      052661BB 
 278      EE
 279 0011 FF2DE2C4 		.ascii	"\377-\342\304\243\002KV\034\204^%!\033\354\021\271\177"
 279      A3024B56 
 279      1C845E25 
 279      211BEC11 
 279      B97F
 280 0023 935B9D7F 		.ascii	"\223[\235\177\367\3322}\2504\372\264\020\356H\037k\242"
 280      F7DA327D 
 280      A834FAB4 
 280      10EE481F 
 280      6BA2
 281 0035 0175     		.ascii	"\001u"
 282              		.text
 283              		.section	.gnu.lto_.decls.83567f3932ecfd88,"",%progbits
 284 0000 789CBD5B 		.ascii	"x\234\275[\177p\024\325\035\177o\357gH@\214\325b\253"
 284      7F7014D5 
 284      1D7F6FEF 
 284      6748408C 
 284      D562AB
 285 0013 78B6DA5F 		.ascii	"x\266\332_T\002\324Z\234\351\010\326N\305\316\264u\332"
 285      5402D45A 
 285      9CE908D6 
 285      4EC5CEB4 
 285      75DA
 286 0025 E94C673A 		.ascii	"\351Lg:\235\353rY\222\264\311\335uo#\330\376\341\022"
 286      9DEB7259 
 286      92B4C9DD 
 286      756F23D8 
 286      FEE112
 287 0038 905F234D 		.ascii	"\220_#MH\240F\344G@\345\207\002Z\221i\001\201\253bD"
 287      48A046E4 
 287      4740E587 
 287      025A9169 
 287      0181AB62 
 288 004d 54128885 		.ascii	"T\022\210\205 \005OM1\212\0126\202\204_\327\357{\373"
 288      20054F4D 
 288      318A0A36 
 288      82845FD7 
 288      EF7BFB
 289 0060 DEDDEEBB 		.ascii	"\336\335\356\273\335\273\335P\2733o\263\273\267\337"
 289      DDBBDD50 
 289      BB336FB3 
 289      BBB7DF
 290 006f CFFB7C7F 		.ascii	"\317\373|\177\274\357\373\261/\022\222\320d\011\241"
 290      BCEFFBB1 
 290      2F1292D0 
 290      6409A1
 291 007e 2C1CDFBD 		.ascii	",\034\337\275\035\241\362 B~\204\320\035P\256\202\262"
 291      1DA1F220 
 291      427E84D0 
ARM GAS  /tmp/ccsGAlip.s 			page 23


 291      1D50AE82 
 291      B2
 292 008f 0ACA6A28 		.ascii	"\012\312j(k\241\004\240<\204\021Z\010e3\\7\303\337\026"
 292      6BA104A0 
 292      3C84115A 
 292      0865335C 
 292      37C3DF16 
 293 00a3 28AD50DA 		.ascii	"(\255P\332\240,\201\362\027(\017Cy\004\312R(\313\240"
 293      A02C81F2 
 293      17280F43 
 293      7904CA52 
 293      28CBA0
 294 00b6 2C87B212 		.ascii	",\207\262\022\0129\302\004\017\256\327@Y\017e\003\224"
 294      0A39C204 
 294      0FAED740 
 294      590F6503 
 294      94
 295 00c7 E7A06C83 		.ascii	"\347\240l\203\262\023\312n(@\001\355\205\277\257A\331"
 295      B213CA6E 
 295      284001ED 
 295      85BFAF41 
 295      D9
 296 00d8 07A51B4A 		.ascii	"\007\245\033J?\224\001\206\301\017\202s52\270\214\200"
 296      3F940186 
 296      C10F8273 
 296      3532B88C 
 296      80
 297 00e9 52016513 		.ascii	"R\001e\023<\233\304\270\016\302\3659lp'\334vA9\017e"
 297      3C9BC4B8 
 297      0EC2F539 
 297      6C7027DC 
 297      7641390F 
 298 00fe 0B940B38 		.ascii	"\013\224\0138\257\313F(\027\241l\307y}\311\021du\020"
 298      AFCB4628 
 298      17A16CC7 
 298      797DC911 
 298      647510
 299 0111 5E9718CF 		.ascii	"^\227\030\317\015\214+\230\214r\333+p\"zEX\375\234\023"
 299      0D8C2B98 
 299      8C72DB2B 
 299      70227A45 
 299      58FD9C13 
 300 0125 E1E73771 		.ascii	"\341\3477q\263\343u\301d\307\215&\236\234\017\347\312"
 300      B3E375C1 
 300      64C78D26 
 300      9E9C0FE7 
 300      CA
 301 0136 7972BB72 		.ascii	"yr\273r;s\273s\237p\376k\030\377\015&\035\212\361'>"
 301      3B73BB73 
 301      9F70FE6B 
 301      18FF0D26 
 301      1D8AF127 
 302 014b 21DC4392 		.ascii	"!\334C\222\301o%\273\177\211\275'\261wv3\014\356'\363"
 302      C16F25BB 
 302      7F89BD27 
 302      B1777633 
 302      0CEE27F3 
ARM GAS  /tmp/ccsGAlip.s 			page 24


 303 015f 518E16E8 		.ascii	"Q\216\026\350z\223\3361G\237\262g\304\225\250E\207#"
 303      7A93DE31 
 303      479FB267 
 303      C495A845 
 303      8723
 304 0171 D23EA20C 		.ascii	"\322>\242\014\315#\2173O\350\243F!\364+,cx\024\246\027"
 304      CD238F33 
 304      4FE8A346 
 304      21F42B2C 
 304      637814A6 
 305 0186 15658860 		.ascii	"\025e\210`\334\214\036\207W\341}I\306\217\3412\250@"
 305      DC8C1E87 
 305      57E17D49 
 305      C68FE132 
 305      A840
 306 0198 12A0F961 		.ascii	"\022\240\371a\374N\016\"n\\\363\253,\316\241?\2039\374"
 306      FC4E0E22 
 306      6E5CF3AB 
 306      2CCEA13F 
 306      8339FC
 307 01ab 354C6C35 		.ascii	"5Ll5\276\222^Q2:\343H\337`\"\021.\341g\022kL\025U\224"
 307      BE925E51 
 307      323AE348 
 307      DF602211 
 307      2EE16712 
 308 01c4 E52FAE66 		.ascii	"\345/\256fT\234\344V\341r[\203T\242E\324 \363\336\315"
 308      549CE456 
 308      E1725B83 
 308      54A245D4 
 308      20F3DECD 
 309 01d8 F3D4252E 		.ascii	"\363\324%.\035\341fh\3114\037\317\370t=,\343u\270\022"
 309      1DE16668 
 309      C9341FCF 
 309      F8743D2C 
 309      E375B812 
 310 01ec 4CF16D8C 		.ascii	"L\361m\214\276\205\326\033\366ya\264\215MJ\003K\350"
 310      BE85D61B 
 310      F67961B4 
 310      8D4D4A03 
 310      4BE8
 311 01fe 4E0CCC36 		.ascii	"N\014\3146\000\236\214\237\302\337b\006O\267\315\255"
 311      009E8C9F 
 311      C2DF6206 
 311      4FB7CDAD 
 312 020e D0FDC673 		.ascii	"\320\375\306s\304~\2619nD\035\240Ez\311\313\313\256"
 312      C47EB139 
 312      6E441DA0 
 312      457AC9CB 
 312      CBAE
 313 0220 D53B5EC0 		.ascii	"\325;^\300\026\245\256AK\2309u\254\311xR\271\243Y\376"
 313      16A5AE41 
 313      4B983975 
 313      ACC97852 
 313      B9A359FE 
 314 0234 8A0D57F8 		.ascii	"\212\015W\370h\370 \026\024\006\212\2751\2319\266\317"
 314      68F82016 
 314      14068ABD 
ARM GAS  /tmp/ccsGAlip.s 			page 25


 314      319939B6 
 314      CF
 315 0245 3938809B 		.ascii	"98\200\233\000_\306\233il\350\030[\310\3128Pf\215\021"
 315      005FC69B 
 315      696CE818 
 315      5BC8CA38 
 315      50668D11 
 316 0259 B8E72F10 		.ascii	"\270\347/\020\274@Y\376\202\344\273+r,\270h\356v\263"
 316      BC4059FE 
 316      82E4BB2B 
 316      722CB868 
 316      EE76B3
 317 026c E17419FF 		.ascii	"\341t\031\377\322\227\303+\302m\345\202}\213\030\267"
 317      D297C32B 
 317      C26DE582 
 317      7D8B18B7 
 318 027c 67C03012 		.ascii	"g\3000\022zZ\340f1\226a\004'\003m\003\000{\037\024\374"
 318      7A5AE066 
 318      31966104 
 318      27036D03 
 318      007B1F14 
 319 0291 26A11D98 		.ascii	"&\241\035\230;\324\016.\027\262&\372fg\352\231\346\201"
 319      3BD40E2E 
 319      17B226FA 
 319      6667EA99 
 319      E681
 320 02a3 3DBEA57A 		.ascii	"=\276\245z\272}\334U\250\22580\0354G\317d\216\020\316"
 320      BA7DDC55 
 320      A8953830 
 320      1D3447CF 
 320      648E10CE 
 321 02b7 A99ADEDE 		.ascii	"\251\232\336\336y=\211\225\035\370*\250\276SP\2634\212"
 321      793D8995 
 321      1DF82AA8 
 321      BE5350B3 
 321      348A
 322 02c9 84DEA032 		.ascii	"\204\336\2402i\220\267\304\340?;}\021\343q\351\020<"
 322      6990B7C4 
 322      E03F3B7D 
 322      11E371E9 
 322      103C
 323 02db 34A7F94B 		.ascii	"4\247\371Kz\307C\243X\360\244\347\350\363\360\314\277"
 323      7AC743A3 
 323      58F0A4E7 
 323      E8F3F0CC 
 323      BF
 324 02ec 5E578C77 		.ascii	"^W\214wfQ\327\307\253\230\213v\323\360\231-Y\271{\001"
 324      6651D7C7 
 324      AB988B76 
 324      D3F0992D 
 324      59B97B01 
 325 0300 DBD5DAF5 		.ascii	"\333\325\332\365\017\006\3662\005\3338t\260\216\243"
 325      0F06F632 
 325      05DB3874 
 325      B08EA3
 326 030f 3DD7118B 		.ascii	"=\327\021\213\356\245@}\222\030\324eBP\227Y\203\272"
 326      EEA5407D 
ARM GAS  /tmp/ccsGAlip.s 			page 26


 326      9218D465 
 326      42509759 
 326      83BA
 327 0321 AC2C7F91 		.ascii	"\254,\177\221\345\2075k~\2562\022:)q\207\332)Y:\006"
 327      E587356B 
 327      7EAE3212 
 327      3A297187 
 327      DA29593A 
 328 0336 4F9E5887 		.ascii	"O\236X\207IBa\371\253c\262)\021X\240\010\253.1w\035"
 328      494261F9 
 328      AB63B229 
 328      1158A008 
 328      AB2E3177 
 329 034b EEC411E3 		.ascii	"\356\304\021\343q\351\27092gya\3522b\331\2515\036\310"
 329      71E9B839 
 329      32677961 
 329      EA3262D9 
 329      A9351EC8 
 330 035f 6771099D 		.ascii	"gq\011\235\246\232v\015\261\2655\245\217v\032\251\223"
 330      A69A760D 
 330      B1B535A5 
 330      8F761AA9 
 330      93
 331 0370 67B0739E 		.ascii	"g\260s\236\361\"\202b\220\005}\227e\375\364g\235\303"
 331      F1228262 
 331      90057D97 
 331      65FDF467 
 331      9DC3
 332 0382 F4D60A57 		.ascii	"\364\326\012W\266\357\025m\377\011\265}\257+\333\017"
 332      B6EF156D 
 332      FF09B57D 
 332      AF2BDB0F 
 333 0392 30DBCB78 		.ascii	"0\333\313x-\315\220\017R\336\275C\266\345i\301\226\013"
 333      2DCD900F 
 333      52DEBD43 
 333      B6E569C1 
 333      960B
 334 03a4 3CE315DA 		.ascii	"<\343\025\332\262y\250\266\264;\3149N\306/\340\233\341"
 334      B279A8B6 
 334      B43BCC39 
 334      4EC62FE0 
 334      9BE1
 335 03b6 FC22BE11 		.ascii	"\374\"\276\021\316\373\350\371\020\234Mu/\366\011\231"
 335      CEFBE8F9 
 335      109C4D75 
 335      2FF60999 
 336 03c6 DCAEEEB0 		.ascii	"\334\256\356\260\263\037\227\335\335\"\363\021\200\311"
 336      B31F97DD 
 336      DD22F311 
 336      80C9
 337 03d4 897A6E04 		.ascii	"\211zn\0044\022\345\322\327\231\245\267\221\214\363"
 337      3412E5D2 
 337      D799A5B7 
 337      918CF3
 338 03e3 361D576C 		.ascii	"6\035Wl\361Y3NI\020\350u\250H\237\030\016\003r\304x"
 338      F159334E 
 338      4910E875 
ARM GAS  /tmp/ccsGAlip.s 			page 27


 338      A8489F18 
 338      0E0372C4 
 339 03f8 5A2A1AF4 		.ascii	"Z*\032\364\364\351\177\227\345\243.\342\024t\214\356"
 339      F4E97F97 
 339      E5A32EE2 
 339      14748CEE 
 340 0408 F2156F2C 		.ascii	"\362\025o,\302\263i\266\355\247\224\377mO\3319z\241"
 340      C2B369B6 
 340      EDA794FF 
 340      6D4FD939 
 340      7AA1
 341 041a E9529113 		.ascii	"\351R\221\023\002\345\314\362w\316~\263]\327G\032?\225"
 341      02E5CCF2 
 341      77CE7EB3 
 341      5DD7471A 
 341      3F95
 342 042c 8EE2FD0B 		.ascii	"\216\342\375\013l2\210\215\032\035~^\375\017\363z,;"
 342      6C32888D 
 342      1A1D7E5E 
 342      FD0FF37A 
 342      2C3B
 343 043e 368998FD 		.ascii	"6\211\230\375\024\325a\225\277\244\331\255 \022z\222"
 343      14D56195 
 343      BFA4D9AD 
 343      20127A92 
 344 044e 8A0C14EA 		.ascii	"\212\014\024\352\320=\306\320a\300\225\355?\333\273"
 344      D03DC6D0 
 344      61C095ED 
 344      3FDBBB
 345 045d 0C1B2DC7 		.ascii	"\014\033-\307\260\346s9\330\241d\220\246\364\331\275"
 345      B0E67339 
 345      D8A16490 
 345      A6F4D9BD 
 346 046d 152DB2FB 		.ascii	"\025-\262\373q\334\351w\323\243vP\272\203\264\341~\344"
 346      71DCE977 
 346      D3A37650 
 346      BA83B4E1 
 346      7EE4
 347 047f B7ED3A5D 		.ascii	"\267\355:] \355j}\211\367\302\027(\324\351!C\035m{\376"
 347      20ED6A7D 
 347      89F7C217 
 347      28D4E921 
 347      431D6D7B 
 348 0494 763AD6CE 		.ascii	"v:\326\316R\240K~\261\027\016\011\275p\310\332;\206"
 348      52A04B7E 
 348      B1170E09 
 348      BD70C8DA 
 348      3B86
 349 04a6 CAF2176C 		.ascii	"\312\362\027lh\371\371\276.\241\371\001\301mv\011\317"
 349      68F9F9BE 
 349      2EA1F901 
 349      C16D7609 
 349      CF
 350 04b7 39616496 		.ascii	"9ad\226\275\323?\346\021==\333\307[O\320\311F\022\372"
 350      BDD33FE6 
 350      113D3DDB 
 350      C75B4FD0 
ARM GAS  /tmp/ccsGAlip.s 			page 28


 350      C94612FA 
 351 04cb 33AD6BB6 		.ascii	"3\255k\266$D\336\242\256\327\232\360L\352\000\362[\351"
 351      2444DEA2 
 351      AED79AF0 
 351      4CEA00F2 
 351      5BE9
 352 04dd E6B365EF 		.ascii	"\346\263e\357\303\356\232On\332r\023\255\377QZ\377|"
 352      C3EE9A4F 
 352      6EDA7213 
 352      ADFF515A 
 352      FF7C
 353 04ef B1FE9527 		.ascii	"\261\376\225'\366\374\332\210\374\371\256\252\337zh"
 353      F6FCDA88 
 353      FCF9AEAA 
 353      DF7A68
 354 04fe B15DFF7F 		.ascii	"\261]\377\177\307\325\305BcQ\327\361O\230\222\013%\322"
 354      C7D5C542 
 354      6351D7F1 
 354      4F98920B 
 354      25D2
 355 0510 737505C4 		.ascii	"su\005\304\340\230Tn\256\214\336[F\351\2759\372C\352"
 355      E098546E 
 355      AE8CDE5B 
 355      46E9BD39 
 355      FA43EA
 356 0523 EB40CFFE 		.ascii	"\353@\317\376\337\254\177V\327\347\0079\207#\236\021"
 356      DFAC7F56 
 356      D7E70739 
 356      87239E11 
 357 0533 23164B3C 		.ascii	"#\026K<\177\010\332,\007;\346\006\3141\222\232\322;"
 357      7F08DA2C 
 357      073BE606 
 357      CC31929A 
 357      D23B
 358 0545 CD606F7B 		.ascii	"\315`o{\006\2632\3536\203\365\271\001\033\351\314\354"
 358      06B332EB 
 358      3683F5B9 
 358      011BE9CC 
 358      EC
 359 0556 8019EC3D 		.ascii	"\200\031\354=\317`Vfo\230\301>p\0036\312\231\331A3\330"
 359      CF605666 
 359      6F98C13E 
 359      700336CA 
 359      99D94133 
 360 056b C79EC1AC 		.ascii	"\307\236\301\254\314z\315`\377q\003\026\261a\226;\234"
 360      CC7ACD60 
 360      FF710316 
 360      B161963B 
 360      9C
 361 057c C6C2F324 		.ascii	"\306\302\363$\363X8\227\022<\3064\312c\234\365\234\302"
 361      F3583897 
 361      123CC634 
 361      CA639CF5 
 361      9CC2
 362 058e 2C7A93DE 		.ascii	",z\223\336{\3146\326.N\322Q\345\0057\210E\002\246\345"
 362      7BCC36D6 
 362      2E4ED251 
ARM GAS  /tmp/ccsGAlip.s 			page 29


 362      E5053788 
 362      4502A6E5 
 363 05a2 556A4903 		.ascii	"UjI\003\254)\350\025\314\352\226\025\004\314\222krK"
 363      AC29E815 
 363      CCEA9615 
 363      04CC926B 
 363      724B
 364 05b4 60E951ED 		.ascii	"`\351Q\355\371lgY\003\223\361\343t\250\350j}\253\300"
 364      F96C6759 
 364      0393F1E3 
 364      74A8E86A 
 364      7DABC0
 365 05c7 45EBCC2E 		.ascii	"E\353\314.\232\347\206\177\221\030\355.\340o\314\235"
 365      9AE7867F 
 365      9118ED2E 
 365      E06FCC9D 
 366 05d7 9D2ADF60 		.ascii	"\235*\337`\256|\241\347\312\255\306;\362\352\262/\352"
 366      AE7CA1E7 
 366      CAADC63B 
 366      F2EAB22F 
 366      EA
 367 05e8 993436AD 		.ascii	"\23146\255\032:\231,7\260\350?\204g\321D\375\264Dz\361"
 367      1A3A992C 
 367      37B0E83F 
 367      8467D144 
 367      FDB4447A 
 368 05fd C541DBE1 		.ascii	"\305A\333\341\200\013\250]\255\033\307\320\341\300\263"
 368      800BA85D 
 368      AD1BC7D0 
 368      E1C0B3
 369 060c 1468F990 		.ascii	"\024h\371\220\201\216\266\255\230H\201\266P\240'\202"
 369      818EB6AD 
 369      984881B6 
 369      50A02782 
 370 061c 62D78185 		.ascii	"b\327\201\205q\005\266\366\3749\3073\277\177^\357J\350"
 370      7105B6F6 
 370      FC39C733 
 370      BF7F5EEF 
 370      4AE8
 371 062e 69D15F16 		.ascii	"i\321_\026u\212\244\215\\[\334S\265u\223\256\317\012"
 371      758AA48D 
 371      5C5BDC53 
 371      B57593AE 
 371      CF0A
 372 0640 7AF15886 		.ascii	"z\361X\206{l\033\265\317\226\002\373\020\007xSd\207"
 372      7B6C1BB5 
 372      CF9602FB 
 372      10077853 
 372      6487
 373 0652 6745C282 		.ascii	"gE\302\202\"\247\206\240\310)\256\310.\252\310\213\377"
 373      22A786A0 
 373      C829AEC8 
 373      2EAAC88B 
 373      FF
 374 0663 03455EF5 		.ascii	"\003E^\365\254\310H\223\"tns\317V\232\035\331\262\234"
 374      ACC84893 
 374      22746E73 
ARM GAS  /tmp/ccsGAlip.s 			page 30


 374      CF569A1D 
 374      D9B29C
 375 0676 F3088FF0 		.ascii	"\363\010\217\360\331-\211+r\373\310\354\236<.=\247\030"
 375      D92D892B 
 375      72FBC8EC 
 375      9E3C2E3D 
 375      A718
 376 0688 D867CCC6 		.ascii	"\330g\314\306-\313\352%\246\001{\3304\340ej\261n\273"
 376      2DCBEA25 
 376      A6017BD8 
 376      34E0656A 
 376      B16EBB
 377 069b 36E606A9 		.ascii	"6\346\006\251c\327\201\253\351\372\031\20598T\230\314"
 377      63D781AB 
 377      E9FA1985 
 377      39385498 
 377      CC
 378 06ac D19EBF19 		.ascii	"\321\236\277\031M\365u\012t\254\300\203A\301\201A\253"
 378      4DF5750A 
 378      74ACC083 
 378      41C18141 
 378      AB
 379 06bd 03E196D4 		.ascii	"\003\341\226\324t\226\256\213=\300\236\220\233\020\372"
 379      7496AE8B 
 379      3DC09E90 
 379      9B10FA
 380 06cc BFCB49A8 		.ascii	"\277\313I\250\237\322'\316\033\312\220\223\004O\372"
 380      9FD227CE 
 380      1BCA9093 
 380      044FFA
 381 06db FB5B59D7 		.ascii	"\373[Y\327j8\350\344e!6\245W6\363\005\240I\244s={\231"
 381      6A38E8E4 
 381      652136A5 
 381      5736F305 
 381      A049A473 
 382 06f2 70CF7789 		.ascii	"p\317w\211\235\223\320S\235r\350zr\213\012\235|\362"
 382      9D93D053 
 382      9D72E87A 
 382      728B0A9D 
 382      7CF2
 383 0704 78888E9B 		.ascii	"x\210\216\233\262\005\016?\211\205q\375I\353\362\273"
 383      B2050E3F 
 383      898571FD 
 383      49EBF2BB 
 384 0714 534B3A68 		.ascii	"SK:h\356\007[C\227\353\210\336;\254\216h\277,\304\246"
 384      EE075B43 
 384      97EB88DE 
 384      3BAC8E68 
 384      BF2CC4A6 
 385 0728 F460B3BB 		.ascii	"\364`\263\2735\214\337r\254\012\252H\007\255\366-q\016"
 385      358CDF72 
 385      AC0AAA48 
 385      07ADF62D 
 385      710E
 386 073a B6FD7C66 		.ascii	"\266\375|f\016\263\343[.&az\372\010]\3721\026\037d\374"
 386      0EB3E35B 
 386      2E26617A 
ARM GAS  /tmp/ccsGAlip.s 			page 31


 386      FA085DFA 
 386      31161F64 
 387 074f 1996182A 		.ascii	"\031\226\030*\253\325\323\342\203\236>\246\354\031\347"
 387      ABD5D3E2 
 387      839E3EA6 
 387      EC19E7
 388 075e 25E9F4B3 		.ascii	"%\351\364\263\244\323GM\371rH\364\371^1M{ju\257\347"
 388      A4D3474D 
 388      F97248F4 
 388      F95E314D 
 388      7B6A75AF 
 389 0773 6CE47640 		.ascii	"l\344v@+\036N1u\314\034S\373//\002 \246\372\247\030"
 389      2B1E4E31 
 389      75CC1C53 
 389      FB2F2F02 
 389      20A6FAA7 
 390 0788 E366A1CD 		.ascii	"\343f\241\315\3649\264\031\302\340\0033\203\336\313"
 390      F439B419 
 390      C2E00333 
 390      83DECB
 391 0797 8CC1ED07 		.ascii	"\214\301\355\007L\375\205\313e\243^\346\272\217\250"
 391      4CFD85CB 
 391      65A35EE6 
 391      BA8FA8
 392 07a6 EBDE2A70 		.ascii	"\353\336*p\335\005q,\345f\025\345\304P\025\311\0350"
 392      DD05712C 
 392      E56615E5 
 392      C45015C9 
 392      1D30
 393 07b8 E30AB918 		.ascii	"\343\012\271\030\352F\254\3565\3050\270#\363c\243\211"
 393      EA46ACEE 
 393      35C530B8 
 393      23F363A3 
 393      89
 394 07c9 975C8AE1 		.ascii	"\227\\\212\341\311\353\330"
 394      C9EBD8
 395 07d0 6B33D98A 		.ascii	"k3\331\212\350\200D\326\360>\025\254\341bMgV\230\210"
 395      E88044D6 
 395      F03E15AC 
 395      E1624D67 
 395      569888
 396 07e3 9C11DB33 		.ascii	"\234\021\3333$~\266\"z\306\325\232\312\346\005<\255"
 396      247EB622 
 396      7AC6D59A 
 396      CAE6053C 
 396      AD
 397 07f4 1BD9B187 		.ascii	"\033\331\261\2076\3503\2271/\264\3700\317O\306g%21\032"
 397      36E83397 
 397      312FB4F8 
 397      30CF4FC6 
 397      67253231 
 398 0809 942CEBE6 		.ascii	"\224,\353\346ma\027\306\377\206S$\352\351\323\007\254"
 398      6D6117C6 
 398      FF865324 
 398      EAE9D307 
 398      AC
 399 081a ABA18F8A 		.ascii	"\253\241\217\212xv\011\311\202gv&\314 {\350\014\322"
ARM GAS  /tmp/ccsGAlip.s 			page 32


 399      787609C9 
 399      82677626 
 399      CC207BE8 
 399      0CD2
 400 082c 08D2C7DD 		.ascii	"\010\322\307\335\220\033\347\014\266\262\215\033\367"
 400      901BE70C 
 400      B6B28D1B 
 400      F7
 401 0839 03DA476D 		.ascii	"\003\332Gmt\2037\321I\331\246\364\337z\370G\023c\355"
 401      748337D1 
 401      49D9A6F4 
 401      DF7AF847 
 401      1363ED
 402 084c 758B673C 		.ascii	"u\213g<+\277\177\266Y\372\364\235n\340&\273\366}~\245"
 402      2BBF7FB6 
 402      59FAF49D 
 402      6EE026BB 
 402      F67D7EA5 
 403 0860 5BC6A7E9 		.ascii	"[\306\247\351\244\370\014\375rr\226\236gI\344\374\030"
 403      A4F80CFD 
 403      7272969E 
 403      6749E4FC 
 403      18
 404 0871 3D3F41CF 		.ascii	"=?A\317k\351\371)z\336D\317[\351y'=\277H\317\377\241"
 404      6BE9F929 
 404      7ADE44CF 
 404      5BE97927 
 404      3DBF48CF 
 405 0887 E7F3F47C 		.ascii	"\347\363\364|\221\236\263\364<\323G1}\246\330rJ\204"
 405      919EB3F4 
 405      3CD34731 
 405      7DA6D872 
 405      4A84
 406 0899 C2288087 		.ascii	"\302(\200\207\374\211!\177\312:\260\327\264\350\260"
 406      FC89217F 
 406      CA3AB0D7 
 406      B4E8B0
 407 08a8 3B8C3D82 		.ascii	";\214=\202E\212\331\360\204\311\206\037Q\033~L\255\367"
 407      458AD9F0 
 407      84C9861F 
 407      511B7E4C 
 407      ADF7
 408 08ba A05953DE 		.ascii	"\240YS\336\015\367\015\365\033@\346\314\322\235\246"
 408      0DF70DF5 
 408      1B40E6CC 
 408      D29DA6
 409 08c9 2C20A157 		.ascii	", \241W\302\0309w'E:Bf\222\013\320\255\013}\323\333"
 409      C2183977 
 409      27453A42 
 409      66920BD0 
 409      AD0B7DD3 
 410 08de 45FAA605 		.ascii	"E\372\246\005\276\362\274.=\242.%\353.j\301>\223\005"
 410      BEF2BC2E 
 410      3DA22E25 
 410      EB2E6AC1 
 410      3E9305
 411 08f1 8F530BBE 		.ascii	"\217S\013\276G-8\227F\314|\237%\033u\205\205\257x\326"
ARM GAS  /tmp/ccsGAlip.s 			page 33


 411      472D3897 
 411      46CC7C9F 
 411      251B7585 
 411      85AF78D6 
 412 0905 4F67A64B 		.ascii	"Og\246KwM`\203\251\362M\264\362\247i\345\317\323s\006"
 412      774D6083 
 412      A9F24DB4 
 412      F2A769E5 
 412      CFD37306 
 413 0919 BB08D7B5 		.ascii	"\273\010\327\265\016\373\220\362\033\263\214e%&\337"
 413      0EFB90F2 
 413      1BB38C65 
 413      2526DF
 414 0928 92235CC9 		.ascii	"\222#\\\311\000\026\372\274n\231\372\263\317~\313\324"
 414      0016FABC 
 414      6E99FAB3 
 414      CF7ECBD4 
 415 0938 9525A83E 		.ascii	"\225%\250>\344\363D\265\226\313\017g\362-\236\231.r"
 415      E4F344B5 
 415      96CB0F67 
 415      F22D9E99 
 415      2E72
 416 094a 605A5182 		.ascii	"`ZQ\202i\2637\246\326( \000m\236\251.v\240zE\011\252"
 416      69B337A6 
 416      D6282000 
 416      6D9EA92E 
 416      76A07A45 
 417 0960 AD0E548D 		.ascii	"\255\016T\215\017\347NRK\274)x/\227\037\306\344\037"
 417      0FE74E52 
 417      4BBC2978 
 417      2F971FC6 
 417      E41F
 418 0972 F6AC5FBB 		.ascii	"\366\254_\273\203~\005\331N\220\373\2137\246I.?\202"
 418      837E05D9 
 418      4E90FB8B 
 418      37A6492E 
 418      3F82
 419 0984 C92FF5CC 		.ascii	"\311/\365\314\364Q\007\246\303K0}\304\033\323\366\\"
 419      F45107A6 
 419      C34B307D 
 419      C41BD3F6 
 419      5C
 420 0995 D05CC500 		.ascii	"\320\\\305\000\226{\246\272\302\201je\011\252\313\\"
 420      967BA6BA 
 420      C2816A65 
 420      09AACB5C 
 421 09a5 50252B5A 		.ascii	"P%+ZL>=\215\003\364W0\204\016\317\\W9p}\257Tc\\\231"
 421      4C3E3D8D 
 421      03F45730 
 421      840ECF5C 
 421      5739707D 
 422 09be 277B035A 		.ascii	"'{\003Z\241\247Oe\016\255\371\344\373\313\311\210Z\277"
 422      A1A74F65 
 422      0EADF9E4 
 422      FBCBC988 
 422      5ABF
 423 09d0 947D000B 		.ascii	"\224}\000\013\233\023\035>\367\321M\245>\276O\224\357"
ARM GAS  /tmp/ccsGAlip.s 			page 34


 423      9B131D3E 
 423      F7D14DA5 
 423      3EBE4F94 
 423      EF
 424 09e1 FB935036 		.ascii	"\373\223P6l\035Z#\3645\364\004\301\323\327\351>\212"
 424      6C1D5A23 
 424      F435F404 
 424      C1D3D7E9 
 424      3E8A
 425 09f3 46F795FA 		.ascii	"F\367\225\372n@\246C\306\217\373$\363\003\203X\372B"
 425      6E40A643 
 425      C68FFB24 
 425      F3038358 
 425      FA42
 426 0a05 6745CBCC 		.ascii	"gE\313\314L6{\203Q\227\204\026\227\271A_#\242\257\265"
 426      4C367B83 
 426      51978416 
 426      97B9415F 
 426      23A2AFB5 
 427 0a19 45FF5444 		.ascii	"E\377TD_\357\012}\275\210\376d!z\246%3\370\324'\337"
 427      5FEF0A7D 
 427      BD88FE64 
 427      217AA625 
 427      33F8D427 
 428 0a2e 6E7F569F 		.ascii	"n\177V\237mc\3240\232KWJ\037\324g\342?\344\034\345\270"
 428      6D63D430 
 428      9A4B574A 
 428      1FD467E2 
 428      3FE41CE5 
 429 0a43 B777932F 		.ascii	"\267w\223/\014\344z\312\254\213\324&\002\344\005\356"
 429      0CE47ACA 
 429      AC8BD426 
 429      02E405EE 
 430 0a53 71E39A5F 		.ascii	"q\343\232_\025\371\366\261\321g\331Yj\274\237\273a_"
 430      15F9F6B1 
 430      D167D959 
 430      6ABC9FBB 
 430      615F
 431 0a65 462C3B3A 		.ascii	"F,;:%t\270\300@\306K\233m-\320\274\372\025\374\210\376"
 431      2574B8C0 
 431      40C64B9B 
 431      6D2DD0BC 
 431      FA15FC88 
 432 0a7a C26C3D9B 		.ascii	"\302l=\233}\000\271\337\362\272E$F\272dq\253\251\260"
 432      7D00B9DF 
 432      F2BA4524 
 432      46BA6471 
 432      ABA9B0
 433 0a8d 1355E079 		.ascii	"\023U\340y\334\201\347V;\236\351\266\005\017]\253\257"
 433      DC81E756 
 433      3B9EE9B6 
 433      050F5DAB 
 433      AF
 434 0a9e 6A4A67B3 		.ascii	"jJg\263\223D\232E\202\177\273H\223~\306\266\320\030"
 434      93449A45 
 434      827FBB48 
 434      937EC6B6 
ARM GAS  /tmp/ccsGAlip.s 			page 35


 434      D018
 435 0ab0 74A0B1C3 		.ascii	"t\240\261\303\226\306\222\005\013\235h\024\353zv\025"
 435      96C69205 
 435      0B9D6814 
 435      EB7A7615 
 436 0ac0 3517EB98 		.ascii	"5\027\353\230\304{\201\350\354a\366D_\264%\232\235;"
 436      C47B81E8 
 436      EC61F644 
 436      5FB4259A 
 436      9D3B
 437 0ad2 147BBD54 		.ascii	"\024{\275T\224\347$+M\273\015\305\022Z\344@\363\025"
 437      94E7242B 
 437      4DBB0DC5 
 437      125AE440 
 437      F315
 438 0ae4 2BCDAFA0 		.ascii	"+\315\257\240Uz\246\233d\2653\030\346\365\363f\221\005"
 438      557AA69B 
 438      64B53318 
 438      E6F5F366 
 438      9105
 439 0af6 289CF5F1 		.ascii	"(\234\365\361\255\341\253s0|\274a\331\366M\020_\315"
 439      ADE1AB73 
 439      307CBC61 
 439      D9F64D10 
 439      5FCD
 440 0b08 2352B496 		.ascii	"#R\264\226\314\326\315\207\277\274\256I\237\235\007"
 440      CCD6CD87 
 440      BFBCAE49 
 440      9F9D07
 441 0b17 23295B42 		.ascii	"#)[B\335\"\230Mr\177\335\212\326\321J\222\303\230\365"
 441      DD22984D 
 441      727FDD8A 
 441      D6D14A92 
 441      C398F5
 442 0b2a 343970B4 		.ascii	"49p\264\000\231`\376K\004+\260b\227\025\352\2314\250"
 442      009960FE 
 442      4B042BB0 
 442      629715EA 
 442      9934A8
 443 0b3d B9FF9E6D 		.ascii	"\271\377\236mM$y\033P\274\3171\255\360\246\363+\226"
 443      4D24791B 
 443      50BCCF31 
 443      ADF0A6F3 
 443      2B96
 444 0b4f 305DC0A5 		.ascii	"0]\300\245\366\273\015>\265\177\024\371:Srk\233\214"
 444      F6BB0D3E 
 444      B57F14F9 
 444      3A53726B 
 444      9B8C
 445 0b61 DFF0DD5C 		.ascii	"\337\360\335\\z\007\034]\344\365\011\273\337\316+\021"
 445      7A071C5D 
 445      E4F509BB 
 445      DFCE2B11 
 446 0b71 E369E935 		.ascii	"\343i\3515\223\213\027\367`\272\006J\222\022\244[Ib"
 446      938B17F7 
 446      60BA064A 
 446      9212A45B 
ARM GAS  /tmp/ccsGAlip.s 			page 36


 446      4962
 447 0b83 80439B3F 		.ascii	"\200C\233?f\337\247p\302\350\216\364\000NF\177\323'"
 447      66DFA770 
 447      C2E88EF4 
 447      004E467F 
 447      D327
 448 0b95 EC50394E 		.ascii	"\354P9N\375\344\205B\304B\241\245\223Na\011\256\204"
 448      FDE48542 
 448      C442A1A5 
 448      934E6109 
 448      AE84
 449 0ba7 3E740356 		.ascii	">t\003Vd\362\327j\006;\355\031,\"\030\235\317\237\016"
 449      64F2D76A 
 449      063BED19 
 449      2C22189D 
 449      CF9F0E
 450 0bba F9C8FCA9 		.ascii	"\371\310\374\251\227N\333\016\323\363\277\350\371\230"
 450      974EDB0E 
 450      D3F3BFE8 
 450      F998
 451 0bc8 750A7751 		.ascii	"u\012wQh\223\334\251&\274\274\357QiD{\037\010\316\352"
 451      6893DCA9 
 451      26BCBCEF 
 451      5169447B 
 451      1F08CEEA 
 452 0bdc 71D08FE0 		.ascii	"q\320\217\340\277\355\263|\206\310C\376\326:[\311\267"
 452      BFEDB37C 
 452      86C843FE 
 452      D63A5BC9 
 452      B7
 453 0bed 1343C6FE 		.ascii	"\023C\306\376-\031\277\343yd\366\256\303\310\314\234"
 453      2D19BFE3 
 453      7964F6AE 
 453      C3C8CC9C 
 454 0bfd A4F26F91 		.ascii	"\244\362o\221\235\007\345B\263/ \321\007\315~4ZZ\276"
 454      9D07E542 
 454      B32F20D1 
 454      07CD7E34 
 454      5A5ABE
 455 0c10 5C377C77 		.ascii	"\\7|w+\332\254\317K\217\223\361~`\227\213\212?\241s"
 455      2BDAACCF 
 455      4B8F93F1 
 455      7E60978B 
 455      8A3FA173 
 456 0c24 7ABB0E19 		.ascii	"z\273\016\031\341\360=>C)\222#\272\273\323=\373\310"
 456      E1F03D3E 
 456      43299223 
 456      BABBD33D 
 456      FBC8
 457 0c36 AA1D2489 		.ascii	"\252\035$\211K\331,6\314'\241\347\304Z\013[\355\373"
 457      4BD92C36 
 457      CC27A1E7 
 457      C45A0B5B 
 457      EDFB
 458 0c48 2CDB18D5 		.ascii	",\333\030\325M6$\015\027\032u\221\257\236n\006\347\375"
 458      4D36240D 
 458      171A7591 
ARM GAS  /tmp/ccsGAlip.s 			page 37


 458      AF9E6E06 
 458      E7FD
 459 0c5a 39E8EB19 		.ascii	"9\350\353\031\364G\236\315\372\261\203Y\257+\03292\376"
 459      F4479ECD 
 459      FAB18359 
 459      AF2B1A39 
 459      32FE
 460 0c6c 301F10A3 		.ascii	"0\037\020\243\321?\300\204\355\223\363\325\033\221H"
 460      D13FC084 
 460      ED93F3D5 
 460      1B9148
 461 0c7b 9499A7A7 		.ascii	"\224\231\247\247\017\216\340m\235\215\361\214\010%x"
 461      0F8EE06D 
 461      9D8DF18C 
 461      082578
 462 0c8a 6F521023 		.ascii	"oR\020#V\331\333o\346\3366\2177\031\013\314\015\364"
 462      56D9DB6F 
 462      E6DE368F 
 462      37190BCC 
 462      0DF4
 463 0c9c F74A8B27 		.ascii	"\367J\213'\006\273l<\361ViO|Z\322\023\347\273\2601\321"
 463      06BB6C3C 
 463      F156694F 
 463      7C5AD213 
 463      E7BBB031 
 464 0cb1 1E8D3E64 		.ascii	"\036\215>dJ\266X\2244\253QD\255\226J\256\326\352B\265"
 464      4AB65894 
 464      34AB5144 
 464      AD964AAE 
 464      D6EA42B5 
 465 0cc5 8C8E9237 		.ascii	"\214\216\22271\241U\006\234}7\3508\253\336U$\357\236"
 465      31A15506 
 465      9C7D37E8 
 465      38ABDE55 
 465      24EF9E
 466 0cd8 7394DA52 		.ascii	"s\224\332RD\352\274\243\324\306\"R\027\034\245\266\027"
 466      44EABCA3 
 466      D4C62252 
 466      171CA5B6 
 466      17
 467 0ce9 91BA68ED 		.ascii	"\221\272h\355\031\330|\352\344\246\367%\262W\224\014"
 467      19D87CEA 
 467      E4A6F725 
 467      B257940C 
 468 0cf9 7C6F743F 		.ascii	"|ot?\360\315\272\031\370\012C\242s\345\326\364{\023"
 468      F0CDBA19 
 468      F80A43A2 
 468      73E5D6F4 
 468      7B13
 469 0d0b 7A4CD75B 		.ascii	"zL\327[\365\375\312\024\376\237\003s*\310\033\227\300"
 469      F5FDCA14 
 469      FE9F0373 
 469      2AC81B97 
 469      C0
 470 0d1c 9776F5B2 		.ascii	"\227v\365\262\005/&v\221\210m\246[-\216\322eAg1F\207"
 470      052F2676 
 470      91886DA6 
ARM GAS  /tmp/ccsGAlip.s 			page 38


 470      5B2D8ED2 
 470      65416731 
 471 0d32 4E909AF4 		.ascii	"N\220\232\364#}\367Na\2038g!\246f\223\3372Z\023\254"
 471      237DF74E 
 471      61833867 
 471      21A66693 
 471      DF325A13 
 472 0d47 FD52116B 		.ascii	"\375R\021k\317\365\347S\273?V+\2537\215\035[\225HU\305"
 472      CFF5E753 
 472      BB3F562B 
 472      AB378D1D 
 472      5B954855 
 473 0d5c 120D0D89 		.ascii	"\022\015\015\2118\\\325\327M\255\252\213\307\352\033"
 473      385CD5D7 
 473      4DADAA8B 
 473      C7EA1B
 474 0d6b AB95AA58 		.ascii	"\253\225\252Xm\255\"'\307\326\242\341\015JCB\275?Jn"
 474      6DAD2227 
 474      C7D6A2E1 
 474      0D4A4342 
 474      BD3F4A6E 
 475 0d7f A35AF0EE 		.ascii	"\243Z\360\356\237\3762r\027*7=\234P\325\230R\253\210"
 475      9FFE3272 
 475      172A373D 
 475      9C50D598 
 475      52AB88
 476 0d92 6C4D2C56 		.ascii	"lM,V%\253\015\267\304\023q\345\026E\236ZWu\353\330\211"
 476      25AB0DB7 
 476      C41371E5 
 476      16459E5A 
 476      5775EBD8 
 477 0da7 6327E430 		.ascii	"c'\3440SZu\2652\0150\203\251\272?*Q\355\353E\353\207"
 477      535A75B5 
 477      320D3083 
 477      A9BA3F2A 
 477      51EDEB45 
 478 0dbd 2A620955 		.ascii	"*b\011Ua\024j\024mZc<6!\252\205\223j\342\276\272jE\035"
 478      61146A14 
 478      6D5A633C 
 478      3621AA85 
 478      936AE2BE 
 479 0dd5 4E29C109 		.ascii	"N)\301\011\256\243Z\271\351\356\253\026\340dB\325RU"
 479      AEA35AB9 
 479      E9EEAB16 
 479      E06442D5 
 479      5255
 480 0de7 77FEFC27 		.ascii	"w\376\374'w\375d\006\3402\320a)\355\367r}]M<\252]O5"
 480      77FD6406 
 480      E032D061 
 480      29EDF772 
 480      7D5D4D3C 
 481 0dff E035C795 		.ascii	"\3405\307\225\351\204\010\220\255\213k\360b\270\021"
 481      E9840890 
 481      AD8B6BF0 
 481      62B811
 482 0e0e FEDE766B 		.ascii	"\376\336vkT\273\305\356\265\0069V[\027W\252\242\240"
 482      54BBC5EE 
ARM GAS  /tmp/ccsGAlip.s 			page 39


 482      B5063956 
 482      5B1757AA 
 482      A2A0
 483 0e20 99DC58AF 		.ascii	"\231\334X\257E\265\373\223J\212\340G\243\\0@\353\361"
 483      45B5FB93 
 483      4A8AE047 
 483      A35C3040 
 483      EBF1
 484 0e32 C795195A 		.ascii	"\307\225\031Z )\327()\3774UQ\374\204\260\237X\302\337"
 484      2029D728 
 484      29FF3455 
 484      51FC84B0 
 484      9F58C2DF 
 485 0e46 9852AA83 		.ascii	"\230R\252\203\006\365k\015\352\252f\266\2046\003\000"
 485      06F56B0D 
 485      EAAA66B6 
 485      84360300 
 486 0e56 430D8D9A 		.ascii	"C\015\215\2322\003\364\217\325F\351\345h\233WS\367\247"
 486      3203F48F 
 486      D546E9E5 
 486      689B5753 
 486      F7A7
 487 0e68 38812BB4 		.ascii	"8\201+\264Z\025 S\321?4*\215`\355\221 gy\364%;\371X"
 487      5A152053 
 487      D13F342A 
 487      8D60ED91 
 487      206779F4 
 488 0e80 6D35D1D9 		.ascii	"m5\321\331x1\252\225\345\204\002TfB\021\313&\032\222"
 488      7831AA95 
 488      E5840254 
 488      664211CB 
 488      261A92
 489 0e93 75F58A9A 		.ascii	"u\365\212\232\252\272\373\256\273\000\212\363\010iI"
 489      AABAFBAE 
 489      BB008AF3 
 489      086949
 490 0ea2 B52E01BC 		.ascii	"\265.\001\274\2119\276\003\016d\226!\227~\362S\005\201"
 490      8939BE03 
 490      0E649621 
 490      977EF253 
 490      0581
 491 0eb4 89C61271 		.ascii	"\211\306\022q\320I+\2477\360sL\233\361\365Rn\214\336"
 491      D0492BA7 
 491      37F0734C 
 491      9BF1F552 
 491      6E8CDE
 492 0ec7 F7BD06C2 		.ascii	"\367\275\006\302VUj \356\242\232\244\336*\251\337\225"
 492      56556A20 
 492      EEA29AA4 
 492      DE2AA9DF 
 492      95
 493 0ed8 D4DB24F5 		.ascii	"\324\333$\365{\222:QRo\367\251\343\307A\031/\325\253"
 493      7B923A51 
 493      526FF7A9 
 493      E3C74119 
 493      2FD5AB
 494 0eeb 522AE903 		.ascii	"R*\351\003\320\0008NQ\003\211z0\266?.7(\301\351\362"
ARM GAS  /tmp/ccsGAlip.s 			page 40


 494      D000384E 
 494      5103897A 
 494      30B63F2E 
 494      3728C1E9 
 495 0f00 5439A584 		.ascii	"T9\245\204\265\224&k`\247\020!7\021T7h\302U\200\376"
 495      B594266B 
 495      60A71021 
 495      37115437 
 495      68C25580 
 496 0f15 12D21A12 		.ascii	"\022\322\032\022\325\360{`Z\275\\\223\012i\2522-\005"
 496      D5F07B60 
 496      5ABD5C93 
 496      0A69AA32 
 496      2D05
 497 0f27 1A903F81 		.ascii	"\032\220?\201\206T\015\0102\245@\220]\005\325\352\373"
 497      86540D08 
 497      32A54090 
 497      5D05D5EA 
 497      FB
 498 0f38 E1A7B032 		.ascii	"\341\247\2602\243N\213\201pp\272\226\230\372\273d%\263"
 498      A34E8B81 
 498      7070BA96 
 498      98FABB64 
 498      25B3
 499 0f4a 2E882AAA 		.ascii	".\210*\252\022\217\021\320\351\232\246&C)%\256\201@"
 499      128F11D0 
 499      E99AA626 
 499      432925AE 
 499      8140
 500 0f5c 05583DA5 		.ascii	"\005X=\2454\310\311ZP\322.\"\340G\320;\020\213C\274"
 500      34C8C95A 
 500      50D22E22 
 500      E047D03B 
 500      108B43BC 
 501 0f70 F9E00CC0 		.ascii	"\371\340\014\300\360(\011\177 V\222\345\312}\004GN\375"
 501      F028097F 
 501      205692E5 
 501      CA7D0447 
 501      4EFD
 502 0f82 1E2828D3 		.ascii	"\036((\323\311\005n\034\301}__\227\002\251+L\321@\236"
 502      C9056E1C 
 502      C17D5F5F 
 502      9702A92B 
 502      4CD1409E 
 503 0f96 84A6CB75 		.ascii	"\204\246\313uZ]\274&\014\325"
 503      5A5DBC26 
 503      0CD5
 504 0fa0 534F8795 		.ascii	"SO\207\225\244\022\207&P\023\002H\362\006XY\256'\376"
 504      A4128726 
 504      50130248 
 504      F2065859 
 504      AE27FE
 505 0fb3 0A342413 		.ascii	"\0124$\023\211zp\235r_ 1=\256\250>xc\014\260\324\224"
 505      897A709D 
 505      725F2031 
 505      3DAEA83E 
 505      78630CB0 
ARM GAS  /tmp/ccsGAlip.s 			page 41


 506 0fc9 944678A6 		.ascii	"\224Fx\246\022\215jL1n\311\011t\001H\242\347\270\361"
 506      128D6A4C 
 506      316EC909 
 506      740148A2 
 506      E7B8F1
 507 0fdc E3C7C6D0 		.ascii	"\343\307\306\320\027\350C\270\216\216\0337!\252\314"
 507      17E843B8 
 507      8E8E1B37 
 507      21AACC
 508 0feb 506210CE 		.ascii	"Pb\020\316\346\207\343\371\303J\313\303\224\2425&\257"
 508      E687E3F9 
 508      C34ACBC3 
 508      94A23526 
 508      AF
 509 0ffc E11591D6 		.ascii	"\341\025\221\326"
 510 1000 4794806B 		.ascii	"G\224\200kb\213\350\017\200T\005\275\215\312\251\224"
 510      628BE80F 
 510      805405BD 
 510      8DCAA994 
 511 1010 A26A95B1 		.ascii	"\242j\225\261\332)\320\304\356\254\257O\304\356$-P\251"
 511      DA29D0C4 
 511      EEACAF4F 
 511      C4EE242D 
 511      50A9
 512 1022 1E663CFA 		.ascii	"\036f<\372\0214\277\012\343\362\027\340\332\306\324"
 512      1134BF0A 
 512      E3F217E0 
 512      DAC6D4
 513 1031 48E3E667 		.ascii	"H\343\346gS\177\247\304\264{\342uZ\031\305!-\364\253"
 513      537FA7C4 
 513      B47BE275 
 513      5A19C521 
 513      2DF4AB
 514 1044 C5145313 		.ascii	"\305\024S\023\011Ry9\275\231\3328\015\374iH\2464%\031"
 514      09527939 
 514      BD99DA38 
 514      0DFC6948 
 514      A6342519 
 515 1058 A07CC39A 		.ascii	"\240|\303\232\"\253\325`\247\020\323i\030y!\006\021"
 515      22ABD560 
 515      A710D369 
 515      18792106 
 515      11
 516 1069 17D5AE2C 		.ascii	"\027\325\256,\260\316\265c\325D\265\254\311c\013~\251"
 516      B0CEB563 
 516      D544B5AC 
 516      C9630B7E 
 516      A9
 517 107a 309BE27A 		.ascii	"0\233\342z\252\224\254\325%\342\0219^\035\231\246\312"
 517      AA94ACD5 
 517      25E21139 
 517      5E1D99A6 
 517      CA
 518 108b 350DE073 		.ascii	"5\015\340s\372\004\231_\2350\374\207Fb\212\020\005Q"
 518      FA04995F 
 518      9D30FC87 
 518      46628A10 
ARM GAS  /tmp/ccsGAlip.s 			page 42


 518      0551
 519 109d B9C92601 		.ascii	"\271\311&\001\242^\362\277';\343="
 519      A25EF2BF 
 519      273BE33D 
 520              		.text
 521              		.section	.gnu.lto_.symtab.83567f3932ecfd88,"",%progbits
 522 0000 74657374 		.ascii	"test_heap\000\000\000\000\000\000\000\000\000\000\000"
 522      5F686561 
 522      70000000 
 522      00000000 
 522      00000000 
 523 0014 00CA0100 		.ascii	"\000\312\001\000\000test_sequence_011\000\000\000\000"
 523      00746573 
 523      745F7365 
 523      7175656E 
 523      63655F30 
 524 002e 00000000 		.ascii	"\000\000\000\000\000\000\000\000\320\001\000\000tes"
 524      00000000 
 524      D0010000 
 524      746573
 525 003d 745F7374 		.ascii	"t_step\000\000\002\000\000\000\000\000\000\000\000\000"
 525      65700000 
 525      02000000 
 525      00000000 
 525      0000
 526 004f CE010000 		.ascii	"\316\001\000\000test_buffer\000\000\002\000\000\000"
 526      74657374 
 526      5F627566 
 526      66657200 
 526      00020000 
 527 0064 00000000 		.ascii	"\000\000\000\000\000\000\314\001\000\000_test_asser"
 527      0000CC01 
 527      00005F74 
 527      6573745F 
 527      61737365 
 528 0079 74000002 		.ascii	"t\000\000\002\000\000\000\000\000\000\000\000\000\254"
 528      00000000 
 528      00000000 
 528      00AC
 529 0087 01000063 		.ascii	"\001\000\000chHeapAllocAligned\000\000\002\000\000\000"
 529      68486561 
 529      70416C6C 
 529      6F63416C 
 529      69676E65 
 530 00a2 00000000 		.ascii	"\000\000\000\000\000\000\264\001\000\000chHeapFree\000"
 530      0000B401 
 530      00006368 
 530      48656170 
 530      46726565 
 531 00b7 00020000 		.ascii	"\000\002\000\000\000\000\000\000\000\000\000\272\001"
 531      00000000 
 531      000000BA 
 531      01
 532 00c4 00006368 		.ascii	"\000\000chHeapStatus\000\000\002\000\000\000\000\000"
 532      48656170 
 532      53746174 
 532      75730000 
ARM GAS  /tmp/ccsGAlip.s 			page 43


 532      02000000 
 533 00da 00000000 		.ascii	"\000\000\000\000\276\001\000\000chHeapObjectInit\000"
 533      BE010000 
 533      63684865 
 533      61704F62 
 533      6A656374 
 534 00f3 00020000 		.ascii	"\000\002\000\000\000\000\000\000\000\000\000\304\001"
 534      00000000 
 534      000000C4 
 534      01
 535 0100 0000     		.ascii	"\000\000"
 536              		.text
 537              		.section	.gnu.lto_.opts,"",%progbits
 538 0000 272D6D63 		.ascii	"'-mcpu=cortex-m3' '-mno-thumb-interwork' '-mthumb' "
 538      70753D63 
 538      6F727465 
 538      782D6D33 
 538      2720272D 
 539 0033 272D6767 		.ascii	"'-ggdb' '-O2' '-fomit-frame-pointer' '-falign-funct"
 539      64622720 
 539      272D4F32 
 539      2720272D 
 539      666F6D69 
 540 0066 696F6E73 		.ascii	"ions=16' '-ffunction-sections' '-fdata-sections' '-"
 540      3D313627 
 540      20272D66 
 540      66756E63 
 540      74696F6E 
 541 0099 666E6F2D 		.ascii	"fno-common' '-flto'\000"
 541      636F6D6D 
 541      6F6E2720 
 541      272D666C 
 541      746F2700 
 542              		.text
 543              		.cfi_sections	.debug_frame
 544              		.section	.text.test_011_002_execute,"ax",%progbits
 545              		.align	2
 546              		.p2align 4,,15
 547              		.thumb
 548              		.thumb_func
 549              		.type	test_011_002_execute, %function
 550              	test_011_002_execute:
 551              	.LFB221:
 552              		.file 1 "../test/rt/source/test/test_sequence_011.c"
 553              		.loc 1 230 0
 554              		.cfi_startproc
 555              		@ args = 0, pretend = 0, frame = 8
 556              		@ frame_needed = 0, uses_anonymous_args = 0
 557 0000 70B5     		push	{r4, r5, r6, lr}
 558              		.cfi_def_cfa_offset 16
 559              		.cfi_offset 4, -16
 560              		.cfi_offset 5, -12
 561              		.cfi_offset 6, -8
 562              		.cfi_offset 14, -4
 563              		.loc 1 236 0
 564 0002 40F20004 		movw	r4, #:lower16:test_step
 565              		.loc 1 230 0
ARM GAS  /tmp/ccsGAlip.s 			page 44


 566 0006 82B0     		sub	sp, sp, #8
 567              		.cfi_def_cfa_offset 24
 568              		.loc 1 236 0
 569 0008 0123     		movs	r3, #1
 570              		.loc 1 238 0
 571 000a 6946     		mov	r1, sp
 572 000c 01AA     		add	r2, sp, #4
 573              		.loc 1 236 0
 574 000e C0F20004 		movt	r4, #:upper16:test_step
 575              		.loc 1 238 0
 576 0012 0020     		movs	r0, #0
 577              		.loc 1 236 0
 578 0014 2360     		str	r3, [r4]
 579              		.loc 1 238 0
 580 0016 FFF7FEFF 		bl	chHeapStatus
 581              	.LVL0:
 582              	.LBB37:
 583              	.LBB38:
 584              		.file 2 "../os/common/oslib/include/chheap.h"
 585              		.loc 2 157 0
 586 001a 40F20000 		movw	r0, #:lower16:.LANCHOR0
 587 001e 1021     		movs	r1, #16
 588 0020 0822     		movs	r2, #8
 589 0022 C0F20000 		movt	r0, #:upper16:.LANCHOR0
 590 0026 FFF7FEFF 		bl	chHeapAllocAligned
 591              	.LVL1:
 592              	.LBE38:
 593              	.LBE37:
 594              		.loc 1 240 0
 595 002a 40F20001 		movw	r1, #:lower16:.LC0
 596 002e 0646     		mov	r6, r0
 597 0030 0030     		adds	r0, r0, #0
 598 0032 18BF     		it	ne
 599 0034 0120     		movne	r0, #1
 600 0036 C0F20001 		movt	r1, #:upper16:.LC0
 601 003a FFF7FEFF 		bl	_test_assert
 602              	.LVL2:
 603 003e 0546     		mov	r5, r0
 604 0040 08B1     		cbz	r0, .L5
 605              		.loc 1 250 0
 606 0042 02B0     		add	sp, sp, #8
 607              		@ sp needed
 608 0044 70BD     		pop	{r4, r5, r6, pc}
 609              	.L5:
 610              		.loc 1 241 0
 611 0046 3046     		mov	r0, r6
 612 0048 FFF7FEFF 		bl	chHeapFree
 613              	.LVL3:
 614              		.loc 1 245 0
 615 004c 0223     		movs	r3, #2
 616              	.LBB39:
 617              	.LBB40:
 618              		.loc 2 157 0
 619 004e 0822     		movs	r2, #8
 620 0050 2846     		mov	r0, r5
 621 0052 6FF0FF01 		mvn	r1, #255
 622              	.LBE40:
ARM GAS  /tmp/ccsGAlip.s 			page 45


 623              	.LBE39:
 624              		.loc 1 245 0
 625 0056 2360     		str	r3, [r4]
 626              	.LVL4:
 627              	.LBB42:
 628              	.LBB41:
 629              		.loc 2 157 0
 630 0058 FFF7FEFF 		bl	chHeapAllocAligned
 631              	.LVL5:
 632              	.LBE41:
 633              	.LBE42:
 634              		.loc 1 248 0
 635 005c 40F20001 		movw	r1, #:lower16:.LC1
 636 0060 D0F10100 		rsbs	r0, r0, #1
 637 0064 38BF     		it	cc
 638 0066 0020     		movcc	r0, #0
 639 0068 C0F20001 		movt	r1, #:upper16:.LC1
 640 006c FFF7FEFF 		bl	_test_assert
 641              	.LVL6:
 642              		.loc 1 250 0
 643 0070 02B0     		add	sp, sp, #8
 644              		@ sp needed
 645 0072 70BD     		pop	{r4, r5, r6, pc}
 646              		.cfi_endproc
 647              	.LFE221:
 648              		.size	test_011_002_execute, .-test_011_002_execute
 649 0074 AFF30080 		.section	.text.test_011_001_execute,"ax",%progbits
 649      AFF30080 
 649      AFF30080 
 650              		.align	2
 651              		.p2align 4,,15
 652              		.thumb
 653              		.thumb_func
 654              		.type	test_011_001_execute, %function
 655              	test_011_001_execute:
 656              	.LFB220:
 657              		.loc 1 94 0
 658              		.cfi_startproc
 659              		@ args = 0, pretend = 0, frame = 16
 660              		@ frame_needed = 0, uses_anonymous_args = 0
 661 0000 2DE9F041 		push	{r4, r5, r6, r7, r8, lr}
 662              		.cfi_def_cfa_offset 24
 663              		.cfi_offset 4, -24
 664              		.cfi_offset 5, -20
 665              		.cfi_offset 6, -16
 666              		.cfi_offset 7, -12
 667              		.cfi_offset 8, -8
 668              		.cfi_offset 14, -4
 669              		.loc 1 102 0
 670 0004 40F20000 		movw	r0, #:lower16:.LANCHOR0
 671              		.loc 1 94 0
 672 0008 84B0     		sub	sp, sp, #16
 673              		.cfi_def_cfa_offset 40
 674              		.loc 1 100 0
 675 000a 40F20004 		movw	r4, #:lower16:test_step
 676 000e 0123     		movs	r3, #1
 677              		.loc 1 102 0
ARM GAS  /tmp/ccsGAlip.s 			page 46


 678 0010 01A9     		add	r1, sp, #4
 679              		.loc 1 100 0
 680 0012 C0F20004 		movt	r4, #:upper16:test_step
 681              		.loc 1 102 0
 682 0016 C0F20000 		movt	r0, #:upper16:.LANCHOR0
 683 001a 0022     		movs	r2, #0
 684              		.loc 1 100 0
 685 001c 2360     		str	r3, [r4]
 686              		.loc 1 102 0
 687 001e FFF7FEFF 		bl	chHeapStatus
 688              	.LVL7:
 689 0022 B0F1010E 		subs	lr, r0, #1
 690 0026 DEF10000 		rsbs	r0, lr, #0
 691 002a 40F20001 		movw	r1, #:lower16:.LC2
 692 002e 50EB0E00 		adcs	r0, r0, lr
 693 0032 C0F20001 		movt	r1, #:upper16:.LC2
 694 0036 FFF7FEFF 		bl	_test_assert
 695              	.LVL8:
 696 003a 10B1     		cbz	r0, .L14
 697              	.L6:
 698              		.loc 1 207 0
 699 003c 04B0     		add	sp, sp, #16
 700              		@ sp needed
 701 003e BDE8F081 		pop	{r4, r5, r6, r7, r8, pc}
 702              	.L14:
 703              	.LBB43:
 704              	.LBB44:
 705              		.loc 2 157 0
 706 0042 40F20000 		movw	r0, #:lower16:.LANCHOR0
 707              	.LBE44:
 708              	.LBE43:
 709              		.loc 1 107 0
 710 0046 0223     		movs	r3, #2
 711              	.LBB47:
 712              	.LBB45:
 713              		.loc 2 157 0
 714 0048 4FF44D61 		mov	r1, #3280
 715 004c C0F20000 		movt	r0, #:upper16:.LANCHOR0
 716 0050 0822     		movs	r2, #8
 717              	.LBE45:
 718              	.LBE47:
 719              		.loc 1 107 0
 720 0052 2360     		str	r3, [r4]
 721              	.LVL9:
 722              	.LBB48:
 723              	.LBB46:
 724              		.loc 2 157 0
 725 0054 FFF7FEFF 		bl	chHeapAllocAligned
 726              	.LVL10:
 727              	.LBE46:
 728              	.LBE48:
 729              		.loc 1 110 0
 730 0058 40F20001 		movw	r1, #:lower16:.LC1
 731 005c D0F10100 		rsbs	r0, r0, #1
 732 0060 38BF     		it	cc
 733 0062 0020     		movcc	r0, #0
 734 0064 C0F20001 		movt	r1, #:upper16:.LC1
ARM GAS  /tmp/ccsGAlip.s 			page 47


 735 0068 FFF7FEFF 		bl	_test_assert
 736              	.LVL11:
 737 006c 0028     		cmp	r0, #0
 738 006e E5D1     		bne	.L6
 739              	.LBB49:
 740              	.LBB50:
 741              		.loc 2 157 0
 742 0070 40F20000 		movw	r0, #:lower16:.LANCHOR0
 743              	.LBE50:
 744              	.LBE49:
 745              		.loc 1 115 0
 746 0074 0323     		movs	r3, #3
 747              	.LBB53:
 748              	.LBB51:
 749              		.loc 2 157 0
 750 0076 1021     		movs	r1, #16
 751 0078 C0F20000 		movt	r0, #:upper16:.LANCHOR0
 752 007c 0822     		movs	r2, #8
 753              	.LBE51:
 754              	.LBE53:
 755              		.loc 1 115 0
 756 007e 2360     		str	r3, [r4]
 757              	.LVL12:
 758              	.LBB54:
 759              	.LBB52:
 760              		.loc 2 157 0
 761 0080 FFF7FEFF 		bl	chHeapAllocAligned
 762              	.LVL13:
 763              	.LBE52:
 764              	.LBE54:
 765              		.loc 1 118 0
 766 0084 40F20001 		movw	r1, #:lower16:.LC0
 767 0088 0546     		mov	r5, r0
 768 008a 0030     		adds	r0, r0, #0
 769 008c 18BF     		it	ne
 770 008e 0120     		movne	r0, #1
 771 0090 C0F20001 		movt	r1, #:upper16:.LC0
 772 0094 FFF7FEFF 		bl	_test_assert
 773              	.LVL14:
 774 0098 0028     		cmp	r0, #0
 775 009a CFD1     		bne	.L6
 776              		.loc 1 119 0
 777 009c 2846     		mov	r0, r5
 778 009e FFF7FEFF 		bl	chHeapFree
 779              	.LVL15:
 780              	.LBB55:
 781              		.loc 1 128 0
 782 00a2 40F20000 		movw	r0, #:lower16:.LANCHOR0
 783              	.LBE55:
 784              		.loc 1 124 0
 785 00a6 0423     		movs	r3, #4
 786              	.LBB56:
 787              		.loc 1 128 0
 788 00a8 02A9     		add	r1, sp, #8
 789 00aa C0F20000 		movt	r0, #:upper16:.LANCHOR0
 790 00ae 03AA     		add	r2, sp, #12
 791              	.LBE56:
ARM GAS  /tmp/ccsGAlip.s 			page 48


 792              		.loc 1 124 0
 793 00b0 2360     		str	r3, [r4]
 794              	.LBB57:
 795              		.loc 1 128 0
 796 00b2 FFF7FEFF 		bl	chHeapStatus
 797              	.LVL16:
 798              		.loc 1 129 0
 799 00b6 471E     		subs	r7, r0, #1
 800              		.loc 1 128 0
 801 00b8 0346     		mov	r3, r0
 802              		.loc 1 129 0
 803 00ba 40F20001 		movw	r1, #:lower16:.LC3
 804 00be 7842     		rsbs	r0, r7, #0
 805 00c0 7841     		adcs	r0, r0, r7
 806 00c2 C0F20001 		movt	r1, #:upper16:.LC3
 807              		.loc 1 128 0
 808 00c6 0093     		str	r3, [sp]
 809              		.loc 1 129 0
 810 00c8 FFF7FEFF 		bl	_test_assert
 811              	.LVL17:
 812 00cc 0028     		cmp	r0, #0
 813 00ce B5D1     		bne	.L6
 814              		.loc 1 130 0
 815 00d0 0298     		ldr	r0, [sp, #8]
 816 00d2 40F20001 		movw	r1, #:lower16:.LC4
 817 00d6 0F28     		cmp	r0, #15
 818 00d8 94BF     		ite	ls
 819 00da 0020     		movls	r0, #0
 820 00dc 0120     		movhi	r0, #1
 821 00de C0F20001 		movt	r1, #:upper16:.LC4
 822 00e2 FFF7FEFF 		bl	_test_assert
 823              	.LVL18:
 824 00e6 0028     		cmp	r0, #0
 825 00e8 A8D1     		bne	.L6
 826              		.loc 1 131 0
 827 00ea 0298     		ldr	r0, [sp, #8]
 828 00ec 039B     		ldr	r3, [sp, #12]
 829 00ee 40F20001 		movw	r1, #:lower16:.LC4
 830 00f2 C61A     		subs	r6, r0, r3
 831 00f4 7042     		rsbs	r0, r6, #0
 832 00f6 7041     		adcs	r0, r0, r6
 833 00f8 C0F20001 		movt	r1, #:upper16:.LC4
 834 00fc FFF7FEFF 		bl	_test_assert
 835              	.LVL19:
 836 0100 0546     		mov	r5, r0
 837 0102 0028     		cmp	r0, #0
 838 0104 9AD1     		bne	.L6
 839              	.LBE57:
 840              	.LBB58:
 841              	.LBB59:
 842              		.loc 2 157 0
 843 0106 40F20000 		movw	r0, #:lower16:.LANCHOR0
 844              	.LBE59:
 845              	.LBE58:
 846              		.loc 1 135 0
 847 010a 0523     		movs	r3, #5
 848              	.LBB62:
ARM GAS  /tmp/ccsGAlip.s 			page 49


 849              	.LBB60:
 850              		.loc 2 157 0
 851 010c 1021     		movs	r1, #16
 852 010e 0822     		movs	r2, #8
 853 0110 C0F20000 		movt	r0, #:upper16:.LANCHOR0
 854              	.LBE60:
 855              	.LBE62:
 856              		.loc 1 135 0
 857 0114 2360     		str	r3, [r4]
 858              	.LVL20:
 859              	.LBB63:
 860              	.LBB61:
 861              		.loc 2 157 0
 862 0116 FFF7FEFF 		bl	chHeapAllocAligned
 863              	.LVL21:
 864 011a 0746     		mov	r7, r0
 865              	.LVL22:
 866              	.LBE61:
 867              	.LBE63:
 868              	.LBB64:
 869              	.LBB65:
 870 011c 40F20000 		movw	r0, #:lower16:.LANCHOR0
 871 0120 1021     		movs	r1, #16
 872 0122 0822     		movs	r2, #8
 873 0124 C0F20000 		movt	r0, #:upper16:.LANCHOR0
 874 0128 FFF7FEFF 		bl	chHeapAllocAligned
 875              	.LVL23:
 876 012c 0646     		mov	r6, r0
 877              	.LVL24:
 878              	.LBE65:
 879              	.LBE64:
 880              	.LBB66:
 881              	.LBB67:
 882 012e 40F20000 		movw	r0, #:lower16:.LANCHOR0
 883 0132 1021     		movs	r1, #16
 884 0134 0822     		movs	r2, #8
 885 0136 C0F20000 		movt	r0, #:upper16:.LANCHOR0
 886 013a FFF7FEFF 		bl	chHeapAllocAligned
 887              	.LVL25:
 888 013e 8046     		mov	r8, r0
 889              	.LBE67:
 890              	.LBE66:
 891              		.loc 1 140 0
 892 0140 3846     		mov	r0, r7
 893 0142 FFF7FEFF 		bl	chHeapFree
 894              	.LVL26:
 895              		.loc 1 141 0
 896 0146 3046     		mov	r0, r6
 897 0148 FFF7FEFF 		bl	chHeapFree
 898              	.LVL27:
 899              		.loc 1 142 0
 900 014c 4046     		mov	r0, r8
 901 014e FFF7FEFF 		bl	chHeapFree
 902              	.LVL28:
 903              		.loc 1 143 0
 904 0152 40F20000 		movw	r0, #:lower16:.LANCHOR0
 905 0156 2A46     		mov	r2, r5
ARM GAS  /tmp/ccsGAlip.s 			page 50


 906 0158 6946     		mov	r1, sp
 907 015a C0F20000 		movt	r0, #:upper16:.LANCHOR0
 908 015e FFF7FEFF 		bl	chHeapStatus
 909              	.LVL29:
 910 0162 451E     		subs	r5, r0, #1
 911 0164 6842     		rsbs	r0, r5, #0
 912 0166 40F20001 		movw	r1, #:lower16:.LC2
 913 016a 6841     		adcs	r0, r0, r5
 914 016c C0F20001 		movt	r1, #:upper16:.LC2
 915 0170 FFF7FEFF 		bl	_test_assert
 916              	.LVL30:
 917 0174 0546     		mov	r5, r0
 918 0176 0028     		cmp	r0, #0
 919 0178 7FF460AF 		bne	.L6
 920              	.LBB68:
 921              	.LBB69:
 922              		.loc 2 157 0
 923 017c 40F20000 		movw	r0, #:lower16:.LANCHOR0
 924              	.LBE69:
 925              	.LBE68:
 926              		.loc 1 147 0
 927 0180 0623     		movs	r3, #6
 928              	.LBB72:
 929              	.LBB70:
 930              		.loc 2 157 0
 931 0182 1021     		movs	r1, #16
 932 0184 0822     		movs	r2, #8
 933 0186 C0F20000 		movt	r0, #:upper16:.LANCHOR0
 934              	.LBE70:
 935              	.LBE72:
 936              		.loc 1 147 0
 937 018a 2360     		str	r3, [r4]
 938              	.LVL31:
 939              	.LBB73:
 940              	.LBB71:
 941              		.loc 2 157 0
 942 018c FFF7FEFF 		bl	chHeapAllocAligned
 943              	.LVL32:
 944 0190 0646     		mov	r6, r0
 945              	.LVL33:
 946              	.LBE71:
 947              	.LBE73:
 948              	.LBB74:
 949              	.LBB75:
 950 0192 40F20000 		movw	r0, #:lower16:.LANCHOR0
 951 0196 1021     		movs	r1, #16
 952 0198 0822     		movs	r2, #8
 953 019a C0F20000 		movt	r0, #:upper16:.LANCHOR0
 954 019e FFF7FEFF 		bl	chHeapAllocAligned
 955              	.LVL34:
 956 01a2 0746     		mov	r7, r0
 957              	.LVL35:
 958              	.LBE75:
 959              	.LBE74:
 960              	.LBB76:
 961              	.LBB77:
 962 01a4 40F20000 		movw	r0, #:lower16:.LANCHOR0
ARM GAS  /tmp/ccsGAlip.s 			page 51


 963 01a8 1021     		movs	r1, #16
 964 01aa 0822     		movs	r2, #8
 965 01ac C0F20000 		movt	r0, #:upper16:.LANCHOR0
 966 01b0 FFF7FEFF 		bl	chHeapAllocAligned
 967              	.LVL36:
 968              	.LBE77:
 969              	.LBE76:
 970              		.loc 1 152 0
 971 01b4 FFF7FEFF 		bl	chHeapFree
 972              	.LVL37:
 973              		.loc 1 153 0
 974 01b8 3846     		mov	r0, r7
 975 01ba FFF7FEFF 		bl	chHeapFree
 976              	.LVL38:
 977              		.loc 1 154 0
 978 01be 3046     		mov	r0, r6
 979 01c0 FFF7FEFF 		bl	chHeapFree
 980              	.LVL39:
 981              		.loc 1 155 0
 982 01c4 40F20000 		movw	r0, #:lower16:.LANCHOR0
 983 01c8 2A46     		mov	r2, r5
 984 01ca 6946     		mov	r1, sp
 985 01cc C0F20000 		movt	r0, #:upper16:.LANCHOR0
 986 01d0 FFF7FEFF 		bl	chHeapStatus
 987              	.LVL40:
 988 01d4 421E     		subs	r2, r0, #1
 989 01d6 5042     		rsbs	r0, r2, #0
 990 01d8 40F20001 		movw	r1, #:lower16:.LC2
 991 01dc 5041     		adcs	r0, r0, r2
 992 01de C0F20001 		movt	r1, #:upper16:.LC2
 993 01e2 FFF7FEFF 		bl	_test_assert
 994              	.LVL41:
 995 01e6 0546     		mov	r5, r0
 996 01e8 0028     		cmp	r0, #0
 997 01ea 7FF427AF 		bne	.L6
 998              	.LBB78:
 999              	.LBB79:
 1000              		.loc 2 157 0
 1001 01ee 40F20000 		movw	r0, #:lower16:.LANCHOR0
 1002              	.LBE79:
 1003              	.LBE78:
 1004              		.loc 1 160 0
 1005 01f2 0723     		movs	r3, #7
 1006              	.LBB82:
 1007              	.LBB80:
 1008              		.loc 2 157 0
 1009 01f4 1121     		movs	r1, #17
 1010 01f6 0822     		movs	r2, #8
 1011 01f8 C0F20000 		movt	r0, #:upper16:.LANCHOR0
 1012              	.LBE80:
 1013              	.LBE82:
 1014              		.loc 1 160 0
 1015 01fc 2360     		str	r3, [r4]
 1016              	.LVL42:
 1017              	.LBB83:
 1018              	.LBB81:
 1019              		.loc 2 157 0
ARM GAS  /tmp/ccsGAlip.s 			page 52


 1020 01fe FFF7FEFF 		bl	chHeapAllocAligned
 1021              	.LVL43:
 1022 0202 0646     		mov	r6, r0
 1023              	.LVL44:
 1024              	.LBE81:
 1025              	.LBE83:
 1026              	.LBB84:
 1027              	.LBB85:
 1028 0204 40F20000 		movw	r0, #:lower16:.LANCHOR0
 1029 0208 1021     		movs	r1, #16
 1030 020a 0822     		movs	r2, #8
 1031 020c C0F20000 		movt	r0, #:upper16:.LANCHOR0
 1032 0210 FFF7FEFF 		bl	chHeapAllocAligned
 1033              	.LVL45:
 1034 0214 0746     		mov	r7, r0
 1035              	.LBE85:
 1036              	.LBE84:
 1037              		.loc 1 164 0
 1038 0216 3046     		mov	r0, r6
 1039 0218 FFF7FEFF 		bl	chHeapFree
 1040              	.LVL46:
 1041              		.loc 1 165 0
 1042 021c 40F20000 		movw	r0, #:lower16:.LANCHOR0
 1043 0220 2A46     		mov	r2, r5
 1044 0222 6946     		mov	r1, sp
 1045 0224 C0F20000 		movt	r0, #:upper16:.LANCHOR0
 1046 0228 FFF7FEFF 		bl	chHeapStatus
 1047              	.LVL47:
 1048 022c 831E     		subs	r3, r0, #2
 1049 022e 5842     		rsbs	r0, r3, #0
 1050 0230 40F20001 		movw	r1, #:lower16:.LC5
 1051 0234 5841     		adcs	r0, r0, r3
 1052 0236 C0F20001 		movt	r1, #:upper16:.LC5
 1053 023a FFF7FEFF 		bl	_test_assert
 1054              	.LVL48:
 1055 023e 0546     		mov	r5, r0
 1056 0240 0028     		cmp	r0, #0
 1057 0242 7FF4FBAE 		bne	.L6
 1058              	.LVL49:
 1059              	.LBB86:
 1060              	.LBB87:
 1061              		.loc 2 157 0
 1062 0246 40F20000 		movw	r0, #:lower16:.LANCHOR0
 1063 024a 1021     		movs	r1, #16
 1064 024c 0822     		movs	r2, #8
 1065 024e C0F20000 		movt	r0, #:upper16:.LANCHOR0
 1066 0252 FFF7FEFF 		bl	chHeapAllocAligned
 1067              	.LVL50:
 1068 0256 0646     		mov	r6, r0
 1069              	.LBE87:
 1070              	.LBE86:
 1071              		.loc 1 169 0
 1072 0258 40F20000 		movw	r0, #:lower16:.LANCHOR0
 1073 025c 2A46     		mov	r2, r5
 1074 025e C0F20000 		movt	r0, #:upper16:.LANCHOR0
 1075 0262 6946     		mov	r1, sp
 1076 0264 FFF7FEFF 		bl	chHeapStatus
ARM GAS  /tmp/ccsGAlip.s 			page 53


 1077              	.LVL51:
 1078 0268 0128     		cmp	r0, #1
 1079 026a 00F0E480 		beq	.L13
 1080              		.loc 1 169 0 is_stmt 0 discriminator 2
 1081 026e 40F20000 		movw	r0, #:lower16:.LANCHOR0
 1082 0272 C0F20000 		movt	r0, #:upper16:.LANCHOR0
 1083 0276 6946     		mov	r1, sp
 1084 0278 0022     		movs	r2, #0
 1085 027a FFF7FEFF 		bl	chHeapStatus
 1086              	.LVL52:
 1087 027e B0F10208 		subs	r8, r0, #2
 1088 0282 D8F10000 		rsbs	r0, r8, #0
 1089 0286 50EB0800 		adcs	r0, r0, r8
 1090              	.L11:
 1091              		.loc 1 169 0 discriminator 4
 1092 028a 40F20001 		movw	r1, #:lower16:.LC2
 1093 028e C0F20001 		movt	r1, #:upper16:.LC2
 1094 0292 FFF7FEFF 		bl	_test_assert
 1095              	.LVL53:
 1096 0296 0546     		mov	r5, r0
 1097 0298 0028     		cmp	r0, #0
 1098 029a 7FF4CFAE 		bne	.L6
 1099              		.loc 1 171 0 is_stmt 1
 1100 029e 3846     		mov	r0, r7
 1101 02a0 FFF7FEFF 		bl	chHeapFree
 1102              	.LVL54:
 1103              		.loc 1 172 0
 1104 02a4 3046     		mov	r0, r6
 1105 02a6 FFF7FEFF 		bl	chHeapFree
 1106              	.LVL55:
 1107              		.loc 1 173 0
 1108 02aa 40F20000 		movw	r0, #:lower16:.LANCHOR0
 1109 02ae 2A46     		mov	r2, r5
 1110 02b0 6946     		mov	r1, sp
 1111 02b2 C0F20000 		movt	r0, #:upper16:.LANCHOR0
 1112 02b6 FFF7FEFF 		bl	chHeapStatus
 1113              	.LVL56:
 1114 02ba B0F1010C 		subs	ip, r0, #1
 1115 02be DCF10000 		rsbs	r0, ip, #0
 1116 02c2 40F20001 		movw	r1, #:lower16:.LC2
 1117 02c6 50EB0C00 		adcs	r0, r0, ip
 1118 02ca C0F20001 		movt	r1, #:upper16:.LC2
 1119 02ce FFF7FEFF 		bl	_test_assert
 1120              	.LVL57:
 1121 02d2 0646     		mov	r6, r0
 1122 02d4 0028     		cmp	r0, #0
 1123 02d6 7FF4B1AE 		bne	.L6
 1124              		.loc 1 178 0
 1125 02da 0825     		movs	r5, #8
 1126              	.LBB88:
 1127              	.LBB89:
 1128              		.loc 2 157 0
 1129 02dc 40F20000 		movw	r0, #:lower16:.LANCHOR0
 1130 02e0 2A46     		mov	r2, r5
 1131 02e2 1021     		movs	r1, #16
 1132 02e4 C0F20000 		movt	r0, #:upper16:.LANCHOR0
 1133              	.LBE89:
ARM GAS  /tmp/ccsGAlip.s 			page 54


 1134              	.LBE88:
 1135              		.loc 1 178 0
 1136 02e8 2560     		str	r5, [r4]
 1137              	.LVL58:
 1138              	.LBB91:
 1139              	.LBB90:
 1140              		.loc 2 157 0
 1141 02ea FFF7FEFF 		bl	chHeapAllocAligned
 1142              	.LVL59:
 1143 02ee 0446     		mov	r4, r0
 1144              	.LVL60:
 1145              	.LBE90:
 1146              	.LBE91:
 1147              	.LBB92:
 1148              	.LBB93:
 1149 02f0 40F20000 		movw	r0, #:lower16:.LANCHOR0
 1150 02f4 2A46     		mov	r2, r5
 1151 02f6 1021     		movs	r1, #16
 1152 02f8 C0F20000 		movt	r0, #:upper16:.LANCHOR0
 1153 02fc FFF7FEFF 		bl	chHeapAllocAligned
 1154              	.LVL61:
 1155 0300 0746     		mov	r7, r0
 1156              	.LBE93:
 1157              	.LBE92:
 1158              		.loc 1 182 0
 1159 0302 2046     		mov	r0, r4
 1160 0304 FFF7FEFF 		bl	chHeapFree
 1161              	.LVL62:
 1162              		.loc 1 183 0
 1163 0308 40F20000 		movw	r0, #:lower16:.LANCHOR0
 1164 030c 3246     		mov	r2, r6
 1165 030e 6946     		mov	r1, sp
 1166 0310 C0F20000 		movt	r0, #:upper16:.LANCHOR0
 1167 0314 FFF7FEFF 		bl	chHeapStatus
 1168              	.LVL63:
 1169 0318 B0F1020E 		subs	lr, r0, #2
 1170 031c DEF10000 		rsbs	r0, lr, #0
 1171 0320 40F20001 		movw	r1, #:lower16:.LC5
 1172 0324 50EB0E00 		adcs	r0, r0, lr
 1173 0328 C0F20001 		movt	r1, #:upper16:.LC5
 1174 032c FFF7FEFF 		bl	_test_assert
 1175              	.LVL64:
 1176              		.loc 1 178 0
 1177 0330 40F20004 		movw	r4, #:lower16:test_step
 1178              		.loc 1 183 0
 1179 0334 0646     		mov	r6, r0
 1180              		.loc 1 178 0
 1181 0336 C0F20004 		movt	r4, #:upper16:test_step
 1182              		.loc 1 183 0
 1183 033a 0028     		cmp	r0, #0
 1184 033c 7FF47EAE 		bne	.L6
 1185              	.LVL65:
 1186              	.LBB94:
 1187              	.LBB95:
 1188              		.loc 2 157 0
 1189 0340 40F20000 		movw	r0, #:lower16:.LANCHOR0
 1190 0344 2021     		movs	r1, #32
ARM GAS  /tmp/ccsGAlip.s 			page 55


 1191 0346 2A46     		mov	r2, r5
 1192 0348 C0F20000 		movt	r0, #:upper16:.LANCHOR0
 1193 034c FFF7FEFF 		bl	chHeapAllocAligned
 1194              	.LVL66:
 1195              	.LBE95:
 1196              	.LBE94:
 1197              		.loc 1 185 0
 1198 0350 FFF7FEFF 		bl	chHeapFree
 1199              	.LVL67:
 1200              		.loc 1 186 0
 1201 0354 3846     		mov	r0, r7
 1202 0356 FFF7FEFF 		bl	chHeapFree
 1203              	.LVL68:
 1204              		.loc 1 187 0
 1205 035a 40F20000 		movw	r0, #:lower16:.LANCHOR0
 1206 035e 3246     		mov	r2, r6
 1207 0360 6946     		mov	r1, sp
 1208 0362 C0F20000 		movt	r0, #:upper16:.LANCHOR0
 1209 0366 FFF7FEFF 		bl	chHeapStatus
 1210              	.LVL69:
 1211 036a 461E     		subs	r6, r0, #1
 1212 036c 7042     		rsbs	r0, r6, #0
 1213 036e 40F20001 		movw	r1, #:lower16:.LC2
 1214 0372 7041     		adcs	r0, r0, r6
 1215 0374 C0F20001 		movt	r1, #:upper16:.LC2
 1216 0378 FFF7FEFF 		bl	_test_assert
 1217              	.LVL70:
 1218 037c 0246     		mov	r2, r0
 1219 037e 0028     		cmp	r0, #0
 1220 0380 7FF45CAE 		bne	.L6
 1221              		.loc 1 193 0
 1222 0384 40F20000 		movw	r0, #:lower16:.LANCHOR0
 1223              		.loc 1 191 0
 1224 0388 0923     		movs	r3, #9
 1225              		.loc 1 193 0
 1226 038a 6946     		mov	r1, sp
 1227 038c C0F20000 		movt	r0, #:upper16:.LANCHOR0
 1228              		.loc 1 191 0
 1229 0390 2360     		str	r3, [r4]
 1230              		.loc 1 193 0
 1231 0392 FFF7FEFF 		bl	chHeapStatus
 1232              	.LVL71:
 1233              	.LBB96:
 1234              	.LBB97:
 1235              		.loc 2 157 0
 1236 0396 40F20000 		movw	r0, #:lower16:.LANCHOR0
 1237 039a 2A46     		mov	r2, r5
 1238 039c 0099     		ldr	r1, [sp]
 1239 039e C0F20000 		movt	r0, #:upper16:.LANCHOR0
 1240 03a2 FFF7FEFF 		bl	chHeapAllocAligned
 1241              	.LVL72:
 1242              	.LBE97:
 1243              	.LBE96:
 1244              		.loc 1 195 0
 1245 03a6 40F20001 		movw	r1, #:lower16:.LC0
 1246 03aa 0646     		mov	r6, r0
 1247 03ac 0030     		adds	r0, r0, #0
ARM GAS  /tmp/ccsGAlip.s 			page 56


 1248 03ae C0F20001 		movt	r1, #:upper16:.LC0
 1249 03b2 18BF     		it	ne
 1250 03b4 0120     		movne	r0, #1
 1251 03b6 FFF7FEFF 		bl	_test_assert
 1252              	.LVL73:
 1253 03ba 0146     		mov	r1, r0
 1254 03bc 0028     		cmp	r0, #0
 1255 03be 7FF43DAE 		bne	.L6
 1256              		.loc 1 196 0
 1257 03c2 40F20000 		movw	r0, #:lower16:.LANCHOR0
 1258 03c6 0A46     		mov	r2, r1
 1259 03c8 C0F20000 		movt	r0, #:upper16:.LANCHOR0
 1260 03cc FFF7FEFF 		bl	chHeapStatus
 1261              	.LVL74:
 1262 03d0 40F20001 		movw	r1, #:lower16:.LC6
 1263 03d4 D0F10100 		rsbs	r0, r0, #1
 1264 03d8 38BF     		it	cc
 1265 03da 0020     		movcc	r0, #0
 1266 03dc C0F20001 		movt	r1, #:upper16:.LC6
 1267 03e0 FFF7FEFF 		bl	_test_assert
 1268              	.LVL75:
 1269 03e4 0546     		mov	r5, r0
 1270 03e6 0028     		cmp	r0, #0
 1271 03e8 7FF428AE 		bne	.L6
 1272              		.loc 1 197 0
 1273 03ec 3046     		mov	r0, r6
 1274 03ee FFF7FEFF 		bl	chHeapFree
 1275              	.LVL76:
 1276              		.loc 1 204 0
 1277 03f2 40F20000 		movw	r0, #:lower16:.LANCHOR0
 1278 03f6 6946     		mov	r1, sp
 1279 03f8 2A46     		mov	r2, r5
 1280              		.loc 1 202 0
 1281 03fa 0A23     		movs	r3, #10
 1282              		.loc 1 204 0
 1283 03fc C0F20000 		movt	r0, #:upper16:.LANCHOR0
 1284              		.loc 1 202 0
 1285 0400 2360     		str	r3, [r4]
 1286              		.loc 1 204 0
 1287 0402 FFF7FEFF 		bl	chHeapStatus
 1288              	.LVL77:
 1289 0406 421E     		subs	r2, r0, #1
 1290 0408 5042     		rsbs	r0, r2, #0
 1291 040a 40F20001 		movw	r1, #:lower16:.LC2
 1292 040e 5041     		adcs	r0, r0, r2
 1293 0410 C0F20001 		movt	r1, #:upper16:.LC2
 1294 0414 FFF7FEFF 		bl	_test_assert
 1295              	.LVL78:
 1296 0418 0028     		cmp	r0, #0
 1297 041a 7FF40FAE 		bne	.L6
 1298              		.loc 1 205 0
 1299 041e 9DE80900 		ldmia	sp, {r0, r3}
 1300 0422 C31A     		subs	r3, r0, r3
 1301 0424 5842     		rsbs	r0, r3, #0
 1302 0426 40F20001 		movw	r1, #:lower16:.LC7
 1303 042a 5841     		adcs	r0, r0, r3
 1304 042c C0F20001 		movt	r1, #:upper16:.LC7
ARM GAS  /tmp/ccsGAlip.s 			page 57


 1305 0430 FFF7FEFF 		bl	_test_assert
 1306              	.LVL79:
 1307 0434 02E6     		b	.L6
 1308              	.LVL80:
 1309              	.L13:
 1310              		.loc 1 169 0
 1311 0436 0120     		movs	r0, #1
 1312 0438 27E7     		b	.L11
 1313              		.cfi_endproc
 1314              	.LFE220:
 1315              		.size	test_011_001_execute, .-test_011_001_execute
 1316              		.section	.text.test_011_001_setup,"ax",%progbits
 1317              		.align	2
 1318              		.p2align 4,,15
 1319              		.thumb
 1320              		.thumb_func
 1321              		.type	test_011_001_setup, %function
 1322              	test_011_001_setup:
 1323              	.LFB219:
 1324              		.loc 1 90 0
 1325              		.cfi_startproc
 1326              		@ args = 0, pretend = 0, frame = 0
 1327              		@ frame_needed = 0, uses_anonymous_args = 0
 1328              		@ link register save eliminated.
 1329              		.loc 1 91 0
 1330 0000 40F20000 		movw	r0, #:lower16:.LANCHOR0
 1331 0004 40F20001 		movw	r1, #:lower16:test_buffer
 1332 0008 C0F20000 		movt	r0, #:upper16:.LANCHOR0
 1333 000c C0F20001 		movt	r1, #:upper16:test_buffer
 1334 0010 4FF4CD62 		mov	r2, #1640
 1335 0014 FFF7FEBF 		b	chHeapObjectInit
 1336              	.LVL81:
 1337              		.cfi_endproc
 1338              	.LFE219:
 1339              		.size	test_011_001_setup, .-test_011_001_setup
 1340              		.global	test_sequence_011
 1341              		.global	test_heap
 1342 0018 AFF30080 		.section	.rodata.test_011_002,"a",%progbits
 1342      AFF30080 
 1343              		.align	2
 1344              		.type	test_011_002, %object
 1345              		.size	test_011_002, 16
 1346              	test_011_002:
 1347 0000 94000000 		.word	.LC8
 1348 0004 00000000 		.word	0
 1349 0008 00000000 		.word	0
 1350 000c 00000000 		.word	test_011_002_execute
 1351              		.section	.rodata.test_sequence_011,"a",%progbits
 1352              		.align	2
 1353              		.type	test_sequence_011, %object
 1354              		.size	test_sequence_011, 12
 1355              	test_sequence_011:
 1356 0000 00000000 		.word	test_011_001
 1357 0004 00000000 		.word	test_011_002
 1358 0008 00000000 		.word	0
 1359              		.section	.rodata.str1.4,"aMS",%progbits,1
 1360              		.align	2
ARM GAS  /tmp/ccsGAlip.s 			page 58


 1361              	.LC0:
 1362 0000 616C6C6F 		.ascii	"allocation failed\000"
 1362      63617469 
 1362      6F6E2066 
 1362      61696C65 
 1362      6400
 1363 0012 0000     		.space	2
 1364              	.LC1:
 1365 0014 616C6C6F 		.ascii	"allocation not failed\000"
 1365      63617469 
 1365      6F6E206E 
 1365      6F742066 
 1365      61696C65 
 1366 002a 0000     		.space	2
 1367              	.LC2:
 1368 002c 68656170 		.ascii	"heap fragmented\000"
 1368      20667261 
 1368      676D656E 
 1368      74656400 
 1369              	.LC3:
 1370 003c 6D697373 		.ascii	"missing free block\000"
 1370      696E6720 
 1370      66726565 
 1370      20626C6F 
 1370      636B00
 1371 004f 00       		.space	1
 1372              	.LC4:
 1373 0050 756E6578 		.ascii	"unexpected heap state\000"
 1373      70656374 
 1373      65642068 
 1373      65617020 
 1373      73746174 
 1374 0066 0000     		.space	2
 1375              	.LC5:
 1376 0068 696E7661 		.ascii	"invalid state\000"
 1376      6C696420 
 1376      73746174 
 1376      6500
 1377 0076 0000     		.space	2
 1378              	.LC6:
 1379 0078 6E6F7420 		.ascii	"not empty\000"
 1379      656D7074 
 1379      7900
 1380 0082 0000     		.space	2
 1381              	.LC7:
 1382 0084 73697A65 		.ascii	"size changed\000"
 1382      20636861 
 1382      6E676564 
 1382      00
 1383 0091 000000   		.space	3
 1384              	.LC8:
 1385 0094 44656661 		.ascii	"Default Heap\000"
 1385      756C7420 
 1385      48656170 
 1385      00
 1386 00a1 000000   		.space	3
 1387              	.LC9:
ARM GAS  /tmp/ccsGAlip.s 			page 59


 1388 00a4 416C6C6F 		.ascii	"Allocation and fragmentation\000"
 1388      63617469 
 1388      6F6E2061 
 1388      6E642066 
 1388      7261676D 
 1389 00c1 000000   		.section	.rodata.test_011_001,"a",%progbits
 1390              		.align	2
 1391              		.type	test_011_001, %object
 1392              		.size	test_011_001, 16
 1393              	test_011_001:
 1394 0000 A4000000 		.word	.LC9
 1395 0004 00000000 		.word	test_011_001_setup
 1396 0008 00000000 		.word	0
 1397 000c 00000000 		.word	test_011_001_execute
 1398              		.section	.bss.test_heap,"aw",%nobits
 1399              		.align	3
 1400              		.set	.LANCHOR0,. + 0
 1401              		.type	test_heap, %object
 1402              		.size	test_heap, 32
 1403              	test_heap:
 1404 0000 00000000 		.space	32
 1404      00000000 
 1404      00000000 
 1404      00000000 
 1404      00000000 
 1405              		.text
 1406              	.Letext0:
 1407              		.file 3 "/usr/lib/gcc/arm-none-eabi/4.8.2/include/stddef.h"
 1408              		.file 4 "/usr/include/newlib/machine/_default_types.h"
 1409              		.file 5 "/usr/include/newlib/stdint.h"
 1410              		.file 6 "../os/common/ports/ARMCMx/compilers/GCC/chtypes.h"
 1411              		.file 7 "../os/rt/include/chsystypes.h"
 1412              		.file 8 "../os/rt/include/chschd.h"
 1413              		.file 9 "../os/common/ports/ARMCMx/chcore.h"
 1414              		.file 10 "../os/common/ports/ARMCMx/chcore_v7m.h"
 1415              		.file 11 "../os/rt/include/chsem.h"
 1416              		.file 12 "../os/rt/include/chmtx.h"
 1417              		.file 13 "../os/common/oslib/include/chmemcore.h"
 1418              		.file 14 "../test/lib/ch_test.h"
 1419              		.file 15 "../os/common/ext/CMSIS/include/core_cm3.h"
 1420              		.file 16 "../test/rt/source/test/test_root.h"