ARM GAS  /tmp/ccQneqRX.s 			page 1


   1              		.syntax unified
   2              		.cpu cortex-m3
   3              		.fpu softvfp
   4              		.eabi_attribute 20, 1
   5              		.eabi_attribute 21, 1
   6              		.eabi_attribute 23, 3
   7              		.eabi_attribute 24, 1
   8              		.eabi_attribute 25, 1
   9              		.eabi_attribute 26, 1
  10              		.eabi_attribute 30, 2
  11              		.eabi_attribute 34, 1
  12              		.eabi_attribute 18, 4
  13              		.thumb
  14              		.file	"test_root.c"
  15              		.text
  16              	.Ltext0:
  17              		.section	.gnu.lto_.jmpfuncs.740bfd153261cb2b,"",%progbits
  18 0000 789C6362 		.ascii	"x\234cb`b\300\006>\001q+\020\2630002U3\374j\230\321"
  18      6062C006 
  18      3E01712B 
  18      10B33030 
  18      30325533 
  19 0018 2090C9C8 		.ascii	" \220\311\310 \307\3008\267a\206C&##X\025\222\024\223"
  19      20C7C038 
  19      B7618643 
  19      26232358 
  19      15921493 
  20 002c 1C833844 		.ascii	"\034\2038D\212\031]\212E\216A\033\"\305\212E\227\031"
  20      8A195D8A 
  20      458E411B 
  20      22C58A45 
  20      9719
  21 003e 0E5D6C72 		.ascii	"\016]lr\014^\020)v,\272\202q\333\225\216\333\256\"\024"
  21      0C5E1029 
  21      762CBA82 
  21      71DB958E 
  21      DBAE2214 
  22 0052 5D40C8C0 		.ascii	"]@\310\300\014\"X\200\312\"\0303\0319@\276\022uL)K\314"
  22      0C225880 
  22      CA221833 
  22      193940BE 
  22      12754C29 
  23 0068 4B4E4D51 		.ascii	"KNMQ\310N-\312K\315Q\310\315OIe\020\326\322\322R\010"
  23      C84E2DCA 
  23      4BCD51C8 
  23      CD4F4965 
  23      10D6D2D2 
  24 007e C82F2A51 		.ascii	"\310/*Q\360\314K\313\267R\000\002\006.g ?\265B\327\327"
  24      F0CC4BCB 
  24      B7520002 
  24      062E6720 
  24      3FB542D7 
  25 0093 18220DE4 		.ascii	"\030\"\015\344\246*\204%\026e&\346\225X)0p8\006\371"
  25      A62A8425 
  25      166526E6 
  25      95582930 
  25      703806F9 
ARM GAS  /tmp/ccQneqRX.s 			page 2


  26 00a7 9699EBFA 		.ascii	"\226\231\353\372B$\035\213\22232KR\223KJ\213R\201\222"
  26      42241D8B 
  26      9233324B 
  26      52934B4A 
  26      8B528192 
  27 00bb 5CEECECE 		.ascii	"\\\356\316\316\012&z\026zF0\275\271\005\2319\251E`\223"
  27      0A267A16 
  27      7A4630BD 
  27      B9059939 
  27      A9456093 
  28 00cf 151800EE 		.ascii	"\025\030\000\356\023Xj"
  28      13586A
  29              		.text
  30              		.section	.gnu.lto_.inline.740bfd153261cb2b,"",%progbits
  31 0000 789C6362 		.ascii	"x\234cb`b\300\006\246Ai\026\006\006\341[\014\214`Ul"
  31      6062C006 
  31      A6416916 
  31      0606E15B 
  31      0C8C6055 
  32 0015 0BE4C18A 		.ascii	"\013\344\301\212\231\270\031@\"D\223\214\014\334'@\034"
  32      99B81940 
  32      2244938C 
  32      0CDC2740 
  32      1C
  33 0026 9E179F99 		.ascii	"\236\027\237\231\221\014\001JL\360cf\3409\003\222\343"
  33      910C014A 
  33      4CF06366 
  33      E0390392 
  33      E3
  34 0037 5BB38A05 		.ascii	"[\263\212\005]\216\205\201C\000(\305\366A\017\315j\006"
  34      5D8E8581 
  34      430028C5 
  34      F6410FCD 
  34      6A06
  35 0049 0080DD0D 		.ascii	"\000\200\335\015M"
  35      4D
  36              		.text
  37              		.section	.gnu.lto_.pureconst.740bfd153261cb2b,"",%progbits
  38 0000 789C6362 		.ascii	"x\234cb`b\340d\200\000\026\006\011F\011f\011\026+\000"
  38      6062E064 
  38      80001606 
  38      09460966 
  38      09162B00 
  39 0014 02DE009C 		.ascii	"\002\336\000\234"
  40              		.text
  41              		.section	.gnu.lto_test_print_port_info.740bfd153261cb2b,"",%progbits
  42 0000 789C6362 		.ascii	"x\234cb`b@\007\222@\\\000\024^\005\244\031\231\031\030"
  42      60624007 
  42      92405C00 
  42      145E05A4 
  42      19991918 
  43 0014 99269C63 		.ascii	"\231&\234c`h\344`bd\0041\030\030\031\352\231\030\353"
  43      6068E460 
  43      62640431 
  43      181819EA 
  43      9918EB
  44 0027 2319C16A 		.ascii	"#\031\301j\3273\035x\360\377\377\272\177\307\226\374"
ARM GAS  /tmp/ccQneqRX.s 			page 3


  44      D7331D78 
  44      F0FFFFBA 
  44      7FC796FC 
  45 0037 619CCBC4 		.ascii	"a\234\313\304\005\024aehih\230\240\300\300\220\014V"
  45      05146165 
  45      68696898 
  45      A0C0C090 
  45      0C56
  46 0049 11022441 		.ascii	"\021\002$A\332B\031\231@4\363y\206\226\007\247\026\263"
  46      DA421999 
  46      4034F379 
  46      869607A7 
  46      16B3
  47 005b 27322E64 		.ascii	"'2.dd\005JW3\374j\350h\020\310d\004*\207\230\010\022"
  47      64054A57 
  47      33FC6AE8 
  47      6810C864 
  47      042A8798 
  48 0071 99D1D060 		.ascii	"\231\321\320`\233\311\310(\307\2406\267a\206C&P+T}&"
  48      9BC9C828 
  48      C7A036B7 
  48      61864326 
  48      502B547D 
  49 0086 D03D0C20 		.ascii	"\320=\014 #N?\306j\004\023\262\021\201\231\214,r\014"
  49      234E3FC6 
  49      6A0413B2 
  49      1181998C 
  49      2C720C
  50 0099 56102358 		.ascii	"V\020#X1\2148K\264+\\q\271\342\034q\256`\223c\210\204"
  50      318C384B 
  50      B42B5C71 
  50      B9E21C71 
  50      AE609363 
  51 00af 18C18E61 		.ascii	"\030\301\216a\304\015\242]\221\204\313\0257\211\016"
  51      C40DA25D 
  51      9184CB15 
  51      37890E
  52 00be 8B325C61 		.ascii	"\2132\\aq\207hW42\342r\306]\342\234\301!\3070\025j\006"
  52      71876857 
  52      3432E272 
  52      C65DE29C 
  52      C121C730 
  53 00d5 278A1917 		.ascii	"'\212\031\027\031\032\037\334W\206\031\001\001!@'\000"
  53      191A1FDC 
  53      57861901 
  53      01214027 
  53      00
  54 00e6 530DC80C 		.ascii	"S\015\310\014e==\375\222\324\342\022\375\242\022\375"
  54      653D3DFD 
  54      92D4E212 
  54      FDA212FD 
  55 00f6 E2FCD2A2 		.ascii	"\342\374\322\242\344T\010\027D\304\027\345\347\227\350"
  55      E4540817 
  55      44C417E5 
  55      E797E8
  56 0105 2533086B 		.ascii	"%3\010kii)8\347\347\026d\346\244\026Y)\200\000\003\227"
  56      69692938 
ARM GAS  /tmp/ccQneqRX.s 			page 4


  56      E7E71664 
  56      E6A41659 
  56      29800003 
  57 011a BBB3B382 		.ascii	"\273\263\263\202\211\236\205\236\021D\332\261(9#\263"
  57      899E859E 
  57      1144DAB1 
  57      283923B3 
  58 012a 2435B9A4 		.ascii	"$5\271\244\264(\325J\201\201\3031\310\267\314\\\327"
  58      B428D54A 
  58      8181C331 
  58      C8B7CC5C 
  58      D7
  59 013b 17A6B728 		.ascii	"\027\246\267(U!,\261(31\257\004(\311\005\344\227\244"
  59      55212CB1 
  59      283331AF 
  59      0428C905 
  59      E497A4
  60 014e 56E8FA1A 		.ascii	"V\350\372\032C\244\003\200\\\005\317\274\264|\260\331"
  60      43A40380 
  60      5C05CFBC 
  60      B47CB0D9 
  61 015e 0CA28E29 		.ascii	"\014\242\216)e\211y\311\251)\012\331\251Ey\2519\012"
  61      658979C9 
  61      A9290AD9 
  61      A94579A9 
  61      390A
  62 0170 B9F929A9 		.ascii	"\271\371)\251\014\000)\016\325\330"
  62      0C00290E 
  62      D5D8
  63              		.text
  64              		.section	.gnu.lto_test_terminate_threads.740bfd153261cb2b,"",%progbits
  65 0000 789C5D92 		.ascii	"x\234]\222\277K\034A\024\307\277\337\231\235\3355\211"
  65      BF4B1C41 
  65      14C7BFDF 
  65      999DDD35 
  65      89
  66 0011 20366925 		.ascii	" 6i%\242i\364\016\233\374\017\366\236$U\220E\216-\302"
  66      A269F40E 
  66      9BFC0FF6 
  66      9E245590 
  66      458E2DC2 
  67 0025 C179A952 		.ascii	"\301y\251R8\353\235`\023\020I\241&\202\"\021\013!\177"
  67      38EB9D60 
  67      131049A1 
  67      26822211 
  67      0B217F
  68 0038 401AAF08 		.ascii	"@\032\257\010\311\0251X\012\026\233\0246\311\037\020"
  68      C9153158 
  68      0A169B14 
  68      36C91F10 
  69 0048 C2C1F966 		.ascii	"\302\301\371f\177\334\031\037\354\274y3\357}\336\217"
  69      7FDC191F 
  69      ECBC7933 
  69      EF7DDE8F 
  70 0058 590585FB 		.ascii	"Y\005\205\373\262,_\237\300S\321\014A\265}\001$\241"
  70      B22C5F9F 
  70      C053D10C 
ARM GAS  /tmp/ccQneqRX.s 			page 5


  70      41B57D01 
  70      24A1
  71 006a A29F6FB4 		.ascii	"\242\237o\264\362\276>\203}`z\217a\037y4\371\261\311"
  71      F2BE3E83 
  71      7D607A8F 
  71      611F7934 
  71      F9B1C9
  72 007d EFBBA1AF 		.ascii	"\357\273\241\257\364\333.\304!h\217\213C@\272s\020\353"
  72      F4DB2EC4 
  72      21688F8B 
  72      4340BA73 
  72      10EB
  73 008f 4A7BC60F 		.ascii	"J{\306\017\270\376\202.\017\237\340\310\332\235t\363"
  73      B8FE822E 
  73      0F9FE0C8 
  73      DA9D74F3 
  74 009f E427F7EC 		.ascii	"\344'\367\354y\347\320\366\007\0032\246\3244KD\304s"
  74      79E7D0F6 
  74      070332A6 
  74      D4344B44 
  74      C473
  75 00b1 31389529 		.ascii	"18\225)\345\375_\344'u\236\016\006\375\313\263_\007"
  75      E5FD5FE4 
  75      27759E0E 
  75      06FDCBB3 
  75      5F07
  76 00c3 9C0C8915 		.ascii	"\234\014\211\025\036\011\317 \246\016\012C\304\240c"
  76      1E09CF20 
  76      A60E0A43 
  76      C4A063
  77 00d2 EDF65469 		.ascii	"\355\366TiGY\336%Y\245\262\032\225(\335\303F\272\377"
  77      4759DE25 
  77      59A5B21A 
  77      9528DDC3 
  77      46BAFF
  78 00e5 C55FE131 		.ascii	"\305_\3411M\021\350\362\015\023\325\250!\355\350\357"
  78      4D11E8F2 
  78      0D13D5A8 
  78      21EDE8EF 
  79 00f5 D8B8FE7B 		.ascii	"\330\270\376{\322U\271c\235f\036s\222\354=\366\023k"
  79      D255B963 
  79      9D661E73 
  79      92EC3DF6 
  79      136B
  80 0107 27627A6F 		.ascii	"'bzo\360\317n\271\235y\225E;\212\311\020u\216p\337\320"
  80      F0CF6EB9 
  80      9D799545 
  80      3B8AC910 
  80      758E70DF 
  81 011c F9932C0C 		.ascii	"\371\223,\014!\316I\337\355\253F\017\237\347\365\017"
  81      21CE49DF 
  81      EDAB460F 
  81      9FE7F50F 
  82 012c 74D20F1F 		.ascii	"t\322\017\037\037\346~\300\220\355G\005Kbc\006e\214"
  82      1FE67EC0 
  82      90ED4705 
  82      4B626306 
ARM GAS  /tmp/ccQneqRX.s 			page 6


  82      658C
  83 013e 294A6C6F 		.ascii	")Jlo\265\177\277[,\351\201$\316zq!=\250\273=\326G\301"
  83      B57FBF5B 
  83      2CE98124 
  83      CE7A7121 
  83      3DA8BB3D 
  84 0155 3EE47DDC 		.ascii	">\344}\334\034B\014/\231Uz\223\004%+\007\215\036\341"
  84      1C420C2F 
  84      99557A93 
  84      04252B07 
  84      8D1EE1
  85 0168 0A2CC6A4 		.ascii	"\012,\306\244N\265\300\314\356\230c\005n\244\227H\322"
  85      4EB5C0CC 
  85      EE986305 
  85      6EA49748 
  85      D2
  86 0179 8399B2F6 		.ascii	"\203\231\262\366\\\226\004\331\036w?\333t\245Rm\255"
  86      5C9604D9 
  86      1E773FDB 
  86      74A5526D 
  86      AD
  87 018a AEB5AACD 		.ascii	"\256\265\252\315Vu\255\361\272\031\255\346\246[^6\033"
  87      5675ADF1 
  87      BA19ADE6 
  87      A65B5E36 
  87      1B
  88 019b 8D562502 		.ascii	"\215V%\002\343[N,\204l"
  88      E35B4E2C 
  88      846C
  89              		.text
  90              		.section	.gnu.lto_test_wait_threads.740bfd153261cb2b,"",%progbits
  91 0000 789C9552 		.ascii	"x\234\225R\277k\024A\024\376\276\231\235\335M0 il\203"
  91      BF6B1441 
  91      14FEBE99 
  91      9DDD4D30 
  91      20696C83 
  92 0014 626CBC3B 		.ascii	"bl\274;l\354\374\003\204\224\271\240\225\204%\204-\344"
  92      6CECFC03 
  92      8494B9A0 
  92      95842584 
  92      2DE4
  93 0026 E0725616 		.ascii	"\340rV\026\231\315\235\220F\010\202\220hc\260\221\030"
  93      99CD9D90 
  93      46088290 
  93      6863B091 
  93      18
  94 0037 4DA9C426 		.ascii	"M\251\304&W\210\271\"\206\024\202\202\305\246\320\312"
  94      5788B922 
  94      86148282 
  94      C5A6D0CA 
  95 0047 3F404438 		.ascii	"?@D8\337\354\354^~t>\330\231y\277\276\367\275\367VA"
  95      DFECEC5E 
  95      7E743ED8 
  95      9979BFBE 
  95      F7BDF756 
  96 005c E1BCCCC9 		.ascii	"\341\274\314\3117#\346kr3\006\325\332g \213\025C\377"
  96      3723E66B 
ARM GAS  /tmp/ccQneqRX.s 			page 7


  96      723306D5 
  96      DA67208B 
  96      1543FF
  97 006f D02AF874 		.ascii	"\320*\370t\023v\334\014.\301^\010h\274\331x\177?\016"
  97      1376DC0C 
  97      2EC15E08 
  97      68BCD978 
  97      7F3F0E
  98 0082 957EDC87 		.ascii	"\225~\334\207\004D\335\011\011\210Hg\007\261\254t`\302"
  98      0444DD09 
  98      09884867 
  98      07B1AC74 
  98      60C2
  99 0094 88CB77E9 		.ascii	"\210\313w\351\352\36026\255}\222\377\330:\346\206\335"
  99      EAF03236 
  99      AD7D92FF 
  99      D83AE686 
  99      DD
 100 00a5 EBBDB07F 		.ascii	"\353\275\260\177\207C2\245p\232&\022\342\216(\234*."
 100      874332A5 
 100      709A2612 
 100      E28E289C 
 100      2A2E
 101 00b7 159C25B9 		.ascii	"\025\234%\271\243\366\362\341p\373\313\357\343]N\216"
 101      A3F6F2E1 
 101      70FBCBEF 
 101      E35D4E8E 
 102 00c7 11F3DC14 		.ascii	"\021\363\334\024<\203\224:.\025\021\203\236\265kS\225"
 102      3C83943A 
 102      2E151183 
 102      9EB56B53 
 102      95
 103 00d8 9E147567 		.ascii	"\236\024ug\345\024fM*\271\364\000+\371\233\217\341<"
 103      E514664D 
 103      2AB9F400 
 103      2BF99B8F 
 103      E13C
 104 00ea 5FD29489 		.ascii	"_\322\224\211\256\336\250P\223\032\322\216>\300\312"
 104      AEDEA850 
 104      931AD28E 
 104      3EC0CA
 105 00f9 F7AFAFFB 		.ascii	"\367\257\257\373\312\007.\322\324p]\212=\307\263\314"
 105      CA072ED2 
 105      D4705D8A 
 105      3DC7B3CC 
 106 0109 DA8B2983 		.ascii	"\332\213)\203\207\370cW\335\313\334/\262\035\212) \026"
 106      87F86357 
 106      DDCBDC2F 
 106      B21D8A29 
 106      2016
 107 011b 7902B78F 		.ascii	"y\002\267\217\336\257\354\306\010\304\005\351\323}5"
 107      DEAFECC6 
 107      08C405E9 
 107      D37D35
 108 012a 19E0434D 		.ascii	"\031\340CM\037\242\227\357<\032\367q\300\010;LJ,\311"
 108      1FA297EF 
 108      3C1AF771 
ARM GAS  /tmp/ccQneqRX.s 			page 8


 108      C0083B4C 
 108      4A2CC9
 109 013d 4D190142 		.ascii	"M\031\001B\353\375\372\333\243\222V\015\333V\344\326"
 109      EBFDFADB 
 109      A392560D 
 109      DB56E4D6 
 110 014d 7F133BC3 		.ascii	"\177\023;\303\243)n\337rw\265\373\356\351\355\212m,"
 110      A3296EDF 
 110      7277B5FB 
 110      EEE9ED8A 
 110      6D2C
 111 015f F1C56C5C 		.ascii	"\361\305l\\\326\000\352\364\314\304[%\207\220}\273\271"
 111      D600EAF4 
 111      CCC45B25 
 111      87907DBB 
 111      B9
 112 0170 8AA572B2 		.ascii	"\212\245r\262\350\374g\026UX\036\350d\251\337\300r\354"
 112      E8FC6716 
 112      55581EE8 
 112      64A9DFC0 
 112      72EC
 113 0182 EA951630 		.ascii	"\352\225\0260\263>\346\260\"\267\242#d\371\356\325j"
 113      B33EE6B0 
 113      22B7A223 
 113      64F9EED5 
 113      6A
 114 0193 165E6605 		.ascii	"\026^f\005\262;\341~\336+\365z\243\263\260\324i\264"
 114      B23BE17E 
 114      DE2BF57A 
 114      A3B3B0D4 
 114      69B4
 115 01a5 3B8DA5D6 		.ascii	";\215\245\326\203v\262\340Uw\334k\267Z\235z\002\246"
 115      8376B2E0 
 115      5577DC6B 
 115      B75A9D7A 
 115      02A6
 116 01b7 FF00C42F 		.ascii	"\377\000\304/\225\331"
 116      95D9
 117              		.text
 118              		.section	.gnu.lto_test_wait_tick.740bfd153261cb2b,"",%progbits
 119 0000 789C8D53 		.ascii	"x\234\215SOH\024a\024\177ov\266]5\303\243V\330bD\205"
 119      4F481461 
 119      147F6F76 
 119      B65D35C3 
 119      A356D862 
 120 0016 B55376E8 		.ascii	"\265Sv\350Z\330Ep;\270\006uZ\306q\330\035\330qdf\\\224"
 120      5AD84570 
 120      3BB80675 
 120      5AC671D8 
 120      1DD87164 
 121 002d 0ECEEA1E 		.ascii	"\016\316\352\036\242 d)\210d)\323\002E\224\222(2b\353"
 121      A2206429 
 121      886429D3 
 121      02459492 
 121      283262EB 
 122 0041 A4902B75 		.ascii	"\244\220+uK\017\355\305\203\005a\267\212p{\337|6\272"
 122      4B0FEDC5 
ARM GAS  /tmp/ccQneqRX.s 			page 9


 122      830561B7 
 122      8A707BDF 
 122      7C36BA
 123 0054 9B5403DF 		.ascii	"\233T\003\337\277\371\275\357\275\337\357\375f\004\020"
 123      BFF9BDEF 
 123      BDDFEFFD 
 123      660410
 124 0063 A0F269A0 		.ascii	"\240\362i\240!\373\000\302\010\200>@a\244\000\220\016"
 124      21FB00C2 
 124      08803E40 
 124      61A40090 
 124      0E
 125 0074 0A886C03 		.ascii	"\012\210l\003\010\203\002\016^A7vV\310\027K\245\231"
 125      0883020E 
 125      5E413776 
 125      56C8174B 
 125      A599
 126 0086 CDEB132F 		.ascii	"\315\353\023/qZ\010\212\240!\370ib\250\0372\2163\022"
 126      715A088A 
 126      A021F869 
 126      62A81F32 
 126      8E3312
 127 0099 0250DCD8 		.ascii	"\002P\334\330N\232Y\202K(\260\325\267\014\231\342\342"
 127      4E9A5982 
 127      4B28B0D5 
 127      B70C99E2 
 127      E2
 128 00aa C3808C63 		.ascii	"\303\200\214c\350'\370*\374p\2569u\032\012\012\362\334"
 128      E827F82A 
 128      FC70AE39 
 128      751A0A0A 
 128      F2DC
 129 00bc 9791F220 		.ascii	"\227\221\362 %#.\2130\024\004h\2021\307\311\026s\223"
 129      25232E8B 
 129      30140468 
 129      8231C7C9 
 129      167393
 130 00cf 4BAF313B 		.ascii	"K\2571;\354,8\231|\251\204\2074\024\005\270\210\254"
 130      EC2C3899 
 130      7CA98487 
 130      341405B8 
 130      88AC
 131 00e1 0EBBE30F 		.ascii	"\016\273\343\017\271\313\036\261\\\026{'\022\033(\300"
 131      B9CB1EB1 
 131      5C167B27 
 131      121B28C0 
 132 00f1 D0D7E9E1 		.ascii	"\320\327\351\341G\373=~|\223\237\177?\352;&\34386y\344"
 132      47FB3D7E 
 132      7C939F7F 
 132      3FEA3B26 
 132      E3383679 
 133 0106 F3E3B7BE 		.ascii	"\363\343\267\276\325\034\364N\353\267_\325z\2728\231"
 133      D51CF44E 
 133      EBB75FD5 
 133      7ABA3899 
 134 0116 FCF7959B 		.ascii	"\374\367\225\233\365\316\375\364\210\263IT\210\260\000"
 134      F5CEFDF4 
ARM GAS  /tmp/ccQneqRX.s 			page 10


 134      88B34954 
 134      88B000
 135 0125 73B84DA5 		.ascii	"s\270M\245\216S\371\243\311[\011o\254\265P\257\335\016"
 135      8E53F9A3 
 135      C95B096F 
 135      ACB550AF 
 135      DD0E
 136 0137 28E80629 		.ascii	"(\350\006)\244VA\221\006k\0125\033a\236^\021\346\343"
 136      A4564191 
 136      066B0A35 
 136      1B619E5E 
 136      11E6E3
 137 014a 5635C25B 		.ascii	"V5\302[\3149w\316i\030(S\265\215/o\341A^j\011\336\254"
 137      CC3977CE 
 137      69182853 
 137      B58D2F6F 
 137      E1415E6A 
 138 0161 FCFCBC3E 		.ascii	"\374\374\274>\231\305J\301\317&V}\276\035\342r\2368"
 138      99C54AC1 
 138      CF26567D 
 138      BE1DE272 
 138      9E38
 139 0173 A7F4F400 		.ascii	"\247\364\364\000#6\351\022\333C#@\303M\030G\261\031"
 139      2336E912 
 139      DB432340 
 139      C34D1847 
 139      B119
 140 0185 A69C4CBA 		.ascii	"\246\234L\272\370\261P\310\242\250a\325(\334%\375d]"
 140      F8B150C8 
 140      A2A861D5 
 140      28DC25FD 
 140      645D
 141 0197 356353E3 		.ascii	"5cS\343\320#\272\304j\\\002]\314N\031\347\270\242%\030"
 141      D023BAC4 
 141      6A5C025D 
 141      CC4E19E7 
 141      B8A22518 
 142 01ab FA32BC4F 		.ascii	"\3722\274O\306't\214\243\237\322\271\356n\274X\233]"
 142      C627748C 
 142      A39FD2B9 
 142      EE6EBC58 
 142      9B5D
 143 01bd 455E51C6 		.ascii	"E^Q\306)\327\203J\333\327\013\225\266\3138Am\373\017"
 143      29D7834A 
 143      DBD70B95 
 143      B6CB3841 
 143      6DFB0F
 144 01d0 DFE16FBE 		.ascii	"\337\341o\276\177\3121\337\237\227\373~\257\266q\307"
 144      7FCA31DF 
 144      9F97FB7E 
 144      AFB671C7 
 145 01e0 27ECF568 		.ascii	"'\354\365h\241v\273/U\334\260\352]\314\222q\2066^\351"
 145      A176BB2F 
 145      55DCB0EA 
 145      5DCC9271 
 145      86365EE9 
 146 01f4 DFE6C8F8 		.ascii	"\337\346\310\370\030\0339\255w\220\336x\360a/7?\316"
ARM GAS  /tmp/ccQneqRX.s 			page 11


 146      181B39AD 
 146      7790DE78 
 146      F0612F37 
 146      3FCE
 147 0206 13B09F04 		.ascii	"\023\260\237\004\331\317\301\202\017\207\303\222\255"
 147      D9CFC182 
 147      0F87C392 
 147      AD
 148 0213 5AB664DA 		.ascii	"Z\266d\332\222e\364\231\212\312\217l\212\231\206a\207"
 148      9265F499 
 148      8ACA8F6C 
 148      8A998661 
 148      87
 149 0224 15384A31 		.ascii	"\0258J1\206%)\206\256\033=R\257a\332\226t\276#\322\032"
 149      86252986 
 149      AE1B3D52 
 149      AF61DA96 
 149      74BE23D2 
 150 0239 E9979484 		.ascii	"\351\227\224\204b\230j,uV\017'\300\237\222\223}jsY\264"
 150      62986A2C 
 150      75560F27 
 150      C09F9293 
 150      7D6A7359 
 151 024e DA6F4BAD 		.ascii	"\332oK\255\221h[T\322z\224d_\267*)\272\245Y\261\270"
 151      91685B54 
 151      D27A9464 
 151      5FB72A29 
 151      BAA559B1 
 152 0263 A2D08D06 		.ascii	"\242\320\215\006\036K\265=4a\015X\204\324\357\202\244"
 152      1E4BB53D 
 152      34610D58 
 152      84D4EF82 
 152      A4
 153 0274 6C020284 		.ascii	"l\002\002\204\333\232\256\326E\242\035\241.\331R{M\355"
 153      DB9AAED6 
 153      45A21DA1 
 153      2ED9527B 
 153      4DED
 154 0286 44E8C829 		.ascii	"D\350\310)\020L\010\350\252n\230\003p\222_N\310\311"
 154      104C08E8 
 154      AA6E9803 
 154      70925F4E 
 154      C8C9
 155 0298 2DB6D1CE 		.ascii	"-\266\321\316\310\231\026\251\275\375\202\324\331\026"
 155      C89916A9 
 155      BDFD82D4 
 155      D916
 156 02a6 499D6648 		.ascii	"I\235fH\214\364%\223\335\224\361\370?\345\261z&E\376"
 156      8CF42593 
 156      DD94F1F8 
 156      3FE5B17A 
 156      2645FE
 157 02b9 02130C39 		.ascii	"\002\023\0149J"
 157      4A
 158              		.text
 159              		.section	.gnu.lto_.symbol_nodes.740bfd153261cb2b,"",%progbits
 160 0000 789C4DCD 		.ascii	"x\234M\315IR\002A\020@\321\374U]\315$\342F\206sy\240"
ARM GAS  /tmp/ccQneqRX.s 			page 12


 160      49520241 
 160      1040D1FC 
 160      555DCD24 
 160      E2468673 
 161 0016 24828D4B 		.ascii	"$\202\215KO\340\306\215\367`\317\005\034\240i\006Q\300"
 161      4FE0C68D 
 161      F760CF05 
 161      1CA06906 
 161      51C0
 162 0028 31581A76 		.ascii	"1X\032v\322\0256\265y\361#3\262\2348\271B\312\347\036"
 162      D21536B5 
 162      79F12333 
 162      B29C38B9 
 162      42CAE71E 
 163 003c 51919B89 		.ascii	"Q\221\233\211\210\352\3555n\206RexF\202\212\313Pw\262"
 163      88EAED35 
 163      6E865265 
 163      7846828A 
 163      CB5077B2 
 164 0050 3447FDC9 		.ascii	"4G\375\311\322\024\212\245\360\2043\036\360FN\"\005"
 164      D2148AA5 
 164      F084331E 
 164      F0464E22 
 164      05
 165 0061 0B82B124 		.ascii	"\013\202\261$5V\324\2145u\343\205\206\261\241i\274\322"
 165      3556D48C 
 165      3575E385 
 165      86B1A169 
 165      BCD2
 166 0073 32DE3833 		.ascii	"2\33683\266\264\215\035\347\306\236\216\361\316E\001"
 166      B6B48D1D 
 166      E7C69E8E 
 166      F1CE4501 
 167 0083 9F68527E 		.ascii	"\237hR~?\034\302\007\032\252\372B\323\252\276\321ZU"
 167      3F1CC207 
 167      1AAAFA42 
 167      D3AABED1 
 167      5A55
 168 0095 3F68FDBF 		.ascii	"?h\375\277\274te4\373-\274\224\273\243]\031\307\316"
 168      BC746534 
 168      FB2DBC94 
 168      BBA35D19 
 168      C7CE
 169 00a7 638FB238 		.ascii	"c\217\2628\317\342<vn\322\223\374\376\220z\337/M\006"
 169      CFE23C76 
 169      6ED293FC 
 169      FE907ADF 
 169      2F4D06
 170 00ba C77BF207 		.ascii	"\307{\362\007\246E_\201"
 170      A6455F81 
 171              		.text
 172              		.section	.gnu.lto_.refs.740bfd153261cb2b,"",%progbits
 173 0000 789C35C1 		.ascii	"x\2345\301\307\021\2000\014\0000[\\\350\201P6a\377\335"
 173      C7118030 
 173      0C00305B 
 173      5CE88150 
 173      3661FFDD 
ARM GAS  /tmp/ccQneqRX.s 			page 13


 174 0014 78704842 		.ascii	"xpHB<\361\311\014\272\220J\321\377\353`4\231-V\325f"
 174      3CF1C90C 
 174      BA904AD1 
 174      FFEB6034 
 174      992D56D5 
 175 0029 D71C4E97 		.ascii	"\327\034N\227;^\"\266\001\\"
 175      3B5E22B6 
 175      015C
 176              		.text
 177              		.section	.gnu.lto_.decls.740bfd153261cb2b,"",%progbits
 178 0000 789CBD5B 		.ascii	"x\234\275[}p\024U\266\357\217\231L\206\204o\265pK\326"
 178      7D701455 
 178      B6EF8F99 
 178      4C86846F 
 178      B5704BD6 
 179 0014 B8BBAEAB 		.ascii	"\270\273\256\253\273\222\004\020\241\352\275\005\015"
 179      BB920410 
 179      A1EABD05 
 179      0D
 180 0021 945A25FB 		.ascii	"\224Z%\373\250\200\357Y\265\365\336l;iH\036\223I\336"
 180      A880EF59 
 180      B5F5DE6C 
 180      3B69481E 
 180      9349DE
 181 0034 4C878F7A 		.ascii	"L\207\217z\177\330\011\312\227\260\204D |\217\210\362"
 181      7FD809CA 
 181      97B08444 
 181      207C8F88 
 181      F2
 182 0045 0D895101 		.ascii	"\015\211Q\001\2110 `\010\312W\200\010y\222\021V@\024"
 182      89302060 
 182      08CA5780 
 182      08799211 
 182      564014
 183 0058 F9521031 		.ascii	"\371R\0201\316;\367v\367t\337\236\3333\335\241\334\256"
 183      CE3BF776 
 183      F774DF9E 
 183      DB33DDA1 
 183      DCAE
 184 006a BA77BA7B 		.ascii	"\272w\272{\356\371\235s\3179\367\334\323\367vs\014\307"
 184      EEF99D73 
 184      CF39F7DC 
 184      D3F77673 
 184      0CC7
 185 007c 3CC0314C 		.ascii	"<\3001L\034\216{\236f\230&/\303\270\031\206\3713\024"
 185      1C8E7B9E 
 185      6698262F 
 185      C3B81986 
 185      F93314
 186 008f 3865DE80 		.ascii	"8e\336\200\262\012\312\032(k\241\254\207\262\001\312"
 186      B20ACA1A 
 186      286BA1AC 
 186      87B201CA 
 187 009f 26289BA1 		.ascii	"&(\233\241\3243\312\201\332~\000e'\224\335P\366Bi\206"
 187      D433CA81 
 187      DA7E0065 
 187      2794DD50 
ARM GAS  /tmp/ccQneqRX.s 			page 14


 187      F6426986 
 188 00b3 7208CA11 		.ascii	"r\010\312\021(\323Y\206\231\015\2457\234\377\035~k\240"
 188      28D35986 
 188      990DA537 
 188      9CFF1D7E 
 188      6BA0
 189 00c5 2C83B20E 		.ascii	",\203\262\016\312^(\037Ci\201\362)\224#PZ\241\234\204"
 189      CA5E281F 
 189      436981F2 
 189      29942350 
 189      5AA19C84 
 190 00d9 720ACAFF 		.ascii	"r\012\312\377A\351\200r\026\312\227P.\262\014q \276"
 190      41E98072 
 190      16CA9750 
 190      2EB20C71 
 190      20BE
 191 00eb DDA05C62 		.ascii	"\335\240\\bu9\017Pd\325\372\202\016^\245;\244\312i>"
 191      75390F50 
 191      64D5FA82 
 191      0E5EA53B 
 191      A4CA693E 
 192 00ff 503F3219 		.ascii	"P?2\031E\027=\240dCi\2052\017x|\015\345\033(G\325\266"
 192      45173DA0 
 192      64436985 
 192      320F787C 
 192      0DE51B28 
 193 0116 9CDA1EF5 		.ascii	"\234\332\036\365\223U\373g<v\247\301\272\014e\006\253"
 193      9355FB67 
 193      3C76A7C1 
 193      BA0C6506 
 193      AB
 194 0127 63ED56F5 		.ascii	"c\355V\365E\303\332\253\322{T\335\177\013\377\277\006"
 194      45C3DAAB 
 194      D27B54DD 
 194      7F0BFFBF 
 194      06
 195 0138 E59201FB 		.ascii	"\345\222\001\373\012\\_\203r\003\312wP~\317)XY\360\233"
 195      0A5C5F83 
 195      7203CA77 
 195      507ECF29 
 195      5859F09B 
 196 014c A562205B 		.ascii	"\245b [<\002\327\217Ay\034J\036\224aP\376\005\312p("
 196      3C02D78F 
 196      41791C4A 
 196      1E946150 
 196      FE05CA70 
 197 0161 4F4319C5 		.ascii	"OC\031\305%\353%\213\231-\313Urd\272\374ls\217\336L"
 197      25EB258B 
 197      992DCB55 
 197      7264BAFC 
 197      6C738FDE 
 198 0176 B50C474E 		.ascii	"\265\014GN]\017/3\023\335\216\275%\367\353\3070/\262"
 198      5D0F2F33 
 198      13DD8EBD 
 198      25F7EBC7 
 198      302FB2
 199 0189 020BB732 		.ascii	"\002\013\2672\361I\266\0273\177\230Y\015M\241='\260"
ARM GAS  /tmp/ccQneqRX.s 			page 15


 199      F149B617 
 199      337F9859 
 199      0D4DA13D 
 199      27B0
 200 019b 6FB25EE8 		.ascii	"o\262^\350(\307&\303\243C\371\037\035\210\\9\327\316"
 200      28C726C3 
 200      A343F91F 
 200      1D885C39 
 200      D7CE
 201 01ad E26C027D 		.ascii	"\342l\002}-\253\301\337\253\222\255b{\3433,\214\254"
 201      2DABC1DF 
 201      AB92AD62 
 201      7BE3332C 
 201      8CAC
 202 01bf CA885BA8 		.ascii	"\312\210[\250$9\032\205K\245x\333\300(\333\253\237\334"
 202      24391A85 
 202      4BA578DB 
 202      C028DBAB 
 202      9FDC
 203 01d1 A38A6245 		.ascii	"\243\212bE\367\006\233\225F!\212\270*}]B\324\276*\300"
 203      F7069B95 
 203      46218AB8 
 203      2A7D5D42 
 203      D4BE2AC0 
 204 01e5 5AC7A2AE 		.ascii	"Z\307\242\256\263\020\265O\032Q\3278\023u\214F\337M"
 204      B310B54F 
 204      1A51D738 
 204      13758C46 
 204      DF4D
 205 01f7 A5DFE058 		.ascii	"\245\337\340X\322\215\026\222z\323H\272>\265\244\221"
 205      D28D1692 
 205      7AD348BA 
 205      3EB5A491 
 206 0207 11265147 		.ascii	"\021&QGh\000\231*\300f\307\242n\261\020\325\223F\324"
 206      6800992A 
 206      C066C7A2 
 206      6EB110D5 
 206      9346D4
 207 021a 4DBAA8AA 		.ascii	"M\272\250\252\347\313\323\345?\254\355\221\240\350\245"
 207      E7CBD3E5 
 207      3FACED91 
 207      A0E8A5
 208 0229 51A02184 		.ascii	"Q\240!\204]\277:\266e\351\275\262K`\353\261\363\377"
 208      5DBF3AB6 
 208      65E9BDB2 
 208      4B60EBB1 
 208      F3FF
 209 023b 9E651E63 		.ascii	"\236e\036c\326)#\242\352WIc\300\011n\307\366s\234,g"
 209      D62923A2 
 209      EA574963 
 209      C0096EC7 
 209      F6739C2C 
 210 0250 0AECBB18 		.ascii	"\012\354\273\030\371\005\026\004ld\037s\214\3239}\315"
 210      F9051604 
 210      6C641F73 
 210      8CD3397D 
 210      CD
ARM GAS  /tmp/ccQneqRX.s 			page 16


 211 0261 308CB315 		.ascii	"0\214\263\025\343\314aI \201\345\275F\001\361\265\326"
 211      E3CC6149 
 211      2081E5BD 
 211      4601F1B5 
 211      D6
 212 0272 00A1F15E 		.ascii	"\000\241\361^\375$\036\347\231_\260\361\203\314\012"
 212      FD241EE7 
 212      995FB0F1 
 212      83CC0A
 213 0281 39128B75 		.ascii	"9\022\213u\264t\010\213\345\350+r<\3762s\037\263@\265"
 213      B474088B 
 213      E5E82B72 
 213      3CFE3273 
 213      1FB340B5 
 214 0295 BACC4A02 		.ascii	"\272\314J\002\373\347{-\255\267\203\275O={Ae\3141;L"
 214      FBE77B2D 
 214      ADB783BD 
 214      4F3D7B41 
 214      65CC313B 
 215 02aa BD85A8C9 		.ascii	"\275\205\250\311\274\205\360\344\2652\217\321P\373\017"
 215      BC85F0E4 
 215      B5328FD1 
 215      50FB0F
 216 02b9 D8074941 		.ascii	"\330\007IA\233X\"F*rEW\264dWW\306\342\361\007\025^\034"
 216      9B582246 
 216      2A724557 
 216      B4645757 
 216      C6E2F107 
 217 02d0 CC6876D0 		.ascii	"\314hv\320w\232\321wQ\321\217\233\321/\330B\337mF\337"
 217      779AD177 
 217      51D18F9B 
 217      D12FD842 
 217      DF6D46DF 
 218 02e4 43458FB7 		.ascii	"CE\217\267\314\275_\216TE\343\361\341f\225\326\263\326"
 218      CCBD5F8E 
 218      5445E3F1 
 218      E16695D6 
 218      B3D6
 219 02f6 23691F45 		.ascii	"#i\037E\247\267\351rU\311\365ke\267\002\207\010\366"
 219      A7B7E972 
 219      55C9F56B 
 219      65B70287 
 219      08F6
 220 0308 826034B7 		.ascii	"\202`4\267T\361\366'\213\031\253\2165\034\373\266\212"
 220      54F1F627 
 220      8B19AB8E 
 220      351CFBB6 
 220      8A
 221 0319 9D3F2DD2 		.ascii	"\235?-\322,_\215\307{:0\376\001UP^\341AD\232\304,\026"
 221      2C5F8DC7 
 221      7B3A30FE 
 221      0155505E 
 221      E141449A 
 222 0330 ED57A78F 		.ascii	"\355W\247\217\025b\032\023\330\325\354\303v\247\250"
 222      15621A13 
 222      D8D5ECC3 
 222      76A7A8
ARM GAS  /tmp/ccQneqRX.s 			page 17


 223 033f 24E607F5 		.ascii	"$\346\007\365\270\241+\012\353j%g\326\225\322\350SZ"
 223      B8A12B0A 
 223      EB6A2567 
 223      D695D2E8 
 223      535A
 224 0351 EFA3DB0E 		.ascii	"\357\243\333\016\316\221Y\315\011\016`'\330h\001p\230"
 224      CE9159CD 
 224      090E6027 
 224      D8680170 
 224      98
 225 0362 AABE33B5 		.ascii	"\252\2763\265{]\213\345=NG\316\321\024\312\353\303\314"
 225      7B5D8BE5 
 225      3D4E47CE 
 225      D114CAEB 
 225      C3CC
 226 0374 C7134AB3 		.ascii	"\307\023J\263\256\271\210K\003\030\311$\302\314\225"
 226      AEB9884B 
 226      0318C924 
 226      C2CC95
 227 0383 95FD5118 		.ascii	"\225\375Q\030<\316\366\001\220\023&\251\323\202p\314"
 227      3CCEF601 
 227      901326A9 
 227      D38270CC 
 228 0393 194CD206 		.ascii	"\031L\322\006\344\012\241\222X\304\032\026}^\305VB\017"
 228      E40AA192 
 228      58C41A16 
 228      7D5EC556 
 228      420F
 229 03a5 94FF188A 		.ascii	"\224\377\030\2122\324\343!&\002\004\321[-\313X9\262"
 229      32D4E321 
 229      260204D1 
 229      5B2DCB58 
 229      39B2
 230 03b7 87A5B024 		.ascii	"\207\245\260$f\026U\354y\227\232]8:\266c\301\247\361"
 230      661655EC 
 230      79979A5D 
 230      383AB663 
 230      C1A7F1
 231 03ca 54C12323 		.ascii	"T\301##\254`8\246\026\223\234I\022\274\355\260&\370"
 231      AC6038A6 
 231      16939C49 
 231      12BCEDB0 
 231      26F8
 232 03dc 191B8257 		.ascii	"\031\033\202WE\217\316^~?\022\\`[\301\2358fu\002\227"
 232      458FCE5E 
 232      7E3F125C 
 232      605BC19D 
 232      38667502 
 233 03f1 66B6C4D4 		.ascii	"f\266\304\324\246yk\017\257\011\357\030\304\023A\003"
 233      A6796B0F 
 233      AF09EF18 
 233      C4134103 
 234 0401 5BE7182C 		.ascii	"[\347\030,\207&\252\346}zo\0056\206\007\316\027\354"
 234      8726AAE6 
 234      7D7A6F05 
 234      368607CE 
 234      17EC
ARM GAS  /tmp/ccQneqRX.s 			page 18


 235 0413 43509F83 		.ascii	"CP\237\203:qp\314f^\263)Mu\351\273p\273e\031V\211:\200"
 235      3A7170CC 
 235      665EB329 
 235      4D75E9BB 
 235      70BB6519 
 236 042b 1587A40F 		.ascii	"\025\207\244\017C\325\234\247\226\356=\312N\303Z\277"
 236      43D59CA7 
 236      96EE3DCA 
 236      4EC35ABF 
 237 043b 80A7BB0B 		.ascii	"\200\247\273\013<u\336\264\001\325\261n\316\237\260"
 237      3C75DEB4 
 237      01D5B16E 
 237      CE9FB0
 238 044a 675CC240 		.ascii	"g\\\302@W\272\014\3249\275I\231\200/c\240\037x\363\004"
 238      57BA0CD4 
 238      39BD4999 
 238      802F63A0 
 238      1F78F304 
 239 045e EC314DC0 		.ascii	"\3541M\300\036r\232\364x\365\023\364<\327\223\371\205"
 239      1E729AF4 
 239      78F513F4 
 239      3CD793F9 
 239      85
 240 046f 9BC33070 		.ascii	"\233\3030p\231\014Gs\227L+\303\311\261\372\2663\034"
 240      990C4773 
 240      974C2BC3 
 240      C9B1FAB6 
 240      331C
 241 0481 9AC1796D 		.ascii	"\232\301ym\374dX\351\210cfb^\327\315\343\247\375l\363"
 241      FC6458E9 
 241      88636662 
 241      5ED7CDE3 
 241      A7FD6CF3 
 242 0495 A375B2DC 		.ascii	"\243u\262\334K\371+\375\360y\257e\021\366\225\264\301"
 242      4BF92BFD 
 242      F079AF65 
 242      11F695B4 
 242      C1
 243 04a6 8BD3D8FF 		.ascii	"\213\323\330\377\016\263\337\216\331\3372\263_z\276"
 243      0EB3DF8E 
 243      D9DF32B3 
 243      5F7ABE
 244 04b5 F9AF0AFB 		.ascii	"\371\257\012\373[\266\330oo{=\231\275e\320U=\243\375"
 244      5BB6D86F 
 244      6F7B3D99 
 244      BD65D055 
 244      3DA3FD
 245 04c8 ECC50756 		.ascii	"\354\305\007Vb&w\360(\275\3542\273\306\360,#/|mh\300"
 245      622677F0 
 245      28BDEC32 
 245      BBC6F02C 
 245      232F7C6D 
 246 04de 313713D2 		.ascii	"17\023\322w)H@7/\376\347\272wdyV\206&\303m\307\2109"
 246      77294840 
 246      372FFEE7 
 246      BA776479 
 246      568626C3 
ARM GAS  /tmp/ccQneqRX.s 			page 19


 247 04f6 84229ADA 		.ascii	"\204\"\232\332p\330Q\300~\262\003f\351GU\321\235F\260"
 247      70D851C0 
 247      7EB20366 
 247      E94755D1 
 247      9D46B0
 248 0509 B8633052 		.ascii	"\270c0R\262#F\260*\267\015\260^\326\222\0353\202\275"
 248      B22346B0 
 248      2AB70DB0 
 248      5ED6921D 
 248      3382BD
 249 051c EA188C94 		.ascii	"\352\030\214\224\354\270\021l\246\035\260~\326\222\235"
 249      ECB8116C 
 249      A61DB07E 
 249      D6929D
 250 052b 3482CD71 		.ascii	"4\202\315q\014FJ\366\231\021\254\332\016X\016E\262\304"
 250      0C464AF6 
 250      9911ACDA 
 250      0E580E45 
 250      B2C4
 251 053d 619580DC 		.ascii	"a\225\200\334\324\023(\230P\335Z@p\350\323\214\216\261"
 251      D4132898 
 251      50DD5A40 
 251      70E8D38C 
 251      8EB1
 252 054f D0ED3480 		.ascii	"\320\3554\200\021\375\206\331\273c\025[;Mn\316\323f"
 252      11FD86D9 
 252      BB63155B 
 252      3B4D6ECE 
 252      D366
 253 0561 D0257610 		.ascii	"\320%v\020S8L\365A\303t\034q\014F\232e\205\002v\020"
 253      53384CF5 
 253      41C3741C 
 253      710C469A 
 253      65850276 
 254 0576 83BD6D07 		.ascii	"\203\275m\007,\205\303\034A`\264\2049:]\236\311V6<\220"
 254      2C85C31C 
 254      4160B484 
 254      393A5D9E 
 254      C956363C 
 255 058b 32818218 		.ascii	"2\201\202\030\326\177=\216a\21394\275mpS\347I[X\035"
 255      D67F3D8E 
 255      618B3934 
 255      BD6D7053 
 255      E7495B58 
 256 05a0 B7D52977 		.ascii	"\267\325)w\031\206z\277\353P\221\316\375\017\240tt%"
 256      19867ABF 
 256      EB5091CE 
 256      FD0FA074 
 256      7425
 257 05b2 06DAE536 		.ascii	"\006\332\3456\307U\257i\312\365\222\223\242\327\253"
 257      C755AF69 
 257      CAF59293 
 257      A2D7AB
 258 05c1 9FC4B583 		.ascii	"\237\304\265\203\\\327\372Ei\254\306I\035g\030'-\216"
 258      5CD7FA45 
 258      69ACC649 
 258      1D671827 
ARM GAS  /tmp/ccQneqRX.s 			page 20


 258      2D8E
 259 05d3 ED4EFA78 		.ascii	"\355N\372x}\333Mn\221\034\255\344\015\253|V\317GZz\325"
 259      7DDB4D6E 
 259      911CADE4 
 259      0DAB7C56 
 259      CF475A7A 
 260 05e8 BEF35FB1 		.ascii	"\276\363_\261\201Vc\275\036\245\033\310\006P\307W\247"
 260      815663BD 
 260      1EA51BC8 
 260      0650C757 
 260      A7
 261 05f9 95C58D35 		.ascii	"\225\305\2155\030\350t\227\201:\247\257\030\212\201"
 261      18E87497 
 261      813AA7AF 
 261      188A81
 262 0608 D663A0B3 		.ascii	"\326c\240\263I\226fM\226fI\013$\236\361\324G\274_\252"
 262      4996664D 
 262      9666490B 
 262      249EF1D4 
 262      47BC5FAA 
 263 061c 2DC77C63 		.ascii	"-\307|c6\027\321\235\024\3213\021\222~\252aoT\311uy"
 263      3617D19D 
 263      14D13311 
 263      927EAA61 
 263      6F54C975 
 264 0631 0EECB554 		.ascii	"\016\354\265T\265\327\026\254\235\353I\332A\352w\326"
 264      B5D716AC 
 264      9DEB49DA 
 264      41EA77D6 
 265 0641 8D1F1D77 		.ascii	"\215\037\035w#\223\354\306\242x\027\272\261K\351\306"
 265      2393ECC6 
 265      A27817BA 
 265      B14BE9C6 
 266 0651 BBB81B72 		.ascii	"\273\270\033r\306\335wcf\206\323n\3642t\003?\336\275"
 266      C6DD7763 
 266      6686D36E 
 266      F4327403 
 266      3FDEBD
 267 0664 AE4C107D 		.ascii	"\256L\020}\231\232\324).\222g;\327\227\310/\243'\016"
 267      999AD429 
 267      2E92673B 
 267      D797C82F 
 267      A3270E
 268 0677 B139CAED 		.ascii	"\2619\312\355\364\217\2647\016\031\036\203d[\217A\355"
 268      F48FB437 
 268      0E191E83 
 268      645B8F41 
 268      ED
 269 0688 89C7A026 		.ascii	"\211\307\240&\254\262\271\031\224\001f\007*\322\261"
 269      ACB2B919 
 269      94016607 
 269      2AD2B1
 270 0697 0909BA0B 		.ascii	"\011\011\272\013\243\324v\025%\326\271\177\2532L\367"
 270      A3D47615 
 270      25D6B97F 
 270      AB324CF7 
 271 06a7 60A0A549 		.ascii	"`\240\245I\026\3140\0310\2034 \\\"N?\340\370\370\262"
ARM GAS  /tmp/ccQneqRX.s 			page 21


 271      16CC3019 
 271      30833420 
 271      5C224E3F 
 271      E0F8F8B2 
 272 06bb 7A075D78 		.ascii	"z\007]x\230\177:\035\307\274\205\305G\306\353J\326\215"
 272      987F3A1D 
 272      C7BC85C5 
 272      47C6EB4A 
 272      D68D
 273 06cd 1635FE51 		.ascii	"\0265\376Q\253e\027\212}6\336\025bUt\345<m\361`8J\011"
 273      AB65178A 
 273      7D36DE15 
 273      625574E5 
 273      3C6DF160 
 274 06e4 DEBB4BB8 		.ascii	"\336\273K\270\246\303\346\224\300\364\\s\334b\326\321"
 274      A6C3E694 
 274      C0F45C73 
 274      DC62D6D1 
 275 06f4 5655CEC5 		.ascii	"VU\316\305\224\360\376\011\207\304iJ2w+kz\260A7\014"
 275      94F0FE09 
 275      87C4694A 
 275      32772B6B 
 275      7AB04137 
 276 0709 4DACC6D1 		.ascii	"M\254\306\321A\343\004x\370n\315\320\366\275\311\014"
 276      41E30478 
 276      F86ECDD0 
 276      F6BDC90C 
 277 0719 27EE526F 		.ascii	"'\356Ro\267U3\244{\010\375\233\206\225\215;\3629f{\234"
 277      B75533A4 
 277      7B08FD9B 
 277      86958D3B 
 277      F239667B 
 278 072e 333D83BE 		.ascii	"3=\203\276w+6\235\255\302\243\030\375\227>P\264\177"
 278      772B369D 
 278      ADC2A318 
 278      FD973E50 
 278      B47F
 279 0740 E9956BB2 		.ascii	"\351\225k\262\225\265,\201\375\222\345TTZ\236\224V="
 279      95B52C81 
 279      FD92E554 
 279      545A9E94 
 279      563D
 280 0752 D1336273 		.ascii	"\3213bs\236\223\220\263_\0139\247\260._\361\230\215"
 280      9E9390B3 
 280      5F0B39A7 
 280      B02E5FF1 
 280      988D
 281 0764 BECB1CA5 		.ascii	"\276\313\034\245\035\015\272\331\036\226\354\216\335"
 281      1D0DBAD9 
 281      1E96EC8E 
 281      DD
 282 0771 67C9C461 		.ascii	"g\311\304a\345T\255F\247\372\273\347\256\\\000\234j"
 282      E554AD46 
 282      A7FABBE7 
 282      AE5C009C 
 282      6A
 283 0782 FF6AC5A9 		.ascii	"\377j\305\251\3229\201\234\330>\354\2059/\300\234cf"
ARM GAS  /tmp/ccQneqRX.s 			page 22


 283      D239819C 
 283      D83EEC85 
 283      392FC09C 
 283      6366
 284 0794 2FE8FCB1 		.ascii	"/\350\374\261y\206\272\220\030\263\345\005\337S\274"
 284      7986BA90 
 284      18B3E505 
 284      DF53BC
 285 07a3 20D6452F 		.ascii	" \326E/\000\227\376\352\000\213\341\224'\227m\011!\035"
 285      0097FEEA 
 285      008BE194 
 285      27976D09 
 285      211D
 286 07b5 5A4185FB 		.ascii	"ZA\205\373It\252\030\305\277\242\247\276D\363\320E\016"
 286      4974AA18 
 286      C5BFA2A7 
 286      BE44F3D0 
 286      450E
 287 07c7 ADD2EE4C 		.ascii	"\255\322\356Lr-E3\006"
 287      722D4533 
 287      06
 288 07d0 D7D2D528 		.ascii	"\327\322\325(\260g9\264By\216C+\224\377\300\365y\316"
 288      B06739B4 
 288      42798E43 
 288      2B94FFC0 
 288      F579CE
 289 07e3 B04E69E5 		.ascii	"\260Ni\345\026\0278\303\252\376Y\263\032\355>P\246e"
 289      161738C3 
 289      AAFE59B3 
 289      1AED3E50 
 289      A665
 290 07f5 D361F4BE 		.ascii	"\323a\364\276\375w\351}\365m\207\\x\341\315\301\222"
 290      FD77E97D 
 290      F56D875C 
 290      78E1CDC1 
 290      92
 291 0806 69FB3E6D 		.ascii	"i\373>m\340^\306\003\367\323$\355^2'\321v\326\020Ou"
 291      E05EC603 
 291      F7D324ED 
 291      5E3227D1 
 291      76D6104F 
 292 081b B52B8983 		.ascii	"\265+\211\203cb\036\033\21789\024\255'&\332\223j\226"
 292      63621E1B 
 292      8F383914 
 292      AD2726DA 
 292      936A96
 293 082e 96762152 		.ascii	"\226v!R\333\315=\037U\366\003n`O;k\322\205\215\365\314"
 293      DBCD3D1F 
 293      55F6036E 
 293      604F3B6B 
 293      D2858DF5 
 294 0843 6B98E4A6 		.ascii	"k\230\344\246y\0307,\372D\333\017\270ic\030WE\033\211"
 294      7918372C 
 294      FA44DB0F 
 294      B8696318 
 294      57451B89 
 295 0857 FD00CD03 		.ascii	"\375\000\315\003o\246\366\300\224\372$Lx\3230@~\300"
ARM GAS  /tmp/ccQneqRX.s 			page 23


 295      6FA6F6C0 
 295      94FA244C 
 295      78D33040 
 295      7EC0
 296 0869 03E4B671 		.ascii	"\003\344\266qPpLe\246\015\335\377\301\312\025!\014\035"
 296      50704C65 
 296      A60DDDFF 
 296      C1CA1521 
 296      0C1D
 297 087b 533662B4 		.ascii	"S6b\264\255\225Yf<Z \"\360\214\266\254\212V\267\342"
 297      AD955966 
 297      3C5A2022 
 297      F08CB6AC 
 297      8A56B7E2 
 298 088f 350FC547 		.ascii	"5\017\305Gk\354\010\227g\015\266\262VSn\007\316P\226"
 298      6BEC0897 
 298      670DB6B2 
 298      56536E07 
 298      CE5096
 299 08a2 DAC11B6A 		.ascii	"\332\301\033j\325\331\252\350\326\326e*\236\262\355"
 299      D5D9AAE8 
 299      D6D6652A 
 299      9EB2ED
 300 08b1 F0A6633C 		.ascii	"\360\246c<R\276\023\265D>\267\321\016\334\010\333\266"
 300      52BE13B5 
 300      443EB7D1 
 300      0EDC08DB 
 300      B6
 301 08c2 D777D960 		.ascii	"\327w\331`\262\306\3337\247\361\366\315y\\_\303\365"
 301      B2C6DB37 
 301      A7F1F6CD 
 301      795C5FC3 
 301      F5
 302 08d3 7C1C286B 		.ascii	"|\034(kq\275\000\327\213p\375&\2567\343\272\021\327"
 302      71BD00D7 
 302      8B70FD26 
 302      AE37E3BA 
 302      11D7
 303 08e5 DB707D1D 		.ascii	"\333p}\035\327wp\335\211\3538\256+yTO\343m\004\\S\016"
 303      D77770DD 
 303      89EB38AE 
 303      2B79544F 
 303      E36D045C 
 304 08fb 68DA4A7D 		.ascii	"h\332J}'\223\276\023\372*O\333\011\355h\375\271\326"
 304      2793BE13 
 304      FA2A4FDB 
 304      09ED68FD 
 304      B9D6
 305 090d 7A231965 		.ascii	"z#\031e{VR\314\340\211\315PM,B\226\335\026\262\314\242"
 305      7B5652CC 
 305      E089CD50 
 305      4D2C4296 
 305      DD16B2CC 
 306 0922 C9126DAC 		.ascii	"\311\022m\254\231s\277\374\006u\357=\305\246\354kf9"
 306      9973BFFC 
 306      0675EF3D 
 306      C5A6EC6B 
ARM GAS  /tmp/ccQneqRX.s 			page 24


 306      6639
 307 0934 EAF1432D 		.ascii	"\352\361C-!\307A\0139\346\222r\374\206yC\216\035\211"
 307      21C7410B 
 307      39E69272 
 307      FC867943 
 307      8E1D89
 308 0947 75B4FCD4 		.ascii	"u\264\374\324\300B\374j\206\321\011\031\326\203\332"
 308      C042FC6A 
 308      86D10919 
 308      D683DA
 309 0956 BB4228A1 		.ascii	"\273B(\241G\235T%\211$\246\337{T\270y\274\3237p\252"
 309      479D5425 
 309      8924A6DF 
 309      7B54B879 
 309      BCD33770 
 310 096b 79FA1B38 		.ascii	"y\372\0338\256\204\350'\023\242[\262\235\257\367\002"
 310      AE84E827 
 310      13A25BB2 
 310      9DAFF702 
 311 097b F5A03E1A 		.ascii	"\365\240>\032\355\374\370u\210)\220\022\377\014\362"
 311      EDFCF875 
 311      88299012 
 311      FF0CF2
 312 098a EBE22712 		.ascii	"\353\342'\022\212h\252M\227\344\375\023\013\316F\275"
 312      8A68AA4D 
 312      97E4FD13 
 312      0BCE46BD 
 313 099a 0C4FA196 		.ascii	"\014O\241\226\005\252Z\364\356\232/9\346L\372n.T\273"
 313      05AA5AF4 
 313      EE9A2F39 
 313      E64CFA6E 
 313      2E54BB
 314 09ad 39986994 		.ascii	"9\230i\224gF\307\300\240\003\334\3040\376_\346G\031"
 314      6746C7C0 
 314      A003DCC4 
 314      30FE5FE6 
 314      4719
 315 09bf B45E61F9 		.ascii	"\264^a\371\226\327\032\335\227\243\3435\354\213\331"
 315      96D71ADD 
 315      97A3E335 
 315      EC8BD9
 316 09ce 2AF812C7 		.ascii	"*\370\022\307\246[ja\272\013\331\014\241\265$\302\305"
 316      A65B6A61 
 316      BA0BD90C 
 316      A1B524C2 
 316      C5
 317 09df 7C229151 		.ascii	"|\"\221Q\034.zj\306\026\266:2\007f?\374F\003\222\205"
 317      1C2E7A6A 
 317      C616B63A 
 317      3207663F 
 317      FC460392 
 318 09f4 63BE306B 		.ascii	"c\2760k\204\220\032{;\307\\\206F\252\343\243\377\334"
 318      84901A7B 
 318      3BC75C86 
 318      46AAE3A3 
 318      FFDC
 319 0a06 895524CC 		.ascii	"\211U$\314i9\341\336*\014\313\214d>\002UE\3433\036\301"
ARM GAS  /tmp/ccQneqRX.s 			page 25


 319      6939E1DE 
 319      2A0CCB8C 
 319      643E0255 
 319      45E3331E 
 320 0a1b 76D334A7 		.ascii	"v\3234\247H&\260\313\370\337\030\372\325\314\031h9\215"
 320      4826B0CB 
 320      F8DF18FA 
 320      D5CC1968 
 320      398D
 321 0a2d 76FE6C3B 		.ascii	"v\376l;\264\325n\003-\257\321\326\332\242\375\314c\240"
 321      B4D56E03 
 321      2DAFD1D6 
 321      DAA2FDCC 
 321      63A0
 322 0a3f 7569B40B 		.ascii	"ui\264\013l\321F\272\351\352\215D\243\337_\206D_\306"
 322      6CD146BA 
 322      E9EA8D44 
 322      A3DF5F86 
 322      445FC6
 323 0a52 018E3216 		.ascii	"\001\2162\026\210\247\366\250\236i\303\374\302\246I"
 323      88A7F6A8 
 323      9E69C3FC 
 323      C2A649
 324 0a61 B6630D35 		.ascii	"\266c\0155\373\362!\013J\233\233\303D\300?L{\273\203"
 324      FBF2210B 
 324      4A9B9BC3 
 324      44C03F4C 
 324      7BBB83
 325 0a74 6C86A317 		.ascii	"l\206\243\027O&D\321;b\216r7}*\324\331\331\254<\203"
 325      4F2644D1 
 325      3B628E72 
 325      377D2AD4 
 325      D9D9AC3C 
 326 0a89 1CC4A178 		.ascii	"\034\304\241x!\307\251\200]J\222\243\361\2570\234iI"
 326      21C7A980 
 326      5D4A92A3 
 326      F1AF309C 
 326      6949
 327 0a9b 03BD7465 		.ascii	"\003\275te\345\332\357\362\246}\327\357\261\023;\021"
 327      E5DAEFF2 
 327      A67DD7EF 
 327      B1133B11 
 328 0aab 218710A1 		.ascii	"!\207\020\241z?Nf\020.\307\334\261\003\226\342\231\252"
 328      7A3F4E66 
 328      102EC7DC 
 328      B10396E2 
 328      99AA
 329 0abd C608F68A 		.ascii	"\306\010\366\212\327)X\216I\351Zf\320\300\243\314\340"
 329      D729588E 
 329      49E95A66 
 329      D0C0A3CC 
 329      E0
 330 0ace 1D3C7F37 		.ascii	"\035<\1777\342\372}\\o\343\211<q\216\327\374\270\240"
 330      E2FA7D5C 
 330      6FE3893C 
 330      718ED7FC 
 330      B8A0
ARM GAS  /tmp/ccQneqRX.s 			page 26


 331 0ae0 18D580A7 		.ascii	"\030\325\200\247\333\236I\217H\267\201\311X\233,\372"
 331      DB9E498F 
 331      48B781C9 
 331      589B2CFA 
 332 0af0 87DF03E4 		.ascii	"\207\337\003\344\211\265%KH\201\335\240\267\324b\021"
 332      89B5254B 
 332      4881DDA0 
 332      B7D46211 
 333 0b00 4F266702 		.ascii	"O&g\002\273\336q\000m\262\010\240\335\023*[\3445\207"
 333      BBDE7100 
 333      6DB208A0 
 333      DD132A5B 
 333      E43587
 334 0b13 C024B61F 		.ascii	"\300$\266\037B\210\3735\263\312\273\\Vl\245L\0161^\021"
 334      4288FB35 
 334      B3CABB5C 
 334      566CA54C 
 334      0E315E11 
 335 0b27 88981DEA 		.ascii	"\210\230\035\352d\230\331?\344\251\023\004\022u\243"
 335      6498D93F 
 335      E4A91304 
 335      1275A3
 336 0b36 411FC6FB 		.ascii	"A\037\306\373F=\011\354Gj?\223\017\253~\356&\343\375"
 336      463D09EC 
 336      476A3F93 
 336      0FAB7EEE 
 336      26E3FD
 337 0b49 D5EA58DB 		.ascii	"\325\352X\333\206\003\265\354\353rDK0\004v\017\016\371"
 337      8603B5EC 
 337      EB72444B 
 337      3004760F 
 337      0EF9
 338 0b5b 1D5E739A 		.ascii	"\035^s\232\"\260\373\3501\\\353\320\354\235\274\302"
 338      22B0FBE8 
 338      315CEBD0 
 338      EC9DBCC2 
 339 0b6b 41856EDD 		.ascii	"A\205n\335B\207^\336-\031\272\231\006\315\351\2722A"
 339      42875EDE 
 339      2D19BA99 
 339      06CDE9BA 
 339      3241
 340 0b7d EF6AA443 		.ascii	"\357j\244C\267S\240\017\322\240y]\352]$\364\216\255"
 340      B753A00F 
 340      D2A0795D 
 340      EA5D24F4 
 340      8EAD
 341 0b8f 74E8C559 		.ascii	"t\350\305Y\311\320\207h\320.\035zo>\001\275u\007\035"
 341      C9D08768 
 341      D02E1D7A 
 341      6F3E01BD 
 341      75071D
 342 0ba2 BA8D027D 		.ascii	"\272\215\002}\224\006\355\326\025\262\217\204n\334E"
 342      9406EDD6 
 342      15B28F84 
 342      6EDC45
 343 0bb1 875E909D 		.ascii	"\207^\220\235\014}\234\006\235\241K\3751\011\275\362"
 343      0C7D9C06 
ARM GAS  /tmp/ccQneqRX.s 			page 27


 343      9DA14BFD 
 343      3109BDF2 
 344 0bc1 1C1DBA95 		.ascii	"\034\035\272\225\002\335F\203\366\350R\177BB/\275@\207"
 344      02DD4683 
 344      F6E8527F 
 344      42422FBD 
 344      4087
 345 0bd3 9EDF3D19 		.ascii	"\236\337=\031\3724\015:S\227\372\020\011\275\350k:\364"
 345      FA340D3A 
 345      5397FA10 
 345      09BDE86B 
 345      3AF4
 346 0be5 610AF4E7 		.ascii	"a\012\364\3474h\257.\365a\022\272\366\012\035zn\217"
 346      3468AF2E 
 346      F56112BA 
 346      F60A1D7A 
 346      6E8F
 347 0bf7 64E8180D 		.ascii	"d\350\030\015\272\233.\365\011\022:~\235\016}\220\002"
 347      BA9B2EF5 
 347      09123A7E 
 347      9D0E7D90 
 347      02
 348 0c08 7D8E069D 		.ascii	"}\216\006\235\245K}\222\204\276s\223\016=\253g2\364"
 348      A54B7D92 
 348      84BE7393 
 348      0E3DAB67 
 348      32F4
 349 0c1a 791A74B6 		.ascii	"y\032t\266\016\335FB\337\372\221\016\3751\005\372+\032"
 349      0EDD4642 
 349      DFFA910E 
 349      FD3105FA 
 349      2B1A
 350 0c2c 74777CA2 		.ascii	"tw|\242\205v\323\274q \305$\177\211\247\177\250\240"
 350      8576D3BC 
 350      7120C524 
 350      7F89A77F 
 350      A8A0
 351 0c3e 3CFF5851 		.ascii	"<\377XQ}mIu4\005\257o,\251\320\343\247\025\325eK\252"
 351      7D6D4975 
 351      3405AF6F 
 351      2CA9D0E3 
 351      A715D565 
 352 0c54 D752507D 		.ascii	"\327RP}\253SY}sazA[`\2578\236\365\256Z\314z,\311\332"
 352      AB53597D 
 352      73617A41 
 352      5B60AF38 
 352      9EF5AE5A 
 353 0c6d FC61CA50 		.ascii	"\374a\312P\255\235G\305\271\346\230\363u\013\316\031"
 353      AD9D47C5 
 353      B9E698F3 
 353      750BCE19 
 354 0c7d 2A678C34 		.ascii	"*g\2144-\345R(\230\021/\203\244_\327\244\345\272\031"
 354      2DE55228 
 354      98112F83 
 354      A45FD7A4 
 354      E5BA19
 355 0c90 1AD4DF98 		.ascii	"\032\324\337\230D\006}\343\347kAeQ\365;\036\255~M\357"
ARM GAS  /tmp/ccQneqRX.s 			page 28


 355      44067DE3 
 355      E76B4165 
 355      51F53B1E 
 355      AD7E4DEF 
 356 0ca4 95F68D68 		.ascii	"\225\366\215h\022\007\011u\313\2343\327\266g\243\267"
 356      12070975 
 356      CB9C33D7 
 356      B667A3B7 
 357 0cb4 5A6EA5CF 		.ascii	"Zn\245\317\232_\231\026]\320\256\255I\335\340\361\232"
 357      9A5F9916 
 357      5DD0AEAD 
 357      49DDE0F1 
 357      9A
 358 0cc5 1916E156 		.ascii	"\031\026\341V\327\322f\300[\330\216\323L\005l\241c\260"
 358      D7D266C0 
 358      5BD88ED3 
 358      4C056CA1 
 358      63B0
 359 0cd7 1C02ACCE 		.ascii	"\034\002\254\316\010\266\304\016\230U\002\014`K\214"
 359      08B6C40E 
 359      9855020C 
 359      604B8C
 360 0ce6 602B1D83 		.ascii	"`+\035\203\221\222-3\202\255\266\003f\365\326\027\200"
 360      91922D33 
 360      82ADB603 
 360      66F5D617 
 360      80
 361 0cf7 AD3082AD 		.ascii	"\2550\202\255q\014FJVo\004\333`\007\314\352\255/\000"
 361      710C464A 
 361      566F04DB 
 361      6007CCEA 
 361      AD2F00
 362 0d0a 7BC708D6 		.ascii	"{\307\010\326\340\030\214\224\354]#\330V;`9\326\222"
 362      E0188C94 
 362      EC5D23D8 
 362      563B6039 
 362      D692
 363 0d1c BD6F046B 		.ascii	"\275o\004kr\014FJ\266\315\010\026\265\003f\265\244\015"
 363      720C464A 
 363      B6CD0816 
 363      B50366B5 
 363      A40D
 364 0d2e 601F18C1 		.ascii	"`\037\030\301\366:\006#%k2\2025\333\001\313\263\222"
 364      F63A0623 
 364      256B3282 
 364      35DB01CB 
 364      B392
 365 0d40 AC32BAF3 		.ascii	"\2542\272\363\257\325\2021\267G\250ZX1=\212\033\233"
 365      AFD58231 
 365      B747A85A 
 365      58313D8A 
 365      1B9B
 366 0d52 5D622D9B 		.ascii	"]b-\233\011\354\002\227\323H\274\320E\217\304\306\357"
 366      09EC0297 
 366      D348BCD0 
 366      458FC4C6 
 366      EF
ARM GAS  /tmp/ccQneqRX.s 			page 29


 367 0d63 C0F456D0 		.ascii	"\300\364V\320\355O\314\335&\245\240\365\233T\342\021"
 367      ED4FCCDD 
 367      26A5A0F5 
 367      9B54E211 
 368 0d73 A3128FD8 		.ascii	"\243\022\217\330Q\342\010k\260cF\260\023v\300\236\265"
 368      51E2086B 
 368      B06346B0 
 368      1376C09E 
 368      B5
 369 0d84 F695E346 		.ascii	"\366\225\343F\260S\216\301H\311N\032\301\316\330\001"
 369      B0538EC1 
 369      48C94E1A 
 369      C1CED801 
 370 0d94 1B632DD9 		.ascii	"\033c-\331gF\260/\034\203\031%\253\214\236\326\035\017"
 370      6746B02F 
 370      1C831925 
 370      AB8C9ED6 
 370      1D0F
 371 0da6 7D244378 		.ascii	"}$Cx\336\0102\332\022\315\014\236gj&\260\253]\332\272"
 371      DE0832DA 
 371      12CD0C9E 
 371      676A26B0 
 371      AB5DDABA 
 372 0dba EA55725D 		.ascii	"\352Ur]\365\252\276\256z\301,7\201\242\236\276HQ\002"
 372      F5AABEAE 
 372      7AC12C37 
 372      81A29EBE 
 372      485102
 373 0dcd ED30CEB4 		.ascii	"\3550\316\264\002\373\003^\367\270\215W&\356\340\272"
 373      02FB035E 
 373      F7B88D57 
 373      26EEE0BA 
 374 0ddd 13D7715C 		.ascii	"\023\327q\\W\272\360~\006\256_\305\365\014\\\317\302"
 374      57BAF07E 
 374      06AE5FC5 
 374      F50C5CCF 
 374      C2
 375 0dee F56BB89E 		.ascii	"\365k\270\236\213\353y\270\236\217\353Z\\\327\341z\011"
 375      8BEB79B8 
 375      9E8FEB5A 
 375      5CD7E17A 
 375      09
 376 0dff AE97E17A 		.ascii	"\256\227\341z\005\256#\270^\3452\254\202\230\362\273"
 376      05AE23B8 
 376      5EE532AC 
 376      8298F2BB 
 377 0e0f EF52AC77 		.ascii	"\357R\254w\274\355J\344wh\303!z5\266m\315\351\211\332"
 377      BCED4AE4 
 377      7768C321 
 377      7A35B66D 
 377      CDE989DA 
 378 0e23 07940F29 		.ascii	"\007\224\017)\037\361q\314\253\275\315\0114\365\263"
 378      1FF171CC 
 378      ABBDCD09 
 378      34F5B3
 379 0e32 BD35AE94 		.ascii	"\2755\256\224\237\355\255u%\355p\000\303\216\365\327"
 379      9FEDAD75 
ARM GAS  /tmp/ccQneqRX.s 			page 30


 379      25ED7000 
 379      C38EF5D7 
 380 0e42 FF6B23FA 		.ascii	"\377k#\372\214@\3769\376r\345+\254\366\011c\003\235"
 380      8C40FE39 
 380      FE72E52B 
 380      ACF60963 
 380      039D
 381 0e54 A74C7EC2 		.ascii	"\247L~\302\270\336e\372\204q\003\225\311\222\363G\226"
 381      B8DE65FA 
 381      84710395 
 381      C992F347 
 381      96
 382 0e65 B0F3A7C9 		.ascii	"\260\363\247\311\312\226N$Sc\262\303\026\223Mf&\233"
 382      CA964E24 
 382      5363B2C3 
 382      16934D66 
 382      269B
 383 0e77 A94C966E 		.ascii	"\251L\226n\276\376\354m\275'\017\331\337\257ip\231\366"
 383      BEFEEC6D 
 383      BD270FD9 
 383      DFAF6970 
 383      99F6
 384 0e89 6B2E25EF 		.ascii	"k.%\357\327\\#DU\327\272\343\275\325\034\371w\314\233"
 384      D75C2344 
 384      55D7BAE3 
 384      BDD51CF9 
 384      77CC9B
 385 0e9c B25C231F 		.ascii	"\262\\#\037\335\237]\315j\237\035\315\355\203\227\363"
 385      DD9F5DCD 
 385      6A9F1DCD 
 385      ED8397F3 
 386 0eac 74A398F2 		.ascii	"t\243\230\362Vuk^\355\361\215\3121\375\022=\2567\367"
 386      56756B5E 
 386      EDF18DCA 
 386      31FD123D 
 386      AE37F7
 387 0ebf B891DAE3 		.ascii	"\270\221\332\343\355k\366\224l'l\247\370Km\037[\376"
 387      ED6BF694 
 387      6C276CA7 
 387      F84B6D1F 
 387      5BFE
 388 0ed1 B23DB5BF 		.ascii	"\262=\265\277|@\345\271\254\261\245\177\222\203\036"
 388      7C40E5B9 
 388      ACB1A57F 
 388      92831E
 389 0ee0 B1C7B029 		.ascii	"\261\307\260)5\303\017\251\014\353\266\236~4\211aM_"
 389      35C30FA9 
 389      0CEBB69E 
 389      7E348961 
 389      4D5F
 390 0ef2 5B0C77A5 		.ascii	"[\014w\245f\030\265\030\021\307\212i#\342-:O\223\263"
 390      6618B518 
 390      11C78A69 
 390      23E22D3A 
 390      4F93B3
 391 0f05 EE319BEE 		.ascii	"\3561\233\356#\253\021\261\2346\"\032l1\331gf\262\237"
 391      23AB11B1 
ARM GAS  /tmp/ccQneqRX.s 			page 31


 391      9C36221A 
 391      6C31D967 
 391      66B29F
 392 0f18 64C2B8FC 		.ascii	"d\302\270\374\305B\350\327\003\006\344\226\205sCRnI"
 392      C542E8D7 
 392      0306E496 
 392      85734352 
 392      6E49
 393 0f2a D01FA828 		.ascii	"\320\037\250(\022s\375\305\341\251aij\271\030\036P\314"
 393      1273FDC5 
 393      E1A96169 
 393      6AB9181E 
 393      50CC
 394 0f3c 78D17949 		.ascii	"x\321yI\251\350\2232\236\371\313\0139\005L\377\334\212"
 394      A9E89332 
 394      9EF9CB0B 
 394      39054CFF 
 394      DC8A
 395 0f4e 7028D136 		.ascii	"p(\3216(N\016\224\274\224\033\226\212J\202\0224\317"
 395      284E0E94 
 395      BC941B96 
 395      8A4A8212 
 395      34CF
 396 0f60 AC80DFFC 		.ascii	"\254\200\337\374!>\351qZ\263R\301_\\\022\024s}E\342"
 396      213EE971 
 396      5AB352C1 
 396      5F5C1214 
 396      737D45E2 
 397 0f74 78A12220 		.ascii	"x\241\" \3714.\335|>\215\360\267 \217$\206%$Q\270\254"
 397      F9342EDD 
 397      7C3E8DF0 
 397      B7208F24 
 397      86252451 
 398 0f8a 22E41795 		.ascii	"\"\344\027\225KT\371Bee\322\000?s\017\276(\017\001\211"
 398      4B54F942 
 398      6565D200 
 398      3F730FBE 
 398      280F0189 
 399 0f9e AFBC     		.ascii	"\257\274"
 400 0fa0 2C24F94A 		.ascii	",$\371J\202\343\313\356\3037%1TZ\022\024$\020\2708$"
 400      82E3CBEE 
 400      C3372531 
 400      545A1214 
 400      2410B838 
 401 0fb5 0A45E1DE 		.ascii	"\012E\341\336\370\366d\241D\322\356\3640\334)\361O\274"
 401      F8F664A1 
 401      44D2EEF4 
 401      30DC29F1 
 401      4FBC
 402 0fc7 4F638824 		.ascii	"Oc\210$\364\027\373\3209\210\224\255\363\010\004\273"
 402      F417FBD0 
 402      398894AD 
 402      F30804BB 
 403 0fd7 E917FD29 		.ascii	"\351\027\375)\372R\201Q\377\225S\237\344EH\370\374W"
 403      FA528151 
 403      FF95539F 
 403      E44548F8 
ARM GAS  /tmp/ccQneqRX.s 			page 32


 403      FC57
 404 0fe9 3405FB8B 		.ascii	"4\005\373\213\213\240uO\225\320\367?\025b\005H\334+"
 404      8BA0754F 
 404      95D0F73F 
 404      15620548 
 404      DC2B
 405 0ffb 41A4DE72 		.ascii	"A\244\336r\005"
 405      05
 406 1000 C52992AB 		.ascii	"\305)\222\253<$Nr\343\353\201\012\226\277\254\264\264"
 406      3C244E72 
 406      E3EB810A 
 406      96BFACB4 
 406      B4
 407 1011 2C988BBA 		.ascii	",\230\213\272\036\316}\252pt\301\350)\350^yI@\014\205"
 407      1ECE7DAA 
 407      7074C1E8 
 407      29E85E79 
 407      49400C85 
 408 1025 739F2928 		.ascii	"s\237)(@2\251\252\365H v\231O\302\226\0314\320'\251"
 408      4032A9AA 
 408      F5482076 
 408      994FC296 
 408      1934D027 
 409 103a BA46A72E 		.ascii	"\272F\247.\364W6\326\240\277,(\001\257\337\246`P\354"
 409      F45736D6 
 409      A0BF2C28 
 409      01AFDFA6 
 409      6050EC
 410 104d 2F0B8980 		.ascii	"/\013\211\200\230\245\252\\\362KS\036I\327\3367\351"
 410      98A5AA5C 
 410      F24B531E 
 410      49D7DE37 
 410      E9
 411 105e C952A497 		.ascii	"\311R\244\227\2208A\010\225\372$.4\230\013=\301\205"
 411      90384108 
 411      95FA242E 
 411      34980B3D 
 411      C185
 412 1070 8670A127 		.ascii	"\206p\241'\271\320P.4\214\017\345\347A\311\347\002!"
 412      B9D0502E 
 412      348C0FE5 
 412      E741C9E7 
 412      0221
 413 1082 2E5CCE03 		.ascii	".\\\316\003\250\033\334E\014\271\313\002Eb\310\025\024"
 413      A81BDC45 
 413      0CB9CB02 
 413      4562C815 
 413      14
 414 1093 4AC56E61 		.ascii	"J\305nai\242\020(\231\020T\2731dp\242\033\3504c\262"
 414      69A21028 
 414      991054BB 
 414      316470A2 
 414      1BE83463 
 415 10a8 F0921016 		.ascii	"\360\222\020\0263\245\260\204\015\357A\177\014\005\033"
 415      33A5B084 
 415      0DEF417F 
 415      0C051B
ARM GAS  /tmp/ccQneqRX.s 			page 33


 416 10b7 284DE0CC 		.ascii	"(M\340\314\215\377\361H\245eE\360\277{|@\230\020\366"
 416      8DFFF148 
 416      A56545F0 
 416      BF7B7C40 
 416      9810F6
 417 10ca 4821717C 		.ascii	"H!q|\030\224\200~\334\245\341\011@\250\352\005\010\325"
 417      1894807E 
 417      DCA5E109 
 417      40A8EA05 
 417      08D5
 418 10dc B38C50D1 		.ascii	"\263\214P\321T\370+S\234R\"\371\2018c\262T\366\322\177"
 418      54F82B53 
 418      9C5222F9 
 418      813863B2 
 418      54F6D27F 
 419 10f0 97F751CD 		.ascii	"\227\367Q\315\014\244bH\014\372\021\350dI\012\225{\302"
 419      0CA46248 
 419      0CFA11E8 
 419      64490A95 
 419      7BC2
 420 1102 62500282 		.ascii	"bP\002\202l\260dX,\025\312\213A\007\367\323<@Djq\373"
 420      6CB06458 
 420      2C15CA8B 
 420      4107F7D3 
 420      3C40446A 
 421 1118 C183251E 		.ascii	"\301\203%\036j\000\206[\345\231@WZ\001\226\240\321\224"
 421      6A00865B 
 421      E5994057 
 421      5A0196A0 
 421      D194
 422 112a 4A53104D 		.ascii	"JS\020M\331\344\240\030\362\340V\250\357\022\334.\317"
 422      D9E4A018 
 422      F2E056A8 
 422      EF12DC2E 
 422      CF
 423 113b 122721C6 		.ascii	"\022'!\306Bx\"\334\022'\243\023\266\242\207\346K\201"
 423      427822DC 
 423      1227A313 
 423      B6A287E6 
 423      4B81
 424 114d 1234327A 		.ascii	"\02242z\032\274\013\335\361\240!P\022\234\220\011\362"
 424      1ABC0BDD 
 424      F1A02150 
 424      129C9009 
 424      F2
 425 115e 62EFCA14 		.ascii	"b\357\312\024\313\305 \014\344\011\036\200D-\300jB\000"
 425      CBC5200C 
 425      E4091E80 
 425      442DC06A 
 425      4200
 426 1170 F988BBB4 		.ascii	"\371\210\273\264\274\254,\320\303_<\256\270h\2346\302"
 426      BCAC2CD0 
 426      C35F3CAE 
 426      B8689C36 
 426      C2
 427 1181 BCF8F23F 		.ascii	"\274\370\362?\000\244\033>\033\033\020\305r\217\312"
 427      00A41B3E 
ARM GAS  /tmp/ccQneqRX.s 			page 34


 427      1B1B10C5 
 427      728FCA
 428 1190 819B2C64 		.ascii	"\201\233,d\341A\363R\305x\320\221\007\233O,r\207E\251"
 428      E141F352 
 428      C578D091 
 428      079B4F2C 
 428      728745A9 
 429 11a4 A23C5312 		.ascii	"\242<S\022\205P\021\364\303#N\021\375\320\021<\276\374"
 429      855011F4 
 429      C3234E11 
 429      FDD0113C 
 429      BEFC
 430 11b6 6043B02B 		.ascii	"`C\260+\246\012W\224Hb\257\001E\202$\014\320o\3741U"
 430      A60A5794 
 430      4862AF01 
 430      4582240C 
 430      D06FFC31 
 431 11cb 6C088BD0 		.ascii	"l\010\213\320\011d\212\274\274|PS\357\244\233v\251\007"
 431      09648ABC 
 431      BC7C5053 
 431      EFA49B76 
 431      A907
 432 11dd D2A807DA 		.ascii	"\322\250\007\332\245\036D\243\036d\227z0\215z\260]\352"
 432      A51E44A3 
 432      1E64977A 
 432      308D7AB0 
 432      5DEA
 433 11ef 2768D44F 		.ascii	"'h\324O\330\245\036B\243\036b\227\372I\032\365\223v"
 433      D8A51E42 
 433      A31E6297 
 433      FA491AF5 
 433      9376
 434 1201 A987D2A8 		.ascii	"\251\207\322\250\207\332\245\036F\243\036f\223:?\217"
 434      87DAA51E 
 434      46A31E66 
 434      933A3F8F 
 435 1211 429D9F67 		.ascii	"B\235\237g\227\232\346k\371v}-\237\346k\371v}-\237\346"
 435      979AE66B 
 435      F9767D2D 
 435      9FE66BF9 
 435      767D2D9F 
 436 1226 6BF983FE 		.ascii	"k\371\203\376\244\204\216b!\240\006\344\261\343F\017"
 436      A4848E62 
 436      21A006E4 
 436      B1E3460F 
 437 1236 1A98FBFC 		.ascii	"\032\230\373\374\363#s\307=7zR>\314\326\245(\266\225"
 437      F32373C7 
 437      3D377A52 
 437      3ECCD6A5 
 437      28B695
 438 1249 A0089495 		.ascii	"\240\010\224\225\270\2008TP\230\017e\240k\354\350\202"
 438      B8803854 
 438      50980F65 
 438      A06BECE8 
 438      82
 439 125a 42D7C8E7 		.ascii	"B\327\310\347F\025rc\013\371Q\317\024\272\013\012F\027"
 439      46157263 
ARM GAS  /tmp/ccQneqRX.s 			page 35


 439      0BF951CF 
 439      14BA0B0A 
 439      4617
 440 126c E6E37AA0 		.ascii	"\346\343z\240\253\240`T!_\360\227q\374\230\261\005\374"
 440      ABA06054 
 440      215FF097 
 440      71FC98B1 
 440      05FC
 441 127e 5385857C 		.ascii	"S\205\205|a\001\\\003\301\323#\307\025\362#\021\345"
 441      61015C03 
 441      C1D323C7 
 441      15F22311 
 441      E5
 442 128f E8A70AB9 		.ascii	"\350\247\012\271\177S\250\006A\373\027\013\373Q\242"
 442      7F53A806 
 442      41FB170B 
 442      FB51A2
 443 129e D92434CB 		.ascii	"\331$4\313\366\366\027\377\373\270gDi,d\031b\3518H4"
 443      F6F617FF 
 443      FBB86744 
 443      692C6419 
 443      62E93848 
 444 12b3 A8C1722A 		.ascii	"\250\301r*NE\374\305\320\354\3712\377D/\236\201\002"
 444      4E45FCC5 
 444      D0ECF932 
 444      FF442F9E 
 444      8102
 445 12c5 70F64762 		.ascii	"p\366Gb\376\201\011,\267`\364\330\347\306\352\264\245"
 445      FE81092C 
 445      B760F4D8 
 445      E7C6EAB4 
 445      A5
 446 12d6 E192B06F 		.ascii	"\341\222\260o\202\337\017\364\335}\240&\311\367\364"
 446      82DF0FF4 
 446      DD7DA026 
 446      C9F7F4
 447 12e5 5363478D 		.ascii	"ScG\215)|\256\273\020\230,L\015C\240\017@J\342\236$"
 447      297CAEBB 
 447      10982C4C 
 447      0D43A00F 
 447      404AE29E 
 448 12fa 042AC43E 		.ascii	"\004*\304>I\322\274\370h\332\011\016eG!\200\357\213"
 448      49D2BCF8 
 448      68DA090E 
 448      65472180 
 448      EF8B
 449 130c 85C257BE 		.ascii	"\205\302W\276\011\242r\366x:S\300?>0_ \200\322\201>"
 449      09A272F6 
 449      783A53C0 
 449      3F3E305F 
 449      2080D281 
 450 1321 CA19A6F6 		.ascii	"\312\031\246\366\227U\300\204\034\312\302}~!\210\372"
 450      9755C084 
 450      1CCAC27D 
 450      7E2188FA 
 451 1331 AACCBB15 		.ascii	"\252\314\273\025\370\374\377\001\355\204N\361"
 451      F8FCFF01 
ARM GAS  /tmp/ccQneqRX.s 			page 36


 451      ED844EF1 
 452              		.text
 453              		.section	.gnu.lto_.symtab.740bfd153261cb2b,"",%progbits
 454 0000 74657374 		.ascii	"test_print_port_info\000\000\000\000\000\000\000\000"
 454      5F707269 
 454      6E745F70 
 454      6F72745F 
 454      696E666F 
 455 001c 00000000 		.ascii	"\000\000\000\000\272\000\000\000test_terminate_thre"
 455      BA000000 
 455      74657374 
 455      5F746572 
 455      6D696E61 
 456 0037 61647300 		.ascii	"ads\000\000\000\000\000\000\000\000\000\000\000\000"
 456      00000000 
 456      00000000 
 456      000000
 457 0046 BE000000 		.ascii	"\276\000\000\000threads\000\000\000\000\000\000\000"
 457      74687265 
 457      61647300 
 457      00000000 
 457      0000
 458 0058 00000000 		.ascii	"\000\000\000\000\000\216\001\000\000test_wait_threa"
 458      008E0100 
 458      00746573 
 458      745F7761 
 458      69745F74 
 459 0070 64730000 		.ascii	"ds\000\000\000\000\000\000\000\000\000\000\000\000\301"
 459      00000000 
 459      00000000 
 459      0000C1
 460 007f 00000074 		.ascii	"\000\000\000test_wait_tick\000\000\000\000\000\000\000"
 460      6573745F 
 460      77616974 
 460      5F746963 
 460      6B000000 
 461 0097 00000000 		.ascii	"\000\000\000\000\000\304\000\000\000wa\000\000\000\000"
 461      00C40000 
 461      00776100 
 461      000000
 462 00a6 00000000 		.ascii	"\000\000\000\000\000\000\000\000\222\001\000\000tes"
 462      00000000 
 462      92010000 
 462      746573
 463 00b5 745F6275 		.ascii	"t_buffer\000\000\000\000\000\000\000\000\000\000\000"
 463      66666572 
 463      00000000 
 463      00000000 
 463      000000
 464 00c8 009C0100 		.ascii	"\000\234\001\000\000test_suite\000\000\000\000\000\000"
 464      00746573 
 464      745F7375 
 464      69746500 
 464      00000000 
 465 00dd 00000000 		.ascii	"\000\000\000\000\000\000\251\001\000\000test_sequen"
 465      0000A901 
 465      00007465 
ARM GAS  /tmp/ccQneqRX.s 			page 37


 465      73745F73 
 465      65717565 
 466 00f2 63655F30 		.ascii	"ce_001\000\000\002\000\000\000\000\000\000\000\000\000"
 466      30310000 
 466      02000000 
 466      00000000 
 466      0000
 467 0104 C4010000 		.ascii	"\304\001\000\000test_sequence_002\000\000\002\000\000"
 467      74657374 
 467      5F736571 
 467      75656E63 
 467      655F3030 
 468 011e 00000000 		.ascii	"\000\000\000\000\000\000\000\307\001\000\000test_se"
 468      000000C7 
 468      01000074 
 468      6573745F 
 468      7365
 469 0130 7175656E 		.ascii	"quence_003\000\000\002\000\000\000\000\000\000\000\000"
 469      63655F30 
 469      30330000 
 469      02000000 
 469      00000000 
 470 0145 00CA0100 		.ascii	"\000\312\001\000\000test_sequence_004\000\000\002\000"
 470      00746573 
 470      745F7365 
 470      7175656E 
 470      63655F30 
 471 015f 00000000 		.ascii	"\000\000\000\000\000\000\000\000\315\001\000\000tes"
 471      00000000 
 471      CD010000 
 471      746573
 472 016e 745F7365 		.ascii	"t_sequence_005\000\000\002\000\000\000\000\000\000\000"
 472      7175656E 
 472      63655F30 
 472      30350000 
 472      02000000 
 473 0186 0000D001 		.ascii	"\000\000\320\001\000\000test_sequence_006\000\000\002"
 473      00007465 
 473      73745F73 
 473      65717565 
 473      6E63655F 
 474 01a0 00000000 		.ascii	"\000\000\000\000\000\000\000\000\000\323\001\000\000"
 474      00000000 
 474      00D30100 
 474      00
 475 01ad 74657374 		.ascii	"test_sequence_007\000\000\002\000\000\000\000\000\000"
 475      5F736571 
 475      75656E63 
 475      655F3030 
 475      37000002 
 476 01c7 000000D6 		.ascii	"\000\000\000\326\001\000\000test_sequence_008\000\000"
 476      01000074 
 476      6573745F 
 476      73657175 
 476      656E6365 
 477 01e1 02000000 		.ascii	"\002\000\000\000\000\000\000\000\000\000\331\001\000"
 477      00000000 
ARM GAS  /tmp/ccQneqRX.s 			page 38


 477      0000D901 
 477      00
 478 01ee 00746573 		.ascii	"\000test_sequence_009\000\000\002\000\000\000\000\000"
 478      745F7365 
 478      7175656E 
 478      63655F30 
 478      30390000 
 479 0208 00000000 		.ascii	"\000\000\000\000\334\001\000\000test_sequence_010\000"
 479      DC010000 
 479      74657374 
 479      5F736571 
 479      75656E63 
 480 0222 00020000 		.ascii	"\000\002\000\000\000\000\000\000\000\000\000\337\001"
 480      00000000 
 480      000000DF 
 480      01
 481 022f 00007465 		.ascii	"\000\000test_sequence_011\000\000\002\000\000\000\000"
 481      73745F73 
 481      65717565 
 481      6E63655F 
 481      30313100 
 482 0249 00000000 		.ascii	"\000\000\000\000\000\342\001\000\000test_sequence_0"
 482      00E20100 
 482      00746573 
 482      745F7365 
 482      7175656E 
 483 0261 31320000 		.ascii	"12\000\000\002\000\000\000\000\000\000\000\000\000\345"
 483      02000000 
 483      00000000 
 483      0000E5
 484 0270 01000074 		.ascii	"\001\000\000test_sequence_013\000\000\002\000\000\000"
 484      6573745F 
 484      73657175 
 484      656E6365 
 484      5F303133 
 485 028a 00000000 		.ascii	"\000\000\000\000\000\000\350\001\000\000test_printl"
 485      0000E801 
 485      00007465 
 485      73745F70 
 485      72696E74 
 486 029f 6E000002 		.ascii	"n\000\000\002\000\000\000\000\000\000\000\000\000\310"
 486      00000000 
 486      00000000 
 486      00C8
 487 02ad 00000074 		.ascii	"\000\000\000test_print\000\000\002\000\000\000\000\000"
 487      6573745F 
 487      7072696E 
 487      74000002 
 487      00000000 
 488 02c2 00000000 		.ascii	"\000\000\000\000\316\000\000\000chThdTerminate\000\000"
 488      CE000000 
 488      63685468 
 488      64546572 
 488      6D696E61 
 489 02da 02000000 		.ascii	"\002\000\000\000\000\000\000\000\000\000\320\000\000"
 489      00000000 
 489      0000D000 
ARM GAS  /tmp/ccQneqRX.s 			page 39


 489      00
 490 02e7 00636854 		.ascii	"\000chThdWait\000\000\002\000\000\000\000\000\000\000"
 490      68645761 
 490      69740000 
 490      02000000 
 490      00000000 
 491 02fb 00008601 		.ascii	"\000\000\206\001\000\000chThdSleep\000\000\002\000\000"
 491      00006368 
 491      54686453 
 491      6C656570 
 491      00000200 
 492 0310 00000000 		.ascii	"\000\000\000\000\000\000\000\212\001\000\000"
 492      0000008A 
 492      010000
 493              		.text
 494              		.section	.gnu.lto_.opts,"",%progbits
 495 0000 272D6D63 		.ascii	"'-mcpu=cortex-m3' '-mno-thumb-interwork' '-mthumb' "
 495      70753D63 
 495      6F727465 
 495      782D6D33 
 495      2720272D 
 496 0033 272D6767 		.ascii	"'-ggdb' '-O2' '-fomit-frame-pointer' '-falign-funct"
 496      64622720 
 496      272D4F32 
 496      2720272D 
 496      666F6D69 
 497 0066 696F6E73 		.ascii	"ions=16' '-ffunction-sections' '-fdata-sections' '-"
 497      3D313627 
 497      20272D66 
 497      66756E63 
 497      74696F6E 
 498 0099 666E6F2D 		.ascii	"fno-common' '-flto'\000"
 498      636F6D6D 
 498      6F6E2720 
 498      272D666C 
 498      746F2700 
 499              		.text
 500              		.cfi_sections	.debug_frame
 501              		.section	.text.test_print_port_info,"ax",%progbits
 502              		.align	2
 503              		.p2align 4,,15
 504              		.global	test_print_port_info
 505              		.thumb
 506              		.thumb_func
 507              		.type	test_print_port_info, %function
 508              	test_print_port_info:
 509              	.LFB219:
 510              		.file 1 "../test/rt/source/test/test_root.c"
 511              		.loc 1 95 0
 512              		.cfi_startproc
 513              		@ args = 0, pretend = 0, frame = 0
 514              		@ frame_needed = 0, uses_anonymous_args = 0
 515              		.loc 1 98 0
 516 0000 40F20000 		movw	r0, #:lower16:.LC0
 517              		.loc 1 95 0
 518 0004 08B5     		push	{r3, lr}
 519              		.cfi_def_cfa_offset 8
ARM GAS  /tmp/ccQneqRX.s 			page 40


 520              		.cfi_offset 3, -8
 521              		.cfi_offset 14, -4
 522              		.loc 1 98 0
 523 0006 C0F20000 		movt	r0, #:upper16:.LC0
 524 000a FFF7FEFF 		bl	test_print
 525              	.LVL0:
 526              		.loc 1 99 0
 527 000e 40F20000 		movw	r0, #:lower16:.LC1
 528 0012 C0F20000 		movt	r0, #:upper16:.LC1
 529 0016 FFF7FEFF 		bl	test_println
 530              	.LVL1:
 531              		.loc 1 101 0
 532 001a 40F20000 		movw	r0, #:lower16:.LC2
 533 001e C0F20000 		movt	r0, #:upper16:.LC2
 534 0022 FFF7FEFF 		bl	test_print
 535              	.LVL2:
 536              		.loc 1 102 0
 537 0026 40F20000 		movw	r0, #:lower16:.LC3
 538 002a C0F20000 		movt	r0, #:upper16:.LC3
 539 002e FFF7FEFF 		bl	test_println
 540              	.LVL3:
 541              		.loc 1 104 0
 542 0032 40F20000 		movw	r0, #:lower16:.LC4
 543 0036 C0F20000 		movt	r0, #:upper16:.LC4
 544 003a FFF7FEFF 		bl	test_print
 545              	.LVL4:
 546              		.loc 1 105 0
 547 003e 40F20000 		movw	r0, #:lower16:.LC5
 548 0042 C0F20000 		movt	r0, #:upper16:.LC5
 549 0046 FFF7FEFF 		bl	test_println
 550              	.LVL5:
 551              		.loc 1 108 0
 552 004a 40F20000 		movw	r0, #:lower16:.LC6
 553 004e C0F20000 		movt	r0, #:upper16:.LC6
 554 0052 FFF7FEFF 		bl	test_print
 555              	.LVL6:
 556              		.loc 1 111 0
 557 0056 BDE80840 		pop	{r3, lr}
 558              		.loc 1 109 0
 559 005a 40F20000 		movw	r0, #:lower16:.LC7
 560 005e C0F20000 		movt	r0, #:upper16:.LC7
 561 0062 FFF7FEBF 		b	test_println
 562              	.LVL7:
 563              		.cfi_endproc
 564              	.LFE219:
 565              		.size	test_print_port_info, .-test_print_port_info
 566 0066 00BFAFF3 		.section	.text.test_terminate_threads,"ax",%progbits
 566      0080AFF3 
 566      0080
 567              		.align	2
 568              		.p2align 4,,15
 569              		.global	test_terminate_threads
 570              		.thumb
 571              		.thumb_func
 572              		.type	test_terminate_threads, %function
 573              	test_terminate_threads:
 574              	.LFB220:
ARM GAS  /tmp/ccQneqRX.s 			page 41


 575              		.loc 1 135 0
 576              		.cfi_startproc
 577              		@ args = 0, pretend = 0, frame = 0
 578              		@ frame_needed = 0, uses_anonymous_args = 0
 579              	.LVL8:
 580 0000 38B5     		push	{r3, r4, r5, lr}
 581              		.cfi_def_cfa_offset 16
 582              		.cfi_offset 3, -16
 583              		.cfi_offset 4, -12
 584              		.cfi_offset 5, -8
 585              		.cfi_offset 14, -4
 586 0002 064C     		ldr	r4, .L10
 587 0004 04F11405 		add	r5, r4, #20
 588              	.LVL9:
 589              	.L5:
 590              		.loc 1 139 0
 591 0008 54F8043F 		ldr	r3, [r4, #4]!
 592              		.loc 1 140 0
 593 000c 1846     		mov	r0, r3
 594              		.loc 1 139 0
 595 000e 0BB1     		cbz	r3, .L3
 596              		.loc 1 140 0
 597 0010 FFF7FEFF 		bl	chThdTerminate
 598              	.LVL10:
 599              	.L3:
 600              		.loc 1 138 0
 601 0014 AC42     		cmp	r4, r5
 602 0016 F7D1     		bne	.L5
 603              		.loc 1 141 0
 604 0018 38BD     		pop	{r3, r4, r5, pc}
 605              	.L11:
 606 001a 00BF     		.align	2
 607              	.L10:
 608 001c FCFFFFFF 		.word	.LANCHOR0-4
 609              		.cfi_endproc
 610              	.LFE220:
 611              		.size	test_terminate_threads, .-test_terminate_threads
 612              		.section	.text.test_wait_threads,"ax",%progbits
 613              		.align	2
 614              		.p2align 4,,15
 615              		.global	test_wait_threads
 616              		.thumb
 617              		.thumb_func
 618              		.type	test_wait_threads, %function
 619              	test_wait_threads:
 620              	.LFB221:
 621              		.loc 1 146 0
 622              		.cfi_startproc
 623              		@ args = 0, pretend = 0, frame = 0
 624              		@ frame_needed = 0, uses_anonymous_args = 0
 625              	.LVL11:
 626 0000 70B5     		push	{r4, r5, r6, lr}
 627              		.cfi_def_cfa_offset 16
 628              		.cfi_offset 4, -16
 629              		.cfi_offset 5, -12
 630              		.cfi_offset 6, -8
 631              		.cfi_offset 14, -4
ARM GAS  /tmp/ccQneqRX.s 			page 42


 632 0002 40F20004 		movw	r4, #:lower16:.LANCHOR0
 633 0006 C0F20004 		movt	r4, #:upper16:.LANCHOR0
 634 000a 04F11405 		add	r5, r4, #20
 635              		.loc 1 152 0
 636 000e 0026     		movs	r6, #0
 637              	.LVL12:
 638              	.L15:
 639              		.loc 1 150 0
 640 0010 54F8043B 		ldr	r3, [r4], #4
 641              		.loc 1 151 0
 642 0014 1846     		mov	r0, r3
 643              		.loc 1 150 0
 644 0016 1BB1     		cbz	r3, .L13
 645              		.loc 1 151 0
 646 0018 FFF7FEFF 		bl	chThdWait
 647              	.LVL13:
 648              		.loc 1 152 0
 649 001c 44F8046C 		str	r6, [r4, #-4]
 650              	.L13:
 651              		.loc 1 149 0
 652 0020 AC42     		cmp	r4, r5
 653 0022 F5D1     		bne	.L15
 654              		.loc 1 154 0
 655 0024 70BD     		pop	{r4, r5, r6, pc}
 656              		.cfi_endproc
 657              	.LFE221:
 658              		.size	test_wait_threads, .-test_wait_threads
 659 0026 00BFAFF3 		.section	.text.test_wait_tick,"ax",%progbits
 659      0080AFF3 
 659      0080
 660              		.align	2
 661              		.p2align 4,,15
 662              		.global	test_wait_tick
 663              		.thumb
 664              		.thumb_func
 665              		.type	test_wait_tick, %function
 666              	test_wait_tick:
 667              	.LFB222:
 668              		.loc 1 159 0
 669              		.cfi_startproc
 670              		@ args = 0, pretend = 0, frame = 0
 671              		@ frame_needed = 0, uses_anonymous_args = 0
 672 0000 08B5     		push	{r3, lr}
 673              		.cfi_def_cfa_offset 8
 674              		.cfi_offset 3, -8
 675              		.cfi_offset 14, -4
 676              		.loc 1 161 0
 677 0002 0120     		movs	r0, #1
 678 0004 FFF7FEFF 		bl	chThdSleep
 679              	.LVL14:
 680              	.LBB50:
 681              	.LBB51:
 682              	.LBB52:
 683              	.LBB53:
 684              	.LBB54:
 685              	.LBB55:
 686              		.file 2 "../os/common/ext/CMSIS/include/cmsis_gcc.h"
ARM GAS  /tmp/ccQneqRX.s 			page 43


 687              		.loc 2 264 0
 688 0008 2023     		movs	r3, #32
 689              	@ 264 "../os/common/ext/CMSIS/include/cmsis_gcc.h" 1
 690 000a 83F31188 		MSR basepri, r3
 691              	@ 0 "" 2
 692              		.thumb
 693              	.LBE55:
 694              	.LBE54:
 695              	.LBE53:
 696              	.LBE52:
 697              	.LBB56:
 698              	.LBB57:
 699              	.LBB58:
 700              	.LBB59:
 701              		.file 3 "../os/hal/ports/STM32/LLD/TIMv1/hal_st_lld.h"
 702              		.loc 3 141 0
 703 000e 4FF08043 		mov	r3, #1073741824
 704 0012 586A     		ldr	r0, [r3, #36]
 705              	.LVL15:
 706              	.LBE59:
 707              	.LBE58:
 708              	.LBE57:
 709              	.LBE56:
 710              	.LBB60:
 711              	.LBB61:
 712              	.LBB62:
 713              	.LBB63:
 714              	.LBB64:
 715              		.loc 2 264 0
 716 0014 0023     		movs	r3, #0
 717              	@ 264 "../os/common/ext/CMSIS/include/cmsis_gcc.h" 1
 718 0016 83F31188 		MSR basepri, r3
 719              	@ 0 "" 2
 720              		.thumb
 721              	.LBE64:
 722              	.LBE63:
 723              	.LBE62:
 724              	.LBE61:
 725              	.LBE60:
 726              	.LBE51:
 727              	.LBE50:
 728              		.loc 1 163 0
 729 001a 80B2     		uxth	r0, r0
 730 001c 08BD     		pop	{r3, pc}
 731              		.cfi_endproc
 732              	.LFE222:
 733              		.size	test_wait_tick, .-test_wait_tick
 734              		.global	wa
 735              		.global	threads
 736              		.global	test_buffer
 737              		.global	test_suite
 738 001e 00BF     		.section	.bss.test_buffer,"aw",%nobits
 739              		.align	3
 740              		.type	test_buffer, %object
 741              		.size	test_buffer, 1640
 742              	test_buffer:
 743 0000 00000000 		.space	1640
ARM GAS  /tmp/ccQneqRX.s 			page 44


 743      00000000 
 743      00000000 
 743      00000000 
 743      00000000 
 744              		.section	.data.test_suite,"aw",%progbits
 745              		.align	2
 746              		.type	test_suite, %object
 747              		.size	test_suite, 56
 748              	test_suite:
 749 0000 00000000 		.word	test_sequence_001
 750 0004 00000000 		.word	test_sequence_002
 751 0008 00000000 		.word	test_sequence_003
 752 000c 00000000 		.word	test_sequence_004
 753 0010 00000000 		.word	test_sequence_005
 754 0014 00000000 		.word	test_sequence_006
 755 0018 00000000 		.word	test_sequence_007
 756 001c 00000000 		.word	test_sequence_008
 757 0020 00000000 		.word	test_sequence_009
 758 0024 00000000 		.word	test_sequence_010
 759 0028 00000000 		.word	test_sequence_011
 760 002c 00000000 		.word	test_sequence_012
 761 0030 00000000 		.word	test_sequence_013
 762 0034 00000000 		.word	0
 763              		.section	.rodata.wa,"a",%progbits
 764              		.align	2
 765              		.type	wa, %object
 766              		.size	wa, 20
 767              	wa:
 768 0000 00000000 		.word	test_buffer
 769 0004 48010000 		.word	test_buffer+328
 770 0008 90020000 		.word	test_buffer+656
 771 000c D8030000 		.word	test_buffer+984
 772 0010 20050000 		.word	test_buffer+1312
 773              		.section	.rodata.str1.4,"aMS",%progbits,1
 774              		.align	2
 775              	.LC0:
 776 0000 2A2A2A20 		.ascii	"*** Compiler:     \000"
 776      436F6D70 
 776      696C6572 
 776      3A202020 
 776      202000
 777 0013 00       		.space	1
 778              	.LC1:
 779 0014 47434320 		.ascii	"GCC 4.8.2\000"
 779      342E382E 
 779      3200
 780 001e 0000     		.space	2
 781              	.LC2:
 782 0020 2A2A2A20 		.ascii	"*** Architecture: \000"
 782      41726368 
 782      69746563 
 782      74757265 
 782      3A2000
 783 0033 00       		.space	1
 784              	.LC3:
 785 0034 41524D76 		.ascii	"ARMv7-M\000"
 785      372D4D00 
ARM GAS  /tmp/ccQneqRX.s 			page 45


 786              	.LC4:
 787 003c 2A2A2A20 		.ascii	"*** Core Variant: \000"
 787      436F7265 
 787      20566172 
 787      69616E74 
 787      3A2000
 788 004f 00       		.space	1
 789              	.LC5:
 790 0050 436F7274 		.ascii	"Cortex-M3\000"
 790      65782D4D 
 790      3300
 791 005a 0000     		.space	2
 792              	.LC6:
 793 005c 2A2A2A20 		.ascii	"*** Port Info:    \000"
 793      506F7274 
 793      20496E66 
 793      6F3A2020 
 793      202000
 794 006f 00       		.space	1
 795              	.LC7:
 796 0070 41647661 		.ascii	"Advanced kernel mode\000"
 796      6E636564 
 796      206B6572 
 796      6E656C20 
 796      6D6F6465 
 797 0085 000000   		.section	.bss.threads,"aw",%nobits
 798              		.align	2
 799              		.set	.LANCHOR0,. + 0
 800              		.type	threads, %object
 801              		.size	threads, 20
 802              	threads:
 803 0000 00000000 		.space	20
 803      00000000 
 803      00000000 
 803      00000000 
 803      00000000 
 804              		.text
 805              	.Letext0:
 806              		.file 4 "/usr/lib/gcc/arm-none-eabi/4.8.2/include/stddef.h"
 807              		.file 5 "/usr/include/newlib/machine/_default_types.h"
 808              		.file 6 "/usr/include/newlib/stdint.h"
 809              		.file 7 "../os/common/ports/ARMCMx/compilers/GCC/chtypes.h"
 810              		.file 8 "../os/rt/include/chsystypes.h"
 811              		.file 9 "../os/rt/include/chschd.h"
 812              		.file 10 "../os/common/ports/ARMCMx/chcore.h"
 813              		.file 11 "../os/common/ports/ARMCMx/chcore_v7m.h"
 814              		.file 12 "../os/hal/ports/STM32/LLD/TIMv1/stm32_tim.h"
 815              		.file 13 "../os/rt/include/chsem.h"
 816              		.file 14 "../os/rt/include/chmtx.h"
 817              		.file 15 "../test/lib/ch_test.h"
 818              		.file 16 "../os/common/ports/ARMCMx/chcore_timer.h"
 819              		.file 17 "../os/rt/include/chsys.h"
 820              		.file 18 "../os/rt/include/chvt.h"
 821              		.file 19 "../os/common/ext/CMSIS/include/core_cm3.h"
 822              		.file 20 "../test/rt/source/test/test_sequence_001.h"
 823              		.file 21 "../test/rt/source/test/test_sequence_002.h"
 824              		.file 22 "../test/rt/source/test/test_sequence_003.h"
ARM GAS  /tmp/ccQneqRX.s 			page 46


 825              		.file 23 "../test/rt/source/test/test_sequence_004.h"
 826              		.file 24 "../test/rt/source/test/test_sequence_005.h"
 827              		.file 25 "../test/rt/source/test/test_sequence_006.h"
 828              		.file 26 "../test/rt/source/test/test_sequence_007.h"
 829              		.file 27 "../test/rt/source/test/test_sequence_008.h"
 830              		.file 28 "../test/rt/source/test/test_sequence_009.h"
 831              		.file 29 "../test/rt/source/test/test_sequence_010.h"
 832              		.file 30 "../test/rt/source/test/test_sequence_011.h"
 833              		.file 31 "../test/rt/source/test/test_sequence_012.h"
 834              		.file 32 "../test/rt/source/test/test_sequence_013.h"
 835              		.file 33 "../os/rt/include/chthreads.h"