ARM GAS  /tmp/ccUedYnj.s 			page 1


   1              		.syntax unified
   2              		.cpu cortex-m3
   3              		.fpu softvfp
   4              		.eabi_attribute 20, 1
   5              		.eabi_attribute 21, 1
   6              		.eabi_attribute 23, 3
   7              		.eabi_attribute 24, 1
   8              		.eabi_attribute 25, 1
   9              		.eabi_attribute 26, 1
  10              		.eabi_attribute 30, 2
  11              		.eabi_attribute 34, 1
  12              		.eabi_attribute 18, 4
  13              		.thumb
  14              		.file	"test_sequence_004.c"
  15              		.text
  16              	.Ltext0:
  17              		.section	.gnu.lto_.jmpfuncs.f1f266d4b033a9b5,"",%progbits
  18 0000 789C6362 		.ascii	"x\234cb`b\300\006L\031\031\030,\2014\013\003\003\023"
  18      6062C006 
  18      4C191918 
  18      2C81340B 
  18      030313
  19 0013 2390CDC0 		.ascii	"#\220\315\300\304T\315\360\253\241\243A \223\221!\227"
  19      C454CDF0 
  19      ABA1A341 
  19      20939121 
  19      97
  20 0024 11AC8629 		.ascii	"\021\254\206)\2021\023,\307\214[\232\351\005;X\036\310"
  20      8231132C 
  20      C78C5B9A 
  20      E9053B58 
  20      1EC8
  21 0036 05299801 		.ascii	"\005)\230\001R\300,\307\3008\267a\206C&#\013D!\262$"
  21      52C02CC7 
  21      C038B761 
  21      86432623 
  21      0B4421B2 
  22 004b AB1C8328 		.ascii	"\253\034\203(D\222\015S\222]\216A\036\"\311\001\226"
  22      44920D53 
  22      925D8E41 
  22      1E22C901 
  22      96
  23 005c 6425208F 		.ascii	"d% \217\337d\\N\376\377\237\031b4\210\307y\202\011\356"
  23      DF645C4E 
  23      FEFF9F19 
  23      623488C7 
  23      798209EE 
  24 0070 7AB05AAE 		.ascii	"z\260Z\256d\250Z\270\301\334r\014\346\020\203y \201"
  24      64A85AB8 
  24      C1DC720C 
  24      E6108379 
  24      2081
  25 0082 279C5F5A 		.ascii	"'\234_Z\242\220\237\246P\222\231\233\252P\236\231\227"
  25      A2909FA6 
  25      5092999B 
  25      AA509E99 
  25      97
ARM GAS  /tmp/ccUedYnj.s 			page 2


  26 0093 925FCEC0 		.ascii	"\222_\316\300\231\227_\242\340\027\352\343\303 ^^\224"
  26      99975FA2 
  26      E017EAE3 
  26      C3205E5E 
  26      94
  27 00a4 9F97AE50 		.ascii	"\237\227\256P\224ZRZ\224\227\232\242\220\233Z\\\234"
  27      945A525A 
  27      94979AA2 
  27      909B5A5C 
  27      9C
  28 00b5 989ECAC0 		.ascii	"\230\236\312\300\344\310\000\000\234\273N\331"
  28      E4C80000 
  28      9CBB4ED9 
  29              		.text
  30              		.section	.gnu.lto_.inline.f1f266d4b033a9b5,"",%progbits
  31 0000 789C6362 		.ascii	"x\234cb`b\300\0066Ai\026 bfd`b\272\300\317\300\266@"
  31      6062C006 
  31      36416916 
  31      20626664 
  31      6062BAC0 
  32 0018 1EAC9889 		.ascii	"\036\254\230\211\201G\015(\304\332\241\316\300\336\241"
  32      81470D28 
  32      C4DAA1CE 
  32      C0DEA1
  33 0027 0E11E266 		.ascii	"\016\021\342f``\234\340\307\310\005d3\363\200\22400"
  33      60609CE0 
  33      C7C80564 
  33      33F38094 
  33      3030
  34 0039 33285A00 		.ascii	"3(Z\000UI]\233\316\010\327\011\226g\341\005\313\263"
  34      55495D9B 
  34      CE08D709 
  34      9667E105 
  34      CBB3
  35 004b F201D54C 		.ascii	"\362\001\325L\360\233\340\007\021\000\322`\215@\232"
  35      F09BE007 
  35      1100D260 
  35      8D409A
  36 005a 9541ED00 		.ascii	"\225A\355\000\003P\253\334\275\263\330\264\"\351\200"
  36      0350ABDC 
  36      BDB3D8B4 
  36      22E980
  37 0069 1AC52E00 		.ascii	"\032\305.\0004\016\310\005\"\006\006\000hZ\022\355"
  37      340EC805 
  37      22060600 
  37      685A12ED 
  38              		.text
  39              		.section	.gnu.lto_.pureconst.f1f266d4b033a9b5,"",%progbits
  40 0000 789C6362 		.ascii	"x\234cb`b\340d\200\000\026\006\011&+f+V+\000\003\366"
  40      6062E064 
  40      80001606 
  40      09262B66 
  40      2B562B00 
  41 0016 00E2     		.ascii	"\000\342"
  42              		.text
  43              		.section	.gnu.lto_test_004_001_setup.f1f266d4b033a9b5,"",%progbits
  44 0000 789C6362 		.ascii	"x\234cb`b@\007\222@<\001\210u\201\230\221\231\201\221"
ARM GAS  /tmp/ccUedYnj.s 			page 3


  44      60624007 
  44      92403C01 
  44      88758198 
  44      91998191 
  45 0014 69C23906 		.ascii	"i\3029\006\206F\016&FF\020\203\201\221\241\236\211\261"
  45      86460E26 
  45      46461083 
  45      8191A19E 
  45      89B1
  46 0026 3E9211AC 		.ascii	">\222\021\254v=\323\201\007\377\377\257\333\322\266"
  46      763DD381 
  46      07FFFFAF 
  46      DBD2B6
  47 0035 FC0CE34C 		.ascii	"\374\014\343L&f\240\010+CKC\303\004\005\006\206d\260"
  47      2666A008 
  47      2B434B43 
  47      C3040506 
  47      8664B0
  48 0048 8A102009 		.ascii	"\212\020 \011\322\026\312\310\004\242\231\31724\355"
  48      D216CAC8 
  48      04A299CF 
  48      3234ED
  49 0057 F8F1CC22 		.ascii	"\370\361\314\"\221q!#+\303l\206Y\215\015\015\002\231"
  49      91712123 
  49      2BC36C86 
  49      598D0D0D 
  49      0299
  50 0069 8C0CD50C 		.ascii	"\214\014\325\014\277\032:@,\306\\\260\266\010F \223"
  50      BF1A3A40 
  50      2CC65CB0 
  50      B6084620 
  50      93
  51 007a 01C60233 		.ascii	"\001\306\0023.24>\230\243\014\321\010\003!@E@SA~\320"
  51      2E32343E 
  51      98A30CD1 
  51      08032140 
  51      45405341 
  52 0090 D6D3D32F 		.ascii	"\326\323\323/I-.\321/*\321/\316/-JN\205pAD|qjaij^rj"
  52      492D2ED1 
  52      2F2AD12F 
  52      CE2F2D4A 
  52      4E857041 
  53 00ae BC818189 		.ascii	"\274\201\201\211^2\003\000\240\3006\261"
  53      5E320300 
  53      A0C036B1 
  54              		.text
  55              		.section	.gnu.lto_thread1.f1f266d4b033a9b5,"",%progbits
  56 0000 789C8552 		.ascii	"x\234\205R\317k\023A\024~o6\311Fc\245\327\212\304P\020"
  56      CF6B1341 
  56      147E6F36 
  56      C94663A5 
  56      D78AC450 
  57 0015 854A2687 		.ascii	"\205J&\207\2027Qz\362\220KS\213\236\302:\016\315`7["
  57      8237517A 
  57      F2904B53 
  57      8B9EC23A 
  57      0ECD6037 
ARM GAS  /tmp/ccUedYnj.s 			page 4


  58 002a 7793D2E2 		.ascii	"w\223\322\342\241\333\244\005\275\225\342A,EZQ(\212"
  58      A1DBA405 
  58      BD95E241 
  58      2C455A51 
  58      288A
  59 003c 0A828858 		.ascii	"\012\202\210X\210\267\366\320\210\372\007\030\364\342"
  59      88B7F6D0 
  59      88FA0718 
  59      F4E2
  60 004a 8F9337D1 		.ascii	"\217\2237\321C|\263\233\244n+:0\363\336\274\367\275"
  60      437CB39B 
  60      A46E2B3A 
  60      30F3DEBC 
  60      F7BD
  61 005c F7BDF976 		.ascii	"\367\275\371v\0310\330\273\006hoQx\223,\032\200l\251"
  61      1930D8BB 
  61      06686F51 
  61      78932C1A 
  61      806CA9
  62 006f 09309F64 		.ascii	"\0110\237d\210\332\001\2049\206s\2270\300>a\215V\273"
  62      88DA0184 
  62      39867397 
  62      30C03E61 
  62      8D56BB
  63 0082 FDF8C5FD 		.ascii	"\375\370\305\375\217W1\225@\033\301\004\025\244\342"
  63      8F573195 
  63      401BC104 
  63      15A4E2
  64 0091 B0E0FB4B 		.ascii	"\260\340\373K\031\000\021\\\307\350\324\345\027\220"
  64      1900115C 
  64      C7E8D4E5 
  64      1790
  65 009f 696B6C43 		.ascii	"iklC-\0110\010k\276\277\334\332\334\330y\215\313u\177"
  65      2D093008 
  65      6BBEBFDC 
  65      DADCD879 
  65      8DCB757F 
  66 00b3 CB5F68B4 		.ascii	"\313_h\264\333xL!\241\306Q\227^D\205,\023\030#\026\235"
  66      DB784C21 
  66      A1C65197 
  66      5E44852C 
  66      13182316 
  67 00c8 53C79008 		.ascii	"S\307\220\010\240\011\265\357\257\352\017\216\364(C"
  67      A009B5EF 
  67      AFEA0F8E 
  67      F42843
  68 00d7 A7F1EBDD 		.ascii	"\247\361\353\335\212q\322\302u\034\354\315\323\370t"
  68      8A71D2C2 
  68      751CECCD 
  68      D3F874
  69 00e6 EB47EA68 		.ascii	"\353G\352h\357v\223\003X\270\206q\242\322t\214\266\001"
  69      EF769303 
  69      58B88671 
  69      A2D2748C 
  69      B601
  70 00f8 C12311D6 		.ascii	"\301#\021\326\311%\031\214P\2424<\303U\377\366Y\205"
  70      C925198C 
ARM GAS  /tmp/ccUedYnj.s 			page 5


  70      50A2343C 
  70      C355FFF6 
  70      5985
  71 010a B108F96E 		.ascii	"\261\010\371n\376y'\037\017\307{\003\213\255\017g\302"
  71      FE79271F 
  71      0FC77B03 
  71      8BAD0F67 
  71      C2
  72 011b EE00D7E1 		.ascii	"\356\000\327\341\247\177\303\357W\230\020a\203 \222"
  72      A77FC3EF 
  72      57981061 
  72      832092
  73 012a 5468DA88 		.ascii	"Th\332\210\035\220\356I\242(<\240\253\353\255\317\343"
  73      1D90EE49 
  73      A2283CA0 
  73      ABEBADCF 
  73      E3
  74 013b FBAA0F8A 		.ascii	"\373\252\017\212N{\205)\200\250\210_\232{E\264\360^"
  74      4E7B8529 
  74      80A8885F 
  74      9A7B45B4 
  74      F05E
  75 014d F0A4FFAA 		.ascii	"\360\244\377\252\010\377R\361\353\252V\361iT\305\273"
  75      08FF52F1 
  75      EBAA56F1 
  75      6954C5BB 
  76 015d 7DE93FBE 		.ascii	"}\351?\276q'\274=\274+gB\367\024h\376EQ\0137\310\351"
  76      7127BC3D 
  76      BC2B6742 
  76      F71468FE 
  76      45510B37 
  77 0173 117715B4 		.ascii	"\021w\025\264\360\021\246\303\241v\240\366r\361\341"
  77      F011A6C3 
  77      A176A0F6 
  77      72F1E1
  78 0182 7B16369B 		.ascii	"{\0266\233@s\005\356\020\234\274\204.;\004]\211c\373"
  78      407305EE 
  78      109CBC84 
  78      2E3B045D 
  78      8963FB
  79 0195 14EA135A 		.ascii	"\024\352\023ZCZT\245\3600\300[\230o}c]\\\270\306\210"
  79      435A54A5 
  79      F030C05B 
  79      986F7D63 
  79      5D5CB8C6 
  80 01aa 99FE424D 		.ascii	"\231\376BM;\224\315\362\212\364*\334\255p\317\251\272"
  80      3B94CDF2 
  80      8AF42ADC 
  80      AD70CFA9 
  80      BA
  81 01bb 4286577D 		.ascii	"B\206W}\024=y\255*\313B\026s\271\341\254\200\023\204"
  81      143D79AD 
  81      2ACB4216 
  81      73B9E1AC 
  81      801384
  82 01ce 753C2E1C 		.ascii	"u<.\034\333v\312|\312q+\036?7\232\037\311\317pQ\022"
  82      DB76CA7C 
ARM GAS  /tmp/ccUedYnj.s 			page 6


  82      CA712B1E 
  82      3F379A1F 
  82      C9CF7051 
  83 01e3 8E2B8BD3 		.ascii	"\216+\213\323\247\355l\011\342\323\326dU\016E\320r\246"
  83      A7ED6C09 
  83      E2D3D664 
  83      550E45D0 
  83      72A6
  84 01f5 C247F285 		.ascii	"\302G\362\205\363\005\256\312b\262zEra{\312+N\010A\025"
  84      F305AECA 
  84      62B27A45 
  84      72617BCA 
  84      2B4E0841 
  85 020a 03219666 		.ascii	"\003!\226f\350eK\336\254G\231\376|a4s\331\362\344\224"
  85      E8654BDE 
  85      AC4799FE 
  85      7C613473 
  85      D9F2E494 
  86 021e AB4E658E 		.ascii	"\253Ne\216\347\200\271`\332\322v\334Y\370\015\367d\340"
  86      E780B960 
  86      DAD276DC 
  86      59F80DF7 
  86      64E0
  87 0230 DC       		.ascii	"\334"
  88              		.text
  89              		.section	.gnu.lto_test_004_001_execute.part.0.f1f266d4b033a9b5,"",%progbits
  90 0000 789C8D55 		.ascii	"x\234\215U[h\034e\024>g.{M\322\330\213Mb\335\216\005"
  90      5B681C65 
  90      143E672E 
  90      7B4DD2D8 
  90      8B4D62DD 
  91 0016 5189EEA4 		.ascii	"Q\211\356\244U\350\253R_\002Y\037\232\004\354S\230N"
  91      55E8AB52 
  91      5F02591F 
  91      9A04EC53 
  91      984E
  92 0028 C6CD4066 		.ascii	"\306\315@f\247\316\354&->d6\033!\240\224\260(\224\226"
  92      A7CEEC26 
  92      2D3E6436 
  92      1B21A094 
  92      B0289496 
  93 003c D0846235 		.ascii	"\320\204b5\202W\024\333z\351Zih\225l\250\202\017\326"
  93      825714DB 
  93      7AE95A69 
  93      68956CA8 
  93      820FD6
  94 004f 87D50793 		.ascii	"\207\325\007\223\322b\253 \251\027\\\317?\267MB0\375"
  94      D262AB20 
  94      A9175CCF 
  94      3FB74D42 
  94      30FD
  95 0061 97F9E73F 		.ascii	"\227\371\347?\377\271\374\337\371\316\371g9\340`\375"
  95      FFB9FCDF 
  95      F9CEF967 
  95      39E060FD 
  96 0071 E8A6E7FD 		.ascii	"\350\246\347\375\010\200\215\000\030\005\214LUi\021"
  96      08808D00 
ARM GAS  /tmp/ccUedYnj.s 			page 7


  96      18058C4C 
  96      556911
  97 0080 41CE7D73 		.ascii	"A\316}s\234\370\275\014N\202\277\220\002\247\211\367"
  97      9CF8BD0C 
  97      4E82BF90 
  97      02A789F7 
  98 0090 25C19504 		.ascii	"%\301\225\004\024\231M1&\"\262\005 \214E8^\020q\354"
  98      14994D31 
  98      2622B205 
  98      208C4538 
  98      5E1071EC 
  99 00a4 10B2D0E2 		.ascii	"\020\262\320\342\036\230u\234\223\265\313K\313x\342"
  99      1E98759C 
  99      93B5CB4B 
  99      CB78E2
 100 00b3 B5CAF88C 		.ascii	"\265\312\370\214\363O\275\216\2503\245\212\360<\255"
 100      F34FBD8E 
 100      A833A58A 
 100      F03CAD
 101 00c2 B0D57D71 		.ascii	"\260\325}q\353py\216\316\207o9q\327\211\327\221o\370"
 101      EB70798E 
 101      CE876F39 
 101      71D789D7 
 101      916FF8
 102 00d5 489E8FB0 		.ascii	"H\236\217\260\201\317T\345\332\374\253\355\316\314\370"
 102      81CF54E5 
 102      DAFCABED 
 102      CECCF8
 103 00e4 94F32F9D 		.ascii	"\224\363/\235\245\243\300A\032\357\305\263\\\2718\177"
 103      A5A3C041 
 103      1AEFC5B3 
 103      5CB9387F 
 104 00f4 BCCD9929 		.ascii	"\274\315\231)\006\236\304\325>\274\027\234\345\312\312"
 104      069EC4D5 
 104      3EBC179C 
 104      E5CACA
 105 0103 FCD7B3E8 		.ascii	"\374\327\263\350\224\235\342\235z}\213\216\"\007\373"
 105      949DE29D 
 105      7A7D8B8E 
 105      2207FB
 106 0112 373BF33D 		.ascii	"7;\363=\316\251\325\353\177\256\304v \350\030\341h\002"
 106      CEA9D5EB 
 106      7FAEC476 
 106      20E818E1 
 106      6802
 107 0124 1E143C83 		.ascii	"\036\024<\203{@ !*\262)BS,J\333o\322v\214\011q6%\330"
 107      7B402021 
 107      2AB22942 
 107      532C4ADB 
 107      6FD2768C 
 108 013d C4088609 		.ascii	"\304\010\206\011JYR\360\015R{\276.K4\372hfE\351\303"
 108      4A5952F0 
 108      0D527BBE 
 108      2E4B34FA 
 108      686645E9 
 109 0152 087BF3FD 		.ascii	"\010{\363\375\310\271\357E(\325>\377*\251\340\034\212"
 109      C8B9EF45 
ARM GAS  /tmp/ccUedYnj.s 			page 8


 109      28D53EFF 
 109      2AA9E01C 
 109      8A
 110 0163 64F612FC 		.ascii	"d\366\022\374\345L:\255:\306Ut\375(r\002`\001\306\317"
 110      E54C3AAD 
 110      3AC65574 
 110      FD287202 
 110      6001C6CF 
 111 0177 DDFDBDCD 		.ascii	"\335\375\275\315\263:\005'\213\016\263I\206\326M\206"
 111      B33A0527 
 111      8B0EB349 
 111      86D64D86 
 112 0187 6BCC126B 		.ascii	"k\314\022k\202`\225d\344\\\205\361X\300K\355\357\271"
 112      82609564 
 112      E45C85F1 
 112      58C04BED 
 112      EFB9
 113 0199 852FB15C 		.ascii	"\205/\261\\r\2568\023\025\342t\267\216\315\034h\233"
 113      72AE3813 
 113      15E274B7 
 113      8ECD1C68 
 113      9B
 114 01aa 51C3F69A 		.ascii	"Q\303\366\232%ZTa\374\267\353\245\263\035~\232A\276"
 114      255A5461 
 114      FCB7EBA5 
 114      B31D7E9A 
 114      41BE
 115 01bc 9595EF4E 		.ascii	"\225\225\357N\361\217*\370\216\233\256\277w\361\365"
 115      F18F2AF8 
 115      8E9BAEBF 
 115      77F1F5
 116 01cb BBC95DA1 		.ascii	"\273\311]\241\364\315/?Q\277x\360U\312\\\245\366Q\321"
 116      F4CD2F3F 
 116      51BF78F0 
 116      55CA5CA5 
 116      F651D1
 117 01de 3D07E9F7 		.ascii	"=\007\351\367\001\211\004\226\367\256C\012.\341\264"
 117      01890496 
 117      F7AE430A 
 117      2EE1B4
 118 01ed 73E2691D 		.ascii	"s\342i\035[\326\034\337\320_\366\365[<\200\013p\351"
 118      5BD61CDF 
 118      D05FF6F5 
 118      5B3C800B 
 118      70E9
 119 01ff 87CF966E 		.ascii	"\207\317\226n\314\225q=\262\333\247\257\363|(}|v\272"
 119      CC95713D 
 119      B2DBA7AF 
 119      F37C287D 
 119      7C76BA
 120 0212 39145E59 		.ascii	"9\024^Y\232]\005\211=\021z\242,^\026\261\023\336v&\212"
 120      9A5D0589 
 120      3D117AA2 
 120      2C5E16B1 
 120      13DE7626 
 121 0227 B54FABD5 		.ascii	"\265O\253\3252\012:\2662\316\247\030\323\36718[\035"
 121      320A3AB6 
ARM GAS  /tmp/ccUedYnj.s 			page 9


 121      32CEA718 
 121      D3F73138 
 121      5B1D
 122 0239 1A828B6C 		.ascii	"\032\202\213l\253\213\3400\243_\301\363n\015Y\265~-"
 122      AB8BE030 
 122      A35FC1F3 
 122      6E0D59B5 
 122      7E2D
 123 024b B528788E 		.ascii	"\265(x\216\304,rYVI\252\303\235\237\317\017y\347y\015"
 123      C42C7259 
 123      5649AAC3 
 123      9D9FCF0F 
 123      79E7790D 
 124 025f C2C622BC 		.ascii	"\302\306\"\274\\[<\023\361\266\263\310\207\025\335\246"
 124      5C5B3C13 
 124      F1B6B3C8 
 124      8715DDA6 
 125 026f BA1D1574 		.ascii	"\272\035\025t\2043\246\343v\003\321\357\023vrt9J\315"
 125      8433A6E3 
 125      7603D1EF 
 125      13767274 
 125      394ACD
 126 0282 B1C30D5D 		.ascii	"\261\303\015]i\017\002\263\236\313\262\313\271\266\360"
 126      690F02B3 
 126      9ECBB2CB 
 126      B9B6F0
 127 0291 37AAEB0B 		.ascii	"7\252\353\013\257\340\273n!6\255<\374_\345oN\263\312"
 127      AFE0BB6E 
 127      2136AD3C 
 127      FC5FE56F 
 127      4EB3CA
 128 02a4 57D656FE 		.ascii	"W\326V\376ts*\274\013\015\276o\025\305\006\337qpoFb"
 128      74732ABC 
 128      0B0DBE6F 
 128      15C506DF 
 128      71706F46 
 129 02b9 832E50F0 		.ascii	"\203.P\360#Z\204G\007UW\360\023L\005\365.M\226\226\216"
 129      235A8447 
 129      075557F0 
 129      134C05F5 
 129      2E4D9696 
 130 02ce 8B016B02 		.ascii	"\213\001k\002\221\314\354a9\352k\371@%\006\252\233Q"
 130      91CCEC61 
 130      39EA6BF9 
 130      402506AA 
 130      9B51
 131 02e0 97ED90E9 		.ascii	"\227\355\220\351H\310\364\375*&\301+;\005\022\331~\233"
 131      48C8F4FD 
 131      2A26C12B 
 131      3B0512D9 
 131      7E9B
 132 02f2 8E3B53F0 		.ascii	"\216;S\360\005\347uY\233\217\232\330n\007\270\002\023"
 132      05E77559 
 132      9B8F9AD8 
 132      6E07B802 
 132      13
 133 0303 B7308CC2 		.ascii	"\2670\214\302b\307VS\326O\330/\244xj\201\253\223\243"
ARM GAS  /tmp/ccUedYnj.s 			page 10


 133      62C75653 
 133      D64FD82F 
 133      A4786A81 
 133      AB93A3
 134 0316 815934BC 		.ascii	"\201Y4\274\262\035\341\261\254\232>\305\333!\314k1D"
 134      B21DE1B1 
 134      AC9A3EC5 
 134      DB21CC6B 
 134      3144
 135 0328 1E2337A6 		.ascii	"\036#7\246\354\360\332$L6\036Fx@\365/;\031\373\250w"
 135      ECF0DA24 
 135      4C361E46 
 135      7840F52F 
 135      3B19FBA8 
 136 033d A5E05B1F 		.ascii	"\245\340[\037\365\203\015\324\251u\250\343\033\240\026"
 136      F5830DD4 
 136      A975A8E3 
 136      1BA016
 137 034c E0769267 		.ascii	"\340v\222g\000J\177\264\004v\011j$f\272\273\036\014"
 137      004A7FB4 
 137      0476096A 
 137      2466BABB 
 137      1E0C
 138 035e 1C5B8565 		.ascii	"\034[\205e\325\327j\025\224\204\017EJ\301\217>\224\207"
 138      D5D76A15 
 138      94840F45 
 138      4AC18F3E 
 138      9487
 139 0370 D640F1CE 		.ascii	"\326@\361\316\023\335\257\3375\372\267j\240\350#Fh\227"
 139      13DDAFDF 
 139      35FAB76A 
 139      A0E82346 
 139      6897
 140 0382 95BB339D 		.ascii	"\225\2733\235\226\363\232\235\227\255\274l\233\005K"
 140      96F39A9D 
 140      97ADBC6C 
 140      9B054B
 141 0391 D53C914D 		.ascii	"\325<\221M\003\266\366bA\313\251\332@W\327Si\025x\303"
 141      03B6F662 
 141      41CBA9DA 
 141      4057D753 
 141      691578C3 
 142 03a5 CE0A79DD 		.ascii	"\316\012y\335\320\304\274\2657\335\365\010\271\232\266"
 142      D0C4BCB5 
 142      37DDF508 
 142      B99AB6
 143 03b4 AC9A8661 		.ascii	"\254\232\206a\346\344#\246\225\267\345g\016f\016d\216"
 143      E6E423A6 
 143      95B7E567 
 143      0E660E64 
 143      8E
 144 03c5 CAEA906A 		.ascii	"\312\352\220jZ\332\300\310~#=\004\342\2102\\\320:\327"
 144      5ADAC0C8 
 144      7E233D04 
 144      E288325C 
 144      D03AD7
 145 03d8 586B47F3 		.ascii	"XkG\363\362\201Low\257\254\347\324\341\302\240&\253"
ARM GAS  /tmp/ccUedYnj.s 			page 11


 145      F2814C6F 
 145      77AFACE7 
 145      D4E1C2A0 
 145      26AB
 146 03ea 86ADDB03 		.ascii	"\206\255\333\003YU%\217v\317\226 \205\332!\373\230M"
 146      5955258F 
 146      76CF9620 
 146      85DA21FB 
 146      984D
 147 03fc 9AD64CEF 		.ascii	"\232\326L\357A\351\260bkG,\375q\351\341.\340,\210\032"
 147      41E9B062 
 147      6B472CFD 
 147      71E9E12E 
 147      E02C881A 
 148 0410 9A615AC7 		.ascii	"\232aZ\307\340\011\317kH\031\366\301\364\366e\236\334"
 148      E009CF6B 
 148      4819F6C1 
 148      F4F6659E 
 148      DC
 149 0421 27F7F43C 		.ascii	"'\367\364<+\367ugF\3662\315\000e5<<H\221\036\333\024"
 149      2BF77567 
 149      46F632CD 
 149      0065353C 
 149      3C48911E 
 150 0437 3DCBD422 		.ascii	"=\313\324\"\313\266\015\320\214\344I\261\315,\344%\363"
 150      CBB60DD0 
 150      8CE449B1 
 150      CD2CE425 
 150      F3
 151 0448 0589194A 		.ascii	"\005\211\031J\243zn\320\034\205x\316\314K\317\365\367"
 151      A37A6ED0 
 151      1C8578CE 
 151      CC4BCFF5 
 151      F7
 152 0459 F4C0CE51 		.ascii	"\364\300\316Q\313\314e%K\313\027\254\2346(\031\232m"
 152      CBCC6525 
 152      4BCB17AC 
 152      9C362819 
 152      9A6D
 153 046b 2B590DFE 		.ascii	"+Y\015\376\003BZ\025\217"
 153      03425A15 
 153      8F
 154              		.text
 155              		.section	.gnu.lto_test_004_001_execute.f1f266d4b033a9b5,"",%progbits
 156 0000 789C8D55 		.ascii	"x\234\215U]lSu\024?\347\336\336\322v\255\355\206J;\267"
 156      5D6C5375 
 156      143FE7DE 
 156      DED276AD 
 156      ED864A3B 
 157 0015 5AA7083A 		.ascii	"Z\247\010:mg\262D}\203\360d\302|`,\301\370\260\\\356"
 157      6D67B244 
 157      7D83F064 
 157      C27C602C 
 157      C1F8B05C 
 158 002a 6EBA9B70 		.ascii	"n\272\233p[\274\267E\210\017\273\335\200\240\250ix\221"
 158      5BBCB745 
 158      880FBBDD 
ARM GAS  /tmp/ccUedYnj.s 			page 12


 158      80A0A869 
 158      7891
 159 003c F8112004 		.ascii	"\370\021 \004b\014\021?\022\203\013\221&F\262e\221e"
 159      620C113F 
 159      12830B91 
 159      2646B265 
 159      9165
 160 004e 268A3110 		.ascii	"&\2121\020\252D_\300\021\336\252\250\365\234\373\325"
 160      AA445FC0 
 160      11DEAAA8 
 160      F59CFBD5 
 161 005e AD56F126 		.ascii	"\255V\361&\367\377y\316\357\374\316\357\374\377\367"
 161      F7FF79CE 
 161      EFFCCEEF 
 161      FCFFF7
 162 006d 0A2040FB 		.ascii	"\012 @\373\263\211\336?\202\000q\004\300 \240P\275\004"
 162      B389DE3F 
 162      82007104 
 162      C020A050 
 162      BD04
 163 007f 50090982 		.ascii	"P\011\011\202\364]\016\254\2108\233\006+*\272\263\200"
 163      F45D0EAC 
 163      88389B06 
 163      2B2ABAB3 
 163      80
 164 0090 3D0BA0C4 		.ascii	"=\013\240\304F(!r\017\010S\202\030\220p\352\005dDa\000"
 164      46282172 
 164      0F085382 
 164      189070EA 
 164      05644461 
 165 00a5 4E58D691 		.ascii	"NX\326\221\372\317\313\357\247^;>]\265\376j6QC\212\235"
 165      FACFCBEF 
 165      A75E3B3E 
 165      5DB5FE6A 
 165      3651438A 
 166 00ba 45501076 		.ascii	"EP\020v\320\0043v'\004V\223\261=\253\265\245\213\257"
 166      D0043376 
 166      27045693 
 166      B13DABB5 
 166      A58BAF
 167 00cd A7AC96A7 		.ascii	"\247\254\226\247(\300\360\335<\317\012\265z\263y\363"
 167      28C0F0DD 
 167      3CCF0AB5 
 167      7AB379F3 
 168 00dd D3FA4FD7 		.ascii	"\323\372O\327\260\273O\004\015\003\001j\244 5\020\001"
 168      B0BB4F04 
 168      0D03016A 
 168      A4203510 
 168      01
 169 00ee 194FE200 		.ascii	"\031O\342\000D\251?A}\214\026\203qn\022\334\364p\223"
 169      44A93F41 
 169      7D8C1683 
 169      716E12DC 
 169      F47093
 170 0101 64C31435 		.ascii	"d\303\0245k\010M\202\375\304#\343$R\273p\361\315\244"
 170      6B084D82 
 170      FDC423E3 
ARM GAS  /tmp/ccUedYnj.s 			page 13


 170      2452BB70 
 170      F1CDA4
 171 0114 75BCE2D1 		.ascii	"u\274\342\321\011\011\360L\213N\302\241\323&\254\023"
 171      0909F04C 
 171      8B4EC2A1 
 171      D326AC13 
 172 0124 0FD88A9E 		.ascii	"\017\330\212\236\355\324\262Rc(p/~\015\323\347\316\335"
 172      EDD4B252 
 172      6328702F 
 172      7E0DD3E7 
 172      CEDD
 173 0136 48CA780A 		.ascii	"H\312x\012%x\007\336\256XVB\303\360+\360\273u\210G\021"
 173      257807DE 
 173      AE585642 
 173      C3F02BF0 
 173      BB758847 
 174 014b DD7663E0 		.ascii	"\335vc\340\010x\2430\257\221\347\225\306\215\357\003"
 174      0878A330 
 174      AF91E795 
 174      C68DEF03 
 175 015b 8E6B1EC5 		.ascii	"\216k\036\305'\341\014{t1J\225GQF9\312\243\230\216\350"
 175      27E10C7B 
 175      74314A95 
 175      47514639 
 175      CAA3988E 
 176 0170 FAC67C94 		.ascii	"\372\306|\224{V\220$\260\037\316\037\2736\354f\353\245"
 176      7B569024 
 176      B01FCE1F 
 176      BB36EC66 
 176      EBA5
 177 0182 6DDD3A9D 		.ascii	"m\335:\235\363%\360\006\265\205\313K\335\310\211q`\305"
 177      F325F006 
 177      B585CB4B 
 177      DDC88971 
 177      60C5
 178 0194 46A6CE4E 		.ascii	"F\246\316N;\217\311A\370\300\262\254\372\235\337N=N"
 178      3B8FC941 
 178      F8C0B2AC 
 178      FA9DDF4E 
 178      3D4E
 179 01a6 323A33EB 		.ascii	"2:3\353Y\015\343~v\011?\273n\335vc6\3356\217\235h+\366"
 179      590DE37E 
 179      76093FBB 
 179      6EDD7663 
 179      36DD368F 
 180 01be 2101D318 		.ascii	"!\001\323\030\375\261\303\260\361Y\257\214g\355lS.\260"
 180      FDB1C3B0 
 180      F159AF8C 
 180      67ED6C53 
 180      2EB0
 181 01d0 4955F281 		.ascii	"IU\362\201{(<c\201\213%\260\377G\236\377\314\241/\027"
 181      7B283C63 
 181      818B25B0 
 181      FF479EFF 
 181      CCA12F17 
 182 01e4 2E7F1CF6 		.ascii	".\177\034\366\364\012\020\010\033KMz\342d\261\010Io"
 182      F40A1008 
ARM GAS  /tmp/ccUedYnj.s 			page 14


 182      1B4B4D7A 
 182      E264B108 
 182      496F
 183 01f6 2FE8335C 		.ascii	"/\3503\\\253\240\010Nf\242-\375\234\300\276\274\037"
 183      ABA0084E 
 183      66A22DFD 
 183      9CC0BEBC 
 183      1F
 184 0207 D2F05E05 		.ascii	"\322\360^\005]\375\201W\222\032\336\227\206\027\337"
 184      5DFD8157 
 184      921ADE97 
 184      8617DF
 185 0216 B38E6ED2 		.ascii	"\263\216n\322\360~W :G\353l\372\363\325\210\263\302"
 185      F07E5720 
 185      3A47EB6C 
 185      FAF3D588 
 185      B3C2
 186 0228 85723469 		.ascii	"\205r4iU<\351GL\351vD\016\226\352P+\"\0070\017\323!"
 186      553CE947 
 186      4CE97644 
 186      0E96EA50 
 186      2B220730 
 187 023f F78A1CA9 		.ascii	"\367\212\034\251\377y\360\333\324\231O,\353\325\232"
 187      FF79F0DB 
 187      D4994F2C 
 187      EBD59A
 188 024e D5686253 		.ascii	"\325hbS\324\260W\200\203x\267k\302k\275TT\270\004\323"
 188      D4B05780 
 188      8378B76B 
 188      C26BBD54 
 188      54B804D3 
 189 0262 B7DF3D70 		.ascii	"\267\337=p\272\267\275\314w\336\230][\221d\374\302>"
 189      BAB7BDCC 
 189      77DE985D 
 189      5B9164FC 
 189      C23E
 190 0274 BEEEE2F5 		.ascii	"\276\356\342\365\267\032]}\376\354\360\225\037\305\326"
 190      B71A5D7D 
 190      FEECF095 
 190      1FC5D6
 191 0283 41E03748 		.ascii	"A\3407H/_\033\372\022 |C\231P\015D\347[\223\206\353"
 191      2F5F1BFA 
 191      12207C43 
 191      99500D44 
 191      E75B9386 
 192 0298 E849B332 		.ascii	"\350I\2632~k\377\027w\377\001\207\341\"\034\250\177"
 192      7E6BFF17 
 192      77FF0187 
 192      E1221CA8 
 192      7F
 193 02a9 7E32E815 		.ascii	"~2\350\025%\342K\324\247`\310\266pV\254)\015\373u\277"
 193      25E24BD4 
 193      A760C8B6 
 193      7056AC29 
 193      0DFB75BF 
 194 02bd 120C9C6E 		.ascii	"\022\014\234n6\371\342?hKUK9;\316M\314\363Ej\023\360"
 194      36F9E23F 
ARM GAS  /tmp/ccUedYnj.s 			page 15


 194      684B554B 
 194      393BCE4D 
 194      CCF3456A 
 195 02d3 D7760165 		.ascii	"\327v\001e\274@\247\347\177\010\010\377)\340U[\300\205"
 195      BC40A7E7 
 195      7F0808FF 
 195      29E0555B 
 195      C085
 196 02e5 D5021E8B 		.ascii	"\325\002\036\213\245\377y\247\016_\255H-%\303\316\225"
 196      A5FF79A7 
 196      0E5FAD48 
 196      2D25C3CE 
 196      95
 197 02f6 8A741053 		.ascii	"\212t\020S\306\257h\340\307\366\304\223q\016\323\376"
 197      C6AF68E0 
 197      C7F6C493 
 197      710ED3FE 
 198 0306 5D9E6F2C 		.ascii	"]\236o,o\364d\213\372g,\343\013\310j\271\031\364\373"
 198      6FF4648B 
 198      FA672CE3 
 198      0BC86AB9 
 198      19F4FB
 199 0319 5F809945 		.ascii	"_\200\231E\321\363\211\221\033of\2342H\336z\334GxH\301"
 199      D1F38991 
 199      1B6F669C 
 199      3248DE7A 
 199      DC477848 
 200 032e 2EF73CC6 		.ascii	".\367<\306\334\243?\220\206e\267\200\017\267\316\376"
 200      DCA33F90 
 200      8665B780 
 200      0FB7CEFE 
 201 033e 230073B0 		.ascii	"#\000s\260\377&\372\020\214\033\\\251\343\030\3453\233"
 201      FF26FA10 
 201      8C1B5CA9 
 201      E318E533 
 201      9B
 202 034f 1699C0CC 		.ascii	"\026\231\300\314\355\230g\227\240:\261\351\3726\012"
 202      ED986797 
 202      A03AB1E9 
 202      FA360A
 203 035e 3D9D2824 		.ascii	"=\235($\\\012\217\246\241\341R\330\360\357\024z:P\010"
 203      5C0A8FA6 
 203      A1E152D8 
 203      F0EF147A 
 203      3A5008
 204 0371 C0AD2E71 		.ascii	"\300\255.q\021fB\256\027\370a6*\030\265\2154|\314\263"
 204      116642AE 
 204      17F86136 
 204      2A18B58D 
 204      347CCCB3 
 205 0385 96EC6FF7 		.ascii	"\226\354o\367\022\375\034[\030\333\351\306\321*Wc0\233"
 205      12FD1C5B 
 205      18DBE9C6 
 205      D12A5763 
 205      309B
 206 0397 CD9554B3 		.ascii	"\315\225T\263\2243J9\263X6\024\325\231r3n\252/\225\325"
 206      94334A39 
ARM GAS  /tmp/ccUedYnj.s 			page 16


 206      B3583614 
 206      D5997233 
 206      6EAA2F95 
 207 03ac 82A28E0F 		.ascii	"\202\242\216\017\015\015g\025\220J\306S\331!Q7\363\201"
 207      0D0D6715 
 207      904AC653 
 207      D9215137 
 207      F381
 208 03be 92A6ABFD 		.ascii	"\222\246\253\375\344Z4\331Q+(\273\312\023jN\231,M\032"
 208      E45A34D9 
 208      512B28BB 
 208      CA136A4E 
 208      992C4D1A 
 209 03d2 AA3C6166 		.ascii	"\252<af'A\330\014\033\034\003\245\250\353\305Bnw\321"
 209      2741D80C 
 209      1B1C03A5 
 209      A8EBC542 
 209      6E77D1
 210 03e5 2899B9CD 		.ascii	"(\231\271\315\333F\266\214\354%K\245h\250\343{\236\326"
 210      DB46B68C 
 210      EC254BA5 
 210      68A8E37B 
 210      9ED6
 211 03f7 C954DA23 		.ascii	"\311T\332#\357*\253\203\253\254\325\275\245\334\226"
 211      EF2AAB83 
 211      ABACD5BD 
 211      A5DC96
 212 0406 91D1E746 		.ascii	"\221\321\347F[\340\272\251\231\343yE!\217T\207\320\346"
 212      5BE0BAA9 
 212      99E37945 
 212      218F5487 
 212      D0E6
 213 0418 3E0E9B18 		.ascii	">\016\233\030\031\335\226\331)\233\352nC{\"\263~\010"
 213      19DD96D9 
 213      299BEA6E 
 213      437B22B3 
 213      7E08
 214 042a 0403D6E8 		.ascii	"\004\003\326\350\252^4\366A\270P,e\236\037\333\272\025"
 214      AA5E34F6 
 214      41B8502C 
 214      659E1FDB 
 214      BA15
 215 043c D6BD6C14 		.ascii	"\326\275l\024\013\371\214\241\226\312FA\235\310\350"
 215      0BF98CA1 
 215      96CA4641 
 215      9DC8E8
 216 044b AA69CA79 		.ascii	"\252i\312y\025\376\006\374K\374,"
 216      15FE06FC 
 216      4BFC2C
 217              		.text
 218              		.section	.gnu.lto_.symbol_nodes.f1f266d4b033a9b5,"",%progbits
 219 0000 789C4D8C 		.ascii	"x\234M\214MN\002Q\020\204\253\272\247\007\025\024\360"
 219      4D4E0251 
 219      1084ABBA 
 219      A7071514 
 219      F0
 220 0011 021EC773 		.ascii	"\002\036\307sx\222&\222\010\356<\200\254\346($, a\313"
ARM GAS  /tmp/ccUedYnj.s 			page 17


 220      78922692 
 220      08EE3C80 
 220      ACE62824 
 220      2C2061CB 
 221 0025 027FC001 		.ascii	"\002\177\300\001Ae\307\336\370\036C|\364\346\313W\335"
 221      4165C7DE 
 221      F81E437C 
 221      F4E6CB57 
 221      DD
 222 0036 D502C12D 		.ascii	"\325\002\301-Q\215\274\322\211\247)\340\376\374xgs\""
 222      518DBCD2 
 222      89A729E0 
 222      FEFC7867 
 222      7322
 223 0048 7395173A 		.ascii	"s\225\027:R*{\272\034u\320\247-I8\344\215\256'\325\017"
 223      522A7BBA 
 223      1C75D0A7 
 223      2D4938E4 
 223      8DAE27D5 
 224 005d 4A486D47 		.ascii	"JHmG\215X1\213X\320,\340\235yx\313\037zV5:\035\362\233"
 224      8D58318B 
 224      58D02CE0 
 224      9D7978CB 
 224      1F7A5635 
 225 0075 6EC9BEE8 		.ascii	"n\311\276\350y\262\015\275\226lM?K\266\245\237'\373"
 225      79B20DBD 
 225      966C4D3F 
 225      4BB6A59F 
 225      27FB
 226 0087 A45F242B 		.ascii	"\244_$+\351\365\177S\271\304p\361\033\330@y`\035\345"
 226      E9F57F53 
 226      B9C470F1 
 226      1BD84079 
 226      601DE5
 227 009a 3250DBE8 		.ascii	"2P\333\350Nf\022Y\214G\271j\013Eow\243\332<\356\257"
 227      4E661259 
 227      8C47B96A 
 227      0B456F77 
 227      A3DA3CEE 
 228 00af D08DF776 		.ascii	"\320\215\367v\215\"\2725Q<\204\275\265Q\366*\016c\317"
 228      8D22BA35 
 228      513C84BD 
 228      B551F62A 
 228      0E63CF
 229 00c2 14F7E10F 		.ascii	"\024\367\341\017\376\000\027\316b\016"
 229      FE0017CE 
 229      620E
 230              		.text
 231              		.section	.gnu.lto_.refs.f1f266d4b033a9b5,"",%progbits
 232 0000 789C2588 		.ascii	"x\234%\210\321\025\000\020\014\304.G\025\253\330\177"
 232      D1150010 
 232      0CC42E47 
 232      15ABD87F 
 233 0010 3FF5245F 		.ascii	"?\365$_\211e\035}\020`\323\032\335\025\031t\015e\255"
 233      89651D7D 
 233      1060D31A 
 233      DD151974 
ARM GAS  /tmp/ccUedYnj.s 			page 18


 233      0D65AD
 234 0023 F99AE55D 		.ascii	"\371\232\345]\312\241\013\021\353\000\242"
 234      CAA10B11 
 234      EB00A2
 235              		.text
 236              		.section	.gnu.lto_.decls.f1f266d4b033a9b5,"",%progbits
 237 0000 789CBD5B 		.ascii	"x\234\275[\013t\024U\232\256Gw\222\206\360T\031X_\301"
 237      0B741455 
 237      9AAE4777 
 237      9286F054 
 237      19585FC1 
 238 0014 C78C332A 		.ascii	"\307\2143*\001d\025\335]E\243G<G\\O\202s\330gSt\012"
 238      016415DD 
 238      5D45A347 
 238      3C475C4F 
 238      8273D867 
 239 002b 92B1D31D 		.ascii	"\222\261\323\035\273+\004\3661T\302Cd\\\210@\0044@\010"
 239      BB2B04F6 
 239      3154C243 
 239      645C8840 
 239      04344008 
 240 003f A0208A10 		.ascii	"\240 \212\020\210\204\207P\250@@G\002\031@\310\3004"
 240      88848750 
 240      A8404047 
 240      021940C8 
 240      C034
 241 0051 3080A0F2 		.ascii	"0\200\240\362\024\020\005\262\377\375oUwUuUwUX\267\316"
 241      141005B2 
 241      FFFD6F55 
 241      77557555 
 241      775558B7 
 242 0066 B9B7EB71 		.ascii	"\271\267\353q\357w\377\347\275\377}4\307p\314p\236a"
 242      EF77FFE7 
 242      BDFF7D34 
 242      C770CC70 
 242      9E61
 243 0078 DAE08ABC 		.ascii	"\332\340\212\274\30003\262\030\306\3130\314\343\220"
 243      C03033B2 
 243      18C6CB30 
 243      CCE390
 244 0087 3A415A00 		.ascii	":AZ\000)\003\022\024a\376\211e\230\177\206\364\257\220"
 244      29031214 
 244      61FE8965 
 244      987F86F4 
 244      AF90
 245 0099 FE0D921F 		.ascii	"\376\015\222\037\322p\226\226\037\001\277\"\244\221"
 245      D2709696 
 245      1F01BF22 
 245      A491
 246 00a7 90C8950D 		.ascii	"\220\310\225\015\251\010\356K \275\002\251\014\322\030"
 246      A908EE4B 
 246      20BD02A9 
 246      0CD218
 247 00b6 48FF05E9 		.ascii	"H\377\005\351\367\220\306C\232\010i\006\244\032H\013"
 247      F790C643 
 247      9A086906 
 247      A41A480B 
ARM GAS  /tmp/ccUedYnj.s 			page 19


 248 00c6 2065429D 		.ascii	" eB\235\017\341w%\244U\220\326B\272\012\251\015R\017"
 248      0FE17725 
 248      A45590D6 
 248      42BA0AA9 
 248      0D520F
 249 00d9 8E315C04 		.ascii	"\2161\\\004\227\274\252Si$\027\253\276gU\034\375Eh\351"
 249      97BCAA53 
 249      692417AB 
 249      BE67551C 
 249      FD4568E9 
 250 00ed 02BFA720 		.ascii	"\002\277\247 \255\207\324Y\245\221\320\233\003@wq\011"
 250      AD87D459 
 250      A591D09B 
 250      03407771 
 250      09
 251 00fe 5EC7C13B 		.ascii	"^\307\301;\037<\207\340\367n\370\275\007\322X\025\317"
 251      1F3C87E0 
 251      F76EF8BD 
 251      07D25815 
 251      CF
 252 010f A762DD0B 		.ascii	"\247b\335\013\357\356\203t?G\371!|\015\200\373G8\312"
 252      EFEE8374 
 252      3F47F921 
 252      7C0D80FB 
 252      4738CA
 253 0122 27A1ED77 		.ascii	"'\241\355wl2\035D\026w\301\357kl\202\206FH\335\341\271"
 253      6C321D44 
 253      1677C1EF 
 253      6B6C8286 
 253      4648DDE1 
 254 0137 9EA13220 		.ascii	"\236\2412 \262\256\326\321@\344\373\030G\351\326\350"
 254      B2AED6D1 
 254      40E4FB18 
 254      47E9D6E8 
 255 0147 FD3B487F 		.ascii	"\375;H\177O\276C\012\253\264O\202o\245\\BO3Y*\237W\270"
 255      4FBE430A 
 255      ABB44F82 
 255      6FA55C42 
 255      4F33592A 
 256 015e 84CEE6B2 		.ascii	"\204\316\346\262\224GMw\204\274\002\216\352\372\025"
 256      94474D77 
 256      84BC028E 
 256      EAFA15
 257 016d 552F7ADE 		.ascii	"U/z\336\"\220F\023\3769\252/\215GMo\204\317\225\026"
 257      22904613 
 257      FE39AA2F 
 257      8D474D6F 
 257      84CF9516 
 258 0181 7C127DFF 		.ascii	"|\022}\377\206\241<i|\022\036\237Py$\3745\252r\320\370"
 258      86A13C69 
 258      7C121E9F 
 258      507924FC 
 258      35AA72D0 
 259 0196 6B80FBD5 		.ascii	"k\200\373\325D\226p\357\201w\233\341~\035\244\377\206"
 259      449670EF 
 259      81779BE1 
 259      7E1DA4FF 
ARM GAS  /tmp/ccUedYnj.s 			page 20


 259      86
 260 01a7 E785F0FC 		.ascii	"\347\205\360\374{\316hgu\220\256A\032\247\312&G'\013"
 260      7BCE6867 
 260      7590AE41 
 260      1AA7CA26 
 260      47270B
 261 01ba 5E95473A 		.ascii	"^\225G:\376e\302#K\313+\360\373\005\2445\252\355\023"
 261      FE65C223 
 261      4BCB2BF0 
 261      FB05A435 
 261      AAED13
 262 01cd 1E2A08DF 		.ascii	"\036*\010\337\034\265O\263\336\365\362\250Q\355\334"
 262      1CB54FB3 
 262      DEF5F2A8 
 262      51EDDC
 263 01dc CB24DBAF 		.ascii	"\313$\333\257Y6\035\231)\262\\)\327N\222\0077u6<tg\336"
 263      59361D99 
 263      29B25C29 
 263      D74E9207 
 263      3775363C 
 264 01f3 90E1CA69 		.ascii	"\220\341\312i\002\221\015c\005\266\263\217\251\365\340"
 264      02910D63 
 264      05B6B38F 
 264      A9F5E0
 265 0202 5DB68F79 		.ascii	"]\266\217y\032\252\336\313,\222\345\252\330\261\371"
 265      1AAADECB 
 265      2C92E5AA 
 265      D8B1F9
 266 0211 B7CB1E81 		.ascii	"\267\313\036\201]\310v\007\005\364fA\322K\241Z\225,"
 266      5DC87607 
 266      05F46641 
 266      D24BA15A 
 266      952C
 267 0223 7FD28349 		.ascii	"\177\322\203I\276\322\242rL?\226\021\330w\001N`\337"
 267      BED2A272 
 267      4C3F9611 
 267      D877014E 
 267      60DF
 268 0235 617F439B 		.ascii	"a\177C\233\221c\227OV\367\224\345,\372\205Q\277Y\\\275"
 268      9163974F 
 268      56F794E5 
 268      2CFA8551 
 268      BF595CBD 
 269 0249 995A28AE 		.ascii	"\231Z(\256\\\336Q\303\312\265\237\260\026\355\015\322"
 269      5CDE51C3 
 269      CAB59FB0 
 269      16ED0DD2 
 270 0259 9ACB4A30 		.ascii	"\232\313J01\361T\223\007\321\227!\033\277e\015\015\250"
 270      31F15493 
 270      07D19721 
 270      1BBF650D 
 270      0DA8
 271 026b 20B583EC 		.ascii	" \265\203\354P8b\003\002\273<\211\350k3)\321\313\035"
 271      50386203 
 271      02BB3C89 
 271      E86B3329 
 271      D1CB1D
ARM GAS  /tmp/ccUedYnj.s 			page 21


 272 027e 105DA9EC 		.ascii	"\020]\251\354\2322\267\027!\332\240\007*Z\265\325\034"
 272      9A32B717 
 272      21DAA007 
 272      2A5AB5D5 
 272      1C
 273 028f AD550FD6 		.ascii	"\255U\017\326\023\330z(\254\203\345\230r\215\020\253"
 273      13D87A28 
 273      AC83E598 
 273      728D10AB 
 274 029f 1AEA2DBD 		.ascii	"\032\352-\275\324\002F\022v\357\310\256\022(,G:\022"
 274      D4024612 
 274      76EFC8AE 
 274      12282C47 
 274      3A12
 275 02b1 77583956 		.ascii	"wX9V\3141*\251\011\351\010\354\012\366^\310W\262\275"
 275      CC312AA9 
 275      09E908EC 
 275      0AF65EC8 
 275      57B2BD
 276 02c4 215F0D79 		.ascii	"!_\015y\374\342\230\012V\323\277\225\244\323speG\015"
 276      FCE2980A 
 276      56D3BF95 
 276      A4D37370 
 276      65470D
 277 02d7 0AD1C74C 		.ascii	"\012\321\307LN\010\221\261dAU\376\374)\237\355b\307"
 277      4E0891B1 
 277      644155FE 
 277      FC299FED 
 277      62C7
 278 02e9 CB327C68 		.ascii	"\3132|h\204j\0348\272Q\377\316\241\252\247n\331\314"
 278      846A1C38 
 278      BA51FFCE 
 278      A1AAA76E 
 278      D9CC
 279 02fb 5622D47A 		.ascii	"V\"\324z\204\212\265\033j\325\264\015\217\242\355lD"
 279      848AB51B 
 279      6AD5B40D 
 279      8FA2ED6C 
 279      44
 280 030c A0599C11 		.ascii	"\240Y\234\021H`3\343\234\307\237\265\002\004\015?\253"
 280      486033E3 
 280      9CC79FB5 
 280      02040D3F 
 280      AB
 281 031d 376444ED 		.ascii	"7dD\355\302\374\314\3059\246\2163\251\316\312`\262\354"
 281      C2FCCCC5 
 281      39A68E33 
 281      A9CECA60 
 281      B2EC
 282 032f 5427C72E 		.ascii	"T'\307.]\254\356\245s\332\332\014;\021q\314\273\330"
 282      5DACEEA5 
 282      73DADA0C 
 282      3B1171CC 
 282      BBD8
 283 0341 D4A76687 		.ascii	"\324\247f\207\333\337\362E%[\201\362\377\324\221\313"
 283      DBDFF245 
 283      255B81F2 
ARM GAS  /tmp/ccUedYnj.s 			page 22


 283      FFD491CB 
 284 0351 35EC9895 		.ascii	"5\354\230\225\354rV\235\024\247\265\177\017\266\377"
 284      EC72569D 
 284      14A7B57F 
 284      0FB6FF
 285 0360 15B6DF64 		.ascii	"\025\266\337dn\177\316\276?OT\333or\324\376\332}3\255"
 285      6E7FCEBE 
 285      3F4F54DB 
 285      6F72D4FE 
 285      DA7D33AD 
 286 0374 5CFEF15B 		.ascii	"\\\376\361[R\231\306\376\226\343\347\324V\276@G}\235"
 286      5299C6FE 
 286      96E3E7D4 
 286      56BE4047 
 286      7D9D
 287 0386 371BC713 		.ascii	"7\033\307\023\035\215\352{\302\324MT\363\032\375\355"
 287      1D8DEA7B 
 287      C2D44D54 
 287      F31AFDED 
 288 0396 EA2780D1 		.ascii	"\352'\200\321\323\325\354\364\361rS_\215\206\331\256"
 288      D3D5ECF4 
 288      F172535F 
 288      8D86D9AE 
 289 03a6 11730C92 		.ascii	"\021s\014\222\330\260\017{\036\012\366\266\0230[K\252"
 289      D8B00F7B 
 289      1E0AF6B6 
 289      13305B4B 
 289      AA
 290 03b7 5436EAC1 		.ascii	"T6\352\301\346\271\0063R\326\254\007[\340\004\254\253"
 290      E6B90633 
 290      52D6AC07 
 290      5BE004AC 
 290      AB
 291 03c8 3D65BBF5 		.ascii	"=e\273\365`\213\\\203\031)\373\223\036\354]'`=\355)"
 291      608B5C83 
 291      1929FB93 
 291      1EEC5D27 
 291      603DED29 
 292 03dc DBAB075B 		.ascii	"\333\253\007[\346\032\314H\331Wz\260\017\235\200\345"
 292      E61ACC48 
 292      D9577AB0 
 292      0F9D80E5 
 293 03ec 585016BF 		.ascii	"XP\026\277\354\206\277ml\334\3169\246\236\327\372\004"
 293      EC86BF6D 
 293      6CDCCE39 
 293      A69ED7FA 
 293      04
 294 03fd 9736CD24 		.ascii	"\2276\315$0\032x\267]\230\201o\030\361\253\037\233#"
 294      301A78B7 
 294      5D98816F 
 294      18F1AB1F 
 294      9B23
 295 040f 2B13786D 		.ascii	"+\023xm\014]\353\0040\205\275T}\256\033\2207\271\006"
 295      0C5DEB04 
 295      3085BD54 
 295      7DAE1B90 
 295      37B906
ARM GAS  /tmp/ccUedYnj.s 			page 23


 296 0422 336A651E 		.ascii	"3je\036\0013t5\352x\024[\254\364\234\235\350\355\262"
 296      01337435 
 296      EA78145B 
 296      ACF49C9D 
 296      E8EDB2
 297 0435 342C122D 		.ascii	"4,\022-\322\256\015\002:.^X\356\331\323\272\254\300"
 297      D2AE0D02 
 297      3A2E5E58 
 297      EED9D3BA 
 297      ACC0
 298 0447 9EC491FD 		.ascii	"\236\304\221\375\024\353\213SA\357\265\2736\014\324"
 298      14EB8B53 
 298      41EFB5BB 
 298      360CD4
 299 0456 B7F0A638 		.ascii	"\267\360\2468T\273\322U\2653\204\023zC\330\341DL)<\241"
 299      54BBD255 
 299      B5338413 
 299      7A43D8E1 
 299      444C293C 
 300 046b D94E4CCA 		.ascii	"\331NL\312$y2[\261\362\266\224\261\344\376\226\323\013"
 300      2479325B 
 300      B1F2B694 
 300      B1E4FE96 
 300      D30B
 301 047d D418E00C 		.ascii	"\324\030\340\014\016\335;y\313\030\300\021X\365\324"
 301      0EDD3B79 
 301      CB18C011 
 301      58F5D4
 302 048c 9D5A4071 		.ascii	"\235Z@q\036\301\016\264\037\254v\325\316\333H\250~\021"
 302      1EC10EB4 
 302      1FAC76D5 
 302      CEDB48A8 
 302      7E11
 303 049e 818E268D 		.ascii	"\201\216&\215\031>S@\3413\016\371>_\342\246M\273\214"
 303      193E5340 
 303      E1330EF9 
 303      3E5FE2A6 
 303      4DBB8C
 304 04b1 6AFC59EB 		.ascii	"j\374Y\353\330\251\376\264^\365\247]\253\336\340!\261"
 304      D8A9FEB4 
 304      5EF5A75D 
 304      ABDEE021 
 304      B1
 305 04c2 4B0DB37E 		.ascii	"K\015\263~!\307\024Vg\352)\375\002\242\307\035\033\377"
 305      21C71456 
 305      67EA29FD 
 305      02A2C71D 
 305      1BFF
 306 04d4 01E3B41F 		.ascii	"\001\343\264\037Q\254\027\255\365\343\000\250z\352\007"
 306      51AC17AD 
 306      F5E300A8 
 306      7AEA07
 307 04e3 F723D035 		.ascii	"\367#\3205\004\272\336n\240U\323\346\015D \342\261\034"
 307      04BADE6E 
 307      A055D3E6 
 307      0D4420E2 
 307      B11C
ARM GAS  /tmp/ccUedYnj.s 			page 24


 308 04f5 33C96356 		.ascii	"3\311cV4kR4kT@\334\351T\237\373\271\312rL\225\307\244"
 308      346B5234 
 308      6B5440DC 
 308      E9549FFB 
 308      B9CA724C 
 309 050c 2D033B29 		.ascii	"-\003;)\006\006\255\267=6\353\321Y\262R\301\273P\327"
 309      0606ADB7 
 309      3D36EBD1 
 309      59B252C1 
 309      BB50D7
 310 051f 14555D13 		.ascii	"\024U]\023Q8o&\011\347\232K\351@|\341\232\213,#\027"
 310      51386F26 
 310      09E79A4B 
 310      E9407CE1 
 310      9A8B2C23 
 311 0534 57DAC1C5 		.ascii	"W\332\301\305&\312\305\024\344b\321\377\001\027\357"
 311      26CAC514 
 311      E462D1FF 
 311      0117EF
 312 0543 BBE6A2AB 		.ascii	"\273\346\242\253\216\0132\327]\364(\216|71\323SG\357"
 312      8E0B32D7 
 312      5DF4288E 
 312      7C3731D3 
 312      5347EF
 313 0556 849C69DC 		.ascii	"\204\234i\334M\206\310Y\331\363%\233C_\247\237\334_"
 313      4D86C859 
 313      D9F3259B 
 313      435FA79F 
 313      DC5F
 314 0568 F85237C5 		.ascii	"\370R7\305\223\035M\361v\304\247x\323Qb+=\026\336\345"
 314      931D4DF1 
 314      76C4A778 
 314      D351622B 
 314      3D16DEE5 
 315 057c 04AAB6FA 		.ascii	"\004\252\266\372\313[H'Z\2150k\332\013\023[\265s\015"
 315      CB5B4827 
 315      5A8D306B 
 315      DA0B135B 
 315      B5730D
 316 058f 75D2D908 		.ascii	"u\322\331\010\264)I\203\031&\005f\030\025\010\217\244"
 316      B4294983 
 316      19260566 
 316      1815088F 
 316      A4
 317 05a0 A51FB073 		.ascii	"\245\037\260s\034\247\276!\017\231\314\377{=\216\331"
 317      1CA7BE21 
 317      0F99CCFF 
 317      7B3D8ED9 
 318 05b0 8EE413ED 		.ascii	"\216\344\023\355\271\014\2754\343Y0\357Q5l\242\372i"
 318      B90CBD34 
 318      E35930EF 
 318      51356CA2 
 318      FA69
 319 05c2 BE21C04A 		.ascii	"\276!\300Je\3764\272\224\2023\037\216\331\177\203p\033"
 319      65FE34BA 
 319      9482331F 
 319      8ED97F83 
ARM GAS  /tmp/ccUedYnj.s 			page 25


 319      701B
 320 05d4 766214B6 		.ascii	"vb\024\266\000\243\260\330\2151\253\354\333Y\243\322"
 320      00A3B0D8 
 320      8D31ABEC 
 320      DB59A3D2 
 321 05e4 46793D7E 		.ascii	"Fy=~\203\304]\231f\261ld1\207\035\256a\221\005P\030"
 321      83C45D99 
 321      66B16C64 
 321      31871DAE 
 321      61910550 
 322 05f9 2AA9C971 		.ascii	"*\251\311q\3465\253\023\261Ij\304A\276\245\367\306\326"
 322      E635AB13 
 322      B1496AC4 
 322      41BEA5F7 
 322      C6D6
 323 060b 633E797A 		.ascii	"c>yz6]:\023\330\217XNE\265\012D\322\013\347\220\330"
 323      365D3A13 
 323      D88F584E 
 323      45B50A44 
 323      D20BE790 
 324 0620 D4D78D5F 		.ascii	"\324\327\215_o\325\374z\031\312\262\332k\366#\342\250"
 324      6FD5FC7A 
 324      19CAB2DA 
 324      6BF623E2 
 324      A8
 325 0631 ED37ECB7 		.ascii	"\3557\354\267\275\254\221\035\247\023\321\370e\327\003"
 325      BDAC911D 
 325      A713D1F8 
 325      65D703
 326 0640 2EE67461 		.ascii	".\346ta\313|\357\015\231@\354r\303\":\355Hg\0032\253"
 326      CB7CEF0D 
 326      9940EC72 
 326      C3223AED 
 326      48670332 
 327 0655 9F2670CC 		.ascii	"\237&p\314;\330p\275\331\0106}\323\364\252\272\302P"
 327      3BD870BD 
 327      D908367D 
 327      D3F4AABA 
 327      C250
 328 0667 EFC8082E 		.ascii	"\357\310\010.Z\030A};\215\000,\372\344v\026\341\350"
 328      5A18417D 
 328      3B8D002C 
 328      FAE47616 
 328      E1E8
 329 0679 B4677B9C 		.ascii	"\264g{\234H\227JP\341\256\202M\271\023\0145/e\37712"
 329      48974A50 
 329      E1AE824D 
 329      B9130C35 
 329      2F65FF31 
 330 068e 28ADE3C8 		.ascii	"(\255\343\310\232\360\316$\313\242\222\321YVB\214\002"
 330      9AF0CE24 
 330      CBA292D1 
 330      5956428C 
 330      02
 331 069f BB9A23F3 		.ascii	"\273\232#\363\240\006\216\254p~\204y#\247[\347\264\263"
 331      A0068EAC 
 331      707E8479 
ARM GAS  /tmp/ccUedYnj.s 			page 26


 331      23A75BE7 
 331      B4B3
 332 06b1 8AB509AB 		.ascii	"\212\265\011\253\020\330Uf1:\235\214\246mf\245\336\370"
 332      10D85566 
 332      313A9D8C 
 332      A66D66A5 
 332      DEF8
 333 06c3 F6DDA0F1 		.ascii	"\366\335\240\361]\272\270\310\355\212\353\216-\232\333"
 333      5DBAB8C8 
 333      ED8AEB8E 
 333      2D9ADB
 334 06d2 6E42B73D 		.ascii	"nB\267=\224$\334\365\346\000\306\311\002\344\251\366"
 334      9424DCF5 
 334      E600C6C9 
 334      02E4A9F6 
 335 06e2 7212BF38 		.ascii	"r\022\2778\346\234\327\301\014\"\307B\350\332P\266r"
 335      E69CD7C1 
 335      0C22C742 
 335      E8DA50B6 
 335      72
 336 06f3 311DCAD2 		.ascii	"1\035\312\322\256b\252\302X|\\\241{\017[\320\316.\230"
 336      AE62AAC2 
 336      587C5CA1 
 336      7B0F5BD0 
 336      CE2E98
 337 0706 44E16031 		.ascii	"D\341`1\2642\003\327W\222z\362\303\352\356C\223\003"
 337      B43203D7 
 337      57927AF2 
 337      C3EAEE43 
 337      9303
 338 0718 17AE5456 		.ascii	"\027\256TVM\321\206L\272\251@\255\257)\265\365\245\024"
 338      4DD1864C 
 338      BAA940AD 
 338      AF29B5F5 
 338      A514
 339 072a A6417F4D 		.ascii	"\246A\177M:\347\330\201\316\361\271\336!8fz\206\003"
 339      3AE7D881 
 339      CEF1B9DE 
 339      2138667A 
 339      8603
 340 073c C1DF6767 		.ascii	"\301\337gg\206\320\005\355\246[>\332&\316[f<\253N\310"
 340      86D005ED 
 340      A65B3EDA 
 340      26CE5B66 
 340      3CAB4EC8 
 341 0750 80A75764 		.ascii	"\200\247Wd\245R\325\202c>5\320\205N\210\353k\0176\177"
 341      A552D582 
 341      633E35D0 
 341      854E88EB 
 341      6B0F367F 
 342 0764 86265CE2 		.ascii	"\206&\\\342z\020m;\301\033h\307l\245\262\246E\213!\350"
 342      7A106D3B 
 342      C11B68C7 
 342      6CA5B2A6 
 342      458B21E8 
 343 0778 96C56AD7 		.ascii	"\226\305j\327xF\372\366\3140\304K\037;\201\033\344X"
 343      7846FAF6 
ARM GAS  /tmp/ccUedYnj.s 			page 27


 343      CC30C44B 
 343      1F3B811B 
 343      E458
 344 078a F789DD3C 		.ascii	"\367\211\335<\201]\212\013D\357\341\326\317\032\314"
 344      815D8A0B 
 344      44EFE1D6 
 344      CF1ACC
 345 0799 3FC1FC08 		.ascii	"?\301\374\010\346\177\305\3748\346\337a~\005\363\011"
 345      E67FC5FC 
 345      38E6DF61 
 345      7E05F309 
 346 07a9 D885BE86 		.ascii	"\330\205\276\206\371T\314?\303\374\217\230\357\304|"
 346      F954CC3F 
 346      C3FC8F98 
 346      EFC47C
 347 07b8 17E62D98 		.ascii	"\027\346-\230\357I\327\331j\033\177Gc\034\372H\035\216"
 347      EF49D7D9 
 347      6A1B7F47 
 347      631CFA48 
 347      1D8E
 348 07ca 349F6624 		.ascii	"4\237f$u\362"
 348      75F2
 349 07d0 AC6925DD 		.ascii	"\254i%\335\264\343f\327\303.H\3243\014=\335\230*\034"
 349      B4E366D7 
 349      C32E48D4 
 349      330C3DDD 
 349      982A1C
 350 07e3 7A6677A6 		.ascii	"zfw\246\213Zj\375\331\361\341\347&\025\340\000\327\015"
 350      8B5A6AFD 
 350      D9F1E1E7 
 350      2615E000 
 350      D70D
 351 07f5 EF0CC110 		.ascii	"\357\014\301\020\226\260k\262\225K\254\234e\373\022"
 351      96B06BB2 
 351      954BAC9C 
 351      65FB12
 352 0804 37DA2865 		.ascii	"7\332(eWo?\347\212\324\301Z}\237Z\377\240kJ\017\331"
 352      576F3FE7 
 352      8AD4C15A 
 352      7D9F5AFF 
 352      A06B4A0F 
 353 0819 509A9586 		.ascii	"P\232\225\206\322?\273\243\2641.\324_\250\0001\327\244"
 353      D23FBBA3 
 353      B4312ED4 
 353      5FA80031 
 353      D7A4
 354 082b 1EB621B5 		.ascii	"\036\266!\265G\032R\377bCj\017\246ZmYf%\333\215\036"
 354      471A52FF 
 354      62436A0F 
 354      A65A6D59 
 354      6625DB8D 
 355 0840 827094A3 		.ascii	"\202p\224\243m\360x\260\201Q\367p^\342S\2325)w\2043"
 355      6DF078B0 
 355      8151F770 
 355      5EE2539A 
 355      35297784 
 356 0855 58A895A4 		.ascii	"X\250\225\244j\007\231D\325U\003\341T\220\343\256%u"
ARM GAS  /tmp/ccUedYnj.s 			page 28


 356      6A079944 
 356      D55503E1 
 356      5490E3AE 
 356      2575
 357 0867 C246526C 		.ascii	"\302FRl\032r\217%$u'3OV\316\306\016^\212Md\337\030/"
 357      1A728F25 
 357      24752733 
 357      4F56CEC6 
 357      0E5E8A4D 
 358 087f 37C967C9 		.ascii	"7\311g\311\300NE\001\303\\\246\3219\357a\026\312\362"
 358      C04E4501 
 358      C35CA6D1 
 358      39EF6116 
 358      CAF2
 359 0891 74B95E96 		.ascii	"t\271^\226}j\2675\005K|\315\335i\331\230\266+\366Kf"
 359      7D6AB735 
 359      054B7CCD 
 359      DD69D998 
 359      B62BF64B 
 360 08a6 3161495E 		.ascii	"1aI^\"\363\250\000F\255\243\273\004\366$g8\345C)S\032"
 360      22F3A800 
 360      46ADA3BB 
 360      04F62467 
 360      38E54329 
 361 08bc B64E856E 		.ascii	"\266N\205n\262Rik{\202q\256\311\323\252&\023\332\343"
 361      B252696B 
 361      7B8271AE 
 361      C9D3AA26 
 361      13DAE3
 362 08cf 98D74DCC 		.ascii	"\230\327M\314X\223\365\235\231\2543\226dm\330\372zV"
 362      5893F59D 
 362      99AC3396 
 362      646DD8FA 
 362      7A56
 363 08e1 5545ACAD 		.ascii	"UE\254\255\355N\347D\235\267 j\2765QUF\242\316\231\211"
 363      ED4EE744 
 363      9DB7206A 
 363      BE355155 
 363      46A2CE99 
 364 08f6 BA604514 		.ascii	"\272`E\024\352E\206\310L\346\250\0048f\275#\236/\232"
 364      EA4586C8 
 364      4CE6A804 
 364      3866BD23 
 364      9E2F9A
 365 0909 E12F25C3 		.ascii	"\341/%\303\307\252b\273\256\237}pv\275<\3415\371z\333"
 365      C7AA62BB 
 365      AE9F7D70 
 365      76BD3CE1 
 365      35F97ADB 
 366 091d 38D639DF 		.ascii	"8\3269\337W\314nu\012\227\306t~\3051'\222\010\245E\177"
 366      57CC6E75 
 366      0A97C674 
 366      7EC53127 
 366      9208A545 
 367 0932 B2A4E4D2 		.ascii	"\262\244\344\322\342\215\275\344\005\324(4V/\333 \\"
 367      E28DBDE4 
 367      05D42834 
ARM GAS  /tmp/ccUedYnj.s 			page 29


 367      562FDB20 
 367      5C
 368 0943 B3445851 		.ascii	"\263DXQ\267\177\360\034\371\223\011 \256q.\354\252\315"
 368      B77FF01C 
 368      F9930920 
 368      AE712EEC 
 368      AACD
 369 0955 CC0A1974 		.ascii	"\314\012\031t\342\017\323\251?\232X{'\313\232\260J\336"
 369      E20FD3A9 
 369      3F9A587B 
 369      27CB9AB0 
 369      4ADE
 370 0967 8AB07D0B 		.ascii	"\212\260}\013\267\337\366\346\370\332\270#R\346\366"
 370      B7DFF6E6 
 370      F8DAB823 
 370      52E6F6
 371 0976 D9604CB0 		.ascii	"\331`L\260\304XY\267k\360\034;E\021\"\355\330\233\304"
 371      C45859B7 
 371      6BF01C3B 
 371      451122ED 
 371      D89BC4
 372 0989 DBB3A7CE 		.ascii	"\333\263\247\3165\344I\362}K\022q\261\241\027\323\302"
 372      35E449F2 
 372      7D4B1271 
 372      B1A117D3 
 372      C2
 373 099a EBB771BD 		.ascii	"\353\267q\275\3565\236\274=i\242\3349L\365\3245\017"
 373      EE359EBC 
 373      3D69A2DC 
 373      394CF5D4 
 373      350F
 374 09ac 60A0F03A 		.ascii	"`\240\360:\002]h7\320\252i\357\322s\035\323\020\350"
 374      025D6837 
 374      D0AA69EF 
 374      D2731DD3 
 374      10E8
 375 09be 6A9639E2 		.ascii	"j\2269\342\340M\023\037\3368\361\341}\211\233\2666\236"
 375      E04D131F 
 375      DE38F1E1 
 375      7D899BB6 
 375      369E
 376 09d0 F9790B9B 		.ascii	"\371y\013\233\254\347U\237\265\346\247[j~\327u\305\316"
 376      ACE7559F 
 376      B5E6A75B 
 376      6A7ED775 
 376      C5CE
 377 09e2 45B39857 		.ascii	"E\263\230Wq\251{\242\\\301\276\022\227\227\315\276\243"
 377      71A97BA2 
 377      5CC1BE12 
 377      9797CDBE 
 377      A3
 378 09f3 C056F359 		.ascii	"\300V\363Y\320z\215\317v\327\220\024`T\362\351\275v"
 378      D07A8DCF 
 378      76D79014 
 378      6054F2E9 
 378      BD76
 379 0a05 9762E768 		.ascii	"\227b\347h\246\331\300\210\221\030\036\364\037\325-"
ARM GAS  /tmp/ccUedYnj.s 			page 30


 379      A6D9C088 
 379      91181EF4 
 379      1FD52D
 380 0a14 469344EA 		.ascii	"F\223D\352l$\362\266\225D\224\232\317_\227Y\313\236"
 380      6C24F2B6 
 380      9544949A 
 380      CF5F9759 
 380      CB9E
 381 0a26 9A906A47 		.ascii	"\232\220jG\347\\3\235\244p\032\272\326\333\320Uk\343"
 381      E75C339D 
 381      A4701ABA 
 381      D6DBD055 
 381      6BE3
 382 0a38 A3FB1F9F 		.ascii	"\243\373\037\237k\347\243$\342\265#\255\316L\332\023"
 382      6BE7A324 
 382      E2B523AD 
 382      CE4CDA13 
 383 0a48 661775B0 		.ascii	"f\027u\260\034\260r\371\341\307>\224\345\256\002\273"
 383      1CB072F9 
 383      E1C73E94 
 383      E5AE02BB 
 384 0a58 187DE227 		.ascii	"\030}\342'\237\331'\274&\237\360\032-\327\353K\334$"
 384      9FD927BC 
 384      269FF01A 
 384      2DD7EB4B 
 384      DC24
 385 0a6a 0E2FC569 		.ascii	"\016/\305ijd\365\2324\035\265!\261E*\332\3526\367\\"
 385      6A64F59A 
 385      341DB521 
 385      B1452ADA 
 385      EA36F75C 
 386 0a7e 82B4BDC7 		.ascii	"\202\264\275\307\223\020\243\262\203\231\266#\234i\206"
 386      9310A3B2 
 386      8399B623 
 386      9C6986
 387 0a8d 608ABF4C 		.ascii	"`\212\277L\322IV\325\224\016\326\252ZnT\325]\314\002"
 387      D24956D5 
 387      940ED6AA 
 387      5A6E54D5 
 387      5DCC02
 388 0aa0 59D90DC1 		.ascii	"Y\331\015\301Qs\003;\203\004G2\2148\354\235\332\324"
 388      5173033B 
 388      83044732 
 388      8C38EC9D 
 388      DAD4
 389 0ab2 A5268E62 		.ascii	"\245&\216b\247\253\025\011<\202U;\235\214\241\367/E"
 389      A7AB1509 
 389      3C82553B 
 389      9D8CA1F7 
 389      2F45
 390 0ac4 B5CB3FB4 		.ascii	"\265\313?\264\261m<\012\220cj\323B\325\033\241V\220"
 390      B16D3C0A 
 390      90636AD3 
 390      42D51BA1 
 390      5690
 391 0ad6 91E2E4AD 		.ascii	"\221\342\344\255\215\225\011(-$\327\235*UR\035mJ>\244"
 391      8D950928 
ARM GAS  /tmp/ccUedYnj.s 			page 31


 391      2D24D79D 
 391      2A55521D 
 391      6D4A3EA4 
 392 0aea A496AA8D 		.ascii	"\244\226\252\215\007\3617\343\353\0040V\260)%\260\037"
 392      07F137E3 
 392      EB043056 
 392      B02925B0 
 392      1F
 393 0afb F16E03D8 		.ascii	"\361n\003\3305\274u\000\3531hE+\005rz\317,\247d*\032"
 393      35BC7500 
 393      EB316845 
 393      2B05727A 
 393      CF2CA764 
 394 0b11 8D820257 		.ascii	"\215\202\002W\273\274\364\343\007*\310X/_\005\365Y\035"
 394      BBBCF4E3 
 394      072AC858 
 394      2F5F05F5 
 394      591D
 395 0b23 50953335 		.ascii	"P\22535\224\322\204\035N\374\261\231\307ac\035O\026"
 395      94D2841D 
 395      4EFCB199 
 395      C761631D 
 395      4F16
 396 0b35 373E30D9 		.ascii	"7>0\331LZ\030\216Y\213U>\346\315\253D\347\032\350*\021"
 396      4C5A188E 
 396      598B553E 
 396      E6CDAB44 
 396      E71AE82A 
 397 0b4a F9927EA1 		.ascii	"\371\222~\241\367\215V\333\203\265\2618\367\267%\350"
 397      F78D56DB 
 397      83B5B138 
 397      F7B725E8 
 398 0b5a 3EF6CD59 		.ascii	">\366\315YJ\367f\244\373\323\364t\033a8\246\031\253"
 398      4AF766A4 
 398      FBD3F474 
 398      1B6138A6 
 398      19AB
 399 0b6c 7C9644F7 		.ascii	"|\226D\367\311\345\224\356\317\034\321\275f\237~uH["
 399      C9E594EE 
 399      CF1CD1BD 
 399      669F7E75 
 399      485B
 400 0b7e A2267553 		.ascii	"\242&uS\254\016\031\014Q\217W\2514\322\003N\215\030"
 400      AC0E190C 
 400      518F57A9 
 400      34D2034E 
 400      8D18
 401 0b90 3C6E3683 		.ascii	"<n6\203\271Z\240\226\265\263o\3648\343a\327`9\006\312"
 401      B95AA096 
 401      B5B36FF4 
 401      38E361D7 
 401      603906CA 
 402 0ba4 5A6619D7 		.ascii	"Zf\031\327\361\216:\301Kq\002I=dF\301\216\271\0063\022"
 402      F18E3AC1 
 402      4B710249 
 402      3D6446C1 
 402      8EB90633 
ARM GAS  /tmp/ccUedYnj.s 			page 32


 403 0bb9 77609FEE 		.ascii	"w`\237\3568\323\241\270fS\200Y\235\323\261\272\364&"
 403      38D3A1B8 
 403      66538059 
 403      9DD3B1BA 
 403      F426
 404 0bcb 22B05B79 		.ascii	"\"\260[y\262\312\264\215'kAM\230o\307|\007\346\237c"
 404      B2CAB48D 
 404      276B414D 
 404      986FC77C 
 404      07E69F63 
 405 0bdf FE056F58 		.ascii	"\376\005oX\177<\036\367\017KCLg\022\2622\307\3365\206"
 405      7F3C1EF7 
 405      0F4B434C 
 405      6712B232 
 405      C7DE3586 
 406 0bf3 6BD5B313 		.ascii	"k\325\263\023\236\261\345\202\342E\003nF\317\3706\275"
 406      9EB1E582 
 406      E245036E 
 406      46CFF836 
 406      BD
 407 0c04 67185060 		.ascii	"g\030P`(\352Hj\264$9F\303\007\3241Z\0348F\245r\360M"
 407      28EA486A 
 407      B4243946 
 407      C307D431 
 407      5A1C3846 
 408 0c1c 67BB87C6 		.ascii	"g\273\207\306\276M\013\256\317\253\347\346\277B\036"
 408      BE4D0BAE 
 408      CFABE7E6 
 408      BF421E
 409 0c2b E6744CCB 		.ascii	"\346tL\313\203\021\206c\226b\225\326d&\336\247L\264"
 409      83118663 
 409      966295D6 
 409      6426DEA7 
 409      4CB4
 410 0c3d 3A6262EE 		.ascii	":bb\356\233\232\315\357\343\023k\327\255\251-\313V\225"
 410      9B9ACDEF 
 410      E3136BD7 
 410      ADA92DCB 
 410      5695
 411 0c4f 95CABCBD 		.ascii	"\225\312\274\275h\246\024\254\3015\230\321\346W\356"
 411      68A614AC 
 411      C13598D1 
 411      E657EE
 412 0c5e ADE929D7 		.ascii	"\255\351)\327nf\265I\310\2728\313V\323\204t\275E\245"
 412      6E66B549 
 412      C8BA38CB 
 412      56D38474 
 412      BD45A5
 413 0c71 52BFD77C 		.ascii	"R\277\327|<-m\0243\361\214B\2279\217b\020\243tt\033"
 413      3C2D6D14 
 413      33F18C42 
 413      97398F62 
 413      10A37474 
 414 0c86 C470CC76 		.ascii	"\304p\314v3\325\356\272\245\330\345\357\336\327NF\342"
 414      33D5EEBA 
 414      A5D8E5EF 
 414      DED74E46 
ARM GAS  /tmp/ccUedYnj.s 			page 33


 414      E2
 415 0c97 5ACD974E 		.ascii	"Z\315\227N\360\254\272%\253KoA\002{\020\235\377\020"
 415      F0ACBA25 
 415      AB4B6F41 
 415      027B109D 
 415      FF10
 416 0ca9 3AF95F30 		.ascii	":\371_0\217a~\004\363\023z\267\267\213\005\210\346\343"
 416      8F617E04 
 416      F3137AB7 
 416      B78B0588 
 416      E6E3
 417 0cbb D8D49A5A 		.ascii	"\330\324\232Z\332mMg\223\255\311\015\230\321\232.\032"
 417      DA6D4D67 
 417      93ADC90D 
 417      98D19A2E 
 417      1A
 418 0ccc AC09860B 		.ascii	"\254\011\206\013\336\204\347\322\232f\316\312n\036\256"
 418      DE84E7D2 
 418      9A66CECA 
 418      6E1EAE
 419 0cdb 99E6EE78 		.ascii	"\231\346\356x\227\342\024\254k*\245\264\350\224\262"
 419      97E214AC 
 419      6B2AA5B4 
 419      E894B2
 420 0cea 0795B217 		.ascii	"\007\225\262\027Up\022\363S\230\177c\354\205[;\232z"
 420      557012F3 
 420      53987F63 
 420      EC855B3B 
 420      9A7A
 421 0cfc 6143A767 		.ascii	"aC\247g5&\350\305#++ZA\326N\267\336\216]Rh\367u\006"
 421      3526E8C5 
 421      232B2B5A 
 421      41D64EB7 
 421      DE8E5D52 
 422 0d14 BBAF23D6 		.ascii	"\273\257#\326\335W\252\255\267sX\345|rP\365!\355\276"
 422      DD57AAAD 
 422      B77358E5 
 422      7C7250F5 
 422      21EDBE
 423 0d27 CEA7EFBE 		.ascii	"\316\247\357\276&\214W\346\274\365N\242\017\036\037"
 423      268C57E6 
 423      BCF54EA2 
 423      0F1E1F
 424 0d36 77EAAFD9 		.ascii	"w\352\257\331\024\253\255\372S\217\025\331\032\025."
 424      14ABADFA 
 424      538F15D9 
 424      1A152E
 425 0d45 0DD45A6D 		.ascii	"\015\324Zm\347uj\373\036\325v\321\250\244?d\233\224"
 425      E7756AFB 
 425      1ED576D1 
 425      A8A43F64 
 425      9B94
 426 0d57 64D55E8A 		.ascii	"d\325^\212\255\272\265\255Z0F\37766\315\214Wk\370O\230"
 426      ADBAB5AD 
 426      5A3046FF 
 426      3636CD8C 
 426      576BF84F 
ARM GAS  /tmp/ccUedYnj.s 			page 34


 427 0d6c 15604E2A 		.ascii	"\025`N*\006>\3261\260\011\031P\320\326vb~\032\363+F"
 427      063ED631 
 427      B0091950 
 427      D0D67662 
 427      7E1AF32B 
 428 0d81 96DECA36 		.ascii	"\226\336\3126\305\362\306\360\031W\377L\363'2\3519|"
 428      C5F2C6F0 
 428      1957FF4C 
 428      F32732E9 
 428      397C
 429 0d93 EB7B9693 		.ascii	"\353{\226\223\036\303\2549yZpM\235\234\030\246\023s"
 429      1EC3AC39 
 429      795A704D 
 429      9D9C18A6 
 429      1373
 430 0da5 CD2424D7 		.ascii	"\315$$\327\273n\232w)0\035\374\341\316u\225\262l\"\201"
 430      BB6E9A77 
 430      29301DFC 
 430      E1CE7595 
 430      B26C2281 
 431 0db9 FC57CD30 		.ascii	"\374W\3150\361\322l\031\246\364iN=\300\254\260\271'"
 431      F1D26C19 
 431      A6F4694E 
 431      3DC0ACB0 
 431      B927
 432 0dcb D99C4F7B 		.ascii	"\331\234O{JB`\307{\356\265\234z\030\212\221\202\023"
 432      4A4260C7 
 432      7BEEB59C 
 432      7A188A91 
 432      8213
 433 0ddd 3D460F51 		.ascii	"=F\017Q~\022s\350\333\364\203\373\265kM\3644\310\011"
 433      7E1273E8 
 433      DBF483FB 
 433      B56B4DF4 
 433      34C809
 434 0df0 0C41BFC5 		.ascii	"\014A\277\305\016\224Tm_o\334v\022\341L\003\350i\233"
 434      0E94546D 
 434      5F6FDC76 
 434      12E14C03 
 434      E8699B
 435 0e03 01145782 		.ascii	"\001\024W\202<\246\261p1j\312\015\0119\006\022\252\266"
 435      3CA6B170 
 435      316ACA0D 
 435      09390612 
 435      AAB6
 436 0e15 E2804070 		.ascii	"\342\200@p9f\231\023\260\024\035\370t=\330j\327`9I\336"
 436      39669913 
 436      B0141DF8 
 436      743DD86A 
 436      D7603949 
 437 0e2a 43FD6692 		.ascii	"C\375f\222\207\370\315\253\036\342+\2231\377\003\346"
 437      87F8CDAB 
 437      1EE22B93 
 437      31FF03E6 
 438 0e3a FFE331F8 		.ascii	"\377\3431\370\315\206ls(A\225\252\303K\350\236I\217"
 438      CD866C73 
 438      284195AA 
ARM GAS  /tmp/ccUedYnj.s 			page 35


 438      C34BE89E 
 438      498F
 439 0e4c 68AD0393 		.ascii	"h\255\003\223\262*m\370#\370U\036C$\223\200\034dd_\347"
 439      B22A6DF8 
 439      23F8551E 
 439      43249380 
 439      1C64645F 
 440 0e61 28B49275 		.ascii	"(\264\222u1\201}\303\243\371\352\011\375Q2\335#\307"
 440      31817DC3 
 440      A3F9EA09 
 440      FD5132DD 
 440      23C7
 441 0e73 6C33BB6E 		.ascii	"l3\273n\022\312t\017\307\334\301\354\317\236+\3237\003"
 441      12CA740F 
 441      C7DCC1EC 
 441      CF9E2BD3 
 441      3703
 442 0e85 9855F264 		.ascii	"\230U\362d\005|@\006\370\270^\377\223\371Q\236-\203"
 442      057C4006 
 442      F8B85EFF 
 442      93F9519E 
 442      2D83
 443 0e97 532BF7F1 		.ascii	"S+\367\361\224*\342\346\315\315J\3136\322c\202\237_"
 443      942AE2E6 
 443      CDCD4ACB 
 443      36D26382 
 443      9F5F
 444 0ea9 6F6B63A9 		.ascii	"okc\251\0008\346BR\237\225\344w\263<\234\256\271A\264"
 444      0038E642 
 444      529F95E4 
 444      77B33C9C 
 444      AEB941B4 
 445 0ebd 2655026D 		.ascii	"&U\002mK\331\263\215u\262\227:9\376\007\270\336*\364"
 445      4BD9B38D 
 445      75B2973A 
 445      39FE07B8 
 445      DE2AF4
 446 0ed0 DB1EB70B 		.ascii	"\333\036\267\013,5\036\353\005\026\315\004\355\352\275"
 446      2C351EEB 
 446      0516CD04 
 446      EDEABD
 447 0edf 9550E91D 		.ascii	"\225P\351\035\214\334i\256<{P\242yjK\204\231\311\262"
 447      8CDC69AE 
 447      3C7B50A2 
 447      796A4B84 
 447      99C9B2
 448 0ef2 B23753F3 		.ascii	"\2627S\363Vu\347\214\332\030\301{\015A\250\265\251\245"
 448      5675E78C 
 448      DA18C17B 
 448      0D41A8B5 
 448      A9A5
 449 0f04 0FC44BEB 		.ascii	"\017\304K\353\367\234T*\250(5k\262\221\312@\215\324"
 449      F79C542A 
 449      A828356B 
 449      B291CA40 
 449      8DD4
 450 0f16 4C95965A 		.ascii	"L\225\226Z\327BY`#\224\014\225\034\223\351\267\245\350"
ARM GAS  /tmp/ccUedYnj.s 			page 36


 450      D7425960 
 450      23940C95 
 450      1C93E9B7 
 450      A5E8
 451 0f28 A7EA3CD6 		.ascii	"\247\352<\326{\316\006\222\223j-\264\255u%E[\213<\346"
 451      7BCE0692 
 451      936A2DB4 
 451      AD752545 
 451      5B8B3CE6 
 452 0f3c 5DDBEA6F 		.ascii	"]\333\352o\316\375\373\373\365d$\272\3366\256b\002\253"
 452      CEFDFBFB 
 452      F56424BA 
 452      DE36AE62 
 452      02AB
 453 0f4e ED166DE8 		.ascii	"\355\026m\350\344d\327o\261\307\264\353\367\216\307"
 453      E464D76F 
 453      B1C7B4EB 
 453      F78EC7
 454 0f5d 62533136 		.ascii	"bS16{\326\236^d\026Av\312zk-lu\324\302\022s\013K-[\330"
 454      7BD69E5E 
 454      64164176 
 454      CA7A6B2D 
 454      6C75D4C2 
 455 0f78 75FADCE0 		.ascii	"u\372\334\340+\0116z;\337\216{\337cZ\013_\237\274\263"
 455      2B09367A 
 455      3BDF8E7B 
 455      DF635A0B 
 455      5F9FBCB3 
 456 0f8c 78D5402A 		.ascii	"x\325@*\226\344\230)\235\325}\015uG{\027\364\350\254"
 456      96E49829 
 456      9DD57D0D 
 456      75477B17 
 456      F4E8AC
 457 0f9f F6       		.ascii	"\366"
 458 0fa0 0FE2D99D 		.ascii	"\017\342\331\235I\215e\036\273=m\365\240\234\312\361"
 458      498D651E 
 458      BB3D6DF5 
 458      A09CCAF1 
 459 0fb0 858A177B 		.ascii	"\205\212\027{\3069^f\346x\271%\307\325\337\354*\262"
 459      C6395E66 
 459      E678B925 
 459      C7D5DFEC 
 459      2AB2
 460 0fc2 52DCBCCE 		.ascii	"R\334\274\316N\304\272\332\334H\203\215\342\276KV\334"
 460      4EC4BADA 
 460      DC48838D 
 460      E2BE4B56 
 460      DC
 461 0fd3 7B8E5A58 		.ascii	"{\216ZXcn\241\321\330\202\311j\275\366\246\276.a\264"
 461      636EA1D1 
 461      D882C96A 
 461      BDF6A6BE 
 461      2E61B4
 462 0fe6 E8A0E353 		.ascii	"\350\240\343S\356N\010\354\006<\253\224\376\344\241"
 462      EE4E08EC 
 462      063CAB94 
 462      FEE4A1
ARM GAS  /tmp/ccUedYnj.s 			page 37


 463 0ff5 550894A1 		.ascii	"U\010\224\241A\015g\342\221\325\301"
 463      410D67E2 
 463      91D5C1
 464 1000 0BE742F4 		.ascii	"\013\347B\364\330\343\006\354\300\217v\266\234p\330"
 464      D8E306EC 
 464      C08F76B6 
 464      9C70D8
 465 100f E310A236 		.ascii	"\343\020\2426\231C\251\031\255\331d\207sS\372`\012\246"
 465      9943A919 
 465      ADD96487 
 465      7353FA60 
 465      0AA6
 466 1021 1AD5ADDA 		.ascii	"\032\325\255\332\301\261\365\036b^g\220\204M\355\213"
 466      C1B1F51E 
 466      625E6790 
 466      844DED8B 
 467 1031 A600EFCD 		.ascii	"\246\000\357\315V\214>(\330\005\327`9\006\260\331z\260"
 467      568C3E28 
 467      D805D760 
 467      3906B0D9 
 467      7AB0
 468 1043 CB4EC0EC 		.ascii	"\313N\300\354\342\"\000{K\017v\3255\230\221\262\032"
 468      E222007B 
 468      4B0F76D5 
 468      359891B2 
 468      1A
 469 1054 3D584517 		.ascii	"=XE\027\007`v+\252\0006O\0176\3015\230\221\262\025z"
 469      0760762B 
 469      AA00364F 
 469      0F36C135 
 469      9891B215 
 470 1069 B0C94EC0 		.ascii	"\260\311N\300\354\376\371\010`\365z\260\251\256\301"
 470      ECFEF908 
 470      60F57AB0 
 470      A9AEC1
 471 1078 8C94ADD6 		.ascii	"\214\224\255\326\203\315t\002\226cO\331Gz\2609\256\301"
 471      83CD7402 
 471      96634FD9 
 471      477AB039 
 471      AEC1
 472 108a 8C9435EA 		.ascii	"\214\2245\352\301\346:\001\263\233\314\002\330:=\330"
 472      C1E63A01 
 472      B39BCC02 
 472      D83A3DD8 
 473 109a 02D76046 		.ascii	"\002\327`F\3126\350\301\026;\001\353kGY\205\262\361"
 473      CA36E8C1 
 473      163B01EB 
 473      6B475985 
 473      B2F1
 474 10ac 5FAA04FD 		.ascii	"_\252\004\375\224\224\240\332D\212\206b\254m1\201=\350"
 474      9494A0DA 
 474      448A8662 
 474      AC6D3181 
 474      3DE8
 475 10be 3AC03964 		.ascii	":\3009d\023\340\350O#$J\221%a3\333F*\254\3706\012\261"
 475      13E0E84F 
 475      23244A91 
ARM GAS  /tmp/ccUedYnj.s 			page 38


 475      256133DB 
 475      462AACF8 
 476 10d5 592FC40F 		.ascii	"Y/\304\017\234\010q\220=\330n=X\275\023\260\301\366"
 476      9C087190 
 476      3DD86E3D 
 476      58BD13B0 
 476      C1F6
 477 10e7 B6F2273D 		.ascii	"\266\362'=\330G\256\301\214\224\355\325\203\255w\002"
 477      D847AEC1 
 477      8C94EDD5 
 477      83AD7702 
 478 10f7 F6A23D65 		.ascii	"\366\242=e_\351\3016\272\006\323SV\241\034H\030\036"
 478      5FE9C136 
 478      BA06D353 
 478      56A11C48 
 478      181E
 479 1109 9D5FE92C 		.ascii	"\235_\351,/\3254LgyI\023\250o\035L\303>3\323m@Qo\207"
 479      2FD5344C 
 479      67794913 
 479      A86F1D4C 
 479      C33E33D3 
 480 1122 5908C1EA 		.ascii	"Y\010\301\352\322\217\264\002\253\340tx3NX?\305|\013"
 480      D28FB402 
 480      ABE07478 
 480      334E583F 
 480      C57C0B
 481 1135 E6DB30DF 		.ascii	"\346\3330\337\216\371\347\230\377\021\363\235\230\357"
 481      8EF9E798 
 481      FF11F39D 
 481      98EF
 482 1143 C2BC05F3 		.ascii	"\302\274\005\363=\230\357\303|?\346\255\230\3070?\202"
 482      3D98EFC3 
 482      7C3FE6AD 
 482      98C7303F 
 482      82
 483 1154 F95F313F 		.ascii	"\371_1?\216\371\327\230\237\322O\216M\221\316\206\024"
 483      8EF9D798 
 483      9FD24F8E 
 483      4D91CE86 
 483      14
 484 1165 D3E0D3B6 		.ascii	"\323\340\323\266Q=9VeW\353\214m\255\231)j\235\265\255"
 484      513D3956 
 484      6557EB8C 
 484      6DAD9929 
 484      6A9DB5AD 
 485 1179 353745AD 		.ascii	"57E\255sI3\210\372\353\233\213\3431\242)\356&\353\323"
 485      73493388 
 485      FAEB9B8B 
 485      E331A229 
 485      EE26EBD3 
 486 118d 7648173C 		.ascii	"vH\027<\311G\031\217t\261\014-+\345\025Kd\257v\270G"
 486      C947198F 
 486      74B10C2D 
 486      2BE5154B 
 486      64AF76B8 
 487 11a2 60CF27E2 		.ascii	"`\317'\342j\323\021X\374\374\275e,{\240m\373\355\272"
 487      6AD31158 
ARM GAS  /tmp/ccUedYnj.s 			page 39


 487      FCFCBD65 
 487      2C7BA06D 
 487      FBEDBA
 488 11b5 589634CF 		.ascii	"X\2264\3171\363\273:j\360R\352\006/[6\270w\341\201_"
 488      31F3BB3A 
 488      6AF052EA 
 488      062F5B36 
 488      B877E181 
 489 11ca 273578D8 		.ascii	"'5x\330Y\203WR7\370c\312Xz5\337\315V\352Wm\265\276\316"
 489      59835752 
 489      37F863CA 
 489      587A35DF 
 489      CD56EA57 
 490 11e2 66611857 		.ascii	"fa\030W>mk\325\245\260\225\353\266\265\256\245\240\260"
 490      3E6D6BD5 
 490      A5B095EB 
 490      B6B5AEA5 
 490      A0B0
 491 11f4 CDB6D6F9 		.ascii	"\315\266\326\371\0243[\331k\266\313\225u\333\207|\230"
 491      14335BD9 
 491      6BB6CB95 
 491      75DB877C 
 491      98
 492 1205 98203D69 		.ascii	"\230 =i2\315\306\024\223\353Jo\262i~o\247\270\372%\344"
 492      32CDC614 
 492      93EB4A6F 
 492      B2697E6F 
 492      A7B8FA25 
 493 121a 24333DAD 		.ascii	"$3=\255$\260\025^\353)\237\2127\336ku\022\370\312\356"
 493      24B0155E 
 493      EB299F8A 
 493      37DE6B75 
 493      12F8CAEE 
 494 122e 1AF580F2 		.ascii	"\032\365\200\362&\271w\226\213\203\\\223,\010\235\324"
 494      26B97796 
 494      8B835C93 
 494      2C089DD4 
 495 123e 2D25A1F4 		.ascii	"-%\241\364\257\021\002;15\241\257\032\011e\356\350\323"
 495      AF11023B 
 495      3135A1AF 
 495      1A0965EE 
 495      E8D3
 496 1250 27371CCD 		.ascii	"'7\034\315\215H\271\305\241@\260\254P\314\015\024E\307"
 496      8D48B9C5 
 496      A140B0AC 
 496      50CC0D14 
 496      45C7
 497 1262 46A5B1A5 		.ascii	"F\245\261\245b\264O\021\223%\025ED\241\320/e<\373\302"
 497      62B44F11 
 497      93251545 
 497      44A1D02F 
 497      653CFBC2 
 498 1276 4B39798C 		.ascii	"K9y\214/P\344\247\257\376\306\252b\240\250\020*u\241"
 498      2F50E4A7 
 498      AFFEC6AA 
 498      62A0A810 
 498      2A75A1
ARM GAS  /tmp/ccUedYnj.s 			page 40


 499 1289 25A2FE57 		.ascii	"%\242\376W\312\3042\321/u\215WR_yB\342\030\311S\032"
 499      CAC432D1 
 499      2F758D57 
 499      525F7942 
 499      E218C953 
 500 129e 11477BF1 		.ascii	"\021G{\361\271?\305\012\204KJ\302\241\334\322pD\212"
 500      B93FC50A 
 500      844B4AC2 
 500      A1DCD270 
 500      448A
 501 12b0 E63E993F 		.ascii	"\346>\231?$o\310\030\362\256\2648(F\242\271\317\346"
 501      246FC818 
 501      F2AEB438 
 501      2846A2B9 
 501      CFE6
 502 12c2 E541131A 		.ascii	"\345A\023\032a\231Ri\2448\354\227n\317-\213F\342$\204"
 502      61995269 
 502      A438EC97 
 502      6ECF2D8B 
 502      46E22484 
 503 12d6 C4F260F1 		.ascii	"\304\362`\361\210\334\250TX\034\222\010\371e\360\373"
 503      88DCA854 
 503      581C9208 
 503      F965F0FB 
 504 12e6 507FBFF4 		.ascii	"P\177\277\364\240U\261\022!PT\034\022s\375\205\342H"
 504      A055B112 
 504      2150541C 
 504      1273FD85 
 504      E248
 505 12f8 A12C28F9 		.ascii	"\241,(\3715\360\016~\277V\321C\232\311&$\371\003\341"
 505      35F00E7E 
 505      BF56D143 
 505      9AC92624 
 505      F903E1
 506 130b 900474DF 		.ascii	"\220\004t\337\235\202\330\242@8\"\002@G\254\000\020"
 506      9D82D8A2 
 506      40382202 
 506      4047AC00 
 506      10
 507 131c 0169CCAF 		.ascii	"\001i\314\257\322\225\367\217~\244\204\320\032\021G"
 507      D295F78F 
 507      7EA484D0 
 507      1A1147
 508 132b 099112BF 		.ascii	"\011\221\022\277\304E\006p\221\277\345\"\017s\221G\270"
 508      C4450670 
 508      91BFE522 
 508      0F739147 
 508      B8
 509 133c C8402EF2 		.ascii	"\310@.\362(\037\351\327\027R?.\030\341\242\245<\200"
 509      281FE9D7 
 509      17523F2E 
 509      18E1A2A5 
 509      3C80
 510 134e 7A810531 		.ascii	"z\201\0051\342\015\007\013\305\210'P$D<!\241D\354\020"
 510      E20D070B 
 510      C5882750 
 510      24443C21 
ARM GAS  /tmp/ccUedYnj.s 			page 41


 510      A144EC10 
 511 1362 955E1682 		.ascii	"\225^\026\202\305\243B~\0119\177x\200_Ry!\267\031\345"
 511      C5A3427E 
 511      09397F78 
 511      805F5279 
 511      21B719E5 
 512 1376 C208212A 		.ascii	"\302\010!*fIQI\220@/\231\344\303@\277\344\243E\340\316"
 512      66495149 
 512      90402F99 
 512      E4C340BF 
 512      E4A345E0 
 513 138b 8B5F32A5 		.ascii	"\213_2\245\222p!|\367\216\014\012\243\242\231RD\034"
 513      9270217C 
 513      F78E0C0A 
 513      A3A29952 
 513      441C
 514 139d 19054990 		.ascii	"\031\005I\220\037oIt\024TT\205\003\025\325\273\214H"
 514      1F6F4974 
 514      14545485 
 514      0315D5BB 
 514      8C48
 515 13af E158F894 		.ascii	"\341X\370\224%\216)\226\002P9\243\\\012\217\370]\251"
 515      258E2996 
 515      025039A3 
 515      5C0A8FF8 
 515      5DA9
 516 13c1 B75C9222 		.ascii	"\267\\\222\"\245\231Q1$\301\327l\260\203\250X\"\224"
 516      A5995131 
 516      24C1D76C 
 516      B083A858 
 516      2294
 517 13d3 1601D7BD 		.ascii	"\026\001\327\275\254\354G$\202\360\006B\240\012\036"
 517      ACEC4724 
 517      82F00642 
 517      A00A1E
 518 13e2 72408157 		.ascii	"r@\201W\245YP\257\244\014doU\247D\032C\352\204\313C"
 518      A55950AF 
 518      A40C646F 
 518      55A7441A 
 518      43EA84CB 
 519 13f7 6224134B 		.ascii	"b$\023K\021F%x]\332Q\034M\032\026\242/\303+\261\234"
 519      11462578 
 519      5DDA511C 
 519      4D1A16A2 
 519      2FC32BB1 
 520 140c DCB0659D 		.ascii	"\334\260e\2355K\014\026G\241\231.:\333$o2\313\205b\251"
 520      354B0C16 
 520      47A1992E 
 520      3ADB246F 
 520      32CB8562 
 521 1421 38342A0B 		.ascii	"84*\013\350E\333\314\022K\305\020\230\323\250L\200$"
 521      E845DBCC 
 521      124BC510 
 521      98D3A84C 
 521      8024
 522 1433 25404F42 		.ascii	"%@OB\220X\205\267\2444\034\016vW=\004\244#F\304P\000"
 522      905885B7 
ARM GAS  /tmp/ccUedYnj.s 			page 42


 522      A4341C0E 
 522      76573D04 
 522      A42346C4 
 523 1449 E4763F90 		.ascii	"\344v?\220)\211Q\211\020\032\015\227E\002\"}$\031\010"
 523      29895189 
 523      101A0D97 
 523      4502227D 
 523      241908
 524 145c 006049B1 		.ascii	"\000`I\261\276}\007\364\011\200\035c\365~liw\374\014"
 524      BE7D07F4 
 524      09801D63 
 524      F57E6C69 
 524      77FC0C
 525 146f 6F21F583 		.ascii	"o!\365\203bRY\351\255\206W\342\0301\000\374\365)\025"
 525      625259E9 
 525      AD8657E2 
 525      183100FC 
 525      F52915
 526 1482 22529FBE 		.ascii	"\"R\237\2767[}\353\241\265L\314\233p\006\367\350\220"
 526      375B7DEB 
 526      A1B54CCC 
 526      9B7006F7 
 526      E890
 527 1494 A4AC5852 		.ascii	"\244\254XR\014\014\207_\026C\340\220\005\201\242|\021"
 527      0C0C875F 
 527      1643E090 
 527      0581A27C 
 527      11
 528 14a5 FC552C2C 		.ascii	"\374U,,\013\212\005\267[\010V\225\012T\007\275\015-"
 528      0B8A05B7 
 528      5B085695 
 528      0A5407BD 
 528      0D2D
 529 14b7 2A84E265 		.ascii	"*\204\342e%\342sw\247b.\022\016\223\366\272\341\003"
 529      25E27377 
 529      A7622E12 
 529      0E93F6BA 
 529      E103
 530 14c9 91A4265B 		.ascii	"\221\244&[\037\351S\212KD\3250\373=\0347Lr{36PP\026"
 530      1FE9538A 
 530      4B44D530 
 530      FB3D1C37 
 530      4C727B33 
 531 14e1 25A21E0A 		.ascii	"%\242\036\012\305\302eR\201\327\377\024\210\267'\362"
 531      C5C26552 
 531      81D7FF14 
 531      88B727F2 
 532 14f1 E017A251 		.ascii	"\340\027\242Q\021<\012!\312\213C\205\341\362l\375\207"
 532      113C0A21 
 532      CA8B4385 
 532      E1F26CFD 
 532      87
 533 1502 FEE8DE84 		.ascii	"\376\350\336\204\351Q\201@.x\321\203\241pH|P\024F\024"
 533      E9518140 
 533      2E78D183 
 533      A170487C 
 533      50144614 
ARM GAS  /tmp/ccUedYnj.s 			page 43


 534 1516 E70EE833 		.ascii	"\347\016\3503\260O\3778_\3205\200\267\003\215\031\321"
 534      B04FFF38 
 534      5FD03580 
 534      B7038D19 
 534      D1
 535 1527 E2FF203E 		.ascii	"\342\377 > \215,\013\005\374R7$!\017\210\225\304\002"
 535      208D2C0B 
 535      05FC5237 
 535      24210F88 
 535      95C402
 536 153a 7082E200 		.ascii	"p\202\342\000/E\372\371\250\312$\261\224+\027:\022\363"
 536      2F45FAF9 
 536      A8CA24B1 
 536      942B173A 
 536      12F3
 537 154c 053644F0 		.ascii	"\0056D\360Q_\374>\233\3607V\265\246N\360:\361\234\031"
 537      515FFC3E 
 537      9BF03756 
 537      B5A64EF0 
 537      3AF19C19 
 538 1560 288B8049 		.ascii	"(\213\200IH\336\010y\272etqD*\023\202\310DD\263\277"
 538      48DE0879 
 538      BA657471 
 538      442A1382 
 538      C84444B3 
 539 1575 1E50C3E2 		.ascii	"\036P\303\342C\027\303;\332\205\032^y\013\305\240$d"
 539      4317C33B 
 539      DA851A5E 
 539      790BC5A0 
 539      2464
 540 1587 8D56C9F7 		.ascii	"\215V\311\367\220\037\036,#+(D%R\"c\264D\200:\253\024"
 540      901F1E2C 
 540      232B2844 
 540      25522263 
 540      B444803A 
 541 159d 178A23CA 		.ascii	"\027\212#\312FQs\327\277\361\225\012\241\342\200\037"
 541      465173D7 
 541      BFF1950A 
 541      A1E2801F 
 542 15ad 8C9D2F1C 		.ascii	"\214\235/\0341\252C\211\000\032A\215q\201\"\3254\243"
 542      31AA4389 
 542      001A418D 
 542      718122D5 
 542      34A3
 543 15bf 5EB4C52C 		.ascii	"^\264\305,I\024\" \367P\246jk\035\210l\002\320\237\200"
 543      49142220 
 543      F750A66A 
 543      6B1D886C 
 543      02D09F80 
 544 15d3 F0922CBB 		.ascii	"\360\222,\273W\237H\270P\220\204>I_\262\365v\333[\325"
 544      579F48B8 
 544      5090843E 
 544      495FB2F5 
 544      76DB5BD5 
 545 15e7 798E0089 		.ascii	"y\216\000\211\032X\016\341D*\016\207\240#\223\3062\226"
 545      1A580EE1 
 545      442A0E87 
ARM GAS  /tmp/ccUedYnj.s 			page 44


 545      A02393C6 
 545      3296
 546 15f9 DDC45862 		.ascii	"\335\304Xb\225\240\202\202\261\321\347\303\201\227}"
 546      95A08282 
 546      B1D1E7C3 
 546      81977D
 547 1608 D8DB06E1 		.ascii	"\330\333\006\341\356~C_\013\235un\336\220\202\347\012"
 547      EE7E435F 
 547      0B9D756E 
 547      DE9082E7 
 547      0A
 548 1619 12754BA2 		.ascii	"\022uK\242\305Q?\330\010\324\357\344'N\346\177\352\311"
 548      C5513FD8 
 548      08D4EFE4 
 548      274EE67F 
 548      EAC9
 549 162b 82675ECC 		.ascii	"\202g^\314\177\256\223\020,\027\306F\241?\013\302\220"
 549      7FAE9310 
 549      2C17C646 
 549      A13F0BC2 
 549      90
 550 163c E01D2D04 		.ascii	"\340\035-\004\313\304\216\330\302K!\202L{\3642\274\177"
 550      CBC48ED8 
 550      C24B2182 
 550      4C7BF432 
 550      BC7F
 551 164e 80B65224 		.ascii	"\200\266R$\004\325\356\274`\350\220\207\372\347>\377"
 551      04D5EEBC 
 551      60E89087 
 551      FAE73EFF 
 552 165e FCD3B943 		.ascii	"\374\323\271C\237\0332\272\037\030Y\011\351\024\213"
 552      9F1B32BA 
 552      1F185909 
 552      E9148B
 553 166d 496FD631 		.ascii	"Io\3261\376\000}Z^~?H\375=\005C\362\362=O?\367L>W\220"
 553      FE007D5A 
 553      5E7E3F48 
 553      FD3D0543 
 553      F2F23D4F 
 554 1687 CF3FF36C 		.ascii	"\317?\363l\2767/oH~?\314\373{\362\362\236\311\347\363"
 554      BE372F6F 
 554      487E3FCC 
 554      FB7BF2F2 
 554      9EC9E7F3 
 555 169b 5E18CABF 		.ascii	"^\030\312\277X\220\307?\231\237\317\347\347\3013Tx\352"
 555      5890C73F 
 555      999FCFE7 
 555      E7C13354 
 555      78EA
 556 16ad E9A1F9FC 		.ascii	"\351\241\371\374\323\244\346\220'\363\271\177\244\265"
 556      D3A4E690 
 556      27F3B97F 
 556      A4B5
 557 16bb 1E82F2C3 		.ascii	"\036\202\362\303\362{Z\210i4q\305\356\201\242\337\016"
 557      F27B5A88 
 557      693471C5 
 557      EE81A2DF 
ARM GAS  /tmp/ccUedYnj.s 			page 45


 557      0E
 558 16cc 7D56940A 		.ascii	"}V\224\012P\351\304\267\206\375:\355\200\204\026\006"
 558      50E9C4B7 
 558      86FD3AED 
 558      80841606 
 559 16dc 956F42A6 		.ascii	"\225oB\246\251\011\216\022\351\335\203\351\230\207/"
 559      A9098E12 
 559      E9DD83E9 
 559      98872F
 560 16eb E031FE60 		.ascii	"\3401\376`\220\204\002\335\351\035\326\016\204\313`"
 560      908402DD 
 560      E91DD60E 
 560      84CB60
 561 16fa 008D504F 		.ascii	"\000\215PO\003\222^\204>4\002:\036\326I{S \006G\016"
 561      03925E84 
 561      3E34023A 
 561      1ED6497B 
 561      53200647 
 562 170f FB5F6321 		.ascii	"\373_c!\234~"
 562      9C7E
 563              		.text
 564              		.section	.gnu.lto_.symtab.f1f266d4b033a9b5,"",%progbits
 565 0000 74657374 		.ascii	"test_sequence_004\000\000\000\000\000\000\000\000\000"
 565      5F736571 
 565      75656E63 
 565      655F3030 
 565      34000000 
 566 001a 000000FF 		.ascii	"\000\000\000\377\001\000\000test_step\000\000\002\000"
 566      01000074 
 566      6573745F 
 566      73746570 
 566      00000200 
 567 002e 00000000 		.ascii	"\000\000\000\000\000\000\000\000\261\001\000\000wa\000"
 567      00000000 
 567      B1010000 
 567      776100
 568 003d 00020000 		.ascii	"\000\002\000\000\000\000\000\000\000\000\000\263\001"
 568      00000000 
 568      000000B3 
 568      01
 569 004a 00006368 		.ascii	"\000\000ch\000\000\002\000\000\000\000\000\000\000\000"
 569      00000200 
 569      00000000 
 569      000000
 570 0059 00B90100 		.ascii	"\000\271\001\000\000threads\000\000\002\000\000\000"
 570      00746872 
 570      65616473 
 570      00000200 
 570      0000
 571 006b 00000000 		.ascii	"\000\000\000\000\000\000\374\001\000\000test_emit_t"
 571      0000FC01 
 571      00007465 
 571      73745F65 
 571      6D69745F 
 572 0080 6F6B656E 		.ascii	"oken\000\000\002\000\000\000\000\000\000\000\000\000"
 572      00000200 
 572      00000000 
ARM GAS  /tmp/ccUedYnj.s 			page 46


 572      00000000 
 573 0090 78010000 		.ascii	"x\001\000\000chSchRescheduleS\000\000\002\000\000\000"
 573      63685363 
 573      68526573 
 573      63686564 
 573      756C6553 
 574 00aa 00000000 		.ascii	"\000\000\000\000\000\000|\001\000\000chThdResumeI\000"
 574      00007C01 
 574      00006368 
 574      54686452 
 574      6573756D 
 575 00c1 00020000 		.ascii	"\000\002\000\000\000\000\000\000\000\000\000~\001\000"
 575      00000000 
 575      0000007E 
 575      0100
 576 00cf 00746573 		.ascii	"\000test_wait_threads\000\000\002\000\000\000\000\000"
 576      745F7761 
 576      69745F74 
 576      68726561 
 576      64730000 
 577 00e9 00000000 		.ascii	"\000\000\000\000\203\001\000\000chThdSuspendTimeout"
 577      83010000 
 577      63685468 
 577      64537573 
 577      70656E64 
 578 0104 53000002 		.ascii	"S\000\000\002\000\000\000\000\000\000\000\000\000\205"
 578      00000000 
 578      00000000 
 578      0085
 579 0112 0100005F 		.ascii	"\001\000\000_test_assert_time_window\000\000\002\000"
 579      74657374 
 579      5F617373 
 579      6572745F 
 579      74696D65 
 580 0131 00000000 		.ascii	"\000\000\000\000\000\000\000\000\223\001\000\000_te"
 580      00000000 
 580      93010000 
 580      5F7465
 581 0140 73745F61 		.ascii	"st_assert\000\000\002\000\000\000\000\000\000\000\000"
 581      73736572 
 581      74000002 
 581      00000000 
 581      00000000 
 582 0154 009C0100 		.ascii	"\000\234\001\000\000chThdCreateStatic\000\000\002\000"
 582      00636854 
 582      68644372 
 582      65617465 
 582      53746174 
 583 016e 00000000 		.ascii	"\000\000\000\000\000\000\000\000\241\001\000\000"
 583      00000000 
 583      A1010000 
 584              		.text
 585              		.section	.gnu.lto_.opts,"",%progbits
 586 0000 272D6D63 		.ascii	"'-mcpu=cortex-m3' '-mno-thumb-interwork' '-mthumb' "
 586      70753D63 
 586      6F727465 
 586      782D6D33 
ARM GAS  /tmp/ccUedYnj.s 			page 47


 586      2720272D 
 587 0033 272D6767 		.ascii	"'-ggdb' '-O2' '-fomit-frame-pointer' '-falign-funct"
 587      64622720 
 587      272D4F32 
 587      2720272D 
 587      666F6D69 
 588 0066 696F6E73 		.ascii	"ions=16' '-ffunction-sections' '-fdata-sections' '-"
 588      3D313627 
 588      20272D66 
 588      66756E63 
 588      74696F6E 
 589 0099 666E6F2D 		.ascii	"fno-common' '-flto'\000"
 589      636F6D6D 
 589      6F6E2720 
 589      272D666C 
 589      746F2700 
 590              		.text
 591              		.cfi_sections	.debug_frame
 592              		.section	.text.test_004_001_setup,"ax",%progbits
 593              		.align	2
 594              		.p2align 4,,15
 595              		.thumb
 596              		.thumb_func
 597              		.type	test_004_001_setup, %function
 598              	test_004_001_setup:
 599              	.LFB220:
 600              		.file 1 "../test/rt/source/test/test_sequence_004.c"
 601              		.loc 1 74 0
 602              		.cfi_startproc
 603              		@ args = 0, pretend = 0, frame = 0
 604              		@ frame_needed = 0, uses_anonymous_args = 0
 605              		@ link register save eliminated.
 606              		.loc 1 75 0
 607 0000 40F20003 		movw	r3, #:lower16:.LANCHOR0
 608 0004 C0F20003 		movt	r3, #:upper16:.LANCHOR0
 609 0008 0022     		movs	r2, #0
 610 000a 1A60     		str	r2, [r3]
 611 000c 7047     		bx	lr
 612              		.cfi_endproc
 613              	.LFE220:
 614              		.size	test_004_001_setup, .-test_004_001_setup
 615 000e 00BF     		.section	.text.thread1,"ax",%progbits
 616              		.align	2
 617              		.p2align 4,,15
 618              		.thumb
 619              		.thumb_func
 620              		.type	thread1, %function
 621              	thread1:
 622              	.LFB219:
 623              		.loc 1 44 0
 624              		.cfi_startproc
 625              		@ args = 0, pretend = 0, frame = 0
 626              		@ frame_needed = 0, uses_anonymous_args = 0
 627              	.LVL0:
 628 0000 10B5     		push	{r4, lr}
 629              		.cfi_def_cfa_offset 8
 630              		.cfi_offset 4, -8
ARM GAS  /tmp/ccUedYnj.s 			page 48


 631              		.cfi_offset 14, -4
 632              	.LBB87:
 633              	.LBB88:
 634              	.LBB89:
 635              	.LBB90:
 636              		.file 2 "../os/common/ext/CMSIS/include/cmsis_gcc.h"
 637              		.loc 2 264 0
 638 0002 2023     		movs	r3, #32
 639              	.LBE90:
 640              	.LBE89:
 641              	.LBE88:
 642              	.LBE87:
 643              		.loc 1 44 0
 644 0004 0446     		mov	r4, r0
 645              	.LBB94:
 646              	.LBB93:
 647              	.LBB92:
 648              	.LBB91:
 649              		.loc 2 264 0
 650              	@ 264 "../os/common/ext/CMSIS/include/cmsis_gcc.h" 1
 651 0006 83F31188 		MSR basepri, r3
 652              	@ 0 "" 2
 653              		.thumb
 654              	.LBE91:
 655              	.LBE92:
 656              	.LBE93:
 657              	.LBE94:
 658              		.loc 1 47 0
 659 000a 40F20000 		movw	r0, #:lower16:.LANCHOR0
 660              	.LVL1:
 661 000e C0F20000 		movt	r0, #:upper16:.LANCHOR0
 662 0012 0021     		movs	r1, #0
 663 0014 FFF7FEFF 		bl	chThdResumeI
 664              	.LVL2:
 665              		.loc 1 48 0
 666 0018 FFF7FEFF 		bl	chSchRescheduleS
 667              	.LVL3:
 668              	.LBB95:
 669              	.LBB96:
 670              	.LBB97:
 671              	.LBB98:
 672              	.LBB99:
 673              		.loc 2 264 0
 674 001c 0023     		movs	r3, #0
 675              	@ 264 "../os/common/ext/CMSIS/include/cmsis_gcc.h" 1
 676 001e 83F31188 		MSR basepri, r3
 677              	@ 0 "" 2
 678              		.thumb
 679              	.LBE99:
 680              	.LBE98:
 681              	.LBE97:
 682              	.LBE96:
 683              	.LBE95:
 684              		.loc 1 50 0
 685 0022 2078     		ldrb	r0, [r4]	@ zero_extendqisi2
 686              		.loc 1 51 0
 687 0024 BDE81040 		pop	{r4, lr}
ARM GAS  /tmp/ccUedYnj.s 			page 49


 688              	.LVL4:
 689              		.loc 1 50 0
 690 0028 FFF7FEBF 		b	test_emit_token
 691              	.LVL5:
 692              		.cfi_endproc
 693              	.LFE219:
 694              		.size	thread1, .-thread1
 695 002c AFF30080 		.section	.text.test_004_001_execute,"ax",%progbits
 696              		.align	2
 697              		.p2align 4,,15
 698              		.thumb
 699              		.thumb_func
 700              		.type	test_004_001_execute, %function
 701              	test_004_001_execute:
 702              	.LFB221:
 703              		.loc 1 78 0
 704              		.cfi_startproc
 705              		@ args = 0, pretend = 0, frame = 0
 706              		@ frame_needed = 0, uses_anonymous_args = 0
 707 0000 70B5     		push	{r4, r5, r6, lr}
 708              		.cfi_def_cfa_offset 16
 709              		.cfi_offset 4, -16
 710              		.cfi_offset 5, -12
 711              		.cfi_offset 6, -8
 712              		.cfi_offset 14, -4
 713              	.LBB141:
 714              	.LBB142:
 715              	.LBB143:
 716              	.LBB144:
 717              		.file 3 "../os/rt/include/chthreads.h"
 718              		.loc 3 286 0
 719 0002 40F20003 		movw	r3, #:lower16:ch
 720 0006 C0F20003 		movt	r3, #:upper16:ch
 721              	.LBE144:
 722              	.LBE143:
 723              		.loc 3 299 0
 724 000a 9A69     		ldr	r2, [r3, #24]
 725              	.LBE142:
 726              	.LBE141:
 727              		.loc 1 87 0
 728 000c 40F20003 		movw	r3, #:lower16:wa
 729 0010 9268     		ldr	r2, [r2, #8]
 730 0012 C0F20003 		movt	r3, #:upper16:wa
 731 0016 40F20001 		movw	r1, #:lower16:.LC0
 732              		.loc 1 85 0
 733 001a 40F20004 		movw	r4, #:lower16:test_step
 734              		.loc 1 78 0
 735 001e 82B0     		sub	sp, sp, #8
 736              		.cfi_def_cfa_offset 24
 737              		.loc 1 87 0
 738 0020 1868     		ldr	r0, [r3]
 739 0022 C0F20001 		movt	r1, #:upper16:.LC0
 740              		.loc 1 85 0
 741 0026 C0F20004 		movt	r4, #:upper16:test_step
 742 002a 0125     		movs	r5, #1
 743              		.loc 1 87 0
 744 002c 40F20003 		movw	r3, #:lower16:thread1
ARM GAS  /tmp/ccUedYnj.s 			page 50


 745 0030 0091     		str	r1, [sp]
 746 0032 013A     		subs	r2, r2, #1
 747 0034 C0F20003 		movt	r3, #:upper16:thread1
 748 0038 4FF4A471 		mov	r1, #328
 749              		.loc 1 85 0
 750 003c 2560     		str	r5, [r4]
 751              		.loc 1 87 0
 752 003e FFF7FEFF 		bl	chThdCreateStatic
 753              	.LVL6:
 754 0042 40F20003 		movw	r3, #:lower16:threads
 755 0046 C0F20003 		movt	r3, #:upper16:threads
 756 004a 1860     		str	r0, [r3]
 757              	.LVL7:
 758              	.LBB145:
 759              	.LBB146:
 760              	.LBB147:
 761              	.LBB148:
 762              		.loc 2 264 0
 763 004c 2023     		movs	r3, #32
 764              	@ 264 "../os/common/ext/CMSIS/include/cmsis_gcc.h" 1
 765 004e 83F31188 		MSR basepri, r3
 766              	@ 0 "" 2
 767              		.thumb
 768              	.LBE148:
 769              	.LBE147:
 770              	.LBE146:
 771              	.LBE145:
 772              		.loc 1 89 0
 773 0052 40F20000 		movw	r0, #:lower16:.LANCHOR0
 774 0056 4FF6FF71 		movw	r1, #65535
 775 005a C0F20000 		movt	r0, #:upper16:.LANCHOR0
 776 005e FFF7FEFF 		bl	chThdSuspendTimeoutS
 777              	.LVL8:
 778              	.LBB149:
 779              	.LBB150:
 780              	.LBB151:
 781              	.LBB152:
 782              	.LBB153:
 783              		.loc 2 264 0
 784 0062 0023     		movs	r3, #0
 785              	.LBE153:
 786              	.LBE152:
 787              	.LBE151:
 788              	.LBE150:
 789              	.LBE149:
 790              		.loc 1 89 0
 791 0064 0646     		mov	r6, r0
 792              	.LVL9:
 793              	.LBB158:
 794              	.LBB157:
 795              	.LBB156:
 796              	.LBB155:
 797              	.LBB154:
 798              		.loc 2 264 0
 799              	@ 264 "../os/common/ext/CMSIS/include/cmsis_gcc.h" 1
 800 0066 83F31188 		MSR basepri, r3
 801              	@ 0 "" 2
ARM GAS  /tmp/ccUedYnj.s 			page 51


 802              		.thumb
 803              	.LBE154:
 804              	.LBE155:
 805              	.LBE156:
 806              	.LBE157:
 807              	.LBE158:
 808              		.loc 1 91 0
 809 006a 40F20005 		movw	r5, #:lower16:.LANCHOR0
 810 006e C0F20005 		movt	r5, #:upper16:.LANCHOR0
 811 0072 2868     		ldr	r0, [r5]
 812              	.LVL10:
 813 0074 40F20001 		movw	r1, #:lower16:.LC1
 814 0078 D0F10100 		rsbs	r0, r0, #1
 815 007c 38BF     		it	cc
 816 007e 0020     		movcc	r0, #0
 817 0080 C0F20001 		movt	r1, #:upper16:.LC1
 818 0084 FFF7FEFF 		bl	_test_assert
 819              	.LVL11:
 820 0088 08B1     		cbz	r0, .L8
 821              	.LVL12:
 822              	.L3:
 823              		.loc 1 111 0
 824 008a 02B0     		add	sp, sp, #8
 825              		@ sp needed
 826 008c 70BD     		pop	{r4, r5, r6, pc}
 827              	.LVL13:
 828              	.L8:
 829              		.loc 1 92 0
 830 008e D6F10100 		rsbs	r0, r6, #1
 831 0092 40F20001 		movw	r1, #:lower16:.LC2
 832 0096 38BF     		it	cc
 833 0098 0020     		movcc	r0, #0
 834 009a C0F20001 		movt	r1, #:upper16:.LC2
 835 009e FFF7FEFF 		bl	_test_assert
 836              	.LVL14:
 837 00a2 0028     		cmp	r0, #0
 838 00a4 F1D1     		bne	.L3
 839              	.LBB159:
 840              	.LBB160:
 841              		.loc 1 93 0
 842 00a6 FFF7FEFF 		bl	test_wait_threads
 843              	.LVL15:
 844              		.loc 1 99 0
 845 00aa 0223     		movs	r3, #2
 846 00ac 2360     		str	r3, [r4]
 847              	.LVL16:
 848              	.LBB161:
 849              	.LBB162:
 850              	.LBB163:
 851              	.LBB164:
 852              		.loc 2 264 0
 853 00ae 2023     		movs	r3, #32
 854              	@ 264 "../os/common/ext/CMSIS/include/cmsis_gcc.h" 1
 855 00b0 83F31188 		MSR basepri, r3
 856              	@ 0 "" 2
 857              		.thumb
 858              	.LBE164:
ARM GAS  /tmp/ccUedYnj.s 			page 52


 859              	.LBE163:
 860              	.LBE162:
 861              	.LBE161:
 862              		.loc 1 103 0
 863 00b4 40F20000 		movw	r0, #:lower16:.LANCHOR0
 864              	.LBB165:
 865              	.LBB166:
 866              	.LBB167:
 867              	.LBB168:
 868              		.file 4 "../os/hal/ports/STM32/LLD/TIMv1/hal_st_lld.h"
 869              		.loc 4 141 0
 870 00b8 4FF08043 		mov	r3, #1073741824
 871              	.LBE168:
 872              	.LBE167:
 873              	.LBE166:
 874              	.LBE165:
 875              		.loc 1 103 0
 876 00bc 4FF47A71 		mov	r1, #1000
 877 00c0 C0F20000 		movt	r0, #:upper16:.LANCHOR0
 878              	.LBB175:
 879              	.LBB173:
 880              	.LBB171:
 881              	.LBB169:
 882              		.loc 4 141 0
 883 00c4 5C6A     		ldr	r4, [r3, #36]
 884              	.LBE169:
 885              	.LBE171:
 886              	.LBE173:
 887              	.LBE175:
 888              		.loc 1 103 0
 889 00c6 FFF7FEFF 		bl	chThdSuspendTimeoutS
 890              	.LVL17:
 891              	.LBB176:
 892              	.LBB174:
 893              	.LBB172:
 894              	.LBB170:
 895              		.loc 4 141 0
 896 00ca A4B2     		uxth	r4, r4
 897              	.LBE170:
 898              	.LBE172:
 899              	.LBE174:
 900              	.LBE176:
 901              		.loc 1 103 0
 902 00cc 0646     		mov	r6, r0
 903              	.LVL18:
 904              	.LBB177:
 905              	.LBB178:
 906              	.LBB179:
 907              	.LBB180:
 908              	.LBB181:
 909              		.loc 2 264 0
 910 00ce 0023     		movs	r3, #0
 911              	@ 264 "../os/common/ext/CMSIS/include/cmsis_gcc.h" 1
 912 00d0 83F31188 		MSR basepri, r3
 913              	@ 0 "" 2
 914              		.thumb
 915              	.LBE181:
ARM GAS  /tmp/ccUedYnj.s 			page 53


 916              	.LBE180:
 917              	.LBE179:
 918              	.LBE178:
 919              	.LBE177:
 920              		.loc 1 105 0
 921 00d4 40F20002 		movw	r2, #:lower16:.LC3
 922 00d8 04F57A70 		add	r0, r4, #1000
 923              	.LVL19:
 924 00dc 04F2EB31 		addw	r1, r4, #1003
 925 00e0 80B2     		uxth	r0, r0
 926 00e2 89B2     		uxth	r1, r1
 927 00e4 C0F20002 		movt	r2, #:upper16:.LC3
 928 00e8 FFF7FEFF 		bl	_test_assert_time_window
 929              	.LVL20:
 930 00ec 0028     		cmp	r0, #0
 931 00ee CCD1     		bne	.L3
 932              		.loc 1 108 0
 933 00f0 2868     		ldr	r0, [r5]
 934 00f2 40F20001 		movw	r1, #:lower16:.LC1
 935 00f6 D0F10100 		rsbs	r0, r0, #1
 936 00fa 38BF     		it	cc
 937 00fc 0020     		movcc	r0, #0
 938 00fe C0F20001 		movt	r1, #:upper16:.LC1
 939 0102 FFF7FEFF 		bl	_test_assert
 940              	.LVL21:
 941 0106 0028     		cmp	r0, #0
 942 0108 BFD1     		bne	.L3
 943              		.loc 1 109 0
 944 010a B6F1FF33 		subs	r3, r6, #-1
 945 010e 5842     		rsbs	r0, r3, #0
 946 0110 40F20001 		movw	r1, #:lower16:.LC2
 947 0114 5841     		adcs	r0, r0, r3
 948 0116 C0F20001 		movt	r1, #:upper16:.LC2
 949              	.LBE160:
 950              	.LBE159:
 951              		.loc 1 111 0
 952 011a 02B0     		add	sp, sp, #8
 953              		@ sp needed
 954 011c BDE87040 		pop	{r4, r5, r6, lr}
 955              	.LVL22:
 956              	.LBB183:
 957              	.LBB182:
 958              		.loc 1 109 0
 959 0120 FFF7FEBF 		b	_test_assert
 960              	.LVL23:
 961              	.LBE182:
 962              	.LBE183:
 963              		.cfi_endproc
 964              	.LFE221:
 965              		.size	test_004_001_execute, .-test_004_001_execute
 966              		.global	test_sequence_004
 967 0124 AFF30080 		.section	.rodata.test_sequence_004,"a",%progbits
 967      AFF30080 
 967      AFF30080 
 968              		.align	2
 969              		.type	test_sequence_004, %object
 970              		.size	test_sequence_004, 8
ARM GAS  /tmp/ccUedYnj.s 			page 54


 971              	test_sequence_004:
 972 0000 00000000 		.word	test_004_001
 973 0004 00000000 		.word	0
 974              		.section	.bss.tr1,"aw",%nobits
 975              		.align	2
 976              		.set	.LANCHOR0,. + 0
 977              		.type	tr1, %object
 978              		.size	tr1, 4
 979              	tr1:
 980 0000 00000000 		.space	4
 981              		.section	.rodata.str1.4,"aMS",%progbits,1
 982              		.align	2
 983              	.LC0:
 984 0000 4100     		.ascii	"A\000"
 985 0002 0000     		.space	2
 986              	.LC1:
 987 0004 6E6F7420 		.ascii	"not NULL\000"
 987      4E554C4C 
 987      00
 988 000d 000000   		.space	3
 989              	.LC2:
 990 0010 77726F6E 		.ascii	"wrong returned message\000"
 990      67207265 
 990      7475726E 
 990      6564206D 
 990      65737361 
 991 0027 00       		.space	1
 992              	.LC3:
 993 0028 6F757420 		.ascii	"out of time window\000"
 993      6F662074 
 993      696D6520 
 993      77696E64 
 993      6F7700
 994 003b 00       		.space	1
 995              	.LC4:
 996 003c 53757370 		.ascii	"Suspend and Resume functionality\000"
 996      656E6420 
 996      616E6420 
 996      52657375 
 996      6D652066 
 997 005d 000000   		.section	.rodata.test_004_001,"a",%progbits
 998              		.align	2
 999              		.type	test_004_001, %object
 1000              		.size	test_004_001, 16
 1001              	test_004_001:
 1002 0000 3C000000 		.word	.LC4
 1003 0004 00000000 		.word	test_004_001_setup
 1004 0008 00000000 		.word	0
 1005 000c 00000000 		.word	test_004_001_execute
 1006              		.text
 1007              	.Letext0:
 1008              		.file 5 "/usr/lib/gcc/arm-none-eabi/4.8.2/include/stddef.h"
 1009              		.file 6 "/usr/include/newlib/machine/_default_types.h"
 1010              		.file 7 "/usr/include/newlib/stdint.h"
 1011              		.file 8 "../os/common/ports/ARMCMx/compilers/GCC/chtypes.h"
 1012              		.file 9 "../os/rt/include/chsystypes.h"
 1013              		.file 10 "../os/rt/include/chschd.h"
ARM GAS  /tmp/ccUedYnj.s 			page 55


 1014              		.file 11 "../os/common/ports/ARMCMx/chcore.h"
 1015              		.file 12 "../os/common/ports/ARMCMx/chcore_v7m.h"
 1016              		.file 13 "../os/hal/ports/STM32/LLD/TIMv1/stm32_tim.h"
 1017              		.file 14 "../os/rt/include/chsem.h"
 1018              		.file 15 "../os/rt/include/chmtx.h"
 1019              		.file 16 "../test/lib/ch_test.h"
 1020              		.file 17 "../os/common/ports/ARMCMx/chcore_timer.h"
 1021              		.file 18 "../os/rt/include/chsys.h"
 1022              		.file 19 "../os/rt/include/chvt.h"
 1023              		.file 20 "../os/common/ext/CMSIS/include/core_cm3.h"
 1024              		.file 21 "../test/rt/source/test/test_root.h"