ARM GAS  /tmp/cc0Aowt3.s 			page 1


   1              		.syntax unified
   2              		.cpu cortex-m3
   3              		.fpu softvfp
   4              		.eabi_attribute 20, 1
   5              		.eabi_attribute 21, 1
   6              		.eabi_attribute 23, 3
   7              		.eabi_attribute 24, 1
   8              		.eabi_attribute 25, 1
   9              		.eabi_attribute 26, 1
  10              		.eabi_attribute 30, 2
  11              		.eabi_attribute 34, 1
  12              		.eabi_attribute 18, 4
  13              		.thumb
  14              		.file	"test_sequence_001.c"
  15              		.text
  16              	.Ltext0:
  17              		.section	.gnu.lto_.jmpfuncs.5cdf265679807c77,"",%progbits
  18 0000 789CA593 		.ascii	"x\234\245\223\255o\024A\030\207g\267\337\250\376\005"
  18      AD6F1441 
  18      188767B7 
  18      DFA8FE05 
  19 0010 97152892 		.ascii	"\227\025(\222\026BP\213an\366\275\273I\367\253;\263"
  19      1642508B 
  19      616EF6BD 
  19      BB49F7AB 
  19      3BB3
  20 0022 A5C54CAE 		.ascii	"\245\305L\256\245\264K\31259\256\012sA\200@\020\202"
  20      A5B44BCA 
  20      3539AE0A 
  20      73418040 
  20      1082
  21 0034 A0092108 		.ascii	"\240\011!\010\004\010\004\002\201@ \020 \010A \020\010"
  21      04080402 
  21      81402010 
  21      20084120 
  21      1008
  22 0046 04094110 		.ascii	"\004\011A\020\202@TPv\357\366R\366\353\222aV\356\373"
  22      82405450 
  22      76EFF652 
  22      F6EB9261 
  22      56EEFB
  23 0059 CCF3FEE6 		.ascii	"\314\363\376\346\235\031\035\351\250\354;\234C\350\354"
  23      9D191DE9 
  23      A8EC3B9C 
  23      43E8EC
  24 0068 144AAA9A 		.ascii	"\024J\252\232~\015\035\364\367\373\363\221\206jH{\320"
  24      7E0D1DF4 
  24      F7FBF391 
  24      866A487B 
  24      D0
  25 0079 DF3F1769 		.ascii	"\337?\027i\332\200\322\364U-\322t\224\201&jhb\010M\246"
  25      DA80D2F4 
  25      552DD274 
  25      9481266A 
  25      6862084D 
  26 008e 90F4FAE3 		.ascii	"\220\364\372\343\212\353An}_\313\013.\311\011\016\013"
  26      8AEB416E 
ARM GAS  /tmp/cc0Aowt3.s 			page 2


  26      7D5FCB0B 
  26      2EC9090E 
  26      0B
  27 009f 829B9AE2 		.ascii	"\202\233\232\342\026\236\250\012\336\252\012\276\253"
  27      169EA80A 
  27      DEAA0ABE 
  27      AB
  28 00ac 0A6EE972 		.ascii	"\012n\351r\202\302\020\237\252\012\336\251\012~\250"
  28      82C2109F 
  28      AA0ADEA9 
  28      0A7EA8
  29 00bb 0A6E4B3E 		.ascii	"\012nK>\205\202\340\231\352[\372\240\232\340\227\252"
  29      8582E099 
  29      EA5BFAA0 
  29      9AE097AA 
  30 00cb E0EEA4A2 		.ascii	"\340\356\244\242\340\271\252\340\243\252\340\267\244"
  30      E0B9AAE0 
  30      A3AAE0B7 
  30      A4
  31 00d8 A0700AF7 		.ascii	"\240p\012\367\246\024\023\274\220\024\024\022|RMp\240"
  31      A61413BC 
  31      90141412 
  31      7C524D70 
  31      A0
  32 00e9 2AB83FAD 		.ascii	"*\270?\255(x))(\314\340\263j\202?\252\011\036\316(\012"
  32      28782929 
  32      28CCE0B3 
  32      6A823FAA 
  32      091ECE28 
  33 00fe 5EA90ABE 		.ascii	"^\251\012\276H\012\364\274\340\372\254\234\340\333L"
  33      480AF4BC 
  33      E0FAAC9C 
  33      E0DB4C
  34 010d DEF048D2 		.ascii	"\336\360H\3220\237\027\274\316\010\364\377\331\305W"
  34      309F17BC 
  34      CE08F4FF 
  34      D9C557
  35 011c C90C8539 		.ascii	"\311\014\2059\336\230\223\023L\346\005\217\253\004S"
  35      DE989313 
  35      4CE6058F 
  35      AB0453
  36 012b 35F426AD 		.ascii	"5\364&\255M\347k\361\272\367\222\215\013\227\370g\225"
  36      4DE76BF1 
  36      BAF7928D 
  36      0B97F867 
  36      95
  37 013c 60A686EE 		.ascii	"`\246\206\356\034\033\326f\321\260\210\214\205\205\005"
  37      1C1BD666 
  37      D1B0888C 
  37      858505
  38 014b 83B48455 		.ascii	"\203\264\204Uo\012\336\012\000[L\370\201\327\2406u\233"
  38      6F0ADE0A 
  38      005B4CF8 
  38      81D7A036 
  38      759B
  39 015d A6616480 		.ascii	"\246ad\200\370\257=\242\342\332\340\313\000\340\342"
  39      F8AF3DA2 
ARM GAS  /tmp/cc0Aowt3.s 			page 3


  39      E2DAE0CB 
  39      00E0E2
  40 016c BA0D8271 		.ascii	"\272\015\202qL\226\004i\001Y2\263\000\0170\001Q\017"
  40      4C960469 
  40      015932B3 
  40      000F3001 
  40      510F
  41 017e 1B0D0804 		.ascii	"\033\015\010\004\243\027 \337b\0108\230-\215\032\224"
  41      A31720DF 
  41      62083898 
  41      2D8D1A94 
  42 018e B7C08C41 		.ascii	"\267\300\214A\300\323\024e\300\240\373(e\006`k\214\203"
  42      C0D31465 
  42      C0A0FB28 
  42      6506606B 
  42      8C83
  43 01a0 9384E450 		.ascii	"\223\204\344P\0322\251P\306)a%\031H\243)B\006\302Zs"
  43      1A32A950 
  43      C6296125 
  43      1948A329 
  43      4206C25A 
  44 01b5 B1438959 		.ascii	"\261C\211Y\0118\340\370\236g\027\0075\002Z\200\375\243"
  44      0938E0F8 
  44      9E671707 
  44      35025A80 
  44      FDA3
  45 01c7 06E506E2 		.ascii	"\006\345\006\342\0050\246\005\246v\335[\205\3026\217"
  45      0530A605 
  45      A676DD5B 
  45      85C2368F 
  46 01d7 0C8CE126 		.ascii	"\014\214\341&$GJ\315q@eHX\001\2273\301\251\003^\310"
  46      24474ACD 
  46      71406548 
  46      58019733 
  46      C1A9035E 
  47 01ec CD2A60CC 		.ascii	"\315*`\314\240\210\347Z+8H\035%\206\021P\231\301\011"
  47      A088E75A 
  47      2B38481D 
  47      25861150 
  47      99C109
  48 01ff 39C49B14 		.ascii	"9\304\233\024\001\2200\301\252\200\352A1p\260\337\212"
  48      019030C1 
  48      AA80EA41 
  48      3170B0DF 
  48      8A
  49 0210 67994E62 		.ascii	"g\231Nb\014`\226\033\316c\032\367\240\2742d\000\315"
  49      0C60961B 
  49      CE631AF7 
  49      A0BC3264 
  49      00CD
  50 0222 F8CE046B 		.ascii	"\370\316\004k\225\000w\376=\354\034\340\371\361t\342"
  50      950077FE 
  50      3DEC1CE0 
  50      F9F174E2 
  51 0232 E720980F 		.ascii	"\347 \230\017`\225dp=A\255\370Z\017__\011\220^\226\321"
  51      60956470 
  51      3D41ADF8 
ARM GAS  /tmp/cc0Aowt3.s 			page 4


  51      5A0F5F5F 
  51      09905E96 
  52 0247 A32A02C9 		.ascii	"\243*\002\311\370\305r\210]\036:\245\000\343\003\306"
  52      F8C57288 
  52      5D1E3AA5 
  52      00E303C6 
  53 0257 029BE32A 		.ascii	"\002\233\343*\240\021\300r\010.)\337f\014\304\023\364"
  53      A011C072 
  53      082E29DF 
  53      660CC413 
  53      F4
  54 0268 EC9053CF 		.ascii	"\354\220S\317\315\334I\277\335\333\3306\334\275+\353"
  54      CDDC49BF 
  54      DDDBD836 
  54      DCBD2BEB 
  55 0278 9BDDEC18 		.ascii	"\233\335\354\030R\300\211:\273\335\261@\373r%0}f\361"
  55      52C0893A 
  55      BBDDB140 
  55      FB722530 
  55      7D66F1
  56 028b D4E2E921 		.ascii	"\324\342\351!\267\262\331\275\032\355v\014\326\353F"
  56      B7B2D9BD 
  56      1AED760C 
  56      D6EB46
  57 029a 9D2DB328 		.ascii	"\235-\263(b\275\366\372\316\246\321\330io\345<\006:"
  57      62BDF6FA 
  57      CEA6D1D8 
  57      696FE53C 
  57      063A
  58 02ac 31C8DADD 		.ascii	"1\310\332\335\275\270\267\321\313\027\223\217lG\353"
  58      BDB8B7D1 
  58      CB17938F 
  58      6C47EB
  59 02bb 91C74E06 		.ascii	"\221\307N\006\034\375\005R\306V\346"
  59      1CFD0552 
  59      C656E6
  60              		.text
  61              		.section	.gnu.lto_.inline.5cdf265679807c77,"",%progbits
  62 0000 789C6362 		.ascii	"x\234cb`b\300\006^B\205\201\324\005\306\247\034\214"
  62      6062C006 
  62      5E428581 
  62      D405C6A7 
  62      1C8C
  63 0012 0C4C4C17 		.ascii	"\014LL\027\370\031\330\026\310\203\305\231\270\031\030"
  63      F819D816 
  63      C883C599 
  63      B81918
  64 0021 1847C951 		.ascii	"\030G\311Q\222\226$\203\322\012F\272\245;\006\000\337"
  64      92962483 
  64      D20A46BA 
  64      A53B0600 
  64      DF
  65 0032 090D39   		.ascii	"\011\0159"
  66              		.text
  67              		.section	.gnu.lto_.pureconst.5cdf265679807c77,"",%progbits
  68 0000 789C6362 		.ascii	"x\234cb`b`e\200\000&\006\011&\011\000\001\000\000>"
  68      60626065 
ARM GAS  /tmp/cc0Aowt3.s 			page 5


  68      80002606 
  68      09260900 
  68      0100003E 
  69              		.text
  70              		.section	.gnu.lto_test_001_002_execute.5cdf265679807c77,"",%progbits
  71 0000 789CA5D9 		.ascii	"x\234\245\331Ol\323V\034\007\360\367\234\226\026N\034"
  71      4F6CD356 
  71      1C07F0F7 
  71      9C96164E 
  71      1C
  72 0011 E18272DB 		.ascii	"\341\202r\333aj\313\256=\315u^\032\253\211\235\332\317"
  72      616ACBAE 
  72      3DCD755E 
  72      1AAB899D 
  72      DACF
  73 0023 1DDDC542 		.ascii	"\035\335\305BQ\0169l\023m9\355\200\213\020\224\002\245"
  73      510E396C 
  73      136D39ED 
  73      808B1094 
  73      02A5
  74 0035 D30E84FE 		.ascii	"\323\016\204\376\241\233\320\304\030\214^8t\214m\034"
  74      A19BD0C4 
  74      188C5E38 
  74      748C6D1C 
  75 0045 76601B14 		.ascii	"v`\033\0248L\032\177\012\235&\264\026(h\027\004\005"
  75      384C1A7F 
  75      0A9D26B4 
  75      16286817 
  75      0405
  76 0057 9A3DDB09 		.ascii	"\232=\333\011\011\211\177\312{z\226\352\276\306\337"
  76      09897FCA 
  76      7B7A96EA 
  76      BEC6DF
  77 0066 F77E1FFF 		.ascii	"\367~\037\377\374\234K\025\244\240\372c;\373\031\330"
  77      FC9C4B15 
  77      A4A0FA63 
  77      3BFB19D8 
  78 0076 86D0172D 		.ascii	"\206\320\027-\010\341\030\302\312\344\"B\243\355\012"
  78      08E118C2 
  78      CAE42242 
  78      A3ED0A
  79 0085 C6FE0061 		.ascii	"\306\376\000a\264O\301\373\006q\220\235W\256,\227J\027"
  79      B44FC1FB 
  79      0671909D 
  79      57AE2C97 
  79      4A17
  80 0097 A60E9D9F 		.ascii	"\246\016\235\237\301\227\224\002\373\244\025\035\360"
  80      C1979402 
  80      FBA4151D 
  80      F0
  81 00a4 BCC93842 		.ascii	"\274\3118B\271 A\331\331\237\346`\305\377\035\273\216"
  81      B92041D9 
  81      D99FE660 
  81      C5FF1DBB 
  81      8E
  82 00b5 F62F149F 		.ascii	"\366/\024\237o\333\215\277\306\255h\032M\215z\336\326"
  82      6FDB8DBF 
ARM GAS  /tmp/cc0Aowt3.s 			page 6


  82      C6AD681A 
  82      4D8D7ADE 
  82      D6
  83 00c6 02469FA3 		.ascii	"\002F\237\243uo\314\037\341O\202i\2730\033\242\312\010"
  83      756FCC1F 
  83      E14F8269 
  83      BB301BA2 
  83      CA08
  84 00d8 F9C31BE8 		.ascii	"\371\303\033\350\300\362\235\177\332\302\231\250:C\311"
  84      C0F29D7F 
  84      DAC299A8 
  84      3A43C9
  85 00e7 9593FE27 		.ascii	"\225\223\376'E\317\353/\340\330\016\3249\353\025?,\340"
  85      45CFEB2F 
  85      E0D80ED4 
  85      39EB153F 
  85      2CE0
  86 00f9 1654CE17 		.ascii	"\026T\316\027\374\023[\342\253\273\261\206\0256\345"
  86      FC135BE2 
  86      ABBBB186 
  86      1536E5
  87 0108 B0F2B656 		.ascii	"\260\362\266V\333V\226m\017\313\335;\275%\252\\\254"
  87      DB56966D 
  87      0FCBDD3B 
  87      BD25AA5C 
  87      AC
  88 0119 B69C53C0 		.ascii	"\266\234S\300\233w 3,\267\245\276\334\362\022\267\270"
  88      9B772033 
  88      2CB7A5BE 
  88      DCF212B7 
  88      B8
  89 012a 1F12DF6F 		.ascii	"\037\022\337o&^i\253\222\037\310\223W\270\311C\020y"
  89      265E69AB 
  89      921FC893 
  89      57B8C943 
  89      1079
  90 013c B51959A9 		.ascii	"\265\031Y\251\212\037\311\213\037s\213\277\304\020\371"
  90      8A1FC98B 
  90      1F738BBF 
  90      C410F9
  91 014b 493332AA 		.ascii	"I32\252\222\327\344\311O\271\311\027A\3623\001\362\013"
  91      92D7E4C9 
  91      4FB9C917 
  91      41F23301 
  91      F20B
  92 015d 79F24B6E 		.ascii	"y\362Kn\362\237 y]\200\374J\236\374\232\233\374\034"
  92      F29F2079 
  92      5D80FC4A 
  92      9EFC9A9B 
  92      FC1C
  93 016f 24BF6946 		.ascii	"$\277iF\306U\362\206<\271\304M>\241@\344\261V\376.\037"
  93      C655F286 
  93      3CB9C44D 
  93      3EA140E4 
  93      B156FE2E 
  94 0184 FE469A3C 		.ascii	"\376F\232<\376\220\227\274\000\222\2174#\327t\371\250"
  94      FE9097BC 
ARM GAS  /tmp/cc0Aowt3.s 			page 7


  94      00928F34 
  94      23D774F9 
  94      A8
  95 0195 3CF91837 		.ascii	"<\371\0307\3716H\236\020 \037\227'\027\271\311\353 "
  95      F936489E 
  95      10201F97 
  95      2717B9C9 
  95      EB20
  96 01a7 F9A40079 		.ascii	"\371\244\000yJ\236<\315M\236\216A\344\031\201\275<+"
  96      4A9E3CCD 
  96      4D9E8E41 
  96      E41981BD 
  96      3C2B
  97 01b9 4F3EC54D 		.ascii	"O>\305M\276\014\222\347\004\272\374\255<\371,7y\011"
  97      BE0C92E7 
  97      04BAFCAD 
  97      3CF92C37 
  97      7909
  98 01cb 247F27D0 		.ascii	"$\177'\320\345s\362\344\363\334\344\015\220\374\275"
  98      E573F2E4 
  98      F3DCE40D 
  98      90FCBD
  99 01da 40972FC8 		.ascii	"@\227/\310\223\347\271\311s-\020yA\200\374\203<\371"
  99      93E7B9C9 
  99      732D1079 
  99      4180FC83 
  99      3CF9
 100 01ec 1237F90A 		.ascii	"\0227\371\012H\376Q\200|Y\236\374\0237\371o\220\374"
 100      48FE5180 
 100      7C599EFC 
 100      1337F96F 
 100      90FC
 101 01fe B300F917 		.ascii	"\263\000\371\027y\362Un\362\376V\210\374\233\000\371"
 101      79F2556E 
 101      F2FE5688 
 101      FC9B00F9 
 102 020e 7779F21F 		.ascii	"wy\362\037\334\344\323 \371\232\3007\306uy\362\"7\371"
 102      DCE4D320 
 102      F99AC037 
 102      C67579F2 
 102      2237F9
 103 0221 57907C43 		.ascii	"W\220|C\240\313\177\311\223os\223\037\202\344;\002\344"
 103      A0CB7FC9 
 103      936F7393 
 103      1F82E43B 
 103      02E4
 104 0233 BBF2E47B 		.ascii	"\273\362\344{\334\344\203\233 \362\222\000\371\276<"
 104      DCE4839B 
 104      20F29200 
 104      F9BE3C
 105 0242 F90137F9 		.ascii	"\371\0017\371\014H^\021 \257\312\223\037q\223\257\202"
 105      0C485E11 
 105      20AFCA93 
 105      1F7193AF 
 105      82
 106 0253 E4C702E4 		.ascii	"\344\307\002\344'\362\3445n\362*H~*\360\215\361L\236"
 106      27F2E435 
ARM GAS  /tmp/cc0Aowt3.s 			page 8


 106      6EF22A48 
 106      7E2AF08D 
 106      F14C9E
 107 0266 FC829B3C 		.ascii	"\374\202\233<\336\006\221_\012\220\327\345\311\257\270"
 107      DE06915F 
 107      0A90D7E5 
 107      C9AFB8
 108 0275 C9E740F2 		.ascii	"\311\347@\362k\001\362\033y\362\0067\371\032H.\011\220"
 108      6B01F21B 
 108      79F20637 
 108      F91A482E 
 108      0990
 109 0287 C7CE4893 		.ascii	"\307\316H\223\017\377\313K^\003\311\343\215K\274K.\325"
 109      0FFFCB4B 
 109      5E03C9E3 
 109      8D4BBC4B 
 109      2ED5
 110 0299 BC7F47E4 		.ascii	"\274\177G\344\315G\271\315\023\355\220\371X3\263Wc\236"
 110      CD47B9CD 
 110      13ED90F9 
 110      5833B357 
 110      639E
 111 02ab 90371FE7 		.ascii	"\2207\037\3476\317\203\346b3s\315\3268)O\236\342&\337"
 111      36CF83E6 
 111      623373CD 
 111      D638294F 
 111      9EE226DF 
 112 02bf 04C9D302 		.ascii	"\004\311\323\002\344\031y\362,7\371?\220|J\200<'G\276"
 112      E41979F2 
 112      2C37F93F 
 112      907C4A80 
 112      3C2747BE 
 113 02d3 854697CF 		.ascii	"\205F\227\317\276WY!<(\323N.\006\377\211x\277\263\263"
 113      BE575921 
 113      3C28D34E 
 113      2E06FF89 
 113      78BFB3B3 
 114 02e7 6B243F3C 		.ascii	"k$?<\32254\3225\374\331\336\241\\>\374\323?\271\303"
 114      D23534D2 
 114      35FCD9DE 
 114      A15C3EFC 
 114      D33FB9C3 
 115 02fb F93D7BF3 		.ascii	"\371={\363\237\346\362\356\316\235\037t\346P\274\243"
 115      9FE6F2EE 
 115      CE9D1F74 
 115      E650BCA3 
 116 030b A323AEA5 		.ascii	"\243#\256\245\\-\331\353\332\324\265\210m\246\035\252"
 116      5C2DD9EB 
 116      DAD4B588 
 116      6DA61DAA 
 117 031b 9B46773C 		.ascii	"\233Fw<8\020\256\217$-\322\357\020C\033,'\342\365\001"
 117      3810AE8F 
 117      242DD2EF 
 117      10431B2C 
 117      27E2F501 
 118 032f AA674882 		.ascii	"\252gH\202\244\251\032\031\360\257\272\375\216jP'\023"
 118      A4A91A19 
ARM GAS  /tmp/cc0Aowt3.s 			page 9


 118      F0AFBAFD 
 118      8E6A5027 
 118      13
 119 0340 19C8908C 		.ascii	"\031\310\220\214fZ\304\265\365\217Id\3000]=\221&.MY"
 119      665AC4B5 
 119      F58F4964 
 119      C0305D3D 
 119      91262E4D 
 120 0355 444D7437 		.ascii	"DMt7\006\314,+\302f\273v\226\220\250\200c\263\331o\253"
 120      06CC2C2B 
 120      C266BB76 
 120      9690A880 
 120      63B3D96F 
 121 036a 4794F003 		.ascii	"G\224\360\003\026\351\325mjE\337\246\037\370H\325)\331"
 121      16E9D56D 
 121      6A45DFA6 
 121      1FF848D5 
 121      29D9
 122 037c A5533060 		.ascii	"\245S0`\223\214\232M\261{\261\001C5\340f-\275\2731\220"
 122      938C9A4D 
 122      B17BB101 
 122      4335E066 
 122      2DBDBB31 
 123 0391 715885CA 		.ascii	"qX\205\312\364\250\025\312\001\206\325\034\313\216X"
 123      F4A815CA 
 123      0186D51C 
 123      CB8E58
 124 03a0 41338DC4 		.ascii	"A3\215\304\200j\331 \262\022\010\036\214\031\261\002"
 124      806AD920 
 124      B212081E 
 124      8C19B102 
 125 03b0 192006AD 		.ascii	"\031 \006\255\022\240@8\337\241QwAl[\355%\260\241\022"
 125      12A04038 
 125      DFA15177 
 125      416C5BED 
 125      25B0A112 
 126 03c4 08BB1015 		.ascii	"\010\273\020\025P\365t\217Y\355D\304\012\301\246\201"
 126      50F5748F 
 126      59ED44C4 
 126      0AC1A681 
 127 03d4 1B95226A 		.ascii	"\033\225\"j\266\366\201G\255\2205\3154\214L\014\032"
 127      B6F68147 
 127      AD9035CD 
 127      348C4C0C 
 127      1A
 128 03e5 6A46D71A 		.ascii	"jF\327\032K$z\374m\257R\266[t-\252QA`\320\246$\023\344"
 128      4B247AFC 
 128      6DAF52B6 
 128      5B742DAA 
 128      514160D0 
 129 03fd 58CF5344 		.ascii	"X\317SD\353\353~7@\014\265']\276\324p\2335\001\325\266"
 129      EBEB7E37 
 129      400CB527 
 129      5DBED470 
 129      9B3501D5 
 130 0412 8945EB77 		.ascii	"\211E\353w\224\037\240\226\252\371\255\262\373\000C"
 130      941FA096 
ARM GAS  /tmp/cc0Aowt3.s 			page 10


 130      AAF9ADB2 
 130      FB0043
 131 0421 18E87192 		.ascii	"\030\350q\222IbU^\257\250\022\014\251\365E\"\223z:]"
 131      4962555E 
 131      AFA8120C 
 131      A9F54522 
 131      937A3A5D 
 132 0435 7EEF1A1B 		.ascii	"~\357\032\033\025\224\010\257\261\007i\262\254n\364"
 132      159408AF 
 132      B10769B2 
 132      AC6EF4
 133 0444 FA25FE07 		.ascii	"\372%\376\007\200\347\030\322"
 133      80E718D2 
 134              		.text
 135              		.section	.gnu.lto_test_001_001_execute.5cdf265679807c77,"",%progbits
 136 0000 789C6362 		.ascii	"x\234cb`b@\007\222@\254\302\302\300\300\306\310\300"
 136      60624007 
 136      9240ACC2 
 136      C2C0C0C6 
 136      C8C0
 137 0012 C0C8CCC0 		.ascii	"\300\310\314\300\3104\341\034\003C#\007\023##\210\301"
 137      C834E11C 
 137      03432307 
 137      13232388 
 137      C1
 138 0023 C0C850CF 		.ascii	"\300\310P\317\304X\037\311\010V\273\236\351\300\203"
 138      C4581FC9 
 138      0856BB9E 
 138      E9C083
 139 0032 FFFFD7FD 		.ascii	"\377\377\327\375x\370h%\243\240\020P\200\225\241\245"
 139      78F86825 
 139      A3A01050 
 139      8095A1A5 
 140 0042 A1618202 		.ascii	"\241a\202\002\003C2XA\010\220\004\351\012ed\002\321"
 140      03433258 
 140      41089004 
 140      E90A6564 
 140      02D1
 141 0054 CC67199A 		.ascii	"\314g\031\232v\374\270\317\230\310\270\220\221\225a"
 141      76FCB8CF 
 141      98C8B890 
 141      919561
 142 0063 36C3ACC6 		.ascii	"6\303\254\306\206\006\201LF\206j\206_\015\035 \026c"
 142      8606814C 
 142      46866A86 
 142      5F0D1D20 
 142      1663
 143 0075 2E585B04 		.ascii	".X[\004#\220\311\000c1\200\230\347\031Z\036t.\346\202"
 143      2390C900 
 143      63318098 
 143      E7195A1E 
 143      742EE682 
 144 0089 E86440E8 		.ascii	"\350d@\350`J\206\252\004\211\314hh\010\315dd\226c\320"
 144      604A86AA 
 144      0489CC68 
 144      6808CD64 
 144      649663D0 
ARM GAS  /tmp/cc0Aowt3.s 			page 11


 145 009d 9BDB30C3 		.ascii	"\233\3330\303!\223\221\205\001\252>\023D\200\214\350"
 145      21939185 
 145      01AA3E13 
 145      44808CE8 
 146 00ad 7ACC8ECD 		.ascii	"z\314\216\315\010&d#\0023\031\331\344\030\"!F\260\243"
 146      08266423 
 146      023319D9 
 146      E4182221 
 146      46B0A3
 147 00c0 1BB1A09B 		.ascii	"\033\261\240\233\031\303\004\216d`@\301\234\313\311"
 147      19C3048E 
 147      646040C1 
 147      9CCBC9
 148 00cf 0854CB05 		.ascii	"\010T\313\005\261\256\2078\027s\3131TA\254\343\301p"
 148      B1AE8738 
 148      1773CB31 
 148      5441ACE3 
 148      C170
 149 00e1 712FD12E 		.ascii	"q/\321.\256\301\341\342\007}\304\271\202W\216a.#\304"
 149      AEC1E1E2 
 149      077DC4B9 
 149      82578E61 
 149      2E23C4
 150 00f4 0C3E0C33 		.ascii	"\014>\0143\372\211v\306\022F\\!7\203P\310\261 Bn&\345"
 150      FA8976C6 
 150      12465C21 
 150      378350C8 
 150      B120426E 
 151 010a 21378B68 		.ascii	"!7\213h'\037\305\351\344\331\204\234\314\200p\362\034"
 151      271FC5E9 
 151      E4D9849C 
 151      CC8070F2 
 151      1C
 152 011b CA9D3C97 		.ascii	"\312\235<\227h'?\303\351\344y\204\234\314\204p\362|"
 152      68273FC3 
 152      E9E47984 
 152      9CCC8470 
 152      F27C
 153 012d CA9C7C91 		.ascii	"\312\234|\221\241\361\301Je\230\011\020\020\002\324"
 153      A1F1C14A 
 153      65980910 
 153      1002D4
 154 013c 0DCCEA20 		.ascii	"\015\314\352 'k\353\351\351\227\244\026\227\350\027"
 154      276BEBE9 
 154      E997A416 
 154      97E817
 155 014b 95E817E7 		.ascii	"\225\350\027\347\227\026%\247B\270 \"\2768\265\2604"
 155      971625A7 
 155      42B82022 
 155      BE38B5B0 
 155      34
 156 015c 352F3935 		.ascii	"5/95\336\300\300P/\231AKWWW!\240(?\2454\271\304J\001"
 156      DEC0C050 
 156      2F99414B 
 156      57575721 
 156      A0283FA5 
 157 0175 13386764 		.ascii	"\0238gd&e\372\007\353\007\2050(\200\224\006\227$&\345"
ARM GAS  /tmp/cc0Aowt3.s 			page 12


 157      2665FA07 
 157      EB078530 
 157      28809406 
 157      972426E5 
 158 0189 A42AB8E5 		.ascii	"\244*\270\345$\246\243+\007\226\027`%a\251E\305\231"
 158      24A6A32B 
 158      07961760 
 158      2561A945 
 158      C599
 159 019b F97940A5 		.ascii	"\371y@\245E\231y\250\252\030\330L\364\014\364\214 \352"
 159      459979A8 
 159      AA18D84C 
 159      F40CF48C 
 159      20EA
 160 01ad 7C13B3F2 		.ascii	"|\023\263\362\213\024\374Js\223R\213\320\314\202*\310"
 160      8B14FC4A 
 160      7393528B 
 160      D0CC822A 
 160      C8
 161 01be CCC3AF20 		.ascii	"\314\303\257  \261$9\003\207\002\000M\306F\325"
 161      20B12439 
 161      03870200 
 161      4DC646D5 
 162              		.text
 163              		.section	.gnu.lto_.symbol_nodes.5cdf265679807c77,"",%progbits
 164 0000 789C4D93 		.ascii	"x\234M\223]\212\032Q\020F\353V\353\350.\262\212,hVr"
 164      5D8A1A51 
 164      1046EB56 
 164      EBE82EB2 
 164      8A2C6856 
 165 0015 070A46A2 		.ascii	"\007\012F\242\240AAA\203>\364F\006\372=\033\310\337"
 165      A0414141 
 165      833EF446 
 165      06FA3D1B 
 165      C8DF
 166 0027 38171474 		.ascii	"8\027\024tPp\236\023\322\351:\225\304\227\272}>9\337"
 166      50709E13 
 166      D2E93A95 
 166      C497BA7D 
 166      3E39DF
 167 003a D3A7A2F2 		.ascii	"\323\247\242\362\276'\376\323o)\213|\374,\222\363\247"
 167      BE27FED3 
 167      6F298B7C 
 167      FC2C92F3 
 167      A7
 168 004b 0FF7FDE7 		.ascii	"\017\367\375\347\324\276D\277\244\234\376\243?R\352"
 168      D4BE44BF 
 168      A49CFEA3 
 168      3F52EA
 169 005a 67E97F4D 		.ascii	"g\351\177M\332\313U\377{\252\332\223J\312\352\377yx"
 169      DACB55FF 
 169      7BAADA93 
 169      4ACAEAFF 
 169      7978
 170 006c 48E925E5 		.ascii	"H\351%\345\352\337\327>\345\336\337\257J\206R?\377j"
 170      EADFD73E 
 170      E5DEDFAF 
ARM GAS  /tmp/cc0Aowt3.s 			page 13


 170      4A86523F 
 170      FF6A
 171 007e EF409AEE 		.ascii	"\357@\232\356\336I\351\356Pl\357\274\336;o\366\316\013"
 171      DE49E9EE 
 171      506CEFBC 
 171      DE3B6FF6 
 171      CE0B
 172 0090 DC1E5FDF 		.ascii	"\334\036_\337\375\341uw\207\322tw \005n#\347\365\310"
 172      FDE17577 
 172      87D27477 
 172      20056E23 
 172      E7F5C8
 173 00a3 7933725E 		.ascii	"y3r^\3406v^\217\2357c\347\005n\023\374\023\374\023\374"
 173      E036765E 
 173      8F9D3763 
 173      E7056E13 
 173      FC13FC13 
 174 00b8 709BE29F 		.ascii	"p\233\342\237\342\237\342\207\333\014\377\014\377\014"
 174      E29FE287 
 174      DB0CFF0C 
 174      FF0C
 175 00c6 3FDCE6F8 		.ascii	"?\334\346\370\347\370\347\370\341\266\300\277\300\277"
 175      E7F8E7F8 
 175      E1B6C0BF 
 175      C0BF
 176 00d4 C00FB725 		.ascii	"\300\017\267%\376%\376%~\270\255\360\257\360\257\360"
 176      FE25FE25 
 176      7EB8ADF0 
 176      AFF0AFF0 
 177 00e4 C36D8D7F 		.ascii	"\303m\215\177\215\177\215\037n\033\374\033\374\033\374"
 177      8D7F8D1F 
 177      6E1BFC1B 
 177      FC1BFC
 178 00f3 70DBE2DF 		.ascii	"p\333\342\337\342\337\342\207\333\016\377\016\377\016"
 178      E2DFE287 
 178      DB0EFF0E 
 178      FF0E
 179 0101 3FDC5E9E 		.ascii	"?\334^\236~V]\201?\332\006\177\264\025\021Y!\252\013"
 179      7E565D81 
 179      3FDA067F 
 179      B4151159 
 179      21AA0B
 180 0114 5153884A 		.ascii	"QS\210JDv \252\017D\315\201\250Dd\307\350:F\3271\272"
 180      447620AA 
 180      0F44CD81 
 180      A84464C7 
 180      E83A46D7 
 181 012a 22B25374 		.ascii	"\"\262St\235\242\353\024]\021\3319\272\316\321u\216"
 181      9DA2EB14 
 181      5D11D939 
 181      BACED175 
 181      8E
 182 013b AE88EC12 		.ascii	"\256\210\354\022]\227\350\272DWDv\215\256kt]\243+\""
 182      5D97E8BA 
 182      44574476 
 182      8DAE6B74 
 182      5DA32B22 
ARM GAS  /tmp/cc0Aowt3.s 			page 14


 183 014f BB45D72D 		.ascii	"\273E\327-\272n\321\025\221\275E\327[tu\017\275\363"
 183      BA6ED115 
 183      91BD45D7 
 183      5B74750F 
 183      BDF3
 184 0161 59E9D067 		.ascii	"Y\351\320g\245\003\237U\313\273Y\265\274\233\2252+e"
 184      A5039F55 
 184      CBBB59B5 
 184      BC9B9532 
 184      2B65
 185 0173 56CAAC94 		.ascii	"V\312\254\224Y)\263Rf\245\314J\231\2252+\365Y\311o\241"
 185      5929B352 
 185      66A5CC4A 
 185      9995322B 
 185      F559C96F 
 186 0188 A35D19   		.ascii	"\243]\031"
 187              		.text
 188              		.section	.gnu.lto_.refs.5cdf265679807c77,"",%progbits
 189 0000 789C25C2 		.ascii	"x\234%\302\201\011\000 \014\300\260\266\316\033\374"
 189      81090020 
 189      0CC0B0B6 
 189      CE1BFC
 190 000f FF530543 		.ascii	"\377S\005C\"\016\237\250\275\253i;\345\016.\005H\000"
 190      220E9FA8 
 190      BDAB693B 
 190      E50E2E05 
 190      4800
 191 0021 47       		.ascii	"G"
 192              		.text
 193              		.section	.gnu.lto_.decls.5cdf265679807c77,"",%progbits
 194 0000 789C9D56 		.ascii	"x\234\235Voh[U\024?\367\245i\2335\244\353\320\332}p"
 194      6F685B55 
 194      143FF7A5 
 194      699B35A4 
 194      EBD0DA7D 
 195 0015 CD840A56 		.ascii	"\315\204\012VL\332\316\2172\006~P\021\374\"\003\277"
 195      4CDACE8F 
 195      32067E50 
 195      11FC2203 
 195      BF
 196 0026 C5677A67 		.ascii	"\305gzg\013\331kM^\230\342\227k\007ZEF\326M\351\304"
 196      0BD96B4D 
 196      5E98E297 
 196      6B075A45 
 196      46D64DE9 
 197 003b 49BBADCE 		.ascii	"I\273\255\316?\260v\177\2731g\237s\355\352\252]\235"
 197      3FB0767F 
 197      BB31679F 
 197      73EDEAAA 
 197      5D9D
 198 004d 62199599 		.ascii	"b\031\225\231\211\033VA\013V\351*5\236\367\356}y/y\357"
 198      891B5641 
 198      0B56E92A 
 198      359EF7EE 
 198      7D792F79 
 199 0062 99C40BE7 		.ascii	"\231\304\013\347\345\346\346\234\337\371\235\337\271"
 199      E5E6E69C 
ARM GAS  /tmp/cc0Aowt3.s 			page 15


 199      DFF99DDF 
 199      B9
 200 006f F7BE4820 		.ascii	"\367\276H \301#\004 \207\343Z\010`\037\316}\000\260"
 200      C1230420 
 200      87E35A08 
 200      601FCE7D 
 200      00B0
 201 0081 152D8036 		.ascii	"\025-\2006\214v\010\355(\3321\264Q\264\343h'\320N\241"
 201      8C7608ED 
 201      28DA31B4 
 201      51B4E368 
 201      27D04EA1 
 202 0095 9D063EFC 		.ascii	"\235\006>\374h\343h\347\321>E\273\2046\215V\205v\005"
 202      68E368E7 
 202      D13E45BB 
 202      84368D56 
 202      857605
 203 00a8 ED4BB45B 		.ascii	"\355K\264[h\277C\341\320c\352D\374\012\332\035[\236"
 203      68BF43E1 
 203      D063EA44 
 203      FC0ADA1D 
 203      5B9E
 204 00ba 09B45591 		.ascii	"\011\264U\221{\322\306\005\004\356\270\310qI\344$\""
 204      7BD2C605 
 204      04EEB8C8 
 204      7149E424 
 204      22
 205 00cb 977DE87C 		.ascii	"\227}\350|\352\213\360M\336\023\266\\ny\314:\315|fm"
 205      EA8BF04D 
 205      DE13B65C 
 205      6E79CC3A 
 205      CD7C666D 
 206 00df 664EB77C 		.ascii	"fN\267|u\360\006c}l\350U\366\370t\250\0012\014G\326"
 206      75F00663 
 206      7D6CE855 
 206      F6F874A8 
 206      01320C47 
 207 00f4 3F180A40 		.ascii	"?\030\012@\277\276\236\035aMM\000\317\020\231\340R\255"
 207      BFBE9E1D 
 207      614D4D00 
 207      CF1099E0 
 207      52AD
 208 0106 3109060C 		.ascii	"1\011\006\014\244\0268\202\276\030 \311\3440\011`_$"
 208      A4163882 
 208      BE1820C9 
 208      E4300960 
 208      5F24
 209 0118 02AE83FF 		.ascii	"\002\256\203\377\256\017=\234\317\315Y\216\270\243\353"
 209      AE0F3D9C 
 209      CFCD598E 
 209      B8A3EB
 210 0127 51874883 		.ascii	"Q\207H\20313\2700\301\321\360\020\021a3\242JD\274o\313"
 210      3133B830 
 210      C1D1F010 
 210      116133A2 
 210      4A44BC6F 
 211 013c 130CD827 		.ascii	"\023\014\330'\220_w\213\033&u\246\213(\234's\2170*\317"
ARM GAS  /tmp/cc0Aowt3.s 			page 16


 211      905F778B 
 211      1B2675A6 
 211      8B289C27 
 211      738F302A 
 212 0151 64AFFE98 		.ascii	"d\257\376\230\225\030\253\225\311Q\243\372\026\002\255"
 212      9518AB95 
 212      C951A3FA 
 212      1602AD
 213 0160 F02197E4 		.ascii	"\360!\227\344\342=.2\224\217\274ps\306g \177l \307\011"
 213      E23D2E32 
 213      948FBC70 
 213      73C66720 
 213      7F6C20C7 
 214 0175 52FC88B4 		.ascii	"R\374\210\264\346\345\254\011\330q\215\357\246\203\016"
 214      E6E5AC09 
 214      D8718DEF 
 214      A6830E
 215 0184 5613B026 		.ascii	"V\023\260&\3729\251\207J\335\335vEx0\304[&\2103\311"
 215      FA39A987 
 215      4ADDDD76 
 215      457830C4 
 215      5B268833 
 216 0199 641E16B8 		.ascii	"d\036\026\270\243\025\367k\314\243_\315%\372u\314\352"
 216      A315F76B 
 216      CCA35FCD 
 216      25FA75CC 
 216      EA
 217 01aa 573954DB 		.ascii	"W9T\333\314\370j\021\177\242b\246'=\230\372K0=^\031"
 217      CCF86A11 
 217      7FA262A6 
 217      273D98FA 
 217      4B303D5E 
 218 01bf D3B9BCA8 		.ascii	"\323\271\274\250\255\002\340t\305T\317xP}\240\004\325"
 218      AD02E074 
 218      C554CF78 
 218      507DA004 
 218      D5
 219 01d0 5316D566 		.ascii	"S\026\325fx\217iK\331\013\227o\177M\366\356f\323lI\337"
 219      788F694B 
 219      D90B976F 
 219      7F4DF6EE 
 219      66D36C49 
 220 01e5 168DF096 		.ascii	"\026\215\360\226\240\300\210*\223\255w{B\235%\215b\266"
 220      A0C0882A 
 220      93AD777B 
 220      429D258D 
 220      62B6
 221 01f7 DDC71125 		.ascii	"\335\307\021%x\207\024nc\200\373aD\307c\0370\237\201"
 221      7887146E 
 221      6380FB61 
 221      44C7631F 
 221      309F81
 222 020a A6FB8F93 		.ascii	"\246\373\217\223f\260\015\231\234#\222}\2013\323V(\347"
 222      66B00D99 
 222      9C23927D 
 222      8133D356 
 222      28E7
ARM GAS  /tmp/cc0Aowt3.s 			page 17


 223 021c C4534930 		.ascii	"\304SI0Z\026\370\371b\360O\234\340\331L\366\300\354"
 223      5A16F8F9 
 223      62F04F9C 
 223      E0D94CF6 
 223      C0EC
 224 022e 6F7D58F6 		.ascii	"o}X\366P\305eO\210\262} 9\032\236\277P\265\246\301\220"
 224      50C5654F 
 224      88B27D20 
 224      391A9EBF 
 224      50B5A6C1 
 225 0243 FB9D2793 		.ascii	"\373\235'\223#\244\245\334\333\322\221\3743\253}\226"
 225      23A4A5DC 
 225      DBD291FC 
 225      33AB7D96 
 226 0253 EC86F20B 		.ascii	"\354\206\362\013\016q\270\323\347n\325kgf\336d$\363"
 226      0E71B8D3 
 226      E76ED56B 
 226      6766DE64 
 226      24F3
 227 0265 4A36976B 		.ascii	"J6\227k.\277\362\311\302\312\371\235XD\343g\017\032"
 227      2EBFF2C9 
 227      C2CAF99D 
 227      5844E367 
 227      0F1A
 228 0277 975D699C 		.ascii	"\227]i\234\265hpa%X\366\000\370\242\020\340>\030fC\003"
 228      B5687061 
 228      2558F600 
 228      F8A210E0 
 228      3E186643 
 229 028c DADA95FD 		.ascii	"\332\332\225\375\033\331p\037c\377\344rH\326\257\337"
 229      1BD9701F 
 229      63FFE472 
 229      48D6AFDF 
 230 029c A4B93C82 		.ascii	"\244\271<\202W!3\026\226\2163\246\341!\370\3510\331"
 230      57213316 
 230      968E33A6 
 230      E121F8E9 
 230      30D9
 231 02ae C7F01030 		.ascii	"\307\360\0200\015\221\232\315\223;\035\312\367W\303"
 231      0D919ACD 
 231      933B1DCA 
 231      F757C3
 232 02bd FE6E80BD 		.ascii	"\376n\200\275\206V(\225\355vg\304L\260\036\362\327\373"
 232      86562895 
 232      ED7667C4 
 232      4CB01EF2 
 232      D7FB
 233 02cf 813D93ED 		.ascii	"\201=\223\355x\275\213\210\260\247\273L\346p?\224t\323"
 233      78BD8B88 
 233      B0A7BB4C 
 233      E6703F94 
 233      74D3
 234 02e1 1DAF910D 		.ascii	"\035\257\221\015\2420\376Z\326\376\246a\276\012.\222"
 234      A230FE5A 
 234      D6FEA661 
 234      BE0A2E92 
 235 02f1 89B11990 		.ascii	"\211\261\031\220m\237\266\2666M\330@\220\357 \011^\227"
ARM GAS  /tmp/cc0Aowt3.s 			page 18


 235      6D9FB6B6 
 235      364DD840 
 235      90EF2009 
 235      5E97
 236 0303 880074D3 		.ascii	"\210\000t\323\250\340\205*\034\012\341r\213\006\\\301"
 236      A8E0852A 
 236      1C0AE172 
 236      8B065CC1 
 237 0313 E6E7C7D4 		.ascii	"\346\347\307\324K\363y\314k#)\301\236\212)\204\013("
 237      4BF379CC 
 237      6B2329C1 
 237      9E8A2984 
 237      0B28
 238 0325 64A68219 		.ascii	"d\246\202\031\231\343J\260\277\034\260Z\357z\006\354"
 238      99E34AB0 
 238      BF1CB05A 
 238      EF7A06EC 
 239 0335 60072B06 		.ascii	"`\007+\006\013\027\211\316\013\225\3117\306Q\377\226"
 239      0B1789CE 
 239      0B95C937 
 239      C651FF96 
 240 0345 6CC6E777 		.ascii	"l\306\347w\306\363\272\361\\\300g~H0\"\025\277\374y"
 240      C6F3BAF1 
 240      5CC0677E 
 240      48302215 
 240      BFFC79
 241 0358 536D7856 		.ascii	"SmxV\357\2414\242{\017\212\232u\325\243>\035\377\206"
 241      EFA134A2 
 241      7B0F8A9A 
 241      75D5A33E 
 241      1DFF86
 242 036b 75CD1442 		.ascii	"u\315\024B>kz\006\215U\353\230\360\030w/\231\374P\361"
 242      3E6B7A06 
 242      8D55EB98 
 242      F018772F 
 242      99FC50F1 
 243 037f FB2DEBF1 		.ascii	"\373-\353\361~\263_\002\226\027.\217IE\247\336A\342"
 243      7EB35F02 
 243      96172E8F 
 243      4945A7DE 
 243      41E2
 244 0391 269EFA4D 		.ascii	"&\236\372MpQ:\310x\357\036\206\223\254_k\223\311W\310"
 244      70513AC8 
 244      78EF1E86 
 244      93AC5F6B 
 244      93C957C8 
 245 03a5 2EBF2B5E 		.ascii	".\277+^\206U6\310\262\027^\273\265\205\327\244\337\020"
 245      865536C8 
 245      B2175EBB 
 245      B585D7A4 
 245      DF10
 246 03b7 7373DAFC 		.ascii	"ss\332\374\324\273\204\015\345o\032]=\011\276/N\352"
 246      D4BB840D 
 246      E56F1A5D 
 246      3D09BE2F 
 246      4EEA
 247 03c9 3CB4B7C5 		.ascii	"<\264\267\305]\303\263m\343\221\274\203<\225v}\212\224"
ARM GAS  /tmp/cc0Aowt3.s 			page 19


 247      5DC3B36D 
 247      E391BC83 
 247      3C95767D 
 247      8A94
 248 03db F3AFC151 		.ascii	"\363\257\301Q\317/\025\213\372\253\207\250f\263\275"
 248      CF2F158B 
 248      FAAB87A8 
 248      66B3BD
 249 03ea E216ADED 		.ascii	"\342\026\255\355\260\011\026Q\300\301mVz\276\017\365"
 249      B0091651 
 249      C0C16D56 
 249      7ABE0FF5 
 250 03fa 8879C38D 		.ascii	"\210y\303\215\357H\373\367\005Qk?\323nT\2337\201\375"
 250      EF48FBF7 
 250      05516B3F 
 250      D36E549B 
 250      3781FD
 251 040d 352DF212 		.ascii	"5-\362\022S\221\267\353\013\245\237u\221\376\257\322"
 251      5391B7EB 
 251      0BA59F75 
 251      91FEAFD2 
 252 041d D22F9596 		.ascii	"\322/\225\226~\266,\351\235\320\313\025k\377\247\207"
 252      7EB62CE9 
 252      9DD0CB15 
 252      6BFFA787 
 253 042d F6F5851A 		.ascii	"\366\365\205\0328\342\376\260k\277\333\307\265_\376"
 253      38E2FEB0 
 253      6BBFDBC7 
 253      B55FFE
 254 043c 5FDA874C 		.ascii	"_\332\207L\355\307\235\332\363\277\244\346\271/\272"
 254      EDC79DDA 
 254      F3BFA4E6 
 254      B92FBA
 255 044b 2AFCDE65 		.ascii	"*\374\336e\255x\374\365\345\257s\257\250;\236Q\223\377"
 255      AD78FCF5 
 255      E5AF73AF 
 255      A83B9E51 
 255      93FF
 256 045d 11B56ABB 		.ascii	"\021\265j\273\225\252\342]r\362\336h:\225\214v+\361"
 256      95AAE25D 
 256      72F2DE68 
 256      3A958C76 
 256      2BF1
 257 046f 44BA9346 		.ascii	"D\272\223F\025\272+\321\375\\4\245vv+j\244\013j\323"
 257      15BA2BD1 
 257      FD5C34A5 
 257      76762B6A 
 257      A40B6AD3 
 258 0483 F8B9A523 		.ascii	"\370\271\245#\246V?\366\324\366\360\243\360\220\233"
 258      A6563FF6 
 258      D4F6F0A3 
 258      F0909B
 259 0492 F74E39DE 		.ascii	"\367N9\336\325\255\320h\254\223\356\220\323\0115\246"
 259      D5ADD068 
 259      AC93EE90 
 259      D30935A6 
 260 04a2 BED44B53 		.ascii	"\276\324KS\030\275.\0263\343\037\214D\242*M\251\321"
ARM GAS  /tmp/cc0Aowt3.s 			page 20


 260      18BD2E16 
 260      33E31F8C 
 260      44A22A4D 
 260      A9D1
 261 04b4 A41A4DF5 		.ascii	"\244\032M\365\244\223q\312\277\352\217X\212\276\220"
 261      A49371CA 
 261      BFEA8F58 
 261      8ABE90
 262 04c3 A64A9CC6 		.ascii	"\246J\234\306\332\332\332#q\270\313X\3049ZG\214\276"
 262      DADADA23 
 262      71B8CB58 
 262      C4395A47 
 262      8CBE
 263 04d5 48E36995 		.ascii	"H\343i\225\332\027\333\315\305F\023U\247\021\357\212"
 263      DA17DBCD 
 263      C5461355 
 263      A711EF8A 
 264 04e5 E973CC1B 		.ascii	"\351s\314\0334|{\223\230;\241\324Y_\224u\326<\3003\253"
 264      347C7B93 
 264      983BA1D4 
 264      595F9475 
 264      D63CC033 
 265 04fa B4B74A91 		.ascii	"\264\267J\221wR\177\212\252\351\336Z\225\312\311\316"
 265      77527F8A 
 265      AAE9DE5A 
 265      95CAC9CE 
 266 050a 9E5D4A8D 		.ascii	"\236]J\215H`\004\304\345\024\215\251\015\016\252\033"
 266      486004C4 
 266      E5148DA9 
 266      0D0EAA1B 
 267 051a 23C99E4E 		.ascii	"#\311\236NY\225#\216_\202v\262\301'iR\241\211\360\023"
 267      5995238E 
 267      5F8276B2 
 267      C1276952 
 267      A189F013 
 268 052e CA8E1EB0 		.ascii	"\312\216\036\260\377\322\261^\374\3624U\325n\345\371"
 268      FFD2B15E 
 268      FCF23455 
 268      D56EE5F9 
 269 053e 14FC0BE1 		.ascii	"\024\374\013\341J}\023"
 269      4A7D13
 270              		.text
 271              		.section	.gnu.lto_.symtab.5cdf265679807c77,"",%progbits
 272 0000 74657374 		.ascii	"test_sequence_001\000\000\000\000\000\000\000\000\000"
 272      5F736571 
 272      75656E63 
 272      655F3030 
 272      31000000 
 273 001a 000000CC 		.ascii	"\000\000\000\314\000\000\000test_step\000\000\002\000"
 273      00000074 
 273      6573745F 
 273      73746570 
 273      00000200 
 274 002e 00000000 		.ascii	"\000\000\000\000\000\000\000\000\312\000\000\000tes"
 274      00000000 
 274      CA000000 
 274      746573
ARM GAS  /tmp/cc0Aowt3.s 			page 21


 275 003d 745F7072 		.ascii	"t_println\000\000\002\000\000\000\000\000\000\000\000"
 275      696E746C 
 275      6E000002 
 275      00000000 
 275      00000000 
 276 0051 00BE0000 		.ascii	"\000\276\000\000\000test_printn\000\000\002\000\000"
 276      00746573 
 276      745F7072 
 276      696E746E 
 276      00000200 
 277 0066 00000000 		.ascii	"\000\000\000\000\000\000\000\304\000\000\000test_pr"
 277      000000C4 
 277      00000074 
 277      6573745F 
 277      7072
 278 0078 696E7400 		.ascii	"int\000\000\002\000\000\000\000\000\000\000\000\000"
 278      00020000 
 278      00000000 
 278      000000
 279 0087 C8000000 		.ascii	"\310\000\000\000"
 280              		.text
 281              		.section	.gnu.lto_.opts,"",%progbits
 282 0000 272D6D63 		.ascii	"'-mcpu=cortex-m3' '-mno-thumb-interwork' '-mthumb' "
 282      70753D63 
 282      6F727465 
 282      782D6D33 
 282      2720272D 
 283 0033 272D6767 		.ascii	"'-ggdb' '-O2' '-fomit-frame-pointer' '-falign-funct"
 283      64622720 
 283      272D4F32 
 283      2720272D 
 283      666F6D69 
 284 0066 696F6E73 		.ascii	"ions=16' '-ffunction-sections' '-fdata-sections' '-"
 284      3D313627 
 284      20272D66 
 284      66756E63 
 284      74696F6E 
 285 0099 666E6F2D 		.ascii	"fno-common' '-flto'\000"
 285      636F6D6D 
 285      6F6E2720 
 285      272D666C 
 285      746F2700 
 286              		.text
 287              		.cfi_sections	.debug_frame
 288              		.section	.text.test_001_002_execute,"ax",%progbits
 289              		.align	2
 290              		.p2align 4,,15
 291              		.thumb
 292              		.thumb_func
 293              		.type	test_001_002_execute, %function
 294              	test_001_002_execute:
 295              	.LFB220:
 296              		.file 1 "../test/rt/source/test/test_sequence_001.c"
 297              		.loc 1 101 0
 298              		.cfi_startproc
 299              		@ args = 0, pretend = 0, frame = 0
 300              		@ frame_needed = 0, uses_anonymous_args = 0
ARM GAS  /tmp/cc0Aowt3.s 			page 22


 301 0000 38B5     		push	{r3, r4, r5, lr}
 302              		.cfi_def_cfa_offset 16
 303              		.cfi_offset 3, -16
 304              		.cfi_offset 4, -12
 305              		.cfi_offset 5, -8
 306              		.cfi_offset 14, -4
 307              		.loc 1 106 0
 308 0002 40F20000 		movw	r0, #:lower16:.LC0
 309              		.loc 1 104 0
 310 0006 40F20003 		movw	r3, #:lower16:test_step
 311 000a C0F20003 		movt	r3, #:upper16:test_step
 312 000e 0125     		movs	r5, #1
 313              		.loc 1 106 0
 314 0010 C0F20000 		movt	r0, #:upper16:.LC0
 315              		.loc 1 108 0
 316 0014 40F20004 		movw	r4, #:lower16:.LC1
 317              		.loc 1 104 0
 318 0018 1D60     		str	r5, [r3]
 319              		.loc 1 108 0
 320 001a C0F20004 		movt	r4, #:upper16:.LC1
 321              		.loc 1 106 0
 322 001e FFF7FEFF 		bl	test_print
 323              	.LVL0:
 324              		.loc 1 107 0
 325 0022 1020     		movs	r0, #16
 326 0024 FFF7FEFF 		bl	test_printn
 327              	.LVL1:
 328              		.loc 1 108 0
 329 0028 2046     		mov	r0, r4
 330 002a FFF7FEFF 		bl	test_println
 331              	.LVL2:
 332              		.loc 1 109 0
 333 002e 40F20000 		movw	r0, #:lower16:.LC2
 334 0032 C0F20000 		movt	r0, #:upper16:.LC2
 335 0036 FFF7FEFF 		bl	test_print
 336              	.LVL3:
 337              		.loc 1 110 0
 338 003a 4FF47A70 		mov	r0, #1000
 339 003e FFF7FEFF 		bl	test_printn
 340              	.LVL4:
 341              		.loc 1 111 0
 342 0042 2046     		mov	r0, r4
 343 0044 FFF7FEFF 		bl	test_println
 344              	.LVL5:
 345              		.loc 1 112 0
 346 0048 40F20000 		movw	r0, #:lower16:.LC3
 347 004c C0F20000 		movt	r0, #:upper16:.LC3
 348 0050 FFF7FEFF 		bl	test_print
 349              	.LVL6:
 350              		.loc 1 113 0
 351 0054 0220     		movs	r0, #2
 352 0056 FFF7FEFF 		bl	test_printn
 353              	.LVL7:
 354              		.loc 1 114 0
 355 005a 2046     		mov	r0, r4
 356 005c FFF7FEFF 		bl	test_println
 357              	.LVL8:
ARM GAS  /tmp/cc0Aowt3.s 			page 23


 358              		.loc 1 115 0
 359 0060 40F20000 		movw	r0, #:lower16:.LC4
 360 0064 C0F20000 		movt	r0, #:upper16:.LC4
 361 0068 FFF7FEFF 		bl	test_print
 362              	.LVL9:
 363              		.loc 1 116 0
 364 006c 0020     		movs	r0, #0
 365 006e FFF7FEFF 		bl	test_printn
 366              	.LVL10:
 367              		.loc 1 117 0
 368 0072 2046     		mov	r0, r4
 369 0074 FFF7FEFF 		bl	test_println
 370              	.LVL11:
 371              		.loc 1 118 0
 372 0078 40F20000 		movw	r0, #:lower16:.LC5
 373 007c C0F20000 		movt	r0, #:upper16:.LC5
 374 0080 FFF7FEFF 		bl	test_print
 375              	.LVL12:
 376              		.loc 1 119 0
 377 0084 0020     		movs	r0, #0
 378 0086 FFF7FEFF 		bl	test_printn
 379              	.LVL13:
 380              		.loc 1 120 0
 381 008a 2046     		mov	r0, r4
 382 008c FFF7FEFF 		bl	test_println
 383              	.LVL14:
 384              		.loc 1 121 0
 385 0090 40F20000 		movw	r0, #:lower16:.LC6
 386 0094 C0F20000 		movt	r0, #:upper16:.LC6
 387 0098 FFF7FEFF 		bl	test_print
 388              	.LVL15:
 389              		.loc 1 122 0
 390 009c 0020     		movs	r0, #0
 391 009e FFF7FEFF 		bl	test_printn
 392              	.LVL16:
 393              		.loc 1 123 0
 394 00a2 2046     		mov	r0, r4
 395 00a4 FFF7FEFF 		bl	test_println
 396              	.LVL17:
 397              		.loc 1 124 0
 398 00a8 40F20000 		movw	r0, #:lower16:.LC7
 399 00ac C0F20000 		movt	r0, #:upper16:.LC7
 400 00b0 FFF7FEFF 		bl	test_print
 401              	.LVL18:
 402              		.loc 1 125 0
 403 00b4 2846     		mov	r0, r5
 404 00b6 FFF7FEFF 		bl	test_printn
 405              	.LVL19:
 406              		.loc 1 126 0
 407 00ba 2046     		mov	r0, r4
 408 00bc FFF7FEFF 		bl	test_println
 409              	.LVL20:
 410              		.loc 1 127 0
 411 00c0 40F20000 		movw	r0, #:lower16:.LC8
 412 00c4 C0F20000 		movt	r0, #:upper16:.LC8
 413 00c8 FFF7FEFF 		bl	test_print
 414              	.LVL21:
ARM GAS  /tmp/cc0Aowt3.s 			page 24


 415              		.loc 1 128 0
 416 00cc 0020     		movs	r0, #0
 417 00ce FFF7FEFF 		bl	test_printn
 418              	.LVL22:
 419              		.loc 1 129 0
 420 00d2 2046     		mov	r0, r4
 421 00d4 FFF7FEFF 		bl	test_println
 422              	.LVL23:
 423              		.loc 1 130 0
 424 00d8 40F20000 		movw	r0, #:lower16:.LC9
 425 00dc C0F20000 		movt	r0, #:upper16:.LC9
 426 00e0 FFF7FEFF 		bl	test_print
 427              	.LVL24:
 428              		.loc 1 131 0
 429 00e4 2846     		mov	r0, r5
 430 00e6 FFF7FEFF 		bl	test_printn
 431              	.LVL25:
 432              		.loc 1 132 0
 433 00ea 2046     		mov	r0, r4
 434 00ec FFF7FEFF 		bl	test_println
 435              	.LVL26:
 436              		.loc 1 133 0
 437 00f0 40F20000 		movw	r0, #:lower16:.LC10
 438 00f4 C0F20000 		movt	r0, #:upper16:.LC10
 439 00f8 FFF7FEFF 		bl	test_print
 440              	.LVL27:
 441              		.loc 1 134 0
 442 00fc 2846     		mov	r0, r5
 443 00fe FFF7FEFF 		bl	test_printn
 444              	.LVL28:
 445              		.loc 1 135 0
 446 0102 2046     		mov	r0, r4
 447 0104 FFF7FEFF 		bl	test_println
 448              	.LVL29:
 449              		.loc 1 136 0
 450 0108 40F20000 		movw	r0, #:lower16:.LC11
 451 010c C0F20000 		movt	r0, #:upper16:.LC11
 452 0110 FFF7FEFF 		bl	test_print
 453              	.LVL30:
 454              		.loc 1 137 0
 455 0114 2846     		mov	r0, r5
 456 0116 FFF7FEFF 		bl	test_printn
 457              	.LVL31:
 458              		.loc 1 138 0
 459 011a 2046     		mov	r0, r4
 460 011c FFF7FEFF 		bl	test_println
 461              	.LVL32:
 462              		.loc 1 139 0
 463 0120 40F20000 		movw	r0, #:lower16:.LC12
 464 0124 C0F20000 		movt	r0, #:upper16:.LC12
 465 0128 FFF7FEFF 		bl	test_print
 466              	.LVL33:
 467              		.loc 1 140 0
 468 012c 0020     		movs	r0, #0
 469 012e FFF7FEFF 		bl	test_printn
 470              	.LVL34:
 471              		.loc 1 141 0
ARM GAS  /tmp/cc0Aowt3.s 			page 25


 472 0132 2046     		mov	r0, r4
 473 0134 FFF7FEFF 		bl	test_println
 474              	.LVL35:
 475              		.loc 1 142 0
 476 0138 40F20000 		movw	r0, #:lower16:.LC13
 477 013c C0F20000 		movt	r0, #:upper16:.LC13
 478 0140 FFF7FEFF 		bl	test_print
 479              	.LVL36:
 480              		.loc 1 143 0
 481 0144 2846     		mov	r0, r5
 482 0146 FFF7FEFF 		bl	test_printn
 483              	.LVL37:
 484              		.loc 1 144 0
 485 014a 2046     		mov	r0, r4
 486 014c FFF7FEFF 		bl	test_println
 487              	.LVL38:
 488              		.loc 1 145 0
 489 0150 40F20000 		movw	r0, #:lower16:.LC14
 490 0154 C0F20000 		movt	r0, #:upper16:.LC14
 491 0158 FFF7FEFF 		bl	test_print
 492              	.LVL39:
 493              		.loc 1 146 0
 494 015c 0020     		movs	r0, #0
 495 015e FFF7FEFF 		bl	test_printn
 496              	.LVL40:
 497              		.loc 1 147 0
 498 0162 2046     		mov	r0, r4
 499 0164 FFF7FEFF 		bl	test_println
 500              	.LVL41:
 501              		.loc 1 148 0
 502 0168 40F20000 		movw	r0, #:lower16:.LC15
 503 016c C0F20000 		movt	r0, #:upper16:.LC15
 504 0170 FFF7FEFF 		bl	test_print
 505              	.LVL42:
 506              		.loc 1 149 0
 507 0174 2846     		mov	r0, r5
 508 0176 FFF7FEFF 		bl	test_printn
 509              	.LVL43:
 510              		.loc 1 150 0
 511 017a 2046     		mov	r0, r4
 512 017c FFF7FEFF 		bl	test_println
 513              	.LVL44:
 514              		.loc 1 151 0
 515 0180 40F20000 		movw	r0, #:lower16:.LC16
 516 0184 C0F20000 		movt	r0, #:upper16:.LC16
 517 0188 FFF7FEFF 		bl	test_print
 518              	.LVL45:
 519              		.loc 1 152 0
 520 018c 2846     		mov	r0, r5
 521 018e FFF7FEFF 		bl	test_printn
 522              	.LVL46:
 523              		.loc 1 153 0
 524 0192 2046     		mov	r0, r4
 525 0194 FFF7FEFF 		bl	test_println
 526              	.LVL47:
 527              		.loc 1 154 0
 528 0198 40F20000 		movw	r0, #:lower16:.LC17
ARM GAS  /tmp/cc0Aowt3.s 			page 26


 529 019c C0F20000 		movt	r0, #:upper16:.LC17
 530 01a0 FFF7FEFF 		bl	test_print
 531              	.LVL48:
 532              		.loc 1 155 0
 533 01a4 2846     		mov	r0, r5
 534 01a6 FFF7FEFF 		bl	test_printn
 535              	.LVL49:
 536              		.loc 1 156 0
 537 01aa 2046     		mov	r0, r4
 538 01ac FFF7FEFF 		bl	test_println
 539              	.LVL50:
 540              		.loc 1 157 0
 541 01b0 40F20000 		movw	r0, #:lower16:.LC18
 542 01b4 C0F20000 		movt	r0, #:upper16:.LC18
 543 01b8 FFF7FEFF 		bl	test_print
 544              	.LVL51:
 545              		.loc 1 158 0
 546 01bc 2846     		mov	r0, r5
 547 01be FFF7FEFF 		bl	test_printn
 548              	.LVL52:
 549              		.loc 1 159 0
 550 01c2 2046     		mov	r0, r4
 551 01c4 FFF7FEFF 		bl	test_println
 552              	.LVL53:
 553              		.loc 1 160 0
 554 01c8 40F20000 		movw	r0, #:lower16:.LC19
 555 01cc C0F20000 		movt	r0, #:upper16:.LC19
 556 01d0 FFF7FEFF 		bl	test_print
 557              	.LVL54:
 558              		.loc 1 161 0
 559 01d4 2846     		mov	r0, r5
 560 01d6 FFF7FEFF 		bl	test_printn
 561              	.LVL55:
 562              		.loc 1 162 0
 563 01da 2046     		mov	r0, r4
 564 01dc FFF7FEFF 		bl	test_println
 565              	.LVL56:
 566              		.loc 1 163 0
 567 01e0 40F20000 		movw	r0, #:lower16:.LC20
 568 01e4 C0F20000 		movt	r0, #:upper16:.LC20
 569 01e8 FFF7FEFF 		bl	test_print
 570              	.LVL57:
 571              		.loc 1 164 0
 572 01ec 0020     		movs	r0, #0
 573 01ee FFF7FEFF 		bl	test_printn
 574              	.LVL58:
 575              		.loc 1 165 0
 576 01f2 2046     		mov	r0, r4
 577 01f4 FFF7FEFF 		bl	test_println
 578              	.LVL59:
 579              		.loc 1 166 0
 580 01f8 40F20000 		movw	r0, #:lower16:.LC21
 581 01fc C0F20000 		movt	r0, #:upper16:.LC21
 582 0200 FFF7FEFF 		bl	test_print
 583              	.LVL60:
 584              		.loc 1 167 0
 585 0204 2846     		mov	r0, r5
ARM GAS  /tmp/cc0Aowt3.s 			page 27


 586 0206 FFF7FEFF 		bl	test_printn
 587              	.LVL61:
 588              		.loc 1 168 0
 589 020a 2046     		mov	r0, r4
 590 020c FFF7FEFF 		bl	test_println
 591              	.LVL62:
 592              		.loc 1 169 0
 593 0210 40F20000 		movw	r0, #:lower16:.LC22
 594 0214 C0F20000 		movt	r0, #:upper16:.LC22
 595 0218 FFF7FEFF 		bl	test_print
 596              	.LVL63:
 597              		.loc 1 170 0
 598 021c 2846     		mov	r0, r5
 599 021e FFF7FEFF 		bl	test_printn
 600              	.LVL64:
 601              		.loc 1 171 0
 602 0222 2046     		mov	r0, r4
 603 0224 FFF7FEFF 		bl	test_println
 604              	.LVL65:
 605              		.loc 1 172 0
 606 0228 40F20000 		movw	r0, #:lower16:.LC23
 607 022c C0F20000 		movt	r0, #:upper16:.LC23
 608 0230 FFF7FEFF 		bl	test_print
 609              	.LVL66:
 610              		.loc 1 173 0
 611 0234 2846     		mov	r0, r5
 612 0236 FFF7FEFF 		bl	test_printn
 613              	.LVL67:
 614              		.loc 1 174 0
 615 023a 2046     		mov	r0, r4
 616 023c FFF7FEFF 		bl	test_println
 617              	.LVL68:
 618              		.loc 1 175 0
 619 0240 40F20000 		movw	r0, #:lower16:.LC24
 620 0244 C0F20000 		movt	r0, #:upper16:.LC24
 621 0248 FFF7FEFF 		bl	test_print
 622              	.LVL69:
 623              		.loc 1 176 0
 624 024c 2846     		mov	r0, r5
 625 024e FFF7FEFF 		bl	test_printn
 626              	.LVL70:
 627              		.loc 1 177 0
 628 0252 2046     		mov	r0, r4
 629 0254 FFF7FEFF 		bl	test_println
 630              	.LVL71:
 631              		.loc 1 178 0
 632 0258 40F20000 		movw	r0, #:lower16:.LC25
 633 025c C0F20000 		movt	r0, #:upper16:.LC25
 634 0260 FFF7FEFF 		bl	test_print
 635              	.LVL72:
 636              		.loc 1 179 0
 637 0264 2846     		mov	r0, r5
 638 0266 FFF7FEFF 		bl	test_printn
 639              	.LVL73:
 640              		.loc 1 180 0
 641 026a 2046     		mov	r0, r4
 642 026c FFF7FEFF 		bl	test_println
ARM GAS  /tmp/cc0Aowt3.s 			page 28


 643              	.LVL74:
 644              		.loc 1 181 0
 645 0270 40F20000 		movw	r0, #:lower16:.LC26
 646 0274 C0F20000 		movt	r0, #:upper16:.LC26
 647 0278 FFF7FEFF 		bl	test_print
 648              	.LVL75:
 649              		.loc 1 182 0
 650 027c 0020     		movs	r0, #0
 651 027e FFF7FEFF 		bl	test_printn
 652              	.LVL76:
 653              		.loc 1 183 0
 654 0282 2046     		mov	r0, r4
 655 0284 FFF7FEFF 		bl	test_println
 656              	.LVL77:
 657              		.loc 1 184 0
 658 0288 40F20000 		movw	r0, #:lower16:.LC27
 659 028c C0F20000 		movt	r0, #:upper16:.LC27
 660 0290 FFF7FEFF 		bl	test_print
 661              	.LVL78:
 662              		.loc 1 185 0
 663 0294 0020     		movs	r0, #0
 664 0296 FFF7FEFF 		bl	test_printn
 665              	.LVL79:
 666              		.loc 1 186 0
 667 029a 2046     		mov	r0, r4
 668 029c FFF7FEFF 		bl	test_println
 669              	.LVL80:
 670              		.loc 1 187 0
 671 02a0 40F20000 		movw	r0, #:lower16:.LC28
 672 02a4 C0F20000 		movt	r0, #:upper16:.LC28
 673 02a8 FFF7FEFF 		bl	test_print
 674              	.LVL81:
 675              		.loc 1 188 0
 676 02ac 0020     		movs	r0, #0
 677 02ae FFF7FEFF 		bl	test_printn
 678              	.LVL82:
 679              		.loc 1 189 0
 680 02b2 2046     		mov	r0, r4
 681 02b4 FFF7FEFF 		bl	test_println
 682              	.LVL83:
 683              		.loc 1 190 0
 684 02b8 40F20000 		movw	r0, #:lower16:.LC29
 685 02bc C0F20000 		movt	r0, #:upper16:.LC29
 686 02c0 FFF7FEFF 		bl	test_print
 687              	.LVL84:
 688              		.loc 1 191 0
 689 02c4 0020     		movs	r0, #0
 690 02c6 FFF7FEFF 		bl	test_printn
 691              	.LVL85:
 692              		.loc 1 192 0
 693 02ca 2046     		mov	r0, r4
 694 02cc FFF7FEFF 		bl	test_println
 695              	.LVL86:
 696              		.loc 1 193 0
 697 02d0 40F20000 		movw	r0, #:lower16:.LC30
 698 02d4 C0F20000 		movt	r0, #:upper16:.LC30
 699 02d8 FFF7FEFF 		bl	test_print
ARM GAS  /tmp/cc0Aowt3.s 			page 29


 700              	.LVL87:
 701              		.loc 1 194 0
 702 02dc FF20     		movs	r0, #255
 703 02de FFF7FEFF 		bl	test_printn
 704              	.LVL88:
 705              		.loc 1 195 0
 706 02e2 2046     		mov	r0, r4
 707 02e4 FFF7FEFF 		bl	test_println
 708              	.LVL89:
 709              		.loc 1 196 0
 710 02e8 40F20000 		movw	r0, #:lower16:.LC31
 711 02ec C0F20000 		movt	r0, #:upper16:.LC31
 712 02f0 FFF7FEFF 		bl	test_print
 713              	.LVL90:
 714              		.loc 1 197 0
 715 02f4 8020     		movs	r0, #128
 716 02f6 FFF7FEFF 		bl	test_printn
 717              	.LVL91:
 718              		.loc 1 198 0
 719 02fa 2046     		mov	r0, r4
 720 02fc FFF7FEFF 		bl	test_println
 721              	.LVL92:
 722              		.loc 1 199 0
 723 0300 40F20000 		movw	r0, #:lower16:.LC32
 724 0304 C0F20000 		movt	r0, #:upper16:.LC32
 725 0308 FFF7FEFF 		bl	test_print
 726              	.LVL93:
 727              		.loc 1 200 0
 728 030c 0020     		movs	r0, #0
 729 030e FFF7FEFF 		bl	test_printn
 730              	.LVL94:
 731              		.loc 1 201 0
 732 0312 2046     		mov	r0, r4
 733 0314 FFF7FEFF 		bl	test_println
 734              	.LVL95:
 735              		.loc 1 202 0
 736 0318 40F20000 		movw	r0, #:lower16:.LC33
 737 031c C0F20000 		movt	r0, #:upper16:.LC33
 738 0320 FFF7FEFF 		bl	test_print
 739              	.LVL96:
 740              		.loc 1 203 0
 741 0324 0020     		movs	r0, #0
 742 0326 FFF7FEFF 		bl	test_printn
 743              	.LVL97:
 744              		.loc 1 204 0
 745 032a 2046     		mov	r0, r4
 746 032c FFF7FEFF 		bl	test_println
 747              	.LVL98:
 748              		.loc 1 205 0
 749 0330 40F20000 		movw	r0, #:lower16:.LC34
 750 0334 C0F20000 		movt	r0, #:upper16:.LC34
 751 0338 FFF7FEFF 		bl	test_print
 752              	.LVL99:
 753              		.loc 1 206 0
 754 033c 0020     		movs	r0, #0
 755 033e FFF7FEFF 		bl	test_printn
 756              	.LVL100:
ARM GAS  /tmp/cc0Aowt3.s 			page 30


 757              		.loc 1 207 0
 758 0342 2046     		mov	r0, r4
 759              		.loc 1 209 0
 760 0344 BDE83840 		pop	{r3, r4, r5, lr}
 761              		.loc 1 207 0
 762 0348 FFF7FEBF 		b	test_println
 763              	.LVL101:
 764              		.cfi_endproc
 765              	.LFE220:
 766              		.size	test_001_002_execute, .-test_001_002_execute
 767 034c AFF30080 		.section	.text.test_001_001_execute,"ax",%progbits
 768              		.align	2
 769              		.p2align 4,,15
 770              		.thumb
 771              		.thumb_func
 772              		.type	test_001_001_execute, %function
 773              	test_001_001_execute:
 774              	.LFB219:
 775              		.loc 1 60 0
 776              		.cfi_startproc
 777              		@ args = 0, pretend = 0, frame = 0
 778              		@ frame_needed = 0, uses_anonymous_args = 0
 779 0000 38B5     		push	{r3, r4, r5, lr}
 780              		.cfi_def_cfa_offset 16
 781              		.cfi_offset 3, -16
 782              		.cfi_offset 4, -12
 783              		.cfi_offset 5, -8
 784              		.cfi_offset 14, -4
 785              		.loc 1 65 0
 786 0002 40F20000 		movw	r0, #:lower16:.LC35
 787              		.loc 1 63 0
 788 0006 40F20003 		movw	r3, #:lower16:test_step
 789 000a C0F20003 		movt	r3, #:upper16:test_step
 790 000e 0125     		movs	r5, #1
 791              		.loc 1 65 0
 792 0010 C0F20000 		movt	r0, #:upper16:.LC35
 793              		.loc 1 63 0
 794 0014 1D60     		str	r5, [r3]
 795              		.loc 1 65 0
 796 0016 FFF7FEFF 		bl	test_println
 797              	.LVL102:
 798              		.loc 1 66 0
 799 001a 40F20000 		movw	r0, #:lower16:.LC36
 800 001e C0F20000 		movt	r0, #:upper16:.LC36
 801              		.loc 1 68 0
 802 0022 40F20004 		movw	r4, #:lower16:.LC1
 803 0026 C0F20004 		movt	r4, #:upper16:.LC1
 804              		.loc 1 66 0
 805 002a FFF7FEFF 		bl	test_print
 806              	.LVL103:
 807              		.loc 1 67 0
 808 002e 2846     		mov	r0, r5
 809 0030 FFF7FEFF 		bl	test_printn
 810              	.LVL104:
 811              		.loc 1 68 0
 812 0034 2046     		mov	r0, r4
 813 0036 FFF7FEFF 		bl	test_println
ARM GAS  /tmp/cc0Aowt3.s 			page 31


 814              	.LVL105:
 815              		.loc 1 69 0
 816 003a 40F20000 		movw	r0, #:lower16:.LC37
 817 003e C0F20000 		movt	r0, #:upper16:.LC37
 818 0042 FFF7FEFF 		bl	test_print
 819              	.LVL106:
 820              		.loc 1 70 0
 821 0046 40F20000 		movw	r0, #:lower16:.LC38
 822 004a C0F20000 		movt	r0, #:upper16:.LC38
 823 004e FFF7FEFF 		bl	test_println
 824              	.LVL107:
 825              		.loc 1 71 0
 826 0052 40F20000 		movw	r0, #:lower16:.LC39
 827 0056 C0F20000 		movt	r0, #:upper16:.LC39
 828 005a FFF7FEFF 		bl	test_print
 829              	.LVL108:
 830              		.loc 1 72 0
 831 005e 0420     		movs	r0, #4
 832 0060 FFF7FEFF 		bl	test_printn
 833              	.LVL109:
 834              		.loc 1 73 0
 835 0064 2046     		mov	r0, r4
 836 0066 FFF7FEFF 		bl	test_println
 837              	.LVL110:
 838              		.loc 1 74 0
 839 006a 40F20000 		movw	r0, #:lower16:.LC40
 840 006e C0F20000 		movt	r0, #:upper16:.LC40
 841 0072 FFF7FEFF 		bl	test_print
 842              	.LVL111:
 843              		.loc 1 75 0
 844 0076 0020     		movs	r0, #0
 845 0078 FFF7FEFF 		bl	test_printn
 846              	.LVL112:
 847              		.loc 1 76 0
 848 007c 2046     		mov	r0, r4
 849 007e FFF7FEFF 		bl	test_println
 850              	.LVL113:
 851              		.loc 1 77 0
 852 0082 40F20000 		movw	r0, #:lower16:.LC41
 853 0086 C0F20000 		movt	r0, #:upper16:.LC41
 854 008a FFF7FEFF 		bl	test_print
 855              	.LVL114:
 856              		.loc 1 78 0
 857 008e 0220     		movs	r0, #2
 858 0090 FFF7FEFF 		bl	test_printn
 859              	.LVL115:
 860              		.loc 1 79 0
 861 0094 2046     		mov	r0, r4
 862              		.loc 1 81 0
 863 0096 BDE83840 		pop	{r3, r4, r5, lr}
 864              		.loc 1 79 0
 865 009a FFF7FEBF 		b	test_println
 866              	.LVL116:
 867              		.cfi_endproc
 868              	.LFE219:
 869              		.size	test_001_001_execute, .-test_001_001_execute
 870              		.global	test_sequence_001
ARM GAS  /tmp/cc0Aowt3.s 			page 32


 871 009e 00BF     		.section	.rodata.test_sequence_001,"a",%progbits
 872              		.align	2
 873              		.type	test_sequence_001, %object
 874              		.size	test_sequence_001, 12
 875              	test_sequence_001:
 876 0000 00000000 		.word	test_001_001
 877 0004 00000000 		.word	test_001_002
 878 0008 00000000 		.word	0
 879              		.section	.rodata.test_001_001,"a",%progbits
 880              		.align	2
 881              		.type	test_001_001, %object
 882              		.size	test_001_001, 16
 883              	test_001_001:
 884 0000 28050000 		.word	.LC43
 885 0004 00000000 		.word	0
 886 0008 00000000 		.word	0
 887 000c 00000000 		.word	test_001_001_execute
 888              		.section	.rodata.test_001_002,"a",%progbits
 889              		.align	2
 890              		.type	test_001_002, %object
 891              		.size	test_001_002, 16
 892              	test_001_002:
 893 0000 18050000 		.word	.LC42
 894 0004 00000000 		.word	0
 895 0008 00000000 		.word	0
 896 000c 00000000 		.word	test_001_002_execute
 897              		.section	.rodata.str1.4,"aMS",%progbits,1
 898              		.align	2
 899              	.LC0:
 900 0000 2D2D2D20 		.ascii	"--- CH_CFG_ST_RESOLUTION:      \000"
 900      43485F43 
 900      46475F53 
 900      545F5245 
 900      534F4C55 
 901              	.LC1:
 902 0020 00       		.ascii	"\000"
 903 0021 000000   		.space	3
 904              	.LC2:
 905 0024 2D2D2D20 		.ascii	"--- CH_CFG_ST_FREQUENCY:       \000"
 905      43485F43 
 905      46475F53 
 905      545F4652 
 905      45515545 
 906              	.LC3:
 907 0044 2D2D2D20 		.ascii	"--- CH_CFG_ST_TIMEDELTA:       \000"
 907      43485F43 
 907      46475F53 
 907      545F5449 
 907      4D454445 
 908              	.LC4:
 909 0064 2D2D2D20 		.ascii	"--- CH_CFG_TIME_QUANTUM:       \000"
 909      43485F43 
 909      46475F54 
 909      494D455F 
 909      5155414E 
 910              	.LC5:
 911 0084 2D2D2D20 		.ascii	"--- CH_CFG_MEMCORE_SIZE:       \000"
ARM GAS  /tmp/cc0Aowt3.s 			page 33


 911      43485F43 
 911      46475F4D 
 911      454D434F 
 911      52455F53 
 912              	.LC6:
 913 00a4 2D2D2D20 		.ascii	"--- CH_CFG_NO_IDLE_THREAD:     \000"
 913      43485F43 
 913      46475F4E 
 913      4F5F4944 
 913      4C455F54 
 914              	.LC7:
 915 00c4 2D2D2D20 		.ascii	"--- CH_CFG_OPTIMIZE_SPEED:     \000"
 915      43485F43 
 915      46475F4F 
 915      5054494D 
 915      495A455F 
 916              	.LC8:
 917 00e4 2D2D2D20 		.ascii	"--- CH_CFG_USE_TM:             \000"
 917      43485F43 
 917      46475F55 
 917      53455F54 
 917      4D3A2020 
 918              	.LC9:
 919 0104 2D2D2D20 		.ascii	"--- CH_CFG_USE_REGISTRY:       \000"
 919      43485F43 
 919      46475F55 
 919      53455F52 
 919      45474953 
 920              	.LC10:
 921 0124 2D2D2D20 		.ascii	"--- CH_CFG_USE_WAITEXIT:       \000"
 921      43485F43 
 921      46475F55 
 921      53455F57 
 921      41495445 
 922              	.LC11:
 923 0144 2D2D2D20 		.ascii	"--- CH_CFG_USE_SEMAPHORES:     \000"
 923      43485F43 
 923      46475F55 
 923      53455F53 
 923      454D4150 
 924              	.LC12:
 925 0164 2D2D2D20 		.ascii	"--- CH_CFG_USE_SEMAPHORES_PRI: \000"
 925      43485F43 
 925      46475F55 
 925      53455F53 
 925      454D4150 
 926              	.LC13:
 927 0184 2D2D2D20 		.ascii	"--- CH_CFG_USE_MUTEXES:        \000"
 927      43485F43 
 927      46475F55 
 927      53455F4D 
 927      55544558 
 928              	.LC14:
 929 01a4 2D2D2D20 		.ascii	"--- CH_CFG_USE_MUTEXES_RECURS: \000"
 929      43485F43 
 929      46475F55 
 929      53455F4D 
ARM GAS  /tmp/cc0Aowt3.s 			page 34


 929      55544558 
 930              	.LC15:
 931 01c4 2D2D2D20 		.ascii	"--- CH_CFG_USE_CONDVARS:       \000"
 931      43485F43 
 931      46475F55 
 931      53455F43 
 931      4F4E4456 
 932              	.LC16:
 933 01e4 2D2D2D20 		.ascii	"--- CH_CFG_USE_CONDVARS_TIMEO: \000"
 933      43485F43 
 933      46475F55 
 933      53455F43 
 933      4F4E4456 
 934              	.LC17:
 935 0204 2D2D2D20 		.ascii	"--- CH_CFG_USE_EVENTS:         \000"
 935      43485F43 
 935      46475F55 
 935      53455F45 
 935      56454E54 
 936              	.LC18:
 937 0224 2D2D2D20 		.ascii	"--- CH_CFG_USE_EVENTS_TIMEOUT: \000"
 937      43485F43 
 937      46475F55 
 937      53455F45 
 937      56454E54 
 938              	.LC19:
 939 0244 2D2D2D20 		.ascii	"--- CH_CFG_USE_MESSAGES:       \000"
 939      43485F43 
 939      46475F55 
 939      53455F4D 
 939      45535341 
 940              	.LC20:
 941 0264 2D2D2D20 		.ascii	"--- CH_CFG_USE_MESSAGES_PRI:   \000"
 941      43485F43 
 941      46475F55 
 941      53455F4D 
 941      45535341 
 942              	.LC21:
 943 0284 2D2D2D20 		.ascii	"--- CH_CFG_USE_MAILBOXES:      \000"
 943      43485F43 
 943      46475F55 
 943      53455F4D 
 943      41494C42 
 944              	.LC22:
 945 02a4 2D2D2D20 		.ascii	"--- CH_CFG_USE_MEMCORE:        \000"
 945      43485F43 
 945      46475F55 
 945      53455F4D 
 945      454D434F 
 946              	.LC23:
 947 02c4 2D2D2D20 		.ascii	"--- CH_CFG_USE_HEAP:           \000"
 947      43485F43 
 947      46475F55 
 947      53455F48 
 947      4541503A 
 948              	.LC24:
 949 02e4 2D2D2D20 		.ascii	"--- CH_CFG_USE_MEMPOOLS:       \000"
ARM GAS  /tmp/cc0Aowt3.s 			page 35


 949      43485F43 
 949      46475F55 
 949      53455F4D 
 949      454D504F 
 950              	.LC25:
 951 0304 2D2D2D20 		.ascii	"--- CH_CFG_USE_DYNAMIC:        \000"
 951      43485F43 
 951      46475F55 
 951      53455F44 
 951      594E414D 
 952              	.LC26:
 953 0324 2D2D2D20 		.ascii	"--- CH_DBG_STATISTICS:         \000"
 953      43485F44 
 953      42475F53 
 953      54415449 
 953      53544943 
 954              	.LC27:
 955 0344 2D2D2D20 		.ascii	"--- CH_DBG_SYSTEM_STATE_CHECK: \000"
 955      43485F44 
 955      42475F53 
 955      59535445 
 955      4D5F5354 
 956              	.LC28:
 957 0364 2D2D2D20 		.ascii	"--- CH_DBG_ENABLE_CHECKS:      \000"
 957      43485F44 
 957      42475F45 
 957      4E41424C 
 957      455F4348 
 958              	.LC29:
 959 0384 2D2D2D20 		.ascii	"--- CH_DBG_ENABLE_ASSERTS:     \000"
 959      43485F44 
 959      42475F45 
 959      4E41424C 
 959      455F4153 
 960              	.LC30:
 961 03a4 2D2D2D20 		.ascii	"--- CH_DBG_TRACE_MASK:         \000"
 961      43485F44 
 961      42475F54 
 961      52414345 
 961      5F4D4153 
 962              	.LC31:
 963 03c4 2D2D2D20 		.ascii	"--- CH_DBG_TRACE_BUFFER_SIZE:  \000"
 963      43485F44 
 963      42475F54 
 963      52414345 
 963      5F425546 
 964              	.LC32:
 965 03e4 2D2D2D20 		.ascii	"--- CH_DBG_ENABLE_STACK_CHECK: \000"
 965      43485F44 
 965      42475F45 
 965      4E41424C 
 965      455F5354 
 966              	.LC33:
 967 0404 2D2D2D20 		.ascii	"--- CH_DBG_FILL_THREADS:       \000"
 967      43485F44 
 967      42475F46 
 967      494C4C5F 
ARM GAS  /tmp/cc0Aowt3.s 			page 36


 967      54485245 
 968              	.LC34:
 969 0424 2D2D2D20 		.ascii	"--- CH_DBG_THREADS_PROFILING:  \000"
 969      43485F44 
 969      42475F54 
 969      48524541 
 969      44535F50 
 970              	.LC35:
 971 0444 2D2D2D20 		.ascii	"--- Product:                   ChibiOS/RT\000"
 971      50726F64 
 971      7563743A 
 971      20202020 
 971      20202020 
 972 046e 0000     		.space	2
 973              	.LC36:
 974 0470 2D2D2D20 		.ascii	"--- Stable Flag:               \000"
 974      53746162 
 974      6C652046 
 974      6C61673A 
 974      20202020 
 975              	.LC37:
 976 0490 2D2D2D20 		.ascii	"--- Version String:            \000"
 976      56657273 
 976      696F6E20 
 976      53747269 
 976      6E673A20 
 977              	.LC38:
 978 04b0 342E302E 		.ascii	"4.0.2\000"
 978      3200
 979 04b6 0000     		.space	2
 980              	.LC39:
 981 04b8 2D2D2D20 		.ascii	"--- Major Number:              \000"
 981      4D616A6F 
 981      72204E75 
 981      6D626572 
 981      3A202020 
 982              	.LC40:
 983 04d8 2D2D2D20 		.ascii	"--- Minor Number:              \000"
 983      4D696E6F 
 983      72204E75 
 983      6D626572 
 983      3A202020 
 984              	.LC41:
 985 04f8 2D2D2D20 		.ascii	"--- Patch Number:              \000"
 985      50617463 
 985      68204E75 
 985      6D626572 
 985      3A202020 
 986              	.LC42:
 987 0518 4B65726E 		.ascii	"Kernel Settings\000"
 987      656C2053 
 987      65747469 
 987      6E677300 
 988              	.LC43:
 989 0528 4B65726E 		.ascii	"Kernel Info\000"
 989      656C2049 
 989      6E666F00 
ARM GAS  /tmp/cc0Aowt3.s 			page 37


 990              		.text
 991              	.Letext0:
 992              		.file 2 "/usr/lib/gcc/arm-none-eabi/4.8.2/include/stddef.h"
 993              		.file 3 "/usr/include/newlib/machine/_default_types.h"
 994              		.file 4 "/usr/include/newlib/stdint.h"
 995              		.file 5 "../os/common/ports/ARMCMx/compilers/GCC/chtypes.h"
 996              		.file 6 "../os/rt/include/chsystypes.h"
 997              		.file 7 "../os/rt/include/chschd.h"
 998              		.file 8 "../os/common/ports/ARMCMx/chcore.h"
 999              		.file 9 "../os/common/ports/ARMCMx/chcore_v7m.h"
 1000              		.file 10 "../os/rt/include/chsem.h"
 1001              		.file 11 "../os/rt/include/chmtx.h"
 1002              		.file 12 "../test/lib/ch_test.h"
 1003              		.file 13 "../os/common/ext/CMSIS/include/core_cm3.h"