ARM GAS  /tmp/cc6dBTT4.s 			page 1


   1              		.syntax unified
   2              		.cpu cortex-m3
   3              		.fpu softvfp
   4              		.eabi_attribute 20, 1
   5              		.eabi_attribute 21, 1
   6              		.eabi_attribute 23, 3
   7              		.eabi_attribute 24, 1
   8              		.eabi_attribute 25, 1
   9              		.eabi_attribute 26, 1
  10              		.eabi_attribute 30, 2
  11              		.eabi_attribute 34, 1
  12              		.eabi_attribute 18, 4
  13              		.thumb
  14              		.file	"chdynamic.c"
  15              		.text
  16              	.Ltext0:
  17              		.section	.gnu.lto_.jmpfuncs.9a564325d580dd3e,"",%progbits
  18 0000 789C6362 		.ascii	"x\234cb`b\300\006\"\2404\023\203=\023\003#c\007S\004"
  18      6062C006 
  18      22A03413 
  18      833D1303 
  18      23630753 
  19 0015 63262303 		.ascii	"c&#\003#\003\230f\004J\000133\220.cd\000R\214e\014\020"
  19      23039866 
  19      044A0031 
  19      3333902E 
  19      63640052 
  20 002d 29260E20 		.ascii	")&\016 G\036I\013\023\212\026F\250\026\006\000f\372"
  20      471E490B 
  20      138A1646 
  20      A8160600 
  20      66FA
  21 003f 0732     		.ascii	"\0072"
  22              		.text
  23              		.section	.gnu.lto_.inline.9a564325d580dd3e,"",%progbits
  24 0000 789C6362 		.ascii	"x\234cb`b\300\006\302\2414\023\203\204\224\021#\003"
  24      6062C006 
  24      C2A13413 
  24      83849411 
  24      2303
  25 0012 93C48A2D 		.ascii	"\223\304\212-\214\014l\013\344\301\252\231y\200\022"
  25      8C0C6C0B 
  25      E4C1AA99 
  25      798012
  26 0021 13FCC034 		.ascii	"\023\374\3004#\003+\037Pd\202\037\220\317\010Q+}\355"
  26      23032B1F 
  26      5064821F 
  26      90CF0851 
  26      2B7DED
  27 0034 142303FB 		.ascii	"\024#\003\373-5,j\301$\220\007\000\372L\012\354"
  27      2D352C6A 
  27      C1249007 
  27      00FA4C0A 
  27      EC
  28              		.text
  29              		.section	.gnu.lto_.pureconst.9a564325d580dd3e,"",%progbits
  30 0000 789C6362 		.ascii	"x\234cb`b`e\200\000&\006+F+\000\001\206\000\201"
ARM GAS  /tmp/cc6dBTT4.s 			page 2


  30      60626065 
  30      80002606 
  30      2B462B00 
  30      01860081 
  31              		.text
  32              		.section	.gnu.lto_chThdCreateFromHeap.9a564325d580dd3e,"",%progbits
  33 0000 789C8D54 		.ascii	"x\234\215T_H\034G\030\377\276\231]\357\232\323\250m"
  33      5F481C47 
  33      18FFBE99 
  33      5DEF9AD3 
  33      A86D
  34 0012 6CFE10F4 		.ascii	"l\376\020\364\020\204\2246nK\013ym\361I\202/1B\233\027"
  34      10849436 
  34      6E4B0B79 
  34      6DF14982 
  34      2F31429B 
  35 0027 59C74317 		.ascii	"Y\307C\027r\236\334^\022%\204LO+\226\226\"B\310\037"
  35      729EDC5E 
  35      1225844C 
  35      4F2B9696 
  35      2242C81F 
  36 003b 09890413 		.ascii	"\011\211\004\023\222\006,)m\365\241d\363\0071&\032\322"
  36      92062C29 
  36      6DF5A164 
  36      F3073126 
  36      1AD2
  37 004d A7F621F4 		.ascii	"\247\366!\364\300\207\246\025\032\202\205\206$\324~"
  37      C087A615 
  37      1A828586 
  37      24D47E
  38 005c B3B3BB9E 		.ascii	"\263\263\273\236\307Q\273z3;3\277\337|\277\375}\337"
  38      C751BB7A 
  38      333B33BF 
  38      DF7CBFFD 
  38      7DDF
  39 006e 0C0306A5 		.ascii	"\014\003\006\245\317\373\364\0331\001\026\251G\023\220"
  39      CFFBF41B 
  39      310116A9 
  39      471390
  40 007d 8D2D017C 		.ascii	"\215-\001|\032g\314X\340 \267\360\271\005\000Y\311\321"
  40      1A67CC58 
  40      E020B7F0 
  40      B9050059 
  40      C9D1
  41 008f D0F306A2 		.ascii	"\320\363\006\242z\001\204\223\214\033x\362\023T\233"
  41      7A018493 
  41      8C1B78F2 
  41      13549B
  42 009e F0469894 		.ascii	"\360F\230\224r\2740\265\362\004\317Jo\370\242|\265\266"
  42      72BC30B5 
  42      F204CF4A 
  42      6FF8A27C 
  42      B5B6
  43 00b0 86E82005 		.ascii	"\206\350 \005lD\020\010\037\323\000\223~\307\214\215"
  43      6C441008 
  43      1FD30093 
  43      7EC78C8D 
ARM GAS  /tmp/cc6dBTT4.s 			page 3


  44 00c0 0A34D77B 		.ascii	"\0124\327{<\367\345Ny1?&\377!\252\203\234A\323\377a"
  44      3CF7E54E 
  44      79313F26 
  44      FF21AA83 
  44      9C41D3FF 
  45 00d5 7A63DECB 		.ascii	"zc\336\313\271\323X\3044\030\274\265\316\364t\317vl"
  45      B9D358C4 
  45      3418BCB5 
  45      CEF474CF 
  45      766C
  46 00e7 A44E33AF 		.ascii	"\244N3\257\260\266\366\340\273\231\345\025\254\335\215"
  46      B0B6F6E0 
  46      BB99E515 
  46      ACDD8D
  47 00f6 40520D4C 		.ascii	"@R\015L#\230\324`\014l\274\204\215\020\247\001K\320"
  47      2398D460 
  47      0C6CBC84 
  47      8D10A701 
  47      4BD0
  48 0108 9A59456F 		.ascii	"\232YEo\274\232\032\243\226\032\263\216\000\223\004"
  48      BC9A1AA3 
  48      961AB38E 
  48      009304
  49 0117 A0C78461 		.ascii	"\240\307\204a)\307\222z\254i6N\371k\302\367\346 \265"
  49      29C7927A 
  49      AC69364E 
  49      F96BC2F7 
  49      E620B5
  50 012a CAB20E64 		.ascii	"\312\262\016d\252\347\017a\2440\263\2146^!\273{0v\034"
  50      AAE70F61 
  50      A430B38C 
  50      365E21BB 
  50      7B30761C 
  51 013e 5EC85159 		.ascii	"^\310QY\343`\205@\237@\223F\017\232Ju,N\301\343\000"
  51      E3608540 
  51      9F409346 
  51      0F9A4A75 
  51      2C4EC1E3 
  52 0153 F78069BC 		.ascii	"\367\200i\274\016@,\200y\270\373\333\255\325\021\036"
  52      0E402C80 
  52      79B8FBDB 
  52      ADD5111E 
  53 0163 6DA408BC 		.ascii	"m\244\010\274\370\033;hH\351\343\213\220\277?\363\364"
  53      F81B3B68 
  53      48E9E38B 
  53      90BF3FF3 
  53      F4
  54 0174 79B0C5DB 		.ascii	"y\260\305\333pMJ\025\3575\255\263K\007\245\035\342\252"
  54      704D4A15 
  54      EF35ADB3 
  54      4B07A51D 
  54      E2AA
  55 0186 0AF2AD25 		.ascii	"\012\362\255%03\204\205\342b\0126\364\305\320\245\257"
  55      30338485 
  55      E2620A36 
  55      F4C5D0A5 
  55      AF
ARM GAS  /tmp/cc6dBTT4.s 			page 4


  56 0197 CC307682 		.ascii	"\3140v\202fI\262\317\277W&T\264\007\013\366H\370\320"
  56      6649B2CF 
  56      BF572654 
  56      B4070BF6 
  56      48F8D0
  57 01aa FD25B02D 		.ascii	"\375%\260-!\214\007\260\252\262\260D\0103\002XuY\030"
  57      218C07B0 
  57      AAB2B044 
  57      08330258 
  57      755918
  58 01bd 0F616600 		.ascii	"\017af\000\253UF\346\343a\305\025f\257.\336\302\361"
  58      AB5546E6 
  58      E361C515 
  58      66AF2EDE 
  58      C2F1
  59 01cf 21392F87 		.ascii	"!9/\207=\252\234\006\007+\031\034\332\254\350\324\\"
  59      3DAA9C06 
  59      072B191C 
  59      DAACE8D4 
  59      5C
  60 01e0 65925E96 		.ascii	"e\222^\226 \377l~\350\362\256\240\002\302R\360V\177"
  60      20FF6C7E 
  60      E8F2AEA0 
  60      02C252F0 
  60      567F
  61 01f2 9AE07B6C 		.ascii	"\232\340{l\234\366k \230\373\372\324\363\304\356h\364"
  61      9CF66B20 
  61      98FBFAD4 
  61      F3C4EE68 
  61      F4
  62 0203 F99FE4A5 		.ascii	"\371\237\344\245V+\310\022A\337+\364\307 \375\335\240"
  62      562BC812 
  62      41DF2BF4 
  62      C720FDDD 
  62      A0
  63 0214 21F9C4F5 		.ascii	"!\371\304\365a\255\207;x^\236\371\320Qf\024E__\237\013"
  63      61AD873B 
  63      785E9EF9 
  63      D0516614 
  63      455F5F9F 
  64 0229 D6B76A7D 		.ascii	"\326\267j}\017a\270\360\370NT_uQ}U\213\300\0115C\317"
  64      0F61B8F0 
  64      F84E545F 
  64      75517D55 
  64      8BC00935 
  65 023f 09076BB4 		.ascii	"\011\007k\264E\032K\245\246\035\362*\302b\233\364\213"
  65      451A4BA5 
  65      A61DF22A 
  65      C2629BF4 
  65      8B
  66 0250 ADCEB777 		.ascii	"\255\316\267w\346\347\277\237`\261\3052\341\340\353"
  66      E6E7BF9F 
  66      60B1C532 
  66      E1E0EB
  67 025f 13708E14 		.ascii	"\023p\216\024\275A \245L+\350\302\212\310\251m\350K"
  67      BD4120A5 
  67      4C2BE8C2 
ARM GAS  /tmp/cc6dBTT4.s 			page 5


  67      8AC8A96D 
  67      E84B
  68 0271 FAACF0EB 		.ascii	"\372\254\360\353r,\010\003\221\242:\021 \003\372\233"
  68      722C0803 
  68      91A23A11 
  68      2003FA9B 
  69 0281 4AC3F6D2 		.ascii	"J\303\366\322,\375\276T\232%\033\277\361m\3334M\360"
  69      2CFDBE54 
  69      9A251BBF 
  69      F16DDB34 
  69      4DF0
  70 0293 5F69FAE3 		.ascii	"_i\372\343\274J\323\315\215i\272PU\037\235\351\365|"
  70      BC4AD3CD 
  70      8D69BA50 
  70      551F9DE9 
  70      F57C
  71 02a5 FD5594AF 		.ascii	"\375U\224\257\030\370G;^&e6~O/Q\3440E6\316b}\361\261"
  71      18F8473B 
  71      5E266536 
  71      7E4F2F51 
  71      E4304536 
  72 02be 34FC8B60 		.ascii	"4\374\213`\021n\257D\307Z\245\341\003\370V\216\252\013"
  72      116EAF44 
  72      C75AA5E1 
  72      03F8568E 
  72      AA0B
  73 02d0 8C408FE8 		.ascii	"\214@\217\350\256U\276\370\226\376\002\030\270\313\256"
  73      AE55BEF8 
  73      96FE0218 
  73      B8CBAE
  74 02df FFB08DCC 		.ascii	"\377\260\215\314\342\327\177\254T7\013\252\215T\214"
  74      E2D77FAC 
  74      54370BAA 
  74      8D548C
  75 02ee 86E6664B 		.ascii	"\206\346fK\377g\\+\233\263\334\254\260Do\367`\237\235"
  75      FF675C2B 
  75      9BB3DCAC 
  75      B0446FF7 
  75      609F9D
  76 0301 7644B300 		.ascii	"vD\263\000\226\353\347\307\334~\226\353\336[\214\024"
  76      96EBE7C7 
  76      DC7E96EB 
  76      DE5B8C14 
  77 0311 99743AD3 		.ascii	"\231t:\323g\365g\2629\327\372\350@[K\333\000\321D&\233"
  77      67F567B2 
  77      39D7FAE8 
  77      405B4BDB 
  77      00D14426 
  78 0326 EA3CBA2F 		.ascii	"\352<\272/\335\334\013\346Q\373\360\221\324{e8\251\201"
  78      DDDC0BE6 
  78      51FBF091 
  78      D47B6538 
  78      A981
  79 0338 9CD5D2D6 		.ascii	"\234\325\322\326\336\332n9}\342\360\221\356\224%\322"
  79      DEDA6E39 
  79      7DE2F091 
  79      EE9425D2 
ARM GAS  /tmp/cc6dBTT4.s 			page 6


  80 0348 AEE376F6 		.ascii	"\256\343v\366\010A\274R=\021\246\327\035ti\275\246\255"
  80      0841BC52 
  80      3D11A6D7 
  80      1D7469BD 
  80      A6AD
  81 035a FD40B2CB 		.ascii	"\375@\262\313vS\375Y\347\235d\323\273\300\262\020K\247"
  81      7653FD59 
  81      E79D64D3 
  81      BBC0B210 
  81      4BA7
  82 036c D299EC20 		.ascii	"\322\231\354 \374\013\033\373\201\356"
  82      FC0B1BFB 
  82      81EE
  83              		.text
  84              		.section	.gnu.lto_chThdCreateFromMemoryPool.9a564325d580dd3e,"",%progbits
  85 0000 789C8D54 		.ascii	"x\234\215T[hTG\030\376\377\231\263\2731\2334\211\032"
  85      5B685447 
  85      18FEFF99 
  85      B3BB319B 
  85      34891A
  86 0013 ABD2C625 		.ascii	"\253\322\306% \324\2529\212\202\257\026\237D\362b\024"
  86      20D4AA39 
  86      8A82AF16 
  86      9F44F262 
  86      14
  87 0024 DABEC8C9 		.ascii	"\332\276\310\311d1\007<\331\260g\275\004\021\307M\004"
  87      6431073C 
  87      D9B067BD 
  87      0411C74D 
  87      04
  88 0035 6F0F4110 		.ascii	"o\017A\020o\210\006Q\321J\245\351CS\332\207\343\225"
  88      6F880651 
  88      D14AA5E9 
  88      4353DA87 
  88      E395
  89 0047 24BA1185 		.ascii	"$\272\021\205\242\021\204}\0115-\024\252>x\303\370\317"
  89      A211847D 
  89      09352D14 
  89      AA3E78C3 
  89      F8CF
  90 0059 9C8B9B75 		.ascii	"\234\213\233uQO\2623gf\276o\376o\276\377?\303\200A\371"
  90      514FB233 
  90      6766BE6F 
  90      FE6FBEFF 
  90      3FC38041 
  91 006e B3827E4F 		.ascii	"\263\202~Oc\000\005\3521\006\310\372\307\000\366T1f"
  91      630005EA 
  91      3106C8FA 
  91      C700F654 
  91      3166
  92 0080 8C7290D5 		.ascii	"\214r\220\325\374\326(\200\254\341h\370\363\006\242"
  92      FCD62880 
  92      ACE168F8 
  92      F306A2
  93 008f 7A0184DD 		.ascii	"z\001\204\335\214\033\270\373\007T\233\360f\030\220"
  93      8C1BB8FB 
  93      07549BF0 
ARM GAS  /tmp/cc6dBTT4.s 			page 7


  93      661890
  94 009e F27071E2 		.ascii	"\362pq\342\322$\036\227^\337\031\371fj\012\321F\012"
  94      D2241E97 
  94      5EDF19F9 
  94      666A0AD1 
  94      460A
  95 00b0 D88C2010 		.ascii	"\330\214 \020\276\247\001\246t\307\214\351\012|\256"
  95      BEA701A6 
  95      74C78CE9 
  95      0A7CAE
  96 00bf 373E7A68 		.ascii	"7>zh\236<\223\357\227o\211j#g\260\360s\230^\277\367"
  96      9E3C93EF 
  96      976F896A 
  96      2367B0F0 
  96      73985EBF 
  97 00d4 7AF42896 		.ascii	"z\364(\2260\015\006\213\3363=\277gs\247S\2570\25785"
  97      300D068B 
  97      DE333DBF 
  97      6773A753 
  97      AF30AF38 
  98 00e9 75F9AF27 		.ascii	"u\371\257'\207\356\340\317\354k\004\322j\240\203\020"
  98      87EEE0CF 
  98      EC6B04D2 
  98      6AA08310 
  99 00f9 070BCF62 		.ascii	"\007\013\317b3$h\200\3254\035KR\023\257\245!\253\243"
  99      33246880 
  99      D5341D4B 
  99      5213AFA5 
  99      21ABA3
 100 010c 86375063 		.ascii	"\2067Pc4\022j\200P\364\304\240O\312\376\224?\366\271"
 100      34126A80 
 100      50F4C4A0 
 100      4FCAFE94 
 100      3FF6B9
 101 011f 0EC62C3C 		.ascii	"\016\306,<\247\227\205\366g\003\265\312\266\215\310"
 101      A79785F6 
 101      6703B5CA 
 101      B68DC8
 102 012e 54CFEF42 		.ascii	"T\317\357B_qh\002-\274@\226o\306\370Nx%\367\311z\033"
 102      5F716802 
 102      2DBC4096 
 102      6FC6F84E 
 102      7825F7C9 
 103 0144 13023581 		.ascii	"\023\0025\201&\015\033\253\000F\200\371(\177g\302\002"
 103      260D1BAB 
 103      004680F9 
 103      287F67C2 
 103      02
 104 0155 0CC38DBF 		.ascii	"\014\303\215\277\257>;\300#\272: /=\335F\032R\342x\001"
 104      AF3E3BC0 
 104      23BA3A20 
 104      2F3DDD46 
 104      1A52E278 
 105 016a F2B787AE 		.ascii	"\362\267\207\256\274\014\266X\014\227\244TQf\370\352"
 105      BC0CB658 
 105      0C97A454 
 105      5166F8EA 
ARM GAS  /tmp/cc6dBTT4.s 			page 8


 106 017a DAFD50B4 		.ascii	"\332\375P\264CB\345?\277\266\014\026\017a\241\244\270"
 106      4342E53F 
 106      BFB60C16 
 106      0F61A1A4 
 106      B8
 107 018b 863D3A36 		.ascii	"\206=:68n\204\261\253\027\303\2676V\237\204\023{\210"
 107      386E84B1 
 107      AB17C3B7 
 107      36569F84 
 107      137B88
 108 019e 749A8424 		.ascii	"t\232\204$I\272\022T\243I\355\030\226\\\001z\017\366"
 108      49BA1254 
 108      A349ED18 
 108      965C017A 
 108      0FF6
 109 01b0 CE097984 		.ascii	"\316\011y\204\212\023[o8RAb\024\233\007\261\223\032"
 109      8A135B6F 
 109      38524162 
 109      149B07B1 
 109      931A
 110 01c2 BAAE0C56 		.ascii	"\272\256\014V\033\302\214\000V[\021\366E\010\213\005"
 110      1BC28C00 
 110      565B11F6 
 110      45088B05 
 111 01d2 B0BA8A30 		.ascii	"\260\272\2120\036\302\342\001\254A% _\025\326h\361\367"
 111      1EC2E201 
 111      AC412520 
 111      5F15D668 
 111      F1F7
 112 01e4 8B85AB78 		.ascii	"\213\205\253x\270W\016\313>\217jm\201\215u\014~\374"
 112      B8570ECB 
 112      3E8F6A6D 
 112      818D750C 
 112      7EFC
 113 01f6 5499AAB9 		.ascii	"T\231\252\271\272\024\275\214A\376\377\341\336\363\363"
 113      BA14BD8C 
 113      41FEFFE1 
 113      DEF3F3
 114 0205 8392096B 		.ascii	"\203\222\011k\307{v\377$\377\306\302_t\305\004s?\035"
 114      C77B76FF 
 114      24FFC6C2 
 114      5F74C504 
 114      733F1D
 115 0218 7991FC2A 		.ascii	"y\221\374*\032\355\377\217l\364\325\012rT\220-\302?"
 115      1AEDFF8F 
 115      6CF4D50A 
 115      7254902D 
 115      C23F
 116 022a 33D2DF20 		.ascii	"3\322\337 \015i\235\373\237w\023\\\307S\362\330j\033"
 116      0D699DFB 
 116      9F77135C 
 116      C753F2D8 
 116      6A1B
 117 023c EBA7457F 		.ascii	"\353\247E\177\277~+Xo\360\365\251j||3\252\306\306\250"
 117      BF7E2B58 
 117      6FF0F5A9 
 117      6A7C7C33 
ARM GAS  /tmp/cc6dBTT4.s 			page 9


 117      AAC6C6A8 
 118 0250 1A678AC0 		.ascii	"\032g\212\30005C\317.\033g\371\026\371X\3720fk\207\274"
 118      303543CF 
 118      2E1B67F9 
 118      16F958FA 
 118      30666B87 
 119 0265 7858A403 		.ascii	"xX\244\003\272H\033\265\275C\017\177\233\304R\213e\322"
 119      BA481BB5 
 119      BD430F7F 
 119      9BC4528B 
 119      65D2
 120 0277 C6462A15 		.ascii	"\306F*\025R4\207@J\031\004U\222\210\234\372\222\351"
 120      52348740 
 120      4A190455 
 120      92889CFA 
 120      92E9
 121 0289 62C9DF7E 		.ascii	"b\311\337~Q\201\315+\263\253\302oF\035fo\361\311D\""
 121      5181CD2B 
 121      B3ABC26F 
 121      461D666F 
 121      F1C94422 
 122 029d 1008D159 		.ascii	"\020\010\321Y\346\212(\253\232:O\251\237_\236\337\311"
 122      E68A28AB 
 122      9A3A4FA9 
 122      9F5F9EDF 
 122      C9
 123 02ae B1F2FC5A 		.ascii	"\261\362\374Z8\250\015\377d\202\341c\011\376\347\224"
 123      38A80DFF 
 123      6482E163 
 123      09FEE794 
 124 02be 4AF0F5E9 		.ascii	"J\360\365\351\011>]\333\024]\037\321\364\310\363\222"
 124      093E5DDB 
 124      145D1FD1 
 124      F4C8F392 
 125 02ce 4C6B5704 		.ascii	"LkW\004\035\357\303d[8D/Q\3440\271\026\376\201M\245"
 125      1DEFC364 
 125      5B38442F 
 125      51E430B9 
 125      16FE814D 
 126 02e3 1781A12F 		.ascii	"\027\201\241/\234\002\\\3737\272HT\002W\302\257r\237"
 126      9C025CFB 
 126      37BA4854 
 126      0257C2AF 
 126      729F
 127 02f5 BA2C0974 		.ascii	"\272,\011t\217\356u\345\213\266s\0340p\226]~0\233\314"
 127      8FEE75E5 
 127      8BB6731C 
 127      3070965D 
 127      7E309BCC 
 128 0309 E27F3EAE 		.ascii	"\342\177>\256Q7\030\252\215T\214\005--\246\377\237q"
 128      513718AA 
 128      8D548C05 
 128      2D2DA6FF 
 128      9F71
 129 031b CD6CCE74 		.ascii	"\315l\316t\263\302\024\235\035=]\226c\213\026\001,\327"
 129      B3C2149D 
 129      1D3D5D96 
ARM GAS  /tmp/cc6dBTT4.s 			page 10


 129      638B1601 
 129      2CD7
 130 032d CDB7BBDD 		.ascii	"\315\267\273\335,\327\261\264\024)2\216\223\3512\273"
 130      2CD7B1B4 
 130      1429328E 
 130      93E932BB 
 131 033d 33D99C6B 		.ascii	"3\331\234k~\267\276uM\353\016\242\211L6\275i\333*\247"
 131      7EB7BE75 
 131      4DEB0EA2 
 131      894C36BD 
 131      69DB2AA7 
 132 0351 A51362DB 		.ascii	"\245\023b\333\254-[\323\313+p\322;r\346\232\326\266"
 132      AC2D5BD3 
 132      CB2B70D2 
 132      3B72E69A 
 132      D6B6
 133 0363 B56DA6DD 		.ascii	"\265m\246\335%\266l\355H\233\302qmw\323f!\210W\256'"
 133      25B66CED 
 133      489BC271 
 133      6D77D366 
 133      218857AE 
 134 0378 C274BA3D 		.ascii	"\302t\272=.\255\327\267\266\255O\265[n\272;k/I-\\\006"
 134      2EADD7B7 
 134      B6AD4FB5 
 134      5B6EBA3B 
 134      6B2F492D 
 135 038e 2C0B0927 		.ascii	",\013\011'\355d\262=\360\016\241+\232_"
 135      ED64B23D 
 135      F00EA12B 
 135      9A5F
 136              		.text
 137              		.section	.gnu.lto_.symbol_nodes.9a564325d580dd3e,"",%progbits
 138 0000 789C45CD 		.ascii	"x\234E\315\273\015\2000\014\004\320;;\254\301\252\216"
 138      BB0D8030 
 138      0C04D03B 
 138      3BACC1AA 
 138      8E
 139 0011 940244C5 		.ascii	"\224\002D\305\0044Y\203\237\030\200\031\220\230\003"
 139      04345983 
 139      9F188019 
 139      909803
 140 0020 44F888B8 		.ascii	"D\370\210\2709\275\273\302\002A\215\357\244\247\001"
 140      39BDBBC2 
 140      02418DEF 
 140      A4A701
 141 002f ED0A9875 		.ascii	"\355\012\230u5e\2401\2233M^zON4\315\032i.k\241\025\277"
 141      3565A031 
 141      93334D5E 
 141      7A4F4E34 
 141      CD1A692E 
 142 0047 140E613B 		.ascii	"\024\016a;S*Bu\224\232^\356w\262x\373\264\304\307\202"
 142      532A4275 
 142      949A5EEE 
 142      77B278FB 
 142      B4C4C782 
 143 005b D81C252E 		.ascii	"\330\034%.\024((\275"
 143      142828BD 
ARM GAS  /tmp/cc6dBTT4.s 			page 11


 144              		.text
 145              		.section	.gnu.lto_.refs.9a564325d580dd3e,"",%progbits
 146 0000 789C6362 		.ascii	"x\234cb`b`d\200\002\000\000F\000\006"
 146      60626064 
 146      80020000 
 146      460006
 147              		.text
 148              		.section	.gnu.lto_.decls.9a564325d580dd3e,"",%progbits
 149 0000 789CBD5B 		.ascii	"x\234\275[{t\024\325\031\277wfw\223%\001\251\036=\241"
 149      7B7414D5 
 149      19BF7766 
 149      77932501 
 149      A91E3DA1 
 150 0014 B5C7D86A 		.ascii	"\265\307\330jOK+Ak[\3549\255Z\332\212\347\324\036O\251"
 150      4F4B2B41 
 150      6B5BEC39 
 150      AD5ADA8A 
 150      E7D41E4F 
 151 0029 A7ED3FDD 		.ascii	"\247\355?\335\216\233!\331\222}tvB\240\3778\004L\020"
 151      8E9B21D9 
 151      927D7476 
 151      42A0FF38 
 151      044C10
 152 003c B584440A 		.ascii	"\265\204D\012(`xD\245B9\210(\012\305\025%D@^\021B\004"
 152      28607844 
 152      A5423988 
 152      280AC515 
 152      2544405E 
 153 0053 64A12085 		.ascii	"d\241 \205\312\273\220\006\245\351w\277\231\331\235"
 153      CABB9006 
 153      A5E977BF 
 153      99D99D
 154 0062 B93BB33B 		.ascii	"\271;\263;\033j\347\344\336y\335\373\273\337\373~\367"
 154      1B6AE7E4 
 154      DE79DDFB 
 154      BBDFFB7E 
 154      F7
 155 0073 CE462002 		.ascii	"\316F \002)\027\010\031\200#z\017!\255\001BDB\310\017"
 155      29170819 
 155      80237A0F 
 155      21AD0142 
 155      4442C80F 
 156 0087 897EA650 		.ascii	"\211~\246P\340\021\361\023\375`\327\213\241,\201\027"
 156      E011F113 
 156      FD60D78B 
 156      A12C8117 
 157 0097 5BA06C87 		.ascii	"[\240l\207\222\206\3621%9\007kW\001e)\224aP\312\241"
 157      9286F231 
 157      2539076B 
 157      57016529 
 157      946150CA 
 158 00ac DC0B650F 		.ascii	"\334\013e\017\264=\003\347ST\307=\002\347\023p^\007"
 158      B43D03E7 
 158      5354C73D 
 158      02E71370 
 158      5E07
 159 00be A505AED7 		.ascii	"\245\005\256\327\303\371\237p>\015\345,\224sP\336gm"
ARM GAS  /tmp/cc6dBTT4.s 			page 12


 159      C3F99F70 
 159      3E0DE52C 
 159      947350DE 
 159      676D
 160 00d0 A12C3368 		.ascii	"\241,3h:OuZ\272\340\\\002\347\275p\336\007e?\224\017"
 160      3A4F755A 
 160      BAE05C02 
 160      E7BD70DE 
 160      07653F94 
 161 00e5 A11C8072 		.ascii	"\241\034\200r\010\212\017J\320\240\205\321y\001\312"
 161      088A0F4A 
 161      D0A085D1 
 161      7901CA
 162 00f4 6528FD06 		.ascii	"e(\375\006\355\214\007\001\370\367\013:\336<\270\177"
 162      ED8C0701 
 162      F8F70B3A 
 162      DE3CB87F 
 163 0104 16CA7350 		.ascii	"\026\312sP\026@Y\010\345y\2167\306\373\227\\\370b\374"
 163      16405908 
 163      E5798E37 
 163      C6FB975C 
 163      F862FC
 164 0117 30DE4A01 		.ascii	"0\336J\001\357\204\301W\015\234_\200\322A\007\317c\320"
 164      EF84C157 
 164      0D9C5F80 
 164      D24107CF 
 164      63D0
 165 0129 C2E36A17 		.ascii	"\302\343j\027>\177c\264[b\350\243\020\257)\270\337\004"
 165      3E7F63B4 
 165      5B62E8A3 
 165      10AF29B8 
 165      DF04
 166 013b E51D28EF 		.ascii	"\345\035(\357B\331\314\372\013v^o!\213\264\366tz\363"
 166      42D9CCFA 
 166      0B765E6F 
 166      218BB4F6 
 166      747AF3
 167 014e A9FD74BE 		.ascii	"\251\375t\276\226\232\256\015\014<Fn\"s48\332\2334\215"
 167      969AAE0D 
 167      0C3C466E 
 167      22733438 
 167      DA9B348D 
 168 0162 AA6564A6 		.ascii	"\252ed\246\2465\262\233q]\303\256'\263\331\233\312."
 168      A635B29B 
 168      715DC3AE 
 168      27B3D99B 
 168      CA2E
 169 0174 10CBAFA9 		.ascii	"\020\313\257\251D\207\005I\273\017\257\312\203\344\307"
 169      44870549 
 169      BB0FAFCA 
 169      83E4C7
 170 0183 00773B59 		.ascii	"\000w;Y\246i-\3519W\273EM+\225\3502z=\030\340\003\224"
 170      A6692DE9 
 170      3957BB45 
 170      4D2B95E8 
 170      327A3D18 
 171 019a 8C24CBA1 		.ascii	"\214$\313\241c\013@\215t\260$R\020X \277\242D\242/\001"
ARM GAS  /tmp/cc6dBTT4.s 			page 13


 171      630B408D 
 171      74B02452 
 171      105820BF 
 171      A244A22F 
 172 01af 9E445FA4 		.ascii	"\236D_\244#\365\221\264t[\363\241F:\025\010\325\337"
 172      23F591B4 
 172      745BF3A1 
 172      463A1508 
 172      D5DF
 173 01c1 11E3ADC3 		.ascii	"\021\343\255\303q+i\207\016\251\276\255\013\250\326"
 173      712B6987 
 173      0EA9BEAD 
 173      0BA8D6
 174 01d0 BE893A8C 		.ascii	"\276\211:\214x\2379`\251\205\223\305O?\210\234\254@"
 174      789F3960 
 174      A98593C5 
 174      4F3F889C 
 174      AC40
 175 01e2 4E1A29B5 		.ascii	"N\032)\265\215`\240\264\337\347\006#\220V\354\262*\207"
 175      8D60A0B4 
 175      DFE70623 
 175      9056ECB2 
 175      2A87
 176 01f4 F02D3B4D 		.ascii	"\360-;M\302Wy \2741\265{\346\302\021\214p\211.\245e"
 176      C2577920 
 176      BC31B57B 
 176      E6C2118C 
 176      70892EA5 
 177 0209 80BB3483 		.ascii	"\200\2734\203k\214[i\216\353#\304\274\324\017\243\201"
 177      6B8C5B69 
 177      8EEB23C4 
 177      BCD40FA3 
 177      81
 178 021a 1D6FCFD6 		.ascii	"\035o\317\326\362\026\311\004{\251h\260J'R\365\303\312"
 178      F216C904 
 178      7BA968B0 
 178      4A2752F5 
 178      C3CA
 179 022c AD4457D3 		.ascii	"\255DW\323\333\241~\205\336\012\365\253Pg\016\201\254"
 179      DBA17E85 
 179      DE0AF5AB 
 179      50670E81 
 179      AC
 180 023d A4A64E9D 		.ascii	"\244\246N\235DW\230\205\376\255\013P$A2#k\243\304\221"
 180      44579885 
 180      FEAD0B50 
 180      24413223 
 180      6BA3C491 
 181 0251 05439D3D 		.ascii	"\005C\235=O\276\273\233NC\251\257\203n\002\371\204S"
 181      4FBEBB9B 
 181      4E43A9AF 
 181      836E02F9 
 181      8453
 182 0263 A877A8DE 		.ascii	"\250w\250\336Y\233\337\246\215\010\265\036\241Z\205"
 182      599BDFA6 
 182      8D08B51E 
 182      A15A85
ARM GAS  /tmp/cc6dBTT4.s 			page 14


 183 0272 C142F5B5 		.ascii	"\301B\365\265n\270\007\215l#\002\275\307\001I\264$\303"
 183      6EB8078D 
 183      6C2302BD 
 183      C70149B4 
 183      24C3
 184 0284 79E6DE6C 		.ascii	"y\346\336l\300\320\360\265q\301\002\375u\344sn.\220"
 184      C0D0F0B5 
 184      71C102FD 
 184      75E4736E 
 184      2E90
 185 0296 0F044E75 		.ascii	"\017\004NuN\006S\352\246:-\335\272\345#\201\005\034"
 185      4E0653EA 
 185      A63A2DDD 
 185      BAE52381 
 185      051C
 186 02a8 D1F4A080 		.ascii	"\321\364\240\200\233\214\004\322\213c\275\303{\320\302"
 186      9B8C04D2 
 186      8B63BDC3 
 186      7BD0C2
 187 02b7 9EEDA607 		.ascii	"\236\355\246\007\275\343\311\203\326n\235\213\346R0"
 187      BDE3C983 
 187      D66E9D8B 
 187      E65230
 188 02c6 A409E6F8 		.ascii	"\244\011\346\370\267\341\370-\"\033\277\213\037\277"
 188      B7E1F82D 
 188      221BBF8B 
 188      1FBF
 189 02d4 FFC3838F 		.ascii	"\377\303\203\217\033\343wy\032\377\215\236gr\307\227"
 189      1BE37779 
 189      1AFF8D9E 
 189      6772C797 
 190 02e4 E80F6FCC 		.ascii	"\350\017o\314g\033\013{>>o\214\262\035]u\253\310[\307"
 190      671B0B7B 
 190      3E3E6F8C 
 190      B21D5D75 
 190      ABC85BC7 
 191 02f8 BD6576FD 		.ascii	"\275ev\375\301\275\245\201@\2723\364\017*R\000\243g"
 191      C1BDA581 
 191      40BA33F4 
 191      0F2A5200 
 191      A367
 192 030a E6D0D669 		.ascii	"\346\320\326iZ\327h\223\206}E#V\332$\261\241\007c\217"
 192      5AD76893 
 192      867D4523 
 192      56DA24B1 
 192      A107638F 
 193 031e 0ED6EB05 		.ascii	"\016\326\353\005\314\325\224\032S\033\255`\007\213\006"
 193      CCD5941A 
 193      531BAD60 
 193      078B06
 194 032d B353B6CB 		.ascii	"\263S\266\313\012v\330\013\330pw\312\366X\301\216\026"
 194      0A76D80B 
 194      D87077CA 
 194      F658C18E 
 194      16
 195 033e 0D66A7EC 		.ascii	"\015f\247\354\003+\330q/`\025\356\224\355\263\202\235"
 195      032BD871 
ARM GAS  /tmp/cc6dBTT4.s 			page 15


 195      2F6015EE 
 195      94EDB382 
 195      9D
 196 034f 2C1ACC4E 		.ascii	",\032\314N\331~+\330i/`\225\016\224e\016\247~\314\254"
 196      D97E2BD8 
 196      692F6095 
 196      0E94650E 
 196      A77ECCAC 
 197 0363 B7D08C9D 		.ascii	"\267\320\214\235\013\344\234h\306\204\"m\232d1.\212"
 197      0BE49C68 
 197      C684226D 
 197      9A64312E 
 197      8A
 198 0374 C5C6301B 		.ascii	"\305\3060\033\3370\205\037^B\333t\277\320\247\321>/"
 198      DF30851F 
 198      5E42DB74 
 198      BFD0A7D1 
 198      3E2F
 199 0386 88790CA6 		.ascii	"\210y\014\246e\233eN\276Z4\230]-\213\030\230-\326\030"
 199      659B654E 
 199      BE5A3498 
 199      5D2D8B18 
 199      982DD618 
 200 039a 3352BA23 		.ascii	"3R\272#U1/\033\356JM,\226\230\351\261\015\3624!\323"
 200      55312F1B 
 200      EE4A4D2C 
 200      9698E9B1 
 200      0DF23421 
 201 03af 58ABA870 		.ascii	"X\253\250pn+\321\2238\267\237\242\301\014\025\372\265"
 201      6E2BD193 
 201      38B79FA2 
 201      C10C15FA 
 201      B5
 202 03c0 7935C032 		.ascii	"y5\3002R2\315\347\224\362!@\376\256n\226p\302j\0113"
 202      5232CDE7 
 202      94F22140 
 202      FEAE6E96 
 202      70C26A09 
 203 03d5 7C1EC494 		.ascii	"|\036\304\224\307\025v\271\211)\325\244\315\240SW\337"
 203      C71576B9 
 203      8929D5A4 
 203      CDA05357 
 203      DF
 204 03e6 9C373F5C 		.ascii	"\2347?\\\330sf\261\221\005\234\305\311\373i\237c\026"
 204      D87366B1 
 204      91059CC5 
 204      C9FB699F 
 204      6316
 205 03f8 E009AC77 		.ascii	"\340\011\254w\326N3\245\270\200`\363\006\017\326\336"
 205      D64E33A5 
 205      B88060F3 
 205      060FD6DE 
 206 0408 B7E766CD 		.ascii	"\267\347f\315'\321K\010\264\330\307O\032A.\245\010\332"
 206      27D14B08 
 206      B4D8C74F 
 206      1A412EA5 
 206      08DA
ARM GAS  /tmp/cc6dBTT4.s 			page 16


 207 041a 27FD6030 		.ascii	"'\375`0{1`\036v5~\256}\334T\177\306\252\372\025E\253"
 207      7B31601E 
 207      76357EAE 
 207      7DDC547F 
 207      C6AAFA15 
 208 0430 DEE62190 		.ascii	"\336\346!\220\204\\\026\346j\251\251\242\305\326\363"
 208      845C16E6 
 208      6AA9A9A2 
 208      C5D6F3
 209 043f 3A062490 		.ascii	":\006$\220\3336\376\000S\265+(\3275\316\012\362\000"
 209      DB36FE00 
 209      53B52B28 
 209      D735CE0A 
 209      F200
 210 0451 D43B6BE5 		.ascii	"\324;k\3457\021\350*\002m\0304P_\353\2421\010\304\\"
 210      3711E82A 
 210      026D1834 
 210      505FEBA2 
 210      3108C45C 
 211 0465 5620EFE6 		.ascii	"V \357\346h\232r\232\246v\015d\274\316p\272\317\253"
 211      689A729A 
 211      A6760D64 
 211      BCCE70BA 
 211      CFAB
 212 0477 AD4076F0 		.ascii	"\255@v\360\352\262\261\223gj\310\304\333\317Z\351\305"
 212      EAB2B193 
 212      676AC8C4 
 212      DBCF5AE9 
 212      C5
 213 0488 466DDEE8 		.ascii	"Fm\336\350\"\364\365\244\241\257\307Q:\037\344H\347"
 213      22F4F5A4 
 213      A1AFC751 
 213      3A1FE448 
 213      E7
 214 0499 6A91E281 		.ascii	"j\221\342\201\024\243h6J\355l4\017\014\202\215\267t"
 214      14A36836 
 214      4AED6C34 
 214      0F0C828D 
 214      B774
 215 04ab 3666221B 		.ascii	"6f\"\033G\377\007l\234*\232\215\341\0266p\001\373\214"
 215      47FF076C 
 215      9C2A9A8D 
 215      E1163670 
 215      01FB8C
 216 04be 3EFBDD40 		.ascii	">\373\335@Z\363\247\360\214\236Y\302\015\266\3649\265"
 216      5AF3A7F0 
 216      8C9E59C2 
 216      0DB6F439 
 216      B5
 217 04cf 7707ADD4 		.ascii	"w\007\255\324\037\027^\264_\334aY\350i\236\026z\333"
 217      1F175EB4 
 217      5FDC6159 
 217      E8699E16 
 217      7ADB
 218 04e1 320BBD56 		.ascii	"2\013\275V\024\331Y'\007\363\002\325\336\273\363F\026"
 218      14D95927 
 218      07F302D5 
ARM GAS  /tmp/cc6dBTT4.s 			page 17


 218      DEBBF346 
 218      16
 219 04f2 48E720CC 		.ascii	"H\347 \314\245\301\302\244\373\366\274\256\373\351<"
 219      A5C1C2A4 
 219      FBF6BCAE 
 219      FBE93C
 220 0501 04BA9AA3 		.ascii	"\004\272\232\243\302\000\247\301\200]\203p\313F\372"
 220      C200A7C1 
 220      805D8370 
 220      CB46FA
 221 0510 3706C8C7 		.ascii	"7\006\310\307\214'\354\246\204\374\337\373\011\244\331"
 221      8C27ECA6 
 221      84FCDFFB 
 221      09A4D9
 222 051f 4F0DA516 		.ascii	"O\015\245\026\231\177\231\326\323|\254\315\314\235t"
 222      997F99D6 
 222      D37CACCD 
 222      CC9D74
 223 052e 05FDE99A 		.ascii	"\005\375\351\232\020\033S\317\3172\367G\356e\331\323"
 223      101B53CF 
 223      CF32F747 
 223      EE65D9D3 
 224 053e DC6B84DB 		.ascii	"\334k\204\333\260\223O\013\270e\3332\227i\307\3348Z"
 224      B0934F0B 
 224      B865DB32 
 224      9769C7DC 
 224      385A
 225 0550 FDD4B750 		.ascii	"\375\324\267P\335K\004F\316\"?\257\356\245\224[\266"
 225      DD4B0446 
 225      CE223FAF 
 225      EEA5945B 
 225      B6
 226 0561 B1079626 		.ascii	"\261\007\226&n\216\264X\260\314\200\253\257U\015[.q"
 226      6E8EB458 
 226      B0CC80AB 
 226      AF550D5B 
 226      2E71
 227 0573 6A78FD1A 		.ascii	"jx\375\032\345\326o\250\241\320\"\373w&V92\362\026\016"
 227      E5D66FA8 
 227      A1D022FB 
 227      77265639 
 227      32F2160E 
 228 0587 FB17815B 		.ascii	"\373\027\201[c\277q&\335ddD\354]\341Hq\340xPk-\327\267"
 228      63BF7126 
 228      DD646444 
 228      EC5DE148 
 228      71E07850 
 229 059f EB24FA1A 		.ascii	"\353$\372\032\025\014T\247D\251\240xR\037\311]\243\213"
 229      150C54A7 
 229      44A9A078 
 229      521FC95D 
 229      A38B
 230 05b1 89399D66 		.ascii	"\2119\235f\314Y\205\262\374$G\351,\210\330\224^\224"
 230      CC5985B2 
 230      FC2447E9 
 230      2C88D894 
 230      5E94
ARM GAS  /tmp/cc6dBTT4.s 			page 18


 231 05c3 D35DC808 		.ascii	"\323]\310\010\311\353\202\205?\334\214j\271\325\250"
 231      C9EB8285 
 231      3FDC8C6A 
 231      B9D5A8
 232 05d2 2E5F9B09 		.ascii	"._\233\011\200Qu.\323\215\252\220\021h\324\272\216\201"
 232      8051752E 
 232      D38DAA90 
 232      1168D4BA 
 232      8E81
 233 05e4 A08823BF 		.ascii	"\240\210#\277\306[\301\302\013]\315\306\036\310k\236"
 233      C65BC1C2 
 233      0B5DCDC6 
 233      1EC86B9E 
 234 05f4 ACE09283 		.ascii	"\254\340\222\203\025\2746H+\000\223>\371\036E8}]\366"
 234      15BC3648 
 234      2B00933E 
 234      F91E4538 
 234      7D5DF6
 235 0607 4280DAE1 		.ascii	"B\200\332\341\274j\301\200\373L.V0\272}\245z\217\263"
 235      BC6AC180 
 235      FB4C2E56 
 235      30BA7DA5 
 235      7A8FB3
 236 061a 1973A3C0 		.ascii	"\031s\243\3006\242W\004x\323\322%c1\255\254\030%\272"
 236      36A25704 
 236      78D3D225 
 236      6331ADAC 
 236      1825BA
 237 062d 4E600BB5 		.ascii	"N`\013\2657\004\266\011\373&\326\033\004\313V\254\233"
 237      3704B609 
 237      FB26D61B 
 237      04CB56AC 
 237      9B
 238 063e 59FC2D6B 		.ascii	"Y\374-k\026\022]\303\213\321\353r\271\3400k\255\326"
 238      16125DC3 
 238      8BD1EB72 
 238      B9E0306B 
 238      ADD6
 239 0650 F76AE0DA 		.ascii	"\367j\340\332\254\257u\313\016\037\356,\026\261+\274"
 239      ACAF75CB 
 239      0E1FEE2C 
 239      16B12BBC 
 240 0660 6DB3E9B8 		.ascii	"m\263\351\270\357\240\343\256\317\221\356z>\277\362"
 240      EFA0E3AE 
 240      CF91EE7A 
 240      3EBFF2
 241 066f B249BA65 		.ascii	"\262I\272e\260\254d\016H\232\003\036\3268\225\016R\317"
 241      B0AC640E 
 241      489A031E 
 241      D638950E 
 241      52CF
 242 0681 4CB4FB8C 		.ascii	"L\264\373\2144\255\340N\2539s\035\177j\034\316\\\357"
 242      34ADE04E 
 242      AB39731D 
 242      7F6A1CCE 
 242      5CEF
 243 0693 A1A5EDE2 		.ascii	"\241\245\355\342d\341a\303\3660v\331\316\273q[sf\303"
ARM GAS  /tmp/cc6dBTT4.s 			page 19


 243      64E161C3 
 243      F63076D9 
 243      CEBB715B 
 243      7366C3
 244 06a6 76BB0737 		.ascii	"v\273\0077nL\255\261}\3620-p{~\013\314+O\233\012\267"
 244      6E4CADB1 
 244      7DF2302D 
 244      707B7E0B 
 244      CC2B4F9B 
 245 06bc 5B1C6407 		.ascii	"[\034d\007:\310N\253S@\316\350E\366_w3E\010C{\364oM"
 245      3AC84EAB 
 245      5340CEE8 
 245      45F65F77 
 245      33450843 
 246 06d4 E6D7A33E 		.ascii	"\346\327\243>\036\317)\020\331\360\254\272lL\265t\343"
 246      1ECF2910 
 246      D9F0ACBA 
 246      6C4CB574 
 246      E3
 247 06e5 F6906EA3 		.ascii	"\366\220n\243Z\211\007\342F\273\203=\337f\012w-f(Ox"
 247      5A8907E2 
 247      46BB833D 
 247      DF660A77 
 247      2D66284F 
 248 06fa C11BE3C6 		.ascii	"\301\033\343\306lc\352\365\356\005\006\236\376eev\321"
 248      6C63EAF5 
 248      EE05069E 
 248      FE656576 
 248      D1
 249 070b 7876FAF6 		.ascii	"xv\372\366\266\331\362\271g\275\300\335\347Y\367\331"
 249      B6D9F2B9 
 249      67BDC0DD 
 249      E759F7D9 
 250 071b 0F8930A1 		.ascii	"\017\2110\241\342.\326\313\370\205\352u\2547a}\024\353"
 250      E22ED6CB 
 250      F885EA75 
 250      AC37617D 
 250      14EB
 251 072d 63587F8C 		.ascii	"cX\177\214\365i\254\373\261\236\216a\364\011\254\377"
 251      F569ACFB 
 251      B19E8E61 
 251      F409ACFF 
 252 073d 847517D6 		.ascii	"\204u\027\326\273\261\356\306z/\326=X\367z\011\270\036"
 252      BBB1EEC6 
 252      7A2FD63D 
 252      58F77A09 
 252      B81E
 253 074f 73C025F4 		.ascii	"s\300%\364&\274\022\011~\316u\234Mf\374=\273\215\242"
 253      26BC1209 
 253      7ECE759C 
 253      4D66FC3D 
 253      BB8DA2
 254 0762 65BE6830 		.ascii	"e\276h0\031\033~>\373\323\324\210\015\2326\\\242\207"
 254      191B7E3E 
 254      FBD3D488 
 254      0D9A365C 
 254      A287
ARM GAS  /tmp/cc6dBTT4.s 			page 20


 255 0774 D0D1B795 		.ascii	"\320\321\267\2258:z\036 \201\364b\2374\347\351\251\266"
 255      383A7A1E 
 255      2081F462 
 255      9F34E7E9 
 255      A9B6
 256 0786 E672B664 		.ascii	"\346r\266dJ{\362\3629[\026\344f\214\266o\320h\002n\262"
 256      4A7BF2F2 
 256      395B16E4 
 256      668CB66F 
 256      D068026E 
 257 079b 382ED864 		.ascii	"8.\330d\341=\352?7\220\376\376*\344\377\004:\324\274"
 257      E13DEA3F 
 257      3790FEFE 
 257      2AE4FF04 
 257      3AD4BC
 258 07ae 523EE8FB 		.ascii	"R>\350\373\271\230\357\267\307|\1770{a\304|\203\010"
 258      B998EFB7 
 258      C77C7F30 
 258      7B61C47C 
 258      8308
 259 07c0 B36BE6F6 		.ascii	"\263k\346\366\204\236\367I\364\0211\257\015\030\244"
 259      849EF749 
 259      F41131AF 
 259      0D18A4
 260 07cf 0D       		.ascii	"\015"
 261 07d0 2C393262 		.ascii	",92b9\222v\014}\363}\2164n)\302D\340&\2363B\231\213"
 261      3992760C 
 261      7DF37D8E 
 261      346E29C2 
 261      44E0269E 
 262 07e8 0672DE09 		.ascii	"\006r\336\011\344@\251\251\316\301-'f\177\232\276\371"
 262      E440A9A9 
 262      CEC12D27 
 262      667F9ABE 
 262      F9
 263 07f9 8D57356D 		.ascii	"\215W5m\365\357\214=\201T\300j=\266pg$5\353;\277\314"
 263      F5EF8C3D 
 263      8154C06A 
 263      3DB67067 
 263      2435EB3B 
 264 080f 4CE53C4C 		.ascii	"L\345<L\222\0029\306\361Y\030\005\222b\354\363\257\234"
 264      920239C6 
 264      F1591805 
 264      9262ECF3 
 264      AF9C
 265 0821 ED854EB1 		.ascii	"\355\205N\261R\177\\\330\002{\232f}Qk\177\252\302\334"
 265      527F5CD8 
 265      027B9A66 
 265      7D516B7F 
 265      AAC2DC
 266 0834 C3FD4F06 		.ascii	"\303\375O\006rp\313\206\303\235C _,\370\333\000F\330"
 266      7270CB86 
 266      C39D4320 
 266      5F2CF8DB 
 266      0046D8
 267 0847 15DE757A 		.ascii	"\025\336uz;Y\222w\305\223\347\034hrXk\351\262t3\207"
 267      3B599277 
ARM GAS  /tmp/cc6dBTT4.s 			page 21


 267      C593E71C 
 267      6872586B 
 267      E9B27433 
 268 085c ABB919DD 		.ascii	"\253\271\031\335\225A\252\2731u\250\323\014\371\272"
 268      9541AABB 
 268      3175A8D3 
 268      0CF9BA
 269 086b 074D0FD2 		.ascii	"\007M\017\322\"\361*9\306\00423xm\262\357\363.\373F"
 269      22F12A39 
 269      C6043233 
 269      786DB2EF 
 269      F32EFB46 
 270 087f 9193FD79 		.ascii	"\221\223\375y\224={\\X\366\027\233\314\351\351 \272"
 270      943D7B5C 
 270      58F6179B 
 270      CCE9E920 
 270      BA
 271 0890 E82CA49B 		.ascii	"\350,\244\233\365\035\234,/q\262|\246h\274\\Y\316\037"
 271      F51D9C2C 
 271      2F71B27C 
 271      A668BC5C 
 271      59CE1F
 272 08a3 AC2C9D0E 		.ascii	"\254,\235\016\253\217I\3642\346K}8\263\365c=U\264\345"
 272      AB8F49F4 
 272      32E64B7D 
 272      38B3F563 
 272      3D55B4E5 
 273 08b7 4E8B825C 		.ascii	"N\213\202\\(q\032\333\375\007\002\251\005\017\260TG"
 273      28711ADB 
 273      FD0702A9 
 273      050FB054 
 273      47
 274 08c8 5FEC74F0 		.ascii	"_\354t\360X\366\345\221\345\322\033#iK\342w\024\031"
 274      58F6E591 
 274      E5D21B23 
 274      694BE277 
 274      1419
 275 08da F93BB270 		.ascii	"\371;\262p\016\353\231\242\207\211\372`\326\217\370"
 275      0EEB99A2 
 275      8789FA60 
 275      D68FF8
 276 08e9 209FBDD7 		.ascii	" \237\275\327wx2\367\353\250\365}\276\351\316\345'\001"
 276      777832F7 
 276      EBA8F57D 
 276      BEE9CEE5 
 276      2701
 277 08fb 0C64B678 		.ascii	"\014d\266x\223}T\374\332\357mZY\363\362\333\025/\341"
 277      937D54FC 
 277      DAEF6D5A 
 277      59F3F2DB 
 277      152FE1
 278 090e B4D222E2 		.ascii	"\264\322\"\342\264\022\314;\255\260\241\334\310\230"
 278      B412CC3B 
 278      ADB0A1DC 
 278      C898
 279 091c 23BA4F2B 		.ascii	"#\272O+\271\357\254\304\022n\032\024\310^\216\214\333"
 279      B9EFACC4 
ARM GAS  /tmp/cc6dBTT4.s 			page 22


 279      126E1A14 
 279      C85E8E8C 
 279      DB
 280 092d C8524D6B 		.ascii	"\310RMkMo>u\316\017\0139\237\351a'\261\331bz\213#Q\206"
 280      4D6F3E75 
 280      CE0F0B39 
 280      9FE96127 
 280      B1D9627A 
 281 0945 4AF4BE5A 		.ascii	"J\364\276Z\277<N\327\207D\233E!o7\324\232\336-\325\323"
 281      BF3C4ED7 
 281      87449B45 
 281      216F37D4 
 281      9ADE2DD5 
 282 095a B9129C50 		.ascii	"\271\022\234P\320U'\321Oh\201\2564;\342E6\342:\334u"
 282      D05527D1 
 282      4F6881AE 
 282      343BE245 
 282      36E23ADC 
 283 096f 7FBB4037 		.ascii	"\177\273@7\264\003c\304\336\316\027\365\021u\215\234"
 283      B40363C4 
 283      DECE17F5 
 283      11758D9C 
 284 097f 2DC0236B 		.ascii	"-\300#ke\216\330\315F\304\334\370B\201^\272\324\277"
 284      658ED8CD 
 284      46C4DCF8 
 284      42815EBA 
 284      D4BF
 285 0991 463A30AF 		.ascii	"F:0\257\356|z\304L6\242\276\001\351\336\317\320\346"
 285      EE7C7AC4 
 285      4C36A2BE 
 285      01E9DECF 
 285      D0E6
 286 09a3 5CD1F693 		.ascii	"\\\321\366\223A\375\007\203\370\353\261\251\351\201"
 286      41FD0783 
 286      F8EBB1A9 
 286      E981
 287 09b1 815B38CB 		.ascii	"\201[8\313e\240\256\311\255X8ku\333!4,\370\320\252\363"
 287      65A0AEC9 
 287      AD58386B 
 287      75DB2134 
 287      2CF8D0AA 
 288 09c6 15FA42FD 		.ascii	"\025\372B\375\005\021#\303\020\347\234\325\015\006\367"
 288      051123C3 
 288      10E79CD5 
 288      0D06F7
 289 09d5 BAF8B03F 		.ascii	"\272\370\260?\273\023\263\325\345\236\342~\233\323\234"
 289      BB13B3D5 
 289      E59EE27E 
 289      9BD39C
 290 09e4 EB614DBC 		.ascii	"\353aM\274\006)]\2313\345H\225\372S\0173\216\271\015"
 290      06295D99 
 290      33E54895 
 290      FA530F33 
 290      8EB90D
 291 09f7 B542CC2E 		.ascii	"\265B\314.\206W\026?\341d\0167=1\374\214\372\365a\226"
 291      8657163F 
 291      E1640E37 
ARM GAS  /tmp/cc6dBTT4.s 			page 23


 291      3D31FC8C 
 291      FAF56196 
 292 0a0b 0F7A5E9B 		.ascii	"\017z^\233\303\315ko\241\034\212\301\253\264\341\315"
 292      C3CD6B6F 
 292      A11C8AC1 
 292      ABB4E1CD 
 293 0a1b EBE4F7E5 		.ascii	"\353\344\367\345\275/\025\326\362\261\223\221\304\245"
 293      BD2F15D6 
 293      F2B19391 
 293      C4A5
 294 0a29 ECDE53F4 		.ascii	"\354\336S\364\376\012=E\177\025=w\333\220\274\261tm"
 294      FE0A3D45 
 294      7F153D77 
 294      DB90BCB1 
 294      746D
 295 0a3b 9E58FA66 		.ascii	"\236X\372f\236X\312\275\203\014U\360\240\217\274{\300"
 295      9E58CABD 
 295      830C55F0 
 295      A08FBC7B 
 295      C0
 296 0a4c 36FCAC33 		.ascii	"6\374\2543\300:X\304u\260\310&\301\325X\257\3612\025"
 296      C03A58C4 
 296      75B0C826 
 296      C1D558AF 
 296      F13215
 297 0a5f 76880E53 		.ascii	"v\210\016Sa\336\251\317\210c\205\346\205\375C\034\347"
 297      61DEA9CF 
 297      886385E6 
 297      85FD431C 
 297      E7
 298 0a70 858EBF1C 		.ascii	"\205\216\277\034\011\350\363B\007J\376\0026[\"\272E"
 298      09E8F342 
 298      074AFE02 
 298      365B22BA 
 298      45
 299 0a81 BF0E4BCC 		.ascii	"\277\016K\314\234\017\326C\355\341\335\275\243%\274"
 299      9C0FD643 
 299      EDE1DDBD 
 299      A325BC
 300 0a90 A7F66EFD 		.ascii	"\247\366n\375\253\036\247\255!\336\275\253%\304k},N"
 300      AB1EA7AD 
 300      21DEBDAB 
 300      25C46B7D 
 300      2C4E
 301 0aa2 B7A01E17 		.ascii	"\267\240\036\027\211\371\273Y\303\373s:\2518\275\267"
 301      89F9BB59 
 301      C3FB733A 
 301      A938BDB7 
 302 0ab2 17E8670B 		.ascii	"\027\350g\013\360\335[\271\000\357\326\317\320\337["
 302      F0DD5BB9 
 302      00EFD6CF 
 302      D0DF5B
 303 0ac1 B9013EDD 		.ascii	"\271\001>\335\302>\3205\323\331\323\332\273\264sle\353"
 303      C23ED035 
 303      D3D9D3DA 
 303      BBB4736C 
 303      65EB
ARM GAS  /tmp/cc6dBTT4.s 			page 24


 304 0ad3 3D41E9E2 		.ascii	"=A\351\342\235\214\221\221\271iuX\010\013\344\022\247"
 304      9D8C9191 
 304      B9697558 
 304      080BE412 
 304      A7
 305 0ae4 6993B46D 		.ascii	"i\223\264m\216\244\255y\271\377\007\013_\321\246?\241"
 305      8EA4AD79 
 305      B9FF070B 
 305      5FD1A63F 
 305      A1
 306 0af5 FD67E031 		.ascii	"\375g\3401Z\304\004\364~\341\011\010b\014\265\004\361"
 306      5AC404F4 
 306      7EE10908 
 306      620CB504 
 306      F1
 307 0b06 5426D164 		.ascii	"T&\321d?#1\226\254Wa\231\3400\321\330\333Jt7\270S\301"
 307      3F233196 
 307      AC576199 
 307      E030D1D8 
 307      DB4A7437 
 308 0b1d 66AC6137 		.ascii	"f\254a7?)<\247OH\335\236\246\2055Ms\315\000k\261\352"
 308      3F293CA7 
 308      4F48DD9E 
 308      A685354D 
 308      73CD006B 
 309 0b33 EE4107EC 		.ascii	"\356A\007\3547;q\223\361\014~\353h,\243E\202U\332\300"
 309      373B7193 
 309      F10C7EEB 
 309      682CA345 
 309      8255DAC0 
 310 0b47 F658C166 		.ascii	"\366X\301fx\001\313\363\341\344@\347\237-;\214\246\023"
 310      7801CBF3 
 310      E1E440E7 
 310      9F2D3B8C 
 310      A613
 311 0b59 16836727 		.ascii	"\026\203g'\356\202N\234\236y=\355\205\270<?\335\373"
 311      EE824E9C 
 311      9E793DED 
 311      85B83C3F 
 311      DDFB
 312 0b6b 34A3068B 		.ascii	"4\243\006\213\307\026\003W\311\251\327\214\312\037`"
 312      C7160357 
 312      C9A9D78C 
 312      CA1F60
 313 0b7a 54DE8BF1 		.ascii	"T\336\213\361x\037\326\373\261\376\020\353\003X\037"
 313      781FD6FB 
 313      B1FE10EB 
 313      03581F
 314 0b89 B2AFBDDA 		.ascii	"\262\257\275\332\312\370\235,\335\224,\330Y\233#\305"
 314      CAF89D2C 
 314      DD942CD8 
 314      599B23C5 
 315 0b99 A1BBF9D6 		.ascii	"\241\273\371\326Nk\322`s\356\027\313\234\235\373\260"
 315      4E6BD260 
 315      73EE17CB 
 315      9C9DFBB0 
 316 0ba9 A373CFFE 		.ascii	"\243s\317\3764\365\365\371n\316\235gn?\302\207\035\266"
ARM GAS  /tmp/cc6dBTT4.s 			page 25


 316      34F5F5F9 
 316      6ECE9D67 
 316      6E3FC287 
 316      1DB6
 317 0bbb 1C705D9A 		.ascii	"\034p]\2329\314\365\002\371\233\013\241\307\035\011"
 317      39CCF502 
 317      F99B0BA1 
 317      C71D09
 318 0bca 3DB8EAC8 		.ascii	"=\270\352\310\310\371\332&\207\177\231\311K\347\011"
 318      C8F9DA26 
 318      877F99C9 
 318      4BE709
 319 0bd9 9ECE0EB1 		.ascii	"\236\316\016\261\214'd\227\013!'\355\204p)\306\221<"
 319      8C276497 
 319      0B2127ED 
 319      847029C6 
 319      913C
 320 0beb 29C6A9AC 		.ascii	")\306\251\254v\276@Z\364\255\221y\303\364_Z\032}\206"
 320      76BE405A 
 320      F4AD9179 
 320      C3F45F5A 
 320      1A7D86
 321 0bfe 9B7D04A3 		.ascii	"\233}\004\243\317?\305/\340\225\355\0038\266p\033\345"
 321      CF3FC52F 
 321      E095ED03 
 321      38B6701B 
 321      E5
 322 0c0f 1331FB6B 		.ascii	"\0231\373k\316\362`\366\202\332\207\256\344F\036c\266"
 322      CEF260F6 
 322      82DA87AE 
 322      E4461E63 
 322      B6
 323 0c20 2B31704E 		.ascii	"+1pN\027=\362\031\227\221\003\316\242z?\217\250\316"
 323      173DF219 
 323      979103CE 
 323      A27A3F8F 
 323      A8CE
 324 0c32 6645C5F5 		.ascii	"fE\305\365\332\343\342\315\254\3279\327^]y\306:\237"
 324      DAE3E2CD 
 324      ACD739D7 
 324      5E5D79C6 
 324      3A9F
 325 0c44 EDC5AC2A 		.ascii	"\355\305\254*u.\335\277\361\374oW\274\242ih\376S\247"
 325      752EDDBF 
 325      F1FC6F57 
 325      BCA26968 
 325      FE53A7
 326 0c57 F30E9067 		.ascii	"\363\016\220g\336\275h\030V\326\226\004\362Y\216!a\216"
 326      DEBD6818 
 326      56D69604 
 326      F2598E21 
 326      618E
 327 0c69 00C74B9A 		.ascii	"\000\307K\232\210h\254\375\005\310\017lv\366\257\\\203"
 327      8868ACFD 
 327      05C80F6C 
 327      76F6AF5C 
 327      83
ARM GAS  /tmp/cc6dBTT4.s 			page 26


 328 0c7a 07D2FEFD 		.ascii	"\007\322\376\375\354\336\021\346\377\210\335\252\217"
 328      ECDE11E6 
 328      FF88DDAA 
 328      8F
 329 0c87 2790A672 		.ascii	"'\220\246r/#\\\346G\350s\034a\367\321\363\343\372\263"
 329      2F235CE6 
 329      47E8731C 
 329      61F7D1F3 
 329      E3FAB3
 330 0c9a CCDFEA9D 		.ascii	"\314\337\352\235\371+\274W\255\307\031\302\346U\233"
 330      F92BBC57 
 330      ADC719C2 
 330      E6559B
 331 0ca9 6CA4624B 		.ascii	"l\244bKp\265r\3038\215\254k\267\236u\351\377\321\363"
 331      70B572C3 
 331      388DAC6B 
 331      B79E75E9 
 331      FFD1F3
 332 0cbc 11F6E877 		.ascii	"\021\366\350wM\273\214\217\302\006\307\027\247>\\\221"
 332      4DBB8C8F 
 332      C206C717 
 332      A73E5C91 
 333 0ccc E1B89FE7 		.ascii	"\341\270\237\347\3703G\216\3737\356\256\265\252\333"
 333      F833478E 
 333      FB37EEAE 
 333      B5AADB
 334 0cdb 14EB314F 		.ascii	"\024\3531Obm\364q\203L\3639+\356t\256\342\316y\032\341"
 334      626DF471 
 334      834CF339 
 334      2BEE74AE 
 334      E2CE791A 
 335 0cf0 717E8426 		.ascii	"q~\204&_\276\020t\"\217\255\317\360el\375+d\261\266"
 335      5FBE1074 
 335      228FADCF 
 335      F0656CFD 
 335      2B64B1B6 
 336 0d04 6B577AF3 		.ascii	"kWz\363\313\363\351\214\264\326\002\274\017Pkl\370G"
 336      CBF3E98C 
 336      B4D602BC 
 336      0F506B6C 
 336      F847
 337 0d16 3636ECCA 		.ascii	"66\354\312dK_\304\256.!\204o&\321'}\305\306\220\247"
 337      644B5FC4 
 337      AE2E2184 
 337      6F26D127 
 337      7DC5C690 
 338 0d2b 7CCE3164 		.ascii	"|\3161d\204M\000f+\346]\345\334\302\203\247B \217\017"
 338      844D0066 
 338      2BE65DE5 
 338      DCC283A7 
 338      42208F0F 
 339 0d3f A546BF21 		.ascii	"\245F\277!\354\342\226Q\243\252\364\277x\262JQ\253\222"
 339      ECE29651 
 339      A3AAF4BF 
 339      78B24A51 
 339      AB92
 340 0d51 4AB82A5C 		.ascii	"J\270*\\[=%&E#\341Qar\033\367>\022\013\327\325W\313"
ARM GAS  /tmp/cc6dBTT4.s 			page 27


 340      5B3D2526 
 340      4523E151 
 340      61721BF7 
 340      3E120BD7 
 341 0d68 D0263925 		.ascii	"\320&9%\251NI\310\311Q\265\244T\255Ud\251:\244\006\036"
 341      A94E49C8 
 341      C951B5A4 
 341      54AD5564 
 341      A93AA406 
 342 0d7d F8F92395 		.ascii	"\370\371#\225cI0\\\033\322\037U\272w\207Q\240\353uz"
 342      6349305C 
 342      1BD21F55 
 342      BA778751 
 342      A0EB757A 
 343 0d91 BB64E80F 		.ascii	"\273d\350\017\365r\275\034R\207g\272\032\217|1y\262"
 343      F572BD1C 
 343      528767BA 
 343      1A8F7C31 
 343      79B2
 344 0da3 EA4B28F2 		.ascii	"\352K(\362$?\336\217\261\"\206\343\321h<V\225\210+j"
 344      243FDE8F 
 344      B12286E3 
 344      D1683C56 
 344      95882B6A 
 345 0db7 B2EAFE5F 		.ascii	"\262\352\376_<4\366\241\311\354Y\"R'+\311\252\007\306"
 345      3C34F6A1 
 345      C9EC5922 
 345      52272BC9 
 345      AA07C6
 346 0dca 8E85814C 		.ascii	"\216\205\201L\"K\324\204\022\211\207\324/W\325'\225"
 346      224BD484 
 346      128987D4 
 346      2F57D527 
 346      95
 347 0ddb 0C2131B9 		.ascii	"\014!1\271\241.\362hUR\255\216\304T\306J=\234\277}W"
 347      A12EF268 
 347      5552AD8E 
 347      C454C64A 
 347      3D9CBF7D 
 348 0df0 48BDC3A9 		.ascii	"H\275\303\251YT\012\327FbrU\250Z\236 \325\327\251!\023"
 348      59540AD7 
 348      46627255 
 348      A85A9E20 
 348      D5D7A921 
 349 0e05 7C482864 		.ascii	"|H(dv\364\261a\312\031I\241p<\246\002\365\337(Hrm8\256"
 349      76F4B161 
 349      CA1949A1 
 349      703CA602 
 349      F5DF2848 
 350 0e1d C8005386 		.ascii	"\310\000S\206\335\000(\254N\276\303[\257\320\244\357"
 350      DD0028AC 
 350      4EBEC35B 
 350      AFD0A4EF 
 351 0e2d 4519DD8A 		.ascii	"E\031\335\212\\#)\321\220*(w\013\312w\004\345\273\202"
 351      5C2329D1 
 351      902A2877 
 351      0BCA7704 
ARM GAS  /tmp/cc6dBTT4.s 			page 28


 351      E5BB82
 352 0e40 F23D4119 		.ascii	"\362=A\031#(\367\210\312\235\243\241\334)\324)B2!\002"
 352      2328F788 
 352      CA9DA3A1 
 352      DC29D429 
 352      42322102 
 353 0e54 B41FD891 		.ascii	"\264\037\330\221\025\177\274\256ZV|\341ZI\361\201\272"
 353      157FBCAE 
 353      5A567CE1 
 353      5A49F181 
 353      BA
 354 0e65 E5214975 		.ascii	"\345!Iu\242T\027\251\211\205T\224\302w\357\016\251\006"
 354      A25417A9 
 354      89855494 
 354      C277EF0E 
 354      A906
 355 0e77 5FEC32D0 		.ascii	"_\3542\320 =*%\345R5\251J*h\252\204\275\030\023R\203"
 355      203D2A25 
 355      E55235A9 
 355      4A2A68AA 
 355      84BD1813 
 356 0e8d 7A13B8F2 		.ascii	"z\023\270\362\343\233\0225\032\257\206\367\376\011u"
 356      E39B1235 
 356      1AAF86F7 
 356      FE0975
 357 0e9c 524DB244 		.ascii	"RM\262DU\344\011I\220\012;\371\243\311\032\350h\010"
 357      55E40949 
 357      900A3BF9 
 357      A3C91AE8 
 357      6808
 358 0eae 0A3A1A57 		.ascii	"\012:\032W\001\245z\012\274*\225'G\3240t\0164\250\361"
 358      01A57A0A 
 358      BC2A9527 
 358      47D43074 
 358      0E34A8F1 
 359 0ec2 477F9FB8 		.ascii	"G\177\237\270\3360+\350*+r,\314@\033TUI\224$\345\230"
 359      DE302BE8 
 359      2A2B722C 
 359      CC401B54 
 359      55499424 
 360 0ed8 0A1DCAC1 		.ascii	"\012\035\312\301X\222rTJ\324\202 xK\266\230\232\314"
 360      58927254 
 360      4AD48220 
 360      784BB698 
 360      9ACC
 361 0eea 24E40FC7 		.ascii	"$\344\017\307@_\"\324\000\017\217\022\245\320;Z\017"
 361      405F22D4 
 361      000F8F12 
 361      A5D03B5A 
 361      0F
 362 0efb 0A72EF19 		.ascii	"\012r\357\031U'\263\236\361\206\230\254\224`[&\007\025"
 362      5527B39E 
 362      F18698AC 
 362      94605B26 
 362      0715
 363 0f0d 1E27CAE4 		.ascii	"\036'\312\344I\214\010)9\021\036\311\015\354\202\326"
 363      498C0829 
ARM GAS  /tmp/cc6dBTT4.s 			page 29


 363      39111EC9 
 363      0DEC82D6 
 364 0f1d 0F334DB7 		.ascii	"\0173M\267.\222\204\301\256\263\0303{R\322 E\324H\254"
 364      2E9284C1 
 364      AEB31833 
 364      7B52D220 
 364      45D448AC 
 365 0f31 A6146847 		.ascii	"\246\024hGc.\225\023r\014,\257\246\004 Y\013P\243T\307"
 365      632E9513 
 365      720C2CAF 
 365      A6042059 
 365      0B50A354 
 366 0f46 0CC81F4D 		.ascii	"\014\310\037M\304\343u#\035l \236d\226\230\245\261V"
 366      C4E37523 
 366      1D6C209E 
 366      649698A5 
 366      B156
 367 0f58 961240E4 		.ascii	"\226\022@\344\320\250\034\215+SB\3546\244\226Y\356\356"
 367      D0A81C8D 
 367      2B5342EC 
 367      36A49659 
 367      EEEE
 368 0f6a 424B669D 		.ascii	"BKf\235j\302\341*0\222;b\361\230|\207,=\032\251\272"
 368      6AC2E12A 
 368      30923B62 
 368      F1987C87 
 368      2C3D1AA9 
 369 0f7f 7BD49851 		.ascii	"{\324\230Qwe\300\300\013\300\260\001,\220\214\374\021"
 369      7765C0C0 
 369      0BC0B001 
 369      2C908CFC 
 369      11
 370 0f90 A4ED6482 		.ascii	"\244\355d\202\374\3600\220a\274\214\202\032Y\235P"
 370      FCF03090 
 370      61BC8C82 
 370      1A599D50 
 371 0fa0 1F0B834E 		.ascii	"\037\013\203NK\023J|R\004\014l(R\004\025\\\003a\226"
 371      4B134A7C 
 371      52040C6C 
 371      28520415 
 371      5C036196 
 372 0fb4 3B3F5A9B 		.ascii	";?Z\233?!\325\310I\337\004E\226}\354\245\217\215\355"
 372      3F21D5C8 
 372      49DF0445 
 372      967DECA5 
 372      8F8DED
 373 0fc7 AB4FCAD5 		.ascii	"\253O\312\325\001\275\231\010\262\371\252\253\212\014"
 373      01BD9908 
 373      B2F9AAAB 
 373      8A0C
 374 0fd5 F9A283B3 		.ascii	"\371\242\203\263\241C\352\015\341\332_\326V\217\205"
 374      A143EA0D 
 374      E1DA5FD6 
 374      568F85
 375 0fe4 C7AAFC53 		.ascii	"\307\252\374S%\036\035\007\240~\206\234\020\022\023"
 375      251E1D07 
 375      A07E869C 
ARM GAS  /tmp/cc6dBTT4.s 			page 30


 375      101213
 376 0ff3 4449A919 		.ascii	"DI\251\031\345\215-\246\200\244E\262\354"
 376      E58D2DA6 
 376      80A445B2 
 376      EC
 377 1000 1E18C093 		.ascii	"\036\030\300\223NY\031X\251\034VC\214\342\362,\367!"
 377      4E591958 
 377      A91C5643 
 377      8CE2F22C 
 377      F721
 378 1012 750447C2 		.ascii	"u\004G\302C\210\3600\364\024\242\011\260\332\361\341"
 378      4388F030 
 378      F414A209 
 378      B0DAF1E1 
 379 1022 DA5F4913 		.ascii	"\332_I\023\345\372\304x\177\003s*_\003\230\201\237\365"
 379      E5FAC478 
 379      7F03732A 
 379      5F039881 
 379      9FF5
 380 1034 4DDC6018 		.ascii	"M\334`\030}\265\234\014+\221\204\032\007\241\335h\201"
 380      7DB59C0C 
 380      2B91841A 
 380      07A1DD68 
 380      81
 381 1045 1B5F9F64 		.ascii	"\033_\237d6#W?x}\270\226\261v\177]]<|?\223\244\\]\026"
 381      3623573F 
 381      787DB896 
 381      B1767F5D 
 381      5D3C7C3F 
 382 105e AE6583E0 		.ascii	"\256e\203\340\243<\3760\205\261\005Az\374\224\344\317"
 382      A33CFE30 
 382      85B10541 
 382      7AFC94E4 
 382      CF
 383 106f E2E18941 		.ascii	"\342\341\211A\214:\320e\342\235\016\222\201\000V5\366"
 383      8C3AD065 
 383      E29D0E92 
 383      81005635 
 383      F6
 384 1080 A1F10F8E 		.ascii	"\241\361\017\216\317\"D\223\221d\010\214\211\011'\004"
 384      CF224493 
 384      9164088C 
 384      89092704 
 385 1090 1EA8867E 		.ascii	"\036\250\206~t\377\370\237<\374\213\007\207Ju\015\322"
 385      74FFF89F 
 385      3CFC8B07 
 385      874A750D 
 385      D2
 386 10a1 9424F875 		.ascii	"\224$\370u\035\204I\377$\251\256^.\303q\036\2111|=\276"
 386      1D8449FF 
 386      24A9AE5E 
 386      2EC3711E 
 386      89317C3D 
 387 10b6 D5E37569 		.ascii	"\325\343ui(\204\302\012\0155/F}\347\236\273\277\375"
 387      2884C20A 
 387      0D352F46 
 387      7DE79EBB 
ARM GAS  /tmp/cc6dBTT4.s 			page 31


 387      BFFD
 388 10c8 5FFDA6F7 		.ascii	"_\375\246\367\321"
 388      D1
 389              		.text
 390              		.section	.gnu.lto_.symtab.9a564325d580dd3e,"",%progbits
 391 0000 63685468 		.ascii	"chThdCreateFromHeap\000\000\000\000\000\000\000\000"
 391      64437265 
 391      61746546 
 391      726F6D48 
 391      65617000 
 392 001b 00000000 		.ascii	"\000\000\000\000\241\000\000\000chThdCreateFromMemo"
 392      A1000000 
 392      63685468 
 392      64437265 
 392      61746546 
 393 0036 7279506F 		.ascii	"ryPool\000\000\000\000\000\000\000\000\000\000\000\000"
 393      6F6C0000 
 393      00000000 
 393      00000000 
 393      0000
 394 0048 A2010000 		.ascii	"\242\001\000\000chSchWakeupS\000\000\002\000\000\000"
 394      63685363 
 394      6857616B 
 394      65757053 
 394      00000200 
 395 005e 00000000 		.ascii	"\000\000\000\000\000\000\307\001\000\000chThdCreate"
 395      0000C701 
 395      00006368 
 395      54686443 
 395      72656174 
 396 0073 53757370 		.ascii	"SuspendedI\000\000\002\000\000\000\000\000\000\000\000"
 396      656E6465 
 396      64490000 
 396      02000000 
 396      00000000 
 397 0088 00CC0100 		.ascii	"\000\314\001\000\000chHeapAllocAligned\000\000\002\000"
 397      00636848 
 397      65617041 
 397      6C6C6F63 
 397      416C6967 
 398 00a3 00000000 		.ascii	"\000\000\000\000\000\000\000\000\340\001\000\000chP"
 398      00000000 
 398      E0010000 
 398      636850
 399 00b2 6F6F6C41 		.ascii	"oolAlloc\000\000\002\000\000\000\000\000\000\000\000"
 399      6C6C6F63 
 399      00000200 
 399      00000000 
 399      000000
 400 00c5 00E60100 		.ascii	"\000\346\001\000\000"
 400      00
 401              		.text
 402              		.section	.gnu.lto_.opts,"",%progbits
 403 0000 272D6D63 		.ascii	"'-mcpu=cortex-m3' '-mno-thumb-interwork' '-mthumb' "
 403      70753D63 
 403      6F727465 
 403      782D6D33 
ARM GAS  /tmp/cc6dBTT4.s 			page 32


 403      2720272D 
 404 0033 272D6767 		.ascii	"'-ggdb' '-O2' '-fomit-frame-pointer' '-falign-funct"
 404      64622720 
 404      272D4F32 
 404      2720272D 
 404      666F6D69 
 405 0066 696F6E73 		.ascii	"ions=16' '-ffunction-sections' '-fdata-sections' '-"
 405      3D313627 
 405      20272D66 
 405      66756E63 
 405      74696F6E 
 406 0099 666E6F2D 		.ascii	"fno-common' '-flto'\000"
 406      636F6D6D 
 406      6F6E2720 
 406      272D666C 
 406      746F2700 
 407              		.text
 408              		.cfi_sections	.debug_frame
 409              		.section	.text.chThdCreateFromHeap,"ax",%progbits
 410              		.align	2
 411              		.p2align 4,,15
 412              		.global	chThdCreateFromHeap
 413              		.thumb
 414              		.thumb_func
 415              		.type	chThdCreateFromHeap, %function
 416              	chThdCreateFromHeap:
 417              	.LFB188:
 418              		.file 1 "../../../os/rt/src/chdynamic.c"
 419              		.loc 1 84 0
 420              		.cfi_startproc
 421              		@ args = 8, pretend = 0, frame = 24
 422              		@ frame_needed = 0, uses_anonymous_args = 0
 423              	.LVL0:
 424 0000 70B5     		push	{r4, r5, r6, lr}
 425              		.cfi_def_cfa_offset 16
 426              		.cfi_offset 4, -16
 427              		.cfi_offset 5, -12
 428              		.cfi_offset 6, -8
 429              		.cfi_offset 14, -4
 430 0002 1446     		mov	r4, r2
 431 0004 86B0     		sub	sp, sp, #24
 432              		.cfi_def_cfa_offset 40
 433              		.loc 1 88 0
 434 0006 0822     		movs	r2, #8
 435              	.LVL1:
 436              		.loc 1 84 0
 437 0008 1E46     		mov	r6, r3
 438 000a 0D46     		mov	r5, r1
 439              		.loc 1 88 0
 440 000c FFF7FEFF 		bl	chHeapAllocAligned
 441              	.LVL2:
 442              		.loc 1 89 0
 443 0010 C8B1     		cbz	r0, .L2
 444              		.loc 1 93 0
 445 0012 0A9B     		ldr	r3, [sp, #40]
 446              		.loc 1 96 0
 447 0014 0544     		add	r5, r5, r0
ARM GAS  /tmp/cc6dBTT4.s 			page 33


 448              	.LVL3:
 449              		.loc 1 93 0
 450 0016 0493     		str	r3, [sp, #16]
 451 0018 0B9B     		ldr	r3, [sp, #44]
 452 001a 0295     		str	r5, [sp, #8]
 453 001c 0593     		str	r3, [sp, #20]
 454              	.LVL4:
 455 001e 0094     		str	r4, [sp]
 456 0020 0190     		str	r0, [sp, #4]
 457 0022 0396     		str	r6, [sp, #12]
 458              	.LBB34:
 459              	.LBB35:
 460              	.LBB36:
 461              	.LBB37:
 462              		.file 2 "../../../os/common/ext/CMSIS/include/cmsis_gcc.h"
 463              		.loc 2 264 0
 464 0024 2023     		movs	r3, #32
 465              	@ 264 "../../../os/common/ext/CMSIS/include/cmsis_gcc.h" 1
 466 0026 83F31188 		MSR basepri, r3
 467              	@ 0 "" 2
 468              		.thumb
 469              	.LBE37:
 470              	.LBE36:
 471              	.LBE35:
 472              	.LBE34:
 473              		.loc 1 109 0
 474 002a 6846     		mov	r0, sp
 475              	.LVL5:
 476 002c FFF7FEFF 		bl	chThdCreateSuspendedI
 477              	.LVL6:
 478              		.loc 1 110 0
 479 0030 0123     		movs	r3, #1
 480 0032 80F82130 		strb	r3, [r0, #33]
 481              		.loc 1 111 0
 482 0036 0021     		movs	r1, #0
 483              		.loc 1 109 0
 484 0038 0446     		mov	r4, r0
 485              	.LVL7:
 486              		.loc 1 111 0
 487 003a FFF7FEFF 		bl	chSchWakeupS
 488              	.LVL8:
 489              	.LBB38:
 490              	.LBB39:
 491              	.LBB40:
 492              	.LBB41:
 493              	.LBB42:
 494              		.loc 2 264 0
 495 003e 0023     		movs	r3, #0
 496              	@ 264 "../../../os/common/ext/CMSIS/include/cmsis_gcc.h" 1
 497 0040 83F31188 		MSR basepri, r3
 498              	@ 0 "" 2
 499              		.thumb
 500              	.LBE42:
 501              	.LBE41:
 502              	.LBE40:
 503              	.LBE39:
 504              	.LBE38:
ARM GAS  /tmp/cc6dBTT4.s 			page 34


 505              		.loc 1 114 0
 506 0044 2046     		mov	r0, r4
 507              	.LVL9:
 508              	.L2:
 509              		.loc 1 115 0
 510 0046 06B0     		add	sp, sp, #24
 511              		@ sp needed
 512 0048 70BD     		pop	{r4, r5, r6, pc}
 513              		.cfi_endproc
 514              	.LFE188:
 515              		.size	chThdCreateFromHeap, .-chThdCreateFromHeap
 516 004a 00BFAFF3 		.section	.text.chThdCreateFromMemoryPool,"ax",%progbits
 516      0080
 517              		.align	2
 518              		.p2align 4,,15
 519              		.global	chThdCreateFromMemoryPool
 520              		.thumb
 521              		.thumb_func
 522              		.type	chThdCreateFromMemoryPool, %function
 523              	chThdCreateFromMemoryPool:
 524              	.LFB189:
 525              		.loc 1 146 0
 526              		.cfi_startproc
 527              		@ args = 4, pretend = 0, frame = 24
 528              		@ frame_needed = 0, uses_anonymous_args = 0
 529              	.LVL10:
 530 0000 F0B5     		push	{r4, r5, r6, r7, lr}
 531              		.cfi_def_cfa_offset 20
 532              		.cfi_offset 4, -20
 533              		.cfi_offset 5, -16
 534              		.cfi_offset 6, -12
 535              		.cfi_offset 7, -8
 536              		.cfi_offset 14, -4
 537 0002 87B0     		sub	sp, sp, #28
 538              		.cfi_def_cfa_offset 48
 539              		.loc 1 146 0
 540 0004 0F46     		mov	r7, r1
 541 0006 1646     		mov	r6, r2
 542 0008 1C46     		mov	r4, r3
 543 000a 0546     		mov	r5, r0
 544              		.loc 1 152 0
 545 000c FFF7FEFF 		bl	chPoolAlloc
 546              	.LVL11:
 547              		.loc 1 153 0
 548 0010 D0B1     		cbz	r0, .L6
 549              		.loc 1 160 0
 550 0012 6B68     		ldr	r3, [r5, #4]
 551              		.loc 1 157 0
 552 0014 0C9A     		ldr	r2, [sp, #48]
 553              		.loc 1 160 0
 554 0016 0344     		add	r3, r3, r0
 555              		.loc 1 157 0
 556 0018 0293     		str	r3, [sp, #8]
 557 001a 0097     		str	r7, [sp]
 558 001c 0190     		str	r0, [sp, #4]
 559 001e 0396     		str	r6, [sp, #12]
 560 0020 0494     		str	r4, [sp, #16]
ARM GAS  /tmp/cc6dBTT4.s 			page 35


 561 0022 0592     		str	r2, [sp, #20]
 562              	.LVL12:
 563              	.LBB43:
 564              	.LBB44:
 565              	.LBB45:
 566              	.LBB46:
 567              		.loc 2 264 0
 568 0024 2023     		movs	r3, #32
 569              	@ 264 "../../../os/common/ext/CMSIS/include/cmsis_gcc.h" 1
 570 0026 83F31188 		MSR basepri, r3
 571              	@ 0 "" 2
 572              		.thumb
 573              	.LBE46:
 574              	.LBE45:
 575              	.LBE44:
 576              	.LBE43:
 577              		.loc 1 173 0
 578 002a 6846     		mov	r0, sp
 579              	.LVL13:
 580 002c FFF7FEFF 		bl	chThdCreateSuspendedI
 581              	.LVL14:
 582              		.loc 1 174 0
 583 0030 0223     		movs	r3, #2
 584 0032 80F82130 		strb	r3, [r0, #33]
 585              		.loc 1 175 0
 586 0036 0564     		str	r5, [r0, #64]
 587              		.loc 1 176 0
 588 0038 0021     		movs	r1, #0
 589              		.loc 1 173 0
 590 003a 0446     		mov	r4, r0
 591              	.LVL15:
 592              		.loc 1 176 0
 593 003c FFF7FEFF 		bl	chSchWakeupS
 594              	.LVL16:
 595              	.LBB47:
 596              	.LBB48:
 597              	.LBB49:
 598              	.LBB50:
 599              	.LBB51:
 600              		.loc 2 264 0
 601 0040 0023     		movs	r3, #0
 602              	@ 264 "../../../os/common/ext/CMSIS/include/cmsis_gcc.h" 1
 603 0042 83F31188 		MSR basepri, r3
 604              	@ 0 "" 2
 605              		.thumb
 606              	.LBE51:
 607              	.LBE50:
 608              	.LBE49:
 609              	.LBE48:
 610              	.LBE47:
 611              		.loc 1 179 0
 612 0046 2046     		mov	r0, r4
 613              	.LVL17:
 614              	.L6:
 615              		.loc 1 180 0
 616 0048 07B0     		add	sp, sp, #28
 617              		@ sp needed
ARM GAS  /tmp/cc6dBTT4.s 			page 36


 618 004a F0BD     		pop	{r4, r5, r6, r7, pc}
 619              		.cfi_endproc
 620              	.LFE189:
 621              		.size	chThdCreateFromMemoryPool, .-chThdCreateFromMemoryPool
 622 004c AFF30080 		.text
 623              	.Letext0:
 624              		.file 3 "/usr/lib/gcc/arm-none-eabi/4.8.2/include/stddef.h"
 625              		.file 4 "/usr/include/newlib/machine/_default_types.h"
 626              		.file 5 "/usr/include/newlib/stdint.h"
 627              		.file 6 "../../../os/common/ports/ARMCMx/compilers/GCC/chtypes.h"
 628              		.file 7 "../../../os/rt/include/chsystypes.h"
 629              		.file 8 "../../../os/rt/include/chschd.h"
 630              		.file 9 "../../../os/common/ports/ARMCMx/chcore.h"
 631              		.file 10 "../../../os/common/ports/ARMCMx/chcore_v7m.h"
 632              		.file 11 "../../../os/rt/include/chsem.h"
 633              		.file 12 "../../../os/rt/include/chmtx.h"
 634              		.file 13 "../../../os/rt/include/chthreads.h"
 635              		.file 14 "../../../os/common/oslib/include/chmemcore.h"
 636              		.file 15 "../../../os/common/oslib/include/chheap.h"
 637              		.file 16 "../../../os/common/oslib/include/chmempools.h"
 638              		.file 17 "../../../os/rt/include/chsys.h"
 639              		.file 18 "../../../os/common/ext/CMSIS/include/core_cm3.h"