ARM GAS  /tmp/cc6dBTT4.s 			page 1


   1              		.syntax unified
   2              		.cpu cortex-m3
   3              		.fpu softvfp
   4              		.eabi_attribute 20, 1
   5              		.eabi_attribute 21, 1
   6              		.eabi_attribute 23, 3
   7              		.eabi_attribute 24, 1
   8              		.eabi_attribute 25, 1
   9              		.eabi_attribute 26, 1
  10              		.eabi_attribute 30, 2
  11              		.eabi_attribute 34, 1
  12              		.eabi_attribute 18, 4
  13              		.thumb
  14              		.file	"chdynamic.c"
  15              		.text
  16              	.Ltext0:
  17              		.section	.gnu.lto_.jmpfuncs.9a564325d580dd3e,"",%progbits
  18 0000 789C6362 		.ascii	"x\234cb`b\300\006\"\2404\023\203=\023\003#c\007S\004"
  18      6062C006 
  18      22A03413 
  18      833D1303 
  18      23630753 
  19 0015 63262303 		.ascii	"c&#\003#\003\230f\004J\000133\220.cd\000R\214e\014\020"
  19      23039866 
  19      044A0031 
  19      3333902E 
  19      63640052 
  20 002d 29260E20 		.ascii	")&\016 G\036I\013\023\212\026F\250\026\006\000f\372"
  20      471E490B 
  20      138A1646 
  20      A8160600 
  20      66FA
  21 003f 0732     		.ascii	"\0072"
  22              		.text
  23              		.section	.gnu.lto_.inline.9a564325d580dd3e,"",%progbits
  24 0000 789C6362 		.ascii	"x\234cb`b\300\006\302\2414\023\203\204\224\021#\003"
  24      6062C006 
  24      C2A13413 
  24      83849411 
  24      2303
  25 0012 93C48A2D 		.ascii	"\223\304\212-\214\014l\013\344\301\252\231y\200\022"
  25      8C0C6C0B 
  25      E4C1AA99 
  25      798012
  26 0021 13FCC034 		.ascii	"\023\374\3004#\003+\037Pd\202\037\220\317\010Q+}\355"
  26      23032B1F 
  26      5064821F 
  26      90CF0851 
  26      2B7DED
  27 0034 142303FB 		.ascii	"\024#\003\373-5,j\301$\220\007\000\372L\012\354"
  27      2D352C6A 
  27      C1249007 
  27      00FA4C0A 
  27      EC
  28              		.text
  29              		.section	.gnu.lto_.pureconst.9a564325d580dd3e,"",%progbits
  30 0000 789C6362 		.ascii	"x\234cb`b`e\200\000&\006+F+\000\001\206\000\201"
ARM GAS  /tmp/cc6dBTT4.s 			page 2


  30      60626065 
  30      80002606 
  30      2B462B00 
  30      01860081 
  31              		.text
  32              		.section	.gnu.lto_chThdCreateFromHeap.9a564325d580dd3e,"",%progbits
  33 0000 789C8D54 		.ascii	"x\234\215T_H\034G\030\377\276\231]\357\232\323\250m"
  33      5F481C47 
  33      18FFBE99 
  33      5DEF9AD3 
  33      A86D
  34 0012 6CFE10F4 		.ascii	"l\376\020\364\020\204\2246nK\013ym\361I\202/1B\233\027"
  34      10849436 
  34      6E4B0B79 
  34      6DF14982 
  34      2F31429B 
  35 0027 59C74317 		.ascii	"Y\307C\027r\236\334^\022%\204LO+\226\226\"B\310\037"
  35      729EDC5E 
  35      1225844C 
  35      4F2B9696 
  35      2242C81F 
  36 003b 09890413 		.ascii	"\011\211\004\023\222\006,)m\365\241d\363\0071&\032\322"
  36      92062C29 
  36      6DF5A164 
  36      F3073126 
  36      1AD2
  37 004d A7F621F4 		.ascii	"\247\366!\364\300\207\246\025\032\202\205\206$\324~"
  37      C087A615 
  37      1A828586 
  37      24D47E
  38 005c B3B3BB9E 		.ascii	"\263\263\273\236\307Q\273z3;3\277\337|\277\375}\337"
  38      C751BB7A 
  38      333B33BF 
  38      DF7CBFFD 
  38      7DDF
  39 006e 0C0306A5 		.ascii	"\014\003\006\245\317\373\364\0331\001\026\251G\023\220"
  39      CFFBF41B 
  39      310116A9 
  39      471390
  40 007d 8D2D017C 		.ascii	"\215-\001|\032g\314X\340 \267\360\271\005\000Y\311\321"
  40      1A67CC58 
  40      E020B7F0 
  40      B9050059 
  40      C9D1
  41 008f D0F306A2 		.ascii	"\320\363\006\242z\001\204\223\214\033x\362\023T\233"
  41      7A018493 
  41      8C1B78F2 
  41      13549B
  42 009e F0469894 		.ascii	"\360F\230\224r\2740\265\362\004\317Jo\370\242|\265\266"
  42      72BC30B5 
  42      F204CF4A 
  42      6FF8A27C 
  42      B5B6
  43 00b0 86E82005 		.ascii	"\206\350 \005lD\020\010\037\323\000\223~\307\214\215"
  43      6C441008 
  43      1FD30093 
  43      7EC78C8D 
ARM GAS  /tmp/cc6dBTT4.s 			page 3


  44 00c0 0A34D77B 		.ascii	"\0124\327{<\367\345Ny1?&\377!\252\203\234A\323\377a"
  44      3CF7E54E 
  44      79313F26 
  44      FF21AA83 
  44      9C41D3FF 
  45 00d5 7A63DECB 		.ascii	"zc\336\313\271\323X\3044\030\274\265\316\364t\317vl"
  45      B9D358C4 
  45      3418BCB5 
  45      CEF474CF 
  45      766C
  46 00e7 A44E33AF 		.ascii	"\244N3\257\260\266\366\340\273\231\345\025\254\335\215"
  46      B0B6F6E0 
  46      BB99E515 
  46      ACDD8D
  47 00f6 40520D4C 		.ascii	"@R\015L#\230\324`\014l\274\204\215\020\247\001K\320"
  47      2398D460 
  47      0C6CBC84 
  47      8D10A701 
  47      4BD0
  48 0108 9A59456F 		.ascii	"\232YEo\274\232\032\243\226\032\263\216\000\223\004"
  48      BC9A1AA3 
  48      961AB38E 
  48      009304
  49 0117 A0C78461 		.ascii	"\240\307\204a)\307\222z\254i6N\371k\302\367\346 \265"
  49      29C7927A 
  49      AC69364E 
  49      F96BC2F7 
  49      E620B5
  50 012a CAB20E64 		.ascii	"\312\262\016d\252\347\017a\2440\263\2146^!\273{0v\034"
  50      AAE70F61 
  50      A430B38C 
  50      365E21BB 
  50      7B30761C 
  51 013e 5EC85159 		.ascii	"^\310QY\343`\205@\237@\223F\017\232Ju,N\301\343\000"
  51      E3608540 
  51      9F409346 
  51      0F9A4A75 
  51      2C4EC1E3 
  52 0153 F78069BC 		.ascii	"\367\200i\274\016@,\200y\270\373\333\255\325\021\036"
  52      0E402C80 
  52      79B8FBDB 
  52      ADD5111E 
  53 0163 6DA408BC 		.ascii	"m\244\010\274\370\033;hH\351\343\213\220\277?\363\364"
  53      F81B3B68 
  53      48E9E38B 
  53      90BF3FF3 
  53      F4
  54 0174 79B0C5DB 		.ascii	"y\260\305\333pMJ\025\3575\255\263K\007\245\035\342\252"
  54      704D4A15 
  54      EF35ADB3 
  54      4B07A51D 
  54      E2AA
  55 0186 0AF2AD25 		.ascii	"\012\362\255%03\204\205\342b\0126\364\305\320\245\257"
  55      30338485 
  55      E2620A36 
  55      F4C5D0A5 
  55      AF
ARM GAS  /tmp/cc6dBTT4.s 			page 4


  56 0197 CC307682 		.ascii	"\3140v\202fI\262\317\277W&T\264\007\013\366H\370\320"
  56      6649B2CF 
  56      BF572654 
  56      B4070BF6 
  56      48F8D0
  57 01aa FD25B02D 		.ascii	"\375%\260-!\214\007\260\252\262\260D\0103\002XuY\030"
  57      218C07B0 
  57      AAB2B044 
  57      08330258 
  57      755918
  58 01bd 0F616600 		.ascii	"\017af\000\253UF\346\343a\305\025f\257.\336\302\361"
  58      AB5546E6 
  58      E361C515 
  58      66AF2EDE 
  58      C2F1
  59 01cf 21392F87 		.ascii	"!9/\207=\252\234\006\007+\031\034\332\254\350\324\\"
  59      3DAA9C06 
  59      072B191C 
  59      DAACE8D4 
  59      5C
  60 01e0 65925E96 		.ascii	"e\222^\226 \377l~\350\362\256\240\002\302R\360V\177"
  60      20FF6C7E 
  60      E8F2AEA0 
  60      02C252F0 
  60      567F
  61 01f2 9AE07B6C 		.ascii	"\232\340{l\234\366k \230\373\372\324\363\304\356h\364"
  61      9CF66B20 
  61      98FBFAD4 
  61      F3C4EE68 
  61      F4
  62 0203 F99FE4A5 		.ascii	"\371\237\344\245V+\310\022A\337+\364\307 \375\335\240"
  62      562BC812 
  62      41DF2BF4 
  62      C720FDDD 
  62      A0
  63 0214 21F9C4F5 		.ascii	"!\371\304\365a\255\207;x^\236\371\320Qf\024E__\237\013"
  63      61AD873B 
  63      785E9EF9 
  63      D0516614 
  63      455F5F9F 
  64 0229 D6B76A7D 		.ascii	"\326\267j}\017a\270\360\370NT_uQ}U\213\300\0115C\317"
  64      0F61B8F0 
  64      F84E545F 
  64      75517D55 
  64      8BC00935 
  65 023f 09076BB4 		.ascii	"\011\007k\264E\032K\245\246\035\362*\302b\233\364\213"
  65      451A4BA5 
  65      A61DF22A 
  65      C2629BF4 
  65      8B
  66 0250 ADCEB777 		.ascii	"\255\316\267w\346\347\277\237`\261\3052\341\340\353"
  66      E6E7BF9F 
  66      60B1C532 
  66      E1E0EB
  67 025f 13708E14 		.ascii	"\023p\216\024\275A \245L+\350\302\212\310\251m\350K"
  67      BD4120A5 
  67      4C2BE8C2 
ARM GAS  /tmp/cc6dBTT4.s 			page 5


  67      8AC8A96D 
  67      E84B
  68 0271 FAACF0EB 		.ascii	"\372\254\360\353r,\010\003\221\242:\021 \003\372\233"
  68      722C0803 
  68      91A23A11 
  68      2003FA9B 
  69 0281 4AC3F6D2 		.ascii	"J\303\366\322,\375\276T\232%\033\277\361m\3334M\360"
  69      2CFDBE54 
  69      9A251BBF 
  69      F16DDB34 
  69      4DF0
  70 0293 5F69FAE3 		.ascii	"_i\372\343\274J\323\315\215i\272PU\037\235\351\365|"
  70      BC4AD3CD 
  70      8D69BA50 
  70      551F9DE9 
  70      F57C
  71 02a5 FD5594AF 		.ascii	"\375U\224\257\030\370G;^&e6~O/Q\3440E6\316b}\361\261"
  71      18F8473B 
  71      5E266536 
  71      7E4F2F51 
  71      E4304536 
  72 02be 34FC8B60 		.ascii	"4\374\213`\021n\257D\307Z\245\341\003\370V\216\252\013"
  72      116EAF44 
  72      C75AA5E1 
  72      03F8568E 
  72      AA0B
  73 02d0 8C408FE8 		.ascii	"\214@\217\350\256U\276\370\226\376\002\030\270\313\256"
  73      AE55BEF8 
  73      96FE0218 
  73      B8CBAE
  74 02df FFB08DCC 		.ascii	"\377\260\215\314\342\327\177\254T7\013\252\215T\214"
  74      E2D77FAC 
  74      54370BAA 
  74      8D548C
  75 02ee 86E6664B 		.ascii	"\206\346fK\377g\\+\233\263\334\254\260Do\367`\237\235"
  75      FF675C2B 
  75      9BB3DCAC 
  75      B0446FF7 
  75      609F9D
  76 0301 7644B300 		.ascii	"vD\263\000\226\353\347\307\334~\226\353\336[\214\024"
  76      96EBE7C7 
  76      DC7E96EB 
  76      DE5B8C14 
  77 0311 99743AD3 		.ascii	"\231t:\323g\365g\2629\327\372\350@[K\333\000\321D&\233"
  77      67F567B2 
  77      39D7FAE8 
  77      405B4BDB 
  77      00D14426 
  78 0326 EA3CBA2F 		.ascii	"\352<\272/\335\334\013\346Q\373\360\221\324{e8\251\201"
  78      DDDC0BE6 
  78      51FBF091 
  78      D47B6538 
  78      A981
  79 0338 9CD5D2D6 		.ascii	"\234\325\322\326\336\332n9}\342\360\221\356\224%\322"
  79      DEDA6E39 
  79      7DE2F091 
  79      EE9425D2 
ARM GAS  /tmp/cc6dBTT4.s 			page 6


  80 0348 AEE376F6 		.ascii	"\256\343v\366\010A\274R=\021\246\327\035ti\275\246\255"
  80      0841BC52 
  80      3D11A6D7 
  80      1D7469BD 
  80      A6AD
  81 035a FD40B2CB 		.ascii	"\375@\262\313vS\375Y\347\235d\323\273\300\262\020K\247"
  81      7653FD59 
  81      E79D64D3 
  81      BBC0B210 
  81      4BA7
  82 036c D299EC20 		.ascii	"\322\231\354 \374\013\033\373\201\356"
  82      FC0B1BFB 
  82      81EE
  83              		.text
  84              		.section	.gnu.lto_chThdCreateFromMemoryPool.9a564325d580dd3e,"",%progbits
  85 0000 789C8D54 		.ascii	"x\234\215T[hTG\030\376\377\231\263\2731\2334\211\032"
  85      5B685447 
  85      18FEFF99 
  85      B3BB319B 
  85      34891A
  86 0013 ABD2C625 		.ascii	"\253\322\306% \324\2529\212\202\257\026\237D\362b\024"
  86      20D4AA39 
  86      8A82AF16 
  86      9F44F262 
  86      14
  87 0024 DABEC8C9 		.ascii	"\332\276\310\311d1\007<\331\260g\275\004\021\307M\004"
  87      6431073C 
  87      D9B067BD 
  87      0411C74D 
  87      04
  88 0035 6F0F4110 		.ascii	"o\017A\020o\210\006Q\321J\245\351CS\332\207\343\225"
  88      6F880651 
  88      D14AA5E9 
  88      4353DA87 
  88      E395
  89 0047 24BA1185 		.ascii	"$\272\021\205\242\021\204}\0115-\024\252>x\303\370\317"
  89      A211847D 
  89      09352D14 
  89      AA3E78C3 
  89      F8CF
  90 0059 9C8B9B75 		.ascii	"\234\213\233uQO\2623gf\276o\376o\276\377?\303\200A\371"
  90      514FB233 
  90      6766BE6F 
  90      FE6FBEFF 
  90      3FC38041 
  91 006e B3827E4F 		.ascii	"\263\202~Oc\000\005\3521\006\310\372\307\000\366T1f"
  91      630005EA 
  91      3106C8FA 
  91      C700F654 
  91      3166
  92 0080 8C7290D5 		.ascii	"\214r\220\325\374\326(\200\254\341h\370\363\006\242"
  92      FCD62880 
  92      ACE168F8 
  92      F306A2
  93 008f 7A0184DD 		.ascii	"z\001\204\335\214\033\270\373\007T\233\360f\030\220"
  93      8C1BB8FB 
  93      07549BF0 
ARM GAS  /tmp/cc6dBTT4.s 			page 7


  93      661890
  94 009e F27071E2 		.ascii	"\362pq\342\322$\036\227^\337\031\371fj\012\321F\012"
  94      D2241E97 
  94      5EDF19F9 
  94      666A0AD1 
  94      460A
  95 00b0 D88C2010 		.ascii	"\330\214 \020\276\247\001\246t\307\214\351\012|\256"
  95      BEA701A6 
  95      74C78CE9 
  95      0A7CAE
  96 00bf 373E7A68 		.ascii	"7>zh\236<\223\357\227o\211j#g\260\360s\230^\277\367"
  96      9E3C93EF 
  96      976F896A 
  96      2367B0F0 
  96      73985EBF 
  97 00d4 7AF42896 		.ascii	"z\364(\2260\015\006\213\3363=\277gs\247S\2570\25785"
  97      300D068B 
  97      DE333DBF 
  97      6773A753 
  97      AF30AF38 
  98 00e9 75F9AF27 		.ascii	"u\371\257'\207\356\340\317\354k\004\322j\240\203\020"
  98      87EEE0CF 
  98      EC6B04D2 
  98      6AA08310 
  99 00f9 070BCF62 		.ascii	"\007\013\317b3$h\200\3254\035KR\023\257\245!\253\243"
  99      33246880 
  99      D5341D4B 
  99      5213AFA5 
  99      21ABA3
 100 010c 86375063 		.ascii	"\2067Pc4\022j\200P\364\304\240O\312\376\224?\366\271"
 100      34126A80 
 100      50F4C4A0 
 100      4FCAFE94 
 100      3FF6B9
 101 011f 0EC62C3C 		.ascii	"\016\306,<\247\227\205\366g\003\265\312\266\215\310"
 101      A79785F6 
 101      6703B5CA 
 101      B68DC8
 102 012e 54CFEF42 		.ascii	"T\317\357B_qh\002-\274@\226o\306\370Nx%\367\311z\033"
 102      5F716802 
 102      2DBC4096 
 102      6FC6F84E 
 102      7825F7C9 
 103 0144 13023581 		.ascii	"\023\0025\201&\015\033\253\000F\200\371(\177g\302\002"
 103      260D1BAB 
 103      004680F9 
 103      287F67C2 
 103      02
 104 0155 0CC38DBF 		.ascii	"\014\303\215\277\257>;\300#\272: /=\335F\032R\342x\001"
 104      AF3E3BC0 
 104      23BA3A20 
 104      2F3DDD46 
 104      1A52E278 
 105 016a F2B787AE 		.ascii	"\362\267\207\256\274\014\266X\014\227\244TQf\370\352"
 105      BC0CB658 
 105      0C97A454 
 105      5166F8EA 
ARM GAS  /tmp/cc6dBTT4.s 			page 8


 106 017a DAFD50B4 		.ascii	"\332\375P\264CB\345?\277\266\014\026\017a\241\244\270"
 106      4342E53F 
 106      BFB60C16 
 106      0F61A1A4 
 106      B8
 107 018b 863D3A36 		.ascii	"\206=:68n\204\261\253\027\303\2676V\237\204\023{\210"
 107      386E84B1 
 107      AB17C3B7 
 107      36569F84 
 107      137B88
 108 019e 749A8424 		.ascii	"t\232\204$I\272\022T\243I\355\030\226\\\001z\017\366"
 108      49BA1254 
 108      A349ED18 
 108      965C017A 
 108      0FF6
 109 01b0 CE097984 		.ascii	"\316\011y\204\212\023[o8RAb\024\233\007\261\223\032"
 109      8A135B6F 
 109      38524162 
 109      149B07B1 
 109      931A
 110 01c2 BAAE0C56 		.ascii	"\272\256\014V\033\302\214\000V[\021\366E\010\213\005"
 110      1BC28C00 
 110      565B11F6 
 110      45088B05 
 111 01d2 B0BA8A30 		.ascii	"\260\272\2120\036\302\342\001\254A% _\025\326h\361\367"
 111      1EC2E201 
 111      AC412520 
 111      5F15D668 
 111      F1F7
 112 01e4 8B85AB78 		.ascii	"\213\205\253x\270W\016\313>\217jm\201\215u\014~\374"
 112      B8570ECB 
 112      3E8F6A6D 
 112      818D750C 
 112      7EFC
 113 01f6 5499AAB9 		.ascii	"T\231\252\271\272\024\275\214A\376\377\341\336\363\363"
 113      BA14BD8C 
 113      41FEFFE1 
 113      DEF3F3
 114 0205 8392096B 		.ascii	"\203\222\011k\307{v\377$\377\306\302_t\305\004s?\035"
 114      C77B76FF 
 114      24FFC6C2 
 114      5F74C504 
 114      733F1D
 115 0218 7991FC2A 		.ascii	"y\221\374*\032\355\377\217l\364\325\012rT\220-\302?"
 115      1AEDFF8F 
 115      6CF4D50A 
 115      7254902D 
 115      C23F
 116 022a 33D2DF20 		.ascii	"3\322\337 \015i\235\373\237w\023\\\307S\362\330j\033"
 116      0D699DFB 
 116      9F77135C 
 116      C753F2D8 
 116      6A1B
 117 023c EBA7457F 		.ascii	"\353\247E\177\277~+Xo\360\365\251j||3\252\306\306\250"
 117      BF7E2B58 
 117      6FF0F5A9 
 117      6A7C7C33 
ARM GAS  /tmp/cc6dBTT4.s 			page 9


 117      AAC6C6A8 
 118 0250 1A678AC0 		.ascii	"\032g\212\30005C\317.\033g\371\026\371X\3720fk\207\274"
 118      303543CF 
 118      2E1B67F9 
 118      16F958FA 
 118      30666B87 
 119 0265 7858A403 		.ascii	"xX\244\003\272H\033\265\275C\017\177\233\304R\213e\322"
 119      BA481BB5 
 119      BD430F7F 
 119      9BC4528B 
 119      65D2
 120 0277 C6462A15 		.ascii	"\306F*\025R4\207@J\031\004U\222\210\234\372\222\351"
 120      52348740 
 120      4A190455 
 120      92889CFA 
 120      92E9
 121 0289 62C9DF7E 		.ascii	"b\311\337~Q\201\315+\263\253\302oF\035fo\361\311D\""
 121      5181CD2B 
 121      B3ABC26F 
 121      461D666F 
 121      F1C94422 
 122 029d 1008D159 		.ascii	"\020\010\321Y\346\212(\253\232:O\251\237_\236\337\311"
 122      E68A28AB 
 122      9A3A4FA9 
 122      9F5F9EDF 
 122      C9
 123 02ae B1F2FC5A 		.ascii	"\261\362\374Z8\250\015\377d\202\341c\011\376\347\224"
 123      38A80DFF 
 123      6482E163 
 123      09FEE794 
 124 02be 4AF0F5E9 		.ascii	"J\360\365\351\011>]\333\024]\037\321\364\310\363\222"
 124      093E5DDB 
 124      145D1FD1 
 124      F4C8F392 
 125 02ce 4C6B5704 		.ascii	"LkW\004\035\357\303d[8D/Q\3440\271\026\376\201M\245"
 125      1DEFC364 
 125      5B38442F 
 125      51E430B9 
 125      16FE814D 
 126 02e3 1781A12F 		.ascii	"\027\201\241/\234\002\\\3737\272HT\002W\302\257r\237"
 126      9C025CFB 
 126      37BA4854 
 126      0257C2AF 
 126      729F
 127 02f5 BA2C0974 		.ascii	"\272,\011t\217\356u\345\213\266s\0340p\226]~0\233\314"
 127      8FEE75E5 
 127      8BB6731C 
 127      3070965D 
 127      7E309BCC 
 128 0309 E27F3EAE 		.ascii	"\342\177>\256Q7\030\252\215T\214\005--\246\377\237q"
 128      513718AA 
 128      8D548C05 
 128      2D2DA6FF 
 128      9F71
 129 031b CD6CCE74 		.ascii	"\315l\316t\263\302\024\235\035=]\226c\213\026\001,\327"
 129      B3C2149D 
 129      1D3D5D96 
ARM GAS  /tmp/cc6dBTT4.s 			page 10


 129      638B1601 
 129      2CD7
 130 032d CDB7BBDD 		.ascii	"\315\267\273\335,\327\261\264\024)2\216\223\3512\273"
 130      2CD7B1B4 
 130      1429328E 
 130      93E932BB 
 131 033d 33D99C6B 		.ascii	"3\331\234k~\267\276uM\353\016\242\211L6\275i\333*\247"
 131      7EB7BE75 
 131      4DEB0EA2 
 131      894C36BD 
 131      69DB2AA7 
 132 0351 A51362DB 		.ascii	"\245\023b\333\254-[\323\313+p\322;r\346\232\326\266"
 132      AC2D5BD3 
 132      CB2B70D2 
 132      3B72E69A 
 132      D6B6
 133 0363 B56DA6DD 		.ascii	"\265m\246\335%\266l\355H\233\302qmw\323f!\210W\256'"
 133      25B66CED 
 133      489BC271 
 133      6D77D366 
 133      218857AE 
 134 0378 C274BA3D 		.ascii	"\302t\272=.\255\327\267\266\255O\265[n\272;k/I-\\\006"
 134      2EADD7B7 
 134      B6AD4FB5 
 134      5B6EBA3B 
 134      6B2F492D 
 135 038e 2C0B0927 		.ascii	",\013\011'\355d\262=\360\016\241+\232_"
 135      ED64B23D 
 135      F00EA12B 
 135      9A5F
 136              		.text
 137              		.section	.gnu.lto_.symbol_nodes.9a564325d580dd3e,"",%progbits
 138 0000 789C45CD 		.ascii	"x\234E\315\273\015\2000\014\004\320;;\254\301\252\216"
 138      BB0D8030 
 138      0C04D03B 
 138      3BACC1AA 
 138      8E
 139 0011 940244C5 		.ascii	"\224\002D\305\0044Y\203\237\030\200\031\220\230\003"
 139      04345983 
 139      9F188019 
 139      909803
 140 0020 44F888B8 		.ascii	"D\370\210\2709\275\273\302\002A\215\357\244\247\001"
 140      39BDBBC2 
 140      02418DEF 
 140      A4A701
 141 002f ED0A9875 		.ascii	"\355\012\230u5e\2401\2233M^zON4\315\032i.k\241\025\277"
 141      3565A031 
 141      93334D5E 
 141      7A4F4E34 
 141      CD1A692E 
 142 0047 140E613B 		.ascii	"\024\016a;S*Bu\224\232^\356w\262x\373\264\304\307\202"
 142      532A4275 
 142      949A5EEE 
 142      77B278FB 
 142      B4C4C782 
 143 005b D81C252E 		.ascii	"\330\034%.\024((\275"
 143      142828BD 
ARM GAS  /tmp/cc6dBTT4.s 			page 11


 144              		.text
 145              		.section	.gnu.lto_.refs.9a564325d580dd3e,"",%progbits
 146 0000 789C6362 		.ascii	"x\234cb`b`d\200\002\000\000F\000\006"
 146      60626064 
 146      80020000 
 146      460006
 147              		.text
 148              		.section	.gnu.lto_.decls.9a564325d580dd3e,"",%progbits
 149 0000 789CBD5B 		.ascii	"x\234\275[{t\024\325\031\277wfw\223%\001\251\036=\241"
 149      7B7414D5 
 149      19BF7766 
 149      77932501 
 149      A91E3DA1 
 150 0014 B5C7D86A 		.ascii	"\265\307\330jOK+Ak[\3549\255Z\332\212\347\324\036O\251"
 150      4F4B2B41 
 150      6B5BEC39 
 150      AD5ADA8A 
 150      E7D41E4F 
 151 0029 A7ED3FDD 		.ascii	"\247\355?\335\216\233!\331\222}tvB\240\3778\004L\020"
 151      8E9B21D9 
 151      927D7476 
 151      42A0FF38 
 151      044C10
 152 003c B584440A 		.ascii	"\265\204D\012(`xD\245B9\210(\012\305\025%D@^\021B\004"
 152      28607844 
 152      A5423988 
 152      280AC515 
 152      2544405E 
 153 0053 64A12085 		.ascii	"d\241 \205\312\273\220\006\245\351w\277\231\331\235"
 153      CABB9006 
 153      A5E977BF 
 153      99D99D
 154 0062 B93BB33B 		.ascii	"\271;\263;\033j\347\344\336y\335\373\273\337\373~\367"
 154      1B6AE7E4 
 154      DE79DDFB 
 154      BBDFFB7E 
 154      F7
 155 0073 CE462002 		.ascii	"\316F \002)\027\010\031\200#z\017!\255\001BDB\310\017"
 155      29170819 
 155      80237A0F 
 155      21AD0142 
 155      4442C80F 
 156 0087 897EA650 		.ascii	"\211~\246P\340\021\361\023\375`\327\213\241,\201\027"
 156      E011F113 
 156      FD60D78B 
 156      A12C8117 
 157 0097 5BA06C87 		.ascii	"[\240l\207\222\206\3621%9\007kW\001e)\224aP\312\241"
 157      9286F231 
 157      2539076B 
 157      57016529 
 157      946150CA 
 158 00ac DC0B650F 		.ascii	"\334\013e\017\264=\003\347ST\307=\002\347\023p^\007"
 158      B43D03E7 
 158      5354C73D 
 158      02E71370 
 158      5E07
 159 00be A505AED7 		.ascii	"\245\005\256\327\303\371\237p>\015\345,\224sP\336gm"
ARM GAS  /tmp/cc6dBTT4.s 			page 12


 159      C3F99F70 
 159      3E0DE52C 
 159      947350DE 
 159      676D
 160 00d0 A12C3368 		.ascii	"\241,3h:OuZ\272\340\\\002\347\275p\336\007e?\224\017"
 160      3A4F755A 
 160      BAE05C02 
 160      E7BD70DE 
 160      07653F94 
 161 00e5 A11C8072 		.ascii	"\241\034\200r\010\212\017J\320\240\205\321y\001\312"
 161      088A0F4A 
 161      D0A085D1 
 161      7901CA
 162 00f4 6528FD06 		.ascii	"e(\375\006\355\214\007\001\370\367\013:\336<\270\177"
 162      ED8C0701 
 162      F8F70B3A 
 162      DE3CB87F 
 163 0104 16CA7350 		.ascii	"\026\312sP\026@Y\010\345y\2167\306\373\227\\\370b\374"
 163      16405908 
 163      E5798E37 
 163      C6FB975C 
 163      F862FC
 164 0117 30DE4A01 		.ascii	"0\336J\001\357\204\301W\015\234_\200\322A\007\317c\320"
 164      EF84C157 
 164      0D9C5F80 
 164      D24107CF 
 164      63D0
 165 0129 C2E36A17 		.ascii	"\302\343j\027>\177c\264[b\350\243\020\257)\270\337\004"
 165      3E7F63B4 
 165      5B62E8A3 
 165      10AF29B8 
 165      DF04
 166 013b E51D28EF 		.ascii	"\345\035(\357B\331\314\372\013v^o!\213\264\366tz\363"
 166      42D9CCFA 
 166      0B765E6F 
 166      218BB4F6 
 166      747AF3
 167 014e A9FD74BE 		.ascii	"\251\375t\276\226\232\256\015\014<Fn\"s48\332\2334\215"
 167      969AAE0D 
 167      0C3C466E 
 167      22733438 
 167      DA9B348D 
 168 0162 AA6564A6 		.ascii	"\252ed\246\2465\262\233q]\303\256'\263\331\233\312."
 168      A635B29B 
 168      715DC3AE 
 168      27B3D99B 
 168      CA2E
 169 0174 10CBAFA9 		.ascii	"\020\313\257\251D\207\005I\273\017\257\312\203\344\307"
 169      44870549 
 169      BB0FAFCA 
 169      83E4C7
 170 0183 00773B59 		.ascii	"\000w;Y\246i-\3519W\273EM+\225\3502z=\030\340\003\224"
 170      A6692DE9 
 170      3957BB45 
 170      4D2B95E8 
 170      327A3D18 
 171 019a 8C24CBA1 		.ascii	"\214$\313\241c\013@\215t\260$R\020X \277\242D\242/\001"
ARM GAS  /tmp/cc6dBTT4.s 			page 13


 171      630B408D 
 171      74B02452 
 171      105820BF 
 171      A244A22F 
 172 01af 9E445FA4 		.ascii	"\236D_\244#\365\221\264t[\363\241F:\025\010\325\337"
 172      23F591B4 
 172      745BF3A1 
 172      463A1508 
 172      D5DF
 173 01c1 11E3ADC3 		.ascii	"\021\343\255\303q+i\207\016\251\276\255\013\250\326"
 173      712B6987 
 173      0EA9BEAD 
 173      0BA8D6
 174 01d0 BE893A8C 		.ascii	"\276\211:\214x\2379`\251\205\223\305O?\210\234\254@"
 174      789F3960 
 174      A98593C5 
 174      4F3F889C 
 174      AC40
 175 01e2 4E1A29B5 		.ascii	"N\032)\265\215`\240\264\337\347\006#\220V\354\262*\207"
 175      8D60A0B4 
 175      DFE70623 
 175      9056ECB2 
 175      2A87
 176 01f4 F02D3B4D 		.ascii	"\360-;M\302Wy \2741\265{\346\302\021\214p\211.\245e"
 176      C2577920 
 176      BC31B57B 
 176      E6C2118C 
 176      70892EA5 
 177 0209 80BB3483 		.ascii	"\200\2734\203k\214[i\216\353#\304\274\324\017\243\201"
 177      6B8C5B69 
 177      8EEB23C4 
 177      BCD40FA3 
 177      81
 178 021a 1D6FCFD6 		.ascii	"\035o\317\326\362\026\311\004{\251h\260J'R\365\303\312"
 178      F216C904 
 178      7BA968B0 
 178      4A2752F5 
 178      C3CA
 179 022c AD4457D3 		.ascii	"\255DW\323\333\241~\205\336\012\365\253Pg\016\201\254"
 179      DBA17E85 
 179      DE0AF5AB 
 179      50670E81 
 179      AC
 180 023d A4A64E9D 		.ascii	"\244\246N\235DW\230\205\376\255\013P$A2#k\243\304\221"
 180      44579885 
 180      FEAD0B50 
 180      24413223 
 180      6BA3C491 
 181 0251 05439D3D 		.ascii	"\005C\235=O\276\273\233NC\251\257\203n\002\371\204S"
 181      4FBEBB9B 
 181      4E43A9AF 
 181      836E02F9 
 181      8453
 182 0263 A877A8DE 		.ascii	"\250w\250\336Y\233\337\246\215\010\265\036\241Z\205"
 182      599BDFA6 
 182      8D08B51E 
 182      A15A85
ARM GAS  /tmp/cc6dBTT4.s 			page 14


 183 0272 C142F5B5 		.ascii	"\301B\365\265n\270\007\215l#\002\275\307\001I\264$\303"
 183      6EB8078D 
 183      6C2302BD 
 183      C70149B4 
 183      24C3
 184 0284 79E6DE6C 		.ascii	"y\346\336l\300\320\360\265q\301\002\375u\344sn.\220"
 184      C0D0F0B5 
 184      71C102FD 
 184      75E4736E 
 184      2E90
 185 0296 0F044E75 		.ascii	"\017\004NuN\006S\352\246:-\335\272\345#\201\005\034"
 185      4E0653EA 
 185      A63A2DDD 
 185      BAE52381 
 185      051C
 186 02a8 D1F4A080 		.ascii	"\321\364\240\200\233\214\004\322\213c\275\303{\320\302"
 186      9B8C04D2 
 186      8B63BDC3 
 186      7BD0C2
 187 02b7 9EEDA607 		.ascii	"\236\355\246\007\275\343\311\203\326n\235\213\346R0"
 187      BDE3C983 
 187      D66E9D8B 
 187      E65230
 188 02c6 A409E6F8 		.ascii	"\244\011\346\370\267\341\370-\"\033\277\213\037\277"
 188      B7E1F82D 
 188      221BBF8B 
 188      1FBF
 189 02d4 FFC3838F 		.ascii	"\377\303\203\217\033\343wy\032\377\215\236gr\307\227"
 189      1BE37779 
 189      1AFF8D9E 
 189      6772C797 
 190 02e4 E80F6FCC 		.ascii	"\350\017o\314g\033\013{>>o\214\262\035]u\253\310[\307"
 190      671B0B7B 
 190      3E3E6F8C 
 190      B21D5D75 
 190      ABC85BC7 
 191 02f8 BD6576FD 		.ascii	"\275ev\375\301\275\245\201@\2723\364\017*R\000\243g"
 191      C1BDA581 
 191      40BA33F4 
 191      0F2A5200 
 191      A367
 192 030a E6D0D669 		.ascii	"\346\320\326iZ\327h\223\206}E#V\332$\261\241\007c\217"
 192      5AD76893 
 192      867D4523 
 192      56DA24B1 
 192      A107638F 
 193 031e 0ED6EB05 		.ascii	"\016\326\353\005\314\325\224\032S\033\255`\007\213\006"
 193      CCD5941A 
 193      531BAD60 
 193      078B06
 194 032d B353B6CB 		.ascii	"\263S\266\313\012v\330\013\330pw\312\366X\301\216\026"
 194      0A76D80B 
 194      D87077CA 
 194      F658C18E 
 194      16
 195 033e 0D66A7EC 		.ascii	"\015f\247\354\003+\330q/`\025\356\224\355\263\202\235"
 195      032BD871 
ARM GAS  /tmp/cc6dBTT4.s 			page 15


 195      2F6015EE 
 195      94EDB382 
 195      9D
 196 034f 2C1ACC4E 		.ascii	",\032\314N\331~+\330i/`\225\016\224e\016\247~\314\254"
 196      D97E2BD8 
 196      692F6095 
 196      0E94650E 
 196      A77ECCAC 
 197 0363 B7D08C9D 		.ascii	"\267\320\214\235\013\344\234h\306\204\"m\232d1.\212"
 197      0BE49C68 
 197      C684226D 
 197      9A64312E 
 197      8A
 198 0374 C5C6301B 		.ascii	"\305\3060\033\3370\205\037^B\333t\277\320\247\321>/"
 198      DF30851F 
 198      5E42DB74 
 198      BFD0A7D1 
 198      3E2F
 199 0386 88790CA6 		.ascii	"\210y\014\246e\233eN\276Z4\230]-\213\030\230-\326\030"
 199      659B654E 
 199      BE5A3498 
 199      5D2D8B18 
 199      982DD618 
 200 039a 3352BA23 		.ascii	"3R\272#U1/\033\356JM,\226\230\351\261\015\3624!\323"
 200      55312F1B 
 200      EE4A4D2C 
 200      9698E9B1 
 200      0DF23421 
 201 03af 58ABA870 		.ascii	"X\253\250pn+\321\2238\267\237\242\301\014\025\372\265"
 201      6E2BD193 
 201      38B79FA2 
 201      C10C15FA 
 201      B5
 202 03c0 7935C032 		.ascii	"y5\3002R2\315\347\224\362!@\376\256n\226p\302j\0113"
 202      5232CDE7 
 202      94F22140 
 202      FEAE6E96 
 202      70C26A09 
 203 03d5 7C1EC494 		.ascii	"|\036\304\224\307\025v\271\211)\325\244\315\240SW\337"
 203      C71576B9 
 203      8929D5A4 
 203      CDA05357 
 203      DF
 204 03e6 9C373F5C 		.ascii	"\2347?\\\330sf\261\221\005\234\305\311\373i\237c\026"
 204      D87366B1 
 204      91059CC5 
 204      C9FB699F 
 204      6316
 205 03f8 E009AC77 		.ascii	"\340\011\254w\326N3\245\270\200`\363\006\017\326\336"
 205      D64E33A5 
 205      B88060F3 
 205      060FD6DE 
 206 0408 B7E766CD 		.ascii	"\267\347f\315'\321K\010\264\330\307O\032A.\245\010\332"
 206      27D14B08 
 206      B4D8C74F 
 206      1A412EA5 
 206      08DA
ARM GAS  /tmp/cc6dBTT4.s 			page 16


 207 041a 27FD6030 		.ascii	"'\375`0{1`\036v5~\256}\334T\177\306\252\372\025E\253"
 207      7B31601E 
 207      76357EAE 
 207      7DDC547F 
 207      C6AAFA15 
 208 0430 DEE62190 		.ascii	"\336\346!\220\204\\\026\346j\251\251\242\305\326\363"
 208      845C16E6 
 208      6AA9A9A2 
 208      C5D6F3
 209 043f 3A062490 		.ascii	":\006$\220\3336\376\000S\265+(\3275\316\012\362\000"
 209      DB36FE00 
 209      53B52B28 
 209      D735CE0A 
 209      F200
 210 0451 D43B6BE5 		.ascii	"\324;k\3457\021\350*\002m\0304P_\353\2421\010\304\\"
 210      3711E82A 
 210      026D1834 
 210      505FEBA2 
 210      3108C45C 
 211 0465 5620EFE6 		.ascii	"V \357\346h\232r\232\246v\015d\274\316p\272\317\253"
 211      689A729A 
 211      A6760D64 
 211      BCCE70BA 
 211      CFAB
 212 0477 AD4076F0 		.ascii	"\255@v\360\352\262\261\223gj\310\304\333\317Z\351\305"
 212      EAB2B193 
 212      676AC8C4 
 212      DBCF5AE9 
 212      C5
 213 0488 466DDEE8 		.ascii	"Fm\336\350\"\364\365\244\241\257\307Q:\037\344H\347"
 213      22F4F5A4 
 213      A1AFC751 
 213      3A1FE448 
 213      E7
 214 0499 6A91E281 		.ascii	"j\221\342\201\024\243h6J\355l4\017\014\202\215\267t"
 214      14A36836 
 214      4AED6C34 
 214      0F0C828D 
 214      B774
 215 04ab 3666221B 		.ascii	"6f\"\033G\377\007l\234*\232\215\341\0266p\001\373\214"
 215      47FF076C 
 215      9C2A9A8D 
 215      E1163670 
 215      01FB8C
 216 04be 3EFBDD40 		.ascii	">\373\335@Z\363\247\360\214\236Y\302\015\266\3649\265"
 216      5AF3A7F0 
 216      8C9E59C2 
 216      0DB6F439 
 216      B5
 217 04cf 7707ADD4 		.ascii	"w\007\255\324\037\027^\264_\334aY\350i\236\026z\333"
 217      1F175EB4 
 217      5FDC6159 
 217      E8699E16 
 217      7ADB
 218 04e1 320BBD56 		.ascii	"2\013\275V\024\331Y'\007\363\002\325\336\273\363F\026"
 218      14D95927 
 218      07F302D5 
ARM GAS  /tmp/cc6dBTT4.s 			page 17


 218      DEBBF346 
 218      16
 219 04f2 48E720CC 		.ascii	"H\347 \314\245\301\302\244\373\366\274\256\373\351<"
 219      A5C1C2A4 
 219      FBF6BCAE 
 219      FBE93C
 220 0501 04BA9AA3 		.ascii	"\004\272\232\243\302\000\247\301\200]\203p\313F\372"
 220      C200A7C1 
 220      805D8370 
 220      CB46FA
 221 0510 3706C8C7 		.ascii	"7\006\310\307\214'\354\246\204\374\337\373\011\244\331"
 221      8C27ECA6 
 221      84FCDFFB 
 221      09A4D9
 222 051f 4F0DA516 		.ascii	"O\015\245\026\231\177\231\326\323|\254\315\314\235t"
 222      997F99D6 
 222      D37CACCD 
 222      CC9D74
 223 052e 05FDE99A 		.ascii	"\005\375\351\232\020\033S\317\3172\367G\356e\331\323"
 223      101B53CF 
 223      CF32F747 
 223      EE65D9D3 
 224 053e DC6B84DB 		.ascii	"\334k\204\333\260\223O\013\270e\3332\227i\307\3348Z"
 224      B0934F0B 
 224      B865DB32 
 224      9769C7DC 
 224      385A
 225 0550 FDD4B750 		.ascii	"\375\324\267P\335K\004F\316\"?\257\356\245\224[\266"
 225      DD4B0446 
 225      CE223FAF 
 225      EEA5945B 
 225      B6
 226 0561 B1079626 		.ascii	"\261\007\226&n\216\264X\260\314\200\253\257U\015[.q"
 226      6E8EB458 
 226      B0CC80AB 
 226      AF550D5B 
 226      2E71
 227 0573 6A78FD1A 		.ascii	"jx\375\032\345\326o\250\241\320\"\373w&V92\362\026\016"
 227      E5D66FA8 
 227      A1D022FB 
 227      77265639 
 227      32F2160E 
 228 0587 FB17815B 		.ascii	"\373\027\201[c\277q&\335ddD\354]\341Hq\340xPk-\327\267"
 228      63BF7126 
 228      DD646444 
 228      EC5DE148 
 228      71E07850 
 229 059f EB24FA1A 		.ascii	"\353$\372\032\025\014T\247D\251\240xR\037\311]\243\213"
 229      150C54A7 
 229      44A9A078 
 229      521FC95D 
 229      A38B
 230 05b1 89399D66 		.ascii	"\2119\235f\314Y\205\262\374$G\351,\210\330\224^\224"
 230      CC5985B2 
 230      FC2447E9 
 230      2C88D894 
 230      5E94
ARM GAS  /tmp/cc6dBTT4.s 			page 18


 231 05c3 D35DC808 		.ascii	"\323]\310\010\311\353\202\205?\334\214j\271\325\250"
 231      C9EB8285 
 231      3FDC8C6A 
 231      B9D5A8
 232 05d2 2E5F9B09 		.ascii	"._\233\011\200Qu.\323\215\252\220\021h\324\272\216\201"
 232      8051752E 
 232      D38DAA90 
 232      1168D4BA 
 232      8E81
 233 05e4 A08823BF 		.ascii	"\240\210#\277\306[\301\302\013]\315\306\036\310k\236"
 233      C65BC1C2 
 233      0B5DCDC6 
 233      1EC86B9E 
 234 05f4 ACE09283 		.ascii	"\254\340\222\203\025\2746H+\000\223>\371\036E8}]\366"
 234      15BC3648 
 234      2B00933E 
 234      F91E4538 
 234      7D5DF6
 235 0607 4280DAE1 		.ascii	"B\200\332\341\274j\301\200\373L.V0\272}\245z\217\263"
 235      BC6AC180 
 235      FB4C2E56 
 235      30BA7DA5 
 235      7A8FB3
 236 061a 1973A3C0 		.ascii	"\031s\243\3006\242W\004x\323\322%c1\255\254\030%\272"
 236      36A25704 
 236      78D3D225 
 236      6331ADAC 
 236      1825BA
 237 062d 4E600BB5 		.ascii	"N`\013\2657\004\266\011\373&\326\033\004\313V\254\233"
 237      3704B609 
 237      FB26D61B 
 237      04CB56AC 
 237      9B
 238 063e 59FC2D6B 		.ascii	"Y\374-k\026\022]\303\213\321\353r\271\3400k\255\326"
 238      16125DC3 
 238      8BD1EB72 
 238      B9E0306B 
 238      ADD6
 239 0650 F76AE0DA 		.ascii	"\367j\340\332\254\257u\313\016\037\356,\026\261+\274"
 239      ACAF75CB 
 239      0E1FEE2C 
 239      16B12BBC 
 240 0660 6DB3E9B8 		.ascii	"m\263\351\270\357\240\343\256\317\221\356z>\277\362"
 240      EFA0E3AE 
 240      CF91EE7A 
 240      3EBFF2
 241 066f B249BA65 		.ascii	"\262I\272e\260\254d\016H\232\003\036\3268\225\016R\317"
 241      B0AC640E 
 241      489A031E 
 241      D638950E 
 241      52CF
 242 0681 4CB4FB8C 		.ascii	"L\264\373\2144\255\340N\2539s\035\177j\034\316\\\357"
 242      34ADE04E 
 242      AB39731D 
 242      7F6A1CCE 
 242      5CEF
 243 0693 A1A5EDE2 		.ascii	"\241\245\355\342d\341a\303\3660v\331\316\273q[sf\303"
ARM GAS  /tmp/cc6dBTT4.s 			page 19


 243      64E161C3 
 243      F63076D9 
 243      CEBB715B 
 243      7366C3
 244 06a6 76BB0737 		.ascii	"v\273\0077nL\255\261}\3620-p{~\013\314+O\233\012\267"
 244      6E4CADB1 
 244      7DF2302D 
 244      707B7E0B 
 244      CC2B4F9B 
 245 06bc 5B1C6407 		.ascii	"[\034d\007:\310N\253S@\316\350E\366_w3E\010C{\364oM"
 245      3AC84EAB 
 245      5340CEE8 
 245      45F65F77 
 245      33450843 
 246 06d4 E6D7A33E 		.ascii	"\346\327\243>\036\317)\020\331\360\254\272lL\265t\343"
 246      1ECF2910 
 246      D9F0ACBA 
 246      6C4CB574 
 246      E3
 247 06e5 F6906EA3 		.ascii	"\366\220n\243Z\211\007\342F\273\203=\337f\012w-f(Ox"
 247      5A8907E2 
 247      46BB833D 
 247      DF660A77 
 247      2D66284F 
 248 06fa C11BE3C6 		.ascii	"\301\033\343\306lc\352\365\356\005\006\236\376eev\321"
 248      6C63EAF5 
 248      EE05069E 
 248      FE656576 
 248      D1
 249 070b 7876FAF6 		.ascii	"xv\372\366\266\331\362\271g\275\300\335\347Y\367\331"
 249      B6D9F2B9 
 249      67BDC0DD 
 249      E759F7D9 
 250 071b 0F8930A1 		.ascii	"\017\2110\241\342.\326\313\370\205\352u\2547a}\024\353"
 250      E22ED6CB 
 250      F885EA75 
 250      AC37617D 
 250      14EB
 251 072d 63587F8C 		.ascii	"cX\177\214\365i\254\373\261\236\216a\364\011\254\377"
 251      F569ACFB 
 251      B19E8E61 
 251      F409ACFF 
 252 073d 847517D6 		.ascii	"\204u\027\326\273\261\356\306z/\326=X\367z\011\270\036"
 252      BBB1EEC6 
 252      7A2FD63D 
 252      58F77A09 
 252      B81E
 253 074f 73C025F4 		.ascii	"s\300%\364&\274\022\011~\316u\234Mf\374=\273\215\242"
 253      26BC1209 
 253      7ECE759C 
 253      4D66FC3D 
 253      BB8DA2
 254 0762 65BE6830 		.ascii	"e\276h0\031\033~>\373\323\324\210\015\2326\\\242\207"
 254      191B7E3E 
 254      FBD3D488 
 254      0D9A365C 
 254      A287
ARM GAS  /tmp/cc6dBTT4.s 			page 20


 255 0774 D0D1B795 		.ascii	"\320\321\267\2258:z\036 \201\364b\2374\347\351\251\266"
 255      383A7A1E 
 255      2081F462 
 255      9F34E7E9 
 255      A9B6
 256 0786 E672B664 		.ascii	"\346r\266dJ{\362\3629[\026\344f\214\266o\320h\002n\262"
 256      4A7BF2F2 
 256      395B16E4 
 256      668CB66F 
 256      D068026E 
 257 079b 382ED864 		.ascii	"8.\330d\341=\352?7\220\376\376*\344\377\004:\324\274"
 257      E13DEA3F 
 257      3790FEFE 
 257      2AE4FF04 
 257      3AD4BC
 258 07ae 523EE8FB 		.ascii	"R>\350\373\271\230\357\267\307|\1770{a\304|\203\010"
 258      B998EFB7 
 258      C77C7F30 
 258      7B61C47C 
 258      8308
 259 07c0 B36BE6F6 		.ascii	"\263k\346\366\204\236\367I\364\0211\257\015\030\244"
 259      849EF749 
 259      F41131AF 
 259      0D18A4
 260 07cf 0D       		.ascii	"\015"
 261 07d0 2C393262 		.ascii	",92b9\222v\014}\363}\2164n)\302D\340&\2363B\231\213"
 261      3992760C 
 261      7DF37D8E 
 261      346E29C2 
 261      44E0269E 
 262 07e8 0672DE09 		.ascii	"\006r\336\011\344@\251\251\316\301-'f\177\232\276\371"
 262      E440A9A9 
 262      CEC12D27 
 262      667F9ABE 
 262      F9
 263 07f9 8D57356D 		.ascii	"\215W5m\365\357\214=\201T\300j=\266pg$5\353;\277\314"
 263      F5EF8C3D 
 263      8154C06A 
 263      3DB67067 
 263      2435EB3B 
 264 080f 4CE53C4C 		.ascii	"L\345<L\222\0029\306\361Y\030\005\222b\354\363\257\234"
 264      920239C6 
 264      F1591805 
 264      9262ECF3 
 264      AF9C
 265 0821 ED854EB1 		.ascii	"\355\205N\261R\177\\\330\002{\232f}Qk\177\252\302\334"
 265      527F5CD8 
 265      027B9A66 
 265      7D516B7F 
 265      AAC2DC
 266 0834 C3FD4F06 		.ascii	"\303\375O\006rp\313\206\303\235C _,\370\333\000F\330"
 266      7270CB86 
 266      C39D4320 
 266      5F2CF8DB 
 266      0046D8
 267 0847 15DE757A 		.ascii	"\025\336uz;Y\222w\305\223\347\034hrXk\351\262t3\207"
 267      3B599277 
ARM GAS  /tmp/cc6dBTT4.s 			page 21


 267      C593E71C 
 267      6872586B 
 267      E9B27433 
 268 085c ABB919DD 		.ascii	"\253\271\031\335\225A\252\2731u\250\323\014\371\272"
 268      9541AABB 
 268      3175A8D3 
 268      0CF9BA
 269 086b 074D0FD2 		.ascii	"\007M\017\322\"\361*9\306\00423xm\262\357\363.\373F"
 269      22F12A39 
 269      C6043233 
 269      786DB2EF 
 269      F32EFB46 
 270 087f 9193FD79 		.ascii	"\221\223\375y\224={\\X\366\027\233\314\351\351 \272"
 270      943D7B5C 
 270      58F6179B 
 270      CCE9E920 
 270      BA
 271 0890 E82CA49B 		.ascii	"\350,\244\233\365\035\234,/q\262|\246h\274\\Y\316\037"
 271      F51D9C2C 
 271      2F71B27C 
 271      A668BC5C 
 271      59CE1F
 272 08a3 AC2C9D0E 		.ascii	"\254,\235\016\253\217I\3642\346K}8\263\365c=U\264\345"
 272      AB8F49F4 
 272      32E64B7D 
 272      38B3F563 
 272      3D55B4E5 
 273 08b7 4E8B825C 		.ascii	"N\213\202\\(q\032\333\375\007\002\251\005\017\260TG"
 273      28711ADB 
 273      FD0702A9 
 273      050FB054 
 273      47
 274 08c8 5FEC74F0 		.ascii	"_\354t\360X\366\345\221\345\322\033#iK\342w\024\031"
 274      58F6E591 
 274      E5D21B23 
 274      694BE277 
 274      1419
 275 08da F93BB270 		.ascii	"\371;\262p\016\353\231\242\207\211\372`\326\217\370"
 275      0EEB99A2 
 275      8789FA60 
 275      D68FF8
 276 08e9 209FBDD7 		.ascii	" \237\275\327wx2\367\353\250\365}\276\351\316\345'\001"
 276      777832F7 
 276      EBA8F57D 
 276      BEE9CEE5 
 276      2701
 277 08fb 0C64B678 		.ascii	"\014d\266x\223}T\374\332\357mZY\363\362\333\025/\341"
 277      937D54FC 
 277      DAEF6D5A 
 277      59F3F2DB 
 277      152FE1
 278 090e B4D222E2 		.ascii	"\264\322\"\342\264\022\314;\255\260\241\334\310\230"
 278      B412CC3B 
 278      ADB0A1DC 
 278      C898
 279 091c 23BA4F2B 		.ascii	"#\272O+\271\357\254\304\022n\032\024\310^\216\214\333"
 279      B9EFACC4 
ARM GAS  /tmp/cc6dBTT4.s 			page 22


 279      126E1A14 
 279      C85E8E8C 
 279      DB
 280 092d C8524D6B 		.ascii	"\310RMkMo>u\316\017\0139\237\351a'\261\331bz\213#Q\206"
 280      4D6F3E75 
 280      CE0F0B39 
 280      9FE96127 
 280      B1D9627A 
 281 0945 4AF4BE5A 		.ascii	"J\364\276Z\277<N\327\207D\233E!o7\324\232\336-\325\323"
 281      BF3C4ED7 
 281      87449B45 
 281      216F37D4 
 281      9ADE2DD5 
 282 095a B9129C50 		.ascii	"\271\022\234P\320U'\321Oh\201\2564;\342E6\342:\334u"
 282      D05527D1 
 282      4F6881AE 
 282      343BE245 
 282      36E23ADC 
 283 096f 7FBB4037 		.ascii	"\177\273@7\264\003c\304\336\316\027\365\021u\215\234"
 283      B40363C4 
 283      DECE17F5 
 283      11758D9C 
 284 097f 2DC0236B 		.ascii	"-\300#ke\216\330\315F\304\334\370B\201^\272\324\277"
 284      658ED8CD 
 284      46C4DCF8 
 284      42815EBA 
 284      D4BF
 285 0991 463A30AF 		.ascii	"F:0\257\356|z\304L6\242\276\001\351\336\317\320\346"
 285      EE7C7AC4 
 285      4C36A2BE 
 285      01E9DECF 
 285      D0E6
 286 09a3 5CD1F693 		.ascii	"\\\321\366\223A\375\007\203\370\353\261\251\351\201"
 286      41FD0783 
 286      F8EBB1A9 
 286      E981
 287 09b1 815B38CB 		.ascii	"\201[8\313e\240\256\311\255X8ku\333!4,\370\320\252\363"
 287      65A0AEC9 
 287      AD58386B 
 287      75DB2134 
 287      2CF8D0AA 
 288 09c6 15FA42FD 		.ascii	"\025\372B\375\005\021#\303\020\347\234\325\015\006\367"
 288      051123C3 
 288      10E79CD5 
 288      0D06F7
 289 09d5 BAF8B03F 		.ascii	"\272\370\260?\273\023\263\325\345\236\342~\233\323\234"
 289      BB13B3D5 
 289      E59EE27E 
 289      9BD39C
 290 09e4 EB614DBC 		.ascii	"\353aM\274\006)]\2313\345H\225\372S\0173\216\271\015"
 290      06295D99 
 290      33E54895 
 290      FA530F33 
 290      8EB90D
 291 09f7 B542CC2E 		.ascii	"\265B\314.\206W\026?\341d\0167=1\374\214\372\365a\226"
 291      8657163F 
 291      E1640E37 
ARM GAS  /tmp/cc6dBTT4.s 			page 23


 291      3D31FC8C 
 291      FAF56196 
 292 0a0b 0F7A5E9B 		.ascii	"\017z^\233\303\315ko\241\034\212\301\253\264\341\315"
 292      C3CD6B6F 
 292      A11C8AC1 
 292      ABB4E1CD 
 293 0a1b EBE4F7E5 		.ascii	"\353\344\367\345\275/\025\326\362\261\223\221\304\245"
 293      BD2F15D6 
 293      F2B19391 
 293      C4A5
 294 0a29 ECDE53F4 		.ascii	"\354\336S\364\376\012=E\177\025=w\333\220\274\261tm"
 294      FE0A3D45 
 294      7F153D77 
 294      DB90BCB1 
 294      746D
 295 0a3b 9E58FA66 		.ascii	"\236X\372f\236X\312\275\203\014U\360\240\217\274{\300"
 295      9E58CABD 
 295      830C55F0 
 295      A08FBC7B 
 295      C0
 296 0a4c 36FCAC33 		.ascii	"6\374\2543\300:X\304u\260\310&\301\325X\257\3612\025"
 296      C03A58C4 
 296      75B0C826 
 296      C1D558AF 
 296      F13215
 297 0a5f 76880E53 		.ascii	"v\210\016Sa\336\251\317\210c\205\346\205\375C\034\347"
 297      61DEA9CF 
 297      886385E6 
 297      85FD431C 
 297      E7
 298 0a70 858EBF1C 		.ascii	"\205\216\277\034\011\350\363B\007J\376\0026[\"\272E"
 298      09E8F342 
 298      074AFE02 
 298      365B22BA 
 298      45
 299 0a81 BF0E4BCC 		.ascii	"\277\016K\314\234\017\326C\355\341\335\275\243%\274"
 299      9C0FD643 
 299      EDE1DDBD 
 299      A325BC
 300 0a90 A7F66EFD 		.ascii	"\247\366n\375\253\036\247\255!\336\275\253%\304k},N"
 300      AB1EA7AD 
 300      21DEBDAB 
 300      25C46B7D 
 300      2C4E
 301 0aa2 B7A01E17 		.ascii	"\267\240\036\027\211\371\273Y\303\373s:\2518\275\267"
 301      89F9BB59 
 301      C3FB733A 
 301      A938BDB7 
 302 0ab2 17E8670B 		.ascii	"\027\350g\013\360\335[\271\000\357\326\317\320\337["
 302      F0DD5BB9 
 302      00EFD6CF 
 302      D0DF5B
 303 0ac1 B9013EDD 		.ascii	"\271\001>\335\302>\3205\323\331\323\332\273\264sle\353"
 303      C23ED035 
 303      D3D9D3DA 
 303      BBB4736C 
 303      65EB
ARM GAS  /tmp/cc6dBTT4.s 			page 24


 304 0ad3 3D41E9E2 		.ascii	"=A\351\342\235\214\221\221\271iuX\010\013\344\022\247"
 304      9D8C9191 
 304      B9697558 
 304      080BE412 
 304      A7
 305 0ae4 6993B46D 		.ascii	"i\223\264m\216\244\255y\271\377\007\013_\321\246?\241"
 305      8EA4AD79 
 305      B9FF070B 
 305      5FD1A63F 
 305      A1
 306 0af5 FD67E031 		.ascii	"\375g\3401Z\304\004\364~\341\011\010b\014\265\004\361"
 306      5AC404F4 
 306      7EE10908 
 306      620CB504 
 306      F1
 307 0b06 5426D164 		.ascii	"T&\321d?#1\226\254Wa\231\3400\321\330\333Jt7\270S\301"
 307      3F233196 
 307      AC576199 
 307      E030D1D8 
 307      DB4A7437 
 308 0b1d 66AC6137 		.ascii	"f\254a7?)<\247OH\335\236\246\2055Ms\315\000k\261\352"
 308      3F293CA7 
 308      4F48DD9E 
 308      A685354D 
 308      73CD006B 
 309 0b33 EE4107EC 		.ascii	"\356A\007\3547;q\223\361\014~\353h,\243E\202U\332\300"
 309      373B7193 
 309      F10C7EEB 
 309      682CA345 
 309      8255DAC0 
 310 0b47 F658C166 		.ascii	"\366X\301fx\001\313\363\341\344@\347\237-;\214\246\023"
 310      7801CBF3 
 310      E1E440E7 
 310      9F2D3B8C 
 310      A613
 311 0b59 16836727 		.ascii	"\026\203g'\356\202N\234\236y=\355\205\270<?\335\373"
 311      EE824E9C 
 311      9E793DED 
 311      85B83C3F 
 311      DDFB
 312 0b6b 34A3068B 		.ascii	"4\243\006\213\307\026\003W\311\251\327\214\312\037`"
 312      C7160357 
 312      C9A9D78C 
 312      CA1F60
 313 0b7a 54DE8BF1 		.ascii	"T\336\213\361x\037\326\373\261\376\020\353\003X\037"
 313      781FD6FB 
 313      B1FE10EB 
 313      03581F
 314 0b89 B2AFBDDA 		.ascii	"\262\257\275\332\312\370\235,\335\224,\330Y\233#\305"
 314      CAF89D2C 
 314      DD942CD8 
 314      599B23C5 
 315 0b99 A1BBF9D6 		.ascii	"\241\273\371\326Nk\322`s\356\027\313\234\235\373\260"
 315      4E6BD260 
 315      73EE17CB 
 315      9C9DFBB0 
 316 0ba9 A373CFFE 		.ascii	"\243s\317\3764\365\365\371n\316\235gn?\302\207\035\266"
ARM GAS  /tmp/cc6dBTT4.s 			page 25


 316      34F5F5F9 
 316      6ECE9D67 
 316      6E3FC287 
 316      1DB6
 317 0bbb 1C705D9A 		.ascii	"\034p]\2329\314\365\002\371\233\013\241\307\035\011"
 317      39CCF502 
 317      F99B0BA1 
 317      C71D09
 318 0bca 3DB8EAC8 		.ascii	"=\270\352\310\310\371\332&\207\177\231\311K\347\011"
 318      C8F9DA26 
 318      877F99C9 
 318      4BE709
 319 0bd9 9ECE0EB1 		.ascii	"\236\316\016\261\214'd\227\013!'\355\204p)\306\221<"
 319      8C276497 
 319      0B2127ED 
 319      847029C6 
 319      913C
 320 0beb 29C6A9AC 		.ascii	")\306\251\254v\276@Z\364\255\221y\303\364_Z\032}\206"
 320      76BE405A 
 320      F4AD9179 
 320      C3F45F5A 
 320      1A7D86
 321 0bfe 9B7D04A3 		.ascii	"\233}\004\243\317?\305/\340\225\355\0038\266p\033\345"
 321      CF3FC52F 
 321      E095ED03 
 321      38B6701B 
 321      E5
 322 0c0f 1331FB6B 		.ascii	"\0231\373k\316\362`\366\202\332\207\256\344F\036c\266"
 322      CEF260F6 
 322      82DA87AE 
 322      E4461E63 
 322      B6
 323 0c20 2B31704E 		.ascii	"+1pN\027=\362\031\227\221\003\316\242z?\217\250\316"
 323      173DF219 
 323      979103CE 
 323      A27A3F8F 
 323      A8CE
 324 0c32 6645C5F5 		.ascii	"fE\305\365\332\343\342\315\254\3279\327^]y\306:\237"
 324      DAE3E2CD 
 324      ACD739D7 
 324      5E5D79C6 
 324      3A9F
 325 0c44 EDC5AC2A 		.ascii	"\355\305\254*u.\335\277\361\374oW\274\242ih\376S\247"
 325      752EDDBF 
 325      F1FC6F57 
 325      BCA26968 
 325      FE53A7
 326 0c57 F30E9067 		.ascii	"\363\016\220g\336\275h\030V\326\226\004\362Y\216!a\216"
 326      DEBD6818 
 326      56D69604 
 326      F2598E21 
 326      618E
 327 0c69 00C74B9A 		.ascii	"\000\307K\232\210h\254\375\005\310\017lv\366\257\\\203"
 327      8868ACFD 
 327      05C80F6C 
 327      76F6AF5C 
 327      83
ARM GAS  /tmp/cc6dBTT4.s 			page 26


 328 0c7a 07D2FEFD 		.ascii	"\007\322\376\375\354\336\021\346\377\210\335\252\217"
 328      ECDE11E6 
 328      FF88DDAA 
 328      8F
 329 0c87 2790A672 		.ascii	"'\220\246r/#\\\346G\350s\034a\367\321\363\343\372\263"
 329      2F235CE6 
 329      47E8731C 
 329      61F7D1F3 
 329      E3FAB3
 330 0c9a CCDFEA9D 		.ascii	"\314\337\352\235\371+\274W\255\307\031\302\346U\233"
 330      F92BBC57 
 330      ADC719C2 
 330      E6559B
 331 0ca9 6CA4624B 		.ascii	"l\244bKp\265r\3038\215\254k\267\236u\351\377\321\363"
 331      70B572C3 
 331      388DAC6B 
 331      B79E75E9 
 331      FFD1F3
 332 0cbc 11F6E877 		.ascii	"\021\366\350wM\273\214\217\302\006\307\027\247>\\\221"
 332      4DBB8C8F 
 332      C206C717 
 332      A73E5C91 
 333 0ccc E1B89FE7 		.ascii	"\341\270\237\347\3703G\216\3737\356\256\265\252\333"
 333      F833478E 
 333      FB37EEAE 
 333      B5AADB
 334 0cdb 14EB314F 		.ascii	"\024\3531Obm\364q\203L\3639+\356t\256\342\316y\032\341"
 334      626DF471 
 334      834CF339 
 334      2BEE74AE 
 334      E2CE791A 
 335 0cf0 717E8426 		.ascii	"q~\204&_\276\020t\"\217\255\317\360el\375+d\261\266"
 335      5FBE1074 
 335      228FADCF 
 335      F0656CFD 
 335      2B64B1B6 
 336 0d04 6B577AF3 		.ascii	"kWz\363\313\363\351\214\264\326\002\274\017Pkl\370G"
 336      CBF3E98C 
 336      B4D602BC 
 336      0F506B6C 
 336      F847
 337 0d16 3636ECCA 		.ascii	"66\354\312dK_\304\256.!\204o&\321'}\305\306\220\247"
 337      644B5FC4 
 337      AE2E2184 
 337      6F26D127 
 337      7DC5C690 
 338 0d2b 7CCE3164 		.ascii	"|\3161d\204M\000f+\346]\345\334\302\203\247B \217\017"
 338      844D0066 
 338      2BE65DE5 
 338      DCC283A7 
 338      42208F0F 
 339 0d3f A546BF21 		.ascii	"\245F\277!\354\342\226Q\243\252\364\277x\262JQ\253\222"
 339      ECE29651 
 339      A3AAF4BF 
 339      78B24A51 
 339      AB92
 340 0d51 4AB82A5C 		.ascii	"J\270*\\[=%&E#\341Qar\033\367>\022\013\327\325W\313"
ARM GAS  /tmp/cc6dBTT4.s 			page 27


 340      5B3D2526 
 340      4523E151 
 340      61721BF7 
 340      3E120BD7 
 341 0d68 D0263925 		.ascii	"\320&9%\251NI\310\311Q\265\244T\255Ud\251:\244\006\036"
 341      A94E49C8 
 341      C951B5A4 
 341      54AD5564 
 341      A93AA406 
 342 0d7d F8F92395 		.ascii	"\370\371#\225cI0\\\033\322\037U\272w\207Q\240\353uz"
 342      6349305C 
 342      1BD21F55 
 342      BA778751 
 342      A0EB757A 
 343 0d91 BB64E80F 		.ascii	"\273d\350\017\365r\275\034R\207g\272\032\217|1y\262"
 343      F572BD1C 
 343      528767BA 
 343      1A8F7C31 
 343      79B2
 344 0da3 EA4B28F2 		.ascii	"\352K(\362$?\336\217\261\"\206\343\321h<V\225\210+j"
 344      243FDE8F 
 344      B12286E3 
 344      D1683C56 
 344      95882B6A 
 345 0db7 B2EAFE5F 		.ascii	"\262\352\376_<4\366\241\311\354Y\"R'+\311\252\007\306"
 345      3C34F6A1 
 345      C9EC5922 
 345      52272BC9 
 345      AA07C6
 346 0dca 8E85814C 		.ascii	"\216\205\201L\"K\324\204\022\211\207\324/W\325'\225"
 346      224BD484 
 346      128987D4 
 346      2F57D527 
 346      95
 347 0ddb 0C2131B9 		.ascii	"\014!1\271\241.\362hUR\255\216\304T\306J=\234\277}W"
 347      A12EF268 
 347      5552AD8E 
 347      C454C64A 
 347      3D9CBF7D 
 348 0df0 48BDC3A9 		.ascii	"H\275\303\251YT\012\327FbrU\250Z\236 \325\327\251!\023"
 348      59540AD7 
 348      46627255 
 348      A85A9E20 
 348      D5D7A921 
 349 0e05 7C482864 		.ascii	"|H(dv\364\261a\312\031I\241p<\246\002\365\337(Hrm8\256"
 349      76F4B161 
 349      CA1949A1 
 349      703CA602 
 349      F5DF2848 
 350 0e1d C8005386 		.ascii	"\310\000S\206\335\000(\254N\276\303[\257\320\244\357"
 350      DD0028AC 
 350      4EBEC35B 
 350      AFD0A4EF 
 351 0e2d 4519DD8A 		.ascii	"E\031\335\212\\#)\321\220*(w\013\312w\004\345\273\202"
 351      5C2329D1 
 351      902A2877 
 351      0BCA7704 
ARM GAS  /tmp/cc6dBTT4.s 			page 28


 351      E5BB82
 352 0e40 F23D4119 		.ascii	"\362=A\031#(\367\210\312\235\243\241\334)\324)B2!\002"
 352      2328F788 
 352      CA9DA3A1 
 352      DC29D429 
 352      42322102 
 353 0e54 B41FD891 		.ascii	"\264\037\330\221\025\177\274\256ZV|\341ZI\361\201\272"
 353      157FBCAE 
 353      5A567CE1 
 353      5A49F181 
 353      BA
 354 0e65 E5214975 		.ascii	"\345!Iu\242T\027\251\211\205T\224\302w\357\016\251\006"
 354      A25417A9 
 354      89855494 
 354      C277EF0E 
 354      A906
 355 0e77 5FEC32D0 		.ascii	"_\3542\320 =*%\345R5\251J*h\252\204\275\030\023R\203"
 355      203D2A25 
 355      E55235A9 
 355      4A2A68AA 
 355      84BD1813 
 356 0e8d 7A13B8F2 		.ascii	"z\023\270\362\343\233\0225\032\257\206\367\376\011u"
 356      E39B1235 
 356      1AAF86F7 
 356      FE0975
 357 0e9c 524DB244 		.ascii	"RM\262DU\344\011I\220\012;\371\243\311\032\350h\010"
 357      55E40949 
 357      900A3BF9 
 357      A3C91AE8 
 357      6808
 358 0eae 0A3A1A57 		.ascii	"\012:\032W\001\245z\012\274*\225'G\3240t\0164\250\361"
 358      01A57A0A 
 358      BC2A9527 
 358      47D43074 
 358      0E34A8F1 
 359 0ec2 477F9FB8 		.ascii	"G\177\237\270\3360+\350*+r,\314@\033TUI\224$\345\230"
 359      DE302BE8 
 359      2A2B722C 
 359      CC401B54 
 359      55499424 
 360 0ed8 0A1DCAC1 		.ascii	"\012\035\312\301X\222rTJ\324\202 xK\266\230\232\314"
 360      58927254 
 360      4AD48220 
 360      784BB698 
 360      9ACC
 361 0eea 24E40FC7 		.ascii	"$\344\017\307@_\"\324\000\017\217\022\245\320;Z\017"
 361      405F22D4 
 361      000F8F12 
 361      A5D03B5A 
 361      0F
 362 0efb 0A72EF19 		.ascii	"\012r\357\031U'\263\236\361\206\230\254\224`[&\007\025"
 362      5527B39E 
 362      F18698AC 
 362      94605B26 
 362      0715
 363 0f0d 1E27CAE4 		.ascii	"\036'\312\344I\214\010)9\021\036\311\015\354\202\326"
 363      498C0829 
ARM GAS  /tmp/cc6dBTT4.s 			page 29


 363      39111EC9 
 363      0DEC82D6 
 364 0f1d 0F334DB7 		.ascii	"\0173M\267.\222\204\301\256\263\0303{R\322 E\324H\254"
 364      2E9284C1 
 364      AEB31833 
 364      7B52D220 
 364      45D448AC 
 365 0f31 A6146847 		.ascii	"\246\024hGc.\225\023r\014,\257\246\004 Y\013P\243T\307"
 365      632E9513 
 365      720C2CAF 
 365      A6042059 
 365      0B50A354 
 366 0f46 0CC81F4D 		.ascii	"\014\310\037M\304\343u#\035l \236d\226\230\245\261V"
 366      C4E37523 
 366      1D6C209E 
 366      649698A5 
 366      B156
 367 0f58 961240E4 		.ascii	"\226\022@\344\320\250\034\215+SB\3546\244\226Y\356\356"
 367      D0A81C8D 
 367      2B5342EC 
 367      36A49659 
 367      EEEE
 368 0f6a 424B669D 		.ascii	"BKf\235j\302\341*0\222;b\361\230|\207,=\032\251\272"
 368      6AC2E12A 
 368      30923B62 
 368      F1987C87 
 368      2C3D1AA9 
 369 0f7f 7BD49851 		.ascii	"{\324\230Qwe\300\300\013\300\260\001,\220\214\374\021"
 369      7765C0C0 
 369      0BC0B001 
 369      2C908CFC 
 369      11
 370 0f90 A4ED6482 		.ascii	"\244\355d\202\374\3600\220a\274\214\202\032Y\235P"
 370      FCF03090 
 370      61BC8C82 
 370      1A599D50 
 371 0fa0 1F0B834E 		.ascii	"\037\013\203NK\023J|R\004\014l(R\004\025\\\003a\226"
 371      4B134A7C 
 371      52040C6C 
 371      28520415 
 371      5C036196 
 372 0fb4 3B3F5A9B 		.ascii	";?Z\233?!\325\310I\337\004E\226}\354\245\217\215\355"
 372      3F21D5C8 
 372      49DF0445 
 372      967DECA5 
 372      8F8DED
 373 0fc7 AB4FCAD5 		.ascii	"\253O\312\325\001\275\231\010\262\371\252\253\212\014"
 373      01BD9908 
 373      B2F9AAAB 
 373      8A0C
 374 0fd5 F9A283B3 		.ascii	"\371\242\203\263\241C\352\015\341\332_\326V\217\205"
 374      A143EA0D 
 374      E1DA5FD6 
 374      568F85
 375 0fe4 C7AAFC53 		.ascii	"\307\252\374S%\036\035\007\240~\206\234\020\022\023"
 375      251E1D07 
 375      A07E869C 
ARM GAS  /tmp/cc6dBTT4.s 			page 30


 375      101213
 376 0ff3 4449A919 		.ascii	"DI\251\031\345\215-\246\200\244E\262\354"
 376      E58D2DA6 
 376      80A445B2 
 376      EC
 377 1000 1E18C093 		.ascii	"\036\030\300\223NY\031X\251\034VC\214\342\362,\367!"
 377      4E591958 
 377      A91C5643 
 377      8CE2F22C 
 377      F721
 378 1012 750447C2 		.ascii	"u\004G\302C\210\3600\364\024\242\011\260\332\361\341"
 378      4388F030 
 378      F414A209 
 378      B0DAF1E1 
 379 1022 DA5F4913 		.ascii	"\332_I\023\345\372\304x\177\003s*_\003\230\201\237\365"
 379      E5FAC478 
 379      7F03732A 
 379      5F039881 
 379      9FF5
 380 1034 4DDC6018 		.ascii	"M\334`\030}\265\234\014+\221\204\032\007\241\335h\201"
 380      7DB59C0C 
 380      2B91841A 
 380      07A1DD68 
 380      81
 381 1045 1B5F9F64 		.ascii	"\033_\237d6#W?x}\270\226\261v\177]]<|?\223\244\\]\026"
 381      3623573F 
 381      787DB896 
 381      B1767F5D 
 381      5D3C7C3F 
 382 105e AE6583E0 		.ascii	"\256e\203\340\243<\3760\205\261\005Az\374\224\344\317"
 382      A33CFE30 
 382      85B10541 
 382      7AFC94E4 
 382      CF
 383 106f E2E18941 		.ascii	"\342\341\211A\214:\320e\342\235\016\222\201\000V5\366"
 383      8C3AD065 
 383      E29D0E92 
 383      81005635 
 383      F6
 384 1080 A1F10F8E 		.ascii	"\241\361\017\216\317\"D\223\221d\010\214\211\011'\004"
 384      CF224493 
 384      9164088C 
 384      89092704 
 385 1090 1EA8867E 		.ascii	"\036\250\206~t\377\370\237<\374\213\007\207Ju\015\322"
 385      74FFF89F 
 385      3CFC8B07 
 385      874A750D 
 385      D2
 386 10a1 9424F875 		.ascii	"\224$\370u\035\204I\377$\251\256^.\303q\036\2111|=\276"
 386      1D8449FF 
 386      24A9AE5E 
 386      2EC3711E 
 386      89317C3D 
 387 10b6 D5E37569 		.ascii	"\325\343ui(\204\302\012\0155/F}\347\236\273\277\375"
 387      2884C20A 
 387      0D352F46 
 387      7DE79EBB 
ARM GAS  /tmp/cc6dBTT4.s 			page 31


 387      BFFD
 388 10c8 5FFDA6F7 		.ascii	"_\375\246\367\321"
 388      D1
 389              		.text
 390              		.section	.gnu.lto_.symtab.9a564325d580dd3e,"",%progbits
 391 0000 63685468 		.ascii	"chThdCreateFromHeap\000\000\000\000\000\000\000\000"
 391      64437265 
 391      61746546 
 391      726F6D48 
 391      65617000 
 392 001b 00000000 		.ascii	"\000\000\000\000\241\000\000\000chThdCreateFromMemo"
 392      A1000000 
 392      63685468 
 392      64437265 
 392      61746546 
 393 0036 7279506F 		.ascii	"ryPool\000\000\000\000\000\000\000\000\000\000\000\000"
 393      6F6C0000 
 393      00000000 
 393      00000000 
 393      0000
 394 0048 A2010000 		.ascii	"\242\001\000\000chSchWakeupS\000\000\002\000\000\000"
 394      63685363 
 394      6857616B 
 394      65757053 
 394      00000200 
 395 005e 00000000 		.ascii	"\000\000\000\000\000\000\307\001\000\000chThdCreate"
 395      0000C701 
 395      00006368 
 395      54686443 
 395      72656174 
 396 0073 53757370 		.ascii	"SuspendedI\000\000\002\000\000\000\000\000\000\000\000"
 396      656E6465 
 396      64490000 
 396      02000000 
 396      00000000 
 397 0088 00CC0100 		.ascii	"\000\314\001\000\000chHeapAllocAligned\000\000\002\000"
 397      00636848 
 397      65617041 
 397      6C6C6F63 
 397      416C6967 
 398 00a3 00000000 		.ascii	"\000\000\000\000\000\000\000\000\340\001\000\000chP"
 398      00000000 
 398      E0010000 
 398      636850
 399 00b2 6F6F6C41 		.ascii	"oolAlloc\000\000\002\000\000\000\000\000\000\000\000"
 399      6C6C6F63 
 399      00000200 
 399      00000000 
 399      000000
 400 00c5 00E60100 		.ascii	"\000\346\001\000\000"
 400      00
 401              		.text
 402              		.section	.gnu.lto_.opts,"",%progbits
 403 0000 272D6D63 		.ascii	"'-mcpu=cortex-m3' '-mno-thumb-interwork' '-mthumb' "
 403      70753D63 
 403      6F727465 
 403      782D6D33 
ARM GAS  /tmp/cc6dBTT4.s 			page 32


 403      2720272D 
 404 0033 272D6767 		.ascii	"'-ggdb' '-O2' '-fomit-frame-pointer' '-falign-funct"
 404      64622720 
 404      272D4F32 
 404      2720272D 
 404      666F6D69 
 405 0066 696F6E73 		.ascii	"ions=16' '-ffunction-sections' '-fdata-sections' '-"
 405      3D313627 
 405      20272D66 
 405      66756E63 
 405      74696F6E 
 406 0099 666E6F2D 		.ascii	"fno-common' '-flto'\000"
 406      636F6D6D 
 406      6F6E2720 
 406      272D666C 
 406      746F2700 
 407              		.text
 408              		.cfi_sections	.debug_frame
 409              		.section	.text.chThdCreateFromHeap,"ax",%progbits
 410              		.align	2
 411              		.p2align 4,,15
 412              		.global	chThdCreateFromHeap
 413              		.thumb
 414              		.thumb_func
 415              		.type	chThdCreateFromHeap, %function
 416              	chThdCreateFromHeap:
 417              	.LFB188:
 418              		.file 1 "../../../os/rt/src/chdynamic.c"
 419              		.loc 1 84 0
 420              		.cfi_startproc
 421              		@ args = 8, pretend = 0, frame = 24
 422              		@ frame_needed = 0, uses_anonymous_args = 0
 423              	.LVL0:
 424 0000 70B5     		push	{r4, r5, r6, lr}
 425              		.cfi_def_cfa_offset 16
 426              		.cfi_offset 4, -16
 427              		.cfi_offset 5, -12
 428              		.cfi_offset 6, -8
 429              		.cfi_offset 14, -4
 430 0002 1446     		mov	r4, r2
 431 0004 86B0     		sub	sp, sp, #24
 432              		.cfi_def_cfa_offset 40
 433              		.loc 1 88 0
 434 0006 0822     		movs	r2, #8
 435              	.LVL1:
 436              		.loc 1 84 0
 437 0008 1E46     		mov	r6, r3
 438 000a 0D46     		mov	r5, r1
 439              		.loc 1 88 0
 440 000c FFF7FEFF 		bl	chHeapAllocAligned
 441              	.LVL2:
 442              		.loc 1 89 0
 443 0010 C8B1     		cbz	r0, .L2
 444              		.loc 1 93 0
 445 0012 0A9B     		ldr	r3, [sp, #40]
 446              		.loc 1 96 0
 447 0014 0544     		add	r5, r5, r0
ARM GAS  /tmp/cc6dBTT4.s 			page 33


 448              	.LVL3:
 449              		.loc 1 93 0
 450 0016 0493     		str	r3, [sp, #16]
 451 0018 0B9B     		ldr	r3, [sp, #44]
 452 001a 0295     		str	r5, [sp, #8]
 453 001c 0593     		str	r3, [sp, #20]
 454              	.LVL4:
 455 001e 0094     		str	r4, [sp]
 456 0020 0190     		str	r0, [sp, #4]
 457 0022 0396     		str	r6, [sp, #12]
 458              	.LBB34:
 459              	.LBB35:
 460              	.LBB36:
 461              	.LBB37:
 462              		.file 2 "../../../os/common/ext/CMSIS/include/cmsis_gcc.h"
 463              		.loc 2 264 0
 464 0024 2023     		movs	r3, #32
 465              	@ 264 "../../../os/common/ext/CMSIS/include/cmsis_gcc.h" 1
 466 0026 83F31188 		MSR basepri, r3
 467              	@ 0 "" 2
 468              		.thumb
 469              	.LBE37:
 470              	.LBE36:
 471              	.LBE35:
 472              	.LBE34:
 473              		.loc 1 109 0
 474 002a 6846     		mov	r0, sp
 475              	.LVL5:
 476 002c FFF7FEFF 		bl	chThdCreateSuspendedI
 477              	.LVL6:
 478              		.loc 1 110 0
 479 0030 0123     		movs	r3, #1
 480 0032 80F82130 		strb	r3, [r0, #33]
 481              		.loc 1 111 0
 482 0036 0021     		movs	r1, #0
 483              		.loc 1 109 0
 484 0038 0446     		mov	r4, r0
 485              	.LVL7:
 486              		.loc 1 111 0
 487 003a FFF7FEFF 		bl	chSchWakeupS
 488              	.LVL8:
 489              	.LBB38:
 490              	.LBB39:
 491              	.LBB40:
 492              	.LBB41:
 493              	.LBB42:
 494              		.loc 2 264 0
 495 003e 0023     		movs	r3, #0
 496              	@ 264 "../../../os/common/ext/CMSIS/include/cmsis_gcc.h" 1
 497 0040 83F31188 		MSR basepri, r3
 498              	@ 0 "" 2
 499              		.thumb
 500              	.LBE42:
 501              	.LBE41:
 502              	.LBE40:
 503              	.LBE39:
 504              	.LBE38:
ARM GAS  /tmp/cc6dBTT4.s 			page 34


 505              		.loc 1 114 0
 506 0044 2046     		mov	r0, r4
 507              	.LVL9:
 508              	.L2:
 509              		.loc 1 115 0
 510 0046 06B0     		add	sp, sp, #24
 511              		@ sp needed
 512 0048 70BD     		pop	{r4, r5, r6, pc}
 513              		.cfi_endproc
 514              	.LFE188:
 515              		.size	chThdCreateFromHeap, .-chThdCreateFromHeap
 516 004a 00BFAFF3 		.section	.text.chThdCreateFromMemoryPool,"ax",%progbits
 516      0080
 517              		.align	2
 518              		.p2align 4,,15
 519              		.global	chThdCreateFromMemoryPool
 520              		.thumb
 521              		.thumb_func
 522              		.type	chThdCreateFromMemoryPool, %function
 523              	chThdCreateFromMemoryPool:
 524              	.LFB189:
 525              		.loc 1 146 0
 526              		.cfi_startproc
 527              		@ args = 4, pretend = 0, frame = 24
 528              		@ frame_needed = 0, uses_anonymous_args = 0
 529              	.LVL10:
 530 0000 F0B5     		push	{r4, r5, r6, r7, lr}
 531              		.cfi_def_cfa_offset 20
 532              		.cfi_offset 4, -20
 533              		.cfi_offset 5, -16
 534              		.cfi_offset 6, -12
 535              		.cfi_offset 7, -8
 536              		.cfi_offset 14, -4
 537 0002 87B0     		sub	sp, sp, #28
 538              		.cfi_def_cfa_offset 48
 539              		.loc 1 146 0
 540 0004 0F46     		mov	r7, r1
 541 0006 1646     		mov	r6, r2
 542 0008 1C46     		mov	r4, r3
 543 000a 0546     		mov	r5, r0
 544              		.loc 1 152 0
 545 000c FFF7FEFF 		bl	chPoolAlloc
 546              	.LVL11:
 547              		.loc 1 153 0
 548 0010 D0B1     		cbz	r0, .L6
 549              		.loc 1 160 0
 550 0012 6B68     		ldr	r3, [r5, #4]
 551              		.loc 1 157 0
 552 0014 0C9A     		ldr	r2, [sp, #48]
 553              		.loc 1 160 0
 554 0016 0344     		add	r3, r3, r0
 555              		.loc 1 157 0
 556 0018 0293     		str	r3, [sp, #8]
 557 001a 0097     		str	r7, [sp]
 558 001c 0190     		str	r0, [sp, #4]
 559 001e 0396     		str	r6, [sp, #12]
 560 0020 0494     		str	r4, [sp, #16]
ARM GAS  /tmp/cc6dBTT4.s 			page 35


 561 0022 0592     		str	r2, [sp, #20]
 562              	.LVL12:
 563              	.LBB43:
 564              	.LBB44:
 565              	.LBB45:
 566              	.LBB46:
 567              		.loc 2 264 0
 568 0024 2023     		movs	r3, #32
 569              	@ 264 "../../../os/common/ext/CMSIS/include/cmsis_gcc.h" 1
 570 0026 83F31188 		MSR basepri, r3
 571              	@ 0 "" 2
 572              		.thumb
 573              	.LBE46:
 574              	.LBE45:
 575              	.LBE44:
 576              	.LBE43:
 577              		.loc 1 173 0
 578 002a 6846     		mov	r0, sp
 579              	.LVL13:
 580 002c FFF7FEFF 		bl	chThdCreateSuspendedI
 581              	.LVL14:
 582              		.loc 1 174 0
 583 0030 0223     		movs	r3, #2
 584 0032 80F82130 		strb	r3, [r0, #33]
 585              		.loc 1 175 0
 586 0036 0564     		str	r5, [r0, #64]
 587              		.loc 1 176 0
 588 0038 0021     		movs	r1, #0
 589              		.loc 1 173 0
 590 003a 0446     		mov	r4, r0
 591              	.LVL15:
 592              		.loc 1 176 0
 593 003c FFF7FEFF 		bl	chSchWakeupS
 594              	.LVL16:
 595              	.LBB47:
 596              	.LBB48:
 597              	.LBB49:
 598              	.LBB50:
 599              	.LBB51:
 600              		.loc 2 264 0
 601 0040 0023     		movs	r3, #0
 602              	@ 264 "../../../os/common/ext/CMSIS/include/cmsis_gcc.h" 1
 603 0042 83F31188 		MSR basepri, r3
 604              	@ 0 "" 2
 605              		.thumb
 606              	.LBE51:
 607              	.LBE50:
 608              	.LBE49:
 609              	.LBE48:
 610              	.LBE47:
 611              		.loc 1 179 0
 612 0046 2046     		mov	r0, r4
 613              	.LVL17:
 614              	.L6:
 615              		.loc 1 180 0
 616 0048 07B0     		add	sp, sp, #28
 617              		@ sp needed
ARM GAS  /tmp/cc6dBTT4.s 			page 36


 618 004a F0BD     		pop	{r4, r5, r6, r7, pc}
 619              		.cfi_endproc
 620              	.LFE189:
 621              		.size	chThdCreateFromMemoryPool, .-chThdCreateFromMemoryPool
 622 004c AFF30080 		.text
 623              	.Letext0:
 624              		.file 3 "/usr/lib/gcc/arm-none-eabi/4.8.2/include/stddef.h"
 625              		.file 4 "/usr/include/newlib/machine/_default_types.h"
 626              		.file 5 "/usr/include/newlib/stdint.h"
 627              		.file 6 "../../../os/common/ports/ARMCMx/compilers/GCC/chtypes.h"
 628              		.file 7 "../../../os/rt/include/chsystypes.h"
 629              		.file 8 "../../../os/rt/include/chschd.h"
 630              		.file 9 "../../../os/common/ports/ARMCMx/chcore.h"
 631              		.file 10 "../../../os/common/ports/ARMCMx/chcore_v7m.h"
 632              		.file 11 "../../../os/rt/include/chsem.h"
 633              		.file 12 "../../../os/rt/include/chmtx.h"
 634              		.file 13 "../../../os/rt/include/chthreads.h"
 635              		.file 14 "../../../os/common/oslib/include/chmemcore.h"
 636              		.file 15 "../../../os/common/oslib/include/chheap.h"
 637              		.file 16 "../../../os/common/oslib/include/chmempools.h"
 638              		.file 17 "../../../os/rt/include/chsys.h"
 639              		.file 18 "../../../os/common/ext/CMSIS/include/core_cm3.h"
 640              		.section	.debug_info,"",%progbits
 641              	.Ldebug_info0:
 642 0000 860B0000 		.4byte	0xb86
 643 0004 0400     		.2byte	0x4
 644 0006 00000000 		.4byte	.Ldebug_abbrev0
 645 000a 04       		.byte	0x4
 646 000b 01       		.uleb128 0x1
 647 000c 04030000 		.4byte	.LASF124
 648 0010 01       		.byte	0x1
 649 0011 9A020000 		.4byte	.LASF125
 650 0015 EF030000 		.4byte	.LASF126
 651 0019 00000000 		.4byte	.Ldebug_ranges0+0
 652 001d 00000000 		.4byte	0
 653 0021 00000000 		.4byte	.Ldebug_line0
 654 0025 02       		.uleb128 0x2
 655 0026 04       		.byte	0x4
 656 0027 05       		.byte	0x5
 657 0028 696E7400 		.ascii	"int\000"
 658 002c 03       		.uleb128 0x3
 659 002d E1010000 		.4byte	.LASF2
 660 0031 03       		.byte	0x3
 661 0032 D4       		.byte	0xd4
 662 0033 37000000 		.4byte	0x37
 663 0037 04       		.uleb128 0x4
 664 0038 04       		.byte	0x4
 665 0039 07       		.byte	0x7
 666 003a 56000000 		.4byte	.LASF0
 667 003e 04       		.uleb128 0x4
 668 003f 01       		.byte	0x1
 669 0040 06       		.byte	0x6
 670 0041 BE050000 		.4byte	.LASF1
 671 0045 03       		.uleb128 0x3
 672 0046 C7040000 		.4byte	.LASF3
 673 004a 04       		.byte	0x4
 674 004b 1C       		.byte	0x1c
ARM GAS  /tmp/cc6dBTT4.s 			page 37


 675 004c 50000000 		.4byte	0x50
 676 0050 04       		.uleb128 0x4
 677 0051 01       		.byte	0x1
 678 0052 08       		.byte	0x8
 679 0053 4A050000 		.4byte	.LASF4
 680 0057 04       		.uleb128 0x4
 681 0058 02       		.byte	0x2
 682 0059 05       		.byte	0x5
 683 005a 4A040000 		.4byte	.LASF5
 684 005e 03       		.uleb128 0x3
 685 005f 6F010000 		.4byte	.LASF6
 686 0063 04       		.byte	0x4
 687 0064 26       		.byte	0x26
 688 0065 69000000 		.4byte	0x69
 689 0069 04       		.uleb128 0x4
 690 006a 02       		.byte	0x2
 691 006b 07       		.byte	0x7
 692 006c D0050000 		.4byte	.LASF7
 693 0070 03       		.uleb128 0x3
 694 0071 77000000 		.4byte	.LASF8
 695 0075 04       		.byte	0x4
 696 0076 37       		.byte	0x37
 697 0077 7B000000 		.4byte	0x7b
 698 007b 04       		.uleb128 0x4
 699 007c 04       		.byte	0x4
 700 007d 05       		.byte	0x5
 701 007e 60040000 		.4byte	.LASF9
 702 0082 03       		.uleb128 0x3
 703 0083 58050000 		.4byte	.LASF10
 704 0087 04       		.byte	0x4
 705 0088 38       		.byte	0x38
 706 0089 8D000000 		.4byte	0x8d
 707 008d 04       		.uleb128 0x4
 708 008e 04       		.byte	0x4
 709 008f 07       		.byte	0x7
 710 0090 F4040000 		.4byte	.LASF11
 711 0094 04       		.uleb128 0x4
 712 0095 08       		.byte	0x8
 713 0096 05       		.byte	0x5
 714 0097 CD020000 		.4byte	.LASF12
 715 009b 03       		.uleb128 0x3
 716 009c 0F020000 		.4byte	.LASF13
 717 00a0 04       		.byte	0x4
 718 00a1 4E       		.byte	0x4e
 719 00a2 A6000000 		.4byte	0xa6
 720 00a6 04       		.uleb128 0x4
 721 00a7 08       		.byte	0x8
 722 00a8 07       		.byte	0x7
 723 00a9 58010000 		.4byte	.LASF14
 724 00ad 03       		.uleb128 0x3
 725 00ae 79020000 		.4byte	.LASF15
 726 00b2 05       		.byte	0x5
 727 00b3 2A       		.byte	0x2a
 728 00b4 45000000 		.4byte	0x45
 729 00b8 03       		.uleb128 0x3
 730 00b9 2E040000 		.4byte	.LASF16
 731 00bd 05       		.byte	0x5
ARM GAS  /tmp/cc6dBTT4.s 			page 38


 732 00be 36       		.byte	0x36
 733 00bf 5E000000 		.4byte	0x5e
 734 00c3 03       		.uleb128 0x3
 735 00c4 19050000 		.4byte	.LASF17
 736 00c8 05       		.byte	0x5
 737 00c9 41       		.byte	0x41
 738 00ca 70000000 		.4byte	0x70
 739 00ce 03       		.uleb128 0x3
 740 00cf F9000000 		.4byte	.LASF18
 741 00d3 05       		.byte	0x5
 742 00d4 42       		.byte	0x42
 743 00d5 82000000 		.4byte	0x82
 744 00d9 03       		.uleb128 0x3
 745 00da AC040000 		.4byte	.LASF19
 746 00de 05       		.byte	0x5
 747 00df 4E       		.byte	0x4e
 748 00e0 9B000000 		.4byte	0x9b
 749 00e4 03       		.uleb128 0x3
 750 00e5 DC030000 		.4byte	.LASF20
 751 00e9 06       		.byte	0x6
 752 00ea 3C       		.byte	0x3c
 753 00eb AD000000 		.4byte	0xad
 754 00ef 03       		.uleb128 0x3
 755 00f0 70020000 		.4byte	.LASF21
 756 00f4 06       		.byte	0x6
 757 00f5 3D       		.byte	0x3d
 758 00f6 AD000000 		.4byte	0xad
 759 00fa 03       		.uleb128 0x3
 760 00fb EC040000 		.4byte	.LASF22
 761 00ff 06       		.byte	0x6
 762 0100 3E       		.byte	0x3e
 763 0101 AD000000 		.4byte	0xad
 764 0105 03       		.uleb128 0x3
 765 0106 37010000 		.4byte	.LASF23
 766 010a 06       		.byte	0x6
 767 010b 40       		.byte	0x40
 768 010c CE000000 		.4byte	0xce
 769 0110 03       		.uleb128 0x3
 770 0111 DB020000 		.4byte	.LASF24
 771 0115 06       		.byte	0x6
 772 0116 41       		.byte	0x41
 773 0117 C3000000 		.4byte	0xc3
 774 011b 03       		.uleb128 0x3
 775 011c 0A010000 		.4byte	.LASF25
 776 0120 06       		.byte	0x6
 777 0121 43       		.byte	0x43
 778 0122 CE000000 		.4byte	0xce
 779 0126 03       		.uleb128 0x3
 780 0127 7A010000 		.4byte	.LASF26
 781 012b 06       		.byte	0x6
 782 012c 45       		.byte	0x45
 783 012d C3000000 		.4byte	0xc3
 784 0131 03       		.uleb128 0x3
 785 0132 3A000000 		.4byte	.LASF27
 786 0136 07       		.byte	0x7
 787 0137 35       		.byte	0x35
 788 0138 B8000000 		.4byte	0xb8
ARM GAS  /tmp/cc6dBTT4.s 			page 39


 789 013c 03       		.uleb128 0x3
 790 013d CC010000 		.4byte	.LASF28
 791 0141 07       		.byte	0x7
 792 0142 3F       		.byte	0x3f
 793 0143 47010000 		.4byte	0x147
 794 0147 05       		.uleb128 0x5
 795 0148 8A020000 		.4byte	.LASF46
 796 014c 44       		.byte	0x44
 797 014d 08       		.byte	0x8
 798 014e 9A       		.byte	0x9a
 799 014f 25020000 		.4byte	0x225
 800 0153 06       		.uleb128 0x6
 801 0154 13050000 		.4byte	.LASF29
 802 0158 08       		.byte	0x8
 803 0159 9B       		.byte	0x9b
 804 015a 5A020000 		.4byte	0x25a
 805 015e 00       		.byte	0
 806 015f 06       		.uleb128 0x6
 807 0160 24020000 		.4byte	.LASF30
 808 0164 08       		.byte	0x8
 809 0165 9C       		.byte	0x9c
 810 0166 05010000 		.4byte	0x105
 811 016a 08       		.byte	0x8
 812 016b 07       		.uleb128 0x7
 813 016c 63747800 		.ascii	"ctx\000"
 814 0170 08       		.byte	0x8
 815 0171 9D       		.byte	0x9d
 816 0172 46040000 		.4byte	0x446
 817 0176 0C       		.byte	0xc
 818 0177 06       		.uleb128 0x6
 819 0178 44050000 		.4byte	.LASF31
 820 017c 08       		.byte	0x8
 821 017d 9F       		.byte	0x9f
 822 017e 30020000 		.4byte	0x230
 823 0182 10       		.byte	0x10
 824 0183 06       		.uleb128 0x6
 825 0184 16060000 		.4byte	.LASF32
 826 0188 08       		.byte	0x8
 827 0189 A0       		.byte	0xa0
 828 018a 30020000 		.4byte	0x230
 829 018e 14       		.byte	0x14
 830 018f 06       		.uleb128 0x6
 831 0190 DE040000 		.4byte	.LASF33
 832 0194 08       		.byte	0x8
 833 0195 A7       		.byte	0xa7
 834 0196 AB050000 		.4byte	0x5ab
 835 019a 18       		.byte	0x18
 836 019b 06       		.uleb128 0x6
 837 019c 4F020000 		.4byte	.LASF34
 838 01a0 08       		.byte	0x8
 839 01a1 B0       		.byte	0xb0
 840 01a2 BD050000 		.4byte	0x5bd
 841 01a6 1C       		.byte	0x1c
 842 01a7 06       		.uleb128 0x6
 843 01a8 94050000 		.4byte	.LASF35
 844 01ac 08       		.byte	0x8
 845 01ad B5       		.byte	0xb5
ARM GAS  /tmp/cc6dBTT4.s 			page 40


 846 01ae EF000000 		.4byte	0xef
 847 01b2 20       		.byte	0x20
 848 01b3 06       		.uleb128 0x6
 849 01b4 34000000 		.4byte	.LASF36
 850 01b8 08       		.byte	0x8
 851 01b9 B9       		.byte	0xb9
 852 01ba E4000000 		.4byte	0xe4
 853 01be 21       		.byte	0x21
 854 01bf 06       		.uleb128 0x6
 855 01c0 81000000 		.4byte	.LASF37
 856 01c4 08       		.byte	0x8
 857 01c5 BE       		.byte	0xbe
 858 01c6 FA000000 		.4byte	0xfa
 859 01ca 22       		.byte	0x22
 860 01cb 08       		.uleb128 0x8
 861 01cc 7500     		.ascii	"u\000"
 862 01ce 08       		.byte	0x8
 863 01cf 0F01     		.2byte	0x10f
 864 01d1 E0040000 		.4byte	0x4e0
 865 01d5 24       		.byte	0x24
 866 01d6 09       		.uleb128 0x9
 867 01d7 63050000 		.4byte	.LASF38
 868 01db 08       		.byte	0x8
 869 01dc 1401     		.2byte	0x114
 870 01de 36020000 		.4byte	0x236
 871 01e2 28       		.byte	0x28
 872 01e3 09       		.uleb128 0x9
 873 01e4 81020000 		.4byte	.LASF39
 874 01e8 08       		.byte	0x8
 875 01e9 1A01     		.2byte	0x11a
 876 01eb 5A020000 		.4byte	0x25a
 877 01ef 2C       		.byte	0x2c
 878 01f0 09       		.uleb128 0x9
 879 01f1 4D000000 		.4byte	.LASF40
 880 01f5 08       		.byte	0x8
 881 01f6 2001     		.2byte	0x120
 882 01f8 1B010000 		.4byte	0x11b
 883 01fc 34       		.byte	0x34
 884 01fd 09       		.uleb128 0x9
 885 01fe A8010000 		.4byte	.LASF41
 886 0202 08       		.byte	0x8
 887 0203 2701     		.2byte	0x127
 888 0205 A5050000 		.4byte	0x5a5
 889 0209 38       		.byte	0x38
 890 020a 09       		.uleb128 0x9
 891 020b 44000000 		.4byte	.LASF42
 892 020f 08       		.byte	0x8
 893 0210 2B01     		.2byte	0x12b
 894 0212 05010000 		.4byte	0x105
 895 0216 3C       		.byte	0x3c
 896 0217 09       		.uleb128 0x9
 897 0218 33060000 		.4byte	.LASF43
 898 021c 08       		.byte	0x8
 899 021d 3201     		.2byte	0x132
 900 021f 0D030000 		.4byte	0x30d
 901 0223 40       		.byte	0x40
 902 0224 00       		.byte	0
ARM GAS  /tmp/cc6dBTT4.s 			page 41


 903 0225 03       		.uleb128 0x3
 904 0226 3C020000 		.4byte	.LASF44
 905 022a 07       		.byte	0x7
 906 022b 44       		.byte	0x44
 907 022c 30020000 		.4byte	0x230
 908 0230 0A       		.uleb128 0xa
 909 0231 04       		.byte	0x4
 910 0232 3C010000 		.4byte	0x13c
 911 0236 03       		.uleb128 0x3
 912 0237 68000000 		.4byte	.LASF45
 913 023b 07       		.byte	0x7
 914 023c 49       		.byte	0x49
 915 023d 41020000 		.4byte	0x241
 916 0241 05       		.uleb128 0x5
 917 0242 00000000 		.4byte	.LASF47
 918 0246 04       		.byte	0x4
 919 0247 08       		.byte	0x8
 920 0248 88       		.byte	0x88
 921 0249 5A020000 		.4byte	0x25a
 922 024d 06       		.uleb128 0x6
 923 024e 63000000 		.4byte	.LASF48
 924 0252 08       		.byte	0x8
 925 0253 89       		.byte	0x89
 926 0254 30020000 		.4byte	0x230
 927 0258 00       		.byte	0
 928 0259 00       		.byte	0
 929 025a 03       		.uleb128 0x3
 930 025b 92010000 		.4byte	.LASF49
 931 025f 07       		.byte	0x7
 932 0260 50       		.byte	0x50
 933 0261 65020000 		.4byte	0x265
 934 0265 05       		.uleb128 0x5
 935 0266 CF000000 		.4byte	.LASF50
 936 026a 08       		.byte	0x8
 937 026b 08       		.byte	0x8
 938 026c 8F       		.byte	0x8f
 939 026d 8A020000 		.4byte	0x28a
 940 0271 06       		.uleb128 0x6
 941 0272 63000000 		.4byte	.LASF48
 942 0276 08       		.byte	0x8
 943 0277 90       		.byte	0x90
 944 0278 30020000 		.4byte	0x230
 945 027c 00       		.byte	0
 946 027d 06       		.uleb128 0x6
 947 027e CA000000 		.4byte	.LASF51
 948 0282 08       		.byte	0x8
 949 0283 91       		.byte	0x91
 950 0284 30020000 		.4byte	0x230
 951 0288 04       		.byte	0x4
 952 0289 00       		.byte	0
 953 028a 03       		.uleb128 0x3
 954 028b 06050000 		.4byte	.LASF52
 955 028f 07       		.byte	0x7
 956 0290 57       		.byte	0x57
 957 0291 95020000 		.4byte	0x295
 958 0295 0B       		.uleb128 0xb
 959 0296 B0000000 		.4byte	.LASF53
ARM GAS  /tmp/cc6dBTT4.s 			page 42


 960 029a 1C       		.byte	0x1c
 961 029b 08       		.byte	0x8
 962 029c 6A01     		.2byte	0x16a
 963 029e F1020000 		.4byte	0x2f1
 964 02a2 09       		.uleb128 0x9
 965 02a3 13050000 		.4byte	.LASF29
 966 02a7 08       		.byte	0x8
 967 02a8 6B01     		.2byte	0x16b
 968 02aa 5A020000 		.4byte	0x25a
 969 02ae 00       		.byte	0
 970 02af 09       		.uleb128 0x9
 971 02b0 24020000 		.4byte	.LASF30
 972 02b4 08       		.byte	0x8
 973 02b5 6C01     		.2byte	0x16c
 974 02b7 05010000 		.4byte	0x105
 975 02bb 08       		.byte	0x8
 976 02bc 08       		.uleb128 0x8
 977 02bd 63747800 		.ascii	"ctx\000"
 978 02c1 08       		.byte	0x8
 979 02c2 6E01     		.2byte	0x16e
 980 02c4 46040000 		.4byte	0x446
 981 02c8 0C       		.byte	0xc
 982 02c9 09       		.uleb128 0x9
 983 02ca 44050000 		.4byte	.LASF31
 984 02ce 08       		.byte	0x8
 985 02cf 7101     		.2byte	0x171
 986 02d1 30020000 		.4byte	0x230
 987 02d5 10       		.byte	0x10
 988 02d6 09       		.uleb128 0x9
 989 02d7 16060000 		.4byte	.LASF32
 990 02db 08       		.byte	0x8
 991 02dc 7201     		.2byte	0x172
 992 02de 30020000 		.4byte	0x230
 993 02e2 14       		.byte	0x14
 994 02e3 09       		.uleb128 0x9
 995 02e4 EE050000 		.4byte	.LASF54
 996 02e8 08       		.byte	0x8
 997 02e9 7501     		.2byte	0x175
 998 02eb 30020000 		.4byte	0x230
 999 02ef 18       		.byte	0x18
 1000 02f0 00       		.byte	0
 1001 02f1 03       		.uleb128 0x3
 1002 02f2 E0000000 		.4byte	.LASF55
 1003 02f6 07       		.byte	0x7
 1004 02f7 5C       		.byte	0x5c
 1005 02f8 FC020000 		.4byte	0x2fc
 1006 02fc 0A       		.uleb128 0xa
 1007 02fd 04       		.byte	0x4
 1008 02fe 02030000 		.4byte	0x302
 1009 0302 0C       		.uleb128 0xc
 1010 0303 0D030000 		.4byte	0x30d
 1011 0307 0D       		.uleb128 0xd
 1012 0308 0D030000 		.4byte	0x30d
 1013 030c 00       		.byte	0
 1014 030d 0E       		.uleb128 0xe
 1015 030e 04       		.byte	0x4
 1016 030f 03       		.uleb128 0x3
ARM GAS  /tmp/cc6dBTT4.s 			page 43


 1017 0310 E1020000 		.4byte	.LASF56
 1018 0314 07       		.byte	0x7
 1019 0315 61       		.byte	0x61
 1020 0316 1A030000 		.4byte	0x31a
 1021 031a 0B       		.uleb128 0xb
 1022 031b 3F010000 		.4byte	.LASF57
 1023 031f 14       		.byte	0x14
 1024 0320 08       		.byte	0x8
 1025 0321 4501     		.2byte	0x145
 1026 0323 69030000 		.4byte	0x369
 1027 0327 09       		.uleb128 0x9
 1028 0328 63000000 		.4byte	.LASF48
 1029 032c 08       		.byte	0x8
 1030 032d 4601     		.2byte	0x146
 1031 032f C3050000 		.4byte	0x5c3
 1032 0333 00       		.byte	0
 1033 0334 09       		.uleb128 0x9
 1034 0335 CA000000 		.4byte	.LASF51
 1035 0339 08       		.byte	0x8
 1036 033a 4701     		.2byte	0x147
 1037 033c C3050000 		.4byte	0x5c3
 1038 0340 04       		.byte	0x4
 1039 0341 09       		.uleb128 0x9
 1040 0342 CA050000 		.4byte	.LASF58
 1041 0346 08       		.byte	0x8
 1042 0347 4801     		.2byte	0x148
 1043 0349 31010000 		.4byte	0x131
 1044 034d 08       		.byte	0x8
 1045 034e 09       		.uleb128 0x9
 1046 034f BE000000 		.4byte	.LASF59
 1047 0353 08       		.byte	0x8
 1048 0354 4901     		.2byte	0x149
 1049 0356 F1020000 		.4byte	0x2f1
 1050 035a 0C       		.byte	0xc
 1051 035b 08       		.uleb128 0x8
 1052 035c 70617200 		.ascii	"par\000"
 1053 0360 08       		.byte	0x8
 1054 0361 4B01     		.2byte	0x14b
 1055 0363 0D030000 		.4byte	0x30d
 1056 0367 10       		.byte	0x10
 1057 0368 00       		.byte	0
 1058 0369 03       		.uleb128 0x3
 1059 036a 71050000 		.4byte	.LASF60
 1060 036e 07       		.byte	0x7
 1061 036f 66       		.byte	0x66
 1062 0370 74030000 		.4byte	0x374
 1063 0374 0B       		.uleb128 0xb
 1064 0375 B0010000 		.4byte	.LASF61
 1065 0379 0C       		.byte	0xc
 1066 037a 08       		.byte	0x8
 1067 037b 5501     		.2byte	0x155
 1068 037d B6030000 		.4byte	0x3b6
 1069 0381 09       		.uleb128 0x9
 1070 0382 63000000 		.4byte	.LASF48
 1071 0386 08       		.byte	0x8
 1072 0387 5601     		.2byte	0x156
 1073 0389 C3050000 		.4byte	0x5c3
ARM GAS  /tmp/cc6dBTT4.s 			page 44


 1074 038d 00       		.byte	0
 1075 038e 09       		.uleb128 0x9
 1076 038f CA000000 		.4byte	.LASF51
 1077 0393 08       		.byte	0x8
 1078 0394 5801     		.2byte	0x158
 1079 0396 C3050000 		.4byte	0x5c3
 1080 039a 04       		.byte	0x4
 1081 039b 09       		.uleb128 0x9
 1082 039c CA050000 		.4byte	.LASF58
 1083 03a0 08       		.byte	0x8
 1084 03a1 5A01     		.2byte	0x15a
 1085 03a3 31010000 		.4byte	0x131
 1086 03a7 08       		.byte	0x8
 1087 03a8 09       		.uleb128 0x9
 1088 03a9 A3040000 		.4byte	.LASF62
 1089 03ad 08       		.byte	0x8
 1090 03ae 6201     		.2byte	0x162
 1091 03b0 31010000 		.4byte	0x131
 1092 03b4 0A       		.byte	0xa
 1093 03b5 00       		.byte	0
 1094 03b6 03       		.uleb128 0x3
 1095 03b7 B9020000 		.4byte	.LASF63
 1096 03bb 07       		.byte	0x7
 1097 03bc 6B       		.byte	0x6b
 1098 03bd C1030000 		.4byte	0x3c1
 1099 03c1 0B       		.uleb128 0xb
 1100 03c2 E9000000 		.4byte	.LASF64
 1101 03c6 04       		.byte	0x4
 1102 03c7 08       		.byte	0x8
 1103 03c8 7C01     		.2byte	0x17c
 1104 03ca DC030000 		.4byte	0x3dc
 1105 03ce 09       		.uleb128 0x9
 1106 03cf D2030000 		.4byte	.LASF65
 1107 03d3 08       		.byte	0x8
 1108 03d4 8401     		.2byte	0x184
 1109 03d6 C9050000 		.4byte	0x5c9
 1110 03da 00       		.byte	0
 1111 03db 00       		.byte	0
 1112 03dc 03       		.uleb128 0x3
 1113 03dd A6050000 		.4byte	.LASF66
 1114 03e1 07       		.byte	0x7
 1115 03e2 70       		.byte	0x70
 1116 03e3 E7030000 		.4byte	0x3e7
 1117 03e7 0B       		.uleb128 0xb
 1118 03e8 82040000 		.4byte	.LASF67
 1119 03ec 70       		.byte	0x70
 1120 03ed 08       		.byte	0x8
 1121 03ee 9C01     		.2byte	0x19c
 1122 03f0 29040000 		.4byte	0x429
 1123 03f4 09       		.uleb128 0x9
 1124 03f5 B5040000 		.4byte	.LASF68
 1125 03f9 08       		.byte	0x8
 1126 03fa A001     		.2byte	0x1a0
 1127 03fc 8A020000 		.4byte	0x28a
 1128 0400 00       		.byte	0
 1129 0401 09       		.uleb128 0x9
 1130 0402 9C000000 		.4byte	.LASF69
ARM GAS  /tmp/cc6dBTT4.s 			page 45


 1131 0406 08       		.byte	0x8
 1132 0407 A401     		.2byte	0x1a4
 1133 0409 69030000 		.4byte	0x369
 1134 040d 1C       		.byte	0x1c
 1135 040e 08       		.uleb128 0x8
 1136 040f 64626700 		.ascii	"dbg\000"
 1137 0413 08       		.byte	0x8
 1138 0414 A801     		.2byte	0x1a8
 1139 0416 B6030000 		.4byte	0x3b6
 1140 041a 28       		.byte	0x28
 1141 041b 09       		.uleb128 0x9
 1142 041c E4030000 		.4byte	.LASF70
 1143 0420 08       		.byte	0x8
 1144 0421 AC01     		.2byte	0x1ac
 1145 0423 3C010000 		.4byte	0x13c
 1146 0427 2C       		.byte	0x2c
 1147 0428 00       		.byte	0
 1148 0429 04       		.uleb128 0x4
 1149 042a 04       		.byte	0x4
 1150 042b 07       		.byte	0x7
 1151 042c E3040000 		.4byte	.LASF71
 1152 0430 03       		.uleb128 0x3
 1153 0431 2B000000 		.4byte	.LASF72
 1154 0435 09       		.byte	0x9
 1155 0436 65       		.byte	0x65
 1156 0437 0D030000 		.4byte	0x30d
 1157 043b 03       		.uleb128 0x3
 1158 043c E3050000 		.4byte	.LASF73
 1159 0440 09       		.byte	0x9
 1160 0441 6D       		.byte	0x6d
 1161 0442 D9000000 		.4byte	0xd9
 1162 0446 05       		.uleb128 0x5
 1163 0447 A3000000 		.4byte	.LASF74
 1164 044b 04       		.byte	0x4
 1165 044c 09       		.byte	0x9
 1166 044d 89       		.byte	0x89
 1167 044e 5E040000 		.4byte	0x45e
 1168 0452 07       		.uleb128 0x7
 1169 0453 737000   		.ascii	"sp\000"
 1170 0456 09       		.byte	0x9
 1171 0457 8A       		.byte	0x8a
 1172 0458 DA040000 		.4byte	0x4da
 1173 045c 00       		.byte	0
 1174 045d 00       		.byte	0
 1175 045e 0B       		.uleb128 0xb
 1176 045f 69040000 		.4byte	.LASF75
 1177 0463 24       		.byte	0x24
 1178 0464 0A       		.byte	0xa
 1179 0465 5901     		.2byte	0x159
 1180 0467 DA040000 		.4byte	0x4da
 1181 046b 08       		.uleb128 0x8
 1182 046c 723400   		.ascii	"r4\000"
 1183 046f 0A       		.byte	0xa
 1184 0470 6C01     		.2byte	0x16c
 1185 0472 30040000 		.4byte	0x430
 1186 0476 00       		.byte	0
 1187 0477 08       		.uleb128 0x8
ARM GAS  /tmp/cc6dBTT4.s 			page 46


 1188 0478 723500   		.ascii	"r5\000"
 1189 047b 0A       		.byte	0xa
 1190 047c 6D01     		.2byte	0x16d
 1191 047e 30040000 		.4byte	0x430
 1192 0482 04       		.byte	0x4
 1193 0483 08       		.uleb128 0x8
 1194 0484 723600   		.ascii	"r6\000"
 1195 0487 0A       		.byte	0xa
 1196 0488 6E01     		.2byte	0x16e
 1197 048a 30040000 		.4byte	0x430
 1198 048e 08       		.byte	0x8
 1199 048f 08       		.uleb128 0x8
 1200 0490 723700   		.ascii	"r7\000"
 1201 0493 0A       		.byte	0xa
 1202 0494 6F01     		.2byte	0x16f
 1203 0496 30040000 		.4byte	0x430
 1204 049a 0C       		.byte	0xc
 1205 049b 08       		.uleb128 0x8
 1206 049c 723800   		.ascii	"r8\000"
 1207 049f 0A       		.byte	0xa
 1208 04a0 7001     		.2byte	0x170
 1209 04a2 30040000 		.4byte	0x430
 1210 04a6 10       		.byte	0x10
 1211 04a7 08       		.uleb128 0x8
 1212 04a8 723900   		.ascii	"r9\000"
 1213 04ab 0A       		.byte	0xa
 1214 04ac 7101     		.2byte	0x171
 1215 04ae 30040000 		.4byte	0x430
 1216 04b2 14       		.byte	0x14
 1217 04b3 08       		.uleb128 0x8
 1218 04b4 72313000 		.ascii	"r10\000"
 1219 04b8 0A       		.byte	0xa
 1220 04b9 7201     		.2byte	0x172
 1221 04bb 30040000 		.4byte	0x430
 1222 04bf 18       		.byte	0x18
 1223 04c0 08       		.uleb128 0x8
 1224 04c1 72313100 		.ascii	"r11\000"
 1225 04c5 0A       		.byte	0xa
 1226 04c6 7301     		.2byte	0x173
 1227 04c8 30040000 		.4byte	0x430
 1228 04cc 1C       		.byte	0x1c
 1229 04cd 08       		.uleb128 0x8
 1230 04ce 6C7200   		.ascii	"lr\000"
 1231 04d1 0A       		.byte	0xa
 1232 04d2 7401     		.2byte	0x174
 1233 04d4 30040000 		.4byte	0x430
 1234 04d8 20       		.byte	0x20
 1235 04d9 00       		.byte	0
 1236 04da 0A       		.uleb128 0xa
 1237 04db 04       		.byte	0x4
 1238 04dc 5E040000 		.4byte	0x45e
 1239 04e0 0F       		.uleb128 0xf
 1240 04e1 04       		.byte	0x4
 1241 04e2 08       		.byte	0x8
 1242 04e3 D2       		.byte	0xd2
 1243 04e4 43050000 		.4byte	0x543
 1244 04e8 10       		.uleb128 0x10
ARM GAS  /tmp/cc6dBTT4.s 			page 47


 1245 04e9 E8010000 		.4byte	.LASF76
 1246 04ed 08       		.byte	0x8
 1247 04ee D9       		.byte	0xd9
 1248 04ef 10010000 		.4byte	0x110
 1249 04f3 10       		.uleb128 0x10
 1250 04f4 1C060000 		.4byte	.LASF77
 1251 04f8 08       		.byte	0x8
 1252 04f9 E0       		.byte	0xe0
 1253 04fa 10010000 		.4byte	0x110
 1254 04fe 10       		.uleb128 0x10
 1255 04ff 8B000000 		.4byte	.LASF78
 1256 0503 08       		.byte	0x8
 1257 0504 E7       		.byte	0xe7
 1258 0505 0D030000 		.4byte	0x30d
 1259 0509 10       		.uleb128 0x10
 1260 050a B2050000 		.4byte	.LASF79
 1261 050e 08       		.byte	0x8
 1262 050f EE       		.byte	0xee
 1263 0510 43050000 		.4byte	0x543
 1264 0514 10       		.uleb128 0x10
 1265 0515 02010000 		.4byte	.LASF80
 1266 0519 08       		.byte	0x8
 1267 051a F3       		.byte	0xf3
 1268 051b 10010000 		.4byte	0x110
 1269 051f 10       		.uleb128 0x10
 1270 0520 21050000 		.4byte	.LASF81
 1271 0524 08       		.byte	0x8
 1272 0525 FC       		.byte	0xfc
 1273 0526 6E050000 		.4byte	0x56e
 1274 052a 11       		.uleb128 0x11
 1275 052b 10000000 		.4byte	.LASF82
 1276 052f 08       		.byte	0x8
 1277 0530 0501     		.2byte	0x105
 1278 0532 A5050000 		.4byte	0x5a5
 1279 0536 11       		.uleb128 0x11
 1280 0537 C3000000 		.4byte	.LASF83
 1281 053b 08       		.byte	0x8
 1282 053c 0D01     		.2byte	0x10d
 1283 053e 1B010000 		.4byte	0x11b
 1284 0542 00       		.byte	0
 1285 0543 0A       		.uleb128 0xa
 1286 0544 04       		.byte	0x4
 1287 0545 25020000 		.4byte	0x225
 1288 0549 05       		.uleb128 0x5
 1289 054a 2A010000 		.4byte	.LASF84
 1290 054e 0C       		.byte	0xc
 1291 054f 0B       		.byte	0xb
 1292 0550 34       		.byte	0x34
 1293 0551 6E050000 		.4byte	0x56e
 1294 0555 06       		.uleb128 0x6
 1295 0556 13050000 		.4byte	.LASF29
 1296 055a 0B       		.byte	0xb
 1297 055b 35       		.byte	0x35
 1298 055c 5A020000 		.4byte	0x25a
 1299 0560 00       		.byte	0
 1300 0561 07       		.uleb128 0x7
 1301 0562 636E7400 		.ascii	"cnt\000"
ARM GAS  /tmp/cc6dBTT4.s 			page 48


 1302 0566 0B       		.byte	0xb
 1303 0567 37       		.byte	0x37
 1304 0568 26010000 		.4byte	0x126
 1305 056c 08       		.byte	0x8
 1306 056d 00       		.byte	0
 1307 056e 0A       		.uleb128 0xa
 1308 056f 04       		.byte	0x4
 1309 0570 49050000 		.4byte	0x549
 1310 0574 05       		.uleb128 0x5
 1311 0575 01020000 		.4byte	.LASF85
 1312 0579 10       		.byte	0x10
 1313 057a 0C       		.byte	0xc
 1314 057b 39       		.byte	0x39
 1315 057c A5050000 		.4byte	0x5a5
 1316 0580 06       		.uleb128 0x6
 1317 0581 13050000 		.4byte	.LASF29
 1318 0585 0C       		.byte	0xc
 1319 0586 3A       		.byte	0x3a
 1320 0587 5A020000 		.4byte	0x25a
 1321 058b 00       		.byte	0
 1322 058c 06       		.uleb128 0x6
 1323 058d 8C010000 		.4byte	.LASF86
 1324 0591 0C       		.byte	0xc
 1325 0592 3C       		.byte	0x3c
 1326 0593 30020000 		.4byte	0x230
 1327 0597 08       		.byte	0x8
 1328 0598 06       		.uleb128 0x6
 1329 0599 63000000 		.4byte	.LASF48
 1330 059d 0C       		.byte	0xc
 1331 059e 3E       		.byte	0x3e
 1332 059f 40060000 		.4byte	0x640
 1333 05a3 0C       		.byte	0xc
 1334 05a4 00       		.byte	0
 1335 05a5 0A       		.uleb128 0xa
 1336 05a6 04       		.byte	0x4
 1337 05a7 74050000 		.4byte	0x574
 1338 05ab 0A       		.uleb128 0xa
 1339 05ac 04       		.byte	0x4
 1340 05ad B1050000 		.4byte	0x5b1
 1341 05b1 12       		.uleb128 0x12
 1342 05b2 B6050000 		.4byte	0x5b6
 1343 05b6 04       		.uleb128 0x4
 1344 05b7 01       		.byte	0x1
 1345 05b8 08       		.byte	0x8
 1346 05b9 37020000 		.4byte	.LASF87
 1347 05bd 0A       		.uleb128 0xa
 1348 05be 04       		.byte	0x4
 1349 05bf 3B040000 		.4byte	0x43b
 1350 05c3 0A       		.uleb128 0xa
 1351 05c4 04       		.byte	0x4
 1352 05c5 0F030000 		.4byte	0x30f
 1353 05c9 13       		.uleb128 0x13
 1354 05ca AB050000 		.4byte	0x5ab
 1355 05ce 03       		.uleb128 0x3
 1356 05cf 50010000 		.4byte	.LASF88
 1357 05d3 0D       		.byte	0xd
 1358 05d4 40       		.byte	0x40
ARM GAS  /tmp/cc6dBTT4.s 			page 49


 1359 05d5 FC020000 		.4byte	0x2fc
 1360 05d9 14       		.uleb128 0x14
 1361 05da 18       		.byte	0x18
 1362 05db 0D       		.byte	0xd
 1363 05dc 45       		.byte	0x45
 1364 05dd 2A060000 		.4byte	0x62a
 1365 05e1 06       		.uleb128 0x6
 1366 05e2 DE040000 		.4byte	.LASF33
 1367 05e6 0D       		.byte	0xd
 1368 05e7 49       		.byte	0x49
 1369 05e8 AB050000 		.4byte	0x5ab
 1370 05ec 00       		.byte	0
 1371 05ed 06       		.uleb128 0x6
 1372 05ee 25000000 		.4byte	.LASF89
 1373 05f2 0D       		.byte	0xd
 1374 05f3 4D       		.byte	0x4d
 1375 05f4 BD050000 		.4byte	0x5bd
 1376 05f8 04       		.byte	0x4
 1377 05f9 06       		.uleb128 0x6
 1378 05fa C8020000 		.4byte	.LASF90
 1379 05fe 0D       		.byte	0xd
 1380 05ff 51       		.byte	0x51
 1381 0600 BD050000 		.4byte	0x5bd
 1382 0604 08       		.byte	0x8
 1383 0605 06       		.uleb128 0x6
 1384 0606 24020000 		.4byte	.LASF30
 1385 060a 0D       		.byte	0xd
 1386 060b 55       		.byte	0x55
 1387 060c 05010000 		.4byte	0x105
 1388 0610 0C       		.byte	0xc
 1389 0611 06       		.uleb128 0x6
 1390 0612 6B050000 		.4byte	.LASF91
 1391 0616 0D       		.byte	0xd
 1392 0617 59       		.byte	0x59
 1393 0618 CE050000 		.4byte	0x5ce
 1394 061c 10       		.byte	0x10
 1395 061d 07       		.uleb128 0x7
 1396 061e 61726700 		.ascii	"arg\000"
 1397 0622 0D       		.byte	0xd
 1398 0623 5D       		.byte	0x5d
 1399 0624 0D030000 		.4byte	0x30d
 1400 0628 14       		.byte	0x14
 1401 0629 00       		.byte	0
 1402 062a 03       		.uleb128 0x3
 1403 062b 16010000 		.4byte	.LASF92
 1404 062f 0D       		.byte	0xd
 1405 0630 5E       		.byte	0x5e
 1406 0631 D9050000 		.4byte	0x5d9
 1407 0635 03       		.uleb128 0x3
 1408 0636 3C050000 		.4byte	.LASF93
 1409 063a 0C       		.byte	0xc
 1410 063b 34       		.byte	0x34
 1411 063c 74050000 		.4byte	0x574
 1412 0640 0A       		.uleb128 0xa
 1413 0641 04       		.byte	0x4
 1414 0642 35060000 		.4byte	0x635
 1415 0646 04       		.uleb128 0x4
ARM GAS  /tmp/cc6dBTT4.s 			page 50


 1416 0647 01       		.byte	0x1
 1417 0648 02       		.byte	0x2
 1418 0649 FB010000 		.4byte	.LASF94
 1419 064d 03       		.uleb128 0x3
 1420 064e D1040000 		.4byte	.LASF95
 1421 0652 0E       		.byte	0xe
 1422 0653 47       		.byte	0x47
 1423 0654 58060000 		.4byte	0x658
 1424 0658 0A       		.uleb128 0xa
 1425 0659 04       		.byte	0x4
 1426 065a 5E060000 		.4byte	0x65e
 1427 065e 15       		.uleb128 0x15
 1428 065f 0D030000 		.4byte	0x30d
 1429 0663 72060000 		.4byte	0x672
 1430 0667 0D       		.uleb128 0xd
 1431 0668 2C000000 		.4byte	0x2c
 1432 066c 0D       		.uleb128 0xd
 1433 066d 37000000 		.4byte	0x37
 1434 0671 00       		.byte	0
 1435 0672 03       		.uleb128 0x3
 1436 0673 02060000 		.4byte	.LASF96
 1437 0677 0E       		.byte	0xe
 1438 0678 4C       		.byte	0x4c
 1439 0679 7D060000 		.4byte	0x67d
 1440 067d 0A       		.uleb128 0xa
 1441 067e 04       		.byte	0x4
 1442 067f 83060000 		.4byte	0x683
 1443 0683 15       		.uleb128 0x15
 1444 0684 0D030000 		.4byte	0x30d
 1445 0688 9C060000 		.4byte	0x69c
 1446 068c 0D       		.uleb128 0xd
 1447 068d 2C000000 		.4byte	0x2c
 1448 0691 0D       		.uleb128 0xd
 1449 0692 37000000 		.4byte	0x37
 1450 0696 0D       		.uleb128 0xd
 1451 0697 2C000000 		.4byte	0x2c
 1452 069b 00       		.byte	0
 1453 069c 03       		.uleb128 0x3
 1454 069d AE030000 		.4byte	.LASF97
 1455 06a1 0F       		.byte	0xf
 1456 06a2 48       		.byte	0x48
 1457 06a3 A7060000 		.4byte	0x6a7
 1458 06a7 05       		.uleb128 0x5
 1459 06a8 54040000 		.4byte	.LASF98
 1460 06ac 20       		.byte	0x20
 1461 06ad 0F       		.byte	0xf
 1462 06ae 61       		.byte	0x61
 1463 06af D8060000 		.4byte	0x6d8
 1464 06b3 06       		.uleb128 0x6
 1465 06b4 9A040000 		.4byte	.LASF99
 1466 06b8 0F       		.byte	0xf
 1467 06b9 62       		.byte	0x62
 1468 06ba 72060000 		.4byte	0x672
 1469 06be 00       		.byte	0
 1470 06bf 06       		.uleb128 0x6
 1471 06c0 A7030000 		.4byte	.LASF100
 1472 06c4 0F       		.byte	0xf
ARM GAS  /tmp/cc6dBTT4.s 			page 51


 1473 06c5 64       		.byte	0x64
 1474 06c6 D8060000 		.4byte	0x6d8
 1475 06ca 08       		.byte	0x8
 1476 06cb 07       		.uleb128 0x7
 1477 06cc 6D747800 		.ascii	"mtx\000"
 1478 06d0 0F       		.byte	0xf
 1479 06d1 66       		.byte	0x66
 1480 06d2 35060000 		.4byte	0x635
 1481 06d6 10       		.byte	0x10
 1482 06d7 00       		.byte	0
 1483 06d8 03       		.uleb128 0x3
 1484 06d9 25060000 		.4byte	.LASF101
 1485 06dd 0F       		.byte	0xf
 1486 06de 4D       		.byte	0x4d
 1487 06df E3060000 		.4byte	0x6e3
 1488 06e3 16       		.uleb128 0x16
 1489 06e4 D5010000 		.4byte	.LASF127
 1490 06e8 08       		.byte	0x8
 1491 06e9 0F       		.byte	0xf
 1492 06ea 52       		.byte	0x52
 1493 06eb 11070000 		.4byte	0x711
 1494 06ef 10       		.uleb128 0x10
 1495 06f0 10060000 		.4byte	.LASF102
 1496 06f4 0F       		.byte	0xf
 1497 06f5 53       		.byte	0x53
 1498 06f6 3B040000 		.4byte	0x43b
 1499 06fa 10       		.uleb128 0x10
 1500 06fb 0A020000 		.4byte	.LASF103
 1501 06ff 0F       		.byte	0xf
 1502 0700 57       		.byte	0x57
 1503 0701 11070000 		.4byte	0x711
 1504 0705 10       		.uleb128 0x10
 1505 0706 C7010000 		.4byte	.LASF104
 1506 070a 0F       		.byte	0xf
 1507 070b 5B       		.byte	0x5b
 1508 070c 38070000 		.4byte	0x738
 1509 0710 00       		.byte	0
 1510 0711 14       		.uleb128 0x14
 1511 0712 08       		.byte	0x8
 1512 0713 0F       		.byte	0xf
 1513 0714 54       		.byte	0x54
 1514 0715 32070000 		.4byte	0x732
 1515 0719 06       		.uleb128 0x6
 1516 071a 63000000 		.4byte	.LASF48
 1517 071e 0F       		.byte	0xf
 1518 071f 55       		.byte	0x55
 1519 0720 32070000 		.4byte	0x732
 1520 0724 00       		.byte	0
 1521 0725 06       		.uleb128 0x6
 1522 0726 94020000 		.4byte	.LASF105
 1523 072a 0F       		.byte	0xf
 1524 072b 56       		.byte	0x56
 1525 072c 2C000000 		.4byte	0x2c
 1526 0730 04       		.byte	0x4
 1527 0731 00       		.byte	0
 1528 0732 0A       		.uleb128 0xa
 1529 0733 04       		.byte	0x4
ARM GAS  /tmp/cc6dBTT4.s 			page 52


 1530 0734 D8060000 		.4byte	0x6d8
 1531 0738 14       		.uleb128 0x14
 1532 0739 08       		.byte	0x8
 1533 073a 0F       		.byte	0xf
 1534 073b 58       		.byte	0x58
 1535 073c 59070000 		.4byte	0x759
 1536 0740 06       		.uleb128 0x6
 1537 0741 86000000 		.4byte	.LASF106
 1538 0745 0F       		.byte	0xf
 1539 0746 59       		.byte	0x59
 1540 0747 59070000 		.4byte	0x759
 1541 074b 00       		.byte	0
 1542 074c 06       		.uleb128 0x6
 1543 074d F1020000 		.4byte	.LASF107
 1544 0751 0F       		.byte	0xf
 1545 0752 5A       		.byte	0x5a
 1546 0753 2C000000 		.4byte	0x2c
 1547 0757 04       		.byte	0x4
 1548 0758 00       		.byte	0
 1549 0759 0A       		.uleb128 0xa
 1550 075a 04       		.byte	0x4
 1551 075b 9C060000 		.4byte	0x69c
 1552 075f 05       		.uleb128 0x5
 1553 0760 9A050000 		.4byte	.LASF108
 1554 0764 04       		.byte	0x4
 1555 0765 10       		.byte	0x10
 1556 0766 38       		.byte	0x38
 1557 0767 78070000 		.4byte	0x778
 1558 076b 06       		.uleb128 0x6
 1559 076c 63000000 		.4byte	.LASF48
 1560 0770 10       		.byte	0x10
 1561 0771 39       		.byte	0x39
 1562 0772 78070000 		.4byte	0x778
 1563 0776 00       		.byte	0
 1564 0777 00       		.byte	0
 1565 0778 0A       		.uleb128 0xa
 1566 0779 04       		.byte	0x4
 1567 077a 5F070000 		.4byte	0x75f
 1568 077e 14       		.uleb128 0x14
 1569 077f 0C       		.byte	0xc
 1570 0780 10       		.byte	0x10
 1571 0781 40       		.byte	0x40
 1572 0782 AB070000 		.4byte	0x7ab
 1573 0786 06       		.uleb128 0x6
 1574 0787 63000000 		.4byte	.LASF48
 1575 078b 10       		.byte	0x10
 1576 078c 41       		.byte	0x41
 1577 078d 78070000 		.4byte	0x778
 1578 0791 00       		.byte	0
 1579 0792 06       		.uleb128 0x6
 1580 0793 EF010000 		.4byte	.LASF109
 1581 0797 10       		.byte	0x10
 1582 0798 42       		.byte	0x42
 1583 0799 2C000000 		.4byte	0x2c
 1584 079d 04       		.byte	0x4
 1585 079e 06       		.uleb128 0x6
 1586 079f 9A040000 		.4byte	.LASF99
ARM GAS  /tmp/cc6dBTT4.s 			page 53


 1587 07a3 10       		.byte	0x10
 1588 07a4 44       		.byte	0x44
 1589 07a5 4D060000 		.4byte	0x64d
 1590 07a9 08       		.byte	0x8
 1591 07aa 00       		.byte	0
 1592 07ab 03       		.uleb128 0x3
 1593 07ac 17000000 		.4byte	.LASF110
 1594 07b0 10       		.byte	0x10
 1595 07b1 46       		.byte	0x46
 1596 07b2 7E070000 		.4byte	0x77e
 1597 07b6 17       		.uleb128 0x17
 1598 07b7 8C040000 		.4byte	.LASF114
 1599 07bb 02       		.byte	0x2
 1600 07bc 0601     		.2byte	0x106
 1601 07be 03       		.byte	0x3
 1602 07bf D0070000 		.4byte	0x7d0
 1603 07c3 18       		.uleb128 0x18
 1604 07c4 A2010000 		.4byte	.LASF128
 1605 07c8 02       		.byte	0x2
 1606 07c9 0601     		.2byte	0x106
 1607 07cb CE000000 		.4byte	0xce
 1608 07cf 00       		.byte	0
 1609 07d0 19       		.uleb128 0x19
 1610 07d1 92000000 		.4byte	.LASF111
 1611 07d5 0A       		.byte	0xa
 1612 07d6 5202     		.2byte	0x252
 1613 07d8 03       		.byte	0x3
 1614 07d9 19       		.uleb128 0x19
 1615 07da F6050000 		.4byte	.LASF112
 1616 07de 0A       		.byte	0xa
 1617 07df 6A02     		.2byte	0x26a
 1618 07e1 03       		.byte	0x3
 1619 07e2 19       		.uleb128 0x19
 1620 07e3 1A020000 		.4byte	.LASF113
 1621 07e7 11       		.byte	0x11
 1622 07e8 7601     		.2byte	0x176
 1623 07ea 03       		.byte	0x3
 1624 07eb 17       		.uleb128 0x17
 1625 07ec 80010000 		.4byte	.LASF115
 1626 07f0 11       		.byte	0x11
 1627 07f1 8201     		.2byte	0x182
 1628 07f3 03       		.byte	0x3
 1629 07f4 06080000 		.4byte	0x806
 1630 07f8 1A       		.uleb128 0x1a
 1631 07f9 F6020000 		.4byte	.LASF129
 1632 07fd 16080000 		.4byte	0x816
 1633 0801 80010000 		.4byte	.LASF115
 1634 0805 00       		.byte	0
 1635 0806 1B       		.uleb128 0x1b
 1636 0807 B6050000 		.4byte	0x5b6
 1637 080b 16080000 		.4byte	0x816
 1638 080f 1C       		.uleb128 0x1c
 1639 0810 29040000 		.4byte	0x429
 1640 0814 0B       		.byte	0xb
 1641 0815 00       		.byte	0
 1642 0816 12       		.uleb128 0x12
 1643 0817 06080000 		.4byte	0x806
ARM GAS  /tmp/cc6dBTT4.s 			page 54


 1644 081b 1D       		.uleb128 0x1d
 1645 081c 28050000 		.4byte	.LASF117
 1646 0820 01       		.byte	0x1
 1647 0821 52       		.byte	0x52
 1648 0822 30020000 		.4byte	0x230
 1649 0826 00000000 		.4byte	.LFB188
 1650 082a 4A000000 		.4byte	.LFE188-.LFB188
 1651 082e 01       		.uleb128 0x1
 1652 082f 9C       		.byte	0x9c
 1653 0830 8C090000 		.4byte	0x98c
 1654 0834 1E       		.uleb128 0x1e
 1655 0835 B8050000 		.4byte	.LASF116
 1656 0839 01       		.byte	0x1
 1657 083a 52       		.byte	0x52
 1658 083b 59070000 		.4byte	0x759
 1659 083f 00000000 		.4byte	.LLST0
 1660 0843 1E       		.uleb128 0x1e
 1661 0844 F1020000 		.4byte	.LASF107
 1662 0848 01       		.byte	0x1
 1663 0849 52       		.byte	0x52
 1664 084a 2C000000 		.4byte	0x2c
 1665 084e 21000000 		.4byte	.LLST1
 1666 0852 1E       		.uleb128 0x1e
 1667 0853 DE040000 		.4byte	.LASF33
 1668 0857 01       		.byte	0x1
 1669 0858 53       		.byte	0x53
 1670 0859 AB050000 		.4byte	0x5ab
 1671 085d 4D000000 		.4byte	.LLST2
 1672 0861 1E       		.uleb128 0x1e
 1673 0862 24020000 		.4byte	.LASF30
 1674 0866 01       		.byte	0x1
 1675 0867 53       		.byte	0x53
 1676 0868 05010000 		.4byte	0x105
 1677 086c 79000000 		.4byte	.LLST3
 1678 0870 1F       		.uleb128 0x1f
 1679 0871 706600   		.ascii	"pf\000"
 1680 0874 01       		.byte	0x1
 1681 0875 54       		.byte	0x54
 1682 0876 CE050000 		.4byte	0x5ce
 1683 087a 02       		.uleb128 0x2
 1684 087b 91       		.byte	0x91
 1685 087c 00       		.sleb128 0
 1686 087d 1F       		.uleb128 0x1f
 1687 087e 61726700 		.ascii	"arg\000"
 1688 0882 01       		.byte	0x1
 1689 0883 54       		.byte	0x54
 1690 0884 0D030000 		.4byte	0x30d
 1691 0888 02       		.uleb128 0x2
 1692 0889 91       		.byte	0x91
 1693 088a 04       		.sleb128 4
 1694 088b 20       		.uleb128 0x20
 1695 088c 747000   		.ascii	"tp\000"
 1696 088f 01       		.byte	0x1
 1697 0890 55       		.byte	0x55
 1698 0891 30020000 		.4byte	0x230
 1699 0895 97000000 		.4byte	.LLST4
 1700 0899 20       		.uleb128 0x20
ARM GAS  /tmp/cc6dBTT4.s 			page 55


 1701 089a 77737000 		.ascii	"wsp\000"
 1702 089e 01       		.byte	0x1
 1703 089f 56       		.byte	0x56
 1704 08a0 0D030000 		.4byte	0x30d
 1705 08a4 B5000000 		.4byte	.LLST5
 1706 08a8 21       		.uleb128 0x21
 1707 08a9 746400   		.ascii	"td\000"
 1708 08ac 01       		.byte	0x1
 1709 08ad 5D       		.byte	0x5d
 1710 08ae 2A060000 		.4byte	0x62a
 1711 08b2 02       		.uleb128 0x2
 1712 08b3 91       		.byte	0x91
 1713 08b4 58       		.sleb128 -40
 1714 08b5 22       		.uleb128 0x22
 1715 08b6 E2070000 		.4byte	0x7e2
 1716 08ba 24000000 		.4byte	.LBB34
 1717 08be 06000000 		.4byte	.LBE34-.LBB34
 1718 08c2 01       		.byte	0x1
 1719 08c3 6C       		.byte	0x6c
 1720 08c4 F4080000 		.4byte	0x8f4
 1721 08c8 23       		.uleb128 0x23
 1722 08c9 D0070000 		.4byte	0x7d0
 1723 08cd 24000000 		.4byte	.LBB35
 1724 08d1 06000000 		.4byte	.LBE35-.LBB35
 1725 08d5 11       		.byte	0x11
 1726 08d6 7801     		.2byte	0x178
 1727 08d8 23       		.uleb128 0x23
 1728 08d9 B6070000 		.4byte	0x7b6
 1729 08dd 24000000 		.4byte	.LBB36
 1730 08e1 06000000 		.4byte	.LBE36-.LBB36
 1731 08e5 0A       		.byte	0xa
 1732 08e6 5A02     		.2byte	0x25a
 1733 08e8 24       		.uleb128 0x24
 1734 08e9 C3070000 		.4byte	0x7c3
 1735 08ed D4000000 		.4byte	.LLST6
 1736 08f1 00       		.byte	0
 1737 08f2 00       		.byte	0
 1738 08f3 00       		.byte	0
 1739 08f4 22       		.uleb128 0x22
 1740 08f5 EB070000 		.4byte	0x7eb
 1741 08f9 3E000000 		.4byte	.LBB38
 1742 08fd 06000000 		.4byte	.LBE38-.LBB38
 1743 0901 01       		.byte	0x1
 1744 0902 70       		.byte	0x70
 1745 0903 42090000 		.4byte	0x942
 1746 0907 25       		.uleb128 0x25
 1747 0908 3E000000 		.4byte	.LBB39
 1748 090c 06000000 		.4byte	.LBE39-.LBB39
 1749 0910 26       		.uleb128 0x26
 1750 0911 F8070000 		.4byte	0x7f8
 1751 0915 23       		.uleb128 0x23
 1752 0916 D9070000 		.4byte	0x7d9
 1753 091a 3E000000 		.4byte	.LBB40
 1754 091e 06000000 		.4byte	.LBE40-.LBB40
 1755 0922 11       		.byte	0x11
 1756 0923 8F01     		.2byte	0x18f
 1757 0925 23       		.uleb128 0x23
ARM GAS  /tmp/cc6dBTT4.s 			page 56


 1758 0926 B6070000 		.4byte	0x7b6
 1759 092a 3E000000 		.4byte	.LBB41
 1760 092e 06000000 		.4byte	.LBE41-.LBB41
 1761 0932 0A       		.byte	0xa
 1762 0933 6D02     		.2byte	0x26d
 1763 0935 24       		.uleb128 0x24
 1764 0936 C3070000 		.4byte	0x7c3
 1765 093a E9000000 		.4byte	.LLST7
 1766 093e 00       		.byte	0
 1767 093f 00       		.byte	0
 1768 0940 00       		.byte	0
 1769 0941 00       		.byte	0
 1770 0942 27       		.uleb128 0x27
 1771 0943 10000000 		.4byte	.LVL2
 1772 0947 220B0000 		.4byte	0xb22
 1773 094b 62090000 		.4byte	0x962
 1774 094f 28       		.uleb128 0x28
 1775 0950 01       		.uleb128 0x1
 1776 0951 52       		.byte	0x52
 1777 0952 01       		.uleb128 0x1
 1778 0953 38       		.byte	0x38
 1779 0954 28       		.uleb128 0x28
 1780 0955 01       		.uleb128 0x1
 1781 0956 51       		.byte	0x51
 1782 0957 02       		.uleb128 0x2
 1783 0958 75       		.byte	0x75
 1784 0959 00       		.sleb128 0
 1785 095a 28       		.uleb128 0x28
 1786 095b 01       		.uleb128 0x1
 1787 095c 50       		.byte	0x50
 1788 095d 03       		.uleb128 0x3
 1789 095e F3       		.byte	0xf3
 1790 095f 01       		.uleb128 0x1
 1791 0960 50       		.byte	0x50
 1792 0961 00       		.byte	0
 1793 0962 27       		.uleb128 0x27
 1794 0963 30000000 		.4byte	.LVL6
 1795 0967 410B0000 		.4byte	0xb41
 1796 096b 76090000 		.4byte	0x976
 1797 096f 28       		.uleb128 0x28
 1798 0970 01       		.uleb128 0x1
 1799 0971 50       		.byte	0x50
 1800 0972 02       		.uleb128 0x2
 1801 0973 7D       		.byte	0x7d
 1802 0974 00       		.sleb128 0
 1803 0975 00       		.byte	0
 1804 0976 29       		.uleb128 0x29
 1805 0977 3E000000 		.4byte	.LVL8
 1806 097b 610B0000 		.4byte	0xb61
 1807 097f 28       		.uleb128 0x28
 1808 0980 01       		.uleb128 0x1
 1809 0981 51       		.byte	0x51
 1810 0982 01       		.uleb128 0x1
 1811 0983 30       		.byte	0x30
 1812 0984 28       		.uleb128 0x28
 1813 0985 01       		.uleb128 0x1
 1814 0986 50       		.byte	0x50
ARM GAS  /tmp/cc6dBTT4.s 			page 57


 1815 0987 02       		.uleb128 0x2
 1816 0988 74       		.byte	0x74
 1817 0989 00       		.sleb128 0
 1818 098a 00       		.byte	0
 1819 098b 00       		.byte	0
 1820 098c 1D       		.uleb128 0x1d
 1821 098d 56020000 		.4byte	.LASF118
 1822 0991 01       		.byte	0x1
 1823 0992 91       		.byte	0x91
 1824 0993 30020000 		.4byte	0x230
 1825 0997 00000000 		.4byte	.LFB189
 1826 099b 4C000000 		.4byte	.LFE189-.LFB189
 1827 099f 01       		.uleb128 0x1
 1828 09a0 9C       		.byte	0x9c
 1829 09a1 EB0A0000 		.4byte	0xaeb
 1830 09a5 2A       		.uleb128 0x2a
 1831 09a6 6D7000   		.ascii	"mp\000"
 1832 09a9 01       		.byte	0x1
 1833 09aa 91       		.byte	0x91
 1834 09ab EB0A0000 		.4byte	0xaeb
 1835 09af FD000000 		.4byte	.LLST8
 1836 09b3 1E       		.uleb128 0x1e
 1837 09b4 DE040000 		.4byte	.LASF33
 1838 09b8 01       		.byte	0x1
 1839 09b9 91       		.byte	0x91
 1840 09ba AB050000 		.4byte	0x5ab
 1841 09be 1B010000 		.4byte	.LLST9
 1842 09c2 1E       		.uleb128 0x1e
 1843 09c3 24020000 		.4byte	.LASF30
 1844 09c7 01       		.byte	0x1
 1845 09c8 92       		.byte	0x92
 1846 09c9 05010000 		.4byte	0x105
 1847 09cd 39010000 		.4byte	.LLST10
 1848 09d1 2A       		.uleb128 0x2a
 1849 09d2 706600   		.ascii	"pf\000"
 1850 09d5 01       		.byte	0x1
 1851 09d6 92       		.byte	0x92
 1852 09d7 CE050000 		.4byte	0x5ce
 1853 09db 57010000 		.4byte	.LLST11
 1854 09df 1F       		.uleb128 0x1f
 1855 09e0 61726700 		.ascii	"arg\000"
 1856 09e4 01       		.byte	0x1
 1857 09e5 92       		.byte	0x92
 1858 09e6 0D030000 		.4byte	0x30d
 1859 09ea 02       		.uleb128 0x2
 1860 09eb 91       		.byte	0x91
 1861 09ec 00       		.sleb128 0
 1862 09ed 20       		.uleb128 0x20
 1863 09ee 747000   		.ascii	"tp\000"
 1864 09f1 01       		.byte	0x1
 1865 09f2 93       		.byte	0x93
 1866 09f3 30020000 		.4byte	0x230
 1867 09f7 83010000 		.4byte	.LLST12
 1868 09fb 20       		.uleb128 0x20
 1869 09fc 77737000 		.ascii	"wsp\000"
 1870 0a00 01       		.byte	0x1
 1871 0a01 94       		.byte	0x94
ARM GAS  /tmp/cc6dBTT4.s 			page 58


 1872 0a02 0D030000 		.4byte	0x30d
 1873 0a06 A1010000 		.4byte	.LLST13
 1874 0a0a 2B       		.uleb128 0x2b
 1875 0a0b 29020000 		.4byte	.LASF130
 1876 0a0f 010B0000 		.4byte	0xb01
 1877 0a13 21       		.uleb128 0x21
 1878 0a14 746400   		.ascii	"td\000"
 1879 0a17 01       		.byte	0x1
 1880 0a18 9D       		.byte	0x9d
 1881 0a19 2A060000 		.4byte	0x62a
 1882 0a1d 02       		.uleb128 0x2
 1883 0a1e 91       		.byte	0x91
 1884 0a1f 50       		.sleb128 -48
 1885 0a20 22       		.uleb128 0x22
 1886 0a21 E2070000 		.4byte	0x7e2
 1887 0a25 24000000 		.4byte	.LBB43
 1888 0a29 06000000 		.4byte	.LBE43-.LBB43
 1889 0a2d 01       		.byte	0x1
 1890 0a2e AC       		.byte	0xac
 1891 0a2f 5F0A0000 		.4byte	0xa5f
 1892 0a33 23       		.uleb128 0x23
 1893 0a34 D0070000 		.4byte	0x7d0
 1894 0a38 24000000 		.4byte	.LBB44
 1895 0a3c 06000000 		.4byte	.LBE44-.LBB44
 1896 0a40 11       		.byte	0x11
 1897 0a41 7801     		.2byte	0x178
 1898 0a43 23       		.uleb128 0x23
 1899 0a44 B6070000 		.4byte	0x7b6
 1900 0a48 24000000 		.4byte	.LBB45
 1901 0a4c 06000000 		.4byte	.LBE45-.LBB45
 1902 0a50 0A       		.byte	0xa
 1903 0a51 5A02     		.2byte	0x25a
 1904 0a53 24       		.uleb128 0x24
 1905 0a54 C3070000 		.4byte	0x7c3
 1906 0a58 C0010000 		.4byte	.LLST14
 1907 0a5c 00       		.byte	0
 1908 0a5d 00       		.byte	0
 1909 0a5e 00       		.byte	0
 1910 0a5f 22       		.uleb128 0x22
 1911 0a60 EB070000 		.4byte	0x7eb
 1912 0a64 40000000 		.4byte	.LBB47
 1913 0a68 06000000 		.4byte	.LBE47-.LBB47
 1914 0a6c 01       		.byte	0x1
 1915 0a6d B1       		.byte	0xb1
 1916 0a6e AD0A0000 		.4byte	0xaad
 1917 0a72 25       		.uleb128 0x25
 1918 0a73 40000000 		.4byte	.LBB48
 1919 0a77 06000000 		.4byte	.LBE48-.LBB48
 1920 0a7b 26       		.uleb128 0x26
 1921 0a7c F8070000 		.4byte	0x7f8
 1922 0a80 23       		.uleb128 0x23
 1923 0a81 D9070000 		.4byte	0x7d9
 1924 0a85 40000000 		.4byte	.LBB49
 1925 0a89 06000000 		.4byte	.LBE49-.LBB49
 1926 0a8d 11       		.byte	0x11
 1927 0a8e 8F01     		.2byte	0x18f
 1928 0a90 23       		.uleb128 0x23
ARM GAS  /tmp/cc6dBTT4.s 			page 59


 1929 0a91 B6070000 		.4byte	0x7b6
 1930 0a95 40000000 		.4byte	.LBB50
 1931 0a99 06000000 		.4byte	.LBE50-.LBB50
 1932 0a9d 0A       		.byte	0xa
 1933 0a9e 6D02     		.2byte	0x26d
 1934 0aa0 24       		.uleb128 0x24
 1935 0aa1 C3070000 		.4byte	0x7c3
 1936 0aa5 D5010000 		.4byte	.LLST15
 1937 0aa9 00       		.byte	0
 1938 0aaa 00       		.byte	0
 1939 0aab 00       		.byte	0
 1940 0aac 00       		.byte	0
 1941 0aad 27       		.uleb128 0x27
 1942 0aae 10000000 		.4byte	.LVL11
 1943 0ab2 780B0000 		.4byte	0xb78
 1944 0ab6 C10A0000 		.4byte	0xac1
 1945 0aba 28       		.uleb128 0x28
 1946 0abb 01       		.uleb128 0x1
 1947 0abc 50       		.byte	0x50
 1948 0abd 02       		.uleb128 0x2
 1949 0abe 75       		.byte	0x75
 1950 0abf 00       		.sleb128 0
 1951 0ac0 00       		.byte	0
 1952 0ac1 27       		.uleb128 0x27
 1953 0ac2 30000000 		.4byte	.LVL14
 1954 0ac6 410B0000 		.4byte	0xb41
 1955 0aca D50A0000 		.4byte	0xad5
 1956 0ace 28       		.uleb128 0x28
 1957 0acf 01       		.uleb128 0x1
 1958 0ad0 50       		.byte	0x50
 1959 0ad1 02       		.uleb128 0x2
 1960 0ad2 7D       		.byte	0x7d
 1961 0ad3 00       		.sleb128 0
 1962 0ad4 00       		.byte	0
 1963 0ad5 29       		.uleb128 0x29
 1964 0ad6 40000000 		.4byte	.LVL16
 1965 0ada 610B0000 		.4byte	0xb61
 1966 0ade 28       		.uleb128 0x28
 1967 0adf 01       		.uleb128 0x1
 1968 0ae0 51       		.byte	0x51
 1969 0ae1 01       		.uleb128 0x1
 1970 0ae2 30       		.byte	0x30
 1971 0ae3 28       		.uleb128 0x28
 1972 0ae4 01       		.uleb128 0x1
 1973 0ae5 50       		.byte	0x50
 1974 0ae6 02       		.uleb128 0x2
 1975 0ae7 74       		.byte	0x74
 1976 0ae8 00       		.sleb128 0
 1977 0ae9 00       		.byte	0
 1978 0aea 00       		.byte	0
 1979 0aeb 0A       		.uleb128 0xa
 1980 0aec 04       		.byte	0x4
 1981 0aed AB070000 		.4byte	0x7ab
 1982 0af1 1B       		.uleb128 0x1b
 1983 0af2 B6050000 		.4byte	0x5b6
 1984 0af6 010B0000 		.4byte	0xb01
 1985 0afa 1C       		.uleb128 0x1c
ARM GAS  /tmp/cc6dBTT4.s 			page 60


 1986 0afb 29040000 		.4byte	0x429
 1987 0aff 19       		.byte	0x19
 1988 0b00 00       		.byte	0
 1989 0b01 12       		.uleb128 0x12
 1990 0b02 F10A0000 		.4byte	0xaf1
 1991 0b06 2C       		.uleb128 0x2c
 1992 0b07 75040000 		.4byte	.LASF119
 1993 0b0b 12       		.byte	0x12
 1994 0b0c 9606     		.2byte	0x696
 1995 0b0e 120B0000 		.4byte	0xb12
 1996 0b12 13       		.uleb128 0x13
 1997 0b13 C3000000 		.4byte	0xc3
 1998 0b17 2D       		.uleb128 0x2d
 1999 0b18 636800   		.ascii	"ch\000"
 2000 0b1b 08       		.byte	0x8
 2001 0b1c D201     		.2byte	0x1d2
 2002 0b1e DC030000 		.4byte	0x3dc
 2003 0b22 2E       		.uleb128 0x2e
 2004 0b23 37040000 		.4byte	.LASF120
 2005 0b27 0F       		.byte	0xf
 2006 0b28 80       		.byte	0x80
 2007 0b29 0D030000 		.4byte	0x30d
 2008 0b2d 410B0000 		.4byte	0xb41
 2009 0b31 0D       		.uleb128 0xd
 2010 0b32 59070000 		.4byte	0x759
 2011 0b36 0D       		.uleb128 0xd
 2012 0b37 2C000000 		.4byte	0x2c
 2013 0b3b 0D       		.uleb128 0xd
 2014 0b3c 37000000 		.4byte	0x37
 2015 0b40 00       		.byte	0
 2016 0b41 2E       		.uleb128 0x2e
 2017 0b42 BC030000 		.4byte	.LASF121
 2018 0b46 0D       		.byte	0xd
 2019 0b47 EF       		.byte	0xef
 2020 0b48 30020000 		.4byte	0x230
 2021 0b4c 560B0000 		.4byte	0xb56
 2022 0b50 0D       		.uleb128 0xd
 2023 0b51 560B0000 		.4byte	0xb56
 2024 0b55 00       		.byte	0
 2025 0b56 0A       		.uleb128 0xa
 2026 0b57 04       		.byte	0x4
 2027 0b58 5C0B0000 		.4byte	0xb5c
 2028 0b5c 12       		.uleb128 0x12
 2029 0b5d 2A060000 		.4byte	0x62a
 2030 0b61 2F       		.uleb128 0x2f
 2031 0b62 87050000 		.4byte	.LASF122
 2032 0b66 08       		.byte	0x8
 2033 0b67 E001     		.2byte	0x1e0
 2034 0b69 780B0000 		.4byte	0xb78
 2035 0b6d 0D       		.uleb128 0xd
 2036 0b6e 30020000 		.4byte	0x230
 2037 0b72 0D       		.uleb128 0xd
 2038 0b73 10010000 		.4byte	0x110
 2039 0b77 00       		.byte	0
 2040 0b78 30       		.uleb128 0x30
 2041 0b79 BB040000 		.4byte	.LASF123
 2042 0b7d 10       		.byte	0x10
ARM GAS  /tmp/cc6dBTT4.s 			page 61


 2043 0b7e 94       		.byte	0x94
 2044 0b7f 0D030000 		.4byte	0x30d
 2045 0b83 0D       		.uleb128 0xd
 2046 0b84 EB0A0000 		.4byte	0xaeb
 2047 0b88 00       		.byte	0
 2048 0b89 00       		.byte	0
 2049              		.section	.debug_abbrev,"",%progbits
 2050              	.Ldebug_abbrev0:
 2051 0000 01       		.uleb128 0x1
 2052 0001 11       		.uleb128 0x11
 2053 0002 01       		.byte	0x1
 2054 0003 25       		.uleb128 0x25
 2055 0004 0E       		.uleb128 0xe
 2056 0005 13       		.uleb128 0x13
 2057 0006 0B       		.uleb128 0xb
 2058 0007 03       		.uleb128 0x3
 2059 0008 0E       		.uleb128 0xe
 2060 0009 1B       		.uleb128 0x1b
 2061 000a 0E       		.uleb128 0xe
 2062 000b 55       		.uleb128 0x55
 2063 000c 17       		.uleb128 0x17
 2064 000d 11       		.uleb128 0x11
 2065 000e 01       		.uleb128 0x1
 2066 000f 10       		.uleb128 0x10
 2067 0010 17       		.uleb128 0x17
 2068 0011 00       		.byte	0
 2069 0012 00       		.byte	0
 2070 0013 02       		.uleb128 0x2
 2071 0014 24       		.uleb128 0x24
 2072 0015 00       		.byte	0
 2073 0016 0B       		.uleb128 0xb
 2074 0017 0B       		.uleb128 0xb
 2075 0018 3E       		.uleb128 0x3e
 2076 0019 0B       		.uleb128 0xb
 2077 001a 03       		.uleb128 0x3
 2078 001b 08       		.uleb128 0x8
 2079 001c 00       		.byte	0
 2080 001d 00       		.byte	0
 2081 001e 03       		.uleb128 0x3
 2082 001f 16       		.uleb128 0x16
 2083 0020 00       		.byte	0
 2084 0021 03       		.uleb128 0x3
 2085 0022 0E       		.uleb128 0xe
 2086 0023 3A       		.uleb128 0x3a
 2087 0024 0B       		.uleb128 0xb
 2088 0025 3B       		.uleb128 0x3b
 2089 0026 0B       		.uleb128 0xb
 2090 0027 49       		.uleb128 0x49
 2091 0028 13       		.uleb128 0x13
 2092 0029 00       		.byte	0
 2093 002a 00       		.byte	0
 2094 002b 04       		.uleb128 0x4
 2095 002c 24       		.uleb128 0x24
 2096 002d 00       		.byte	0
 2097 002e 0B       		.uleb128 0xb
 2098 002f 0B       		.uleb128 0xb
 2099 0030 3E       		.uleb128 0x3e
ARM GAS  /tmp/cc6dBTT4.s 			page 62


 2100 0031 0B       		.uleb128 0xb
 2101 0032 03       		.uleb128 0x3
 2102 0033 0E       		.uleb128 0xe
 2103 0034 00       		.byte	0
 2104 0035 00       		.byte	0
 2105 0036 05       		.uleb128 0x5
 2106 0037 13       		.uleb128 0x13
 2107 0038 01       		.byte	0x1
 2108 0039 03       		.uleb128 0x3
 2109 003a 0E       		.uleb128 0xe
 2110 003b 0B       		.uleb128 0xb
 2111 003c 0B       		.uleb128 0xb
 2112 003d 3A       		.uleb128 0x3a
 2113 003e 0B       		.uleb128 0xb
 2114 003f 3B       		.uleb128 0x3b
 2115 0040 0B       		.uleb128 0xb
 2116 0041 01       		.uleb128 0x1
 2117 0042 13       		.uleb128 0x13
 2118 0043 00       		.byte	0
 2119 0044 00       		.byte	0
 2120 0045 06       		.uleb128 0x6
 2121 0046 0D       		.uleb128 0xd
 2122 0047 00       		.byte	0
 2123 0048 03       		.uleb128 0x3
 2124 0049 0E       		.uleb128 0xe
 2125 004a 3A       		.uleb128 0x3a
 2126 004b 0B       		.uleb128 0xb
 2127 004c 3B       		.uleb128 0x3b
 2128 004d 0B       		.uleb128 0xb
 2129 004e 49       		.uleb128 0x49
 2130 004f 13       		.uleb128 0x13
 2131 0050 38       		.uleb128 0x38
 2132 0051 0B       		.uleb128 0xb
 2133 0052 00       		.byte	0
 2134 0053 00       		.byte	0
 2135 0054 07       		.uleb128 0x7
 2136 0055 0D       		.uleb128 0xd
 2137 0056 00       		.byte	0
 2138 0057 03       		.uleb128 0x3
 2139 0058 08       		.uleb128 0x8
 2140 0059 3A       		.uleb128 0x3a
 2141 005a 0B       		.uleb128 0xb
 2142 005b 3B       		.uleb128 0x3b
 2143 005c 0B       		.uleb128 0xb
 2144 005d 49       		.uleb128 0x49
 2145 005e 13       		.uleb128 0x13
 2146 005f 38       		.uleb128 0x38
 2147 0060 0B       		.uleb128 0xb
 2148 0061 00       		.byte	0
 2149 0062 00       		.byte	0
 2150 0063 08       		.uleb128 0x8
 2151 0064 0D       		.uleb128 0xd
 2152 0065 00       		.byte	0
 2153 0066 03       		.uleb128 0x3
 2154 0067 08       		.uleb128 0x8
 2155 0068 3A       		.uleb128 0x3a
 2156 0069 0B       		.uleb128 0xb
ARM GAS  /tmp/cc6dBTT4.s 			page 63


 2157 006a 3B       		.uleb128 0x3b
 2158 006b 05       		.uleb128 0x5
 2159 006c 49       		.uleb128 0x49
 2160 006d 13       		.uleb128 0x13
 2161 006e 38       		.uleb128 0x38
 2162 006f 0B       		.uleb128 0xb
 2163 0070 00       		.byte	0
 2164 0071 00       		.byte	0
 2165 0072 09       		.uleb128 0x9
 2166 0073 0D       		.uleb128 0xd
 2167 0074 00       		.byte	0
 2168 0075 03       		.uleb128 0x3
 2169 0076 0E       		.uleb128 0xe
 2170 0077 3A       		.uleb128 0x3a
 2171 0078 0B       		.uleb128 0xb
 2172 0079 3B       		.uleb128 0x3b
 2173 007a 05       		.uleb128 0x5
 2174 007b 49       		.uleb128 0x49
 2175 007c 13       		.uleb128 0x13
 2176 007d 38       		.uleb128 0x38
 2177 007e 0B       		.uleb128 0xb
 2178 007f 00       		.byte	0
 2179 0080 00       		.byte	0
 2180 0081 0A       		.uleb128 0xa
 2181 0082 0F       		.uleb128 0xf
 2182 0083 00       		.byte	0
 2183 0084 0B       		.uleb128 0xb
 2184 0085 0B       		.uleb128 0xb
 2185 0086 49       		.uleb128 0x49
 2186 0087 13       		.uleb128 0x13
 2187 0088 00       		.byte	0
 2188 0089 00       		.byte	0
 2189 008a 0B       		.uleb128 0xb
 2190 008b 13       		.uleb128 0x13
 2191 008c 01       		.byte	0x1
 2192 008d 03       		.uleb128 0x3
 2193 008e 0E       		.uleb128 0xe
 2194 008f 0B       		.uleb128 0xb
 2195 0090 0B       		.uleb128 0xb
 2196 0091 3A       		.uleb128 0x3a
 2197 0092 0B       		.uleb128 0xb
 2198 0093 3B       		.uleb128 0x3b
 2199 0094 05       		.uleb128 0x5
 2200 0095 01       		.uleb128 0x1
 2201 0096 13       		.uleb128 0x13
 2202 0097 00       		.byte	0
 2203 0098 00       		.byte	0
 2204 0099 0C       		.uleb128 0xc
 2205 009a 15       		.uleb128 0x15
 2206 009b 01       		.byte	0x1
 2207 009c 27       		.uleb128 0x27
 2208 009d 19       		.uleb128 0x19
 2209 009e 01       		.uleb128 0x1
 2210 009f 13       		.uleb128 0x13
 2211 00a0 00       		.byte	0
 2212 00a1 00       		.byte	0
 2213 00a2 0D       		.uleb128 0xd
ARM GAS  /tmp/cc6dBTT4.s 			page 64


 2214 00a3 05       		.uleb128 0x5
 2215 00a4 00       		.byte	0
 2216 00a5 49       		.uleb128 0x49
 2217 00a6 13       		.uleb128 0x13
 2218 00a7 00       		.byte	0
 2219 00a8 00       		.byte	0
 2220 00a9 0E       		.uleb128 0xe
 2221 00aa 0F       		.uleb128 0xf
 2222 00ab 00       		.byte	0
 2223 00ac 0B       		.uleb128 0xb
 2224 00ad 0B       		.uleb128 0xb
 2225 00ae 00       		.byte	0
 2226 00af 00       		.byte	0
 2227 00b0 0F       		.uleb128 0xf
 2228 00b1 17       		.uleb128 0x17
 2229 00b2 01       		.byte	0x1
 2230 00b3 0B       		.uleb128 0xb
 2231 00b4 0B       		.uleb128 0xb
 2232 00b5 3A       		.uleb128 0x3a
 2233 00b6 0B       		.uleb128 0xb
 2234 00b7 3B       		.uleb128 0x3b
 2235 00b8 0B       		.uleb128 0xb
 2236 00b9 01       		.uleb128 0x1
 2237 00ba 13       		.uleb128 0x13
 2238 00bb 00       		.byte	0
 2239 00bc 00       		.byte	0
 2240 00bd 10       		.uleb128 0x10
 2241 00be 0D       		.uleb128 0xd
 2242 00bf 00       		.byte	0
 2243 00c0 03       		.uleb128 0x3
 2244 00c1 0E       		.uleb128 0xe
 2245 00c2 3A       		.uleb128 0x3a
 2246 00c3 0B       		.uleb128 0xb
 2247 00c4 3B       		.uleb128 0x3b
 2248 00c5 0B       		.uleb128 0xb
 2249 00c6 49       		.uleb128 0x49
 2250 00c7 13       		.uleb128 0x13
 2251 00c8 00       		.byte	0
 2252 00c9 00       		.byte	0
 2253 00ca 11       		.uleb128 0x11
 2254 00cb 0D       		.uleb128 0xd
 2255 00cc 00       		.byte	0
 2256 00cd 03       		.uleb128 0x3
 2257 00ce 0E       		.uleb128 0xe
 2258 00cf 3A       		.uleb128 0x3a
 2259 00d0 0B       		.uleb128 0xb
 2260 00d1 3B       		.uleb128 0x3b
 2261 00d2 05       		.uleb128 0x5
 2262 00d3 49       		.uleb128 0x49
 2263 00d4 13       		.uleb128 0x13
 2264 00d5 00       		.byte	0
 2265 00d6 00       		.byte	0
 2266 00d7 12       		.uleb128 0x12
 2267 00d8 26       		.uleb128 0x26
 2268 00d9 00       		.byte	0
 2269 00da 49       		.uleb128 0x49
 2270 00db 13       		.uleb128 0x13
ARM GAS  /tmp/cc6dBTT4.s 			page 65


 2271 00dc 00       		.byte	0
 2272 00dd 00       		.byte	0
 2273 00de 13       		.uleb128 0x13
 2274 00df 35       		.uleb128 0x35
 2275 00e0 00       		.byte	0
 2276 00e1 49       		.uleb128 0x49
 2277 00e2 13       		.uleb128 0x13
 2278 00e3 00       		.byte	0
 2279 00e4 00       		.byte	0
 2280 00e5 14       		.uleb128 0x14
 2281 00e6 13       		.uleb128 0x13
 2282 00e7 01       		.byte	0x1
 2283 00e8 0B       		.uleb128 0xb
 2284 00e9 0B       		.uleb128 0xb
 2285 00ea 3A       		.uleb128 0x3a
 2286 00eb 0B       		.uleb128 0xb
 2287 00ec 3B       		.uleb128 0x3b
 2288 00ed 0B       		.uleb128 0xb
 2289 00ee 01       		.uleb128 0x1
 2290 00ef 13       		.uleb128 0x13
 2291 00f0 00       		.byte	0
 2292 00f1 00       		.byte	0
 2293 00f2 15       		.uleb128 0x15
 2294 00f3 15       		.uleb128 0x15
 2295 00f4 01       		.byte	0x1
 2296 00f5 27       		.uleb128 0x27
 2297 00f6 19       		.uleb128 0x19
 2298 00f7 49       		.uleb128 0x49
 2299 00f8 13       		.uleb128 0x13
 2300 00f9 01       		.uleb128 0x1
 2301 00fa 13       		.uleb128 0x13
 2302 00fb 00       		.byte	0
 2303 00fc 00       		.byte	0
 2304 00fd 16       		.uleb128 0x16
 2305 00fe 17       		.uleb128 0x17
 2306 00ff 01       		.byte	0x1
 2307 0100 03       		.uleb128 0x3
 2308 0101 0E       		.uleb128 0xe
 2309 0102 0B       		.uleb128 0xb
 2310 0103 0B       		.uleb128 0xb
 2311 0104 3A       		.uleb128 0x3a
 2312 0105 0B       		.uleb128 0xb
 2313 0106 3B       		.uleb128 0x3b
 2314 0107 0B       		.uleb128 0xb
 2315 0108 01       		.uleb128 0x1
 2316 0109 13       		.uleb128 0x13
 2317 010a 00       		.byte	0
 2318 010b 00       		.byte	0
 2319 010c 17       		.uleb128 0x17
 2320 010d 2E       		.uleb128 0x2e
 2321 010e 01       		.byte	0x1
 2322 010f 03       		.uleb128 0x3
 2323 0110 0E       		.uleb128 0xe
 2324 0111 3A       		.uleb128 0x3a
 2325 0112 0B       		.uleb128 0xb
 2326 0113 3B       		.uleb128 0x3b
 2327 0114 05       		.uleb128 0x5
ARM GAS  /tmp/cc6dBTT4.s 			page 66


 2328 0115 27       		.uleb128 0x27
 2329 0116 19       		.uleb128 0x19
 2330 0117 20       		.uleb128 0x20
 2331 0118 0B       		.uleb128 0xb
 2332 0119 01       		.uleb128 0x1
 2333 011a 13       		.uleb128 0x13
 2334 011b 00       		.byte	0
 2335 011c 00       		.byte	0
 2336 011d 18       		.uleb128 0x18
 2337 011e 05       		.uleb128 0x5
 2338 011f 00       		.byte	0
 2339 0120 03       		.uleb128 0x3
 2340 0121 0E       		.uleb128 0xe
 2341 0122 3A       		.uleb128 0x3a
 2342 0123 0B       		.uleb128 0xb
 2343 0124 3B       		.uleb128 0x3b
 2344 0125 05       		.uleb128 0x5
 2345 0126 49       		.uleb128 0x49
 2346 0127 13       		.uleb128 0x13
 2347 0128 00       		.byte	0
 2348 0129 00       		.byte	0
 2349 012a 19       		.uleb128 0x19
 2350 012b 2E       		.uleb128 0x2e
 2351 012c 00       		.byte	0
 2352 012d 03       		.uleb128 0x3
 2353 012e 0E       		.uleb128 0xe
 2354 012f 3A       		.uleb128 0x3a
 2355 0130 0B       		.uleb128 0xb
 2356 0131 3B       		.uleb128 0x3b
 2357 0132 05       		.uleb128 0x5
 2358 0133 27       		.uleb128 0x27
 2359 0134 19       		.uleb128 0x19
 2360 0135 20       		.uleb128 0x20
 2361 0136 0B       		.uleb128 0xb
 2362 0137 00       		.byte	0
 2363 0138 00       		.byte	0
 2364 0139 1A       		.uleb128 0x1a
 2365 013a 34       		.uleb128 0x34
 2366 013b 00       		.byte	0
 2367 013c 03       		.uleb128 0x3
 2368 013d 0E       		.uleb128 0xe
 2369 013e 49       		.uleb128 0x49
 2370 013f 13       		.uleb128 0x13
 2371 0140 34       		.uleb128 0x34
 2372 0141 19       		.uleb128 0x19
 2373 0142 1C       		.uleb128 0x1c
 2374 0143 0E       		.uleb128 0xe
 2375 0144 00       		.byte	0
 2376 0145 00       		.byte	0
 2377 0146 1B       		.uleb128 0x1b
 2378 0147 01       		.uleb128 0x1
 2379 0148 01       		.byte	0x1
 2380 0149 49       		.uleb128 0x49
 2381 014a 13       		.uleb128 0x13
 2382 014b 01       		.uleb128 0x1
 2383 014c 13       		.uleb128 0x13
 2384 014d 00       		.byte	0
ARM GAS  /tmp/cc6dBTT4.s 			page 67


 2385 014e 00       		.byte	0
 2386 014f 1C       		.uleb128 0x1c
 2387 0150 21       		.uleb128 0x21
 2388 0151 00       		.byte	0
 2389 0152 49       		.uleb128 0x49
 2390 0153 13       		.uleb128 0x13
 2391 0154 2F       		.uleb128 0x2f
 2392 0155 0B       		.uleb128 0xb
 2393 0156 00       		.byte	0
 2394 0157 00       		.byte	0
 2395 0158 1D       		.uleb128 0x1d
 2396 0159 2E       		.uleb128 0x2e
 2397 015a 01       		.byte	0x1
 2398 015b 3F       		.uleb128 0x3f
 2399 015c 19       		.uleb128 0x19
 2400 015d 03       		.uleb128 0x3
 2401 015e 0E       		.uleb128 0xe
 2402 015f 3A       		.uleb128 0x3a
 2403 0160 0B       		.uleb128 0xb
 2404 0161 3B       		.uleb128 0x3b
 2405 0162 0B       		.uleb128 0xb
 2406 0163 27       		.uleb128 0x27
 2407 0164 19       		.uleb128 0x19
 2408 0165 49       		.uleb128 0x49
 2409 0166 13       		.uleb128 0x13
 2410 0167 11       		.uleb128 0x11
 2411 0168 01       		.uleb128 0x1
 2412 0169 12       		.uleb128 0x12
 2413 016a 06       		.uleb128 0x6
 2414 016b 40       		.uleb128 0x40
 2415 016c 18       		.uleb128 0x18
 2416 016d 9742     		.uleb128 0x2117
 2417 016f 19       		.uleb128 0x19
 2418 0170 01       		.uleb128 0x1
 2419 0171 13       		.uleb128 0x13
 2420 0172 00       		.byte	0
 2421 0173 00       		.byte	0
 2422 0174 1E       		.uleb128 0x1e
 2423 0175 05       		.uleb128 0x5
 2424 0176 00       		.byte	0
 2425 0177 03       		.uleb128 0x3
 2426 0178 0E       		.uleb128 0xe
 2427 0179 3A       		.uleb128 0x3a
 2428 017a 0B       		.uleb128 0xb
 2429 017b 3B       		.uleb128 0x3b
 2430 017c 0B       		.uleb128 0xb
 2431 017d 49       		.uleb128 0x49
 2432 017e 13       		.uleb128 0x13
 2433 017f 02       		.uleb128 0x2
 2434 0180 17       		.uleb128 0x17
 2435 0181 00       		.byte	0
 2436 0182 00       		.byte	0
 2437 0183 1F       		.uleb128 0x1f
 2438 0184 05       		.uleb128 0x5
 2439 0185 00       		.byte	0
 2440 0186 03       		.uleb128 0x3
 2441 0187 08       		.uleb128 0x8
ARM GAS  /tmp/cc6dBTT4.s 			page 68


 2442 0188 3A       		.uleb128 0x3a
 2443 0189 0B       		.uleb128 0xb
 2444 018a 3B       		.uleb128 0x3b
 2445 018b 0B       		.uleb128 0xb
 2446 018c 49       		.uleb128 0x49
 2447 018d 13       		.uleb128 0x13
 2448 018e 02       		.uleb128 0x2
 2449 018f 18       		.uleb128 0x18
 2450 0190 00       		.byte	0
 2451 0191 00       		.byte	0
 2452 0192 20       		.uleb128 0x20
 2453 0193 34       		.uleb128 0x34
 2454 0194 00       		.byte	0
 2455 0195 03       		.uleb128 0x3
 2456 0196 08       		.uleb128 0x8
 2457 0197 3A       		.uleb128 0x3a
 2458 0198 0B       		.uleb128 0xb
 2459 0199 3B       		.uleb128 0x3b
 2460 019a 0B       		.uleb128 0xb
 2461 019b 49       		.uleb128 0x49
 2462 019c 13       		.uleb128 0x13
 2463 019d 02       		.uleb128 0x2
 2464 019e 17       		.uleb128 0x17
 2465 019f 00       		.byte	0
 2466 01a0 00       		.byte	0
 2467 01a1 21       		.uleb128 0x21
 2468 01a2 34       		.uleb128 0x34
 2469 01a3 00       		.byte	0
 2470 01a4 03       		.uleb128 0x3
 2471 01a5 08       		.uleb128 0x8
 2472 01a6 3A       		.uleb128 0x3a
 2473 01a7 0B       		.uleb128 0xb
 2474 01a8 3B       		.uleb128 0x3b
 2475 01a9 0B       		.uleb128 0xb
 2476 01aa 49       		.uleb128 0x49
 2477 01ab 13       		.uleb128 0x13
 2478 01ac 02       		.uleb128 0x2
 2479 01ad 18       		.uleb128 0x18
 2480 01ae 00       		.byte	0
 2481 01af 00       		.byte	0
 2482 01b0 22       		.uleb128 0x22
 2483 01b1 1D       		.uleb128 0x1d
 2484 01b2 01       		.byte	0x1
 2485 01b3 31       		.uleb128 0x31
 2486 01b4 13       		.uleb128 0x13
 2487 01b5 11       		.uleb128 0x11
 2488 01b6 01       		.uleb128 0x1
 2489 01b7 12       		.uleb128 0x12
 2490 01b8 06       		.uleb128 0x6
 2491 01b9 58       		.uleb128 0x58
 2492 01ba 0B       		.uleb128 0xb
 2493 01bb 59       		.uleb128 0x59
 2494 01bc 0B       		.uleb128 0xb
 2495 01bd 01       		.uleb128 0x1
 2496 01be 13       		.uleb128 0x13
 2497 01bf 00       		.byte	0
 2498 01c0 00       		.byte	0
ARM GAS  /tmp/cc6dBTT4.s 			page 69


 2499 01c1 23       		.uleb128 0x23
 2500 01c2 1D       		.uleb128 0x1d
 2501 01c3 01       		.byte	0x1
 2502 01c4 31       		.uleb128 0x31
 2503 01c5 13       		.uleb128 0x13
 2504 01c6 11       		.uleb128 0x11
 2505 01c7 01       		.uleb128 0x1
 2506 01c8 12       		.uleb128 0x12
 2507 01c9 06       		.uleb128 0x6
 2508 01ca 58       		.uleb128 0x58
 2509 01cb 0B       		.uleb128 0xb
 2510 01cc 59       		.uleb128 0x59
 2511 01cd 05       		.uleb128 0x5
 2512 01ce 00       		.byte	0
 2513 01cf 00       		.byte	0
 2514 01d0 24       		.uleb128 0x24
 2515 01d1 05       		.uleb128 0x5
 2516 01d2 00       		.byte	0
 2517 01d3 31       		.uleb128 0x31
 2518 01d4 13       		.uleb128 0x13
 2519 01d5 02       		.uleb128 0x2
 2520 01d6 17       		.uleb128 0x17
 2521 01d7 00       		.byte	0
 2522 01d8 00       		.byte	0
 2523 01d9 25       		.uleb128 0x25
 2524 01da 0B       		.uleb128 0xb
 2525 01db 01       		.byte	0x1
 2526 01dc 11       		.uleb128 0x11
 2527 01dd 01       		.uleb128 0x1
 2528 01de 12       		.uleb128 0x12
 2529 01df 06       		.uleb128 0x6
 2530 01e0 00       		.byte	0
 2531 01e1 00       		.byte	0
 2532 01e2 26       		.uleb128 0x26
 2533 01e3 34       		.uleb128 0x34
 2534 01e4 00       		.byte	0
 2535 01e5 31       		.uleb128 0x31
 2536 01e6 13       		.uleb128 0x13
 2537 01e7 00       		.byte	0
 2538 01e8 00       		.byte	0
 2539 01e9 27       		.uleb128 0x27
 2540 01ea 898201   		.uleb128 0x4109
 2541 01ed 01       		.byte	0x1
 2542 01ee 11       		.uleb128 0x11
 2543 01ef 01       		.uleb128 0x1
 2544 01f0 31       		.uleb128 0x31
 2545 01f1 13       		.uleb128 0x13
 2546 01f2 01       		.uleb128 0x1
 2547 01f3 13       		.uleb128 0x13
 2548 01f4 00       		.byte	0
 2549 01f5 00       		.byte	0
 2550 01f6 28       		.uleb128 0x28
 2551 01f7 8A8201   		.uleb128 0x410a
 2552 01fa 00       		.byte	0
 2553 01fb 02       		.uleb128 0x2
 2554 01fc 18       		.uleb128 0x18
 2555 01fd 9142     		.uleb128 0x2111
ARM GAS  /tmp/cc6dBTT4.s 			page 70


 2556 01ff 18       		.uleb128 0x18
 2557 0200 00       		.byte	0
 2558 0201 00       		.byte	0
 2559 0202 29       		.uleb128 0x29
 2560 0203 898201   		.uleb128 0x4109
 2561 0206 01       		.byte	0x1
 2562 0207 11       		.uleb128 0x11
 2563 0208 01       		.uleb128 0x1
 2564 0209 31       		.uleb128 0x31
 2565 020a 13       		.uleb128 0x13
 2566 020b 00       		.byte	0
 2567 020c 00       		.byte	0
 2568 020d 2A       		.uleb128 0x2a
 2569 020e 05       		.uleb128 0x5
 2570 020f 00       		.byte	0
 2571 0210 03       		.uleb128 0x3
 2572 0211 08       		.uleb128 0x8
 2573 0212 3A       		.uleb128 0x3a
 2574 0213 0B       		.uleb128 0xb
 2575 0214 3B       		.uleb128 0x3b
 2576 0215 0B       		.uleb128 0xb
 2577 0216 49       		.uleb128 0x49
 2578 0217 13       		.uleb128 0x13
 2579 0218 02       		.uleb128 0x2
 2580 0219 17       		.uleb128 0x17
 2581 021a 00       		.byte	0
 2582 021b 00       		.byte	0
 2583 021c 2B       		.uleb128 0x2b
 2584 021d 34       		.uleb128 0x34
 2585 021e 00       		.byte	0
 2586 021f 03       		.uleb128 0x3
 2587 0220 0E       		.uleb128 0xe
 2588 0221 49       		.uleb128 0x49
 2589 0222 13       		.uleb128 0x13
 2590 0223 34       		.uleb128 0x34
 2591 0224 19       		.uleb128 0x19
 2592 0225 00       		.byte	0
 2593 0226 00       		.byte	0
 2594 0227 2C       		.uleb128 0x2c
 2595 0228 34       		.uleb128 0x34
 2596 0229 00       		.byte	0
 2597 022a 03       		.uleb128 0x3
 2598 022b 0E       		.uleb128 0xe
 2599 022c 3A       		.uleb128 0x3a
 2600 022d 0B       		.uleb128 0xb
 2601 022e 3B       		.uleb128 0x3b
 2602 022f 05       		.uleb128 0x5
 2603 0230 49       		.uleb128 0x49
 2604 0231 13       		.uleb128 0x13
 2605 0232 3F       		.uleb128 0x3f
 2606 0233 19       		.uleb128 0x19
 2607 0234 3C       		.uleb128 0x3c
 2608 0235 19       		.uleb128 0x19
 2609 0236 00       		.byte	0
 2610 0237 00       		.byte	0
 2611 0238 2D       		.uleb128 0x2d
 2612 0239 34       		.uleb128 0x34
ARM GAS  /tmp/cc6dBTT4.s 			page 71


 2613 023a 00       		.byte	0
 2614 023b 03       		.uleb128 0x3
 2615 023c 08       		.uleb128 0x8
 2616 023d 3A       		.uleb128 0x3a
 2617 023e 0B       		.uleb128 0xb
 2618 023f 3B       		.uleb128 0x3b
 2619 0240 05       		.uleb128 0x5
 2620 0241 49       		.uleb128 0x49
 2621 0242 13       		.uleb128 0x13
 2622 0243 3F       		.uleb128 0x3f
 2623 0244 19       		.uleb128 0x19
 2624 0245 3C       		.uleb128 0x3c
 2625 0246 19       		.uleb128 0x19
 2626 0247 00       		.byte	0
 2627 0248 00       		.byte	0
 2628 0249 2E       		.uleb128 0x2e
 2629 024a 2E       		.uleb128 0x2e
 2630 024b 01       		.byte	0x1
 2631 024c 3F       		.uleb128 0x3f
 2632 024d 19       		.uleb128 0x19
 2633 024e 03       		.uleb128 0x3
 2634 024f 0E       		.uleb128 0xe
 2635 0250 3A       		.uleb128 0x3a
 2636 0251 0B       		.uleb128 0xb
 2637 0252 3B       		.uleb128 0x3b
 2638 0253 0B       		.uleb128 0xb
 2639 0254 27       		.uleb128 0x27
 2640 0255 19       		.uleb128 0x19
 2641 0256 49       		.uleb128 0x49
 2642 0257 13       		.uleb128 0x13
 2643 0258 3C       		.uleb128 0x3c
 2644 0259 19       		.uleb128 0x19
 2645 025a 01       		.uleb128 0x1
 2646 025b 13       		.uleb128 0x13
 2647 025c 00       		.byte	0
 2648 025d 00       		.byte	0
 2649 025e 2F       		.uleb128 0x2f
 2650 025f 2E       		.uleb128 0x2e
 2651 0260 01       		.byte	0x1
 2652 0261 3F       		.uleb128 0x3f
 2653 0262 19       		.uleb128 0x19
 2654 0263 03       		.uleb128 0x3
 2655 0264 0E       		.uleb128 0xe
 2656 0265 3A       		.uleb128 0x3a
 2657 0266 0B       		.uleb128 0xb
 2658 0267 3B       		.uleb128 0x3b
 2659 0268 05       		.uleb128 0x5
 2660 0269 27       		.uleb128 0x27
 2661 026a 19       		.uleb128 0x19
 2662 026b 3C       		.uleb128 0x3c
 2663 026c 19       		.uleb128 0x19
 2664 026d 01       		.uleb128 0x1
 2665 026e 13       		.uleb128 0x13
 2666 026f 00       		.byte	0
 2667 0270 00       		.byte	0
 2668 0271 30       		.uleb128 0x30
 2669 0272 2E       		.uleb128 0x2e
ARM GAS  /tmp/cc6dBTT4.s 			page 72


 2670 0273 01       		.byte	0x1
 2671 0274 3F       		.uleb128 0x3f
 2672 0275 19       		.uleb128 0x19
 2673 0276 03       		.uleb128 0x3
 2674 0277 0E       		.uleb128 0xe
 2675 0278 3A       		.uleb128 0x3a
 2676 0279 0B       		.uleb128 0xb
 2677 027a 3B       		.uleb128 0x3b
 2678 027b 0B       		.uleb128 0xb
 2679 027c 27       		.uleb128 0x27
 2680 027d 19       		.uleb128 0x19
 2681 027e 49       		.uleb128 0x49
 2682 027f 13       		.uleb128 0x13
 2683 0280 3C       		.uleb128 0x3c
 2684 0281 19       		.uleb128 0x19
 2685 0282 00       		.byte	0
 2686 0283 00       		.byte	0
 2687 0284 00       		.byte	0
 2688              		.section	.debug_loc,"",%progbits
 2689              	.Ldebug_loc0:
 2690              	.LLST0:
 2691 0000 00000000 		.4byte	.LVL0
 2692 0004 0F000000 		.4byte	.LVL2-1
 2693 0008 0100     		.2byte	0x1
 2694 000a 50       		.byte	0x50
 2695 000b 0F000000 		.4byte	.LVL2-1
 2696 000f 4A000000 		.4byte	.LFE188
 2697 0013 0400     		.2byte	0x4
 2698 0015 F3       		.byte	0xf3
 2699 0016 01       		.uleb128 0x1
 2700 0017 50       		.byte	0x50
 2701 0018 9F       		.byte	0x9f
 2702 0019 00000000 		.4byte	0
 2703 001d 00000000 		.4byte	0
 2704              	.LLST1:
 2705 0021 00000000 		.4byte	.LVL0
 2706 0025 0F000000 		.4byte	.LVL2-1
 2707 0029 0100     		.2byte	0x1
 2708 002b 51       		.byte	0x51
 2709 002c 0F000000 		.4byte	.LVL2-1
 2710 0030 16000000 		.4byte	.LVL3
 2711 0034 0100     		.2byte	0x1
 2712 0036 55       		.byte	0x55
 2713 0037 16000000 		.4byte	.LVL3
 2714 003b 4A000000 		.4byte	.LFE188
 2715 003f 0400     		.2byte	0x4
 2716 0041 F3       		.byte	0xf3
 2717 0042 01       		.uleb128 0x1
 2718 0043 51       		.byte	0x51
 2719 0044 9F       		.byte	0x9f
 2720 0045 00000000 		.4byte	0
 2721 0049 00000000 		.4byte	0
 2722              	.LLST2:
 2723 004d 00000000 		.4byte	.LVL0
 2724 0051 08000000 		.4byte	.LVL1
 2725 0055 0100     		.2byte	0x1
 2726 0057 52       		.byte	0x52
ARM GAS  /tmp/cc6dBTT4.s 			page 73


 2727 0058 08000000 		.4byte	.LVL1
 2728 005c 3A000000 		.4byte	.LVL7
 2729 0060 0100     		.2byte	0x1
 2730 0062 54       		.byte	0x54
 2731 0063 3A000000 		.4byte	.LVL7
 2732 0067 4A000000 		.4byte	.LFE188
 2733 006b 0400     		.2byte	0x4
 2734 006d F3       		.byte	0xf3
 2735 006e 01       		.uleb128 0x1
 2736 006f 52       		.byte	0x52
 2737 0070 9F       		.byte	0x9f
 2738 0071 00000000 		.4byte	0
 2739 0075 00000000 		.4byte	0
 2740              	.LLST3:
 2741 0079 00000000 		.4byte	.LVL0
 2742 007d 0F000000 		.4byte	.LVL2-1
 2743 0081 0100     		.2byte	0x1
 2744 0083 53       		.byte	0x53
 2745 0084 0F000000 		.4byte	.LVL2-1
 2746 0088 4A000000 		.4byte	.LFE188
 2747 008c 0100     		.2byte	0x1
 2748 008e 56       		.byte	0x56
 2749 008f 00000000 		.4byte	0
 2750 0093 00000000 		.4byte	0
 2751              	.LLST4:
 2752 0097 3A000000 		.4byte	.LVL7
 2753 009b 3D000000 		.4byte	.LVL8-1
 2754 009f 0100     		.2byte	0x1
 2755 00a1 50       		.byte	0x50
 2756 00a2 3D000000 		.4byte	.LVL8-1
 2757 00a6 46000000 		.4byte	.LVL9
 2758 00aa 0100     		.2byte	0x1
 2759 00ac 54       		.byte	0x54
 2760 00ad 00000000 		.4byte	0
 2761 00b1 00000000 		.4byte	0
 2762              	.LLST5:
 2763 00b5 10000000 		.4byte	.LVL2
 2764 00b9 2C000000 		.4byte	.LVL5
 2765 00bd 0100     		.2byte	0x1
 2766 00bf 50       		.byte	0x50
 2767 00c0 2C000000 		.4byte	.LVL5
 2768 00c4 2F000000 		.4byte	.LVL6-1
 2769 00c8 0200     		.2byte	0x2
 2770 00ca 91       		.byte	0x91
 2771 00cb 5C       		.sleb128 -36
 2772 00cc 00000000 		.4byte	0
 2773 00d0 00000000 		.4byte	0
 2774              	.LLST6:
 2775 00d4 1E000000 		.4byte	.LVL4
 2776 00d8 46000000 		.4byte	.LVL9
 2777 00dc 0300     		.2byte	0x3
 2778 00de 08       		.byte	0x8
 2779 00df 20       		.byte	0x20
 2780 00e0 9F       		.byte	0x9f
 2781 00e1 00000000 		.4byte	0
 2782 00e5 00000000 		.4byte	0
 2783              	.LLST7:
ARM GAS  /tmp/cc6dBTT4.s 			page 74


 2784 00e9 3E000000 		.4byte	.LVL8
 2785 00ed 46000000 		.4byte	.LVL9
 2786 00f1 0200     		.2byte	0x2
 2787 00f3 30       		.byte	0x30
 2788 00f4 9F       		.byte	0x9f
 2789 00f5 00000000 		.4byte	0
 2790 00f9 00000000 		.4byte	0
 2791              	.LLST8:
 2792 00fd 00000000 		.4byte	.LVL10
 2793 0101 0F000000 		.4byte	.LVL11-1
 2794 0105 0100     		.2byte	0x1
 2795 0107 50       		.byte	0x50
 2796 0108 0F000000 		.4byte	.LVL11-1
 2797 010c 4C000000 		.4byte	.LFE189
 2798 0110 0100     		.2byte	0x1
 2799 0112 55       		.byte	0x55
 2800 0113 00000000 		.4byte	0
 2801 0117 00000000 		.4byte	0
 2802              	.LLST9:
 2803 011b 00000000 		.4byte	.LVL10
 2804 011f 0F000000 		.4byte	.LVL11-1
 2805 0123 0100     		.2byte	0x1
 2806 0125 51       		.byte	0x51
 2807 0126 0F000000 		.4byte	.LVL11-1
 2808 012a 4C000000 		.4byte	.LFE189
 2809 012e 0100     		.2byte	0x1
 2810 0130 57       		.byte	0x57
 2811 0131 00000000 		.4byte	0
 2812 0135 00000000 		.4byte	0
 2813              	.LLST10:
 2814 0139 00000000 		.4byte	.LVL10
 2815 013d 0F000000 		.4byte	.LVL11-1
 2816 0141 0100     		.2byte	0x1
 2817 0143 52       		.byte	0x52
 2818 0144 0F000000 		.4byte	.LVL11-1
 2819 0148 4C000000 		.4byte	.LFE189
 2820 014c 0100     		.2byte	0x1
 2821 014e 56       		.byte	0x56
 2822 014f 00000000 		.4byte	0
 2823 0153 00000000 		.4byte	0
 2824              	.LLST11:
 2825 0157 00000000 		.4byte	.LVL10
 2826 015b 0F000000 		.4byte	.LVL11-1
 2827 015f 0100     		.2byte	0x1
 2828 0161 53       		.byte	0x53
 2829 0162 0F000000 		.4byte	.LVL11-1
 2830 0166 3C000000 		.4byte	.LVL15
 2831 016a 0100     		.2byte	0x1
 2832 016c 54       		.byte	0x54
 2833 016d 3C000000 		.4byte	.LVL15
 2834 0171 4C000000 		.4byte	.LFE189
 2835 0175 0400     		.2byte	0x4
 2836 0177 F3       		.byte	0xf3
 2837 0178 01       		.uleb128 0x1
 2838 0179 53       		.byte	0x53
 2839 017a 9F       		.byte	0x9f
 2840 017b 00000000 		.4byte	0
ARM GAS  /tmp/cc6dBTT4.s 			page 75


 2841 017f 00000000 		.4byte	0
 2842              	.LLST12:
 2843 0183 3C000000 		.4byte	.LVL15
 2844 0187 3F000000 		.4byte	.LVL16-1
 2845 018b 0100     		.2byte	0x1
 2846 018d 50       		.byte	0x50
 2847 018e 3F000000 		.4byte	.LVL16-1
 2848 0192 48000000 		.4byte	.LVL17
 2849 0196 0100     		.2byte	0x1
 2850 0198 54       		.byte	0x54
 2851 0199 00000000 		.4byte	0
 2852 019d 00000000 		.4byte	0
 2853              	.LLST13:
 2854 01a1 10000000 		.4byte	.LVL11
 2855 01a5 2C000000 		.4byte	.LVL13
 2856 01a9 0100     		.2byte	0x1
 2857 01ab 50       		.byte	0x50
 2858 01ac 2C000000 		.4byte	.LVL13
 2859 01b0 2F000000 		.4byte	.LVL14-1
 2860 01b4 0200     		.2byte	0x2
 2861 01b6 91       		.byte	0x91
 2862 01b7 54       		.sleb128 -44
 2863 01b8 00000000 		.4byte	0
 2864 01bc 00000000 		.4byte	0
 2865              	.LLST14:
 2866 01c0 24000000 		.4byte	.LVL12
 2867 01c4 48000000 		.4byte	.LVL17
 2868 01c8 0300     		.2byte	0x3
 2869 01ca 08       		.byte	0x8
 2870 01cb 20       		.byte	0x20
 2871 01cc 9F       		.byte	0x9f
 2872 01cd 00000000 		.4byte	0
 2873 01d1 00000000 		.4byte	0
 2874              	.LLST15:
 2875 01d5 40000000 		.4byte	.LVL16
 2876 01d9 48000000 		.4byte	.LVL17
 2877 01dd 0200     		.2byte	0x2
 2878 01df 30       		.byte	0x30
 2879 01e0 9F       		.byte	0x9f
 2880 01e1 00000000 		.4byte	0
 2881 01e5 00000000 		.4byte	0
 2882              		.section	.debug_aranges,"",%progbits
 2883 0000 24000000 		.4byte	0x24
 2884 0004 0200     		.2byte	0x2
 2885 0006 00000000 		.4byte	.Ldebug_info0
 2886 000a 04       		.byte	0x4
 2887 000b 00       		.byte	0
 2888 000c 0000     		.2byte	0
 2889 000e 0000     		.2byte	0
 2890 0010 00000000 		.4byte	.LFB188
 2891 0014 4A000000 		.4byte	.LFE188-.LFB188
 2892 0018 00000000 		.4byte	.LFB189
 2893 001c 4C000000 		.4byte	.LFE189-.LFB189
 2894 0020 00000000 		.4byte	0
 2895 0024 00000000 		.4byte	0
 2896              		.section	.debug_ranges,"",%progbits
 2897              	.Ldebug_ranges0:
ARM GAS  /tmp/cc6dBTT4.s 			page 76


 2898 0000 00000000 		.4byte	.LFB188
 2899 0004 4A000000 		.4byte	.LFE188
 2900 0008 00000000 		.4byte	.LFB189
 2901 000c 4C000000 		.4byte	.LFE189
 2902 0010 00000000 		.4byte	0
 2903 0014 00000000 		.4byte	0
 2904              		.section	.debug_line,"",%progbits
 2905              	.Ldebug_line0:
 2906 0000 91020000 		.section	.debug_str,"MS",%progbits,1
 2906      02002202 
 2906      00000201 
 2906      FB0E0D00 
 2906      01010101 
 2907              	.LASF47:
 2908 0000 63685F74 		.ascii	"ch_threads_list\000"
 2908      68726561 
 2908      64735F6C 
 2908      69737400 
 2909              	.LASF82:
 2910 0010 77746D74 		.ascii	"wtmtxp\000"
 2910      787000
 2911              	.LASF110:
 2912 0017 6D656D6F 		.ascii	"memory_pool_t\000"
 2912      72795F70 
 2912      6F6F6C5F 
 2912      7400
 2913              	.LASF89:
 2914 0025 77626173 		.ascii	"wbase\000"
 2914      6500
 2915              	.LASF72:
 2916 002b 72656761 		.ascii	"regarm_t\000"
 2916      726D5F74 
 2916      00
 2917              	.LASF36:
 2918 0034 666C6167 		.ascii	"flags\000"
 2918      7300
 2919              	.LASF27:
 2920 003a 73797374 		.ascii	"systime_t\000"
 2920      696D655F 
 2920      7400
 2921              	.LASF42:
 2922 0044 7265616C 		.ascii	"realprio\000"
 2922      7072696F 
 2922      00
 2923              	.LASF40:
 2924 004d 6570656E 		.ascii	"epending\000"
 2924      64696E67 
 2924      00
 2925              	.LASF0:
 2926 0056 756E7369 		.ascii	"unsigned int\000"
 2926      676E6564 
 2926      20696E74 
 2926      00
 2927              	.LASF48:
 2928 0063 6E657874 		.ascii	"next\000"
 2928      00
 2929              	.LASF45:
ARM GAS  /tmp/cc6dBTT4.s 			page 77


 2930 0068 74687265 		.ascii	"threads_list_t\000"
 2930      6164735F 
 2930      6C697374 
 2930      5F7400
 2931              	.LASF8:
 2932 0077 5F5F696E 		.ascii	"__int32_t\000"
 2932      7433325F 
 2932      7400
 2933              	.LASF37:
 2934 0081 72656673 		.ascii	"refs\000"
 2934      00
 2935              	.LASF106:
 2936 0086 68656170 		.ascii	"heap\000"
 2936      00
 2937              	.LASF78:
 2938 008b 77746F62 		.ascii	"wtobjp\000"
 2938      6A7000
 2939              	.LASF111:
 2940 0092 706F7274 		.ascii	"port_lock\000"
 2940      5F6C6F63 
 2940      6B00
 2941              	.LASF69:
 2942 009c 76746C69 		.ascii	"vtlist\000"
 2942      737400
 2943              	.LASF74:
 2944 00a3 706F7274 		.ascii	"port_context\000"
 2944      5F636F6E 
 2944      74657874 
 2944      00
 2945              	.LASF53:
 2946 00b0 63685F72 		.ascii	"ch_ready_list\000"
 2946      65616479 
 2946      5F6C6973 
 2946      7400
 2947              	.LASF59:
 2948 00be 66756E63 		.ascii	"func\000"
 2948      00
 2949              	.LASF83:
 2950 00c3 65776D61 		.ascii	"ewmask\000"
 2950      736B00
 2951              	.LASF51:
 2952 00ca 70726576 		.ascii	"prev\000"
 2952      00
 2953              	.LASF50:
 2954 00cf 63685F74 		.ascii	"ch_threads_queue\000"
 2954      68726561 
 2954      64735F71 
 2954      75657565 
 2954      00
 2955              	.LASF55:
 2956 00e0 76746675 		.ascii	"vtfunc_t\000"
 2956      6E635F74 
 2956      00
 2957              	.LASF64:
 2958 00e9 63685F73 		.ascii	"ch_system_debug\000"
 2958      79737465 
 2958      6D5F6465 
ARM GAS  /tmp/cc6dBTT4.s 			page 78


 2958      62756700 
 2959              	.LASF18:
 2960 00f9 75696E74 		.ascii	"uint32_t\000"
 2960      33325F74 
 2960      00
 2961              	.LASF80:
 2962 0102 73656E74 		.ascii	"sentmsg\000"
 2962      6D736700 
 2963              	.LASF25:
 2964 010a 6576656E 		.ascii	"eventmask_t\000"
 2964      746D6173 
 2964      6B5F7400 
 2965              	.LASF92:
 2966 0116 74687265 		.ascii	"thread_descriptor_t\000"
 2966      61645F64 
 2966      65736372 
 2966      6970746F 
 2966      725F7400 
 2967              	.LASF84:
 2968 012a 63685F73 		.ascii	"ch_semaphore\000"
 2968      656D6170 
 2968      686F7265 
 2968      00
 2969              	.LASF23:
 2970 0137 74707269 		.ascii	"tprio_t\000"
 2970      6F5F7400 
 2971              	.LASF57:
 2972 013f 63685F76 		.ascii	"ch_virtual_timer\000"
 2972      69727475 
 2972      616C5F74 
 2972      696D6572 
 2972      00
 2973              	.LASF88:
 2974 0150 7466756E 		.ascii	"tfunc_t\000"
 2974      635F7400 
 2975              	.LASF14:
 2976 0158 6C6F6E67 		.ascii	"long long unsigned int\000"
 2976      206C6F6E 
 2976      6720756E 
 2976      7369676E 
 2976      65642069 
 2977              	.LASF6:
 2978 016f 5F5F7569 		.ascii	"__uint16_t\000"
 2978      6E743136 
 2978      5F7400
 2979              	.LASF26:
 2980 017a 636E745F 		.ascii	"cnt_t\000"
 2980      7400
 2981              	.LASF115:
 2982 0180 63685379 		.ascii	"chSysUnlock\000"
 2982      73556E6C 
 2982      6F636B00 
 2983              	.LASF86:
 2984 018c 6F776E65 		.ascii	"owner\000"
 2984      7200
 2985              	.LASF49:
 2986 0192 74687265 		.ascii	"threads_queue_t\000"
ARM GAS  /tmp/cc6dBTT4.s 			page 79


 2986      6164735F 
 2986      71756575 
 2986      655F7400 
 2987              	.LASF128:
 2988 01a2 76616C75 		.ascii	"value\000"
 2988      6500
 2989              	.LASF41:
 2990 01a8 6D74786C 		.ascii	"mtxlist\000"
 2990      69737400 
 2991              	.LASF61:
 2992 01b0 63685F76 		.ascii	"ch_virtual_timers_list\000"
 2992      69727475 
 2992      616C5F74 
 2992      696D6572 
 2992      735F6C69 
 2993              	.LASF104:
 2994 01c7 75736564 		.ascii	"used\000"
 2994      00
 2995              	.LASF28:
 2996 01cc 74687265 		.ascii	"thread_t\000"
 2996      61645F74 
 2996      00
 2997              	.LASF127:
 2998 01d5 68656170 		.ascii	"heap_header\000"
 2998      5F686561 
 2998      64657200 
 2999              	.LASF2:
 3000 01e1 73697A65 		.ascii	"size_t\000"
 3000      5F7400
 3001              	.LASF76:
 3002 01e8 7264796D 		.ascii	"rdymsg\000"
 3002      736700
 3003              	.LASF109:
 3004 01ef 6F626A65 		.ascii	"object_size\000"
 3004      63745F73 
 3004      697A6500 
 3005              	.LASF94:
 3006 01fb 5F426F6F 		.ascii	"_Bool\000"
 3006      6C00
 3007              	.LASF85:
 3008 0201 63685F6D 		.ascii	"ch_mutex\000"
 3008      75746578 
 3008      00
 3009              	.LASF103:
 3010 020a 66726565 		.ascii	"free\000"
 3010      00
 3011              	.LASF13:
 3012 020f 5F5F7569 		.ascii	"__uint64_t\000"
 3012      6E743634 
 3012      5F7400
 3013              	.LASF113:
 3014 021a 63685379 		.ascii	"chSysLock\000"
 3014      734C6F63 
 3014      6B00
 3015              	.LASF30:
 3016 0224 7072696F 		.ascii	"prio\000"
 3016      00
ARM GAS  /tmp/cc6dBTT4.s 			page 80


 3017              	.LASF130:
 3018 0229 5F5F6675 		.ascii	"__func__.5943\000"
 3018      6E635F5F 
 3018      2E353934 
 3018      3300
 3019              	.LASF87:
 3020 0237 63686172 		.ascii	"char\000"
 3020      00
 3021              	.LASF44:
 3022 023c 74687265 		.ascii	"thread_reference_t\000"
 3022      61645F72 
 3022      65666572 
 3022      656E6365 
 3022      5F7400
 3023              	.LASF34:
 3024 024f 77616261 		.ascii	"wabase\000"
 3024      736500
 3025              	.LASF118:
 3026 0256 63685468 		.ascii	"chThdCreateFromMemoryPool\000"
 3026      64437265 
 3026      61746546 
 3026      726F6D4D 
 3026      656D6F72 
 3027              	.LASF21:
 3028 0270 74737461 		.ascii	"tstate_t\000"
 3028      74655F74 
 3028      00
 3029              	.LASF15:
 3030 0279 75696E74 		.ascii	"uint8_t\000"
 3030      385F7400 
 3031              	.LASF39:
 3032 0281 6D736771 		.ascii	"msgqueue\000"
 3032      75657565 
 3032      00
 3033              	.LASF46:
 3034 028a 63685F74 		.ascii	"ch_thread\000"
 3034      68726561 
 3034      6400
 3035              	.LASF105:
 3036 0294 70616765 		.ascii	"pages\000"
 3036      7300
 3037              	.LASF125:
 3038 029a 2E2E2F2E 		.ascii	"../../../os/rt/src/chdynamic.c\000"
 3038      2E2F2E2E 
 3038      2F6F732F 
 3038      72742F73 
 3038      72632F63 
 3039              	.LASF63:
 3040 02b9 73797374 		.ascii	"system_debug_t\000"
 3040      656D5F64 
 3040      65627567 
 3040      5F7400
 3041              	.LASF90:
 3042 02c8 77656E64 		.ascii	"wend\000"
 3042      00
 3043              	.LASF12:
 3044 02cd 6C6F6E67 		.ascii	"long long int\000"
ARM GAS  /tmp/cc6dBTT4.s 			page 81


 3044      206C6F6E 
 3044      6720696E 
 3044      7400
 3045              	.LASF24:
 3046 02db 6D73675F 		.ascii	"msg_t\000"
 3046      7400
 3047              	.LASF56:
 3048 02e1 76697274 		.ascii	"virtual_timer_t\000"
 3048      75616C5F 
 3048      74696D65 
 3048      725F7400 
 3049              	.LASF107:
 3050 02f1 73697A65 		.ascii	"size\000"
 3050      00
 3051              	.LASF129:
 3052 02f6 5F5F6675 		.ascii	"__func__.5198\000"
 3052      6E635F5F 
 3052      2E353139 
 3052      3800
 3053              	.LASF124:
 3054 0304 474E5520 		.ascii	"GNU C 4.8.2 -mcpu=cortex-m3 -mno-thumb-interwork -m"
 3054      4320342E 
 3054      382E3220 
 3054      2D6D6370 
 3054      753D636F 
 3055 0337 7468756D 		.ascii	"thumb -ggdb -O2 -fomit-frame-pointer -falign-functi"
 3055      62202D67 
 3055      67646220 
 3055      2D4F3220 
 3055      2D666F6D 
 3056 036a 6F6E733D 		.ascii	"ons=16 -ffunction-sections -fdata-sections -fno-com"
 3056      3136202D 
 3056      6666756E 
 3056      6374696F 
 3056      6E2D7365 
 3057 039d 6D6F6E20 		.ascii	"mon -flto\000"
 3057      2D666C74 
 3057      6F00
 3058              	.LASF100:
 3059 03a7 68656164 		.ascii	"header\000"
 3059      657200
 3060              	.LASF97:
 3061 03ae 6D656D6F 		.ascii	"memory_heap_t\000"
 3061      72795F68 
 3061      6561705F 
 3061      7400
 3062              	.LASF121:
 3063 03bc 63685468 		.ascii	"chThdCreateSuspendedI\000"
 3063      64437265 
 3063      61746553 
 3063      75737065 
 3063      6E646564 
 3064              	.LASF65:
 3065 03d2 70616E69 		.ascii	"panic_msg\000"
 3065      635F6D73 
 3065      6700
 3066              	.LASF20:
ARM GAS  /tmp/cc6dBTT4.s 			page 82


 3067 03dc 746D6F64 		.ascii	"tmode_t\000"
 3067      655F7400 
 3068              	.LASF70:
 3069 03e4 6D61696E 		.ascii	"mainthread\000"
 3069      74687265 
 3069      616400
 3070              	.LASF126:
 3071 03ef 2F686F6D 		.ascii	"/home/jerson/ChibiOS_17.6.2/demos/STM32/RT-STM32F10"
 3071      652F6A65 
 3071      72736F6E 
 3071      2F436869 
 3071      62694F53 
 3072 0422 302D4449 		.ascii	"0-DISCOVERY\000"
 3072      53434F56 
 3072      45525900 
 3073              	.LASF16:
 3074 042e 75696E74 		.ascii	"uint16_t\000"
 3074      31365F74 
 3074      00
 3075              	.LASF120:
 3076 0437 63684865 		.ascii	"chHeapAllocAligned\000"
 3076      6170416C 
 3076      6C6F6341 
 3076      6C69676E 
 3076      656400
 3077              	.LASF5:
 3078 044a 73686F72 		.ascii	"short int\000"
 3078      7420696E 
 3078      7400
 3079              	.LASF98:
 3080 0454 6D656D6F 		.ascii	"memory_heap\000"
 3080      72795F68 
 3080      65617000 
 3081              	.LASF9:
 3082 0460 6C6F6E67 		.ascii	"long int\000"
 3082      20696E74 
 3082      00
 3083              	.LASF75:
 3084 0469 706F7274 		.ascii	"port_intctx\000"
 3084      5F696E74 
 3084      63747800 
 3085              	.LASF119:
 3086 0475 49544D5F 		.ascii	"ITM_RxBuffer\000"
 3086      52784275 
 3086      66666572 
 3086      00
 3087              	.LASF67:
 3088 0482 63685F73 		.ascii	"ch_system\000"
 3088      79737465 
 3088      6D00
 3089              	.LASF114:
 3090 048c 5F5F7365 		.ascii	"__set_BASEPRI\000"
 3090      745F4241 
 3090      53455052 
 3090      4900
 3091              	.LASF99:
 3092 049a 70726F76 		.ascii	"provider\000"
ARM GAS  /tmp/cc6dBTT4.s 			page 83


 3092      69646572 
 3092      00
 3093              	.LASF62:
 3094 04a3 6C617374 		.ascii	"lasttime\000"
 3094      74696D65 
 3094      00
 3095              	.LASF19:
 3096 04ac 75696E74 		.ascii	"uint64_t\000"
 3096      36345F74 
 3096      00
 3097              	.LASF68:
 3098 04b5 726C6973 		.ascii	"rlist\000"
 3098      7400
 3099              	.LASF123:
 3100 04bb 6368506F 		.ascii	"chPoolAlloc\000"
 3100      6F6C416C 
 3100      6C6F6300 
 3101              	.LASF3:
 3102 04c7 5F5F7569 		.ascii	"__uint8_t\000"
 3102      6E74385F 
 3102      7400
 3103              	.LASF95:
 3104 04d1 6D656D67 		.ascii	"memgetfunc_t\000"
 3104      65746675 
 3104      6E635F74 
 3104      00
 3105              	.LASF33:
 3106 04de 6E616D65 		.ascii	"name\000"
 3106      00
 3107              	.LASF71:
 3108 04e3 73697A65 		.ascii	"sizetype\000"
 3108      74797065 
 3108      00
 3109              	.LASF22:
 3110 04ec 74726566 		.ascii	"trefs_t\000"
 3110      735F7400 
 3111              	.LASF11:
 3112 04f4 6C6F6E67 		.ascii	"long unsigned int\000"
 3112      20756E73 
 3112      69676E65 
 3112      6420696E 
 3112      7400
 3113              	.LASF52:
 3114 0506 72656164 		.ascii	"ready_list_t\000"
 3114      795F6C69 
 3114      73745F74 
 3114      00
 3115              	.LASF29:
 3116 0513 71756575 		.ascii	"queue\000"
 3116      6500
 3117              	.LASF17:
 3118 0519 696E7433 		.ascii	"int32_t\000"
 3118      325F7400 
 3119              	.LASF81:
 3120 0521 77747365 		.ascii	"wtsemp\000"
 3120      6D7000
 3121              	.LASF117:
ARM GAS  /tmp/cc6dBTT4.s 			page 84


 3122 0528 63685468 		.ascii	"chThdCreateFromHeap\000"
 3122      64437265 
 3122      61746546 
 3122      726F6D48 
 3122      65617000 
 3123              	.LASF93:
 3124 053c 6D757465 		.ascii	"mutex_t\000"
 3124      785F7400 
 3125              	.LASF31:
 3126 0544 6E657765 		.ascii	"newer\000"
 3126      7200
 3127              	.LASF4:
 3128 054a 756E7369 		.ascii	"unsigned char\000"
 3128      676E6564 
 3128      20636861 
 3128      7200
 3129              	.LASF10:
 3130 0558 5F5F7569 		.ascii	"__uint32_t\000"
 3130      6E743332 
 3130      5F7400
 3131              	.LASF38:
 3132 0563 77616974 		.ascii	"waiting\000"
 3132      696E6700 
 3133              	.LASF91:
 3134 056b 66756E63 		.ascii	"funcp\000"
 3134      7000
 3135              	.LASF60:
 3136 0571 76697274 		.ascii	"virtual_timers_list_t\000"
 3136      75616C5F 
 3136      74696D65 
 3136      72735F6C 
 3136      6973745F 
 3137              	.LASF122:
 3138 0587 63685363 		.ascii	"chSchWakeupS\000"
 3138      6857616B 
 3138      65757053 
 3138      00
 3139              	.LASF35:
 3140 0594 73746174 		.ascii	"state\000"
 3140      6500
 3141              	.LASF108:
 3142 059a 706F6F6C 		.ascii	"pool_header\000"
 3142      5F686561 
 3142      64657200 
 3143              	.LASF66:
 3144 05a6 63685F73 		.ascii	"ch_system_t\000"
 3144      79737465 
 3144      6D5F7400 
 3145              	.LASF79:
 3146 05b2 77747472 		.ascii	"wttrp\000"
 3146      7000
 3147              	.LASF116:
 3148 05b8 68656170 		.ascii	"heapp\000"
 3148      7000
 3149              	.LASF1:
 3150 05be 7369676E 		.ascii	"signed char\000"
 3150      65642063 
ARM GAS  /tmp/cc6dBTT4.s 			page 85


 3150      68617200 
 3151              	.LASF58:
 3152 05ca 64656C74 		.ascii	"delta\000"
 3152      6100
 3153              	.LASF7:
 3154 05d0 73686F72 		.ascii	"short unsigned int\000"
 3154      7420756E 
 3154      7369676E 
 3154      65642069 
 3154      6E7400
 3155              	.LASF73:
 3156 05e3 73746B61 		.ascii	"stkalign_t\000"
 3156      6C69676E 
 3156      5F7400
 3157              	.LASF54:
 3158 05ee 63757272 		.ascii	"current\000"
 3158      656E7400 
 3159              	.LASF112:
 3160 05f6 706F7274 		.ascii	"port_unlock\000"
 3160      5F756E6C 
 3160      6F636B00 
 3161              	.LASF96:
 3162 0602 6D656D67 		.ascii	"memgetfunc2_t\000"
 3162      65746675 
 3162      6E63325F 
 3162      7400
 3163              	.LASF102:
 3164 0610 616C6967 		.ascii	"align\000"
 3164      6E00
 3165              	.LASF32:
 3166 0616 6F6C6465 		.ascii	"older\000"
 3166      7200
 3167              	.LASF77:
 3168 061c 65786974 		.ascii	"exitcode\000"
 3168      636F6465 
 3168      00
 3169              	.LASF101:
 3170 0625 68656170 		.ascii	"heap_header_t\000"
 3170      5F686561 
 3170      6465725F 
 3170      7400
 3171              	.LASF43:
 3172 0633 6D706F6F 		.ascii	"mpool\000"
 3172      6C00
 3173              		.comm	__gnu_lto_v1,1,1
 3174              		.ident	"GCC: (4.8.2-14ubuntu1+6) 4.8.2"
ARM GAS  /tmp/cc6dBTT4.s 			page 86


DEFINED SYMBOLS
                            *ABS*:0000000000000000 chdynamic.c
     /tmp/cc6dBTT4.s:410    .text.chThdCreateFromHeap:0000000000000000 $t
     /tmp/cc6dBTT4.s:416    .text.chThdCreateFromHeap:0000000000000000 chThdCreateFromHeap
     /tmp/cc6dBTT4.s:517    .text.chThdCreateFromMemoryPool:0000000000000000 $t
     /tmp/cc6dBTT4.s:523    .text.chThdCreateFromMemoryPool:0000000000000000 chThdCreateFromMemoryPool
                            *COM*:0000000000000001 __gnu_lto_v1
                     .debug_frame:0000000000000010 $d

UNDEFINED SYMBOLS
chHeapAllocAligned
chThdCreateSuspendedI
chSchWakeupS
chPoolAlloc
