ARM GAS  /tmp/ccIxHdDp.s 			page 1


   1              		.syntax unified
   2              		.cpu cortex-m3
   3              		.fpu softvfp
   4              		.eabi_attribute 20, 1
   5              		.eabi_attribute 21, 1
   6              		.eabi_attribute 23, 3
   7              		.eabi_attribute 24, 1
   8              		.eabi_attribute 25, 1
   9              		.eabi_attribute 26, 1
  10              		.eabi_attribute 30, 2
  11              		.eabi_attribute 34, 1
  12              		.eabi_attribute 18, 4
  13              		.thumb
  14              		.file	"chheap.c"
  15              		.text
  16              	.Ltext0:
  17              		.section	.gnu.lto_.jmpfuncs.a31291a067be2645,"",%progbits
  18 0000 789C6362 		.ascii	"x\234cb`b\300\006\212\2414+\003\003#S5\303\257\206\216"
  18      6062C006 
  18      8AA1342B 
  18      03032353 
  18      35C3AF86 
  19 0015 06814C46 		.ascii	"\006\201LF\006m\206U\015\015 \026c.#C\022#\\9#\343\203"
  19      066D8655 
  19      0D0D2016 
  19      632E2343 
  19      12235C39 
  20 002c FF50C018 		.ascii	"\377P\300\030\301\230\311\0104\224\231\235\221\245\001"
  20      C198C908 
  20      3494999D 
  20      91A501
  21 003b C8042962 		.ascii	"\310\004)ba\007\222\020\304\014R\316\004R\303\314\301"
  21      61079210 
  21      C40C52CE 
  21      0452C3CC 
  21      C1
  22 004c C0500FB4 		.ascii	"\300P\017\264\201\021\"\301\006U\303\000\000\371\033"
  22      811122C1 
  22      0655C300 
  22      00F91B
  23 005b 13AA     		.ascii	"\023\252"
  24              		.text
  25              		.section	.gnu.lto_.inline.a31291a067be2645,"",%progbits
  26 0000 789C6362 		.ascii	"x\234cb`b\300\006Z\030!4+\003\003\207\000#\003\023\333"
  26      6062C006 
  26      5A182134 
  26      2B030387 
  26      00230313 
  27 0015 073D06B6 		.ascii	"\007=\006\266\005\362`\305L\334\014\014\214\014\314"
  27      05F260C5 
  27      4CDC0C0C 
  27      8C0CCC
  28 0024 0C3C228C 		.ascii	"\014<\"\214LL`u \202\231\265C\235\201{\205\033\023\003"
  28      4C4C6075 
  28      208299B5 
  28      439D817B 
  28      851B1303 
ARM GAS  /tmp/ccIxHdDp.s 			page 2


  29 0038 CB027916 		.ascii	"\313\002y\026\270\272\011~,\014\327\030v11\2623\244"
  29      B8BA097E 
  29      2C0CD718 
  29      763131B2 
  29      33A4
  30 004a 47306632 		.ascii	"G0f2\202e2`,\246\024\020\213\231\035\310J\205\261\300"
  30      82653260 
  30      2CA61410 
  30      8B991DC8 
  30      4A85B1C0 
  31 005e A681CD65 		.ascii	"\246\201\315e\004\021\254E\373>*@\354\006\032\354\000"
  31      0411AC45 
  31      FB3E2A40 
  31      EC061AEC 
  31      00
  32 006f 221A1819 		.ascii	"\"\032\030\031\204\246x60!Y\202J\261\013\003\3353\301"
  32      84A67836 
  32      30215982 
  32      4AB10B03 
  32      DD33C1
  33 0082 6F821FD0 		.ascii	"o\202\037\320\375\306\207\031\201\346\200]\350\323\265"
  33      FDC68719 
  33      81E6805D 
  33      E8D3B5
  34 0091 458441E0 		.ascii	"E\204A\340E\020\023\003\323\005~\026L\335l\014\222_"
  34      45101303 
  34      D3057E16 
  34      4CDD6C0C 
  34      925F
  35 00a3 191839B1 		.ascii	"\031\0309\2619\224\021\314b\005\261\322a,&\270\030\023"
  35      399411CC 
  35      6205B1D2 
  35      612C26B8 
  35      1813
  36 00b5 5C8C01EE 		.ascii	"\\\214\001\356n\260\0178\005\036\314\343\202;\276\001"
  36      6EB00F38 
  36      051ECCE3 
  36      823BBE01 
  37 00c5 42B23030 		.ascii	"B\26200\177\023\026``\274\304&\000\021\340``n\023u`"
  37      7F131660 
  37      60BCC426 
  37      0011E060 
  37      606E1375 
  38 00da 606C6277 		.ascii	"`lbw\300\342'\006\000\261\2422\262"
  38      C0E22706 
  38      00B1A232 
  38      B2
  39              		.text
  40              		.section	.gnu.lto_.pureconst.a31291a067be2645,"",%progbits
  41 0000 789C6362 		.ascii	"x\234cb`b\340f\200\000V\006\011f)\026)V)6)\000\004?"
  41      6062E066 
  41      80005606 
  41      09662916 
  41      29562936 
  42 0018 00A7     		.ascii	"\000\247"
  43              		.text
  44              		.section	.gnu.lto__heap_init.a31291a067be2645,"",%progbits
ARM GAS  /tmp/ccIxHdDp.s 			page 3


  45 0000 789C6362 		.ascii	"x\234cb`b@\007\222@|\216\221\201A\003H32302M8\307\300"
  45      60624007 
  45      92407C8E 
  45      91814103 
  45      48333233 
  46 001a D0C8C1C4 		.ascii	"\320\310\301\304\310\010b002\32431\326G2\202\325\256"
  46      C8086230 
  46      3032D433 
  46      31D64732 
  46      82D5AE
  47 002d 673AF0E0 		.ascii	"g:\360\340\377\377u\333\216O\277\3038\217\211\015(\302"
  47      FFFF75DB 
  47      8E4FBFC3 
  47      388F890D 
  47      28C2
  48 003f CAD0D2D0 		.ascii	"\312\320\322\3200A\201\201!\031\254\"\004H\202\264\205"
  48      30418181 
  48      2119AC22 
  48      044882B4 
  48      85
  49 0050 32328168 		.ascii	"22\201h\346\263\014M\277\232\277\367Y&2.dde\320fX\325"
  49      E6B30C4D 
  49      BF9ABFF7 
  49      5926322E 
  49      646465D0 
  50 0067 0004F699 		.ascii	"\000\004\366\231\214\014\263\031f564\010d22V3\374j\350"
  50      8C0CB319 
  50      66353634 
  50      08643232 
  50      5633FC6A 
  51 007c 00B19872 		.ascii	"\000\261\230r\301FD0\002\231`\333\222 \2262@T4\224g"
  51      C1464430 
  51      029960DB 
  51      92209632 
  51      40543494 
  52 0091 32322733 		.ascii	"22'3B\304\200\346\356\270\361\375\000\013\212\271\354"
  52      42C480E6 
  52      EEB8F1FD 
  52      000B8AB9 
  52      EC
  53 00a2 998C2CDA 		.ascii	"\231\214,\332\014Z\231\214\254`\222\2158;\030\2414\214"
  53      0C5A998C 
  53      AC60928D 
  53      383B18A1 
  53      348C
  54 00b4 CFCC0053 		.ascii	"\317\314\000S\301\002\263\351\307\367\023\0306\261S"
  54      C102B3E9 
  54      C7F71318 
  54      36B153
  55 00c3 6E130BDC 		.ascii	"n\023\013\334&v\020\343<C\313\203\227\207\271 \026\301"
  55      267610E3 
  55      3C43CB83 
  55      9787B920 
  55      16C1
  56 00d5 7C0D3489 		.ascii	"|\0154\211#\031\252\003$\302\221\311\310\011u\304D\240"
  56      2319AA03 
  56      24C291C9 
ARM GAS  /tmp/ccIxHdDp.s 			page 4


  56      C80975C4 
  56      44A0
  57 00e7 462EA02D 		.ascii	"F.\240-I`\345\014\014P\215\231\214\334\014\014\027\031"
  57      4960E50C 
  57      0C508D99 
  57      8CDC0C0C 
  57      1719
  58 00f9 1A1FBC55 		.ascii	"\032\037\274U\206\031\005\001!@\007\000\343\004d\226"
  58      86190501 
  58      21400700 
  58      E3046496 
  59 0109 9A9E9E3E 		.ascii	"\232\236\236>\004\345\027\353'\347\347\346\346\347\001"
  59      04E517EB 
  59      27E7E7E6 
  59      E6E701
  60 0118 59399949 		.ascii	"Y9\231I\372\305E\311\372\311\031\031\251\211\005z\311"
  60      FAC545C9 
  60      FAC91919 
  60      A989057A 
  60      C9
  61 0129 0C00FF43 		.ascii	"\014\000\377Cv\366"
  61      76F6
  62              		.text
  63              		.section	.gnu.lto_chHeapObjectInit.a31291a067be2645,"",%progbits
  64 0000 789C9552 		.ascii	"x\234\225R\277K\303P\020\276{Il\032\353\217\325M\004"
  64      BF4BC350 
  64      10BE7B49 
  64      6C1AEB8F 
  64      D54D04
  65 0013 052D34F8 		.ascii	"\005-4\370\277(\350X\203\264\001c\213\335\354\340\263"
  65      BF28E858 
  65      83B40163 
  65      8BDDECE0 
  65      B3
  66 0024 E95004A1 		.ascii	"\351P\004\241HE\321\305:DP\320\265c]\004\005\0257\335"
  66      4845D1C5 
  66      3A4450D0 
  66      B5635D04 
  66      051537DD 
  67 0038 FC031C74 		.ascii	"\374\003\034t\262t0\336{y\255T\253\340\221\334\275\344"
  67      B27430DE 
  67      7B79AD54 
  67      ABE091DC 
  67      BDE4
  68 004a BEFBEE7B 		.ascii	"\276\373\356{\3071`\360\335\306\350}\241\337I\212\250"
  68      C73160F0 
  68      DDC6E87D 
  68      A1DF498A 
  68      A8
  69 005b 01B2EA1D 		.ascii	"\001\262\352\035\300\246\311\020\305\001\0206\030n,"
  69      C0A6C910 
  69      C5011036 
  69      186E2C
  70 006a A2C45EB0 		.ascii	"\242\304^\260\346s\030\236\327n\256.\361lr\030\321C"
  70      E673189E 
  70      D76EAE2E 
  70      F16C7218 
ARM GAS  /tmp/ccIxHdDp.s 			page 5


  70      D143
  71 007c D0C8A149 		.ascii	"\320\310\241I\216\305\301E\260\204K\220\023\025\006"
  71      8EC5C145 
  71      B0844B90 
  71      131506
  72 008b 9439AF8E 		.ascii	"\2249\257\216O@\235\363\235\346\336\326\356\030?*U\371"
  72      4F409DF3 
  72      9DE6DED6 
  72      EE183F2A 
  72      55F9
  73 009d 4718A28B 		.ascii	"G\030\242\213\214\3014\202\203\260@\037\332\270\014"
  73      8CC13482 
  73      83B0401F 
  73      DAB80C
  74 00ac BADE2BCE 		.ascii	"\272\336+\316#E\002B6G^(\232G&\242v\015,\215u4 \215"
  74      23450242 
  74      36475E28 
  74      9A4726A2 
  74      760D2C8D 
  75 00c4 C7380119 		.ascii	"\3078\001\031\321\360\026J\215F\360\244\022I8\345d\263"
  75      D1F0164A 
  75      8D46F0A4 
  75      124938E5 
  75      64B3
  76 00d6 2E1A8770 		.ascii	".\032\207p@\354\003\031\324D\227\230\344^\212\356$\373"
  76      40EC0319 
  76      D4449798 
  76      E45E8AEE 
  76      24FB
  77 00e8 1AE240D5 		.ascii	"\032\342@\325\327\217\301\203\326S\035#\241I\230q\321"
  77      D78FC183 
  77      D6531D23 
  77      A1499871 
  77      D1
  78 00f9 943EDE9F 		.ascii	"\224>\336\237\011Ud*j2v5\265\202\247\037\254\326\377"
  78      0955642A 
  78      6A327635 
  78      B582A71F 
  78      ACD6FF
  79 010c 59F5AE5E 		.ascii	"Y\365\256^K\351m\354\237\274\341/z#\3168\211\020\025"
  79      4BE96DEC 
  79      9FBCE12F 
  79      7A23CE38 
  79      891015
  80 011f ACAFC26E 		.ascii	"\254\257\302n\346\026\374\212\377^\263#\256\214(3e\243"
  80      E616FC8A 
  80      FF5EB323 
  80      AE8C2833 
  80      65A3
  81 0131 56188623 		.ascii	"V\030\206#\021`\333\017\264N\336\"\210\314\233jp\257"
  81      1160DB0F 
  81      B44EDE22 
  81      88CC9B6A 
  81      70AF
  82 0143 B15F2EF8 		.ascii	"\261_.\370\267\014]\015\312\222,m?\254\315tZ$\212\260"
  82      B70C5D0D 
  82      CA922C6D 
ARM GAS  /tmp/ccIxHdDp.s 			page 6


  82      3FACCD74 
  82      5A248AB0 
  83 0157 4E6BA408 		.ascii	"Nk\244\010\013.\016\366\237\222\361\265.\367Pn\252z"
  83      0B2E0EF6 
  83      9F92F1B5 
  83      2EF7506E 
  83      AA7A
  84 0169 8022B479 		.ascii	"\200\"\264y\205\217\272\230p\324$\211\323\305!\200\007"
  84      858FBA98 
  84      70D42489 
  84      D3C52180 
  84      07
  85 017a D87C3E9B 		.ascii	"\330|>\233\354\340\"\233#\014\255\225\3205\225J\331"
  85      ECE0229B 
  85      230CAD95 
  85      D035954A 
  85      D9
  86 018b D1932BD8 		.ascii	"\321\223+\330N\316\363r\253tZq\227\354\302\232c;\331"
  86      4ECEF372 
  86      AB745A71 
  86      97ECC29A 
  86      633BD9
  87 019e EC723A9F 		.ascii	"\354r:\237r\200e\363\237U\026\2476"
  87      728065F3 
  87      9F5516A7 
  87      36
  88              		.text
  89              		.section	.gnu.lto_chHeapAllocAligned.a31291a067be2645,"",%progbits
  90 0000 789C9D57 		.ascii	"x\234\235WilTU\024\276\367\276\367f_\332\351F\265l\225"
  90      696C5455 
  90      14BEF7BE 
  90      F7665FDA 
  90      E946B56C 
  91 0015 1D6D2915 		.ascii	"\035m)\025EhS\026cB\3004!\220\340?K\2252\211\225*\377"
  91      45685316 
  91      6342C034 
  91      2190E03F 
  91      4B953289 
  92 002c E447A79D 		.ascii	"\344G\247\235F6%\304@\000Y\254Q\203h\010\233\304\032"
  92      463625C4 
  92      400059AC 
  92      51836808 
  92      9BC41A
  93 003f 24CC1014 		.ascii	"$\314\020\024\012\010\324\304\010\015*Q\221\204\222"
  93      0A08D4C4 
  93      080D2A51 
  93      918492
  94 004e 46A21124 		.ascii	"F\242\021$\306\361\234s\357}\363:\035\247\243/\355y"
  94      C6F19C73 
  94      EF7DF33A 
  94      1DA7A32F 
  94      ED79
  95 0060 EF9EFD7E 		.ascii	"\357\236\375~\347\334e\004\023,\363)\343\214\255\210"
  95      E7DC6504 
  95      132CF329 
  95      E38CAD88 
  96 0070 C03F7CF3 		.ascii	"\300?|\3632\306\305\326K\214ux\2040\256\373Y\314g~r"
ARM GAS  /tmp/ccIxHdDp.s 			page 7


  96      32C6C5D6 
  96      4B8C7578 
  96      8430AEFB 
  96      59CC677E 
  97 0085 9AB158C0 		.ascii	"\232\261X\300\340\246\344\233\302\3320\031\370.\244"
  97      E0A6E49B 
  97      C2DA3019 
  97      F82EA4
  98 0094 018BBB24 		.ascii	"\001\213\273$\333\305K\345\207[xH^Hr\217\360\2366pt"
  98      DBC54BE5 
  98      875B7848 
  98      5E48728F 
  98      F09E3670 
  99 00a9 E93C7AF1 		.ascii	"\351<z\361\012\037\011\203$\364\011?\215\0024\362\363"
  99      0A1F0983 
  99      24F4093F 
  99      8D0234F2 
  99      F3
 100 00ba 80F410E0 		.ascii	"\200\364\020\340\005\362#(B\277\226\200<\334=\033\344"
 100      05F22328 
 100      42BF9680 
 100      3CDC3D1B 
 100      E4
 101 00cb 21CD0EEB 		.ascii	"!\315\016\353\217\002^\"?\012e\360\371\245\302Mq|\021"
 101      8F025E22 
 101      3F0A65F0 
 101      F9A5C24D 
 101      717C11
 102 00de 0C1A8888 		.ascii	"\014\032\210\210\242/iXr\036\207E\242\370\312E\032&"
 102      A22F6958 
 102      721E8745 
 102      A2F8CA45 
 102      1A26
 103 00f0 380C8BB5 		.ascii	"8\014\213\265u\011\347\370\3018k\027\206i\271\334\036"
 103      7509E7F8 
 103      C1386B17 
 103      8669B9DC 
 103      1E
 104 0101 AFCF1F08 		.ascii	"\257\317\037\010\206\302\005\205\245\221\242\342\022"
 104      86C20585 
 104      A591A2E2 
 104      12
 105 010e DEFE1C47 		.ascii	"\336\376\034G\240\274\225\354\335Xl\353\215/~\352\263"
 105      A0BC95EC 
 105      DD586CEB 
 105      8D2F7EEA 
 105      B3
 106 011f 766D4B74 		.ascii	"vmKtu\307\376J\2458\217r\000u*g\315\234\255\200\001"
 106      75C7FE4A 
 106      A5388F72 
 106      00752A67 
 106      CD9CAD80 
 107 0134 1F472F61 		.ascii	"\037G/a\016EY\332\306\216~\030\363\222\235AfU\371\231"
 107      0E4559DA 
 107      C68E7E18 
 107      F3929D41 
 107      6655F999 
ARM GAS  /tmp/ccIxHdDp.s 			page 8


 108 0148 254E5DDA 		.ascii	"%N]\332Q\276\251\273sk\354o\210H\226\217\347i\371\331"
 108      51BEA9BB 
 108      736BEC6F 
 108      8848968F 
 108      E769F9D9 
 109 015c E53D1996 		.ascii	"\345=\031\226s\362\262|+\361\316\346\355\345\261\264"
 109      73F2B27C 
 109      2BF1CEE6 
 109      EDE5B1B4 
 110 016c A5215843 		.ascii	"\245!XC~\226\261?_8\027\353J\244R\015d\265 \317xG6\277"
 110      7E96B13F 
 110      5F3817EB 
 110      4AA4520D 
 110      64B520CF 
 111 0184 E98C670A 		.ascii	"\351\214g\012\366L\236\226\337l\331\233\221\351\222"
 111      F64C9E96 
 111      DF6CD99B 
 111      91E992
 112 0193 3C2D0F5F 		.ascii	"<-\017_\016l\355\330\020K\245\332\301\254\211\037\346"
 112      0E6CEDD8 
 112      104BA5DA 
 112      C1AC891F 
 112      E6
 113 01a4 6204BB43 		.ascii	"b\004\273C\"q#\225\272s\355\3677\356\360\363b)g\255"
 113      22712395 
 113      BA73EDF7 
 113      37EEF0F3 
 113      622967AD 
 114 01b8 08692BE7 		.ascii	"\010i+\347\006k\342\007x%3\325\333bQny9\210}@\270\037"
 114      066BE207 
 114      782533D5 
 114      DB62516E 
 114      7939887D 
 115 01cf 880800CF 		.ascii	"\210\010\000\317\025D\022\002\255\203\240\025\206\201"
 115      15441202 
 115      AD83A015 
 115      8681
 116 01dd 3BA24C8A 		.ascii	";\242L\212``\024\253A\011\016JQ\267\014\311($\345H\036"
 116      606014AB 
 116      41090E4A 
 116      51B70CC9 
 116      2824E548 
 117 01f2 42F23010 		.ascii	"B\3620\020Q\241TG#g\014r\306\"\031\207\226\343A\366"
 117      51A15447 
 117      23670C72 
 117      C6221987 
 117      96E341F6 
 118 0206 2EC82AE1 		.ascii	".\310*\341\375\036\274\037\001&\233\200d\"\222IH&#\231"
 118      FD1EBC1F 
 118      01269B80 
 118      64229249 
 118      48262399 
 119 021a 82C65341 		.ascii	"\202\306SA\353\003\320\232\206\234\351H\036E\362\030"
 119      EB03D09A 
 119      869CE948 
 119      1E45F218 
 120 022a CAAAD1E7 		.ascii	"\312\252\321\347\014$5\240u\010\264f\"\273\026\311,"
ARM GAS  /tmp/ccIxHdDp.s 			page 9


 120      0C2435A0 
 120      7508B466 
 120      22BB16C9 
 120      2C
 121 023b 0C351BC9 		.ascii	"\0145\033\311\034T\230\213\244\016\264\216\200V=\262"
 121      1C54988B 
 121      A40EB48E 
 121      80563DB2 
 122 024b 1B60B01F 		.ascii	"\033`\260\037\006\363\320\335|$\013\220,D\343E\210\320"
 122      06F3D0DD 
 122      7C240B90 
 122      2C44E345 
 122      88D0
 123 025d 62209E25 		.ascii	"b \236%8|\026I#\350\177\014\372\360X\254\013\372w\234"
 123      387C1649 
 123      23E87F0C 
 123      FAF058AC 
 123      0BFA779C 
 124 0271 9CA26EC9 		.ascii	"\234\242n\311\013;2\012\3358R\241\245?\211v+T\011\325"
 124      0B3B320A 
 124      DD3852A1 
 124      A53F8976 
 124      2B5409D5 
 125 0285 E1590674 		.ascii	"\341Y\006t\227\305\226C\301wY\3069v\346V\362\304f\350"
 125      97C59643 
 125      C17759C6 
 125      3976E656 
 125      F2C466E8 
 126 0299 80A3DC62 		.ascii	"\200\243\334b-\334\213\236\274N7\313\301\364gf\364\262"
 126      2DDC8B9E 
 126      BC4E37CB 
 126      C1F46766 
 126      F4B2
 127 02ab CE1BDFDF 		.ascii	"\316\033\337\337tI=\250\355:\366 \266!\026\233\013\332"
 127      74493DA8 
 127      ED3AF620 
 127      B621169B 
 127      0BDA
 128 02bd ADDC7468 		.ascii	"\255\334th\233\350\026\264=\014\325Z8\204;\307\272~"
 128      9BE816B4 
 128      3D0CD55A 
 128      38843BC7 
 128      BA7E
 129 02cf 497E930E 		.ascii	"I~\223\016\342\303 .\267mt\215q\210,\270\364\2318y!"
 129      E2C3202E 
 129      B76D748D 
 129      71882CB8 
 129      F4993879 
 130 02e4 647B357A 		.ascii	"d{5z\014tj\261\213\002\235v\017X:\003NN<v\\\2273.\370"
 130      0C746AB1 
 130      8B029D76 
 130      0F583A03 
 130      4E4E3C76 
 131 02fd 83EDFE2B 		.ascii	"\203\355\376+\026\337\020?Y\246\303\006Z\270\037\215"
 131      16DF103F 
 131      59A6C306 
 131      5AB81F8D 
ARM GAS  /tmp/ccIxHdDp.s 			page 10


 132 030d 4C8C0CB2 		.ascii	"L\214\014\262\023vBA\020\222\344~*\225\012K\351\233"
 132      13764241 
 132      1092E47E 
 132      2A950A4B 
 132      E99B
 133 031f F1555A1C 		.ascii	"\361UZ\034\002\015\022c\264^&$_\"\013RT\357|\020\037"
 133      020D1263 
 133      B45E2624 
 133      5F220B52 
 133      54EF7C10 
 134 0334 D861FB0B 		.ascii	"\330a\373\013\257c\257A{Og\323\242\334\267\233\275\015"
 134      AF63AF41 
 134      7B4F67D3 
 134      A2DCB79B 
 134      BD0D
 135 0346 B6FE1699 		.ascii	"\266\376\026\231\261\304v%w |\231\231\322\220)T\013"
 135      B1C47625 
 135      77207C99 
 135      99D29029 
 135      540B
 136 0358 A23CD0CC 		.ascii	"\242<\320\314\245\0128\213\362\240\012qo\207K\207\210"
 136      A50A388B 
 136      F2A00A71 
 136      6F874B87 
 136      88
 137 0369 A02A3C35 		.ascii	"\240*<5\320\014\323\331G\370Y\037\345\241\354\301\034"
 137      D00CD3D9 
 137      47F8591F 
 137      E5A1ECC1 
 137      1C
 138 037a D100A184 		.ascii	"\321\000\241\204KO\340\000M \"k \2400\246F\325\372\374"
 138      4B4FE000 
 138      4D20226B 
 138      20A030A6 
 138      46D5FAFC 
 139 038e BB971055 		.ascii	"\273\227\020U7\203c\205\212\277q\275mv\214\314\212\010"
 139      37836385 
 139      8ABF71BD 
 139      6D768CCC 
 139      8A08
 140 03a0 A6CDF163 		.ascii	"\246\315\361c{\352tR%\300\245V\364\020\206\235\2036"
 140      7BEA7452 
 140      25C0A556 
 140      F410869D 
 140      8336
 141 03b2 22A52094 		.ascii	"\"\245 \224\005\261Ye\304\025\031\334Q \240\034Rv):"
 141      05B15965 
 141      C41519DC 
 141      5120A01C 
 141      5276293A 
 142 03c6 0FD8D272 		.ascii	"\017\330\322rm\220\256\335CdS\256\252\375\267\315\177"
 142      6D90AEDD 
 142      436453AE 
 142      AAFDB7CD 
 142      7F
 143 03d7 1844944B 		.ascii	"\030D\224K\272\246\235\203\351\232V\200\306\220b~L\223"
 143      BAA69D83 
ARM GAS  /tmp/ccIxHdDp.s 			page 11


 143      E99A5680 
 143      C690627E 
 143      4C93
 144 03e9 AA20BDFE 		.ascii	"\252 \275\376\253?%\205\326\034Me4\211\206%\276!5OC"
 144      AB3F2585 
 144      D61C4D65 
 144      34898625 
 144      BE21354F 
 145 03fe E12BD4DB 		.ascii	"\341+\324\333P \017\231\321\030pA\211p)\331dK\306\202"
 145      50200F99 
 145      D1187041 
 145      897029D9 
 145      644BC682 
 146 0412 D001573C 		.ascii	"\320\001W<\275B\306A\000\220\343\3229\363KG\215\203"
 146      BD42C641 
 146      0090E3D2 
 146      39F34B47 
 146      8D83
 147 0424 5DE15C99 		.ascii	"]\341\\\231\036\266\177\242A\363\272m\247;^U\306\001"
 147      1EB67FA2 
 147      41F3BA6D 
 147      A73B5E55 
 147      C601
 148 0436 7E25CD15 		.ascii	"~%\315\025\002l\264Y\217\220be\206\342\004\2129$\373"
 148      026CB459 
 148      8F906265 
 148      86E2048A 
 148      3924FB
 149 0449 89C0C51C 		.ascii	"\211\300\305\034\031\302H\017o\317P\231D\356&\022w\237"
 149      19C2480F 
 149      6FCF5099 
 149      44EE2612 
 149      779F
 150 045b CD9D0C02 		.ascii	"\315\235\014\0022\034\326\013S@H\233\302\255\216u\016"
 150      321CD60B 
 150      5340489B 
 150      C2AD8E75 
 150      0E
 151 046c 5EC83933 		.ascii	"^\31093/\373\226\343\346t3y|KP+\025eL\337\307\006do"
 151      2FFB96E3 
 151      E6743379 
 151      7C4B502B 
 151      15654CDF 
 152 0484 EE5BEF53 		.ascii	"\356[\357S\233\246\332.{.\245O78N\227\216\264W\342n"
 152      9BA6DA2E 
 152      7B2EA54F 
 152      37384E97 
 152      8EB457E2 
 153 0499 2957207C 		.ascii	")W |\234\246N\230BY\017\304S{\252\233x\222\342OU8v\016"
 153      9CA64E98 
 153      42590FC4 
 153      537BAA9B 
 153      7892E24F 
 154 04b1 189A354D 		.ascii	"\030\2325M\367\365F\2335\235\024\247\331pH\356\243 "
 154      F7F5469B 
 154      359D14A7 
 154      D97048EE 
ARM GAS  /tmp/ccIxHdDp.s 			page 12


 154      A320
 155 04c3 C884434A 		.ascii	"\310\204CJ\036\003!\261z\017\373%O\255\347\332\377\324"
 155      1E0321B1 
 155      7A0FFB25 
 155      4FADE7DA 
 155      FFD4
 156 04d5 75E088DA 		.ascii	"u\340\210\332\345f\262oKH\373\016\321<\322\210\371\331"
 156      E566B26F 
 156      4B48FB0E 
 156      D13CD288 
 156      F9D9
 157 04e7 1306AD93 		.ascii	"\023\006\255\223O\367\326\333\307\314!:v\244\0119\252"
 157      4FF7D6DB 
 157      C7CC213A 
 157      76A40939 
 157      AA
 158 04f8 06C3CC8E 		.ascii	"\006\303\314\216=K\376f\200pH\307\306_\323\242\032Z"
 158      3D4BFE66 
 158      807048C7 
 158      C65FD3A2 
 158      1A5A
 159 050a 5333D49A 		.ascii	"S3\324\232:Kk\352\020!Y#\001\212\237\330\273H+\317\324"
 159      3A4B6BEA 
 159      10215923 
 159      018A9FD8 
 159      BB482BCF 
 160 051f 15A7646E 		.ascii	"\025\247dn\013\315\257\005\021\355\264\216\325\337\373"
 160      0BCDAF05 
 160      11EDB48E 
 160      D5DFFB
 161 052e AB5F8A15 		.ascii	"\253_\212\025,O\016\207\245&\027,\265rI\367\014&\355"
 161      2C4F0E87 
 161      A526172C 
 161      B57249F7 
 161      0C26ED
 162 0541 69CC227B 		.ascii	"i\314\"{#\037pu\243`\"W\206%\222\351\"k\"\246Jd\226"
 162      231F7075 
 162      A3602257 
 162      862592E9 
 162      226B22A6 
 163 0558 F47275F0 		.ascii	"\364ru\360\256\030\311O\216T\010OY\315\200\356\377\223"
 163      AE18C94F 
 163      8E54084F 
 163      59CD80EE 
 163      FF93
 164 056a EBDDB27C 		.ascii	"\353\335\262|zo\256\320*AT\241C~[\330q\234\215v6E\210"
 164      7A6FAED0 
 164      2A4154A1 
 164      437E5BD8 
 164      719C8D76 
 165 0581 8DC14DA4 		.ascii	"\215\301M\244\177\347oI{\215\316\376\377\010\035\315"
 165      7FE76F49 
 165      7B8DCEFE 
 165      FF081DCD 
 166 0591 393323D7 		.ascii	"93#\327\314f\353\224\302\340M6\352\300\276:\273Q\217"
 166      CC66EB94 
 166      C2E04D36 
ARM GAS  /tmp/ccIxHdDp.s 			page 13


 166      EAC0BE3A 
 166      BB518F
 167 05a4 A8463DAA 		.ascii	"\250F=\252\033uN\226F\355\247\374\347\202pX\243JQ\035"
 167      1B754E96 
 167      46EDA7FC 
 167      E7827058 
 167      A34A511D 
 168 05b8 6D247355 		.ascii	"m$sU\243\366\023jG\010\265:\331)\367\377H\332~\352\377"
 168      A3F6136A 
 168      4708B53A 
 168      D929F7FF 
 168      48DA7EEA 
 169 05cd 3F0EFD39 		.ascii	"?\016\3759q\250\313\205C\275:\255~\333\367\224N\244"
 169      71A8CB85 
 169      43BD3AAD 
 169      7EDBF794 
 169      4EA4
 170 05df 41A5471B 		.ascii	"A\245G\033\215d\315\243=\274\301\336\215%w>\355\331"
 170      8D64CDA3 
 170      3DBCC1DE 
 170      8D25773E 
 170      EDD9
 171 05f1 F3ECED47 		.ascii	"\363\354\355Gr\027\200 s\373\221\222\205 L\257\263\376"
 171      72178020 
 171      73FB9192 
 171      85204CAF 
 171      B3FE
 172 0603 9CEB2C6B 		.ascii	"\234\353,k\322z\235-\224^z\356\335\025#M>g\023\324\351"
 172      D27A9D2D 
 172      945E7AEE 
 172      DD15234D 
 172      3E6713D4 
 173 0618 2628C033 		.ascii	"&(\3003@\336\350t_\233\024\343\302\325\007}bH\243\205"
 173      40DEE874 
 173      5F9B14E3 
 173      C2D5077D 
 173      6248A385 
 174 062c 75AE0576 		.ascii	"u\256\005v\014\323\031\303Ro\227\212\341\227~\356g\361"
 174      0CD319C3 
 174      526F978A 
 174      E1977EEE 
 174      67F1
 175 063e E3CDC78F 		.ascii	"\343\315\307\217[\371\341x{\353\352\036tg\273\300\011"
 175      5BF9E178 
 175      7BEBEA1E 
 175      7467BBC0 
 175      09
 176 064f A5A42F70 		.ascii	"\245\244/p\320\2047\307\352\005\266Hy\026\362\006{\215"
 176      D08437C7 
 176      EA05B648 
 176      7916F206 
 176      7B8D
 177 0661 99B06A03 		.ascii	"\231\260j\003\327\357\265Aw\205\366\334}\036^aB\241"
 177      D7EFB541 
 177      7785F6DC 
 177      7D1E5E61 
 177      42A1
ARM GAS  /tmp/ccIxHdDp.s 			page 14


 178 0673 90DD3BC7 		.ascii	"\220\335;\307\014\324(\006\236\373\347v\240\036\222"
 178      0CD42806 
 178      9EFBE776 
 178      A01E92
 179 0682 9432F8F1 		.ascii	"\2242\370\361\3165@\362.g\250\373\313\251>n\237\232"
 179      CE3540F2 
 179      2E67A8FB 
 179      CBA93E6E 
 179      9F9A
 180 0694 595B3847 		.ascii	"Y[8G\011\350l\276\323Qk;H\253\252\\\215\026^\\\010w"
 180      09E86CBE 
 180      D3516B3B 
 180      48ABAA5C 
 180      8D165E5C 
 181 06aa EC88EBFA 		.ascii	"\354\210\353\372\017\2430\225\010;m\030\200\304\215"
 181      0FA33095 
 181      083B6D18 
 181      80C48D
 182 06b9 4DD17C90 		.ascii	"M\321|\220\200\004\337\373\321Np1\245V\230\375\352\352"
 182      8004DFFB 
 182      D14E7031 
 182      A55698FD 
 182      EAEA
 183 06cb 71A664DF 		.ascii	"q\246d\337\004\026\243J!s<\313\341\326s\320\220{\306"
 183      0416A34A 
 183      21733CCB 
 183      E1D673D0 
 183      907BC6
 184 06de A9F7E768 		.ascii	"\251\367\347h\305%j\2070\207]\276\236\005\241}\251\277"
 184      C5256A87 
 184      30875DBE 
 184      9E05A17D 
 184      A9BF
 185 06f0 CC5E4F94 		.ascii	"\314^O\224kI#\370gRC\250\353p\024/\311\303.\213\215"
 185      6B4923F8 
 185      675243A8 
 185      EB70142F 
 185      C9C32E8B 
 186 0705 32ADE4F1 		.ascii	"2\255\344\361\267\002\266m\006V\230X1\373\300\240mz"
 186      B702B66D 
 186      06569858 
 186      31FBC0A0 
 186      6D7A
 187 0717 77EF902B 		.ascii	"w\357\220+\364\323l!\350*\033uM\26577l\317\235\373\277"
 187      F4D36C21 
 187      E82A1B75 
 187      4DB53737 
 187      6CCF9DFB 
 188 072c 1EB13D65 		.ascii	"\036\261=e@}\307\315\336\242\350\253'\213\257\314%\363"
 188      407DC7CD 
 188      DEA2E8AB 
 188      278BAFCC 
 188      25F3
 189 073e AFBE1CCB 		.ascii	"\257\276\034\313FN\251\004\177l\365\261\016\017r-\331"
 189      464EA904 
 189      7F6CF5B1 
 189      0E0F722D 
ARM GAS  /tmp/ccIxHdDp.s 			page 15


 189      D9
 190 074f 14163475 		.ascii	"\024\0264u\3016h\317\306\342\256\355TC\020\024]\337"
 190      C13668CF 
 190      C6E2AEED 
 190      54431014 
 190      5DDF
 191 0761 1E549FF8 		.ascii	"\036T\237\3703c\031\244\263\313\302v\230TUU-\377\326"
 191      336319A4 
 191      B3CBC276 
 191      98545555 
 191      2DFFD6
 192 0774 ACAD6E5E 		.ascii	"\254\255n^\323\332\272\346e\370z)\272\262z\355\253\315"
 192      D3DABAE6 
 192      65F87A29 
 192      BAB27AED 
 192      ABCD
 193 0786 D5CDAB57 		.ascii	"\325\315\253W\277\330\324V\325\314\314\325mU5V\023\320"
 193      BFD8D456 
 193      D5CCCCD5 
 193      6D553556 
 193      13D0
 194 0798 99446BCD 		.ascii	"\231Dk\315UmU\217\213W\332\014\030YmM-/\256\025\253"
 194      556D558F 
 194      8B57DA0C 
 194      18596D4D 
 194      2D2FAE15 
 195 07ad DAC4EA36 		.ascii	"\332\304\3526\327J\032\374\0030\366\"\347"
 195      D74A1AFC 
 195      0330F622 
 195      E7
 196              		.text
 197              		.section	.gnu.lto_chHeapFree.a31291a067be2645,"",%progbits
 198 0000 789C9D55 		.ascii	"x\234\235U]L\034U\024>\347\316\314\316\257t\223\226"
 198      5D4C1C55 
 198      143EE7CE 
 198      CCCEAF74 
 198      9396
 199 0012 C2125216 		.ascii	"\302\022R\026Jh\2266l\2146>\031\237}/\211>\302j`S\021"
 199      4A689636 
 199      6C8C363E 
 199      199F7D2F 
 199      893EC26A 
 200 0029 6ADFE4A1 		.ascii	"j\337\344\241\303.&\304\306\204HT\0245\020\323\232\370"
 200      C32E26C4 
 200      C6844854 
 200      143510D3 
 200      9AF8
 201 003b 6234A66D 		.ascii	"b4\246mB\322.\304\207Bl\253\345\205R\215\024\243\215"
 201      42D22EC4 
 201      87426CAB 
 201      E585528D 
 201      14A38D
 202 004e AF6A946C 		.ascii	"\257j\224l\032\307s\177fvv\235\322\205\311\356\271?"
 202      1AC7737F 
 202      6676769D 
 202      D285C9EE 
 202      B93F
ARM GAS  /tmp/ccIxHdDp.s 			page 16


 203 0060 E7DEEF9C 		.ascii	"\347\336\357\234\373\335\357\336\313\200A\343\267H\377"
 203      FBDDEFDE 
 203      CB8041E3 
 203      B748FF
 204 006f 4907E059 		.ascii	"I\007\340Y*\361)@6{\033`\312b\250\311\212\306\214\037"
 204      2AF12940 
 204      367B1B60 
 204      CA62A8C9 
 204      8AC68C1F 
 205 0083 5DF01DFD 		.ascii	"]\360\035\375\233U\000\337\323\2311s\202\232.\267\236"
 205      9B5500DF 
 205      D3993173 
 205      829A2EB7 
 205      9E
 206 0094 C1CC558D 		.ascii	"\301\314U\215Z\251\333\353\334\231RMW6Mf\211\251\266"
 206      5AA9DBEB 
 206      DC99524D 
 206      57364D66 
 206      89A9B6
 207 00a7 9C6AA12D 		.ascii	"\234j\241-!m\346\210~O\366;\350\311~W\306\\\261<D^\001"
 207      216DE688 
 207      7E4FF63B 
 207      E8C97E57 
 207      C65CB13C 
 208 00be 840B4CD3 		.ascii	"\204\013L\323\215\224i\331\216\353\341\205\227\221g"
 208      8D9469D9 
 208      8EEBE185 
 208      979167
 209 00cd ACF5C092 		.ascii	"\254\365\300\222\357\277\273\375\326\327w\331\207~e"
 209      EFBFBBFD 
 209      D6D777D9 
 209      877E65
 210 00dc 7AD17F14 		.ascii	"z\321\177\024\004\210E\244\325\345\020\012\010/Q\003"
 210      048845A4 
 210      D5E5100A 
 210      082F5103 
 211 00ec B3A2607A 		.ascii	"\263\242`z\375r\345\\\377\347Wn\372\323\225 xA\314:"
 211      FD72E55C 
 211      FFE7576E 
 211      FAD39520 
 211      7841CC3A 
 212 0100 D5DCACCA 		.ascii	"\325\334\254\312\334\334{\031\177\2614\353\377K\001"
 212      DCDC7B19 
 212      7FB134EB 
 212      FF4B01
 213 010f 8BA831C8 		.ascii	"\213\2501\310?i\346\227\254\262\035\004\217>\370\375"
 213      3F69E697 
 213      ACB21D04 
 213      8F3EF8FD 
 214 011f C1A7D8DA 		.ascii	"\301\247\330\332\2170\204K\330\003:\216!\030\324\370"
 214      8F30844B 
 214      D8033A8E 
 214      2118D4F8 
 215 012f 8C1A2695 		.ascii	"\214\032&\225\227\250\264\224\323\206\"\352\0167.7\036"
 215      97A8B494 
 215      D38622EA 
 215      0E372E37 
ARM GAS  /tmp/ccIxHdDp.s 			page 17


 215      1E
 216 0140 372D648C 		.ascii	"7-d\2144\0318\314\233G\310\260Vn\216\362\2766n\332\271"
 216      341938CC 
 216      9B47C8B0 
 216      566E8EF2 
 216      BE366EDA 
 217 0155 23C34D07 		.ascii	"#\303M\0077\235\274\357\030\257u\361qYn\272y_\017\357"
 217      379DBCEF 
 217      18AF75F1 
 217      71596EBA 
 217      795F0FEF 
 218 0169 3BCE4D2F 		.ascii	";\316M/7}\274/\247B\323g\300\264\357\317fe[&(\323\033"
 218      377DBC2F 
 218      A742D367 
 218      C0B4EFCF 
 218      66655B26 
 219 0180 4362BF20 		.ascii	"Cb\277 v\340\014\331\252\006\203\310\250\320nA\371b"
 219      76E00CD9 
 219      AA0683C8 
 219      A8D06E41 
 219      F962
 220 0192 79F9726A 		.ascii	"y\371rj\010?G\003F\320\030A]P\261\033\004\301!\032\276"
 220      083F4703 
 220      46D01841 
 220      5D50B11B 
 220      04C1211A 
 221 01a7 064CFA24 		.ascii	"\006L\372$\034\215\000\270\005\245\255\371+\353\030"
 221      1C8D00B8 
 221      05A5ADF9 
 221      2BEB18
 222 01b6 4E324FC2 		.ascii	"N2O\302\027>}\317\021\255'\241\277\210\251\005\370\210"
 222      173E7DCF 
 222      11AD27A1 
 222      BF88A905 
 222      F888
 223 01c8 404C0506 		.ascii	"@L\005\006!\030\014\243dv\030U\205\360K\225L\030\341"
 223      21180CA3 
 223      64761855 
 223      85F04B95 
 223      4C18E1
 224 01db 9288608A 		.ascii	"\222\210`\212\010\325\362\303ZZ\326$Ty\204\247\011L"
 224      08D5F2C3 
 224      5A5AD624 
 224      547984A7 
 224      094C
 225 01ed 057B9EF0 		.ascii	"\005{\236\360e\030\213\246\3600\232\202\216\235\023"
 225      65188BA6 
 225      F0309A82 
 225      8E9D13
 226 01fc 8E9E0AD1 		.ascii	"\216\236\012\321\227\004\272\245\362\277\272\316Bt["
 226      9704BAA5 
 226      F2BFBACE 
 226      42745B
 227 020b 246D379B 		.ascii	"$m7\233\272\246\300\211\273\031-\304p\010\206O\260M"
 227      BAA6C089 
 227      BB192DC4 
 227      7008864F 
ARM GAS  /tmp/ccIxHdDp.s 			page 18


 227      B04D
 228 021d E9598E3C 		.ascii	"\351Y\216<.9\205'\204\"\357;\345\177.\237\015\007x4"
 228      2E398527 
 228      8422EF3B 
 228      E57F2E9F 
 228      0D077834 
 229 0231 460CB084 		.ascii	"F\014\260\204\263\2646\177\265\252\270Uk5\303\354\234"
 229      B3B4367F 
 229      B5AAB855 
 229      6B35C3EC 
 229      9C
 230 0242 C767A7AB 		.ascii	"\307g\247\253\354\014Q\022\252bq\351D\030\247e\022\336"
 230      EC0C5112 
 230      AA6271E9 
 230      4418A765 
 230      12DE
 231 0254 24250A20 		.ascii	"$%\012 7\231\272T\215\272;\240\313\211t\305\020\371"
 231      3799BA54 
 231      8DBA3BA0 
 231      CB8974C5 
 231      10F9
 232 0266 337EBA88 		.ascii	"3~\272\210^A\355\033\201\025\351\302\021\337 \315\246"
 232      5E41ED1B 
 232      8115E9C2 
 232      11DF20CD 
 232      A6
 233 0277 13AF11D7 		.ascii	"\023\257\021\327\264\200\220f\032w\023\276}\270r\177"
 233      B4809066 
 233      1A7713BE 
 233      7DB8727F 
 234 0287 CE0BE3A3 		.ascii	"\316\013\343\243 _~\367\200Z9\367\257\257x'\373x!\303"
 234      205F7EF7 
 234      805A39F7 
 234      AFAF7827 
 234      FB7821C3 
 235 029b 7174A04B 		.ascii	"qt\240KE\243i\277\255\334\337\350\215I\022ki\015R\337"
 235      45A369BF 
 235      ADDCDFE8 
 235      8D49126B 
 235      690D52DF 
 236 02af DFA734BE 		.ascii	"\337\2474\276\205\233\313[\221\004\323bU\320@\022\012"
 236      859BCB5B 
 236      9104D362 
 236      55D04012 
 236      0A
 237 02c0 92A09E20 		.ascii	"\222\240\236 S!\311\3646\362\021Dmp\024+\005\177\366"
 237      5321C9F4 
 237      36F21144 
 237      6D70142B 
 237      057FF6
 238 02d3 F3847E5D 		.ascii	"\363\204~]\371i\243+\226P:>\310\224\007\211\366\355"
 238      F969A32B 
 238      96503A3E 
 238      C8940789 
 238      F6ED
 239 02e5 FA5D56B7 		.ascii	"\372]V\267o\207\376\237\322c\367\315T\304\246\245\006"
 239      6F87FE9F 
ARM GAS  /tmp/ccIxHdDp.s 			page 19


 239      D263F7CD 
 239      54C4A6A5 
 239      06
 240 02f6 AE3581B5 		.ascii	"\2565\201\265\307\362\242s\272{\275F\322\341\230\316"
 240      C7F2A273 
 240      BA7BBD46 
 240      D2E198CE 
 241 0306 9B565283 		.ascii	"\233VR\203\316\217\020\214\270 Pz\336\216<\255\344\024"
 241      CE8F108C 
 241      B820507A 
 241      DE8E3CAD 
 241      E414
 242 0318 1E29E3F2 		.ascii	"\036)\343\362\305\310sTp\326*\023\372\276%\354nK\334"
 242      C5C87354 
 242      70D62A13 
 242      FABE25EC 
 242      6E4BDC
 243 032b B3271024 		.ascii	"\263'\020$\367m\352t\014\273-\276\031\026|\007B\035"
 243      F76DEA74 
 243      0CBB2DBE 
 243      19167C07 
 243      421D
 244 033d D76EAC46 		.ascii	"\327n\254F\011\264'.\274-\211\276\370\242\313W\"\352"
 244      09B4272E 
 244      BC2D89BE 
 244      F8A2CB57 
 244      22EA
 245 034f 32B46CC2 		.ascii	"2\264l\302i \243\203\034\342\344J2J/\306w,-\"\252\332"
 245      6920A383 
 245      1CE2E44A 
 245      324A2FC6 
 245      772C2D22 
 246 0365 3E0E6E87 		.ascii	">\016n\207\344i\363\306\037\321\005\325\231\310Tb\376"
 246      E469F3C6 
 246      1FD105D5 
 246      99C85462 
 246      FE
 247 0376 66947F69 		.ascii	"f\224\177im\326\255S\3203\007Pcg\310\253\255D\2765\277"
 247      6DD6AD53 
 247      D0330750 
 247      6367C8AB 
 247      AD44BE35 
 248 038b B313B172 		.ascii	"\263\023\261r,\221\327DY&\212\251\213 \222\305\224%"
 248      2C91D744 
 248      59268AA9 
 248      8B2092C5 
 248      9425
 249 039d 67B298BA 		.ascii	"g\262\230\272\305E\222m\324A\367H\024B\344\353\204:"
 249      C545926D 
 249      D441F748 
 249      1442E4EB 
 249      843A
 250 03af D8DCA9E9 		.ascii	"\330\334\251\351\240\347\340\007 \246\205\343\224\365"
 250      A0E7E007 
 250      20A685E3 
 250      94F5
 251 03bd 087F70EB 		.ascii	"\010\177p\353\326\322K\216\375ja\017\246\010P\035\340"
ARM GAS  /tmp/ccIxHdDp.s 			page 20


 251      D6D24B8E 
 251      FD6A610F 
 251      A608501D 
 251      E0
 252 03ce 9D9A0EFA 		.ascii	"\235\232\016\372\016vb\232\323\302\236\267I_\310\253"
 252      0E76629A 
 252      D3C29EB7 
 252      495FC8AB 
 253 03de 0BEFAF4B 		.ascii	"\013\357\257Kbw\177Y\215(\311)\330\323\373\274\203\371"
 253      62777F59 
 253      8D28C929 
 253      D8D3FBBC 
 253      83F9
 254 03f0 FBDC5EFF 		.ascii	"\373\334^\377>\347\302H\036W\334\035\230\336^8\233\364"
 254      3EE7C248 
 254      1E57DC1D 
 254      98DE5E38 
 254      9BF4
 255 0402 10319599 		.ascii	"\0201\225\231|\210~\200\251\305O\334p\234\374\316\320"
 255      7C887E80 
 255      A9C54FDC 
 255      709CFCCE 
 255      D0
 256 0413 BB51D5F8 		.ascii	"\273Q\325\370\270\276\201\201\274\374\215\237\317\027"
 256      B8BE8181 
 256      BCFC8D9F 
 256      CF17
 257 0421 C6C7C6C6 		.ascii	"\306\307\306\306_\247\332k\305\341\374\3717\012\371"
 257      5FA7DA6B 
 257      C5E1FCF9 
 257      370AF9
 258 0430 C2E8E8AB 		.ascii	"\302\350\350\253C\023\003\005`\347&\330\350\204\301"
 258      43130305 
 258      60E726D8 
 258      E884C1
 259 043f 5B13FF01 		.ascii	"[\023\377\001CLOp"
 259      434C4F70 
 260              		.text
 261              		.section	.gnu.lto_chHeapStatus.a31291a067be2645,"",%progbits
 262 0000 789C8D54 		.ascii	"x\234\215T\335kTG\024?g\346~\355\375\330M\224\004\002"
 262      DD6B5447 
 262      143F67E6 
 262      7EEDFDD8 
 262      4D940402 
 263 0014 3E88054B 		.ascii	">\210\005KU6\224\"\024l)\375\037\014\324\307u\225\365"
 263      55369422 
 263      146C29FD 
 263      1F0CD4C7 
 263      7595F5
 264 0027 826BA2E9 		.ascii	"\202k\242\351K\365\301IvK\203n!\264\017\251\326\207"
 264      4BF5C149 
 264      764B836E 
 264      21B40FA9 
 264      D687
 265 0039 C856826D 		.ascii	"\310V\202m1\245\015(\304\320\215\024\033\261U\024\304"
 265      31A50D28 
 265      C4D08D14 
ARM GAS  /tmp/ccIxHdDp.s 			page 21


 265      1BB15514 
 265      C4
 266 004a 6EEAC3E2 		.ascii	"n\352\303\342\203-\030j\021T\020\353\366\314\314\235"
 266      832D186A 
 266      115410EB 
 266      F6CCCC9D 
 267 005a FD080B7A 		.ascii	"\375\010\013z\331\275g\3569\277\337\371\230sf\0300X"
 267      D9BD67EE 
 267      39BFDFF9 
 267      98736618 
 267      3058
 268 006c FF7C437F 		.ascii	"\377|C\177\333\005\370\220$\246\001\331\364\015\200"
 268      DB05F890 
 268      24A601D9 
 268      F40D80
 269 007b 098F317E 		.ascii	"\011\2171~/\000\341[\013W\000D\310\321\322z\013=\275"
 269      2F00E15B 
 269      0B570044 
 269      C8D1D27A 
 269      0B3DBD
 270 008e B09933F5 		.ascii	"\260\2313\365&\001\\\371\016\035t\265\332\325\366e\317"
 270      26015CF9 
 270      0E1D74B5 
 270      DAD5F665 
 270      CF
 271 009f 6376E557 		.ascii	"cv\345W\242\372\251\262K\200\024\363\225'?\220nC\037"
 271      A2FAA9B2 
 271      4B8014F3 
 271      95273F90 
 271      6E431F
 272 00b2 038D0F58 		.ascii	"\003\215\017Xx\372\252\324GO%,\304H\353#D\271\000\204"
 272      78FAAAD4 
 272      474F252C 
 272      C448EB23 
 272      44B90084 
 273 00c6 E38C5BB6 		.ascii	"\343\214[\266\343z)?\010#<\276\007e\326\326\0268+\304"
 273      E37A293F 
 273      08233CBE 
 273      0765D6D6 
 273      16382BC4 
 274 00da 178D4F1F 		.ascii	"\027\215O\037\337f\247D\255<+^4\233\2101R\205o!\344"
 274      DF66A744 
 274      AD3C2B5E 
 274      349B8831 
 274      52856F21 
 275 00ef 113EA20F 		.ascii	"\021>\242\017\334\254\004\263\272K\326\334\332\2273"
 275      DCAC04B3 
 275      BA4BD6DC 
 275      DA9733
 276 00fe 9F0F89D9 		.ascii	"\237\017\211\331\311i\361\222\2501r\006;^\217)\026\367"
 276      C969F192 
 276      A8317206 
 276      3B5E8F29 
 276      16F7
 277 0110 AD8872AD 		.ascii	"\255\210r\255\331\374@\261\262\257\311\372\263\213\265"
 277      D9FC40B1 
 277      B2AFC9FA 
ARM GAS  /tmp/ccIxHdDp.s 			page 22


 277      B38BB5
 278 011f F355AC79 		.ascii	"\363U\254yVk4\233/.>\251\334\303\277\331\020BQ\026\227"
 278      566B349B 
 278      2F2E3EA9 
 278      DCC3BFD9 
 278      10425116 
 279 0134 C3B3B805 		.ascii	"\303\263\270\0058\311*I\213\3449\2226\3119\222N\"SH"
 279      38C92A49 
 279      8BE43992 
 279      36C93992 
 279      4E225348 
 280 0148 601F62B4 		.ascii	"`\037b\264\242\204\221\246\017\310$\346\276\204\336"
 280      A28491A6 
 280      0FC824E6 
 280      BE84DE
 281 0157 9FD03710 		.ascii	"\237\3207\020\0347\022\302\036\240\025\033\224+9\026"
 281      1C3712C2 
 281      1EA0151B 
 281      942B3916 
 282 0167 5016627A 		.ascii	"P\026bz\263v\240\031\032\257\275\200,\200\236\335\364"
 282      B376A019 
 282      1AAFBD80 
 282      2C809EDD 
 282      F4
 283 0178 A61E8F20 		.ascii	"\246\036\217 #\301W\340\227\277\226gfx\016\317\223\223"
 283      23C157E0 
 283      97BF9667 
 283      66780ECF 
 283      9393
 284 018a 02A6646D 		.ascii	"\002\246dmNga#\310\3413\344\327`\262\361\333CG\343("
 284      4E676123 
 284      C8E133E4 
 284      D760B2F1 
 284      DB4347E3 
 285 019f DD63F05C 		.ascii	"\335c\360\\L\011\261\213\320EB\264\321\226tKh\017$\254"
 285      4C09B18B 
 285      D04542B4 
 285      D196744B 
 285      680F24AC 
 286 01b3 8014EE77 		.ascii	"\200\024\356w\230|^\372\371B+\210\177\014\216R\261\333"
 286      987C5EFA 
 286      F9422B88 
 286      7F0C8E52 
 286      B1DB
 287 01c5 615B8CEE 		.ascii	"a[\214\356\327p\232Bz\004l\207\336\213\035\011\334\004"
 287      D7709A42 
 287      7A046C87 
 287      DE8B1D09 
 287      DC04
 288 01d7 4B132109 		.ascii	"K\023!\011\332\027c*\217\032B\316b\364\001dz\177\\O"
 288      DA17632A 
 288      8F1A42CE 
 288      62F40164 
 288      7A7F5C4F 
 289 01eb D2D3654B 		.ascii	"\322\323eKw\222$m\263\365\300\230\346\326\231\032\253"
 289      7792246D 
 289      B3F5C098 
ARM GAS  /tmp/ccIxHdDp.s 			page 23


 289      E6D6991A 
 289      AB
 290 01fc DFA1B155 		.ascii	"\337\241\261U;m*\353G\027\034\223u$\243\323\3636\265"
 290      3B6D2AEB 
 290      47171C93 
 290      7524A3D3 
 290      F336B5
 291 020f 663B7C2B 		.ascii	"f;|+\227\357\307\030\364\316\277\243\000\212Qk%&{C\256"
 291      97EFC718 
 291      F4CEBFA3 
 291      008A516B 
 291      25267B43 
 292 0224 A4BE0E48 		.ascii	"\244\276\016H\373\315P\027U;u7\335\332K~\211\313\255"
 292      FBCD5017 
 292      553B7537 
 292      DDDA4B7E 
 292      89CBAD
 293 0237 B481CE24 		.ascii	"\264\201\316$\247<V/=\273\217I\177\223\361\374Q\210"
 293      A73C562F 
 293      3DBB8F49 
 293      7F93F1FC 
 293      5188
 294 0249 943A465C 		.ascii	"\224:F\\\315\347{\257\232O\000\263\211\024?\223\344"
 294      CDE77BAF 
 294      9A4F00B3 
 294      89143F93 
 294      E4
 295 025a BF87B8AA 		.ascii	"\277\207\270\252\013\241\256\"(`Z\222!\251\202%\222"
 295      0BA1AE22 
 295      28605A92 
 295      21A98225 
 295      92
 296 026b 7794B229 		.ascii	"w\224\262)\207?\251R\026T)\031\271Q\245\251Ru\336\321"
 296      873FA952 
 296      16542919 
 296      B951A5A9 
 296      5275DED1 
 297 027f 8602F615 		.ascii	"\206\002\366\025\220K/\034\025\205\031BU\021\372\022"
 297      904B2F1C 
 297      15851942 
 297      5511FA12 
 298 028f C2DCFC26 		.ascii	"\302\334\374&C\350/\240\245<u\200\317)p?\000M\350\203"
 298      43E82FA0 
 298      A53C7580 
 298      CF29703F 
 298      004DE883 
 299 02a3 E53B33A1 		.ascii	"\345;3\241\001g\012\235\3639B\037W\337P\323\371\360"
 299      01670A9D 
 299      F339421F 
 299      57DF50D3 
 299      F9F0
 300 02b5 BA6BC873 		.ascii	"\272k\310s&5\015q\325>\352\2314F[7\377\237\223\216!"
 300      26350D71 
 300      D53EEA99 
 300      34465B37 
 300      FF9F938E 
 301 02ca E9D6A475 		.ascii	"\351\326\244ukl\212bS\1772\316\345\245O\244\017\017"
ARM GAS  /tmp/ccIxHdDp.s 			page 24


 301      6B6C8A62 
 301      537F32CE 
 301      E5A54FA4 
 301      0F0F
 302 02dc E8825BE7 		.ascii	"\350\202[\347\303Q>\224B\247k\265\025\272X\336Vh\367"
 302      C3513E94 
 302      42A76BB5 
 302      15BA58DE 
 302      5668F7
 303 02ef 4CCDD5EA 		.ascii	"L\315\325\352W\317n\243\231\253\264\352\000\254\353"
 303      57CF6EA3 
 303      99ABB4EA 
 303      00ACEB
 304 02fe 03EBD507 		.ascii	"\003\353\325\007\323\323\025(\257M\274\323r\320\206"
 304      D3D31528 
 304      AF4DBCD3 
 304      72D086
 305 030d 82CE9ED1 		.ascii	"\202\316\236\321\210Y\227\027\207\310\346\256-\345\352"
 305      88599717 
 305      87C8E6AE 
 305      2DE5EA
 306 031c C093A9B6 		.ascii	"\300\223\251\266\276_\034\240\026\270\225\245\241:X"
 306      BE5F1CA0 
 306      16B895A5 
 306      A13A58
 307 032b 4659598C 		.ascii	"FYY\214i\253\3353K\207\353\340\030\345\031\251\264]"
 307      69ABDD33 
 307      4B87EBE0 
 307      18E519A9 
 307      B45D
 308 033d 94C5A7F4 		.ascii	"\224\305\247\364UQ^[~\322\276*6Hd\324}U\370\360\237"
 308      55515E5B 
 308      7ED2BE2A 
 308      364864D4 
 308      7D55F8F0 
 309 0352 4D035B3A 		.ascii	"M\003[:Qz4\2375\300\215\2641j\036<}\252\256\375\340"
 309      517A349F 
 309      35C08DB4 
 309      316A1E3C 
 309      7DAAAEFD 
 310 0367 6A13153B 		.ascii	"j\023\025;AS\030\220\251\313\035Q\214\303\240\025\271"
 310      41531890 
 310      A9CB1D51 
 310      8CC3A015 
 310      B9
 311 0378 D98E3CD0 		.ascii	"\331\216<\320#r\010\347\035\035\271\272\360\256\001"
 311      237208E7 
 311      1D1DB9BA 
 311      F0AE01
 312 0387 0E528FBA 		.ascii	"\016R\217\272\"\377\333+\362@g\344A\3430\222\221oB\271"
 312      22FFDB2B 
 312      F24067E4 
 312      41E33092 
 312      916F42B9 
 313 039b 71A2D8EB 		.ascii	"q\242\330\353\372a]\327\317-\230\230\255D&lr\\v\323"
 313      FA615DD7 
 313      CF2D9898 
ARM GAS  /tmp/ccIxHdDp.s 			page 25


 313      AD44266C 
 313      725C76D3 
 314 03af 2D507625 		.ascii	"-Pv%pk6;\254\177\243\343\303\371\321bq\364\020\255\016"
 314      706B363B 
 314      AC7FA3E3 
 314      C3F9D162 
 314      71F410AD 
 315 03c4 C67B87C7 		.ascii	"\306{\207\307\217\344\207\363\007\016\354\317\215e\363"
 315      8FE487F3 
 315      070EECCF 
 315      8D65F3
 316 03d3 C00E8FE1 		.ascii	"\300\016\217\341!\347\343\261\\a\377\270sP\011[\275"
 316      21E7E3B1 
 316      5C61FFB8 
 316      7350095B 
 316      BD
 317 03e4 FF07DFDB 		.ascii	"\377\007\337\333\251\313"
 317      A9CB
 318              		.text
 319              		.section	.gnu.lto_.symbol_nodes.a31291a067be2645,"",%progbits
 320 0000 789C4D8C 		.ascii	"x\234M\214;\016\302@\020C\355\235\335|N\221kq\233\001"
 320      3B0EC240 
 320      1043ED9D 
 320      DD7C4E91 
 320      6B719B01 
 321 0014 45024A44 		.ascii	"E\002JDCG\223\206\202#\360\217\240\244\246A\012J\001"
 321      43479386 
 321      8223F08F 
 321      A0A4A641 
 321      0A4A01
 322 0027 8274F488 		.ascii	"\202t\364\210\005\"\222i\236\236\307\262\201\301\031"
 322      05229269 
 322      9E9EC7B2 
 322      81C119
 323 0036 F5992515 		.ascii	"\365\231%\025\030\035\001\325\351\220nAX\025\356\250"
 323      181D01D5 
 323      E9906E41 
 323      5815EEA8 
 324 0046 FCA5DD1E 		.ascii	"\374\245\335\036\315\212j\232\216YS\245\245\033\252"
 324      CD8A6A9A 
 324      8E5953A5 
 324      A51BAA
 325 0055 6DE996EA 		.ascii	"m\351\226\352\032eN\015\352\245.y\240\206\215\355\251"
 325      1A654E0D 
 325      EAA52E79 
 325      A0868DED 
 325      A9
 326 0066 D1DF0421 		.ascii	"\321\337\004!\312\342E\221\020Y\277J\304\306(\277\214"
 326      CAE24591 
 326      1059BF4A 
 326      C4C628BF 
 326      8C
 327 0077 905D4F9D 		.ascii	"\220]O\235\017\363{1\027k\361|\334f\".F:\360\005\347"
 327      0FF37B31 
 327      176BF17C 
 327      DC66222E 
 327      463AF005 
ARM GAS  /tmp/ccIxHdDp.s 			page 26


 328 008c 1F13CFC0 		.ascii	"\037\023\317\300\373\305\017\004\021\322q\225\340\015"
 328      FBC50F04 
 328      11D27195 
 328      E00D
 329 009a A76B450E 		.ascii	"\247kE\016"
 330              		.text
 331              		.section	.gnu.lto_.refs.a31291a067be2645,"",%progbits
 332 0000 789C6362 		.ascii	"x\234cb`b\020e\200\000V\006FF&&F \000\022,@\314\306"
 332      60621065 
 332      80005606 
 332      46462626 
 332      46200012 
 333 0018 C4C80000 		.ascii	"\304\310\000\000\004\212\000>"
 333      048A003E 
 334              		.text
 335              		.section	.gnu.lto_.decls.a31291a067be2645,"",%progbits
 336 0000 789CBD5A 		.ascii	"x\234\275Z\015p\024E\026\356\236\331\335\354&\021\021"
 336      0D701445 
 336      16EE9ED9 
 336      DDEC2611 
 336      11
 337 0011 4A0BEFA0 		.ascii	"J\013\357\240\210\226Z\236'\004\025\025\257\352D\213"
 337      88965A9E 
 337      27041515 
 337      AFEA448B 
 338 0021 AB13ABCE 		.ascii	"\253\023\253\316\363\352\256\254\323*\255u\330L\222"
 338      F3EAAEAC 
 338      D32AAD75 
 338      D84C92
 339 0030 9564776F 		.ascii	"\225dwowB\000\253\216a\201\020\002\232@\010?'`\202\020"
 339      774200AB 
 339      8E618110 
 339      029A4008 
 339      3F276082 
 340 0045 C5BAC8AF 		.ascii	"\305\272\310\257\312\337\301\252\030\250\204\023\010"
 340      CADFC1AA 
 340      18A88413 
 340      08
 341 0052 42F410D8 		.ascii	"B\364\020\330;\300+\374A\270\020\203\210\354\275\356"
 341      3BC02BFC 
 341      41B81083 
 341      88ECBDEE 
 342 0062 F9D999DE 		.ascii	"\371\331\231\336\231\315l8o*\335\363\327\357\353\367"
 342      99CD6C38 
 342      6F2ADDF3 
 342      D7EFEBF7 
 343 0072 BEF7BA5F 		.ascii	"\276\367\272_\367l8\304\241\273y\204Rpl,F\250\311\215"
 343      F76C38C4 
 343      A1BB7984 
 343      52706C2C 
 343      46A8C98D 
 344 0086 900721F4 		.ascii	"\220\007!\3640R\316-PVCy\006#\004\257\320\263p\236\007"
 344      3052CE2D 
 344      50564379 
 344      062304AF 
 344      D0B3709E 
 345 009b 05FED05C 		.ascii	"\005\376\320\\\250|p\256\203\363\313P\032\240\254\200"
ARM GAS  /tmp/ccIxHdDp.s 			page 27


 345      A87C70AE 
 345      83F3CB50 
 345      1AA0AC80 
 346 00ab D20AA50D 		.ascii	"\322\012\245\015\3126(\177\203\262[m\377\036\251\014"
 346      CA36287F 
 346      83B25B6D 
 346      FF1EA90C 
 347 00bb 07912B84 		.ascii	"\007\221+\204s\011\234\237\303\012\366d(\323\241TC\011"
 347      73099C9F 
 347      C30AF664 
 347      28D3A154 
 347      4309
 348 00cd 61A5DF0F 		.ascii	"a\245\337\017pZ\217\355X\321+\000\347J(S\240L\203\362"
 348      705A8FED 
 348      58D12B00 
 348      E74A2853 
 348      A04C83F2 
 349 00e1 2256F4E1 		.ascii	"\"V\364\341\015\372l\263\351\227\3509\010)\366\020\334"
 349      0DFA6CB3 
 349      E997E839 
 349      0829F610 
 349      DC
 350 00f2 E9EA3DAB 		.ascii	"\351\352=\253\213Q\007\3227\321\243\277\3769\025\237"
 350      8B5107D2 
 350      37D1A3BF 
 350      FE39159F 
 351 0102 F4ED82EB 		.ascii	"\364\355\202\353ep^\002\345/P\3660z\020\256\206\"\245"
 351      65705E02 
 351      E52F50F6 
 351      307A10AE 
 351      8622A5
 352 0115 9DD6FF74 		.ascii	"\235\326\377t\265\277\361\006\375&\253\372\020\035\236"
 352      B5BFF106 
 352      FD26ABFA 
 352      101D9E
 353 0124 C3693D42 		.ascii	"\303i=B\252\2163\260\242\267\250\372c\256A\267\027U"
 353      AA8E33B0 
 353      A2B7A8FA 
 353      63AE41B7 
 353      1755
 354 0136 FDFE0C65 		.ascii	"\375\376\014e\026\224\231X\321\235W\373\337\255\372"
 354      16949958 
 354      D19D57FB 
 354      DFADFA
 355 0145 88F4B51A 		.ascii	"\210\364\265\032\316k\240\274\006\245\003g\362\326\252"
 355      CE6BA0BC 
 355      06A50367 
 355      F2D6AA
 356 0154 F264E4EB 		.ascii	"\362d\344\353Y\234\326s\206\252\323s\252\015\325\014"
 356      599CD673 
 356      86AAD373 
 356      AA0DD50C 
 357 0164 6F5EA4E8 		.ascii	"o^\244\3501S\325o\226A\307\271\252\236\274\332\217\246"
 357      3153D56F 
 357      9641C7B9 
 357      AA9EBCDA 
 357      8FA6
ARM GAS  /tmp/ccIxHdDp.s 			page 28


 358 0176 17E1F34D 		.ascii	"\027\341\363M8\037`ti\263\320\345\0315N\2648\265\343"
 358      381F6074 
 358      69B3D0E5 
 358      19354EB4 
 358      38B5E3
 359 0189 6B9EAAB3 		.ascii	"k\236\252\263\025O\274\212\255\365O|\263\031\316[\240"
 359      154FBC8A 
 359      ADF54F7C 
 359      B319CE5B 
 359      A0
 360 019a BC63C149 		.ascii	"\274c\301I\001\252\223\345\270\334\\#O\3347h\010Z(\303"
 360      01AA93E5 
 360      B8DC5C23 
 360      4FDC3768 
 360      085A28C3 
 361 01ae 51B40F34 		.ascii	"Q\264\0174z\032\013x\220\017\311\230^\025\372\320`h"
 361      7A1A0B78 
 361      900FC998 
 361      5E15FAD0 
 361      6068
 362 01c0 7D3B5A23 		.ascii	"};Z#\313\015\3119\307\206\313.\001\257\306C\300\276"
 362      CB0DC939 
 362      C786CB2E 
 362      01AFC643 
 362      C0BE
 363 01d2 5B31BA0B 		.ascii	"[1\272\013\255\003\261\006Y~\377&\224y\364\213\312\241"
 363      AD03B106 
 363      597EFF26 
 363      9479F48B 
 363      CAA1
 364 01e4 7B301270 		.ascii	"{0\022p+\300\011x-\276K\351FN\364\010E\312S\244>\267"
 364      2BC00978 
 364      2DBE4BE9 
 364      464EF408 
 364      45CA53A4 
 365 01fa 386E41CD 		.ascii	"8nA\315\244i\357\031\237\274\250\320\242\247G\264\216"
 365      A469EF19 
 365      9FBCA8D0 
 365      A2A747B4 
 365      8E
 366 020b BC69F57B 		.ascii	"\274i\365{[^z\\\226\275\002~\223\032\340\307&x\025\244"
 366      5B5E7A5C 
 366      96BD027E 
 366      931AE0C7 
 366      267815A4 
 367 021f F9113B14 		.ascii	"\371\021;\024\016\205\211D\033\243nra\307\2018\236)"
 367      0E858944 
 367      1BA36E72 
 367      61C78138 
 367      9E29
 368 0231 CB5879D7 		.ascii	"\313Xy\327\237\322\361\304\241\272\2257\313\315\357"
 368      9FD2F1C4 
 368      A1BA9537 
 368      CBCDEF
 369 0240 E3FE7CD0 		.ascii	"\343\376|\320\354\322\272\377U\332\210\213?\360\300"
 369      ECD2BAFF 
 369      55DA888B 
ARM GAS  /tmp/ccIxHdDp.s 			page 29


 369      3FF0C0
 370 024f CE266A41 		.ascii	"\316&jA\013\2664\301\036\203\203\230$\"og\330Pw\\\263"
 370      0BB634C1 
 370      1E838398 
 370      24226F67 
 370      D850775C 
 371 0264 E16D47C4 		.ascii	"\341mG\304\367u\254\300\304\006\215\314-:\256\025u\352"
 371      F775ACC0 
 371      C4068DCC 
 371      2D3AAE15 
 371      75EA
 372 0276 A572A80D 		.ascii	"\245r\250\015\314\234\\\352(l\020|\2506M\210\336\260"
 372      CC9C5CEA 
 372      286C107C 
 372      A8364D88 
 372      DEB0
 373 0288 48137719 		.ascii	"H\023w\031\\9\177\317!<\213\352\273\003\373\240\377"
 373      5C397FCF 
 373      213C8BEA 
 373      BB03FBA0 
 373      FF
 374 0299 1E860AE7 		.ascii	"\036\206\012\347P}\365\037\276\207\343\024j\027\205"
 374      507DF51F 
 374      BE87E314 
 374      6A1785
 375 02a8 5ACE0D14 		.ascii	"Z\316\015\024\252\251q\347C4\300\336\243@\007\031 \001"
 375      AAA971E7 
 375      4334C0DE 
 375      A3400719 
 375      2001
 376 02ba E7E966EB 		.ascii	"\347\351f\353\367Z\003\202F_\253\027$\261]\217~\344"
 376      F75A0382 
 376      465FAB17 
 376      24B15D8F 
 376      7EE4
 377 02cc E61C3AC6 		.ascii	"\346\034:\3061~3\331ep\241\245\337\344dC\307\011n\271"
 377      317E33D9 
 377      6570A1A5 
 377      DFE46443 
 377      C7096EB9 
 378 02e0 9C98CD6B 		.ascii	"\234\230\315k\303\307c\307\021\207\222\264\257v6\366"
 378      C3C763C7 
 378      118792B4 
 378      AF7636F6 
 379 02f0 7674EFD7 		.ascii	"vt\357\327b\257\335\321\370y\273c\251\263\361\303i\375"
 379      62AFDDD1 
 379      F879BB63 
 379      A9B3F1C3 
 379      69FD
 380 0302 DF46FB5F 		.ascii	"\337F\373_\312\223\376;\331\376\227\036\373l\216\332"
 380      CA93FE3B 
 380      D9FE971E 
 380      FB6C8EDA 
 381 0312 7FA7A3FE 		.ascii	"\177\247\243\376\267u/\316\354_\300\017\337\230-6vt"
 381      B7752FCE 
 381      EC5FC00F 
 381      DF982D36 
ARM GAS  /tmp/ccIxHdDp.s 			page 30


 381      7674
 382 0324 7F7E41ED 		.ascii	"\177~A\355\345\000Hr\350\020\317F\307\370\002\263\377"
 382      E5004872 
 382      E810CF46 
 382      C7F802B3 
 382      FF
 383 0335 E0DED080 		.ascii	"\340\336\320\200C\377\320\365\317\342+d\347\2538\030"
 383      43FFD0F5 
 383      CFE22B64 
 383      E7AB3818 
 384 0345 7AAE092F 		.ascii	"z\256\011/\232%\357\033\243\351p<g\304\"\023\023;\273"
 384      9A25EF1B 
 384      A3E9703C 
 384      67C42213 
 384      133BBB
 385 0358 61D46A60 		.ascii	"a\324j`I'`\266\241\024O\3542\202\235\312\031\314\254"
 385      492760B6 
 385      A1144FEC 
 385      32829DCA 
 385      19CCAC
 386 036b D94123D8 		.ascii	"\331A#\330\347N\300\006\333k\326e\004;\2333\230Y\263"
 386      E74EC006 
 386      DB6BD665 
 386      043B9B33 
 386      9859B3
 387 037e 8F8D605F 		.ascii	"\217\215`_9\001\033f\257\331Q#\330\371\234\301\314\232"
 387      39011B66 
 387      AFD95123 
 387      D8F99CC1 
 387      CC9A
 388 0390 7D6204BB 		.ascii	"}b\004\273\350\004\254\310B3\375\260\222#a\335\201\365"
 388      E804ACC8 
 388      4233FDB0 
 388      922361DD 
 388      81F5
 389 03a2 38E7501F 		.ascii	"8\347P\037\257\315\0119\3064Jc\\\346s\235\303LvC\002"
 389      AFCD0939 
 389      C6344A63 
 389      5CE6739D 
 389      C34C7643 
 390 03b7 3FB91A37 		.ascii	"?\271\0327*\343b#5\376\252\023\304,\001\323\320I\231"
 390      2AE36223 
 390      35FEAA13 
 390      C42C01D3 
 390      D04999
 391 03ca 54C066BB 		.ascii	"T\300f\273r\0053\273e\025\0013\3155jFJ\256M\014[\226"
 391      720533BB 
 391      65150133 
 391      CD356A46 
 391      4AAE4D0C 
 392 03e0 9EEEBC1A 		.ascii	"\236\356\274\032\026Y\352)s\033,\3158\275\261<l\230"
 392      1659EA29 
 392      731B2CCD 
 392      38BDB13C 
 392      6C98
 393 03f2 755B017F 		.ascii	"u[\001\177\205o\207\372k\354\323\265P\256\265\253\024"
 393      856F87FA 
ARM GAS  /tmp/ccIxHdDp.s 			page 31


 393      6BECD3B5 
 393      50AEB5AB 
 393      14
 394 0403 5DD1D6B9 		.ascii	"]\321\326\271\230E\244v\364'j\027\011_\030#\241\336"
 394      9845A476 
 394      F4276A17 
 394      095F1823 
 394      A1DE
 395 0415 094D5986 		.ascii	"\011MY\206\302A;\232\0225r-\236\271qx\326\265\341\216"
 395      C2413B9A 
 395      1235722D 
 395      9EB97178 
 395      D6B5E18E 
 396 0429 EE732DEA 		.ascii	"\356s-\352*\340?4y/vY\256\002\034\201\365\325\037\320"
 396      2AE03F34 
 396      792F7659 
 396      AE021C81 
 396      F5D51FD0 
 397 043d 9614BD14 		.ascii	"\226\024\275\024\354\325\201\20357\035\246\213\356K"
 397      ECD58183 
 397      35371DA6 
 397      8BEE4B
 398 044c 14E80D17 		.ascii	"\024\350\015\027\2334|\314\222\302gN\372>_\372\"\245"
 398      9B347CCC 
 398      92C2674E 
 398      FA3E5FFA 
 398      22A5
 399 045e 1D6637FE 		.ascii	"\035f7\376\2502v\256\277`t\375\346\234]o\032!\260\010"
 399      A83276AE 
 399      BF6074FD 
 399      E69C5D6F 
 399      1A21B008 
 400 0472 F9965B2A 		.ascii	"\371\226[*'f\362\206X\317:0`\001\331\271\353\227t\251"
 400      2766F286 
 400      58CF3A30 
 400      6001D9B9 
 400      EB9774A9 
 401 0486 F603E575 		.ascii	"\366\003\345u\273\265\203\034\000\365\325\267\375\234"
 401      BBB5831C 
 401      00F5D5B7 
 401      FD9C
 402 0494 029191C6 		.ascii	"\002\221\221\306\241\017\006\014\324\324\270j\034\005"
 402      A10F060C 
 402      D4D4B86A 
 402      1C05
 403 04a2 9A45813A 		.ascii	"\232E\201:3<\215\031Oc\263\007\364Q\247\016\272\037"
 403      333C8D19 
 403      4F63B307 
 403      F451A70E 
 403      BA1F
 404 04b4 AB2D878E 		.ascii	"\253-\207\216\260\3562\231\223%5\350\363\355\225E\270"
 404      B0EE3299 
 404      932535E8 
 404      F3ED9545 
 404      B8
 405 04c5 272E2F1B 		.ascii	"'./\033\223\203\277\346\253\376\252\245\354\034\313"
 405      9383BFE6 
ARM GAS  /tmp/ccIxHdDp.s 			page 32


 405      ABFEAAA5 
 405      EC1CCB
 406 04d4 6087D09F 		.ascii	"`\207\320\237\233\031\247r6\303k6\243.5\0003v+f\274"
 406      9B19A772 
 406      36C36B36 
 406      A32E3500 
 406      33762B66 
 407 04e9 44CD38FB 		.ascii	"D\3158\373?0\343B\316f\0146\230A\267\257\213\225\354"
 407      3F30E342 
 407      CE660C36 
 407      9841B7AF 
 407      8B95EC
 408 04fc 37142DCA 		.ascii	"7\024-\312\276\204'\372,\342\206\232w\353G>\302E\312"
 408      BE8427FA 
 408      2CE2869A 
 408      77EB473E 
 408      C245CA
 409 050f E3FE778D 		.ascii	"\343\376w\215=\037\255\240+gJ\230\354h\243\327\251o"
 409      3D1FADA0 
 409      2B674A98 
 409      EC68A3D7 
 409      A96F
 410 0521 F49A2865 		.ascii	"\364\232(e\337Z\0150'P\315}\007n$\023\3512\012se\240"
 410      DF5A0D30 
 410      2750CD7D 
 410      076E2413 
 410      E9320A73 
 411 0537 30C9A6C3 		.ascii	"0\311\246\303\357*\343\364\025\0124\333\315\272\320"
 411      EF2AE3F4 
 411      150A34DB 
 411      CDBAD0
 412 0546 C378D063 		.ascii	"\303x\320c\366 \334\222\236.\321\011r\206\372\204\334"
 412      F620DC92 
 412      9E2ED109 
 412      7286FA84 
 412      DC
 413 0557 E4A1FFBB 		.ascii	"\344\241\377\273\034\207^\246\352\023\357\345\270\376"
 413      1C875EA6 
 413      EA13EFE5 
 413      B8FE
 414 0565 D2A2A7EE 		.ascii	"\322\242\247\356t\243\266vR\034\324tM\210\361\304\253"
 414      74A3B676 
 414      521CD474 
 414      4D88F1C4 
 414      AB
 415 0576 F5CAD711 		.ascii	"\365\312\327\021\272\377\341\320\252k\204\333y\200]"
 415      BAFFE1D0 
 415      AA6B84DB 
 415      79805D
 416 0585 1630DBB6 		.ascii	"\0260\333\266M6iG\013\300\215\013\356\246\356^\313\021"
 416      4D366947 
 416      0BC08D0B 
 416      EEA6EE5E 
 416      CB11
 417 0597 75D666B8 		.ascii	"u\326f\270{#f\266m\344\201\241\211\335@Z\303\0312\340"
 417      7B2366B6 
 417      6DE481A1 
ARM GAS  /tmp/ccIxHdDp.s 			page 33


 417      89DD405A 
 417      C31932E0 
 418 05ab D66B7543 		.ascii	"\326kuCG/\343\206]\327\310\333w\365\316>R=\257a\025"
 418      472FE386 
 418      5DD7C8DB 
 418      77F5CE3E 
 418      523DAF61 
 419 05c0 5243DA69 		.ascii	"RC\332i\267m\034\263\307\356>\227\254QWD\344]\3773\305"
 419      B76D1CB3 
 419      C7EE3E97 
 419      AC515744 
 419      E45DFF33 
 420 05d5 31FA614F 		.ascii	"1\372aO\371\272$\340m\230SQ\255\026J\375\322\2238!\356"
 420      F9BA24E0 
 420      6D985351 
 420      AD164AFD 
 420      D2933821 
 421 05ea 1B93CB9C 		.ascii	"\033\223\313\234\323\256\3159\233(\227=\031N_\306N\323"
 421      D3AECD39 
 421      9B28973D 
 421      194E5FC6 
 421      4ED3
 422 05fc 390DBAEF 		.ascii	"9\015\272\357t\222\234nX\330\303.\250\376j\014\252\037"
 422      74929C6E 
 422      58D8C32E 
 422      A8FE6A0C 
 422      AA1F
 423 060e AE2D0420 		.ascii	"\256-\004 \250\332\327(A\305\014\231V\233!C4\330j\324"
 423      A8DAD728 
 423      41C50C99 
 423      569B2143 
 423      34D86AD4 
 424 0622 60B6E7DA 		.ascii	"`\266\347\332\202pG\227!_8\3730\330\371\241\376a\220"
 424      82704797 
 424      215F38FB 
 424      30D8F9A1 
 424      FE6190
 425 0635 FA6EBE87 		.ascii	"\372n\276\207\365\335.v!\345\344;\331\322\201Z\242\037"
 425      F5DD2E76 
 425      21E5E43B 
 425      D9D2815A 
 425      A21F
 426 0647 3095791C 		.ascii	"0\225y\034,s\213\314\3765D1\314\265G\325L\335\357\307"
 426      2C738BCC 
 426      FE354431 
 426      CCB547D5 
 426      4CDDEFC7 
 427 065b 368D8D33 		.ascii	"6\215\2153\013&*\037$9\362\221\266\231\341\302\3017"
 427      0B262A1F 
 427      2439F291 
 427      B699E1C2 
 427      C137
 428 066d BBF55464 		.ascii	"\273\365Td\017;\236\027\326\351\337\354\3668\030\317"
 428      0F3B9E17 
 428      D6E9DFEC 
 428      F63818CF 
 429 067d F1C4E63A 		.ascii	"\361\304\346:mVW6\305\273u\334\201\362iraZA\001\267"
ARM GAS  /tmp/ccIxHdDp.s 			page 34


 429      6D565736 
 429      C5BB75DC 
 429      81F26972 
 429      615A4101 
 430 0692 736433BB 		.ascii	"sd3\273\227\273\305\310\375\036'\334\337i\027\211r\242"
 430      97BBC5C8 
 430      FD1E27DC 
 430      DF691789 
 430      72A2
 431 06a4 B7CBFCBD 		.ascii	"\267\313\374\275{?\213g5#\231\360\214\276\214'\032\016"
 431      7B3F8B67 
 431      352399F0 
 431      8CBE8C27 
 431      1A0E
 432 06b6 D32F044A 		.ascii	"\323/\004J\214\036q\242\334\030{\260W\0335r\267\322"
 432      8C1E71A2 
 432      DC187BB0 
 432      571B3572 
 432      B7D2
 433 06c8 2475C209 		.ascii	"$u\302\011\3368;c\343\211w\017\257P\361\224\217\353"
 433      DE383B63 
 433      E389770F 
 433      AF50F194 
 433      8FEB
 434 06da 9FE78C67 		.ascii	"\237\347\214g\326\357H\243)\245\177\343\004\356\021"
 434      D6EF48A3 
 434      29A57FE3 
 434      04EE11
 435 06e9 C7BE4FFF 		.ascii	"\307\276O\377\230!\340w\351\207\214\255\370\026\250"
 435      9821E077 
 435      E9878CAD 
 435      F816A8
 436 06f8 B7D3FA43 		.ascii	"\267\323\372CZ\237\241\365\277i}\226\326\347i}\205\326"
 436      5A9FA1F5 
 436      BF697D96 
 436      D6E7697D 
 436      85D6
 437 070a 7339522F 		.ascii	"s9R/\240\365BZ'h\335A\353\375\264\376\210\326\007i\335"
 437      A0F5425A 
 437      2768DD41 
 437      EBFDB4FE 
 437      88D60769 
 438 071f 658C2DBB 		.ascii	"e\214-\273\211\220Y\006\010x\037G\223\330@?\337&\272"
 438      89905906 
 438      08781F47 
 438      93D8403F 
 438      DF26BA
 439 0732 3A0C1F95 		.ascii	":\014\037\225z=8G\260\242l\034\266\0318\\O9\334@\231"
 439      7A3D3847 
 439      B0A26C1C 
 439      B619385C 
 439      4F39DC40 
 440 0747 F9D868A9 		.ascii	"\371\330h\251\226\207[\263G\275\275\011\311\331'\015"
 440      96875BB3 
 440      47BDBD09 
 440      C9D9270D 
 441 0757 265CF660 		.ascii	"&\\\366`d\237K\262dA\225\217+\"Y\355\264P\232\025ns"
ARM GAS  /tmp/ccIxHdDp.s 			page 35


 441      649F4BB2 
 441      6441958F 
 441      2B2259ED 
 441      B4509A15 
 442 076d C1CA4A47 		.ascii	"\301\312JG\253\201\2167(\035\353(\035G\251\373?q\342"
 442      AB818E37 
 442      281DEB28 
 442      1D47A9FB 
 442      3F71E2
 443 0780 FE96F4B2 		.ascii	"\376\226\364\262\320y\366Zx9\371\213\365\262<X\300\237"
 443      D079F65A 
 443      7839F98B 
 443      F5B23C58 
 443      C09F
 444 0792 D2896173 		.ascii	"\322\211as\036\233\274\334L\356r\233s\227\333\227\276"
 444      1E9BBCDC 
 444      4CEE729B 
 444      7397DB97 
 444      BE
 445 07a3 507397E5 		.ascii	"Ps\227\345\002\256\366T\372\333\214\254\377LR\224\326"
 445      02AEF654 
 445      FADB8CAC 
 445      FF4C5294 
 445      D6
 446 07b4 A4F7FBC4 		.ascii	"\244\367\373\304\315;\251&\307i\3528\223g\231:\262\000"
 446      CD3BA926 
 446      C769EA38 
 446      9367993A 
 446      B200
 447 07c6 C1B289CA 		.ascii	"\301\262\211\312$\231\334\221h\234"
 447      2499DC91 
 447      689C
 448 07d0 5B48F661 		.ascii	"[H\366aIGy\243i\357\212\314e\350M\250I]\312\311X\242"
 448      494779A3 
 448      69EF8ACC 
 448      65E84DA8 
 448      495DCAC9 
 449 07e6 938A9D17 		.ascii	"\223\212\235\027\316p\312/\323<\375A\036)\274\3527\012"
 449      CE70CA2F 
 449      D33CFD41 
 449      1E29BCEA 
 449      370A
 450 07f8 99A677F4 		.ascii	"\231\246w\364\342)>\253{U\212R\251\344\315\353(E\247"
 450      E2293EAB 
 450      7B558A52 
 450      A9E4CDEB 
 450      2845A7
 451 080b E9ACDBE6 		.ascii	"\351\254\333\3465S\304,\232\210*vj~\311\025\3300\221"
 451      3553C42C 
 451      9A882A76 
 451      6A7EC915 
 451      D83091
 452 081e F18E433B 		.ascii	"\361\216C;\274\032\255\003\333+\364~\237\034\276m\213"
 452      BC1AAD03 
 452      DB2BF47E 
 452      9F1CBE6D 
 452      8B
ARM GAS  /tmp/ccIxHdDp.s 			page 36


 453 082f 2C6F7C5E 		.ascii	",o|^\335\360'<F/\232\206\264bjbG\373\010\342\262s\260"
 453      DDF0273C 
 453      462F9A86 
 453      B4626A62 
 453      47FB08E2 
 454 0846 FC8154CA 		.ascii	"\374\201T\312\330\331?\012\207\272\250\314\205\214o"
 454      D8D93F0A 
 454      87BAA8CC 
 454      858C6F
 455 0855 07EDE4C7 		.ascii	"\007\355\344\307\354\013\016\276\035\304\023\3355\365"
 455      EC0B0EBE 
 455      1DC413DD 
 455      35F5
 456 0863 3F919B17 		.ascii	"?\221\233\027\014\323>\320\236\320!\007\266'8\331\236"
 456      0CD33ED0 
 456      9ED02107 
 456      B62738D9 
 456      9E
 457 0874 9FFED701 		.ascii	"\237\376\327\001\373_\375\211b}l\010\177\332N\276y\364"
 457      FB5FFD89 
 457      627D6C08 
 457      7FDA4EBE 
 457      79F4
 458 0886 398AE063 		.ascii	"9\212\340c5\026\033)\205K\273p\270\234^CkS[\337\000"
 458      35161B29 
 458      854BBB70 
 458      B89C5E43 
 458      6B535BDF 
 459 089b DD1D4F1C 		.ascii	"\335\035O\034o\327\222\2712\247\234\246\274\345\202"
 459      6FD792B9 
 459      32A79CA6 
 459      BCE582
 460 08aa 57C418C6 		.ascii	"W\304\030\306\241/\256\221\373>\347\334\247X\356/P\356"
 460      A12FAE91 
 460      FB3EE7DC 
 460      A758EE2F 
 460      50EE
 461 08bc 538EB8EF 		.ascii	"S\216\270\357\251\321\026\036\237\321!\372\015\325;"
 461      A9D1161E 
 461      9FD121FA 
 461      0DD53B
 462 08cb 35602E7B 		.ascii	"5`.{\031./\346\214\227\311\345w\003\345\322\3520\216"
 462      192E2FE6 
 462      8C97C9E5 
 462      7703E5D2 
 462      EA308E
 463 08de 3101F7D0 		.ascii	"1\001\367\320\225\360E\232\264\276\245\365U\363\252"
 463      95F0459A 
 463      B4BEA5F5 
 463      55F3AA
 464 08ed F82A3B95 		.ascii	"\370*;\225X\365m\377\353\177b\305c$\235+\377\0174\307"
 464      58F56DFF 
 464      EB7F62C5 
 464      63249D2B 
 464      FF0F34C7 
 465 0901 C76099FF 		.ascii	"\307`\231\377\331\307p\351\314\220\244aI\377/j\310)"
 465      D9C770E9 
ARM GAS  /tmp/ccIxHdDp.s 			page 37


 465      CC90A461 
 465      49FF2F6A 
 465      C829
 466 0913 6AC2D7B4 		.ascii	"j\302\327\264\236\313;\310\301\237\245\307\0213\372"
 466      9ECB3BC8 
 466      C19FA5C7 
 466      1133FA
 467 0922 88FBECA4 		.ascii	"\210\373\354\244\346\361\272\324H\264JnN&7\277\371\351"
 467      E6F1BAD4 
 467      48B44A6E 
 467      4E2637BF 
 467      F9E9
 468 0934 8825B0EF 		.ascii	"\210%\260\357\222\317\223\214\312d\037\233\237\375\011"
 468      92CF938C 
 468      CA641F9B 
 468      9FFD09
 469 0943 D27CFE26 		.ascii	"\322|\376&\365J\313(\034\332\340\303L\330\336\201\326"
 469      F54ACB28 
 469      1CDAE0C3 
 469      4CD8DE81 
 469      D6
 470 0954 123CF90D 		.ascii	"\022<\371\015\231\247h\244}\035?\322\314\306\002\236"
 470      99A768A4 
 470      7D1D3FD2 
 470      CCC6029E 
 471 0964 333E208A 		.ascii	"3> \212%I\012\2724b\371&y\366<\371jj\006Vr\014$\210"
 471      25490ABA 
 471      3462F926 
 471      79F63CF9 
 471      6A6A0656 
 472 097c 8C2E148C 		.ascii	"\214.\024\214\372L\014j\334\241;\007b\334B\236I\255"
 472      FA4C0C6A 
 472      DCA13B07 
 472      62DC429E 
 472      49AD
 473 098e 846DFD46 		.ascii	"\204m\375F\371_\206\254\251\225C\2370\212\336\206^\223"
 473      F95F86AC 
 473      A995439F 
 473      308ADE86 
 473      5E93
 474 09a0 E545F24A 		.ascii	"\345E\362Jq\2426`\317\322\026\015\300\206\225\032\252"
 474      71A23660 
 474      CFD2160D 
 474      C086951A 
 474      AA
 475 09b1 8755B16E 		.ascii	"\207U\261n\"\246l0\372\221\032\237\026J\021!\242\235"
 475      22A66C30 
 475      FA911A9F 
 475      164A1121 
 475      A29D
 476 09c3 8067F35C 		.ascii	"\200g\363\\V)\325\006\325]/\311s\006c\335_\015\254\277"
 476      5629D506 
 476      D55D2FC9 
 476      730663DD 
 476      5F0DACBF 
 477 09d7 9A2CFC75 		.ascii	"\232,\374u>\261\262\263\023C\247WR)\236e:\313\"feV\246"
 477      3EB1B2B3 
ARM GAS  /tmp/ccIxHdDp.s 			page 38


 477      1343A757 
 477      52299E65 
 477      3ACB2266 
 478 09ee 55B59845 		.ascii	"U\265\230E\015\303t\2175\323\2335\246\005\274\224Z\277"
 478      0DC3748F 
 478      35D39B35 
 478      A605BC94 
 478      5ABF
 479 0a00 C211D327 		.ascii	"\302\021\323'Y\322\354\305\250v\232_\333\013\033\260"
 479      59D2ECC5 
 479      A8769A5F 
 479      DB0B1BB0 
 480 0a10 BA64EDE5 		.ascii	"\272d\355\345\262\313\271\323\\\307\345\3655s\006\273"
 480      B2CBB9D3 
 480      5CC7E5F5 
 480      357306BB 
 481 0a20 D498B217 		.ascii	"\324\230\262\027R\331j\261\212\362Dj\221-\363Yb\374"
 481      52D96AB1 
 481      8AF2446A 
 481      912DF359 
 481      62FC
 482 0a32 759679FA 		.ascii	"u\226y\372/9&fk\362-\231=Y\242\005\343B\332\2405k0\332"
 482      2F392666 
 482      6BF22D99 
 482      3D59A205 
 482      E342DAA0 
 483 0a4a 44552B1B 		.ascii	"DU+\033U\353\254m[\262\000\262R<\221J\215gm\3136\317"
 483      55EBAC6D 
 483      5BB200B2 
 483      523C914A 
 483      8D676DCB 
 484 0a60 BD9535AC 		.ascii	"\275\2255\254\324Y\220\275g\254o\264\266~9\033Wm\316"
 484      D45990BD 
 484      67AC6FB4 
 484      B67E391B 
 484      576DCE
 485 0a73 4730E988 		.ascii	"G0\351\210C\315\024\330^\214\252\243\212-U\342J\021"
 485      43CD14D8 
 485      5E8CAAA3 
 485      8A2D55E2 
 485      4A11
 486 0a85 7CDD89A0 		.ascii	"|\335\211\240\036Y\033O\377n\2426\204\354\245T\3026"
 486      1E591B4F 
 486      FF6EA236 
 486      84ECA554 
 486      C236
 487 0a97 59CEC17B 		.ascii	"Y\316\301{z\366\341\332\234#k;K\276\262\2175\221\273"
 487      7AF6E1DA 
 487      9C236B3B 
 487      4BBEB28F 
 487      3591BB
 488 0aaa 21DF7A1E 		.ascii	"!\337z\036\337i\245G\342\235\275\013d\3340\023r\302"
 488      DF69A547 
 488      E29DBD0B 
 488      64DC3013 
 488      72C2
 489 0abc 48059E43 		.ascii	"H\005\236C\011\033\200]\226\000\2532\001\366\333\000"
ARM GAS  /tmp/ccIxHdDp.s 			page 39


 489      091B805D 
 489      9600AB32 
 489      01F6DB00 
 490 0acc 24CC00B7 		.ascii	"$\314\000\267\242\0269q\0202\311?\177\372V\0346\026"
 490      A2163971 
 490      1032C93F 
 490      7FFA561C 
 490      3616
 491 0ade 40410AA7 		.ascii	"@A\012\247\306k{\307\243:\212\345F\221\000\276\237\006"
 491      C66B7BC7 
 491      A33A8AE5 
 491      469100BE 
 491      9F06
 492 0af0 64323551 		.ascii	"d25Q\304\216\304\017\322\231\232\250p\360`\342\225\216"
 492      C48EC40F 
 492      D2999AA8 
 492      70F060E2 
 492      958E
 493 0b02 7932966B 		.ascii	"y2\226k\344\231$\231\335\200\032\350\036u\031\300|\211"
 493      E4992499 
 493      DD801AE8 
 493      1E7519C0 
 493      7C89
 494 0b14 F58150AB 		.ascii	"\365\201P\253\257Kn\240\242\306f_\3337\023p;\257\\\231"
 494      AF4B6EA0 
 494      A2C6665F 
 494      DB371370 
 494      3BAF5C99 
 495 0b28 7E49A02D 		.ascii	"~I\240-\354\024\334\313\247\377-\246\320\207\230U\020"
 495      EC14DCCB 
 495      A7FF2DA6 
 495      D0879855 
 495      10
 496 0b39 625A91DF 		.ascii	"bZ\221\337\244\363\231\314\305j\301\241\257\362\261"
 496      A4F399CC 
 496      C56AC1A1 
 496      AFF2B1
 497 0b48 2A472E54 		.ascii	"*G.T\273\267t\312\336\015r\255\234J\315\260\261z\231"
 497      BBB774CA 
 497      DE0D72AD 
 497      9C4ACDB0 
 497      B17A99
 498 0b5b 0E34349B 		.ascii	"\01644\233\325l3\001\357\317\331\352\277\333X=\304d"
 498      D56C3301 
 498      EFCFD9EA 
 498      BFDB583D 
 498      C464
 499 0b6d B5D68A6C 		.ascii	"\265\326\212lq\330$\302j\301\241\313VV/9\334\237\325"
 499      71D824C2 
 499      6AC1A1CB 
 499      56562F39 
 499      DC9FD5
 500 0b80 4F6B3805 		.ascii	"Ok8\005\331\214fZ\011\370P\3166w\331\330\234o\262\271"
 500      D98C665A 
 500      09F850CE 
 500      3677D9D8 
 500      9C6FB2B9 
ARM GAS  /tmp/ccIxHdDp.s 			page 40


 501 0b94 8BB5D990 		.ascii	"\213\265\331\220\026\030%8T[`4\031\215\034=\272X\371"
 501      16182538 
 501      545B6034 
 501      198D1C3D 
 501      BA58F9
 502 0ba7 0BC78AA3 		.ascii	"\013\307\212\243Rq0\024\250\250*\021\213\003\345\225"
 502      52713014 
 502      A8A82A11 
 502      8B03E595 
 503 0bb7 D2D4D1E5 		.ascii	"\322\324\321\345(\257\262J\022\247\372%\317c\277}\252"
 503      28AFB24A 
 503      12A7FA25 
 503      CF63BF7D 
 503      AA
 504 0bc8 6802F206 		.ascii	"h\002\362\006\312\375\364\311m\266r\261i1iZD\214\201"
 504      CAFDF4C9 
 504      6DB672B1 
 504      6931695A 
 504      448C81
 505 0bdb F0F55279 		.ascii	"\360\365RyT\024Jb\376?U\211U\242_\032\014\322\246GE"
 505      54144A62 
 505      FE3F5589 
 505      55A25F1A 
 505      0CD2A647 
 506 0bf0 F62881F2 		.ascii	"\366(\201\362\022@\360*\315\375\222O\027uS\311qF\311"
 506      1240F02A 
 506      CDFD924F 
 506      177553C9 
 506      7146C9
 507 0c03 40B8B232 		.ascii	"@\270\2622\034*\216\204\243R\254\370\321\337?1\341\211"
 507      1C2A8E84 
 507      A352ACF8 
 507      D1DF3F31 
 507      E189
 508 0c15 A9E45924 		.ascii	"\251\344Y$X!Fc\305\217M\230\000\200\232NyR$\032\014"
 508      58214663 
 508      C58F4D98 
 508      00809A4E 
 508      7952241A 
 509 0c2a FBA511C5 		.ascii	"\373\245\021\305U\261\250\336aH\254\256\010N*\216I%"
 509      55B1A8DE 
 509      6148ACAE 
 509      084E2A8E 
 509      4925
 510 0c3c C19044FA 		.ascii	"\301\220D\372\255\202\363}\367\372\245QV\315*\205@y"
 510      AD82F37D 
 510      F7FAA551 
 510      56CD2A85 
 510      4079
 511 0c4e 302416FB 		.ascii	"0$\026\373K\304R\241\252B\362k\340\371~\277&\350\"\335"
 511      4BC452A1 
 511      AA42F26B 
 511      E0F97EBF 
 511      26E822DD 
 512 0c62 141295FC 		.ascii	"\024\022\225\374\201p\010\030\223~\326\257\312\345\201"
 512      81700818 
 512      937ED6AF 
ARM GAS  /tmp/ccIxHdDp.s 			page 41


 512      CAE581
 513 0c71 70540498 		.ascii	"pT\004\230\002*\006@\001i\352(gR\376)\017V\022\275\243"
 513      022A0640 
 513      0169EA28 
 513      6752FE29 
 513      0F5612BD 
 514 0c86 629910AD 		.ascii	"b\231\020\255\364K\\t,\027\275\237\213>\300E\037\344"
 514      F44B5C74 
 514      2C17BD9F 
 514      8B3EC045 
 514      1FE4
 515 0c98 A2E3B8E8 		.ascii	"\242\343\270\350C|\364\2361P\356\341*\242\\,\302\003"
 515      437CF49E 
 515      3150EEE1 
 515      2AA25C2C 
 515      C203
 516 0caa B41BCC11 		.ascii	"\264\033\314\021\243\356pE\211\030u\005\312\205\250"
 516      A3EE7045 
 516      89187505 
 516      CA85A8
 517 0cb9 2B24548A 		.ascii	"+$T\212\3711i\262P\021,\013\371%\312\302\003c\375\222"
 517      F93169B2 
 517      50112C0B 
 517      F925CAC2 
 517      0363FD92 
 518 0ccd 6A17B9F4 		.ascii	"j\027\271\364T\013\223\204\230\350\225b\222 \201O\363"
 518      540B9384 
 518      98E89562 
 518      9220814F 
 518      F3
 519 0cde C88B71E0 		.ascii	"\310\213q\340 \245\011\\\271\351\233<\2512\\\002\357"
 519      20A5095C 
 519      B9E99B3C 
 519      A9325C02 
 519      EF
 520 0cef DDA51542 		.ascii	"\335\245\025BY,O\212\212\2451`\205\234\334\225\2612"
 520      592C4F8A 
 520      8AA53160 
 520      859CDC95 
 520      B132
 521 0d01 10548902 		.ascii	"\020T\211\002A\365\312\023-\231\006\257\274\342\324"
 521      41F5CA13 
 521      2D9906AF 
 521      BCE2D4
 522 0d10 A0140061 		.ascii	"\240\024\000aO\265\024\236\364Bd\210\032\003 *F\305"
 522      4FB5149E 
 522      F4426488 
 522      1A03202A 
 522      46C5
 523 0d22 50808056 		.ascii	"P\200\200VKR4\222\027\023C\022\010\024Bl\304\304J!R"
 523      4B523492 
 523      17134312 
 523      0814426C 
 523      C4C44A21 
 524 0d37 0E44D807 		.ascii	"\016D\330\00744\001\206\334\201\020\370\213\207\032"
 524      34340186 
 524      DC8110F8 
ARM GAS  /tmp/ccIxHdDp.s 			page 42


 524      8B871A
 525 0d46 E0E15104 		.ascii	"\340\341Q\004N\020\352\221\002q\012A\023b\223A\021\261"
 525      4E10EA91 
 525      02710A41 
 525      13629341 
 525      11B1
 526 0d58 9A5CE0AA 		.ascii	"\232\\\340\252AZ\264V\004c u\275!~\311\023W\010\334"
 526      415AB456 
 526      04632075 
 526      BD217EC9 
 526      135708DC 
 527 0d6c 9A572D04 		.ascii	"\232W-\004\245`\250\314\013\232\320\320\364\212\021"
 527      A560A8CC 
 527      0B9AD0D0 
 527      F48A11
 528 0d7b 31047154 		.ascii	"1\004qT\226\007\270\244\0318E\250 \341\340\256\214\204"
 528      9607B8A4 
 528      193845A8 
 528      20E1E0AE 
 528      8C84
 529 0d8d C3151019 		.ascii	"\303\025\020\031\342\024w\270:$F\357\245\321EB\252,"
 529      E21477B8 
 529      3A2446EF 
 529      A5D14542 
 529      AA2C
 530 0d9f 102806C7 		.ascii	"\020(\006\307\215\012\205C\342(Q\230\024,\036;z\334"
 530      8D0A8543 
 530      E2285198 
 530      142C1E3B 
 530      7ADC
 531 0db1 E87B75F5 		.ascii	"\350{u\365!2!\330@\177O,8\035\030\270\313\",\3021\202"
 531      213221D8 
 531      407F4F2C 
 531      381D18B8 
 531      CB222CC2 
 532 0dc7 9436B85C 		.ascii	"\2246\270\\\024\" q]\245X\031\216N\363\223[\277T`\270"
 532      14222071 
 532      5DA55819 
 532      8E4EF393 
 532      5BBF5460 
 533 0ddc B38A2D16 		.ascii	"\263\212-\026\004\232\253QIp\312D\251\264*\024\000g"
 533      049AAB51 
 533      4970CA44 
 533      A9B42A14 
 533      0067
 534 0dee 7923D1F0 		.ascii	"y#\321\360\224 D\316u\024\027*\270\006x\303\235\233"
 534      942044CE 
 534      7514172A 
 534      B80678C3 
 534      9D9B
 535 0e00 86913B22 		.ascii	"\206\221;\"\224\2111WiT\024]\344\245\213\030\340\252"
 535      94893157 
 535      6954145D 
 535      E4A58B18 
 535      E0AA
 536 0e12 8A89251E 		.ascii	"\212\211%\036\245\031\0174\335a\253I,\032\320L\011\300"
 536      A5190F34 
ARM GAS  /tmp/ccIxHdDp.s 			page 43


 536      DD61AB49 
 536      2C1AD04C 
 536      09C0
 537 0e24 F8A2F0C1 		.ascii	"\370\242\360\301PP\032\036(\237\000z=ZQ\021\016<J\372"
 537      50501A1E 
 537      289F007A 
 537      3D5A5111 
 537      0E3C4AFA 
 538 0e38 114BFE18 		.ascii	"\021K\376\030\224\312\237,-\215\211d\242\231\010\015"
 538      94CA9F2C 
 538      2D8D8964 
 538      A299080D 
 539 0e48 9F9CF482 		.ascii	"\237\234\364\202\030\220\036\207\326n\"\027\341'U\225"
 539      18901E87 
 539      D66E2217 
 539      E1275595 
 540 0e58 0E515E19 		.ascii	"\016Q^\031\345\362\225G\277\006\015q\244P\271\371\003"
 540      E5F29547 
 540      BF060D71 
 540      A450B9F9 
 540      03
 541 0e69 C47055CC 		.ascii	"\304pU\314#\205%p\235\267B\210\202\015R\004\002\340"
 541      23852570 
 541      9DB74288 
 541      820D5204 
 541      02E0
 542 0e7b 09696A1A 		.ascii	"\011ij\032\266\200\336?\025\002\254\311>z\375\033\270"
 542      B680DE3F 
 542      1502ACC9 
 542      3E7AFD1B 
 542      B8
 543 0e8c 2AD4A605 		.ascii	"*\324\246\005\322\251\327\357'\214\371\375\327i\027"
 543      D2A9D7EF 
 543      278CF9FD 
 543      D76917
 544 0e9b A3EF7FE8 		.ascii	"\243\357\177\350\276\373\214wcMw\367?\360_\000y\363"
 544      BEFB8C77 
 544      634D77F7 
 544      3FF05F00 
 544      79F3
 545 0ead 77       		.ascii	"w"
 546              		.text
 547              		.section	.gnu.lto_.symtab.a31291a067be2645,"",%progbits
 548 0000 5F686561 		.ascii	"_heap_init\000\000\000\000\000\000\000\000\000\000\000"
 548      705F696E 
 548      69740000 
 548      00000000 
 548      00000000 
 549 0015 008A0100 		.ascii	"\000\212\001\000\000chHeapObjectInit\000\000\000\000"
 549      00636848 
 549      6561704F 
 549      626A6563 
 549      74496E69 
 550 002e 00000000 		.ascii	"\000\000\000\000\000\000\000\000\220\001\000\000chH"
 550      00000000 
 550      90010000 
 550      636848
ARM GAS  /tmp/ccIxHdDp.s 			page 44


 551 003d 65617041 		.ascii	"eapAllocAligned\000\000\000\000\000\000\000\000\000"
 551      6C6C6F63 
 551      416C6967 
 551      6E656400 
 551      00000000 
 552 0055 0000009C 		.ascii	"\000\000\000\234\001\000\000chHeapFree\000\000\000\000"
 552      01000063 
 552      68486561 
 552      70467265 
 552      65000000 
 553 006a 00000000 		.ascii	"\000\000\000\000\000\000\000\000\246\001\000\000chH"
 553      00000000 
 553      A6010000 
 553      636848
 554 0079 65617053 		.ascii	"eapStatus\000\000\000\000\000\000\000\000\000\000\000"
 554      74617475 
 554      73000000 
 554      00000000 
 554      00000000 
 555 008d 00AD0100 		.ascii	"\000\255\001\000\000chCoreAllocAlignedWithOffset\000"
 555      00636843 
 555      6F726541 
 555      6C6C6F63 
 555      416C6967 
 556 00af 00020000 		.ascii	"\000\002\000\000\000\000\000\000\000\000\000\216\001"
 556      00000000 
 556      0000008E 
 556      01
 557 00bc 00006368 		.ascii	"\000\000chMtxObjectInit\000\000\002\000\000\000\000"
 557      4D74784F 
 557      626A6563 
 557      74496E69 
 557      74000002 
 558 00d4 00000000 		.ascii	"\000\000\000\000\000\271\001\000\000chMtxUnlock\000"
 558      00B90100 
 558      0063684D 
 558      7478556E 
 558      6C6F636B 
 559 00e9 00020000 		.ascii	"\000\002\000\000\000\000\000\000\000\000\000\275\001"
 559      00000000 
 559      000000BD 
 559      01
 560 00f6 00006368 		.ascii	"\000\000chMtxLock\000\000\002\000\000\000\000\000\000"
 560      4D74784C 
 560      6F636B00 
 560      00020000 
 560      00000000 
 561 010a 000000BF 		.ascii	"\000\000\000\277\001\000\000"
 561      010000
 562              		.text
 563              		.section	.gnu.lto_.opts,"",%progbits
 564 0000 272D6D63 		.ascii	"'-mcpu=cortex-m3' '-mno-thumb-interwork' '-mthumb' "
 564      70753D63 
 564      6F727465 
 564      782D6D33 
 564      2720272D 
 565 0033 272D6767 		.ascii	"'-ggdb' '-O2' '-fomit-frame-pointer' '-falign-funct"
ARM GAS  /tmp/ccIxHdDp.s 			page 45


 565      64622720 
 565      272D4F32 
 565      2720272D 
 565      666F6D69 
 566 0066 696F6E73 		.ascii	"ions=16' '-ffunction-sections' '-fdata-sections' '-"
 566      3D313627 
 566      20272D66 
 566      66756E63 
 566      74696F6E 
 567 0099 666E6F2D 		.ascii	"fno-common' '-flto'\000"
 567      636F6D6D 
 567      6F6E2720 
 567      272D666C 
 567      746F2700 
 568              		.text
 569              		.cfi_sections	.debug_frame
 570              		.section	.text._heap_init,"ax",%progbits
 571              		.align	2
 572              		.p2align 4,,15
 573              		.global	_heap_init
 574              		.thumb
 575              		.thumb_func
 576              		.type	_heap_init, %function
 577              	_heap_init:
 578              	.LFB188:
 579              		.file 1 "../../../os/common/oslib/src/chheap.c"
 580              		.loc 1 107 0
 581              		.cfi_startproc
 582              		@ args = 0, pretend = 0, frame = 0
 583              		@ frame_needed = 0, uses_anonymous_args = 0
 584              		@ link register save eliminated.
 585              		.loc 1 109 0
 586 0000 40F20003 		movw	r3, #:lower16:.LANCHOR0
 587 0004 C0F20003 		movt	r3, #:upper16:.LANCHOR0
 588 0008 40F20002 		movw	r2, #:lower16:chCoreAllocAlignedWithOffset
 589              		.loc 1 110 0
 590 000c 0021     		movs	r1, #0
 591              		.loc 1 109 0
 592 000e C0F20002 		movt	r2, #:upper16:chCoreAllocAlignedWithOffset
 593              		.loc 1 113 0
 594 0012 03F11000 		add	r0, r3, #16
 595              		.loc 1 109 0
 596 0016 1A60     		str	r2, [r3]
 597              		.loc 1 110 0
 598 0018 9960     		str	r1, [r3, #8]
 599              		.loc 1 111 0
 600 001a D960     		str	r1, [r3, #12]
 601              		.loc 1 113 0
 602 001c FFF7FEBF 		b	chMtxObjectInit
 603              	.LVL0:
 604              		.cfi_endproc
 605              	.LFE188:
 606              		.size	_heap_init, .-_heap_init
 607              		.section	.text.chHeapObjectInit,"ax",%progbits
 608              		.align	2
 609              		.p2align 4,,15
 610              		.global	chHeapObjectInit
ARM GAS  /tmp/ccIxHdDp.s 			page 46


 611              		.thumb
 612              		.thumb_func
 613              		.type	chHeapObjectInit, %function
 614              	chHeapObjectInit:
 615              	.LFB189:
 616              		.loc 1 130 0
 617              		.cfi_startproc
 618              		@ args = 0, pretend = 0, frame = 0
 619              		@ frame_needed = 0, uses_anonymous_args = 0
 620              		@ link register save eliminated.
 621              	.LVL1:
 622              		.loc 1 141 0
 623 0000 083A     		subs	r2, r2, #8
 624              	.LVL2:
 625              		.loc 1 137 0
 626 0002 0023     		movs	r3, #0
 627              		.loc 1 141 0
 628 0004 D208     		lsrs	r2, r2, #3
 629              	.LVL3:
 630              		.loc 1 138 0
 631 0006 8160     		str	r1, [r0, #8]
 632              		.loc 1 137 0
 633 0008 0360     		str	r3, [r0]
 634              		.loc 1 139 0
 635 000a C360     		str	r3, [r0, #12]
 636              		.loc 1 143 0
 637 000c 1030     		adds	r0, r0, #16
 638              	.LVL4:
 639              		.loc 1 141 0
 640 000e 4A60     		str	r2, [r1, #4]
 641              		.loc 1 140 0
 642 0010 0B60     		str	r3, [r1]
 643              		.loc 1 143 0
 644 0012 FFF7FEBF 		b	chMtxObjectInit
 645              	.LVL5:
 646              		.cfi_endproc
 647              	.LFE189:
 648              		.size	chHeapObjectInit, .-chHeapObjectInit
 649 0016 00BFAFF3 		.section	.text.chHeapAllocAligned,"ax",%progbits
 649      0080AFF3 
 649      0080
 650              		.align	2
 651              		.p2align 4,,15
 652              		.global	chHeapAllocAligned
 653              		.thumb
 654              		.thumb_func
 655              		.type	chHeapAllocAligned, %function
 656              	chHeapAllocAligned:
 657              	.LFB190:
 658              		.loc 1 166 0
 659              		.cfi_startproc
 660              		@ args = 0, pretend = 0, frame = 8
 661              		@ frame_needed = 0, uses_anonymous_args = 0
 662              	.LVL6:
 663 0000 2DE9F04F 		push	{r4, r5, r6, r7, r8, r9, r10, fp, lr}
 664              		.cfi_def_cfa_offset 36
 665              		.cfi_offset 4, -36
ARM GAS  /tmp/ccIxHdDp.s 			page 47


 666              		.cfi_offset 5, -32
 667              		.cfi_offset 6, -28
 668              		.cfi_offset 7, -24
 669              		.cfi_offset 8, -20
 670              		.cfi_offset 9, -16
 671              		.cfi_offset 10, -12
 672              		.cfi_offset 11, -8
 673              		.cfi_offset 14, -4
 674              		.loc 1 174 0
 675 0004 40F20009 		movw	r9, #:lower16:.LANCHOR0
 676 0008 C0F20009 		movt	r9, #:upper16:.LANCHOR0
 677 000c 0028     		cmp	r0, #0
 678 000e 18BF     		it	ne
 679 0010 8146     		movne	r9, r0
 680              	.LVL7:
 681              		.loc 1 166 0
 682 0012 83B0     		sub	sp, sp, #12
 683              		.cfi_def_cfa_offset 48
 684              		.loc 1 186 0
 685 0014 09F11003 		add	r3, r9, #16
 686              		.loc 1 166 0
 687 0018 0191     		str	r1, [sp, #4]
 688              		.loc 1 179 0
 689 001a 072A     		cmp	r2, #7
 690 001c 8CBF     		ite	hi
 691 001e 9046     		movhi	r8, r2
 692 0020 4FF00808 		movls	r8, #8
 693              	.LVL8:
 694              		.loc 1 183 0
 695 0024 0731     		adds	r1, r1, #7
 696              	.LVL9:
 697              		.loc 1 186 0
 698 0026 1846     		mov	r0, r3
 699 0028 0093     		str	r3, [sp]
 700              		.loc 1 183 0
 701 002a 4FEAD10B 		lsr	fp, r1, #3
 702              	.LVL10:
 703              		.loc 1 189 0
 704 002e 09F10807 		add	r7, r9, #8
 705              		.loc 1 186 0
 706 0032 FFF7FEFF 		bl	chMtxLock
 707              	.LVL11:
 708              		.loc 1 196 0
 709 0036 C8F1000C 		rsb	ip, r8, #0
 710              		.loc 1 190 0
 711 003a 0DE0     		b	.L6
 712              	.LVL12:
 713              	.L13:
 714              		.loc 1 198 0
 715 003c 5A68     		ldr	r2, [r3, #4]
 716 003e 511C     		adds	r1, r2, #1
 717 0040 C900     		lsls	r1, r1, #3
 718 0042 A1F10800 		sub	r0, r1, #8
 719 0046 1944     		add	r1, r1, r3
 720 0048 0544     		add	r5, r5, r0
 721 004a 8C42     		cmp	r4, r1
 722 004c 4FEAE505 		asr	r5, r5, #3
ARM GAS  /tmp/ccIxHdDp.s 			page 48


 723 0050 01D2     		bcs	.L7
 724              		.loc 1 198 0 is_stmt 0 discriminator 1
 725 0052 AB45     		cmp	fp, r5
 726 0054 22D9     		bls	.L19
 727              	.L7:
 728 0056 1F46     		mov	r7, r3
 729              	.LVL13:
 730              	.L6:
 731              		.loc 1 190 0 is_stmt 1 discriminator 1
 732 0058 3B68     		ldr	r3, [r7]
 733              	.LVL14:
 734              		.loc 1 196 0 discriminator 1
 735 005a DE1D     		adds	r6, r3, #7
 736 005c 4644     		add	r6, r6, r8
 737 005e 0CEA0606 		and	r6, ip, r6
 738 0062 A6F10804 		sub	r4, r6, #8
 739              	.LVL15:
 740              		.loc 1 198 0 discriminator 1
 741 0066 1D1B     		subs	r5, r3, r4
 742              		.loc 1 196 0 discriminator 1
 743 0068 03F1080A 		add	r10, r3, #8
 744              		.loc 1 190 0 discriminator 1
 745 006c 002B     		cmp	r3, #0
 746 006e E5D1     		bne	.L13
 747              		.loc 1 258 0
 748 0070 0098     		ldr	r0, [sp]
 749 0072 FFF7FEFF 		bl	chMtxUnlock
 750              	.LVL16:
 751              		.loc 1 262 0
 752 0076 D9F80030 		ldr	r3, [r9]
 753 007a 002B     		cmp	r3, #0
 754 007c 47D0     		beq	.L16
 755              		.loc 1 263 0
 756 007e 0BF10100 		add	r0, fp, #1
 757 0082 C000     		lsls	r0, r0, #3
 758 0084 4146     		mov	r1, r8
 759 0086 0822     		movs	r2, #8
 760 0088 9847     		blx	r3
 761              	.LVL17:
 762              		.loc 1 266 0
 763 008a 20B1     		cbz	r0, .L12
 764              	.LVL18:
 765              		.loc 1 269 0
 766 008c 019B     		ldr	r3, [sp, #4]
 767              		.loc 1 268 0
 768 008e 40F8089C 		str	r9, [r0, #-8]
 769              		.loc 1 269 0
 770 0092 40F8043C 		str	r3, [r0, #-4]
 771              	.LVL19:
 772              	.L12:
 773              		.loc 1 278 0
 774 0096 03B0     		add	sp, sp, #12
 775              		@ sp needed
 776 0098 BDE8F08F 		pop	{r4, r5, r6, r7, r8, r9, r10, fp, pc}
 777              	.LVL20:
 778              	.L19:
 779              		.loc 1 202 0
ARM GAS  /tmp/ccIxHdDp.s 			page 49


 780 009c 9C42     		cmp	r4, r3
 781 009e AE46     		mov	lr, r5
 782 00a0 19D8     		bhi	.L20
 783              		.loc 1 226 0
 784 00a2 9345     		cmp	fp, r2
 785 00a4 2FD0     		beq	.L21
 786              	.LBB2:
 787              		.loc 1 234 0
 788 00a6 0BF10101 		add	r1, fp, #1
 789              	.LVL21:
 790              		.loc 1 235 0
 791 00aa 1A68     		ldr	r2, [r3]
 792              		.loc 1 236 0
 793 00ac A0EBC100 		sub	r0, r0, r1, lsl #3
 794 00b0 C510     		asrs	r5, r0, #3
 795 00b2 03EBC100 		add	r0, r3, r1, lsl #3
 796              	.LVL22:
 797              		.loc 1 235 0
 798 00b6 43F83120 		str	r2, [r3, r1, lsl #3]
 799              		.loc 1 237 0
 800 00ba 1C46     		mov	r4, r3
 801              	.LVL23:
 802              		.loc 1 236 0
 803 00bc 4560     		str	r5, [r0, #4]
 804              		.loc 1 237 0
 805 00be 3860     		str	r0, [r7]
 806              	.LVL24:
 807              	.L10:
 808              	.LBE2:
 809              		.loc 1 242 0
 810 00c0 019B     		ldr	r3, [sp, #4]
 811              		.loc 1 246 0
 812 00c2 0098     		ldr	r0, [sp]
 813              		.loc 1 242 0
 814 00c4 6360     		str	r3, [r4, #4]
 815              		.loc 1 243 0
 816 00c6 C4F80090 		str	r9, [r4]
 817              		.loc 1 246 0
 818 00ca FFF7FEFF 		bl	chMtxUnlock
 819              	.LVL25:
 820              		.loc 1 249 0
 821 00ce 5046     		mov	r0, r10
 822              		.loc 1 278 0
 823 00d0 03B0     		add	sp, sp, #12
 824              		@ sp needed
 825 00d2 BDE8F08F 		pop	{r4, r5, r6, r7, r8, r9, r10, fp, pc}
 826              	.LVL26:
 827              	.L20:
 828              	.LBB3:
 829              		.loc 1 208 0
 830 00d6 AB45     		cmp	fp, r5
 831              		.loc 1 207 0
 832 00d8 CAEB0402 		rsb	r2, r10, r4
 833 00dc 4FEAE202 		asr	r2, r2, #3
 834              	.LBB4:
 835              		.loc 1 217 0
 836 00e0 3EBF     		ittt	cc
ARM GAS  /tmp/ccIxHdDp.s 			page 50


 837 00e2 1D68     		ldrcc	r5, [r3]
 838              	.LVL27:
 839              		.loc 1 213 0
 840 00e4 0BF10100 		addcc	r0, fp, #1
 841              		.loc 1 214 0
 842 00e8 6FEA0B01 		mvncc	r1, fp
 843              	.LBE4:
 844              		.loc 1 207 0
 845 00ec 5A60     		str	r2, [r3, #4]
 846              	.LBB5:
 847              		.loc 1 214 0
 848 00ee 3DBF     		ittte	cc
 849 00f0 7144     		addcc	r1, r1, lr
 850              		.loc 1 213 0
 851 00f2 04EBC002 		addcc	r2, r4, r0, lsl #3
 852              	.LVL28:
 853              		.loc 1 214 0
 854 00f6 5160     		strcc	r1, [r2, #4]
 855 00f8 B246     		movcs	r10, r6
 856              		.loc 1 217 0
 857 00fa 3EBF     		ittt	cc
 858 00fc 44F83050 		strcc	r5, [r4, r0, lsl #3]
 859 0100 B246     		movcc	r10, r6
 860              		.loc 1 218 0
 861 0102 1A60     		strcc	r2, [r3]
 862 0104 DCE7     		b	.L10
 863              	.LVL29:
 864              	.L21:
 865              	.LBE5:
 866              	.LBE3:
 867              		.loc 1 228 0
 868 0106 1A68     		ldr	r2, [r3]
 869 0108 1C46     		mov	r4, r3
 870              	.LVL30:
 871 010a 3A60     		str	r2, [r7]
 872 010c D8E7     		b	.L10
 873              	.LVL31:
 874              	.L16:
 875              		.loc 1 277 0
 876 010e 1846     		mov	r0, r3
 877 0110 C1E7     		b	.L12
 878              		.cfi_endproc
 879              	.LFE190:
 880              		.size	chHeapAllocAligned, .-chHeapAllocAligned
 881 0112 00BFAFF3 		.section	.text.chHeapFree,"ax",%progbits
 881      0080AFF3 
 881      0080AFF3 
 881      0080
 882              		.align	2
 883              		.p2align 4,,15
 884              		.global	chHeapFree
 885              		.thumb
 886              		.thumb_func
 887              		.type	chHeapFree, %function
 888              	chHeapFree:
 889              	.LFB191:
 890              		.loc 1 287 0
ARM GAS  /tmp/ccIxHdDp.s 			page 51


 891              		.cfi_startproc
 892              		@ args = 0, pretend = 0, frame = 0
 893              		@ frame_needed = 0, uses_anonymous_args = 0
 894              	.LVL32:
 895 0000 F8B5     		push	{r3, r4, r5, r6, r7, lr}
 896              		.cfi_def_cfa_offset 24
 897              		.cfi_offset 3, -24
 898              		.cfi_offset 4, -20
 899              		.cfi_offset 5, -16
 900              		.cfi_offset 6, -12
 901              		.cfi_offset 7, -8
 902              		.cfi_offset 14, -4
 903              		.loc 1 300 0
 904 0002 50F8043C 		ldr	r3, [r0, #-4]
 905              		.loc 1 296 0
 906 0006 50F8084C 		ldr	r4, [r0, #-8]
 907              		.loc 1 300 0
 908 000a 0733     		adds	r3, r3, #7
 909              		.loc 1 301 0
 910 000c DB08     		lsrs	r3, r3, #3
 911              		.loc 1 304 0
 912 000e 04F11006 		add	r6, r4, #16
 913              		.loc 1 300 0
 914 0012 40F8043C 		str	r3, [r0, #-4]
 915              		.loc 1 287 0
 916 0016 0546     		mov	r5, r0
 917              		.loc 1 297 0
 918 0018 0834     		adds	r4, r4, #8
 919              		.loc 1 304 0
 920 001a 3046     		mov	r0, r6
 921              	.LVL33:
 922 001c FFF7FEFF 		bl	chMtxLock
 923              	.LVL34:
 924              		.loc 1 294 0
 925 0020 A5F10801 		sub	r1, r5, #8
 926              	.LVL35:
 927              		.loc 1 297 0
 928 0024 2346     		mov	r3, r4
 929              	.LVL36:
 930              	.L29:
 931              		.loc 1 309 0
 932 0026 A342     		cmp	r3, r4
 933 0028 04D0     		beq	.L23
 934              	.L34:
 935              		.loc 1 309 0 is_stmt 0 discriminator 2
 936 002a 8B42     		cmp	r3, r1
 937 002c 02D3     		bcc	.L23
 938 002e 1B68     		ldr	r3, [r3]
 939              	.LVL37:
 940              		.loc 1 309 0
 941 0030 A342     		cmp	r3, r4
 942 0032 FAD1     		bne	.L34
 943              	.L23:
 944              		.loc 1 310 0 is_stmt 1 discriminator 1
 945 0034 1A68     		ldr	r2, [r3]
 946              		.loc 1 309 0 discriminator 1
 947 0036 1AB1     		cbz	r2, .L25
ARM GAS  /tmp/ccIxHdDp.s 			page 52


 948              		.loc 1 310 0
 949 0038 9142     		cmp	r1, r2
 950 003a 01D3     		bcc	.L25
 951 003c 1346     		mov	r3, r2
 952              	.LVL38:
 953              		.loc 1 328 0
 954 003e F2E7     		b	.L29
 955              	.LVL39:
 956              	.L25:
 957              		.loc 1 315 0
 958 0040 55F8040C 		ldr	r0, [r5, #-4]
 959              		.loc 1 312 0
 960 0044 45F8082C 		str	r2, [r5, #-8]
 961              		.loc 1 313 0
 962 0048 1960     		str	r1, [r3]
 963              		.loc 1 315 0
 964 004a 421C     		adds	r2, r0, #1
 965 004c 55F8087C 		ldr	r7, [r5, #-8]
 966 0050 01EBC204 		add	r4, r1, r2, lsl #3
 967              	.LVL40:
 968 0054 BC42     		cmp	r4, r7
 969 0056 0AD0     		beq	.L35
 970              		.loc 1 320 0
 971 0058 5A68     		ldr	r2, [r3, #4]
 972 005a 501C     		adds	r0, r2, #1
 973 005c 03EBC000 		add	r0, r3, r0, lsl #3
 974 0060 8142     		cmp	r1, r0
 975 0062 13D0     		beq	.L36
 976              	.L28:
 977              		.loc 1 331 0
 978 0064 3046     		mov	r0, r6
 979              		.loc 1 334 0
 980 0066 BDE8F840 		pop	{r3, r4, r5, r6, r7, lr}
 981              	.LVL41:
 982              		.loc 1 331 0
 983 006a FFF7FEBF 		b	chMtxUnlock
 984              	.LVL42:
 985              	.L35:
 986              		.loc 1 317 0
 987 006e 6468     		ldr	r4, [r4, #4]
 988              		.loc 1 318 0
 989 0070 51F83220 		ldr	r2, [r1, r2, lsl #3]
 990              		.loc 1 317 0
 991 0074 2044     		add	r0, r0, r4
 992 0076 0130     		adds	r0, r0, #1
 993 0078 45F8040C 		str	r0, [r5, #-4]
 994              		.loc 1 318 0
 995 007c 45F8082C 		str	r2, [r5, #-8]
 996              		.loc 1 320 0
 997 0080 5A68     		ldr	r2, [r3, #4]
 998 0082 501C     		adds	r0, r2, #1
 999 0084 03EBC000 		add	r0, r3, r0, lsl #3
 1000 0088 8142     		cmp	r1, r0
 1001 008a EBD1     		bne	.L28
 1002              	.L36:
 1003              		.loc 1 322 0
 1004 008c 55F8040C 		ldr	r0, [r5, #-4]
ARM GAS  /tmp/ccIxHdDp.s 			page 53


 1005              		.loc 1 323 0
 1006 0090 55F8081C 		ldr	r1, [r5, #-8]
 1007              	.LVL43:
 1008              		.loc 1 322 0
 1009 0094 0244     		add	r2, r2, r0
 1010 0096 0132     		adds	r2, r2, #1
 1011              		.loc 1 323 0
 1012 0098 83E80600 		stmia	r3, {r1, r2}
 1013              		.loc 1 331 0
 1014 009c 3046     		mov	r0, r6
 1015              		.loc 1 334 0
 1016 009e BDE8F840 		pop	{r3, r4, r5, r6, r7, lr}
 1017              	.LVL44:
 1018              		.loc 1 331 0
 1019 00a2 FFF7FEBF 		b	chMtxUnlock
 1020              	.LVL45:
 1021              		.cfi_endproc
 1022              	.LFE191:
 1023              		.size	chHeapFree, .-chHeapFree
 1024 00a6 00BFAFF3 		.section	.text.chHeapStatus,"ax",%progbits
 1024      0080AFF3 
 1024      0080
 1025              		.align	2
 1026              		.p2align 4,,15
 1027              		.global	chHeapStatus
 1028              		.thumb
 1029              		.thumb_func
 1030              		.type	chHeapStatus, %function
 1031              	chHeapStatus:
 1032              	.LFB192:
 1033              		.loc 1 351 0
 1034              		.cfi_startproc
 1035              		@ args = 0, pretend = 0, frame = 0
 1036              		@ frame_needed = 0, uses_anonymous_args = 0
 1037              	.LVL46:
 1038              		.loc 1 356 0
 1039 0000 40F20003 		movw	r3, #:lower16:.LANCHOR0
 1040 0004 C0F20003 		movt	r3, #:upper16:.LANCHOR0
 1041              		.loc 1 351 0
 1042 0008 2DE9F047 		push	{r4, r5, r6, r7, r8, r9, r10, lr}
 1043              		.cfi_def_cfa_offset 32
 1044              		.cfi_offset 4, -32
 1045              		.cfi_offset 5, -28
 1046              		.cfi_offset 6, -24
 1047              		.cfi_offset 7, -20
 1048              		.cfi_offset 8, -16
 1049              		.cfi_offset 9, -12
 1050              		.cfi_offset 10, -8
 1051              		.cfi_offset 14, -4
 1052              		.loc 1 356 0
 1053 000c 0028     		cmp	r0, #0
 1054 000e 14BF     		ite	ne
 1055 0010 0446     		movne	r4, r0
 1056 0012 1C46     		moveq	r4, r3
 1057              	.LVL47:
 1058              		.loc 1 359 0
 1059 0014 04F11008 		add	r8, r4, #16
ARM GAS  /tmp/ccIxHdDp.s 			page 54


 1060 0018 4046     		mov	r0, r8
 1061              		.loc 1 351 0
 1062 001a 8A46     		mov	r10, r1
 1063 001c 9146     		mov	r9, r2
 1064              		.loc 1 359 0
 1065 001e FFF7FEFF 		bl	chMtxLock
 1066              	.LVL48:
 1067              		.loc 1 364 0
 1068 0022 A368     		ldr	r3, [r4, #8]
 1069 0024 E3B1     		cbz	r3, .L44
 1070              		.loc 1 361 0
 1071 0026 0025     		movs	r5, #0
 1072              		.loc 1 360 0
 1073 0028 2F46     		mov	r7, r5
 1074              		.loc 1 362 0
 1075 002a 2E46     		mov	r6, r5
 1076              	.LVL49:
 1077              	.L40:
 1078              		.loc 1 364 0
 1079 002c 18CB     		ldmia	r3, {r3, r4}
 1080              	.LBB6:
 1081              		.loc 1 368 0
 1082 002e 0136     		adds	r6, r6, #1
 1083              	.LVL50:
 1084              		.loc 1 369 0
 1085 0030 2744     		add	r7, r7, r4
 1086              	.LVL51:
 1087 0032 A542     		cmp	r5, r4
 1088 0034 38BF     		it	cc
 1089 0036 2546     		movcc	r5, r4
 1090              	.LVL52:
 1091              	.LBE6:
 1092              		.loc 1 364 0
 1093 0038 002B     		cmp	r3, #0
 1094 003a F7D1     		bne	.L40
 1095              	.LVL53:
 1096              	.L39:
 1097              		.loc 1 378 0
 1098 003c BAF1000F 		cmp	r10, #0
 1099 0040 02D0     		beq	.L41
 1100              		.loc 1 379 0
 1101 0042 FF00     		lsls	r7, r7, #3
 1102 0044 CAF80070 		str	r7, [r10]
 1103              	.L41:
 1104              		.loc 1 383 0
 1105 0048 B9F1000F 		cmp	r9, #0
 1106 004c 02D0     		beq	.L42
 1107              		.loc 1 384 0
 1108 004e ED00     		lsls	r5, r5, #3
 1109 0050 C9F80050 		str	r5, [r9]
 1110              	.L42:
 1111              		.loc 1 386 0
 1112 0054 4046     		mov	r0, r8
 1113 0056 FFF7FEFF 		bl	chMtxUnlock
 1114              	.LVL54:
 1115              		.loc 1 389 0
 1116 005a 3046     		mov	r0, r6
ARM GAS  /tmp/ccIxHdDp.s 			page 55


 1117 005c BDE8F087 		pop	{r4, r5, r6, r7, r8, r9, r10, pc}
 1118              	.LVL55:
 1119              	.L44:
 1120              		.loc 1 361 0
 1121 0060 1D46     		mov	r5, r3
 1122              		.loc 1 360 0
 1123 0062 1F46     		mov	r7, r3
 1124              		.loc 1 362 0
 1125 0064 1E46     		mov	r6, r3
 1126 0066 E9E7     		b	.L39
 1127              		.cfi_endproc
 1128              	.LFE192:
 1129              		.size	chHeapStatus, .-chHeapStatus
 1130 0068 AFF30080 		.section	.bss.default_heap,"aw",%nobits
 1130      AFF30080 
 1131              		.align	3
 1132              		.set	.LANCHOR0,. + 0
 1133              		.type	default_heap, %object
 1134              		.size	default_heap, 32
 1135              	default_heap:
 1136 0000 00000000 		.space	32
 1136      00000000 
 1136      00000000 
 1136      00000000 
 1136      00000000 
 1137              		.text
 1138              	.Letext0:
 1139              		.file 2 "/usr/lib/gcc/arm-none-eabi/4.8.2/include/stddef.h"
 1140              		.file 3 "/usr/include/newlib/machine/_default_types.h"
 1141              		.file 4 "/usr/include/newlib/stdint.h"
 1142              		.file 5 "../../../os/common/ports/ARMCMx/compilers/GCC/chtypes.h"
 1143              		.file 6 "../../../os/rt/include/chsystypes.h"
 1144              		.file 7 "../../../os/rt/include/chschd.h"
 1145              		.file 8 "../../../os/common/ports/ARMCMx/chcore.h"
 1146              		.file 9 "../../../os/common/ports/ARMCMx/chcore_v7m.h"
 1147              		.file 10 "../../../os/rt/include/chsem.h"
 1148              		.file 11 "../../../os/rt/include/chmtx.h"
 1149              		.file 12 "../../../os/common/oslib/include/chmemcore.h"
 1150              		.file 13 "../../../os/common/oslib/include/chheap.h"
 1151              		.file 14 "../../../os/common/ext/CMSIS/include/core_cm3.h"