ARM GAS  /tmp/ccOwAp6l.s 			page 1


   1              		.syntax unified
   2              		.cpu cortex-m3
   3              		.fpu softvfp
   4              		.eabi_attribute 20, 1
   5              		.eabi_attribute 21, 1
   6              		.eabi_attribute 23, 3
   7              		.eabi_attribute 24, 1
   8              		.eabi_attribute 25, 1
   9              		.eabi_attribute 26, 1
  10              		.eabi_attribute 30, 2
  11              		.eabi_attribute 34, 1
  12              		.eabi_attribute 18, 4
  13              		.thumb
  14              		.file	"chregistry.c"
  15              		.text
  16              	.Ltext0:
  17              		.section	.gnu.lto_.jmpfuncs.66e332150b0db3d5,"",%progbits
  18 0000 789C6362 		.ascii	"x\234cb`b\300\006\224\2404+\003\003\023##\003\0033\210"
  18      6062C006 
  18      94A0342B 
  18      03031323 
  18      23030333 
  19 0015 002A6506 		.ascii	"\000*e\006\212\22510\260\200\270\254 \202\001\000\017"
  19      8A953130 
  19      B080B8AC 
  19      20820100 
  19      0F
  20 0026 B600BD   		.ascii	"\266\000\275"
  21              		.text
  22              		.section	.gnu.lto_.inline.66e332150b0db3d5,"",%progbits
  23 0000 789C6362 		.ascii	"x\234cb`b\300\006z\2404+\003\003'\007#\003\023\317\203"
  23      6062C006 
  23      7AA0342B 
  23      03032707 
  23      230313CF 
  24 0015 5806B605 		.ascii	"X\006\266\005\362`\305L\014\274\242@!\376\005%\014\354"
  24      F260C54C 
  24      0CBCA240 
  24      21FE0525 
  24      0CEC
  25 0027 1DEA1021 		.ascii	"\035\352\020!n\006\006\306\011~\314\014\242\327\230"
  25      6E0606C6 
  25      097ECC0C 
  25      A2D798
  26 0036 80526287 		.ascii	"\200Rb\207\216\262\303\2253\3630\202\344Xx\201\022\023"
  26      8EB2C395 
  26      33F33082 
  26      E4587881 
  26      1213
  27 0048 FC3EB0B1 		.ascii	"\374>\260\2610\010lg\004\262E\376LfCW\304\312 x\210"
  27      30086C67 
  27      04B245FE 
  27      4C664357 
  27      C4CA2078 
  28 005d 1187010C 		.ascii	"\021\207\001\014\000r-\024A"
  28      00722D14 
  28      41
ARM GAS  /tmp/ccOwAp6l.s 			page 2


  29              		.text
  30              		.section	.gnu.lto_.pureconst.66e332150b0db3d5,"",%progbits
  31 0000 789C6362 		.ascii	"x\234cb`b\340f\200\000V\006+&+f+\026+V+\000\007]\001"
  31      6062E066 
  31      80005606 
  31      2B262B66 
  31      2B162B56 
  32 0019 45       		.ascii	"E"
  33              		.text
  34              		.section	.gnu.lto_chRegFirstThread.66e332150b0db3d5,"",%progbits
  35 0000 789C8552 		.ascii	"x\234\205RMh\023Q\020\236y\233\264i\202P\274)\222.\212"
  35      4D681351 
  35      109E799B 
  35      B4698250 
  35      BC29922E 
  36 0015 A056B3F6 		.ascii	"\240V\263\366 ^\225\236z\310\301\246\202^,\333uI\026"
  36      205E959E 
  36      7AC8C1A6 
  36      825E2CDB 
  36      754916
  37 0028 BA49D94D 		.ascii	"\272I\331MK\203\207\276\374\034\352\255\024\017\325"
  37      4B8387BE 
  37      FC1CEAAD 
  37      140FD5
  38 0037 12B4546B 		.ascii	"\022\264Tk\253\242GA\021\326\223\026L\244\236\304S\020"
  38      ABA24741 
  38      11D69316 
  38      4CA49EC4 
  38      5310
  39 0049 3C54BC88 		.ascii	"<T\274\210\027)B\234\267\177&A\332Mv\337\354\233\231"
  39      1729429C 
  39      B77F2641 
  39      DA4D76DF 
  39      EC9B99
  40 005c EFFB76BE 		.ascii	"\357\373v\276\307\200A\357u\204\356\033\022\300;ZQ\002"
  40      C78041EF 
  40      7584EE1B 
  40      12C03B5A 
  40      5102
  41 006e 644B4D80 		.ascii	"dKM\200r\214!\212\000\020\026\030.\\GQ\212\307a\215"
  41      728C218A 
  41      00101618 
  41      2E5C4751 
  41      8AC7618D 
  42 0082 F3E5D6B7 		.ascii	"\363\345\326\267\365]\274\313\235\332\003\376\247\335"
  42      F55DBCCB 
  42      9DDA03FE 
  42      A7DD
  43 0090 46349060 		.ascii	"F4\220`O h\010\327\350\005ewa\221n\236\027\314i\265"
  43      4F206808 
  43      D7E80565 
  43      7761916E 
  43      9E17CC69 
  44 00a5 DB3F7636 		.ascii	"\333?v6\277n\341\341\270\004*\256\021^\004\014\224\242"
  44      BF6EE1E1 
  44      B8042AAE 
  44      115E040C 
ARM GAS  /tmp/ccOwAp6l.s 			page 3


  44      94A2
  45 00b7 E2412551 		.ascii	"\342A%Q\250q\276${\031\020xtM\320S(\271\212L\254\322"
  45      A871BE24 
  45      7B191078 
  45      744DD053 
  45      28B98A4C 
  46 00cd 36546200 		.ascii	"6Tb\000\276\222\372V\343-.W\371{^sH\312\220\201\021"
  46      BE92FA56 
  46      E32D2E57 
  46      F97B5E73 
  46      48CA9081 
  47 00e2 263AF697 		.ascii	"&:\366\227\"\366\"2\005M\250\374|U\3358\352\023\007"
  47      22F62232 
  47      054DA8FC 
  47      7C55DD38 
  47      EA1307
  48 00f5 0A9CD79F 		.ascii	"\012\234\327\237V\245S*>te\370{\277\356\374N\034\013"
  48      56A5532A 
  48      3E7465F8 
  48      7BBFEEFC 
  48      4E1C0B
  49 0108 DFB63FD0 		.ascii	"\337\266?\320$U\\\307(q\011>F\267\344\016\211~\317("
  49      24555CC7 
  49      2871093E 
  49      46B7E40E 
  49      897ECF28 
  50 011c A4BCE48D 		.ascii	"\244\274\344\215;\011o\260\316W.\031T\334\311\376/\357"
  50      3B096FB0 
  50      CE572E19 
  50      54DCC9FE 
  50      2FEF
  51 012e F8F93E4F 		.ascii	"\370\371>O_\003*_>o\214x\360Y\224\206\341\011\247\353"
  51      5F032A5F 
  51      3E6F8C78 
  51      F0599486 
  51      E109A7EB 
  52 0142 0A0DDA0F 		.ascii	"\012\015\332\017/\030\330\277\012\367\312\234\017\032"
  52      2F18D8BF 
  52      0AF7CA9C 
  52      0F1A
  53 0150 18BB057B 		.ascii	"\030\273\005{|QD\003&\006\014\003.\322\024\202\277\372"
  53      7C514403 
  53      26060C03 
  53      2ED21482 
  53      BFFA
  54 0162 01D0F89C 		.ascii	"\001\320\370\234>\017\331\233sV\310\026\214+\217O\007"
  54      3E0FD99B 
  54      7356C816 
  54      8C2B8F4F 
  54      07
  55 0173 8C916138 		.ascii	"\214\221a8c`\234\030\010)A\025\0021@\012\216P\003\252"
  55      63609C18 
  55      08294115 
  55      0231400A 
  55      8E5003AA 
  56 0187 8BD57CD0 		.ascii	"\213\325|\320\022\245.Q\025G\357\003\306\274\204\257"
  56      12A52E51 
ARM GAS  /tmp/ccOwAp6l.s 			page 4


  56      1547EF03 
  56      C6BC84AF 
  57 0197 3771005A 		.ascii	"7q\000ZV\214\246\333\331\335f\257\263*>r\307|\240\265"
  57      568CA6DB 
  57      D9DD66AF 
  57      B32A3E72 
  57      C77CA0B5 
  58 01ab B09FB5DF 		.ascii	"\260\237\265\337\353\302\332\227\335\326\336?\224\014"
  58      EBC2DA97 
  58      DDD6DE3F 
  58      940C
  59 01b9 8F5FB87D 		.ascii	"\217_\270}\373c\207\307.\250\346\206\2756\253\370\224"
  59      FB6387C7 
  59      2EA8E686 
  59      BD36ABF8 
  59      94
  60 01ca 829039B0 		.ascii	"\202\2209\260U\305\347\230\364T\355@\271\265\251\207"
  60      55C5E798 
  60      F454ED40 
  60      B9B5A987 
  61 01da 7E7A9B13 		.ascii	"~z\233\023\344\011\035hQ+\247R\212\367/\330\212UTlK"
  61      E4091D68 
  61      512BA752 
  61      8AF72FD8 
  61      8A55546C 
  62 01ef 53B49CA5 		.ascii	"S\264\234\245g\015\273h\225R\032\260\342\314\271\316"
  62      670DBB68 
  62      95521AB0 
  62      E2CCB9CE 
  63 01ff 1AAD609A 		.ascii	"\032\255`\232\205\2742S\260\212\266ry<=\232\236\247"
  63      85BC3253 
  63      B08AB672 
  63      793C3D9A 
  63      9EA7
  64 0211 06AD60E9 		.ascii	"\006\255`\351\223s\027\315T\016\242s\352\364\254>\362"
  64      937317CD 
  64      540EA273 
  64      EAF4AC3E 
  64      F2
  65 0222 9F1E7DBE 		.ascii	"\237\036}\276\250\214\2463c\031\305\310k\323\2637uE"
  65      A88CA633 
  65      6319C5C8 
  65      6BD3B337 
  65      7545
  66 0234 336DC39E 		.ascii	"3m\303\236\314j\032\365\015\365(\011krv\311\246\374"
  66      CC6A1AF5 
  66      0DF52809 
  66      6B7276C9 
  66      A6FC
  67 0246 603A332E 		.ascii	"`:3.O\251\266>c\031g\345\223\347\201Y\320o\352f\301"
  67      4FA9B63E 
  67      631967E5 
  67      93E78159 
  67      D06FEA66 
  68 025b 2AC15F2F 		.ascii	"*\301_/\216\377@"
  68      8EFF40
  69              		.text
ARM GAS  /tmp/ccOwAp6l.s 			page 5


  70              		.section	.gnu.lto_chRegNextThread.66e332150b0db3d5,"",%progbits
  71 0000 789C8553 		.ascii	"x\234\205SKHTQ\030\376\377s\357<R\013i\031\242C\021"
  71      4B485451 
  71      18FEFF73 
  71      EF3C520B 
  71      6919A243 
  72 0015 44963769 		.ascii	"D\2267i!\355\012W.f\243\011\265\222\353\3612^\360:r"
  72      21ED0A57 
  72      2E66A309 
  72      B592EBF1 
  72      325EF03A 
  73 002a EF289A0B 		.ascii	"\357(\232\013\217\316,\2146\"-2\021\223\036\320ShQ\213"
  73      8FCE2C8C 
  73      36222D32 
  73      11931ED0 
  73      5368518B 
  74 003e A066A085 		.ascii	"\240f\240\205B\332cS\266\032B)K\212VI\004\323\177\356"
  74      42DA6353 
  74      B61A4229 
  74      4B8A5649 
  74      04D37FEE 
  75 0052 CB71883C 		.ascii	"\313q\210<3\367\236\307\377\372\376\357|\227\001\203"
  75      33F79EC7 
  75      FFFAFEEF 
  75      7C970183 
  76 0062 CA719A9E 		.ascii	"\312q\232\236\357\012\300\022\315\030\001dS\253\000"
  76      EF0AC012 
  76      CD180164 
  76      53AB00
  77 0071 E371C6D4 		.ascii	"\343q\306\324<\202\250R\336\274\002\0205\012\252\336"
  77      3C82A852 
  77      DEBC0210 
  77      350AAADE 
  78 0081 B98A2817 		.ascii	"\271\212(\027\2000\306\024\025\307.\242L\202\207aA\210"
  78      8030C614 
  78      15C72EA2 
  78      4C828761 
  78      4188
  79 0093 E9E2C6E2 		.ascii	"\351\342\306\342&\316\210|\356\206\370S*!\232H\005\217"
  79      26CE887C 
  79      EE86F853 
  79      2A219A48 
  79      058F
  80 00a5 2070840B 		.ascii	" p\204\013\264\301\204;1u7\202E\226/\226J[\357\327?"
  80      B4C1843B 
  80      31753782 
  80      45962F96 
  80      4A5BEFD7 
  81 00ba 6DE1C103 		.ascii	"m\341\301\003\010:.P\276\010Z\010Q\177\023\003\023\225"
  81      083A2E50 
  81      BE085A08 
  81      517F1303 
  81      1395
  82 00cc B87C917F 		.ascii	"\270|\221\177\004rBL%<\213\205\004\200\273 \316\323"
  82      0472424C 
  82      253C8B85 
  82      0480BB20 
ARM GAS  /tmp/ccOwAp6l.s 			page 6


  82      CED3
  83 00de 5B62EB44 		.ascii	"[b\353D&ge\031&\342\000>\262\371\273+\005\234\316\212"
  83      26676519 
  83      26E2003E 
  83      B2F9BB2B 
  83      059CCE8A 
  84 00f2 2591CB13 		.ascii	"%\221\313\023\264\006\023UF\236{@\223gj\202\026\253"
  84      B4061355 
  84      469E7B40 
  84      93676A82 
  84      16AB
  85 0104 30F1F359 		.ascii	"0\361\363Y\366\316!\277v\000\"\377\342\335\254rL\307"
  85      F6CE21BF 
  85      760022FF 
  85      E2DDAC72 
  85      4CC7
  86 0116 5B84243C 		.ascii	"[\204$<\373uu\273\272.\334-\257\023\347:\336$n9\312"
  86      FB7575BB 
  86      BA2EDC2D 
  86      AF13E73A 
  86      DE246E39 
  87 012b 7A8C1EC5 		.ascii	"z\214\036\305%\215~\017iIv\305\273\230zx\216s\342\332"
  87      258D7E0F 
  87      694976C5 
  87      BB987A78 
  87      8E73E2DA 
  88 013f 59939CCB 		.ascii	"Y\223\234\313\253\357\330\013\276=\352\341[\201\211"
  88      ABEFD80B 
  88      BE3DEAE1 
  88      5B8189
  89 014e 8F1F1E9F 		.ascii	"\217\037\036\237\361\322\2470\332\010\367\004\215\026"
  89      F1D2A730 
  89      DA08F704 
  89      8D16
  90 015c 227E16AE 		.ascii	"\"~\026\256Sx,\205\021\231\306s\357\306\2401\342&\037"
  90      53782C85 
  90      1199C673 
  90      EFC6A031 
  90      E2261F
  91 016f F3C23C1E 		.ascii	"\363\302<\036S2\345\022\274\374\\\230\271\242\204\371"
  91      5332E512 
  91      BCFC5C98 
  91      B9A284F9 
  92 017f 46E1B798 		.ascii	"F\341\267\230\024b\320\304\270\237z\324\304}\026\262"
  92      1462D0C4 
  92      B89F7AD4 
  92      C47D16B2 
  93 018f 6E0C53ED 		.ascii	"n\014S\355\214Nj\206\344\242HT\333O\012\030\244\211"
  93      8C4E6A86 
  93      E4A24854 
  93      DB4F0A18 
  93      A489
  94 01a1 35C27113 		.ascii	"5\302q\023\253BD\321rD\201\"W ;\231\275\024\204\304"
  94      AB4244D1 
  94      72448122 
  94      57203B99 
  94      BD1484C4 
ARM GAS  /tmp/ccOwAp6l.s 			page 7


  95 01b5 294A7A55 		.ascii	")JzU\241\327e\233g\360A4\357\221\215\342\003Dj\231\024"
  95      A1D7659B 
  95      67F04134 
  95      EF918DE2 
  95      03446A99 
  96 01ca 824ED1ED 		.ascii	"\202N\321\355\277L\033\233\253\225\332\320\361\266{"
  96      BF4C1B9B 
  96      AB95DAD0 
  96      F1B67B
  97 01d9 517B8A03 		.ascii	"Q{\212\003\376'\216\257sR\034Ow\213c~\177}\250\341\360"
  97      FE278EAF 
  97      73521C4F 
  97      778B637E 
  97      7F7DA8E1 
  98 01ee F8F28F32 		.ascii	"\370\362\2172\225\270I\271\273\254\024\212\216\367i"
  98      95B849B9 
  98      BBAC148A 
  98      8EF769
  99 01fd 11560E84 		.ascii	"\021V\016\204\241\343#\254\367P\275\206\\\361\313\206"
  99      A1E323AC 
  99      F750BD86 
  99      5CF1CB86 
 100 020d 7FB700DE 		.ascii	"\177\267\000\336\015\326\232X\315}\321\220\"L\254\001"
 100      0DD69A58 
 100      CD7DD190 
 100      224CAC01 
 101 021d 780BE3C5 		.ascii	"x\013\343\305oF@\270\313\340\032\240O&\333Z\353!j\225"
 101      6F4640B8 
 101      CBE01AA0 
 101      4F26DB5A 
 101      EB216A95 
 102 0231 076B75F2 		.ascii	"\007ku\362\303B\311\242\254\224hj\322\274\177\332\321"
 102      C342C9A2 
 102      AC94686A 
 102      D2BC7FDA 
 102      D1
 103 0242 EC8CE6D8 		.ascii	"\354\214\346\330\\\343\275\266\2212\235\214=\322\304"
 103      5CE3BDB6 
 103      91329D8C 
 103      3DD2C4
 104 0251 41E9CF0C 		.ascii	"A\351\317\014\234,w\342i\313J\367k\003i;\343h\347\332"
 104      9C2C77E2 
 104      69CB4AF7 
 104      6B03693B 
 104      E368E7DA 
 105 0265 93ADC961 		.ascii	"\223\255\311a\212\340i\333\350\032j\261\232z!2\244\367"
 105      8AE069DB 
 105      E81A6AB1 
 105      9A7A2132 
 105      A4F7
 106 0277 0D1ACDFF 		.ascii	"\015\032\315\377\2101\2063Zk\262\243\255C3\373y\337"
 106      88318633 
 106      5A6BB2A3 
 106      AD4333FB 
 106      79DF
 107 0289 608FA171 		.ascii	"`\217\241q\3131\235\256\024\347\024\327P\001%\364\351"
 107      CB319DAE 
ARM GAS  /tmp/ccOwAp6l.s 			page 8


 107      14E714D7 
 107      500125F4 
 107      E9
 108 029a 75461CB2 		.ascii	"uF\034\262\327&;\332\023\335\272c\014\330\346\211\304"
 108      D7263BDA 
 108      13DDBA63 
 108      0CD8E689 
 108      C4
 109 02ab D153C06C 		.ascii	"\321S\300l\210Y\206\225\266G\340/7\261&\207"
 109      88598695 
 109      B647E02F 
 109      37B12687 
 110              		.text
 111              		.section	.gnu.lto_chRegFindThreadByName.66e332150b0db3d5,"",%progbits
 112 0000 789C8D54 		.ascii	"x\234\215T]H\024Q\024>\347\316\356\354\352\256f\365"
 112      5D481451 
 112      143EE7CE 
 112      EEECEAAE 
 112      66F5
 113 0012 5261B6F4 		.ascii	"Ra\266\364\003\375:\371\020\275\026=\005\371P&\324S"
 113      03FD3AF9 
 113      10BD163D 
 113      05F95026 
 113      D453
 114 0024 8CD3320E 		.ascii	"\214\3232\0168\256\314l\242\024t]\015\352%\244z\260"
 114      38AECC6C 
 114      A214745D 
 114      0DEA25A4 
 114      7AB0
 115 0036 3234FA23 		.ascii	"24\372#3\214\336\312\2405\202Tr\245\236*z\220\"\304"
 115      338CDECA 
 115      A0358254 
 115      72A59E2A 
 115      7A9022C4 
 116 004a F041F1A1 		.ascii	"\360A\361\241\210\310\316\235;;\256R\331\335\235\271"
 116      88C8CE9D 
 116      3B3BAE52 
 116      D9DD9DB9 
 117 005a 3FE79CEF 		.ascii	"?\347\234\357|\347g.\003\006K\307!z\332\302\00034c\004"
 117      7CE7672E 
 117      03064BC7 
 117      217ADAC2 
 117      00333463 
 118 006f 9075E6E8 		.ascii	"\220u\346\350 \312P\221\013\205\205_(\300\213C\271Q"
 118      20CA5091 
 118      0B85855F 
 118      28C08B43 
 118      B951
 119 0081 001E0F31 		.ascii	"\000\036\0171\325[\024{\247qU\252a\030Q\314\200p\226"
 119      D55B147B 
 119      A77155AA 
 119      611851CC 
 119      807096
 120 0094 2921358C 		.ascii	")!5\214g\217\243@\307\215p\223\363K\023_>M\341U\236"
 120      678FA340 
 120      C78D7093 
 120      F34B135F 
ARM GAS  /tmp/ccOwAp6l.s 			page 9


 120      3E4DE155 
 121 00a9 EDE8E53F 		.ascii	"\355\350\345?\347\347\021-$&\233\020\014\204c\264\301"
 121      E7E7112D 
 121      24269B10 
 121      0C8463B4 
 121      C1
 122 00ba 8437B1D0 		.ascii	"\2047\261\320bj\003,;1?\337?\333\377\271\007W\257B\320"
 122      626A032C 
 122      3B313FDF 
 122      3FDBFFB9 
 122      0757AF42 
 123 00cf F126E131 		.ascii	"\361&\3411 \353\010\275\224(\332\010E\264\012\305|Y"
 123      20EB08BD 
 123      9428DA08 
 123      45B40AC5 
 123      7C59
 124 00e1 DC9F4BE8 		.ascii	"\334\237K\3500\\*^\004\023\206\016\316;\023R\002\302"
 124      305C2A5E 
 124      0413860E 
 124      CE3B1352 
 124      02C2
 125 00f3 278DA3F4 		.ascii	"'\215\243\364\236Q\241\026\031M\312\010d\242\000>\327"
 125      9E51A116 
 125      194DCA08 
 125      64A2003E 
 125      D7
 126 0104 9EFB6343 		.ascii	"\236\373cCx\251\235\017\363\216,\221\335`\241\312Hq"
 126      78A99D0F 
 126      F38E2C91 
 126      DD60A1CA 
 126      4871
 127 0116 19B2E24C 		.ascii	"\031\262\342LM\320\"\007\231\331\301\366\273\353|\267"
 127      4DD02207 
 127      99D9C1F6 
 127      BBEB7CB7 
 128 0126 79FFD9E7 		.ascii	"y\377\331\347o\257+[u\274\355\221\360\317\276]\371\036"
 128      6FAF2B5B 
 128      75BCED91 
 128      F0CFBE5D 
 128      F91E
 129 0138 2B0F7623 		.ascii	"+\017v#\257Y\300Vr\311\366\214^\\\313{3\235\374\027"
 129      AF59C056 
 129      72C9F68C 
 129      5E5CCB7B 
 129      339DFC17 
 130 014c 31F1B2F6 		.ascii	"1\361\262\366\020\227c\222\307\340\203\335\021\240\204"
 130      10976392 
 130      C7E083DD 
 130      11A084
 131 015b DCA22C18 		.ascii	"\334\242,\030\350EmP\270\006*\364x6H\277G\264%\267\212"
 131      E8456D50 
 131      B8062AF4 
 131      783648BF 
 131      47B425B7 
 132 0170 6C8D0A18 		.ascii	"l\215\012\030\302\033\274k\237E\255P\030\324\202\374"
 132      C21BBC6B 
 132      9F45AD50 
ARM GAS  /tmp/ccOwAp6l.s 			page 10


 132      18D482FC 
 133 0180 A52F8F4A 		.ascii	"\245/\217JWc\220\371\360\356n\225\216}\344\305\304\370"
 133      576390F9 
 133      F0EE6E95 
 133      8E7DE4C5 
 133      C4F8
 134 0192 0EE8E334 		.ascii	"\016\350\3434\016\023W\177\271\307\302\242\353p\255"
 134      0E13577F 
 134      B9C7C2A2 
 134      EB70AD
 135 01a1 8DF3320B 		.ascii	"\215\3632\013\213O\303\017~^\254b\266GIx\210yHub\253"
 135      8B4FC30F 
 135      7E5EAC62 
 135      B6474978 
 135      88794875 
 136 01b7 E34351B3 		.ascii	"\343CQ\263:!\363\327\000T\235\254*=\350\370\200\362"
 136      3A21F3D7 
 136      00549DAC 
 136      2A3DE8F8 
 136      80F2
 137 01c9 477EA4E7 		.ascii	"G~\244\347\256{\333\362\236Kv\300v\013\343\201\247\022"
 137      AE7BDBF2 
 137      9E4B76C0 
 137      760BE381 
 137      A712
 138 01db 5212E0E0 		.ascii	"R\022\340\340\203\263\002\3001h?\337\336\230\267,%c"
 138      83B302C0 
 138      31683FDF 
 138      DE98B72C 
 138      2563
 139 01ed A1194719 		.ascii	"\241\031G\031\317A)\360\351\307\376\017\224`<\242\005"
 139      CF4129F0 
 139      E9C7FE0F 
 139      94603CA2 
 139      05
 140 01fe 6D34955B 		.ascii	"m4\225[\332F:\336\361\012\260l\037\301\277\372\350\353"
 140      DA463ADE 
 140      F10AB06C 
 140      1FC1BFFA 
 140      E8EB
 141 0210 0DD14783 		.ascii	"\015\321G\203\213\373\250\247\244\"\350\235\340\370"
 141      8BFBA8A7 
 141      A422E89D 
 141      E0F8
 142 021e C2B847B0 		.ascii	"\302\270G\260\317k\200\260l\000\365\017\305\327q\200"
 142      CF6B80B0 
 142      6C00F50F 
 142      C5D77180 
 143 022e 1681E77C 		.ascii	"\026\201\347|\261u|\214\025\222\025E6qq\022e3\345\277"
 143      B1757C8C 
 143      15921545 
 143      36717112 
 143      6533E5BF 
 144 0242 24396AC9 		.ascii	"$9j\311\224\276}\377\033\2222S\324\217R\371\364\334"
 144      94BE7DFF 
 144      1B923253 
 144      D48F52F9 
ARM GAS  /tmp/ccOwAp6l.s 			page 11


 144      F4DC
 145 0254 40F77A91 		.ascii	"@\367z\221\234\010\245\220\340\025\022x\371[\263\000"
 145      9C08A590 
 145      E0151278 
 145      F95BB300 
 146 0264 DB351991 		.ascii	"\3335\031\221\26062\317nQ\026\237\344>>\306\313\205"
 146      B03632CF 
 146      6E51169F 
 146      E43E3EC6 
 146      CB85
 147 0276 592417FD 		.ascii	"Y$\027\375\313f\321\026\245\031\207s3\231\2713\022\335"
 147      CB66D116 
 147      A5198773 
 147      3399B933 
 147      12DD
 148 0288 C4A2A0F7 		.ascii	"\304\242\240\367J\015\331\336\202\230\211Q\013W\000"
 148      4A0DD9DE 
 148      82988951 
 148      0B5700
 149 0297 0CC3CBC9 		.ascii	"\014\303\313\311\266\252@W\200\026`\276\007\244\322"
 149      B6AA4057 
 149      801660BE 
 149      07A4D2
 150 02a6 B3E9D972 		.ascii	"\263\351\331r\023c\352\263\271\223\"\356\020\320U\250"
 150      1363EAB3 
 150      B99322EE 
 150      10D055A8 
 151 02b6 8C43286F 		.ascii	"\214C(o\025\013<\224\031\376\007b\212\313n\245\010\212"
 151      150B3C94 
 151      19FE0762 
 151      8ACB6EA5 
 151      088A
 152 02c8 1526CF14 		.ascii	"\025&\317\024M?\014\035\323COr\030\230/\264\226?\216"
 152      4D3F0C1D 
 152      D3434F72 
 152      18982FB4 
 152      963F8E
 153 02db 52417A5F 		.ascii	"RAz_\001\326\222\234\256\2517t\037\013H&)\211t)\335"
 153      01D6929C 
 153      AEA93774 
 153      1F0B4826 
 153      29897429 
 154 02f0 73E5BE59 		.ascii	"s\345\276Yhz..L\220T\205F\242\262R\223\377\224\2539"
 154      687A2E2E 
 154      4C905485 
 154      46A2B252 
 154      93FF94AB 
 155 0305 69CD750C 		.ascii	"i\315u\014\315\250w\222\246\345\246\235\326J\003\024"
 155      CDA87792 
 155      A6E5A69D 
 155      D64A0314 
 156 0315 23DDB4AB 		.ascii	"#\335\264\253P\311H\331v\252QkJ9iW\333\177\244\372@"
 156      50C948D9 
 156      76AA516B 
 156      4A396957 
 156      DB7FA4FA 
 157 032a 750B5918 		.ascii	"u\013Y\030)'y\242y\257]Y\017\341f\275\341T\262\352\017"
ARM GAS  /tmp/ccOwAp6l.s 			page 12


 157      292779A2 
 157      79AF5D59 
 157      0FE166BD 
 157      E154B2EA 
 158 033f 36C996B4 		.ascii	"6\311\226\264v\240\272\346`\215f5\032\015\247N&5\303"
 158      76A0BAE6 
 158      608D6635 
 158      1A0DA74E 
 158      2635C3
 159 0352 762DF784 		.ascii	"v-\367\204i\030d\267a\011\225@\247\336muI\316\322Me"
 159      691864B7 
 159      61099540 
 159      A7DE6D75 
 159      49CED24D 
 160 0367 D5354712 		.ascii	"\3255G\022u\272\233lr\254\235\211-\273\2019\020\261"
 160      75BA9B6C 
 160      72AC9D89 
 160      2DBB8139 
 160      10B1
 161 0379 9376CA69 		.ascii	"\223v\312i\205\315\1775\017\242\251\207\337\202r\217"
 161      85CD7F35 
 161      0FA2A987 
 161      DF82728F 
 162 0389 EE       		.ascii	"\356"
 163              		.text
 164              		.section	.gnu.lto_chRegFindThreadByPointer.66e332150b0db3d5,"",%progbits
 165 0000 789C8D54 		.ascii	"x\234\215TMHTQ\024>\347\2767o\234\037AhU\210\015EPY"
 165      4D485451 
 165      143EE7BE 
 165      376F9C1F 
 165      41685588 
 166 0018 BE5C44DB 		.ascii	"\276\\D\333\244\225\220\213R\241V\361|\015\317\007\216"
 166      A495908B 
 166      52A156F1 
 166      7C0DCF07 
 166      8E
 167 0029 23EF4DA2 		.ascii	"#\357M\242\264\360:3\213\332\224H\220\375\330\030\375"
 167      B4F03A33 
 167      8BDA9448 
 167      90FDD818 
 167      FD
 168 003a 1B61B46D 		.ascii	"\033a\264m\321\030EZ\376P\253\222\026B\0131\204jeVd"
 168      D118455A 
 168      FE50AB92 
 168      16420B31 
 168      846A6556 
 169 004f E7BEFBE6 		.ascii	"\347\276\373\3469\211dw~\356\271\367\234\357\234\357"
 169      39896477 
 169      7EEEB9F7 
 169      9CEF9CEF 
 170 005f DEFBDDCB 		.ascii	"\336\373\335\313\200\301\372v\224~\257T\2007\324c\030"
 170      80C1FA76 
 170      947EAF54 
 170      8037D463 
 170      18
 171 0070 900DCC00 		.ascii	"\220\015\314\000\364W0T\244\241\260\320s\005xT\235y"
 171      F4573054 
ARM GAS  /tmp/ccOwAp6l.s 			page 13


 171      A4A1B0D0 
 171      73057854 
 171      9D79
 172 0082 0DC0E32A 		.ascii	"\015\300\343*\323<#\352\315\3065\031\326\020B\024= "
 172      D33C23EA 
 172      CDC63519 
 172      D6104214 
 172      3D20
 173 0094 F43145D5 		.ascii	"\3641E\325B\330w\022Ev\334\00179\037\234\177\371e\021"
 173      42D87712 
 173      4576DC01 
 173      37391F9C 
 173      7FF96511 
 174 00a8 AFF0627E 		.ascii	"\257\360b~\204\377Z]E\264\221\230\354D0\021N\320\000"
 174      84FF5A5D 
 174      45B49198 
 174      EC443011 
 174      4ED000
 175 00bb 135EC7D4 		.ascii	"\023^\307\324\277\251\215\261\342\374\352\352\307\345"
 175      BFA98DB1 
 175      E2FCEAEA 
 175      C7E5
 176 00c9 FB9FE670 		.ascii	"\373\237\346pK\025\202\2017)\037\003B\2071\205\020\361"
 176      4B158281 
 176      37291F03 
 176      42873185 
 176      10F1
 177 00db 67A27E1F 		.ascii	"g\242~\037#\217\022\027\177\004\016A\236\363\201\204"
 177      238F1217 
 177      7F040E41 
 177      9EF38184 
 178 00eb F480A844 		.ascii	"\364\200\250D\255\205\376\277j\320\212\214:e\022\262"
 178      AD85FEBF 
 178      6AD08A8C 
 178      3A6512B2 
 179 00fb 15003EC3 		.ascii	"\025\000>\303\302\203\351q\034\314\361\011\236/\022"
 179      C283E971 
 179      1CCCF109 
 179      9E2F12
 180 010a C5ED36AA 		.ascii	"\305\3556\252\214\0027\241(\346\324\004\0313\220\375"
 180      8C0237A1 
 180      28E6D404 
 180      193390FD 
 181 011a F6347777 		.ascii	"\3664ww\233_\266T\277\370\354\3355e\267\201\267=\022"
 181      9B5FB654 
 181      BFF8ECDD 
 181      3565B781 
 181      B73D12
 182 012d FEDCF2A5 		.ascii	"\376\334\362\245\357\261\352`49\305\002\266\222K\261"
 182      EFB1EA60 
 182      3439C502 
 182      B6924BB1 
 183 013d F0FAC256 		.ascii	"\360\372\302V>\222\035\340\277\211\211\267W\217p3&\245"
 183      3E921DE0 
 183      BF8989B7 
 183      578F7033 
 183      26A5
ARM GAS  /tmp/ccOwAp6l.s 			page 14


 184 014f 1CFCDE8D 		.ascii	"\034\374\336\2150\320\206\334\302\020!\274U\233\264"
 184      30D086DC 
 184      C21021BC 
 184      559BB4
 185 015e 5C9336C5 		.ascii	"\\\2236\305D\017\203\364yLC*\253HA\324\3008\016\363"
 185      440F83F4 
 185      794C432A 
 185      AB4841D4 
 185      C0380EF3 
 186 0172 A1C33661 		.ascii	"\241\3036a\312\027\265\346\177\341\3735Yj\032\262s\357"
 186      CA17B5E6 
 186      7FE1FB35 
 186      596A1AB2 
 186      73EF
 187 0184 EFD61B38 		.ascii	"\357\326\0338J\010\013\243\2650\312\251\035#\256\276"
 187      4A080BA3 
 187      B530CAA9 
 187      1D23AEBE 
 188 0194 79D0C6F0 		.ascii	"y\320\306\3605\270\332\317y\225\215\025g\341\007?'\254"
 188      35B8DACF 
 188      79958D15 
 188      67E1073F 
 188      27AC
 189 01a6 48CAA324 		.ascii	"H\312\243$*D\274Lmbh\340#Q\271M\370|\033\200N\247\250"
 189      2A44BC4C 
 189      6D6268E0 
 189      2351B94D 
 189      F87C1B80 
 190 01bd C90A063E 		.ascii	"\311\012\006>\244\375\243:\262\362\320\275=\245\312"
 190      A4FDA33A 
 190      B2F2D0BD 
 190      3DA5CA
 191 01cc B15AD86B 		.ascii	"\261Z\330kc4\250\024\243 \221\034\374\344\254,\3414"
 191      6334A814 
 191      A320911C 
 191      FCE4AC2C 
 191      E134
 192 01de E4CEE53A 		.ascii	"\344\316\345:K\3108\201Ed\024\345z\032\245\303\247\037"
 192      4BC83881 
 192      456414E5 
 192      7A1AA5C3 
 192      A71F
 193 01f0 FBBFA494 		.ascii	"\373\277\244\224\306#Z&\243\305\231\36522\360\216w\000"
 193      C6235A26 
 193      A3C599F5 
 193      3232F08E 
 193      7700
 194 0202 9BEA08FE 		.ascii	"\233\352\010\376\245\243\317\303BGO\377\326Q\241\262"
 194      A5A3CFC3 
 194      42474FFF 
 194      D651A1B2 
 195 0212 26D04E30 		.ascii	"&\320N0}~\326#8\352\011 $\005\240mp\370\006\216\221"
 195      7D7ED623 
 195      38EA0920 
 195      2405A06D 
 195      70F8068E 
 196 0227 11542E1D 		.ascii	"\021T.\035\266\201O\260F\262\242\225\315O.\240\024S"
ARM GAS  /tmp/ccOwAp6l.s 			page 15


 196      B6814FB0 
 196      46B2A295 
 196      CD4F2EA0 
 196      1453
 197 0239 E926C9D6 		.ascii	"\351&\311\326JP\272\361\376\035\222>K\234\337\004\274"
 197      4A50BAF1 
 197      FE1D923E 
 197      4B9CDF04 
 197      BC
 198 024a 5818BF7C 		.ascii	"X\030\277|1.A4e\321\253\342\267\017@\243(\273\276Rm"
 198      312E4134 
 198      65D1ABE2 
 198      B70F40A3 
 198      28BBBE52 
 199 025f 61445B5A 		.ascii	"aD[Z9-\362\250@\017\2122\013j\011\021\011\324\0227}"
 199      392DF2A8 
 199      400F8A32 
 199      0B6A0911 
 199      09D41237 
 200 0274 AC259E8C 		.ascii	"\254%\236\214JA\210\225\223\261\204\210& \2774^\230"
 200      4A418895 
 200      93B18488 
 200      2620BF34 
 200      5E98
 201 0286 C500BE76 		.ascii	"\305\000\276vT~k\241\345\217\274\002l%?]\373\267\364"
 201      547E6BA1 
 201      E58FBC02 
 201      6C253F5D 
 201      FBB7F4
 202 0299 AA89944C 		.ascii	"\252\211\224LRb\224\\\231Z\251\366a\352\365\237q\001"
 202      5262945C 
 202      995AA9F6 
 202      61EAF59F 
 202      7101
 203 02ab 410A1511 		.ascii	"A\012\025\021\211\272:]~\323\256\356dt\3271u\263\335"
 203      89BA3A5D 
 203      7ED3AEEE 
 203      6474D731 
 203      75B3DD
 204 02be 495AB69B 		.ascii	"IZ\266\233qz\353LP\314L\327\376\362 3\235J\245;\365"
 204      717AEB4C 
 204      50CC4CD7 
 204      FEF22033 
 204      9D4AA53B 
 205 02d3 AEB49371 		.ascii	"\256\264\223q\365\206\343MG\232z\010a\246\235\344\251"
 205      F586E34D 
 205      479A7A08 
 205      61A69DE4 
 205      A9
 206 02e4 EE43A9BA 		.ascii	"\356C\251\272v\010u\033\035g\222\365\033`\222=\031\375"
 206      7608751B 
 206      1D6792F5 
 206      1B60923D 
 206      19FD
 207 02f6 48537363 		.ascii	"HSsc\263nw\232\035gN'u3\345\332\356)\3134\011\267}\035"
 207      B36E779A 
 207      1D674E27 
ARM GAS  /tmp/ccOwAp6l.s 			page 16


 207      7533E5DA 
 207      EE29CB34 
 208 030e 9520A6DD 		.ascii	"\225 \246\335\355u\311\3172]UM\315\307\023m\206\233"
 208      ED75C9CF 
 208      325D554D 
 208      CDC7136D 
 208      869B
 209 0320 EC72EC7D 		.ascii	"\354r\354}\211]\007\2009\020N%Si\247\027\376\000\256"
 209      895D0780 
 209      39104E25 
 209      5369A717 
 209      FE00AE
 210 0333 5F5AAA   		.ascii	"_Z\252"
 211              		.text
 212              		.section	.gnu.lto_chRegFindThreadByWorkingArea.66e332150b0db3d5,"",%progbits
 213 0000 789C8D54 		.ascii	"x\234\215TKh\024A\020\255\352\331\331]\367\343\007\274"
 213      4B681441 
 213      10ADEAD9 
 213      D95DF7E3 
 213      07BC
 214 0012 28495C14 		.ascii	"(I\\\024\301o\306\034\304\253!\247\200\0214\006\364"
 214      C16FC61C 
 214      C4AB21A7 
 214      80113406 
 214      F4
 215 0023 24E364D9 		.ascii	"$\343d\331\0148\3310\263\206\004\017\351\374 ^4\211"
 215      0C38D930 
 215      B386040F 
 215      E9FC205E 
 215      3489
 216 0035 1EFCB2F1 		.ascii	"\036\374\262\361\217QQ\004\017~\300\215\010&!Y\321\223"
 216      8F515104 
 216      0F7EC08D 
 216      08262159 
 216      D193
 217 0047 7A8A8888 		.ascii	"z\212\210\210\022\210\236\024\225\254\325\323\263\223"
 217      12889E14 
 217      95ACD5D3 
 217      B393
 218 0055 4D5063EF 		.ascii	"MPc\357\316tuW\325\253\327U5\315\200\301\302\261\213"
 218      CE747557 
 218      D5ABD755 
 218      35CD80C1 
 218      C2B18B
 219 0068 9EDD2AC0 		.ascii	"\236\335*\300\014\315\030\002d\375y\200\3160CE\012\012"
 219      0CCD1802 
 219      64FD7980 
 219      CE304345 
 219      0A0A
 220 007a 539F2AC0 		.ascii	"S\237*\300#\201\3748\000\217\005X\320\025\"\356n,(\315"
 220      2381FC38 
 220      008F0558 
 220      D01522EE 
 220      6E2C28CD 
 221 008e AA554431 		.ascii	"\252UD1\003B\007S\002A\025;\016\240@\307\265p\221\363"
 221      03420753 
 221      0241153B 
ARM GAS  /tmp/ccOwAp6l.s 			page 17


 221      0EA040C7 
 221      B57091F3 
 222 00a2 C1A90FB3 		.ascii	"\301\251\017\263\237\360\014\317\365\014\361_\205\002"
 222      9FF00CCF 
 222      F50CF15F 
 222      8502
 223 00b0 A289C464 		.ascii	"\242\211\304d\035\202\201\260\237\026\230p'\026\230"
 223      1D8281B0 
 223      9F169870 
 223      271698
 224 00bf 4FED0ECB 		.ascii	"O\355\016\313M\025\012\267\012S\357O\340\312\025\010"
 224      4D150AB7 
 224      0A53EF4F 
 224      E0CA1508 
 225 00cf 3A5E243C 		.ascii	":^$<\006\344\035\242\227\022F\013!\342mG\2759F\232@"
 225      06E41DA2 
 225      9712460B 
 225      21E26D47 
 225      BD39469A 
 226 00e4 5CBC0841 		.ascii	"\\\274\010A\205\036\316\373\023R\003\"\034\215}\364"
 226      851ECEFB 
 226      13520322 
 226      1C8D7DF4 
 227 00f4 FE128406 		.ascii	"\376\022\204\006d4)c\320\025\006\360hfoL\216\340`7\037"
 227      64342963 
 227      D01506F0 
 227      68666F4C 
 227      8EE06037 
 228 0109 E53D39E2 		.ascii	"\345=9\342\271\306D\225\221\341\"<\305\236\232 !\017"
 228      B9C64495 
 228      91E1223C 
 228      C59E9A20 
 228      210F
 229 011b 5D5F1F75 		.ascii	"]_\037u_[\355\205-\306\317=yuN\331\240\343\025\227\204"
 229      5F5BED85 
 229      2DC6CF3D 
 229      79754ED9 
 229      A0E31597 
 230 0130 B7F7EDD4 		.ascii	"\267\367\355\324\367h\231\277\032\233`>[\311%\227\035"
 230      F76899BF 
 230      1A9B603E 
 230      5BC92597 
 230      1D
 231 0141 3FBE8A0F 		.ascii	"?\276\212\017u\365\363Yb\342&\3546.\306\244\210\301"
 231      75F5F359 
 231      62E226EC 
 231      362EC6A4 
 231      88C1
 232 0153 7F664340 		.ascii	"\177fC@\011\271\214*y\270\2476\350\270\006*\364\270"
 232      09B98C2A 
 232      79B8A736 
 232      E8B8062A 
 232      F4B8
 233 0165 3E48BFBB 		.ascii	">H\277\273\264\244\260\212\354\212\012\030\301\013\374"
 233      B4A4B08A 
 233      EC8A0A18 
 233      C10BFC
ARM GAS  /tmp/ccOwAp6l.s 			page 18


 234 0174 F44E1383 		.ascii	"\364N\023\203\363\0165\247\177\346\351C2\324$t\275}"
 234      F30E35A7 
 234      7FE6E943 
 234      32D42474 
 234      BD7D
 235 0186 7DAD4AC7 		.ascii	"}\255J\307a\212\222\302\350f\030\3464\366\020WO\334"
 235      618A92C2 
 235      E86618E6 
 235      34F61057 
 235      4FDC
 236 0198 6E62F81C 		.ascii	"nb\370\034\234\355\344|\271\211K\216\302\017\336'\244"
 236      9CEDE47C 
 236      B9894B8E 
 236      C20FDE27 
 236      A4
 237 01a9 88E55212 		.ascii	"\210\345R\022\021\".\322!\261\324\3616\341\220\214\276"
 237      11222ED2 
 237      21B1D4F1 
 237      36E1908C 
 237      BE
 238 01ba 0C40D5C9 		.ascii	"\014@\325\311\005e\004\035oR\376(\216\214|\372\372\306"
 238      0565041D 
 238      6F52FE28 
 238      8E8C7CFA 
 238      FAC6
 239 01cc 62E4D866 		.ascii	"b\344\330f\330db\324\217\024##\001\016\0368+\001\234"
 239      D86462D4 
 239      8F142323 
 239      010E1E38 
 239      2B019C
 240 01df 84EEBEEE 		.ascii	"\204\356\276\356\346\242g\234\234\205e\024\345yj\245"
 240      E6A2679C 
 240      9C856514 
 240      E5796AA5 
 241 01ef C2A31FFD 		.ascii	"\302\243\037\375?P\202q\211\226\264\321\247\374\302"
 241      3F508271 
 241      8996B4D1 
 241      A7FCC2
 242 01fe 36D2F1AA 		.ascii	"6\322\361\252[\200E\373\010\376\325G\237/\210>z4\277"
 242      5B8045FB 
 242      08FED547 
 242      9F2F883E 
 242      7A34BF
 243 0211 8FB2F10A 		.ascii	"\217\262\361\012\277w\374\355c/\\\202\303n\003\250\262"
 243      BF77FCED 
 243      632F5C82 
 243      C36E03A8 
 243      B2
 244 0222 01827F28 		.ascii	"\001\202\177(\276\216wH\360#\027\213\255\343=\254\220"
 244      BE8E7748 
 244      F023178B 
 244      ADE33DAC 
 244      90
 245 0233 ACE86453 		.ascii	"\254\350dS\263\037Q6S\361K\222\243\201\\\351\263\367"
 245      B31F5136 
 245      53F14B92 
 245      A3815CE9 
ARM GAS  /tmp/ccOwAp6l.s 			page 19


 245      B3F7
 246 0245 BE21A94B 		.ascii	"\276!\251K\211\372Q*\037\366\316d\313ErB\224B\202WH"
 246      89FA512A 
 246      1FF6CE64 
 246      CB457242 
 246      94428257 
 247 025a E1E6AF6C 		.ascii	"\341\346\257l\016\266\357\3062\011k!s\375\346e\361A"
 247      0EB6EFC6 
 247      32096B21 
 247      73FDE665 
 247      F141
 248 026c 7EE23E9E 		.ascii	"~\342>\236,\315\"\205\270\265h\026-Q\232Qx\366\361]"
 248      2CCD2285 
 248      B8B56816 
 248      2D519A51 
 248      78F6F15D 
 249 0280 EFA5A71E 		.ascii	"\357\245\247\036mb\221\302p\321\342\015 \025\223M\027"
 249      6D6291C2 
 249      70D1E20D 
 249      2015934D 
 249      17
 250 0291 CA521809 		.ascii	"\312R\030\011>\036H\212\223\004\200\3565\345\005\004"
 250      3E1E488A 
 250      930480EE 
 250      35E50504 
 251 02a1 8A1E11BF 		.ascii	"\212\036\021\277_\343\206\327\362)qs-\0254Yi:R\242\215"
 251      5FE386D7 
 251      F2297173 
 251      2D153459 
 251      693A52A2 
 252 02b6 47A1677A 		.ascii	"G\241gz\344\314+?`d\256Y\274\261\217\0120\364\034\260"
 252      E4CC2B3F 
 252      6064AE59 
 252      BCB18F0A 
 252      30F41CB0 
 253 02ca 81F474F1 		.ascii	"\201\364t\361\274\244\313U@2II$@9?P\356\271\005\246"
 253      BCA4CB55 
 253      40324949 
 253      2440393F 
 253      50EEB905 
 254 02df 07E2C205 		.ascii	"\007\342\302\005\311TX$*+5\371O;\232\235\321\034\333"
 254      C9545824 
 254      2A2B35F9 
 254      4F3B9A9D 
 254      D11CDB
 255 02f2 D08C263B 		.ascii	"\320\214&;\2312\235\214\335^i\200bdZ\266\226\032\031"
 255      99329D8C 
 255      DD5E6980 
 255      62645AB6 
 255      961A19
 256 0305 69CB4A37 		.ascii	"i\313J7k-i;\343h\325{\353j\352\332\310\303H\333\311"
 256      6B2D693B 
 256      E368D57B 
 256      EB6AEADA 
 256      C8C348DB 
 257 031a 83AD3BAC 		.ascii	"\203\255;\254\312&P[\365\303G\222U\177\360I\266e\264"
 257      CA26505B 
ARM GAS  /tmp/ccOwAp6l.s 			page 20


 257      F5C34792 
 257      557FF049 
 257      B665B4
 258 032d 9ABAFADA 		.ascii	"\232\272\372\332z\315l6\016\037iLj\206\345\230\316\301"
 258      7ACD6C36 
 258      0E1F694C 
 258      6A86E598 
 258      CEC1
 259 033f 946190DF 		.ascii	"\224a\220\337\232\005T|\233&\247\335!=\313\264,\257"
 259      9A05547C 
 259      9B26A7DD 
 259      213DCBB4 
 259      2CAF
 260 0351 ABDF9B38 		.ascii	"\253\337\2338\244;\311\026\333\334\222X\277\015\230"
 260      A43BC916 
 260      DBDC9258 
 260      BF0D98
 261 0360 0D212B69 		.ascii	"\015!+i\245\355vX\367W\367\014\235Go\024\020\277\001"
 261      A5ED7658 
 261      F757F70C 
 261      9D476F14 
 261      10BF01
 262 0373 4F708554 		.ascii	"Op\205T"
 263              		.text
 264              		.section	.gnu.lto_.symbol_nodes.66e332150b0db3d5,"",%progbits
 265 0000 789C4D8C 		.ascii	"x\234M\214=\016Aa\024Dg\346\276\213]X\352\274(\020\225"
 265      3D0E4161 
 265      144467E6 
 265      BE8B5D58 
 265      EABC2810 
 266 0015 15686CC3 		.ascii	"\025hl\303?\241\323k\011\211\304\"\274\027\3027\325"
 266      3FA1D36B 
 266      0989C422 
 266      BC17C237 
 266      D5
 267 0026 39A71841 		.ascii	"9\247\030A\230\343;-i`z\006\354\331\230\271cC\320\212"
 267      98E33B2D 
 267      69607A06 
 267      ECD998B9 
 267      6343D08A 
 268 003a E6BF6A4D 		.ascii	"\346\277jM\253\320\015\035\205n\351\252\270X\220i\360"
 268      ABD00D1D 
 268      856EE9AA 
 268      B8589069 
 268      F0
 269 004b 40E7A7D6 		.ascii	"@\347\247\3265y\244;?\013uq\033\276\372\021=\354O\367"
 269      3579A43B 
 269      3F0B7571 
 269      1BBEFA11 
 269      3DEC4FF7 
 270 005f 67460883 		.ascii	"gF\010\203\311\343\222Q50j!\205k\013x\003\320Y27"
 270      C9E39251 
 270      35306A21 
 270      856B0B78 
 270      03D05932 
 271              		.text
 272              		.section	.gnu.lto_.refs.66e332150b0db3d5,"",%progbits
ARM GAS  /tmp/ccOwAp6l.s 			page 21


 273 0000 789C6362 		.ascii	"x\234cb`b\020e\200\000F bdbbdd\006\322,@\314\012\024"
 273      60621065 
 273      80004620 
 273      62646262 
 273      646406D2 
 274 0019 0200040B 		.ascii	"\002\000\004\013\0004"
 274      0034
 275              		.text
 276              		.section	.gnu.lto_.decls.66e332150b0db3d5,"",%progbits
 277 0000 789CC55B 		.ascii	"x\234\305[{t\324\326\231\2274c\317\214=\030J\233\034"
 277      7B74D4D6 
 277      99973463 
 277      CF8C3D18 
 277      4A9B1C
 278 0013 F72C5B4C 		.ascii	"\367,[L\232\2664m1\351f\011\335s6\220\322n\3119\233"
 278      9AB6346D 
 278      31E96609 
 278      DD733690 
 278      D26EC939 
 279 0028 9C9CA439 		.ascii	"\234\234\2449\333\177\322\211\030\013{\232\361\314\254"
 279      DB7FD289 
 279      180B7B9A 
 279      F1CCAC
 280 0037 46C638FF 		.ascii	"F\3068\377T6\324\006\022\260\261q\200@\300\274\022\310"
 280      5436D406 
 280      12B0B171 
 280      8040C0BC 
 280      12C8
 281 0049 A301125E 		.ascii	"\243\001\022^\341\321\011\024\354\002\345\015^p\240"
 281      E1D10914 
 281      EC02E50D 
 281      5E70A0
 282 0058 93124203 		.ascii	"\223\022B\003\305\201\020\010\246\004\357w?]i$\2154"
 282      C5811008 
 282      A604EF77 
 282      3F5D6924 
 282      8D34
 283 006a 2399A6D5 		.ascii	"#\231\246\325\261\356\\]\335\373\273\337\373\276d\216"
 283      B1EE5C5D 
 283      DDFBBBDF 
 283      FBBE648E 
 284 007a E198A087 		.ascii	"\341\230\240\207a\372\3115\216a\036\3641L!\3030\017"
 284      61FAC935 
 284      8E611EF4 
 284      314C21C3 
 284      300F
 285 008c 31990B8A 		.ascii	"1\231\013\212\230ep?\3152L\005\334\277\202;\006w\015"
 285      9865703F 
 285      CD324C05 
 285      DCBF823B 
 285      06770D
 286 009f DC757073 		.ascii	"\334ups\360\256\021~\217\263\214\341\"m\202p\257\200"
 286      F0AE117E 
 286      8FB38CE1 
 286      226D8270 
 286      AF80
 287 00b1 BB84E649 		.ascii	"\273\204\346I\225\255p\027B#?\334s\240\240\011\356\""
ARM GAS  /tmp/ccOwAp6l.s 			page 22


 287      95AD7017 
 287      42233FDC 
 287      73A0A009 
 287      EE22
 288 00c3 C817C1EF 		.ascii	"\310\027\301\357Jx\007\3440\263!?\037\356\000\253\320"
 288      4A7807E4 
 288      30B3213F 
 288      1FEE00AB 
 288      D0
 289 00d4 43B08AA1 		.ascii	"C\260\212\241\316`\270\207\302\375/p\177\203S\360\032"
 289      CE60B887 
 289      C2FD2F70 
 289      7F8353F0 
 289      1A
 290 00e5 4DFD123A 		.ascii	"M\375\022:\007\345\351\227\3643\202\366O\372\275\007"
 290      07E5E997 
 290      F43382F6 
 290      4FFABD07 
 291 00f5 F25358A5 		.ascii	"\362SX\245\357?\323\376I\337>\212g\325w\015\255\317"
 291      EF3FD3FE 
 291      49DF3E8A 
 291      67D5770D 
 291      ADCF
 292 0107 C3EF37B9 		.ascii	"\303\3577\271l:\210\254\206\232\3508\017\267\327\241"
 292      6C3A88AC 
 292      869AE838 
 292      0FB7D7A1 
 293 0117 1CBE0BF9 		.ascii	"\034\276\013\371\347 \177\037\374\376\222\315\226K\200"
 293      E7207F1F 
 293      FCFE92CD 
 293      964B80
 294 0126 F661271B 		.ascii	"\366a'\033\242\233\247i\273*V\241\357{\234\221F\242"
 294      A29BA769 
 294      BB2A56A1 
 294      EF7B9C91 
 294      46A2
 295 0138 CB9201E8 		.ascii	"\313\222\001\350\310\216&?\305\264\243\351ij/Q6[^\304"
 295      C88E263F 
 295      C5B4A3E9 
 295      696A2F51 
 295      365B5EC4 
 296 014c A6069B68 		.ascii	"\246\006\233h\351\375;\320\023\313C\017i#Rz\276o\222"
 296      E9FD3BD0 
 296      13CB430F 
 296      6923527A 
 296      BE6F92
 297 015f CF706689 		.ascii	"\317pf\211\234\276\234\336\275\342$\273PNM\227\373\373"
 297      9CBE9CDE 
 297      BDE224BB 
 297      504E4D97 
 297      FBFB
 298 0171 7FCDDECD 		.ascii	"\177\315\336\315\264\313pu4\3122+\0253\263d\271\201"
 298      B4CB7075 
 298      34CA322B 
 298      1533B364 
 298      B981
 299 0183 3C4CEC2A 		.ascii	"<L\354*\031\312\314%o\312\272\200\374_\260<[\022`:\274"
ARM GAS  /tmp/ccOwAp6l.s 			page 23


 299      19CACC25 
 299      6FCABA80 
 299      FC5FB03C 
 299      5B12603A 
 300 0198 980B0698 		.ascii	"\230\013\006\230\237\000\334\267\230\225\262\334\222"
 300      9F00DCB7 
 300      9895B2DC 
 300      92
 301 01a5 9EFFC551 		.ascii	"\236\377\305Q\217,\373yv%;\024\3041\221e\356c\326@\303"
 301      8F2CFB79 
 301      76253B14 
 301      C4319165 
 301      EE63D640 
 302 01ba 16595E7E 		.ascii	"\026Y^~\237I*x\345\005\346\340\001\014q5\340\361\354"
 302      9F492A78 
 302      E505E6E0 
 302      010C7135 
 302      E0F1EC
 303 01cd ABEC7D4A 		.ascii	"\253\354}JOr\272\275\351t\003[\017\204*\357\030\372"
 303      4F72BABD 
 303      E974035B 
 303      0F842AEF 
 303      18FA
 304 01df D6E21AC1 		.ascii	"\326\342\032\301t@\203\324\347{\027\263r\307N\326\242"
 304      744083D4 
 304      E77B17B3 
 304      72C74ED6 
 304      A2
 305 01f0 C7F16A87 		.ascii	"\307\361j\207~\035'\313f?\202\234\274\201\234LcYC\017"
 305      7E1D27CB 
 305      663F829C 
 305      BC819C4C 
 305      6359430F 
 306 0204 14A563BC 		.ascii	"\024\245c\274\035\014\307\264a\223\267\262\010\357<"
 306      1D0CC7B4 
 306      6193B7B2 
 306      08EF3C
 307 0213 A812FE96 		.ascii	"\250\022\376\226\003\302\033R\207g\275\374uB8\317\256"
 307      03C21B52 
 307      8767BDFC 
 307      754238CF 
 307      AE
 308 0224 608B0177 		.ascii	"`\213\001w\245\206K\373-S\373%\376G\263\312E+\030\361"
 308      A5864BFB 
 308      2D53FB25 
 308      FE47B3CA 
 308      452B18F1 
 309 0238 8EEC0DB6 		.ascii	"\216\354\015\266\360*\330\032\327`eV\244*\227\236[\236"
 309      F02AD81A 
 309      D7606556 
 309      A42A979E 
 309      5B9E
 310 024a 5DC77E0B 		.ascii	"]\307~\013\322\365\354\010H\337\201T\2738\346\267\254"
 310      D2F5EC08 
 310      48DF8154 
 310      BB38E6B7 
 310      AC
ARM GAS  /tmp/ccOwAp6l.s 			page 24


 311 025b AA532BD1 		.ascii	"\252S+\321\345g\241o\357b\024I\200\231\221\261Q\306"
 311      E567A16F 
 311      EF621449 
 311      809991B1 
 311      51C6
 312 026d 9205AACE 		.ascii	"\222\005\252\316\223\317\377\3760;\015\245\276\031\232"
 312      93CFFFFE 
 312      303B0DA5 
 312      BE199A
 313 027c 71CC2593 		.ascii	"q\314%\223B\235C\3654\357~\217m@\250\255\010\325\306"
 313      429D43F5 
 313      34EF7E8F 
 313      6D40A8AD 
 313      08D5C6
 314 028f 0D14AAAF 		.ascii	"\015\024\252\257u\333\217\320\310v \320^\023\020\317"
 314      75DB8FD0 
 314      C87620D0 
 314      5E1310CF 
 315 029f FA34CEB5 		.ascii	"\3724\316\265g\265\002A\303\3274C\306\271\301\314\227"
 315      67B50241 
 315      C3D73443 
 315      C6B9C1CC 
 315      97
 316 02b0 5C9D638E 		.ascii	"\\\235c\216s&\325Y\031\214\337Nurz^\347\031\216\004"
 316      7326D559 
 316      198CDF4E 
 316      75727A5E 
 316      E7198E04 
 317 02c4 1C8FEA41 		.ascii	"\034\217\352A\205v2\342\230S\330\327.\263\007-\355\336"
 317      857632E2 
 317      9853D8D7 
 317      2EB3072D 
 317      EDDE
 318 02d6 AF7AD02E 		.ascii	"\257z\320.G\036\264a\357|4\227\274!\215S\373\277\027"
 318      471EB461 
 318      EF7C3497 
 318      BC218D53 
 318      FBBF17
 319 02e9 FB9FEB21 		.ascii	"\373\237\353!\375w\231\373\377\333\251\367\177C\373"
 319      FD7799FB 
 319      FFDBA9F7 
 319      7F43FB
 320 02f8 EF72D4FF 		.ascii	"\357r\324\377\226\356y\331\375\363\354Cw\345\262\215"
 320      96EE79D9 
 320      FDF3EC43 
 320      77E5B28D 
 321 0308 A5DD1F5D 		.ascii	"\245\335\037]\241\275\354GW\335\3471[\307\270b\243\376"
 321      A1BDEC47 
 321      57DDE731 
 321      5BC7B862 
 321      A3FE
 322 031a E0595781 		.ascii	"\340YW\201c\216i\364\017(R\000\243\275\355l\3534\271"
 322      638E69F4 
 322      0F285200 
 322      A3BDED6C 
 322      EB34B9
 323 032d 6BB44A43 		.ascii	"k\264JC\267k\3042\203$\266uc\354Q\300N9\001\2635\245"
ARM GAS  /tmp/ccOwAp6l.s 			page 25


 323      B76BC432 
 323      8324B675 
 323      63EC51C0 
 323      4E3901B3 
 324 0343 86D40E3D 		.ascii	"\206\324\016=\330i\327`F\312\016\351\301\322N\300\206"
 324      D869D760 
 324      46CA0EE9 
 324      C1D24EC0 
 324      86
 325 0354 D8537644 		.ascii	"\330SvD\017v\3265\230\221\262cz\260\217\234\200\225"
 325      0F76D635 
 325      9891B263 
 325      7AB08F9C 
 325      8095
 326 0366 DA537642 		.ascii	"\332SvB\017v\3015\230\221\262\377\323\203\365:\001+"
 326      0F76C135 
 326      9891B2FF 
 326      D383F53A 
 326      012B
 327 0378 B3A04CBB 		.ascii	"\263\240L\273\254\332\021\263\356d5;\347\230+\0365&"
 327      ACDA11B3 
 327      EE64353B 
 327      E7982B1E 
 327      3526
 328 038a B8B46926 		.ascii	"\270\264i&\203\361\231\307m\0143\360\015C\370\237\226"
 328      83F199C7 
 328      6D0C33F0 
 328      0D43F89F 
 328      96
 329 039b B36D8A5F 		.ascii	"\263m\212_(\303\350\015'\2109\014\246e\237nL\276\355"
 329      28C3E80D 
 329      2788390C 
 329      A6659F6E 
 329      4CBEED
 330 03ae 1ACCA896 		.ascii	"\032\314\250\226%\004\314\020k\350\210\224^\225*]\220"
 330      2504CC10 
 330      6BE88894 
 330      5E952A5D 
 330      90
 331 03bf 09777E15 		.ascii	"\011w~\025\213L\314\224\330\006\3634N\253,\227\226Z"
 331      8B4CCC94 
 331      D806F334 
 331      4EAB2C97 
 331      965A
 332 03d1 D7E5D98F 		.ascii	"\327\345\331\217ql\277\300\0064*\224\274\232\353\307"
 332      716CBFC0 
 332      06342A94 
 332      BC9AEBC7 
 333 03e1 D9F074AF 		.ascii	"\331\360t\257\325\224\017\001r7\265\263\204\363zK\230"
 333      D5940F01 
 333      7237B5B3 
 333      84F37A4B 
 333      98
 334 03f2 E97520A6 		.ascii	"\351u \246\034\256p\310NL\251Fy\006[\277nX\316\371\341"
 334      1CAE70C8 
 334      4E4CA946 
 334      79065BBF 
ARM GAS  /tmp/ccOwAp6l.s 			page 26


 334      6E58CEF9 
 335 0407 D2EEDE65 		.ascii	"\322\356\336et\026\360\011\016\336s\274\226\263\000"
 335      7416F009 
 335      0EDE73BC 
 335      96B300
 336 0416 47603DCD 		.ascii	"G`=\315\007\325)\305\247\010\266p\340`\035}G\206\311"
 336      07D529C5 
 336      A708B670 
 336      E0601D7D 
 336      4786C9
 337 0429 5E9EBD86 		.ascii	"^\236\275\206@\313\275\346A#`\232R\004\214\203~ \220"
 337      40CBBDE6 
 337      4123609A 
 337      52048C83 
 337      7E2090
 338 043c C9F4AB97 		.ascii	"\311\364\253\227Q\215_j\033;\325\367\352U\377\246k\325"
 338      518D5F6A 
 338      1B3BD5F7 
 338      EA55FFA6 
 338      6BD5
 339 044e 1B3C0426 		.ascii	"\033<\004&!\327\271\371r\252\336\243\263\365\234\216"
 339      21D7B9F9 
 339      72AADEA3 
 339      B3F59C8E 
 340 045e 0113C87D 		.ascii	"\001\023\310};\376\023\247j7Q\256\357X+\310\001PO\363"
 340      3BFE13A7 
 340      6A3751AE 
 340      EF582BC8 
 340      01504FF3 
 341 0472 9BDF43A0 		.ascii	"\233\337C\240/\020h\373\200\201\372Z\227\214E \342\262"
 341      2F1068FB 
 341      8081FA5A 
 341      978C4520 
 341      E2B2
 342 0484 1CB33B4B 		.ascii	"\034\263;K\323\254I\323\254Q\003\232\327Q\247\373\262"
 342      D3AC49D3 
 342      AC51039A 
 342      D751A7FB 
 342      B2
 343 0495 EA72CC41 		.ascii	"\352r\314A\263\272\014\354\344\030\032\264x{\253\225"
 343      B3BA0CEC 
 343      E4181AB4 
 343      787BAB95 
 344 04a5 BDDA202F 		.ascii	"\275\332 /\030\355B_\317S}\375\006\245s<K:_\270\024"
 344      18ED425F 
 344      CF537DFD 
 344      06A5733C 
 344      4B3A5FB8 
 345 04ba 0F4C315C 		.ascii	"\017L1\\\263\3417\262\321\324?\0006~\247\2601\013\331"
 345      B3E137B2 
 345      D1D43F00 
 345      367EA7B0 
 345      310BD9
 346 04cd 38FB7760 		.ascii	"8\373w`\343\242k6\206\350\330\300\005\354<e\364\373"
 346      E3A26B36 
 346      86E8D8C0 
 346      05EC3C65 
ARM GAS  /tmp/ccOwAp6l.s 			page 27


 346      F4FB
 347 04df 2AD39A7B 		.ascii	"*\323\232{\012O\350i\346\276j\230>\247\216\037`\313"
 347      0A4FE869 
 347      E6BE6A98 
 347      3EA78E1F 
 347      60CB
 348 04f1 94E2FC8B 		.ascii	"\224\342\374\213\366\253\007t\013=\331\321Bo\237\266"
 348      F6AB0774 
 348      0B3DD9D1 
 348      426F9FB6 
 349 0501 D06B4591 		.ascii	"\320kE\221]\266r0'P\035=\007\357\"\201\264\035a\256"
 349      5DB67230 
 349      27501D3D 
 349      07EF2281 
 349      B41D61AE 
 350 0515 0F1426DD 		.ascii	"\017\024&\335wd\223\342\247\013\020\350v\226\012\013"
 350      776493E2 
 350      A70B10E8 
 350      76960A0B 
 351 0525 4D1A2C34 		.ascii	"M\032,4j\020\036IO70@\376\232\226\220\007\037\363\017"
 351      6A101E49 
 351      4F373040 
 351      FE9A9690 
 351      071FF30F 
 352 0539 6FC73133 		.ascii	"o\30713\012X\252T\227\363/\325z\232>lS\347N\212\202"
 352      0A58AA54 
 352      97F32FD5 
 352      7A9A3E6C 
 352      53E74E8A 
 353 054e 9AEF08B1 		.ascii	"\232\357\010\261!\265\264Y\335\037\031GfO\013\356\020"
 353      21B5B459 
 353      DD1F1947 
 353      664F0BEE 
 353      10
 354 055f 6EDB41F3 		.ascii	"n\333A\363\264\300\264l[i3\354\250\033G\353^\370>\252"
 354      B4C0B46C 
 354      5B6933EC 
 354      A81B47EB 
 354      5EF83EAA 
 355 0573 7B3947C8 		.ascii	"{9G\310YZ`V\367\012\326\264l#\005\272*v\216\264\214"
 355      595A6056 
 355      F70AD6B4 
 355      6C2305BA 
 355      2A768EB4 
 356 0588 D38D80EB 		.ascii	"\323\215\200\353\357T\015\235\327Lj\330|\207r\353\243"
 356      EF540D9D 
 356      D74C6AD8 
 356      7C8772EB 
 356      A3
 357 0599 6AC8B7C8 		.ascii	"j\310\267\310~F\305\012\"#)\354\3665\316\264\306\336"
 357      7E46C50A 
 357      222329EC 
 357      F635CEB4 
 357      C6DE
 358 05ab DA9B6EA4 		.ascii	"\332\233n\2443\"\362.\177\244\3509\027\220[\203\312"
 358      3322F22E 
 358      7FA4E839 
ARM GAS  /tmp/ccOwAp6l.s 			page 28


 358      17905B83 
 358      CA
 359 05bc 761DCF6E 		.ascii	"v\035\317nd9\212j5Q\312+\236\324\031\241k\264\233\230"
 359      64398A6A 
 359      3551CA2B 
 359      9ED419A1 
 359      6BB49B98 
 360 05d0 B3478D39 		.ascii	"\263G\2159o\241,/e)\235\004\021\203\322]9\335UMHN\027"
 360      6FA12C2F 
 360      65299D04 
 360      1183D25D 
 360      39DD554D 
 361 05e7 2CE6CBCE 		.ascii	",\346\313\316\250\326\350\215\352\363;3\0010\252=+\025"
 361      A8D6E88D 
 361      EAF33B33 
 361      0130AA3D 
 361      2B15
 362 05f9 A3CA6704 		.ascii	"\243\312g\0042\253_\307@P\304\2367\232\255`\351\247"
 362      32AB5FC7 
 362      4050C49E 
 362      379AAD60 
 362      E9A7
 363 060b 5D4D740F 		.ascii	"]Mt\017d\243#+\270fa\005\033\007h\005`\322\037\377\201"
 363      64A3232B 
 363      B8666105 
 363      1B076805 
 363      60D21FFF 
 364 0620 4538655D 		.ascii	"E8e]\366j!k\204s\252\005\012wKp+\030\305\276R'\317\221"
 364      F66A216B 
 364      8473AA05 
 364      0A774B70 
 364      2B18C5BE 
 365 0638 11730747 		.ascii	"\021s\007G6\242\337,4\233\226\"\031\235ie\304\310\263"
 365      36A2DF2C 
 365      349B9622 
 365      199D6965 
 365      C4C8B3
 366 064b 9B39B250 		.ascii	"\2339\262P\333\302\221M\330w1\335\306\351\266b\355\314"
 366      DBC2914D 
 366      D87731DD 
 366      C6E9B662 
 366      EDCC
 367 065d 627BC62C 		.ascii	"b{\306,x\366m\263\030\235.\227\363v\263Ao}\033\012\357"
 367      78F66DB3 
 367      189D2E97 
 367      F376B341 
 367      6F7D1B0A 
 368 0672 CCFAE675 		.ascii	"\314\372\346u\036\360\342\316\242\213]\341}\273U\307"
 368      1EF0E2CE 
 368      A28B5DE1 
 368      7DBB55C7 
 369 0682 DD858EBB 		.ascii	"\335\205\216\273-K\272[\315\363+'\233\244]\003eE\273"
 369      2D4BBA5B 
 369      CDF32B27 
 369      9BA45D03 
 369      6545BB
 370 0695 60D25CE8 		.ascii	"`\322\\\350`\215Sf!um\240=A\247iywZ\325\221\353\334"
ARM GAS  /tmp/ccOwAp6l.s 			page 29


 370      608D5366 
 370      21756DA0 
 370      3D41A769 
 370      79775AD5 
 371 06ac 0B1371E4 		.ascii	"\013\023q\344\372\003Z\332a\223,\034l\330\246\261\311"
 371      FA035ADA 
 371      61932C1C 
 371      6CD8A6B1 
 371      C9
 372 06bd 7EB31BB7 		.ascii	"~\263\033\2677i\033\266\373\035\270qC\352m\303\221\207"
 372      37691BB6 
 372      FB1DB871 
 372      43EA6DC3 
 372      9187
 373 06cf 6A81FB73 		.ascii	"j\201\373s[`Ny\032T\270_\347 \007\320A\016\352\235\002"
 373      5B604E79 
 373      1A54B85F 
 373      E72007D0 
 373      410EEA9D 
 374 06e4 E68C4E64 		.ascii	"\346\214Nd?\322\316\024!\014\035Q\316\232\324\323\243"
 374      3FD2CE14 
 374      210C1D51 
 374      CE9AD4D3 
 374      A3
 375 06f5 1B663CAB 		.ascii	"\033f<\253@d\300\323\353\262!\325r\024\267\207\024\033"
 375      4064C0D3 
 375      EBB221D5 
 375      7214B787 
 375      141B
 376 0707 ADF73920 		.ascii	"\255\3679 n\264=\330\3226U\270\033p\2062\313\011\336"
 376      6EB43DD8 
 376      D23655B8 
 376      1B708632 
 376      CB09DE
 377 071a 583B661B 		.ascii	"X;f\033R\233\216.\246x\312\311J\253k<#}\307\333\014"
 377      529B8E2E 
 377      A678CAC9 
 377      4AAB6B3C 
 377      237DC7DB 
 378 072f F3B9454E 		.ascii	"\363\271EN\340\306;\326}\346 \021\006T\334\305z\035"
 378      E0C63BD6 
 378      7DE62011 
 378      0654DCC5 
 378      7A1D
 379 0741 4FA83661 		.ascii	"O\2506a\272\023\323?c\372!\246\037az\011\323>L\247c"
 379      BA13D33F 
 379      63FA21A6 
 379      1F617A09 
 379      D33E4CA7 
 380 0756 189D89E9 		.ascii	"\030\235\211\351\034L\2730=\214\351QL\217c\332\215\351"
 380      1C4CBB30 
 380      3D8CE951 
 380      4C8F63DA 
 380      8DE9
 381 0768 492701D7 		.ascii	"I'\001\327\341\034p9{7\315=\345Q\215u\231\317\350\247"
 381      E11C7039 
 381      7B37CD3D 
ARM GAS  /tmp/ccOwAp6l.s 			page 30


 381      E5518D75 
 381      99CFE8A7 
 382 077c 0CF36D66 		.ascii	"\014\363mf\025\011\210x\266;/\345U\247\2340\205d\207"
 382      15098878 
 382      B63B2FE5 
 382      55A79C30 
 382      856487
 383 078f DB40E3EB 		.ascii	"\333@\343\353\036\316pH\254\034\021\247n\355\015\266"
 383      1ECE7048 
 383      AC1C11A7 
 383      6EED0DB6 
 384 079f D4A7FBFB 		.ascii	"\324\247\373\373\207\033\216\207\025P;:\317p\012\235"
 384      871B8E87 
 384      15503B3A 
 384      CF700A9D 
 385 07af 1E3C13D7 		.ascii	"\036<\023\327\370S\211F\272\327\233\350\276\227Y!\313"
 385      F8538946 
 385      BAD79BE8 
 385      BE975921 
 385      CB
 386 07c0 ADF22261 		.ascii	"\255\362\"a\242:\340\356\304\032\2479k\242\265\231"
 386      A23AE0EE 
 386      C41AA739 
 386      6BA2B599 
 387 07d0 B4C2AEBC 		.ascii	"\264\302\256\274\351\303\307'fX\265kE\011Lg\263\332"
 387      E9C3C727 
 387      6658B56B 
 387      45094C67 
 387      B3DA
 388 07e2 914ECD3B 		.ascii	"\221N\315;\340\236\325sfV\317g\263\272\333\232\325\255"
 388      E09ED573 
 388      6656CF67 
 388      B3BADB9A 
 388      D5AD
 389 07f4 8455A5FA 		.ascii	"\204U\245\372_1\302}h\313\352\371\034\254\332\265\242"
 389      5F31C27D 
 389      68CBEAF9 
 389      1CACDAB5 
 389      A2
 390 0805 049EB764 		.ascii	"\004\236\267d\365\246\312\252\242,\216\351\261\246q"
 390      F5A6CAAA 
 390      A22C8EE9 
 390      B1A671
 391 0814 BBAA0E70 		.ascii	"\273\252\016p\013\216\320xa@\352\260kEi\274hI\343g\007"
 391      0B8ED078 
 391      6140EAB0 
 391      6B4569BC 
 391      6849E367 
 392 0829 DDABE313 		.ascii	"\335\253\343\023\263:z\263\325\361\2315\253'\011\253"
 392      B33A7AB3 
 392      D5F19935 
 392      AB2709AB 
 393 0839 BD687973 		.ascii	"\275hys\375\244F\257-\253\2759X\265kE\011\274b\341d"
 393      FDA446AF 
 393      2DABBD39 
 393      58B56B45 
 393      09BC62E1 
ARM GAS  /tmp/ccOwAp6l.s 			page 31


 394 084e 301359FE 		.ascii	"0\023Y\376\336\270\005\353\345\3513\345\333\346\017"
 394      DEB805EB 
 394      E5E933E5 
 394      DBE60F
 395 085d 316C0F0A 		.ascii	"1l\017\012\011\332u\007\216\266\331o\016\020J\325\033"
 395      09DA7507 
 395      8EB6D96F 
 395      0E104AD5 
 395      1B
 396 086e 1694AC4D 		.ascii	"\026\224\254M/z\345\203\360By'\371\"\244\277T>\264\326"
 396      2F7AE583 
 396      F0427927 
 396      F922A4BF 
 396      543EB4D6 
 397 0882 4C8C3760 		.ascii	"L\2147`A\014v\3171g\375l\006\376\246\225c\030\036\030"
 397      410C76CF 
 397      3167FD6C 
 397      06FEA695 
 397      63181E18 
 398 0896 C64CEA45 		.ascii	"\306L\352E\003\251\024\365SD\245\0177\325.\350s\177"
 398      03A914F5 
 398      5344A50F 
 398      37D52EE8 
 398      737F
 399 08a8 A64BABEB 		.ascii	"\246K\253\353\036f\031\021o{\323\361N\266U\356\350\202"
 399      1E661911 
 399      6F7BD3F1 
 399      4EB655EE 
 399      E882
 400 08ba C1191658 		.ascii	"\301\031\026X\303\255f\336>\225\235\004\243\373\012"
 400      C3AD66DE 
 400      3E959D04 
 400      A3FB0A
 401 08c9 A4F93F70 		.ascii	"\244\371?pJ\324\344!\343\370\364\200\345\224\310\036"
 401      4AD4E421 
 401      E3F8F480 
 401      E594C81E 
 402 08d9 86635AB0 		.ascii	"\206cZ\260\311,O\326\224\350L#\235\022\221w\371W6s{"
 402      C92C4FD6 
 402      94E84C23 
 402      9D129177 
 402      F9573673 
 403 08ee 6C3F5F49 		.ascii	"l?_Ikk\206a:\312\267\317~\010)\237\203\224\277\224\237"
 403      6B6B8661 
 403      3ACAB7CF 
 403      7E08299F 
 403      8394BF94 
 404 0903 72230C2C 		.ascii	"r#\014,w\260\311\334l\312/\251\247\337s\035Q\276\251"
 404      77B0C9DC 
 404      6CCA2FA9 
 404      A7DF731D 
 404      51BEA9
 405 0916 5B3F1952 		.ascii	"[?\031RWe\244\355\300Ve\233\225S\307\315\270\321\371"
 405      5765A4ED 
 405      C056659B 
 405      9553C7CD 
 405      B8D1F9
ARM GAS  /tmp/ccOwAp6l.s 			page 32


 406 0929 9E19CCD5 		.ascii	"\236\031\314\325\232LV\017\244\225o\014>p\015Vf\240"
 406      9A4C560F 
 406      A4956F0C 
 406      3E700D56 
 406      66A0
 407 093b ECE87CE3 		.ascii	"\354\350|\343\264\365\254\023\274\034\247\202\364\344"
 407      B4F5AC13 
 407      BC1CA782 
 407      F4E4
 408 0949 57013BE7 		.ascii	"W\001;\347\032\314H\334\251n\335\021\343\006M\2679\300"
 408      1ACC48DC 
 408      A96EDD11 
 408      E3064DB7 
 408      39C0
 409 095b ACCECEAC 		.ascii	"\254\316\316\254.\275\221\360l\233\207L\252\346y\310"
 409      2EBD91F0 
 409      6C9B874C 
 409      AAE679C8 
 410 096b D4A71DD3 		.ascii	"\324\247\035\323\0271\235\217\351\002L\027z\014\323"
 410      17319D8F 
 410      E9024C17 
 410      7A0CD3
 411 097a EDED9A8F 		.ascii	"\355\355\232\217X\232b>\223\220S\013\355\235\303\260"
 411      589A623E 
 411      9390530B 
 411      ED9DC3B0 
 412 098a DDA4FAC6 		.ascii	"\335\244\372\306\2269\277@\337x\031}cW~\3370mZ\235\304"
 412      9639BF40 
 412      DF78197D 
 412      63577EDF 
 412      306D5A9D 
 413 099f 161D59AE 		.ascii	"\026\035Y\256\321yBu\215\016\007\256\321\220:\375\242"
 413      D1794275 
 413      8D0E07AE 
 413      D1903AFD 
 413      A2
 414 09b0 B33DB30E 		.ascii	"\263=\263\016M\036_\323q\261j\216\362\205\332*\344\342"
 414      4D1E5FD3 
 414      71B16A8E 
 414      F285DA2A 
 414      E4E2
 415 09c2 727E2E8C 		.ascii	"r~.\2140\034#\027\341\324:\233\215=*\033\253\035\261"
 415      301C2317 
 415      E1D43A9B 
 415      8D3D2A1B 
 415      AB1DB1
 416 09d5 F1F28BAA 		.ascii	"\361\362\213\252\335\257\364d\226k\253s[\227\255:\033"
 416      DDAFF464 
 416      966BAB73 
 416      5B97AD3A 
 416      1B
 417 09e6 524B4EA0 		.ascii	"RKN\240\251*`\033\\\203\031\355~\335\211\305\245r\307"
 417      A92A601B 
 417      5C8319ED 
 417      7EDD89C5 
 417      A572C7
 418 09f9 7BEAB762 		.ascii	"{\352\267br\243<ruF$CT\004N'\330\015G9\024\354o=\244"
ARM GAS  /tmp/ccOwAp6l.s 			page 33


 418      72A33C72 
 418      75462443 
 418      54044E27 
 418      D80D4739 
 419 0a12 7C6E91E5 		.ascii	"|n\221\345\011\235\003\240\236\346M\312V\360:\004Z4"
 419      099D03A0 
 419      9EE64DCA 
 419      56F03A04 
 419      5A34
 420 0a24 60A0BED6 		.ascii	"`\240\276\326W\225\357\304\336A\240\225& \236\365\230"
 420      5795EFC4 
 420      DE41A095 
 420      26209EF5 
 420      98
 421 0a35 36293CC6 		.ascii	"6)<\306M\012O \223\351\357\3670_be\216yK\263*+\216\362"
 421      4D0A4F20 
 421      93E9EFF7 
 421      305F6265 
 421      8E794BB3 
 422 0a4d 8564B28F 		.ascii	"\205d\262\217\263\277\000\367q\014^\341|J\364\256\307"
 422      B3BF00F7 
 422      710C5EE1 
 422      7C4AF4AE 
 422      C7
 423 0a5e 34EF1867 		.ascii	"4\357\030g\232\021Y5TU\177e\366H\024\364\026\017\206"
 423      9A115935 
 423      54557F65 
 423      F64814F4 
 423      160F86
 424 0a71 4993A04D 		.ascii	"I\223\240M'\001\244';*vx\212m\374&\353\035\307\3540"
 424      2701A427 
 424      3B2A7678 
 424      8A6DFC26 
 424      EB1DC7EC 
 425 0a86 8BCCDDC0 		.ascii	"\213\314\335\300\003\036\373\307U\352n>.\232w9\001\264"
 425      031EFBC7 
 425      55EA6E3E 
 425      2E9A7739 
 425      01B4
 426 0a98 1A79AC2E 		.ascii	"\032y\254.}\210\200E3\306\367\3271\216\277\201\351\233"
 426      7D888045 
 426      33C6F7D7 
 426      318EBF81 
 426      E99B
 427 0aaa 986EC634 		.ascii	"\230n\3064\245\217\354v\262!\216\255a+\301\242c\300"
 427      A58FEC76 
 427      B2218EAD 
 427      612BC1A2 
 427      63C0
 428 0abc C1E27276 		.ascii	"\301\342rv\260p\003f\020d\352\032\015\026\212\357\363"
 428      B0700366 
 428      1064EA1A 
 428      0D168AEF 
 428      F3
 429 0acd EC268F09 		.ascii	"\354&\217\011\317\235-\247\346\315\017\036zF\015$\235"
 429      CF9D2DA7 
 429      E6CD0F1E 
ARM GAS  /tmp/ccOwAp6l.s 			page 34


 429      7A460D24 
 429      9D
 430 0ade 45AC4BB0 		.ascii	"E\254K\260!\271\224\322\241S\312rT\312\012T\301NLwa"
 430      21B994D2 
 430      A153CA72 
 430      54CA0A54 
 430      C14E4C77 
 431 0af3 FA7BE340 		.ascii	"\372{\343@{\250\3104\320\032\3065\253a_/\0369\265\266"
 431      7BA8C834 
 431      D01AC635 
 431      AB615F2F 
 431      1E39B5B6 
 432 0b07 0764ED78 		.ascii	"\007d\355x;\361\322\034e;\261\013\307\247\356\"\313"
 432      3BF1D21C 
 432      653BB10B 
 432      C7A7EE22 
 432      CB
 433 0b18 F129D776 		.ascii	"\361)\327v\342G\330d_\366\014\364\266:>\355\313?>M\237"
 433      E247D864 
 433      5FF60CF4 
 433      B63A3EED 
 433      CB3F3E4D 
 434 0b2d 965AF8D2 		.ascii	"\226Z\370\322+\231av\232\346\276\177a\255\2262\212p"
 434      2B996176 
 434      9AE6BE7F 
 434      61AD9632 
 434      8A70
 435 0b3f 0D5F1A5D 		.ascii	"\015_\032]\327\350pi\242\326\212\333\247S\334\037Qq"
 435      D7E87069 
 435      A2D68ADB 
 435      A753DC1F 
 435      5171
 436 0b51 078C6A92 		.ascii	"\007\214j\222\213Mjr\271\375\270\245G\235q+\237\341"
 436      8B4D6A72 
 436      B9FDB8A5 
 436      479D712B 
 436      9FE1
 437 0b63 4F37E375 		.ascii	"O7\343u\030>\261\267\002,\313\305\300,\035\003/ \003"
 437      183EB1B7 
 437      022CCBC5 
 437      C02C1D03 
 437      2F2003
 438 0b76 B3D1DA16 		.ascii	"\263\321\332\026c\332\211\351\021#K\315\305\252\366"
 438      63DA89E9 
 438      11234BCD 
 438      C5AAF6
 439 0b85 2DD74904 		.ascii	"-\327I\004\365\230G[\216\222U\333\332T\372\334\2054"
 439      F598475B 
 439      8E9255DB 
 439      DA54FADC 
 439      8534
 440 0b97 574FFE39 		.ascii	"WO\3769A\276\005\2136uv\007,\262\272\361r\2556\251!"
 440      41BE058B 
 440      36757607 
 440      2CB2BAF1 
 440      72AD36A9 
 441 0bac 619FDADE 		.ascii	"a\237\332\336\361w\373J\311\276\276:\011\262\255\317"
ARM GAS  /tmp/ccOwAp6l.s 			page 35


 441      F177FB4A 
 441      C9BEBE3A 
 441      09B2ADCF 
 442 0bbc B3DDC040 		.ascii	"\263\335\300@\336j\244\342I\223\035\246N\012eJ\251\203"
 442      DE6AA4E2 
 442      49931DA6 
 442      4E0A654A 
 442      A983
 443 0bce D3C96B7E 		.ascii	"\323\311k~\2711\370\025\246\005\031\030_\252|\352fg"
 443      B931F815 
 443      A6051918 
 443      5FAA7CEA 
 443      6667
 444 0be0 7CEF7BBE 		.ascii	"|\357{\276\2029\303\011$\326\260kq\332\223\371\234."
 444      8239C309 
 444      24D6B06B 
 444      71DA93F9 
 444      9C2E
 445 0bf2 18C864D4 		.ascii	"\030\310d\324A\217c6\241\002N\0168\314\276\377\364\202"
 445      418F6336 
 445      A1024E0E 
 445      38CCBEFF 
 445      F482
 446 0c04 D1EA374B 		.ascii	"\321\3527K;\315XV_\220\030\260\312\014XgtX\235\256\261"
 446      3BCD5856 
 446      5F9018B0 
 446      CA0C5867 
 446      74589DAE 
 447 0c19 461AB02E 		.ascii	"F\032\260.\363\253G\253\023\254\375f,\253\000k\300\032"
 447      F3AB47AB 
 447      13ACFD66 
 447      2CAB006B 
 447      C01A
 448 0c2b 6DC0FA54 		.ascii	"m\300\372TG\3271't\345\210\374\237\351\260\336w\215"
 448      47D73127 
 448      74E588FC 
 448      9FE9B0DE 
 448      778D
 449 0c3d 65F87028 		.ascii	"e\370p(u]\207u\3165\326\020\003\326\015\035\326e\327"
 449      755D8775 
 449      CE35D610 
 449      03D60D1D 
 449      D665D7
 450 0c50 58A506AC 		.ascii	"X\245\006\254\233:\254>\327XF\233\270\245\303\252\017"
 450      9B3AAC3E 
 450      D758469B 
 450      B8A5C3AA 
 450      0F
 451 0c61 BAC532DA 		.ascii	"\272\3052\332\304m\035\326\363\256\261\2146\321\262"
 451      C46D1DD6 
 451      F3AEB18C 
 451      36D1B2
 452 0c70 A778ED33 		.ascii	"\247x\3553*X\273k\260\261\006\260V=\330\022'`9v\007"
 452      2A58BB6B 
 452      B0B106B0 
 452      563DD812 
 452      27603976 
ARM GAS  /tmp/ccOwAp6l.s 			page 36


 453 0c85 E6E9C15E 		.ascii	"\346\351\301^w\015f4\261\027\365`\033\\\203\031ml\201"
 453      770D6634 
 453      B117F560 
 453      1B5C8319 
 453      6D6C81
 454 0c98 1EEC77AE 		.ascii	"\036\354w\256\301\214F\366\222\036\254\3135\230\321"
 454      C18C46F6 
 454      921EACCB 
 454      3598D1
 455 0ca7 CA16EBC1 		.ascii	"\312\026\353\301\216\271\006\033\311\030/u\020<\205"
 455      8EB9061B 
 455      C9182F75 
 455      103C85
 456 0cb6 83600F0E 		.ascii	"\203`\017\016|\177\302\364\003L\317bz\016\323\363\230"
 456      7C7FC2F4 
 456      034CCF62 
 456      7A0ED3F3 
 456      98
 457 0cc7 7E8CE945 		.ascii	"~\214\351EL/a\372\011\246W0\275\212\3515L?\307\264\017"
 457      4C2F61FA 
 457      09A65730 
 457      BD8AE935 
 457      4C3FC7B4 
 458 0cdc D3BF61FA 		.ascii	"\323\277a\372\005\246\375\306\201\365t\320\274\026T"
 458      05A6FDC6 
 458      81F574D0 
 458      BC1654
 459 0ceb 46241D8D 		.ascii	"F$\035\215\231\201\213\371gQy^\243\322vxm\360r\3147"
 459      99818BF9 
 459      6751795E 
 459      A3D27678 
 459      6DF072CC 
 460 0d00 98CBC197 		.ascii	"\230\313\301\227e\3052\037`\336\226g\244:\012x\366\004"
 460      65C5321F 
 460      60DE9667 
 460      A43A0A78 
 460      F604
 461 0d12 D24FE856 		.ascii	"\322O\350V\312\306+#\244\346\024$C\206\323j\265\210"
 461      CAC62B23 
 461      A4E61424 
 461      4386D36A 
 461      B588
 462 0d24 D58A78B5 		.ascii	"\325\212x\265\210\323\212\"j\221G+\2121T\"\244\000\317"
 462      88D38A22 
 462      6A91472B 
 462      8A315422 
 462      A400CF
 463 0d37 FB15D1D0 		.ascii	"\373\025\321\320\307\273\251\214\310#\2143\015\343\251"
 463      C7BBA98C 
 463      C8238C33 
 463      0DE3A9
 464 0d46 B4E86B2F 		.ascii	"\264\350k/\025\033}\344\250\374\350\343O\250 \351\243"
 464      151B7DE4 
 464      A8FCE8E3 
 464      4FA820E9 
 464      A3
 465 0d57 9F4A943E 		.ascii	"\237J\224>\006\251h\351\343\020*c\372\3705*l\372XJ\245"
ARM GAS  /tmp/ccOwAp6l.s 			page 37


 465      06A968E9 
 465      E3102A63 
 465      FAF8352A 
 465      6CFA584A 
 466 0d6c 4E1F8751 		.ascii	"N\037\207Q\361\323\3072\252\007\372\250*\204>\336C5"
 466      F1D3C732 
 466      AA07FAA8 
 466      2A843EDE 
 466      4335
 467 0d7e A3E3B05F 		.ascii	"\243\343\260_\377\3100\332\344dA\211avb\030CI\273F\257"
 467      FFC830DA 
 467      E4644189 
 467      61766218 
 467      4349BB46 
 468 0d93 DBD94993 		.ascii	"\333\331I\223\327zv\242\356\334\323\256\313L=\217U\353"
 468      D77A76A2 
 468      EEDCD3AE 
 468      CB4C3D8F 
 468      55EB
 469 0da5 F928CE0C 		.ascii	"\371(\316\014\327=\317\264\351\271\220\366lZ\3207\331"
 469      D73DCFB4 
 469      E9B990F6 
 469      6C5AD037 
 469      D9
 470 0db6 4C8F70D2 		.ascii	"L\217p\322\353\325V\004\344\244$u9\335v\341\312/\337"
 470      EBD55604 
 470      E4A42475 
 470      39DD76E1 
 470      CA2FDF
 471 0dc9 582FCB78 		.ascii	"X/\313xfS?\335\305\251\315\013^\213c\334A\226\307\270"
 471      66533FDD 
 471      C5A9CD0B 
 471      5E8B63DC 
 471      4196C7B8 
 472 0ddd 70AD963D 		.ascii	"p\255\226=\210F\352?\357\035nt\356\331\336\254C\034"
 472      8846EA3F 
 472      EF1D6E74 
 472      EED9DEAC 
 472      431C
 473 0def 20EDE64B 		.ascii	" \355\346K\307\277\256\376[\357\010\245?\030#\034\365"
 473      C7BFAEFE 
 473      5BEF08A5 
 473      3F18231C 
 473      F5
 474 0e00 D06CEEA1 		.ascii	"\320l\356\241\305\262\207\236\213W&\366e\230\037\341"
 474      C5B2879E 
 474      8B5726F6 
 474      65981FE1 
 475 0e10 9CF936AF 		.ascii	"\234\3716\257i\177f+\356\344\033\316\201\316\033H\245"
 475      697F662B 
 475      EEE41BCE 
 475      81CE1B48 
 475      A5
 476 0e21 473DD706 		.ascii	"G=\327\006Q\203\241\347u\207\367\004[X\365\2370\247"
 476      5183A1E7 
 476      7587F704 
 476      5B58F59F 
ARM GAS  /tmp/ccOwAp6l.s 			page 38


 476      30A7
 477 0e33 959016AD 		.ascii	"\225\220\026\255^\273\023;\372\035\017\345\370j\375"
 477      5EBB133B 
 477      FA1D0FE5 
 477      F86AFD
 478 0e42 E3A51AC7 		.ascii	"\343\245\032\307\255f\216\333-9n\273p\270J\257nU\254"
 478      AD668EDB 
 478      2D396EBB 
 478      70B84AAF 
 478      6E55AC
 479 0e55 334B9C88 		.ascii	"3K\234\210u\221\271\223\3056\212\273\224\255\270vG="
 479      7591B993 
 479      C5368ABB 
 479      94ADB876 
 479      473D
 480 0e67 2C31F7B0 		.ascii	",1\367\260\324\330\203\311\326\347\344\260\365e\031"
 480      D4D883C9 
 480      D6E7E4B0 
 480      F56519
 481 0e76 5B37B522 		.ascii	"[7\265\"\347\215v\255\226gZ\221\005\334\241C\351\335"
 481      E78D76AD 
 481      96675A91 
 481      05DCA143 
 481      E9DD
 482 0e88 1BD7B033 		.ascii	"\033\327\2603\322r\013H\254\237\325{\271n\351m\374\342"
 482      D2720B48 
 482      AC9FD57B 
 482      B96EE96D 
 482      FCE2
 483 0e9a CD361898 		.ascii	"\3156\030\230\253\361\354*\327\321\340\025\233h\240"
 483      ABF1EC2A 
 483      D7D1E015 
 483      9B68A0
 484 0ea9 FF3FD84C 		.ascii	"\377?\330L-\342\223%\246\017\020\314Tp\314k%,mG\376"
 484      2DE29325 
 484      A60F10CC 
 484      5470CC6B 
 484      252C6D47 
 485 0ebe 63DF24AD 		.ascii	"c\337$\255\2339\244\265\306V\306gr\264z-\323\352;\314"
 485      9B39A4B5 
 485      C656C667 
 485      72B47A2D 
 485      D3EA3BCC 
 486 0ed2 2B6469B9 		.ascii	"+di\271\364HW=\371<\320\364Y\261\372^^\3371\304\342"
 486      F448573D 
 486      F93CD0F4 
 486      59B1FA5E 
 486      5EDF31C4 
 487 0ee7 2553366A 		.ascii	"%S6jT\271\362\027O\226\213RyR\014\227\207\253D\2412"
 487      54B9F217 
 487      4F968B52 
 487      79520C97 
 487      87AB44A1 
 488 0efc 9294C4BA 		.ascii	"\222\224\304\272Qa\346^S\205H,\034\255\251\020\240R"
 488      5161E65E 
 488      5385482C 
 488      1CADA910 
ARM GAS  /tmp/ccOwAp6l.s 			page 39


 488      A052
 489 0f0e B22E29D5 		.ascii	"\262.)\325%\204\344\250*\306/A\023\276\"$\025\376\354"
 489      2584E4A8 
 489      2AC62F41 
 489      13BE2224 
 489      15FEEC
 490 0f21 B1A7CA26 		.ascii	"\261\247\312&0\201pUH)2\343\353\232\207\253*\240\351"
 490      30817055 
 490      482932E3 
 490      EB9A87AB 
 490      2AA0E9
 491 0f34 60A55E32 		.ascii	"`\245^2\364\2775B\215\020\222\206hMi\2217&L\225\274"
 491      F4BF3542 
 491      8D109286 
 491      684D6991 
 491      37264C95 
 492 0f49 09519852 		.ascii	"\011Q\230R\200\317c\365\210\341xuu<V\236\210\213R\262"
 492      80CF63F5 
 492      88E17875 
 492      753C569E 
 492      888B52B2 
 493 0f5d FCE1271E 		.ascii	"\374\341'\036\235\360\350TR\226\210D\0051Y\376\263\011"
 493      9DF0E854 
 493      52968844 
 493      053159FE 
 493      B309
 494 0f6f 13A02395 		.ascii	"\023\240#\225H\237\224\020#\361\220\364\257\3455IQ#"
 494      489F9410 
 494      23F190F4 
 494      AFE53549 
 494      5123
 495 0f81 2426D446 		.ascii	"$&\324F#\223\312\223RE$&\021Vj\340\367\337~\030\222"
 495      2393CA93 
 495      52452426 
 495      11566AE0 
 495      F7DF7E18 
 496 0f96 7E6055AD 		.ascii	"~`U\255\232\017WEbB"
 496      9A0F5745 
 496      6242
 497 0fa0 79A84298 		.ascii	"y\250B\230\314\327D\245\220\012^\024\012\251\015\275"
 497      CCD744A5 
 497      900A5E14 
 497      0AA90DBD 
 498 0fb0 A49B2021 		.ascii	"\244\233 !)\024\216\307$\240\376\273yI\256\012\307E"
 498      29148EC7 
 498      24A0FEBB 
 498      7949AE0A 
 498      C745
 499 0fc2 01608AB1 		.ascii	"\001`\212\261\031\000\205\245\251?p\326*4\345\301jB"
 499      190085A5 
 499      A93F70D6 
 499      2A34E5C1 
 499      6A42
 500 0fd4 37E88C17 		.ascii	"7\350\214\027\253C\022'>\300\211\377\316\211c8\361A"
 500      AB431227 
 500      3EC089FF 
 500      CE896338 
ARM GAS  /tmp/ccOwAp6l.s 			page 40


 500      F141
 501 0fe6 4E1CCB89 		.ascii	"N\034\313\211?\362\210\367\217\206\373~.*r\311\204\007"
 501      3FF288F7 
 501      8F86FB7E 
 501      2E2A72C9 
 501      8407
 502 0ff8 A00B801D 		.ascii	"\240\013\200\035A,\210G"
 502      412C8847 
 503 1000 2B04D11B 		.ascii	"+\004\321\033\256\342Eo\214\257\026\212\222\322\263"
 503      AEE2456F 
 503      8CAF168A 
 503      92D2B3
 504 100f 7C345219 		.ascii	"|4R\031\013I(\2051\017\204$\312\027\311\026\326\362"
 504      0B492885 
 504      310F8424 
 504      CA17C916 
 504      D6F2
 505 1021 93F8A4E0 		.ascii	"\223\370\244\340\227\222\022/\201\246|\344\305\330\220"
 505      9792122F 
 505      81A67CE4 
 505      C5D890
 506 1030 1450AA40 		.ascii	"\024P\252@\256\000\337\370\244\352x\005\274/\230\034"
 506      AE00DFF8 
 506      A4EA7805 
 506      BC2F981C 
 507 1040 E52B933E 		.ascii	"\345+\223>I\024&'A*\344\247\240:Y\011\015\251\240\240"
 507      49142627 
 507      412AE4A7 
 507      A03A5909 
 507      0DA9A0A0 
 508 1054 21CD158A 		.ascii	"!\315\025\212\025u\360\312/L\215Hah\\X+\305'\375*1\224"
 508      1575F0CA 
 508      2F4C8D48 
 508      61685C58 
 508      2BC527FD 
 509 106b 9A153415 		.ascii	"\232\0254\025D!\026&\240\265\222$&|I!&A\203 \030KR\250"
 509      44211626 
 509      A0B59224 
 509      267C4921 
 509      26418320 
 510 1083 E6135520 		.ascii	"\346\023U \210\341\366\246&\020\011\025\204c\240/\017"
 510      88E1F6A6 
 510      26100915 
 510      8463A02F 
 510      0F
 511 1094 A4000F45 		.ascii	"\244\000\017E\011?\264\256\256\001\005\331\267\254\226"
 511      093FB4AE 
 511      AE0105D9 
 511      B7AC96
 512 10a3 A69296F1 		.ascii	"\246\222\226\361\332\230 \372\260.\221\203\004\305\211"
 512      DA9820FA 
 512      B02E9183 
 512      04C589
 513 10b2 62610A21 		.ascii	"ba\012!\202O>\013EB-\311\2605%\252\351F\301\177B\322"
 513      824F3E0B 
 513      45422DC9 
 513      B03525AA 
ARM GAS  /tmp/ccOwAp6l.s 			page 41


 513      E946C17F 
 514 10c8 609D3193 		.ascii	"`\2351\223\022_-\037\221\"\261J?\320\216\306\354\027"
 514      125F2D1F 
 514      9122B14A 
 514      3FD08EC6 
 514      EC17
 515 10da 12420C2C 		.ascii	"\022B\014,\257\322\007\220\244\006\250\221\217\022\003"
 515      AFD20790 
 515      A406A891 
 515      8F1203
 516 10e9 2AA84EC4 		.ascii	"*\250N\304\343Q\360\206'\204\312\377\212\210I\351\347"
 516      E351F086 
 516      2784CAFF 
 516      8A8849E9 
 516      E7
 517 10fa 8833180B 		.ascii	"\2103\030\013\036\003\243R\2369)q\027\255\023\253P\212"
 517      1E03A352 
 517      9E392971 
 517      17AD13AB 
 517      508A
 518 110c 7E5CF718 		.ascii	"~\\\367\030(\2634\253\364\3618H[\020\207e\275\370\237"
 518      28B334AB 
 518      F4F13848 
 518      5B108765 
 518      BDF89F
 519 111f B8F82C90 		.ascii	"\270\370,\220\3600<q\265\3747m\205A9\001\201\200\334"
 519      F0303C71 
 519      B5FC376D 
 519      85413901 
 519      8180DC
 520 1132 7F5E55F1 		.ascii	"\177^U\361\204\020\025\300 l\374I\004H\342u\261x,V\023"
 520      841015C0 
 520      206CFC49 
 520      0448E275 
 520      B1782C56 
 521 1147 8D164249 		.ascii	"\215\026BI\270:\001\217\000\023\257\365B\323\311\336"
 521      B83A018F 
 521      0013AFF5 
 521      42D3C9DE 
 522 1157 448D2814 		.ascii	"D\215(\024\023\035B(\021\300v\003Z>H\272\252\243b\034"
 522      131D4228 
 522      11C07603 
 522      5A3E48BA 
 522      AAA3621C 
 523 116b 04C59967 		.ascii	"\004\305\231g_\270F\004k\220\012D\362t\327\224\210("
 523      5FB84604 
 523      6B900A44 
 523      F274D794 
 523      8828
 524 117d D5F0D190 		.ascii	"\325\360\321\220\024\251\006\237\247-\356\206\026\026"
 524      14A9069F 
 524      A72DEE86 
 524      1616
 525 118b 2F061BCA 		.ascii	"/\006\033\312\224`c(\012\220\336!C=\340\3761\232\007"
 525      94606328 
 525      0A90DE21 
 525      433DE0FE 
ARM GAS  /tmp/ccOwAp6l.s 			page 42


 525      319A07
 526 119e 906C4185 		.ascii	"\220lA\205\020\225x\377\024irM,\014&M~<\011^\364G\371"
 526      109578FF 
 526      1469724D 
 526      2C0C264D 
 526      7E3C095E 
 527 11b5 A4449A15 		.ascii	"\244D\232\025N\221H7%\224\237\012aRM\245b\005\372\222"
 527      4E914837 
 527      25949F0A 
 527      61524DA5 
 527      6205FA92 
 528 11c9 40828F45 		.ascii	"@\202\217E\302!\260\001O\305\244\312\242j\036\340\025"
 528      C221B001 
 528      4FC5A4CA 
 528      A26A1EE0 
 528      15
 529 11da 6586ABEC 		.ascii	"e\206\253\354\303\255\026\223!\330D*\200\377\310\344"
 529      C3AD1693 
 529      21D8442A 
 529      80FFC8E4 
 530 11ea 0878EF73 		.ascii	"\010x\357s\202\030\367&#\317\011\276)\300e$\036\363"
 530      8218F726 
 530      23CF09BE 
 530      29C06524 
 530      1EF3
 531 11fc 2524913C 		.ascii	"%$\221<\373\011A$SD\365F\312\342\223'\207\210u\371H"
 531      FB094124 
 531      5344F546 
 531      CAE29327 
 531      878875F9 
 532 1211 06024180 		.ascii	"\006\002A\200\374b0\300\034\006\004\254D\342A\220d "
 532      FC6230C0 
 532      1C0604AC 
 532      44E24190 
 532      6420
 533 1223 264423D5 		.ascii	"&D#\325\021)\240<\200\177c\016}\033k\022\277.Vp\005"
 533      1129A03C 
 533      807F630E 
 533      7D1B6B12 
 533      BF2E5670 
 534 1238 702A090B 		.ascii	"p*\011\013I\337\240L*\000\342h\230\0352J\214W\360\022"
 534      49DFA04C 
 534      2A00E268 
 534      981D324A 
 534      8C57F012 
 535 124c 3F4A2DC8 		.ascii	"?J-\310\341\263u\304\320\000\343\311\272\344\177\307"
 535      E1B375C4 
 535      D000E3C9 
 535      BAE47FC7 
 536 125c C3CF0630 		.ascii	"\303\317\00602F!w\277E\\\004\177(\237\360\350\223\217"
 536      32462177 
 536      BF455C04 
 536      7F289FF0 
 536      E8938F
 537 126f 3C9941A8 		.ascii	"<\231A\250NF\222\241\312p\030P\006\205 JH\241\037?\374"
 537      4E4692A1 
 537      CA701850 
ARM GAS  /tmp/ccOwAp6l.s 			page 43


 537      0685204A 
 537      48A11F3F 
 538 1284 E44F1F7F 		.ascii	"\344O\037\177\342\221A|\264\226\257KB\354\211B(/\230"
 538      E291417C 
 538      B496AF4B 
 538      42EC8942 
 538      282F98
 539 1297 C2476B88 		.ascii	"\302Gk\210\021B?O\305\010\276\022\203k0\357\017\205"
 539      11423F4F 
 539      C508BE12 
 539      836B30EF 
 539      0F85
 540 12a9 50D7A141 		.ascii	"P\327\241Ajf\324\230\037\216y\340\377\001cAR\006"
 540      6A66D498 
 540      1F8E79E0 
 540      FF016341 
 540      5206
 541              		.text
 542              		.section	.gnu.lto_.symtab.66e332150b0db3d5,"",%progbits
 543 0000 63685265 		.ascii	"chRegFirstThread\000\000\000\000\000\000\000\000\000"
 543      67466972 
 543      73745468 
 543      72656164 
 543      00000000 
 544 0019 000000A1 		.ascii	"\000\000\000\241\000\000\000chRegNextThread\000\000"
 544      00000063 
 544      68526567 
 544      4E657874 
 544      54687265 
 545 0031 00000000 		.ascii	"\000\000\000\000\000\000\000\000\000\000]\001\000\000"
 545      00000000 
 545      00005D01 
 545      0000
 546 003f 63685265 		.ascii	"chRegFindThreadByName\000\000\000\000\000\000\000\000"
 546      6746696E 
 546      64546872 
 546      65616442 
 546      794E616D 
 547 005c 00000000 		.ascii	"\000\000\000\000d\001\000\000chRegFindThreadByPoint"
 547      64010000 
 547      63685265 
 547      6746696E 
 547      64546872 
 548 007a 65720000 		.ascii	"er\000\000\000\000\000\000\000\000\000\000\000\000j"
 548      00000000 
 548      00000000 
 548      00006A
 549 0089 01000063 		.ascii	"\001\000\000chRegFindThreadByWorkingArea\000\000\000"
 549      68526567 
 549      46696E64 
 549      54687265 
 549      61644279 
 550 00ab 00000000 		.ascii	"\000\000\000\000\000\000\000\000\000n\001\000\000ch"
 550      00000000 
 550      006E0100 
 550      006368
 551 00ba 5F646562 		.ascii	"_debug\000\000\000\000\000\000\000\000\000\000\000\000"
ARM GAS  /tmp/ccOwAp6l.s 			page 44


 551      75670000 
 551      00000000 
 551      00000000 
 551      0000
 552 00cc D5010000 		.ascii	"\325\001\000\000ch\000\000\002\000\000\000\000\000\000"
 552      63680000 
 552      02000000 
 552      000000
 553 00db 00000086 		.ascii	"\000\000\000\206\001\000\000chThdRelease\000\000\002"
 553      01000063 
 553      68546864 
 553      52656C65 
 553      61736500 
 554 00f1 00000000 		.ascii	"\000\000\000\000\000\000\000\000\000u\001\000\000"
 554      00000000 
 554      00750100 
 554      00
 555              		.text
 556              		.section	.gnu.lto_.opts,"",%progbits
 557 0000 272D6D63 		.ascii	"'-mcpu=cortex-m3' '-mno-thumb-interwork' '-mthumb' "
 557      70753D63 
 557      6F727465 
 557      782D6D33 
 557      2720272D 
 558 0033 272D6767 		.ascii	"'-ggdb' '-O2' '-fomit-frame-pointer' '-falign-funct"
 558      64622720 
 558      272D4F32 
 558      2720272D 
 558      666F6D69 
 559 0066 696F6E73 		.ascii	"ions=16' '-ffunction-sections' '-fdata-sections' '-"
 559      3D313627 
 559      20272D66 
 559      66756E63 
 559      74696F6E 
 560 0099 666E6F2D 		.ascii	"fno-common' '-flto'\000"
 560      636F6D6D 
 560      6F6E2720 
 560      272D666C 
 560      746F2700 
 561              		.text
 562              		.cfi_sections	.debug_frame
 563              		.section	.text.chRegFirstThread,"ax",%progbits
 564              		.align	2
 565              		.p2align 4,,15
 566              		.global	chRegFirstThread
 567              		.thumb
 568              		.thumb_func
 569              		.type	chRegFirstThread, %function
 570              	chRegFirstThread:
 571              	.LFB188:
 572              		.file 1 "../../../os/rt/src/chregistry.c"
 573              		.loc 1 134 0
 574              		.cfi_startproc
 575              		@ args = 0, pretend = 0, frame = 0
 576              		@ frame_needed = 0, uses_anonymous_args = 0
 577              		@ link register save eliminated.
 578              	.LVL0:
ARM GAS  /tmp/ccOwAp6l.s 			page 45


 579              	.LBB71:
 580              	.LBB72:
 581              	.LBB73:
 582              	.LBB74:
 583              		.file 2 "../../../os/common/ext/CMSIS/include/cmsis_gcc.h"
 584              		.loc 2 264 0
 585 0000 2023     		movs	r3, #32
 586              	@ 264 "../../../os/common/ext/CMSIS/include/cmsis_gcc.h" 1
 587 0002 83F31188 		MSR basepri, r3
 588              	@ 0 "" 2
 589              		.thumb
 590              	.LBE74:
 591              	.LBE73:
 592              	.LBE72:
 593              	.LBE71:
 594              		.loc 1 138 0
 595 0006 40F20003 		movw	r3, #:lower16:ch
 596 000a C0F20003 		movt	r3, #:upper16:ch
 597 000e 1869     		ldr	r0, [r3, #16]
 598              	.LVL1:
 599              	.LBB75:
 600              	.LBB76:
 601              	.LBB77:
 602              	.LBB78:
 603              	.LBB79:
 604              		.loc 2 264 0
 605 0010 0023     		movs	r3, #0
 606              	.LBE79:
 607              	.LBE78:
 608              	.LBE77:
 609              	.LBE76:
 610              	.LBE75:
 611              		.loc 1 140 0
 612 0012 90F82220 		ldrb	r2, [r0, #34]	@ zero_extendqisi2
 613 0016 0132     		adds	r2, r2, #1
 614 0018 80F82220 		strb	r2, [r0, #34]
 615              	.LVL2:
 616              	.LBB84:
 617              	.LBB83:
 618              	.LBB82:
 619              	.LBB81:
 620              	.LBB80:
 621              		.loc 2 264 0
 622              	@ 264 "../../../os/common/ext/CMSIS/include/cmsis_gcc.h" 1
 623 001c 83F31188 		MSR basepri, r3
 624              	@ 0 "" 2
 625              		.thumb
 626              	.LBE80:
 627              	.LBE81:
 628              	.LBE82:
 629              	.LBE83:
 630              	.LBE84:
 631              		.loc 1 145 0
 632 0020 7047     		bx	lr
 633              		.cfi_endproc
 634              	.LFE188:
 635              		.size	chRegFirstThread, .-chRegFirstThread
ARM GAS  /tmp/ccOwAp6l.s 			page 46


 636 0022 00BFAFF3 		.section	.text.chRegNextThread,"ax",%progbits
 636      0080AFF3 
 636      0080AFF3 
 636      0080
 637              		.align	2
 638              		.p2align 4,,15
 639              		.global	chRegNextThread
 640              		.thumb
 641              		.thumb_func
 642              		.type	chRegNextThread, %function
 643              	chRegNextThread:
 644              	.LFB189:
 645              		.loc 1 158 0
 646              		.cfi_startproc
 647              		@ args = 0, pretend = 0, frame = 0
 648              		@ frame_needed = 0, uses_anonymous_args = 0
 649              	.LVL3:
 650 0000 10B5     		push	{r4, lr}
 651              		.cfi_def_cfa_offset 8
 652              		.cfi_offset 4, -8
 653              		.cfi_offset 14, -4
 654              	.LBB85:
 655              	.LBB86:
 656              	.LBB87:
 657              	.LBB88:
 658              		.loc 2 264 0
 659 0002 2023     		movs	r3, #32
 660              	@ 264 "../../../os/common/ext/CMSIS/include/cmsis_gcc.h" 1
 661 0004 83F31188 		MSR basepri, r3
 662              	@ 0 "" 2
 663              		.thumb
 664              	.LBE88:
 665              	.LBE87:
 666              	.LBE86:
 667              	.LBE85:
 668              		.loc 1 164 0
 669 0008 40F20003 		movw	r3, #:lower16:ch
 670              		.loc 1 162 0
 671 000c 0469     		ldr	r4, [r0, #16]
 672              	.LVL4:
 673              		.loc 1 164 0
 674 000e C0F20003 		movt	r3, #:upper16:ch
 675 0012 9C42     		cmp	r4, r3
 676              		.loc 1 171 0
 677 0014 17BF     		itett	ne
 678 0016 94F82230 		ldrbne	r3, [r4, #34]	@ zero_extendqisi2
 679              		.loc 1 166 0
 680 001a 0024     		moveq	r4, #0
 681              	.LVL5:
 682              		.loc 1 171 0
 683 001c 0133     		addne	r3, r3, #1
 684 001e 84F82230 		strbne	r3, [r4, #34]
 685              	.LBB89:
 686              	.LBB90:
 687              	.LBB91:
 688              	.LBB92:
 689              	.LBB93:
ARM GAS  /tmp/ccOwAp6l.s 			page 47


 690              		.loc 2 264 0
 691 0022 0023     		movs	r3, #0
 692              	@ 264 "../../../os/common/ext/CMSIS/include/cmsis_gcc.h" 1
 693 0024 83F31188 		MSR basepri, r3
 694              	@ 0 "" 2
 695              		.thumb
 696              	.LBE93:
 697              	.LBE92:
 698              	.LBE91:
 699              	.LBE90:
 700              	.LBE89:
 701              		.loc 1 176 0
 702 0028 FFF7FEFF 		bl	chThdRelease
 703              	.LVL6:
 704              		.loc 1 180 0
 705 002c 2046     		mov	r0, r4
 706 002e 10BD     		pop	{r4, pc}
 707              		.cfi_endproc
 708              	.LFE189:
 709              		.size	chRegNextThread, .-chRegNextThread
 710              		.section	.text.chRegFindThreadByName,"ax",%progbits
 711              		.align	2
 712              		.p2align 4,,15
 713              		.global	chRegFindThreadByName
 714              		.thumb
 715              		.thumb_func
 716              		.type	chRegFindThreadByName, %function
 717              	chRegFindThreadByName:
 718              	.LFB190:
 719              		.loc 1 194 0
 720              		.cfi_startproc
 721              		@ args = 0, pretend = 0, frame = 0
 722              		@ frame_needed = 0, uses_anonymous_args = 0
 723              	.LVL7:
 724 0000 38B5     		push	{r3, r4, r5, lr}
 725              		.cfi_def_cfa_offset 16
 726              		.cfi_offset 3, -16
 727              		.cfi_offset 4, -12
 728              		.cfi_offset 5, -8
 729              		.cfi_offset 14, -4
 730              		.loc 1 194 0
 731 0002 0546     		mov	r5, r0
 732              	.LBB94:
 733              	.LBB95:
 734              	.LBB96:
 735              	.LBB97:
 736              	.LBB98:
 737              	.LBB99:
 738              		.loc 2 264 0
 739 0004 2023     		movs	r3, #32
 740              	@ 264 "../../../os/common/ext/CMSIS/include/cmsis_gcc.h" 1
 741 0006 83F31188 		MSR basepri, r3
 742              	@ 0 "" 2
 743              		.thumb
 744              	.LBE99:
 745              	.LBE98:
 746              	.LBE97:
ARM GAS  /tmp/ccOwAp6l.s 			page 48


 747              	.LBE96:
 748              		.loc 1 138 0
 749 000a 40F20003 		movw	r3, #:lower16:ch
 750 000e C0F20003 		movt	r3, #:upper16:ch
 751 0012 1C69     		ldr	r4, [r3, #16]
 752              	.LVL8:
 753              	.LBB100:
 754              	.LBB101:
 755              	.LBB102:
 756              	.LBB103:
 757              	.LBB104:
 758              		.loc 2 264 0
 759 0014 0023     		movs	r3, #0
 760              	.LBE104:
 761              	.LBE103:
 762              	.LBE102:
 763              	.LBE101:
 764              	.LBE100:
 765              		.loc 1 140 0
 766 0016 94F82220 		ldrb	r2, [r4, #34]	@ zero_extendqisi2
 767 001a 0132     		adds	r2, r2, #1
 768 001c 84F82220 		strb	r2, [r4, #34]
 769              	.LVL9:
 770              	.LBB109:
 771              	.LBB108:
 772              	.LBB107:
 773              	.LBB106:
 774              	.LBB105:
 775              		.loc 2 264 0
 776              	@ 264 "../../../os/common/ext/CMSIS/include/cmsis_gcc.h" 1
 777 0020 83F31188 		MSR basepri, r3
 778              	@ 0 "" 2
 779              		.thumb
 780 0024 04E0     		b	.L7
 781              	.LVL10:
 782              	.L13:
 783              	.LBE105:
 784              	.LBE106:
 785              	.LBE107:
 786              	.LBE108:
 787              	.LBE109:
 788              	.LBE95:
 789              	.LBE94:
 790              		.loc 1 203 0
 791 0026 2046     		mov	r0, r4
 792 0028 FFF7FEFF 		bl	chRegNextThread
 793              	.LVL11:
 794              		.loc 1 204 0
 795 002c 0446     		mov	r4, r0
 796              	.LVL12:
 797 002e 28B1     		cbz	r0, .L6
 798              	.LVL13:
 799              	.L7:
 800              		.loc 1 200 0
 801 0030 A069     		ldr	r0, [r4, #24]
 802 0032 2946     		mov	r1, r5
 803 0034 FFF7FEFF 		bl	strcmp
ARM GAS  /tmp/ccOwAp6l.s 			page 49


 804              	.LVL14:
 805 0038 0028     		cmp	r0, #0
 806 003a F4D1     		bne	.L13
 807              	.LVL15:
 808              	.L6:
 809              		.loc 1 207 0
 810 003c 2046     		mov	r0, r4
 811 003e 38BD     		pop	{r3, r4, r5, pc}
 812              		.cfi_endproc
 813              	.LFE190:
 814              		.size	chRegFindThreadByName, .-chRegFindThreadByName
 815              		.section	.text.chRegFindThreadByPointer,"ax",%progbits
 816              		.align	2
 817              		.p2align 4,,15
 818              		.global	chRegFindThreadByPointer
 819              		.thumb
 820              		.thumb_func
 821              		.type	chRegFindThreadByPointer, %function
 822              	chRegFindThreadByPointer:
 823              	.LFB191:
 824              		.loc 1 221 0
 825              		.cfi_startproc
 826              		@ args = 0, pretend = 0, frame = 0
 827              		@ frame_needed = 0, uses_anonymous_args = 0
 828              	.LVL16:
 829 0000 10B5     		push	{r4, lr}
 830              		.cfi_def_cfa_offset 8
 831              		.cfi_offset 4, -8
 832              		.cfi_offset 14, -4
 833              	.LBB110:
 834              	.LBB111:
 835              	.LBB112:
 836              	.LBB113:
 837              	.LBB114:
 838              	.LBB115:
 839              		.loc 2 264 0
 840 0002 2023     		movs	r3, #32
 841              	.LBE115:
 842              	.LBE114:
 843              	.LBE113:
 844              	.LBE112:
 845              	.LBE111:
 846              	.LBE110:
 847              		.loc 1 221 0
 848 0004 0446     		mov	r4, r0
 849              	.LBB131:
 850              	.LBB130:
 851              	.LBB119:
 852              	.LBB118:
 853              	.LBB117:
 854              	.LBB116:
 855              		.loc 2 264 0
 856              	@ 264 "../../../os/common/ext/CMSIS/include/cmsis_gcc.h" 1
 857 0006 83F31188 		MSR basepri, r3
 858              	@ 0 "" 2
 859              		.thumb
 860              	.LBE116:
ARM GAS  /tmp/ccOwAp6l.s 			page 50


 861              	.LBE117:
 862              	.LBE118:
 863              	.LBE119:
 864              		.loc 1 138 0
 865 000a 40F20003 		movw	r3, #:lower16:ch
 866 000e C0F20003 		movt	r3, #:upper16:ch
 867 0012 1869     		ldr	r0, [r3, #16]
 868              	.LVL17:
 869              	.LBB120:
 870              	.LBB121:
 871              	.LBB122:
 872              	.LBB123:
 873              	.LBB124:
 874              		.loc 2 264 0
 875 0014 0023     		movs	r3, #0
 876              	.LBE124:
 877              	.LBE123:
 878              	.LBE122:
 879              	.LBE121:
 880              	.LBE120:
 881              		.loc 1 140 0
 882 0016 90F82220 		ldrb	r2, [r0, #34]	@ zero_extendqisi2
 883 001a 0132     		adds	r2, r2, #1
 884 001c 80F82220 		strb	r2, [r0, #34]
 885              	.LVL18:
 886              	.LBB129:
 887              	.LBB128:
 888              	.LBB127:
 889              	.LBB126:
 890              	.LBB125:
 891              		.loc 2 264 0
 892              	@ 264 "../../../os/common/ext/CMSIS/include/cmsis_gcc.h" 1
 893 0020 83F31188 		MSR basepri, r3
 894              	@ 0 "" 2
 895              	.LVL19:
 896              		.thumb
 897              	.LBE125:
 898              	.LBE126:
 899              	.LBE127:
 900              	.LBE128:
 901              	.LBE129:
 902              	.LBE130:
 903              	.LBE131:
 904              		.loc 1 227 0
 905 0024 8442     		cmp	r4, r0
 906 0026 02D1     		bne	.L16
 907 0028 06E0     		b	.L19
 908              	.LVL20:
 909              	.L17:
 910 002a 8442     		cmp	r4, r0
 911 002c 04D0     		beq	.L19
 912              	.L16:
 913              		.loc 1 230 0
 914 002e FFF7FEFF 		bl	chRegNextThread
 915              	.LVL21:
 916              		.loc 1 231 0
 917 0032 0028     		cmp	r0, #0
ARM GAS  /tmp/ccOwAp6l.s 			page 51


 918 0034 F9D1     		bne	.L17
 919 0036 10BD     		pop	{r4, pc}
 920              	.LVL22:
 921              	.L19:
 922              		.loc 1 230 0
 923 0038 2046     		mov	r0, r4
 924              	.LVL23:
 925              		.loc 1 234 0
 926 003a 10BD     		pop	{r4, pc}
 927              		.cfi_endproc
 928              	.LFE191:
 929              		.size	chRegFindThreadByPointer, .-chRegFindThreadByPointer
 930 003c AFF30080 		.section	.text.chRegFindThreadByWorkingArea,"ax",%progbits
 931              		.align	2
 932              		.p2align 4,,15
 933              		.global	chRegFindThreadByWorkingArea
 934              		.thumb
 935              		.thumb_func
 936              		.type	chRegFindThreadByWorkingArea, %function
 937              	chRegFindThreadByWorkingArea:
 938              	.LFB192:
 939              		.loc 1 250 0
 940              		.cfi_startproc
 941              		@ args = 0, pretend = 0, frame = 0
 942              		@ frame_needed = 0, uses_anonymous_args = 0
 943              	.LVL24:
 944 0000 10B5     		push	{r4, lr}
 945              		.cfi_def_cfa_offset 8
 946              		.cfi_offset 4, -8
 947              		.cfi_offset 14, -4
 948              	.LBB132:
 949              	.LBB133:
 950              	.LBB134:
 951              	.LBB135:
 952              	.LBB136:
 953              	.LBB137:
 954              		.loc 2 264 0
 955 0002 2023     		movs	r3, #32
 956              	.LBE137:
 957              	.LBE136:
 958              	.LBE135:
 959              	.LBE134:
 960              	.LBE133:
 961              	.LBE132:
 962              		.loc 1 250 0
 963 0004 0446     		mov	r4, r0
 964              	.LBB153:
 965              	.LBB152:
 966              	.LBB141:
 967              	.LBB140:
 968              	.LBB139:
 969              	.LBB138:
 970              		.loc 2 264 0
 971              	@ 264 "../../../os/common/ext/CMSIS/include/cmsis_gcc.h" 1
 972 0006 83F31188 		MSR basepri, r3
 973              	@ 0 "" 2
 974              		.thumb
ARM GAS  /tmp/ccOwAp6l.s 			page 52


 975              	.LBE138:
 976              	.LBE139:
 977              	.LBE140:
 978              	.LBE141:
 979              		.loc 1 138 0
 980 000a 40F20003 		movw	r3, #:lower16:ch
 981 000e C0F20003 		movt	r3, #:upper16:ch
 982 0012 1B69     		ldr	r3, [r3, #16]
 983              	.LVL25:
 984              	.LBB142:
 985              	.LBB143:
 986              	.LBB144:
 987              	.LBB145:
 988              	.LBB146:
 989              		.loc 2 264 0
 990 0014 0022     		movs	r2, #0
 991              	.LBE146:
 992              	.LBE145:
 993              	.LBE144:
 994              	.LBE143:
 995              	.LBE142:
 996              		.loc 1 140 0
 997 0016 93F82210 		ldrb	r1, [r3, #34]	@ zero_extendqisi2
 998 001a 0131     		adds	r1, r1, #1
 999 001c 83F82210 		strb	r1, [r3, #34]
 1000              	.LVL26:
 1001              	.LBB151:
 1002              	.LBB150:
 1003              	.LBB149:
 1004              	.LBB148:
 1005              	.LBB147:
 1006              		.loc 2 264 0
 1007              	@ 264 "../../../os/common/ext/CMSIS/include/cmsis_gcc.h" 1
 1008 0020 82F31188 		MSR basepri, r2
 1009              	@ 0 "" 2
 1010              		.thumb
 1011 0024 03E0     		b	.L22
 1012              	.LVL27:
 1013              	.L26:
 1014              	.LBE147:
 1015              	.LBE148:
 1016              	.LBE149:
 1017              	.LBE150:
 1018              	.LBE151:
 1019              	.LBE152:
 1020              	.LBE153:
 1021              		.loc 1 259 0
 1022 0026 FFF7FEFF 		bl	chRegNextThread
 1023              	.LVL28:
 1024              		.loc 1 260 0
 1025 002a 0346     		mov	r3, r0
 1026 002c 18B1     		cbz	r0, .L21
 1027              	.LVL29:
 1028              	.L22:
 1029              		.loc 1 256 0
 1030 002e DA69     		ldr	r2, [r3, #28]
 1031              		.loc 1 259 0
ARM GAS  /tmp/ccOwAp6l.s 			page 53


 1032 0030 1846     		mov	r0, r3
 1033              		.loc 1 256 0
 1034 0032 A242     		cmp	r2, r4
 1035 0034 F7D1     		bne	.L26
 1036              	.LVL30:
 1037              	.L21:
 1038              		.loc 1 263 0
 1039 0036 1846     		mov	r0, r3
 1040              	.LVL31:
 1041 0038 10BD     		pop	{r4, pc}
 1042              		.cfi_endproc
 1043              	.LFE192:
 1044              		.size	chRegFindThreadByWorkingArea, .-chRegFindThreadByWorkingArea
 1045              		.global	ch_debug
 1046 003a 00BFAFF3 		.section	.rodata.ch_debug,"a",%progbits
 1046      0080
 1047              		.align	2
 1048              		.type	ch_debug, %object
 1049              		.size	ch_debug, 22
 1050              	ch_debug:
 1051 0000 6D       		.byte	109
 1052 0001 61       		.byte	97
 1053 0002 69       		.byte	105
 1054 0003 6E       		.byte	110
 1055 0004 00       		.byte	0
 1056 0005 16       		.byte	22
 1057 0006 0220     		.short	8194
 1058 0008 04       		.byte	4
 1059 0009 02       		.byte	2
 1060 000a 44       		.byte	68
 1061 000b 08       		.byte	8
 1062 000c 0C       		.byte	12
 1063 000d 10       		.byte	16
 1064 000e 14       		.byte	20
 1065 000f 18       		.byte	24
 1066 0010 1C       		.byte	28
 1067 0011 20       		.byte	32
 1068 0012 21       		.byte	33
 1069 0013 22       		.byte	34
 1070 0014 00       		.byte	0
 1071 0015 00       		.byte	0
 1072 0016 0000     		.text
 1073              	.Letext0:
 1074              		.file 3 "/usr/lib/gcc/arm-none-eabi/4.8.2/include/stddef.h"
 1075              		.file 4 "/usr/include/newlib/machine/_default_types.h"
 1076              		.file 5 "/usr/include/newlib/stdint.h"
 1077              		.file 6 "../../../os/common/ports/ARMCMx/compilers/GCC/chtypes.h"
 1078              		.file 7 "../../../os/rt/include/chsystypes.h"
 1079              		.file 8 "../../../os/rt/include/chschd.h"
 1080              		.file 9 "../../../os/common/ports/ARMCMx/chcore.h"
 1081              		.file 10 "../../../os/common/ports/ARMCMx/chcore_v7m.h"
 1082              		.file 11 "../../../os/rt/include/chsem.h"
 1083              		.file 12 "../../../os/rt/include/chmtx.h"
 1084              		.file 13 "../../../os/rt/include/chregistry.h"
 1085              		.file 14 "../../../os/rt/include/chthreads.h"
 1086              		.file 15 "../../../os/rt/include/chsys.h"
 1087              		.file 16 "../../../os/common/ext/CMSIS/include/core_cm3.h"
ARM GAS  /tmp/ccOwAp6l.s 			page 54


 1088              		.file 17 "/usr/include/newlib/string.h"