ARM GAS  /tmp/cc6gOb22.s 			page 1


   1              		.syntax unified
   2              		.cpu cortex-m3
   3              		.fpu softvfp
   4              		.eabi_attribute 20, 1
   5              		.eabi_attribute 21, 1
   6              		.eabi_attribute 23, 3
   7              		.eabi_attribute 24, 1
   8              		.eabi_attribute 25, 1
   9              		.eabi_attribute 26, 1
  10              		.eabi_attribute 30, 2
  11              		.eabi_attribute 34, 1
  12              		.eabi_attribute 18, 4
  13              		.thumb
  14              		.file	"chvt.c"
  15              		.text
  16              	.Ltext0:
  17              		.section	.gnu.lto_.jmpfuncs.335c8a8ac0785a1c,"",%progbits
  18 0000 789C6362 		.ascii	"x\234cb`b\300\006d\2404\013\003#\020\002\0251\363\003"
  18      6062C006 
  18      64A0340B 
  18      03231002 
  18      1531F303 
  19 0014 29206261 		.ascii	") badd\006\212\227\001\231\000\011|\000\275"
  19      6464068A 
  19      97019900 
  19      097C00BD 
  20              		.text
  21              		.section	.gnu.lto_.inline.335c8a8ac0785a1c,"",%progbits
  22 0000 789C6362 		.ascii	"x\234cb`b\300\006\224\031\031\030\244\2014\013\003\203"
  22      6062C006 
  22      94191918 
  22      A481340B 
  22      0383
  23 0012 9414230B 		.ascii	"\224\024#\013Cz5\303\257\206\216\206\007\213\277Yf2"
  23      437A35C3 
  23      AF868E86 
  23      078BBF59 
  23      6632
  24 0024 326833AC 		.ascii	"2h3\254j\000\002\323LF\306\\F\206$F\2706f\006\206\214"
  24      6A0002D3 
  24      4C46C65C 
  24      46862446 
  24      B8366606 
  25 003a 44C6858C 		.ascii	"D\306\205\214\325 \026#\003\214t`g\355Pg`\357Pgb`|\301"
  25      D5201623 
  25      038C7460 
  25      67ED5067 
  25      60EF5067 
  26 0052 2EC0C400 		.ascii	".\300\304\000\344\0120H}[\302\310\301\300\270\233]\201"
  26      E40A3048 
  26      7D5BC2C8 
  26      C1C0B89B 
  26      5D81
  27 0064 83094281 		.ascii	"\203\011B\201\214`\344\002Y\312\304\315\000\224\232"
  27      8C60E402 
  27      59CAC4CD 
  27      00949A
ARM GAS  /tmp/cc6gOb22.s 			page 2


  28 0073 E0C7C4C0 		.ascii	"\340\307\304\300\316\306\310\300\304q\300\216\201m\201"
  28      CEC6C8C0 
  28      C471C08E 
  28      816D81
  29 0082 3C13C40E 		.ascii	"<\023\304\016\243K\014\214\314\214)\021\214\231\214"
  29      A34B0C8C 
  29      CC8C2911 
  29      8C998C
  30 0091 4C40E319 		.ascii	"L@\343\031S\341,\220K\230\275\316\377\340`\340[\352"
  30      53E12C90 
  30      4B98BDCE 
  30      FFE060E0 
  30      5BEA
  31 00a3 C6C4C0B2 		.ascii	"\306\304\300\262@^\000\244\005h\032\3300\010\305\302"
  31      405E00A4 
  31      05681AD8 
  31      3008C5C2 
  32 00b3 2022C0C8 		.ascii	" \"\300\310\014v\230\002\262#9\304&Lfd\3408\242\003"
  32      0C769802 
  32      B22339C4 
  32      264C6664 
  32      E038A203 
  33 00c7 74CD2536 		.ascii	"t\315%6\026\010\011\"8\300L\240{.\261\0120\201I$C\031"
  33      16080922 
  33      38C04CA0 
  33      7B2EB10A 
  33      30814924 
  34 00dd A4F4F4F4 		.ascii	"\244\364\364\364!(\277X\277\250D\277\270(Y?9\243\254"
  34      2128BF58 
  34      BFA844BF 
  34      B828593F 
  34      39A3AC
  35 00f0 442F9901 		.ascii	"D/\231\001\000\033\3201\002"
  35      001BD031 
  35      02
  36              		.text
  37              		.section	.gnu.lto_.pureconst.335c8a8ac0785a1c,"",%progbits
  38 0000 789C6362 		.ascii	"x\234cb`b\340d\200\000\026\006)&\011f)\026)\000\002"
  38      6062E064 
  38      80001606 
  38      29260966 
  38      29162900 
  39 0015 D80081   		.ascii	"\330\000\201"
  40              		.text
  41              		.section	.gnu.lto_chVTDoResetI.part.0.335c8a8ac0785a1c,"",%progbits
  42 0000 789C9555 		.ascii	"x\234\225U]lTU\020\236\271\377\367\356n\267\232h\320"
  42      5D6C5455 
  42      109EB9FF 
  42      F7EE6EB7 
  42      9A68D0
  43 0013 4462F04D 		.ascii	"Db\360Mbo\224\230\310\2231\372BB_d\233\350\213u\275"
  43      626F9498 
  43      C89331FA 
  43      42425F64 
  43      9BE88B75 
  44 0028 DD6C6FB2 		.ascii	"\335lo\262\333%\333\025M|\340,\273!\010&\224&FE+\202"
  44      DB25DB15 
ARM GAS  /tmp/cc6gOb22.s 			page 3


  44      4D7CE02C 
  44      BB210826 
  44      94264645 
  45 003e 15154C88 		.ascii	"\025\025L\210\232\250\004\002\305\037l!-\222\370\003"
  45      9AA80402 
  45      C51F6C21 
  45      2D92F803 
  46 004e 4D1FFA60 		.ascii	"M\037\372`\370\011A\233\324\027*\260\316\234\373\263"
  46      F809419B 
  46      D4172AB0 
  46      CE9CFBB3 
  47 005e 97D5063C 		.ascii	"\227\325\006<\331{f\31693\337|3\347g\025P\240\263\225"
  47      D97B66CE 
  47      3933DF7C 
  47      33E76715 
  47      50A0B395 
  48 0072 E9FBC800 		.ascii	"\351\373\310\000\370\222$:\200\366\310\014)6*R*\212"
  48      F892243A 
  48      80F6C80C 
  48      29362A52 
  48      2A8A
  49 0084 7A5805E1 		.ascii	"zX\005\341h\277\235\002\020i\025-\236\256[\232b\035"
  49      68BF9D02 
  49      1069152D 
  49      9EAE5B9A 
  49      621D
  50 0096 5D49F3FA 		.ascii	"]I\363\372\317.M\353\212\361\306=42\233kid\240\031\030"
  50      CF2E4DEB 
  50      8AF1C63D 
  50      34329B6B 
  50      6964A019 
  51 00ab 9991B585 		.ascii	"\231\221\265\205\310\012 l\266\025U\323\015\323\302"
  51      C80A206C 
  51      B61555D3 
  51      0DD3C2
  52 00ba CDCF2387 		.ascii	"\315\317#\207\327\312\010\253`\257\020\273\347\1778"
  52      D7CA08AB 
  52      60AF10BB 
  52      E77F38
  53 00c9 FEF98AED 		.ascii	"\376\371\212\355\037\324G\304\315V\013}^\365\020\236"
  53      1FD447C4 
  53      CD560B7D 
  53      5EF5109E 
  54 00d9 230DBBA5 		.ascii	"#\015\273\245P:\310K\267\321\211_f\336Z!\022n\012<\200"
  54      503AC84B 
  54      B7D1895F 
  54      66DE5A21 
  54      126E0A3C 
  55 00ee 77E4298E 		.ascii	"w\344)\216\274\370\211hN\264ZOJ\257\207n\347uH\021\363"
  55      BCF88968 
  55      4EB45A4F 
  55      4AAF876E 
  55      E7754811 
  56 0103 ADD63B1F 		.ascii	"\255\326;\037;\367\"\226\021\025\360QU\251\3234\356"
  56      3BF72296 
  56      1115F051 
  56      55A9D334 
ARM GAS  /tmp/cc6gOb22.s 			page 4


  56      EE
  57 0114 74EE0CEA 		.ascii	"t\356\014\352t\223:\260xhC\036\307q\0258$\367\221L\361"
  57      74933AB0 
  57      7868431E 
  57      C7711538 
  57      24F7914C 
  58 0129 643A1C64 		.ascii	"d:\034dx@\260:4\205\030y0\260\014\226d\346\324r\324"
  58      7840B03A 
  58      34851879 
  58      30B00C96 
  58      64E6D472 
  59 013e 73E17268 		.ascii	"s\341rh\263T\373((\313i\3302\373\366\3425%\217\373Q"
  59      B354FB28 
  59      28CB69D8 
  59      32FBF6E2 
  59      35258FFB 
  60 0153 87222AAB 		.ascii	"\207\"*\253\341a\"\363.\354\256\013\321\355\243QD\344"
  60      E16122F3 
  60      2EECAE0B 
  60      D1EDA351 
  60      44E4
  61 0165 0C54C9FB 		.ascii	"\014T\311\373%\2142 \277\251\237\234\300k5\034\020\324"
  61      258C3220 
  61      BFA99F9C 
  61      C06B351C 
  61      10D4
  62 0177 D69255A8 		.ascii	"\326\222U\250\246|4c\010\3535X\022\333X\263\313\310"
  62      A67C3463 
  62      08EB3558 
  62      12DB58B3 
  62      CBC8
  63 0189 85603C3B 		.ascii	"\205`<;\304\303P\006\005*\262$\350\245\306\327\357?"
  63      C4C35006 
  63      052AB224 
  63      E8A5C6D7 
  63      EF3F
  64 019b 710BF886 		.ascii	"q\013\370\206\016RJ\222T \2030\342\010-8\241\327Y\322"
  64      0E524A92 
  64      54208330 
  64      E2082D38 
  64      A1D759D2 
  65 01af 4D0A1AC5 		.ascii	"M\012\032\305\211\250\177sn\3612\336\202\237\3611\265"
  65      89A87F73 
  65      6EF132DE 
  65      829FF131 
  65      B5
  66 01c0 6CD29A94 		.ascii	"l\322\232\224<\223be\022\276\277x\342\213l\\\2620p\266"
  66      3C936265 
  66      12BEBF78 
  66      E28B6C5C 
  66      B23070B6 
  67 01d4 1DF7F1FF 		.ascii	"\035\367\361\377\010\033\265>\202=\254\252g\240\261"
  67      081BB53E 
  67      823DACAA 
  67      67A0B1
  68 01e3 30F7EBD6 		.ascii	"0\367\353\326l\270g\321\346M\354\270\372\241\011\020"
  68      6CB867D1 
ARM GAS  /tmp/cc6gOb22.s 			page 5


  68      E64DECB8 
  68      FAA10910 
  69 01f3 607B917F 		.ascii	"`{\221\177\\\301\264\207\264U_\321\0325\0373\021\244"
  69      5CC1B487 
  69      B4555FD1 
  69      1A351F33 
  69      11A4
  70 0205 0674AB82 		.ascii	"\006t\253\202\315\\\232R#f\341v\220\037,[;\275]\225"
  70      CD5C9A52 
  70      2366E176 
  70      901F2C5B 
  70      3BBD5D95 
  71 0219 D9853827 		.ascii	"\331\2058'M\036\003X\266\"m\257\306\266\306\005\214"
  71      4D1E0358 
  71      B6226DAF 
  71      C6B6C605 
  71      8C
  72 022a DC748A59 		.ascii	"\334t\212Y\344r\021\332\272d}\357\200B\221\3454|;\373"
  72      E47211DA 
  72      BA647DEF 
  72      804291E5 
  72      347C3BFB 
  73 023e DE9F973E 		.ascii	"\336\237\227>\035\305\316\272,\316\216\031\361`\357"
  73      1DC5CEBA 
  73      2CCE8E19 
  73      F160EF
  74 024d 9B639978 		.ascii	"\233c\231xp\372z\303nWL\245O\243O\0170\015\216\337\254"
  74      70FA7AC3 
  74      6E574CA5 
  74      4FA34F0F 
  74      300D8EDF 
  75 0262 CF5F3B39 		.ascii	"\317_;93\212\232\217]\314b\204Yd\231B7\357\226&\267"
  75      338A9A8F 
  75      5DCC6284 
  75      59649942 
  75      37EF9626 
  76 0277 B63B6463 		.ascii	"\266;dc0\326\361\300\237\322\370\243\321\225\307c2;"
  76      30D6F1C0 
  76      9FD2F8A3 
  76      D195C763 
  76      323B
  77 0289 B3C88B5C 		.ascii	"\263\310\213\\\250\271\337\367\274\020\345l\005\245"
  77      A8B9DFF7 
  77      BC10E56C 
  77      05A5
  78 0297 0A777E0F 		.ascii	"\012w~\017\376\357\243o\266k\371z\243\032\301\3322\236"
  78      FEEFA36F 
  78      B66BF97A 
  78      A31AC1DA 
  78      329E
  79 02a9 053005E1 		.ascii	"\0050\005\341\345\014\256u\221\375'\241y\341\304\337"
  79      E50CAE75 
  79      91FD27A1 
  79      79E1C4DF 
  80 02b9 3BD544DD 		.ascii	";\325D\335\355\344\011\323\341\307GT\211wp\374\276\310"
  80      EDE409D3 
  80      E1C74754 
ARM GAS  /tmp/cc6gOb22.s 			page 6


  80      897770FC 
  80      BEC8
  81 02cb C889EC12 		.ascii	"\310\211\354\022\210\373$\242\023\"\216\215\306\210"
  81      88FB24A2 
  81      13228E8D 
  81      C688
  82 02d9 0E3385E4 		.ascii	"\0163\205\344\361\355\243\344\367\247\325)\3302\277"
  82      F1EDA3E4 
  82      F7A7D529 
  82      D832BF
  83 02e8 F3B29104 		.ascii	"\363\262\221\004`SM\211\315L\016Nf\026\304\001\322\341"
  83      60534D89 
  83      CD4C0E4E 
  83      6616C401 
  83      D2E1
  84 02fa 49B932EE 		.ascii	"I\2712\356F\001R\224\234d\303\013q\330\214\\H'8\206"
  84      46015294 
  84      9C64C30B 
  84      71D88C5C 
  84      48273886 
  85 030e 4FF38D1D 		.ascii	"O\363\215\035\337\241\330.\352\013\255VV\276\261\207"
  85      DFA1D82E 
  85      EA0BAD56 
  85      56BEB187 
  86 031e F0768F6C 		.ascii	"\360v\217l\221\257\307\031h.\314\335<\331\365\257k6"
  86      91AFC719 
  86      682ECCDD 
  86      3CD9F5AF 
  86      6B36
  87 0330 FD979EC7 		.ascii	"\375\227\236\307I\371BFG\307\350\270lwyh\346\361tt\224"
  87      49F94246 
  87      47C7E8B8 
  87      6C777968 
  87      E6F17474 
  88 0345 E889B89B 		.ascii	"\350\211\270\233\265\363\220\246\372\350\237\355*\204"
  88      B5F390A6 
  88      FAE89FED 
  88      2A84
  89 0353 891BD777 		.ascii	"\211\033\327w\2259qK\276\250g\351_\252M\"G4i\226\251"
  89      9539714B 
  89      BEA867E9 
  89      5FAA4D22 
  89      47346996 
  90 0368 DDDFD3E3 		.ascii	"\335\337\323\343\006\277\312\260[\255\271\303U\317\365"
  90      06BFCAB0 
  90      5BADB9C3 
  90      55CFF5
  91 0377 0637D57A 		.ascii	"\0067\325z<\320\007\012\245Z\336\032\252\274\"\0257"
  91      3CD0070A 
  91      A55ADE1A 
  91      AABC2215 
  91      37
  92 0388 69E955CA 		.ascii	"i\351U\312\345\312\220\273\261R\255\015\273O=\333\373"
  92      E5CA90BB 
  92      B152AD0D 
  92      BB4F3DDB 
  92      FB
ARM GAS  /tmp/cc6gOb22.s 			page 7


  93 0399 74EFABE4 		.ascii	"t\357\253\344\346U\252\205\376\232_.T{\006aM\322~0_"
  93      E655AA85 
  93      FE9A5F2E 
  93      547B0661 
  93      4DD27E30 
  94 03ae 0A8D37E4 		.ascii	"\012\2157\344z\327<\346\256_\377\214\233[\327\273\351"
  94      7AD73CE6 
  94      AE5FFF8C 
  94      9B5BD7BB 
  94      E9
  95 03bf 515EE91F 		.ascii	"Q^\351\037\256\365\227J\003\344\263\262\203\215?\344"
  95      AEF5974A 
  95      03E4B3B2 
  95      838D3FE4 
  96 03cf 955E1E28 		.ascii	"\225^\036(\004\214\006Ac\354\177\000f\340\306\240"
  96      048C0641 
  96      63EC7F00 
  96      66E0C6A0 
  97              		.text
  98              		.section	.gnu.lto__vt_init.335c8a8ac0785a1c,"",%progbits
  99 0000 789C6362 		.ascii	"x\234cb`b@\007\222 \014\024\226\001\322\214\314\014"
  99      60624007 
  99      92200C14 
  99      9601D28C 
  99      CC0C
 100 0012 8C4C13CE 		.ascii	"\214L\023\316104r012\202\030\014\214\014\365L\214\365"
 100      31303472 
 100      30313282 
 100      180C8C0C 
 100      F54C8CF5 
 101 0026 918C60B5 		.ascii	"\221\214`\265\353\231\016<\370\377\177\335\257\255\017"
 101      EB990E3C 
 101      F8FF7FDD 
 101      AFAD0F
 102 0035 FB1905D9 		.ascii	"\373\031\005\331\200\002\254\014-\015\015\023\024\030"
 102      8002AC0C 
 102      2D0D0D13 
 102      1418
 103 0043 1892C10A 		.ascii	"\030\222\301\012B\200$HW(#\023\210f>\313\320\364\253"
 103      42802448 
 103      57282313 
 103      88663ECB 
 103      D0F4AB
 104 0056 F9FF65A6 		.ascii	"\371\377e\246D\306\205\214\254\014\332\014\253\032\200"
 104      44C6858C 
 104      AC0CDA0C 
 104      AB1A80
 105 0065 C0329311 		.ascii	"\3002\223\021\306\344\316dd\234\3150\253\261\241A \223"
 105      C6E4CE64 
 105      649CCD30 
 105      ABB1A141 
 105      2093
 106 0077 91A99AE1 		.ascii	"\221\251\232\341WC\007\210\305\234\0136-\202\021\310"
 106      57430788 
 106      C59C0B36 
 106      2D8211C8 
 107 0087 04DB9B04 		.ascii	"\004\333\233\004\261\036HC\030\020\225\015\363\201\012"
ARM GAS  /tmp/cc6gOb22.s 			page 8


 107      B11E4843 
 107      1810950D 
 107      F3810A
 108 0096 58A0466D 		.ascii	"X\240Fm\005\262\031\201\372`J\301\000l\377\342\036-"
 108      05B21981 
 108      FA604AC1 
 108      006CFFE2 
 108      1E2D
 109 00a8 EAD9CF44 		.ascii	"\352\331\317D\252\375;v<\272\201\341\177V\262\355\207"
 109      AAFD3B76 
 109      3CBA81E1 
 109      7F56B2ED 
 109      87
 110 00b9 F041326C 		.ascii	"\360A2l\377\3773\303\254x\374\201\212V\260 \254\000"
 110      FFFF33C3 
 110      AC78FC81 
 110      8A56B020 
 110      AC00
 111 00cb 312E3234 		.ascii	"1.24>\350W\206\030\017\003!\300x\000\306/(0\244\364"
 111      3EE85786 
 111      180F0321 
 111      C07800C6 
 111      2F2830A4 
 112 00e0 F4F42128 		.ascii	"\364\364!(\277X\277\250D\277\270(Y?9\243\254D/\231\001"
 112      BF58BFA8 
 112      44BFB828 
 112      593F39A3 
 112      AC442F99 
 113 00f5 00BBF58A 		.ascii	"\000\273\365\212f"
 113      66
 114              		.text
 115              		.section	.gnu.lto_chVTDoSetI.335c8a8ac0785a1c,"",%progbits
 116 0000 789CAD56 		.ascii	"x\234\255V}h\225U\030?\3179\367\356\275\337[\202\371"
 116      7D689555 
 116      183FCF39 
 116      F7EEBDDF 
 116      5B82F9
 117 0013 B52F876C 		.ascii	"\265/\207ll\312\256k\216\222\350\217\250\177\004\367"
 117      6CCAAE6B 
 117      8E92E88F 
 117      A87F04F7 
 118 0023 4735A1E8 		.ascii	"G5\241\350\017\271\335\215\273\013\273\233l\313\202"
 118      0FB9DD8D 
 118      BB0BBB9B 
 118      6CCB82
 119 0032 02DFEB2E 		.ascii	"\002\337\353.\245i)2\303RA\031VL\231\222\34063\232&"
 119      A5692932 
 119      C3524119 
 119      564C9992 
 119      E036339A 
 120 0047 E892746A 		.ascii	"\350\222tj\342\256E\\\203i\202\310\314\312e\262\333"
 120      E2AE455C 
 120      836982C8 
 120      CCCA65B2 
 120      DB
 121 0058 73BEDEFB 		.ascii	"s\276\336\373\251S\351\345\336\347\274\357s\236\347"
 121      A953E9E5 
ARM GAS  /tmp/cc6gOb22.s 			page 9


 121      DEE7BCEF 
 121      739EE7
 122 0067 779EAFF3 		.ascii	"w\236\257\363\234C\011%\331\317~\374\207\274\204\034"
 122      9C430925 
 122      D9CF7EFC 
 122      87BC841C 
 123 0077 C2110A09 		.ascii	"\302\021\012\011\320\255g\011\211:(e\233g\023\323e\213"
 123      D0AD6709 
 123      893A2865 
 123      9B6713D3 
 123      658B
 124 0089 2D27A687 		.ascii	"-'\246\207\201M\262m\324>\314\220]p\371\007\202|;\370"
 124      814DB26D 
 124      D43ECC90 
 124      5D70F907 
 124      827C3BF8 
 125 009d 24BF801A 		.ascii	"$\277\200\032\033\252\220\357\340\324c\200K\262\035"
 125      1BAA90EF 
 125      E0D46380 
 125      4BB21D
 126 00ac D4F9D3D3 		.ascii	"\324\371\323\323\310v\035{\026\331N\315v\201\207\277"
 126      C8761D7B 
 126      16D94ECD 
 126      768187BF 
 127 00bc 805B8EC7 		.ascii	"\200[\216\307\035\036\352\336|\012\001]\336\230\201"
 127      1D1EEADE 
 127      7C0A015D 
 127      DE9881
 128 00cb 825E0DEB 		.ascii	"\202^\015\353\003\340/\004\310:\312l\366\002\303\341"
 128      03E02F04 
 128      C83ACA6C 
 128      F602C3E1 
 129 00db 74B93D5E 		.ascii	"t\271=^\037\254{\003\270\361\264\202\3545\315m\211}"
 129      1FAC7B03 
 129      B8F1B482 
 129      EC35CD6D 
 129      897D
 130 00ed 7F24E867 		.ascii	"\177$\350g\346Hl\217y?\231\004\010\003:Z\002$\010\344"
 130      E6486C8F 
 130      793F9904 
 130      08033A5A 
 130      022408E4 
 131 0101 75FC8072 		.ascii	"u\374\200r1P[\246\347Rwd\373\251O\346\232{\242[\315"
 131      31505BA6 
 131      E7527764 
 131      FBA94FE6 
 131      9A7BA25B 
 132 0116 69540D03 		.ascii	"iT\015\003\243\244,\245Y$5\263\302v\220\216$\222\311"
 132      A3A42CA5 
 132      592435B3 
 132      C276908E 
 132      2492C9
 133 0129 CDC37FFE 		.ascii	"\315\303\177\376v\023f=\007$\302\327\013\300^\250 \014"
 133      7613663D 
 133      0724C2D7 
 133      0BC05EA8 
 133      200C
ARM GAS  /tmp/cc6gOb22.s 			page 10


 134 013b C73E1C0D 		.ascii	"\307>\034\015\210\0008\220P\027\022\346EB|\004\015\233"
 134      88003890 
 134      501712E6 
 134      45427C04 
 134      0D9B
 135 014d 8DC43687 		.ascii	"\215\3046\207\223\271\234\314S\362\363\361\303\276\200"
 135      93B99CCC 
 135      53F2F3F1 
 135      C3BE80
 136 015c 93624E4A 		.ascii	"\223bNJ8)\345\002eJ\240\\-\260\2203+8Y\304I\245\232"
 136      3829E502 
 136      654AA05C 
 136      2DB09033 
 136      2B3859C4 
 137 0173 AE52D3D5 		.ascii	"\256R\323\325j\254\341k-Q\223K\271d\035'\313\220\024"
 137      6AACE16B 
 137      2D51934B 
 137      B9641D27 
 137      CB9014
 138 0186 342061E8 		.ascii	"4 a\350\206\235\304Lsk\271T\220\222\021\300 \005El\233"
 138      869DC44C 
 138      736BB954 
 138      909211C0 
 138      2005456C 
 139 019b 900E1864 		.ascii	"\220\016\030d\025P\034\330\217d\375\231\251;\011\010"
 139      15501CD8 
 139      8F64FD99 
 139      A93B0908 
 140 01ab C03EB093 		.ascii	"\300>\260\223\305\244\337\304\307\033\006c'\371\034"
 140      C5A4DFC4 
 140      C71B0663 
 140      27F91C
 141 01ba 23E40881 		.ascii	"#\344\010\201\301#%\343\363\226\032C\340 \204k\356\370"
 141      C12325E3 
 141      F3961A43 
 141      E020846B 
 141      EEF8
 142 01cc FBF71C4D 		.ascii	"\373\367\034Mg~MP\232.\256y\342\312\261\213g\2679\225"
 142      677E4D50 
 142      9A2EAE79 
 142      E2CAB18B 
 142      67B73995 
 143 01e0 A1DAE291 		.ascii	"\241\332\342\221\353\037\377\314\230\3655\321\273\333"
 143      EB1FFFCC 
 143      98F535D1 
 143      BBDB
 144 01ee 6B7D6CBA 		.ascii	"k}l\272u\333\232)\227\0316\017\231\246]T\006\023\351"
 144      75DB9A29 
 144      9719360F 
 144      99A65D54 
 144      0613E9
 145 0201 FD0A66CA 		.ascii	"\375\012f\312/!\322X\302c\301\205)\376\231\264k\031"
 145      2F21D258 
 145      C263C185 
 145      29FE99B4 
 145      6B19
 146 0213 F720164D 		.ascii	"\367 \026M\354\374\253wE\030\\\350\004\226NQ\030\334"
ARM GAS  /tmp/cc6gOb22.s 			page 11


 146      ECFCAB77 
 146      45185CE8 
 146      04964E51 
 146      18DC
 147 0225 1CC8C37D 		.ascii	"\034\310\303}\263\011L\217\362\207r\260\375\022\014"
 147      B3094C8F 
 147      F28772B0 
 147      FD120C
 148 0234 4371ABC7 		.ascii	"Cq\253\307\027\200~\374\014A\003\202\0212J\326O\236"
 148      17807EFC 
 148      0C410382 
 148      11324AD6 
 148      4F9E
 149 0246 F8E6FD00 		.ascii	"\370\346\375\000\014 3\000\0071\011\3749Mb\327\216\237"
 149      0C203300 
 149      073109FC 
 149      394D62D7 
 149      8E9F
 150 0258 FFD023F9 		.ascii	"\377\320#\371!\360rL\006i&\256B\213\246\201\241~\342"
 150      21F0724C 
 150      066926AE 
 150      428BA681 
 150      A17EE2
 151 026b 469F21E5 		.ascii	"F\237!\345\"\322-\033\265dl<y(\203\211\300\311\020\017"
 151      22D22D1B 
 151      B5646C3C 
 151      79288389 
 151      C0C9100F 
 152 027f 2F5A7165 		.ascii	"/Zqe\350\337\323\206\206\366-&5\030\177\225\231K\250"
 152      E8DFD386 
 152      86F62D26 
 152      35187F95 
 152      994BA8
 153 0292 EFE55E99 		.ascii	"\357\345^\231\334+\337{\344\236\271\201\277\025F\204"
 153      DC2BDF7B 
 153      E49EB981 
 153      BF154684 
 154 02a2 0F1CBE50 		.ascii	"\017\034\276P\271\306\324\250\367\325ir\362z\264\316"
 154      B9C6D4A8 
 154      F7D56972 
 154      F27AB4CE 
 155 02b2 8295AA66 		.ascii	"\202\225\252f}\030\212\024\366r\204F\030\255\231\366"
 155      7D188A14 
 155      F6728446 
 155      18AD99F6 
 156 02c2 C409A08F 		.ascii	"\304\011\240\217\024\224\365l\327\267\335\334z;\251"
 156      1494F56C 
 156      D7B7DDDC 
 156      7A3BA9
 157 02d1 E195373A 		.ascii	"\341\2257:4=\306$\256Bz\005\203\241^\353\037\333^\273"
 157      343DC624 
 157      AE427A05 
 157      83A15EEB 
 157      1FDB5EBB 
 158 02e5 2AB10659 		.ascii	"*\261\006Y\234\343\323\2234\033\234<1\270M\201\033\022"
 158      9CE3D393 
 158      341B9C3C 
ARM GAS  /tmp/cc6gOb22.s 			page 12


 158      31B84D81 
 158      1B12
 159 02f7 7CEA7F05 		.ascii	"|\352\177\005/\310\000\277\327sgKu\006x\003\202\347"
 159      2FC800BF 
 159      D773674B 
 159      75067803 
 159      82E7
 160 0309 DF568618 		.ascii	"\337V\206\030UJvC*'\207!OR\004\370\335G\006w<.\370\231"
 160      554A7643 
 160      2A278721 
 160      4F5204F8 
 160      DD470677 
 161 0321 F1E418CD 		.ascii	"\361\344\030\315\006g\371\301\235\312gQ\271=\033z\276"
 161      0667F9C1 
 161      9DCA6751 
 161      B93D1B7A 
 161      BE
 162 0332 EC7D4197 		.ascii	"\354}A\227\330l\344\2124\216\022\205\246zz\362\203\357"
 162      D86CE48A 
 162      348E1285 
 162      A67A7AF2 
 162      83EF
 163 0344 C1FCC88C 		.ascii	"\301\374\310\214N&\223\205b\317\037\230q\317#\032!\347"
 163      4E269385 
 163      62CF1F98 
 163      71CF231A 
 163      21E7
 164 0356 486C72B8 		.ascii	"Hlr\270\357\332\024dw\2343'/\340~9'6\247\\)\250\313"
 164      EFDA1464 
 164      779C3327 
 164      2FE07E39 
 164      2736A75C 
 165 036d DECADB53 		.ascii	"\336\312\333SA\260\007\340\202,/\204\013\303,\275\013"
 165      41B007E0 
 165      822C2F84 
 165      0BC32CBD 
 165      0B
 166 037e 0B484CEC 		.ascii	"\013HL\354\302\304\226\011\320;\2357]\334%r?N}q\225"
 166      C2C49609 
 166      D03B9D37 
 166      5DDC2572 
 166      3F4E7D71 
 167 0393 69AFE688 		.ascii	"i\257\346\210\375\250\313\373\315',o\021\255\215=\355"
 167      FDA8CBFB 
 167      CD272C6F 
 167      11AD8D3D 
 167      ED
 168 03a4 1A75AE68 		.ascii	"\032u\256h8sd\020\255\265\346\211\011H\213\240<\007"
 168      38736410 
 168      ADB5E689 
 168      09488BA0 
 168      3C07
 169 03b6 7046B5AB 		.ascii	"pF\265\253\273\275eZx~\212{\0044s\201\336G\267,\320"
 169      BBBD655A 
 169      787E8A7B 
 169      04347381 
 169      DE47B72C 
ARM GAS  /tmp/cc6gOb22.s 			page 13


 170 03cb 62BDCE46 		.ascii	"b\275\316F\213U\"\004\213E\217\230H\365\010D,I\245`"
 170      8B552204 
 170      8B458F98 
 170      48F50844 
 170      2C49A560 
 171 03df 1556E909 		.ascii	"\025V\351\011\306D\177\352\037\245Z\250T\306\303\252"
 171      C6447FEA 
 171      1FA55AA8 
 171      54C6C3AA 
 172 03ef 0E5F6E75 		.ascii	"\016_nu(g\327j\2252\341Yi\036\267\312d\274\307\373G"
 172      2867D76A 
 172      9532E159 
 172      691EB7CA 
 172      64BCC7FB 
 173 0404 2D0FCA53 		.ascii	"-\017\312S\335\211\344_\304P\213`\006G\346e\346\257"
 173      DD89E45F 
 173      C4508B60 
 173      0647E665 
 173      E6AF
 174 0416 5C9BEED0 		.ascii	"\\\233\356\320\246\357\330\377\217e\372\302G1\035Cr"
 174      A6EFD8FF 
 174      8F65FAC2 
 174      47311D43 
 174      72
 175 0427 2DFABCA5 		.ascii	"-\372\274\245\"\202\234\012\211\223\364\000\023\205"
 175      22829C0A 
 175      8993F400 
 175      1385
 176 0435 FFDD764B 		.ascii	"\377\335vK\250\002#,\344f(\374\000\214\211\263\353\341"
 176      A802232C 
 176      E46628FC 
 176      008C89B3 
 176      EBE1
 177 0447 855F210A 		.ascii	"\205_!\012\177l\270\317\310)\373\313_c\331\377\232Q"
 177      7F6CB8CF 
 177      C829FBCB 
 177      5F63D9FF 
 177      9A51
 178 0459 F605B965 		.ascii	"\366\005\271e\2172\011]\366\025ie\357\342e\317\233{"
 178      8F32095D 
 178      F6156965 
 178      EFE265CF 
 178      9B7B
 179 046b 35BAEEB8 		.ascii	"5\272\356\270\177\036\013\303\347\344A3\016\\j\216\223"
 179      7F1E0BC3 
 179      E7E44133 
 179      0E5C6A8E 
 179      93
 180 047c 25E882E3 		.ascii	"%\350\202\343\330\3056\0348\267\314\330uIt}7\301\313"
 180      D8C5361C 
 180      38B7CCD8 
 180      7549747D 
 180      37C1CB
 181 048f 2013191D 		.ascii	" \023\031\035\374t\201<\212CP\031\002\026\202E\312\347"
 181      FC74813C 
 181      8A435019 
 181      02168245 
ARM GAS  /tmp/cc6gOb22.s 			page 14


 181      CAE7
 182 04a1 7D6939AD 		.ascii	"}i9\255T9=\274\\\313V\345kY\364A)54\234Li\2256\337C"
 182      54393DBC 
 182      5CCB56E5 
 182      6B59F441 
 182      2935349C 
 183 04bb F0F209F2 		.ascii	"\360\362\011\362\360\324k1\241\"\030R\232\312\305w\034"
 183      F0D46B31 
 183      A1221852 
 183      9ACAC577 
 183      1C
 184 04cc 8E835E7D 		.ascii	"\216\203^}QV\326\351\003\262>\021\255\267TB\251\016"
 184      5156D6E9 
 184      03B23E11 
 184      ADB75442 
 184      A90E
 185 04de 19273404 		.ascii	"\031'4\004\325.\354lU\356\233\361\3428A\267\227\360"
 185      D52EEC6C 
 185      55EE9BF1 
 185      E23841B7 
 185      97F0
 186 04f0 CF4AF72F 		.ascii	"\317J\367/\3616n\230\227\307\225\237\213\343Gn\344\334"
 186      F1366E98 
 186      97C7959F 
 186      8BE3476E 
 186      E4DC
 187 0502 AB1E7A00 		.ascii	"\253\036z\000X\366N\0359\316\364\3425\362\002\220\337"
 187      58F64E1D 
 187      39CEF4E2 
 187      35F20290 
 187      DF
 188 0513 5E87B5C1 		.ascii	"^\207\265\301\326\217\0362\036q1\207Z\254F]\377\006"
 188      D68F1E32 
 188      1E713187 
 188      5AAC465D 
 188      FF06
 189 0525 E3344333 		.ascii	"\3434C3c\253\325\3443S\035\237C\203\361L\007\2353\030"
 189      63ABD5E4 
 189      33531D9F 
 189      4383F14C 
 189      079D3318 
 190 0539 AA3547C7 		.ascii	"\2525G\307\007o\347\204f\206\023\206\251::z\325J\345"
 190      076FE784 
 190      66861386 
 190      A93A3A7A 
 190      D54AE5
 191 054c 52A95C34 		.ascii	"R\251\\4c:U\267\223Zu\250\250\341V\244\0331\023\016"
 191      633A55B7 
 191      935A75A8 
 191      A8E156A4 
 191      1B31130E 
 192 0560 AA0AA5A1 		.ascii	"\252\012\245\241\251\243\271\021\323'\202\373\261O\004"
 192      A9A3B911 
 192      D32782FB 
 192      B14F04
 193 056f 9718C5DD 		.ascii	"\227\030\305\335\012/\301Vk\361\361\273\341y\022Ml\322"
 193      0A2FC156 
ARM GAS  /tmp/cc6gOb22.s 			page 15


 193      6BF1F1BB 
 193      E179124D 
 193      6CD2
 194 0581 A7927E9A 		.ascii	"\247\222~\232\360H\0300x\243\230_[\353\227\277\216."
 194      F0481830 
 194      78A3985F 
 194      5BEB97BF 
 194      8E2E
 195 0593 7F67B7BF 		.ascii	"\177g\267\277\2533\350\017\266\256\355\256\015\022X"
 195      AB33E80F 
 195      B6AEEDAE 
 195      0D1258
 196 05a2 636F6E69 		.ascii	"coni\353\016\324\247\213\264\006\332\374k::\273\273"
 196      EB0ED4A7 
 196      8BB406DA 
 196      FC6B3A3A 
 196      BBBB
 197 05b4 FCAF3535 		.ascii	"\374\25755\326?\343_\271\362e\177\323\212\306\265u|"
 197      D63FE35F 
 197      B9F2657F 
 197      D38AC6B5 
 197      757C
 198 05c6 667557F7 		.ascii	"fuW\367\352\266\266\346\332V\342O\327\011vD\"\035\355"
 198      EAB6B6E6 
 198      DA56E24F 
 198      D7097644 
 198      221DED
 199 05d9 4AEDC557 		.ascii	"J\355\305W\033_j|\027\327\010vt\266\254\356\016GZ:Q"
 199      1B5F6A7C 
 199      17D70876 
 199      74B6ACEE 
 199      0E475A3A 
 200 05ee BE34CB8C 		.ascii	"\2764\313\214p{\260\355\355\346\026iJ+a\355\035\357"
 200      707BB0ED 
 200      EDE61669 
 200      4A2B61ED 
 200      1DEF
 201 0600 D8B8EC7F 		.ascii	"\330\270\354\177\035\252FF"
 201      1DAA4646 
 202              		.text
 203              		.section	.gnu.lto_chVTDoResetI.335c8a8ac0785a1c,"",%progbits
 204 0000 789CAD93 		.ascii	"x\234\255\2231h\024A\024\206\337{\263\263{\271=5`#\202"
 204      31681441 
 204      1486DF7B 
 204      B3B37BB9 
 204      3D356023 
 205 0015 2016161E 		.ascii	" \026\026\036\334!6Z\210\265`\231\003\355\214\253\304"
 205      DC21365A 
 205      88B56099 
 205      03ED8CAB 
 205      C4
 206 0026 05CF4072 		.ascii	"\005\317@rha\2219sE*9\254D\033\323\211\210ZX\304\356"
 206      68619139 
 206      73452A39 
 206      AC441BD3 
 206      89885A58 
 207 003c CECAA046 		.ascii	"\316\312\240F-\204 \001\305V\215\265A\\\337\233\331"
ARM GAS  /tmp/cc6gOb22.s 			page 16


 207      2D842001 
 207      C5568DB5 
 207      415CDF9B 
 207      D9
 208 004d B9BD2487 		.ascii	"\271\275$\207i2\334\2757\263;\337\377\336\2747K@\260"
 208      6932DCBD 
 208      37B33BDF 
 208      FFDEBC37 
 208      4B40B0
 209 0060 759CE3FF 		.ascii	"u\234\343\377O\005Pe\217\021 uW\000\332%\"\365\342\025"
 209      4F055065 
 209      8F112075 
 209      5700DA25 
 209      22F5E215 
 210 0074 8029EBB5 		.ascii	"\200)\353\265\030LEQ\340\226\241]\006\030\272m\332M"
 210      184C4551 
 210      E096A15D 
 210      0618BA6D 
 210      DA4D
 211 0086 3044140F 		.ascii	"0D\024\017\010s\244\002\035\342\334\005\264\362\317"
 211      0873A402 
 211      1DE2DC05 
 211      B4F2CF
 212 0095 A8F735CB 		.ascii	"\250\3675\313\236\376y\363\344-.\323~\202\024Aa\023"
 212      9EFE79F3 
 212      E42D2ED3 
 212      7E821441 
 212      6113
 213 00a7 21909916 		.ascii	"!\220\231\026\023\211)\263\301XLE\014\223\032:\306t"
 213      138929B3 
 213      C1584C45 
 213      0C931A3A 
 213      C674
 214 00b9 0F37118F 		.ascii	"\0177\021\217\300\2421w{\237V\356\0340\017\333]\363"
 214      C0A23177 
 214      7B9F56EE 
 214      1C300FDB 
 214      5DF3
 215 00cb 37CB3045 		.ascii	"7\3130E\"8\204\220 \234\347\205\032\267.\330r>G\232"
 215      22388490 
 215      209CE785 
 215      1AB72ED8 
 215      723E479A 
 216 00df 2F171F99 		.ascii	"/\027\037\231N/\313\316X\352\350N\024\310{\036\023l"
 216      4E2FCBCE 
 216      58EAE84E 
 216      14C87B1E 
 216      136C
 217 00f1 E5540D24 		.ascii	"\345T\015$\361\352\035\334\376\274\372\275O\223\270"
 217      F1EA1DDC 
 217      FEBCFABD 
 217      4F93B8
 218 0100 881AA690 		.ascii	"\210\032\246\220\252p\214S\257\302c\303\343D\212\372"
 218      AA708C53 
 218      AFC263C3 
 218      E3448AFA 
 219 0110 01DC6F1B 		.ascii	"\001\334o\0333\236bx\0136\314\202\314\242&\212\274\304"
ARM GAS  /tmp/cc6gOb22.s 			page 17


 219      339E6278 
 219      0B36CC82 
 219      CCA2268A 
 219      BCC4
 220 0122 89ACF625 		.ascii	"\211\254\366%W\030\366\371\004^C\347G{\317@u\012U\221"
 220      5718F6F9 
 220      045E43E7 
 220      477BCF40 
 220      750A5591 
 221 0136 4983175C 		.ascii	"I\203\027\\y\033\373\336z\037\375\256\300\305\346\200"
 221      791BFBDE 
 221      7A1FFDAE 
 221      C0C5E680 
 222 0146 2C5C6244 		.ascii	",\\bD\002xa\177\036\201>\354\365\210\376\037\242\012"
 222      0278617F 
 222      1E813EEC 
 222      F588FE1F 
 222      A20A
 223 0158 64F979EC 		.ascii	"d\371y\354\220\374`\247\207\241`;\304\312.\324\322P"
 223      90FC60A7 
 223      87A1603B 
 223      C4CA2ED4 
 223      D250
 224 016a 7ED16E04 		.ascii	"~\321n\004\213\266\037\2123\260\334\322\352\372o\334"
 224      8BB61F8A 
 224      33B0DCD2 
 224      EAFA6FDC 
 225 017a 441E4F71 		.ascii	"D\036Oqlt\270\300zy2\346\313\335\337\030\224%r\255\222"
 225      6C74B8C0 
 225      7A7932E6 
 225      CBDDDF18 
 225      942572AD 
 226 018f FE9573A9 		.ascii	"\376\225s\251S\334Jn\233\357\324\246\321`\271\227'\335"
 226      53DC4A6E 
 226      9BEFD4A6 
 226      D160B997 
 226      27DD
 227 01a1 5DF8D557 		.ascii	"]\370\325W^%G\271\3414:}=\334\223}\036\213m\231ht\336"
 227      5E2547B9 
 227      E1343A7D 
 227      3DDC937D 
 227      1E8B6D99 
 228 01b8 0532BF30 		.ascii	"\0052\2770\377mP\332\012Gc\322J\235\035.\301N\301\031"
 228      FF6D50DA 
 228      0A4763D2 
 228      4A9D1D2E 
 228      C14EC119 
 229 01cc F567D0B0 		.ascii	"\365g\320\260\026\253\367\320)9\036`p_\343$\277\227"
 229      16ABF7D0 
 229      29391E60 
 229      705FE324 
 229      BF97
 230 01de 9C4C5A00 		.ascii	"\234LZ\000\241\375\002>\362'_\224b\202w\362Si\314\301"
 230      A1FD023E 
 230      F2275F94 
 230      628277F2 
 230      5369CCC1 
ARM GAS  /tmp/cc6gOb22.s 			page 18


 231 01f2 5AADEE7E 		.ascii	"Z\255\356~\323\263\365\231V}v&\251'Wo\264j\011\224\256"
 231      D3B3F599 
 231      567D7626 
 231      A927576F 
 231      B46A0994 
 232 0207 4FDFBC7C 		.ascii	"O\337\274|\345ZkR[\373\017#\334\342\360"
 232      E55A6B52 
 232      5BFB0F23 
 232      DCE2F0
 233              		.text
 234              		.section	.gnu.lto_.symbol_nodes.335c8a8ac0785a1c,"",%progbits
 235 0000 789C4DC8 		.ascii	"x\234M\310\275\015\302P\030CQ\333_\336c\006\226`EG\242"
 235      BD0DC250 
 235      184351DB 
 235      5FDE6306 
 235      96604547 
 236 0015 20A2A2A1 		.ascii	" \242\242\241$EX\203\037A\220R\221&E\346`\003\220\210"
 236      24455883 
 236      1F419052 
 236      912645E6 
 236      60039088 
 237 0029 08AEEEB1 		.ascii	"\010\256\356\261 \3541M\035\015\354z\300>TLW~\012:\321"
 237      20EC314D 
 237      1D0DEC7A 
 237      C03E544C 
 237      577E0A3A 
 238 003e 9CDEBAA2 		.ascii	"\234\336\272\242\316\264\376x\241c&\037t\361eY\222w"
 238      CEB4FE78 
 238      A163261F 
 238      74F16559 
 238      9277
 239 0050 3ACDBAD1 		.ascii	":\315\272\321\371\247@\306\272\357\226\201\204\343K"
 239      F9A740C6 
 239      BAEF9681 
 239      84E34B
 240 005f 110BB4DB 		.ascii	"\021\013\264\333UDF;<\025\005\320lF\341\015\024S+B"
 240      5544463B 
 240      3C1505D0 
 240      6C46E10D 
 240      14532B42 
 241              		.text
 242              		.section	.gnu.lto_.refs.335c8a8ac0785a1c,"",%progbits
 243 0000 789C6362 		.ascii	"x\234cb`b0f\200\000\026\006FF& d`dc\002\261 \230\221"
 243      60623066 
 243      80001606 
 243      46462620 
 243      64606463 
 244 0019 91939901 		.ascii	"\221\223\231\001\312\202\311\003i\026\220\030\003\000"
 244      CA82C903 
 244      69169018 
 244      0300
 245 0027 152A0084 		.ascii	"\025*\000\204"
 246              		.text
 247              		.section	.gnu.lto_.decls.335c8a8ac0785a1c,"",%progbits
 248 0000 789CBD5B 		.ascii	"x\234\275[{p\024\307\231\237\236\331\325\256\220x\004"
 248      7B7014C7 
 248      999F9ED9 
ARM GAS  /tmp/cc6gOb22.s 			page 19


 248      D5AE9078 
 248      04
 249 0011 6217E738 		.ascii	"b\027\3478\207|\345\\\354\334\005\361p\034\374\307\005"
 249      877CE55C 
 249      ECDC05F1 
 249      701CFCC7 
 249      05
 250 0022 7CC265BB 		.ascii	"|\302e\273*\344\\\202\244\250r]\255\207\325\030\351"
 250      2AE45C82 
 250      A4A8725D 
 250      AD87D518 
 250      E9
 251 0033 A2D7ED8E 		.ascii	"\242\327\355\216\004T]\225\007\011d06\026`@\274dAx\373"
 251      04545D95 
 251      07096430 
 251      36166040 
 251      BC644178 
 252 0048 01020321 		.ascii	"\001\002\003!\006\274\262\215\"@\001\201\214d\320Y\326"
 252      06BCB28D 
 252      22400181 
 252      8C64D059 
 252      D6
 253 0059 81CD19E2 		.ascii	"\201\315\031\342\007\302\346a\233\260\367\365\3273\273"
 253      07C2E661 
 253      9BB0F7F5 
 253      D733BB
 254 0068 3DB333BB 		.ascii	"=\2633\2733\302\276)\272\325;\323\375\373\236\335\337"
 254      33C2BE29 
 254      BAD53BD3 
 254      FDFB9EDD 
 254      DF
 255 0079 D73D8328 		.ascii	"\327=\203(\210\302\033\242 \304\341\252\233(\010\327"
 255      88C21BA2 
 255      20C4E1AA 
 255      9B2808D7 
 256 0089 B204C12F 		.ascii	"\262\004\301/\010\302\257\240HP\326C\331\000e/\024\002"
 256      08C2AFA0 
 256      4850D643 
 256      D900652F 
 256      1402
 257 009b E5389400 		.ascii	"\3458\224\000\224\215\360\343\025(;\240\034\204\362"
 257      948DF0E3 
 257      15283BA0 
 257      1C84F2
 258 00aa 0E94C350 		.ascii	"\016\224\303P\216\020\326\357\030\255\270\213\366\037"
 258      8E10D6EF 
 258      18ADB88B 
 258      F61F
 259 00b8 A1E30C81 		.ascii	"\241\343\014\201\222\013e\273N\203\342\275\242\323i"
 259      920B65BB 
 259      4E83E2BD 
 259      A2D369
 260 00c7 877E1D84 		.ascii	"\207~\035\204\321m\201r\022\332\257B9\005\245\023J\026"
 260      D16D8172 
 260      12DAAF42 
 260      3905A513 
 260      4A16
ARM GAS  /tmp/cc6gOb22.s 			page 20


 261 00d9 F01A80D2 		.ascii	"\360\032\200\322\012\355 <o\326y\332\006e7\224\030\224"
 261      0AED203C 
 261      6FD679DA 
 261      06653794 
 261      1894
 262 00eb 3D502EC1 		.ascii	"=P.\301\363v\201\365\241\264\203\"\3431\007\376\016"
 262      F37681F5 
 262      A1B48322 
 262      E33107FE 
 262      0E
 263 00fc 85321CCA 		.ascii	"\2052\034\312\035\"\343\231\362p\027\264\267\222T\276"
 263      1D22E399 
 263      F27017B4 
 263      B79254BE 
 264 010c A98C019D 		.ascii	"\251\214\001\235W+\177{u\376\375\034\017G\251\354\002"
 264      572B7F7B 
 264      75FEFD1C 
 264      0F47A9EC 
 264      02
 265 011d A34DF4F1 		.ascii	"\243M\364\361v\372\330\241\353c;\247\017\003\317\247"
 265      76FAD8A1 
 265      EB633BA7 
 265      0F03CFA7 
 266 012d EB64A2AE 		.ascii	"\353d\242\256\027\252\007^~+\037\206>r\240\335\246\353"
 266      17AA075E 
 266      7E2B1F86 
 266      3E72A0DD 
 266      A6EB
 267 013f 80CA6FF0 		.ascii	"\200\312o\360\324\256\363\325\254\353h\217\316cP\347"
 267      D4AEF3D5 
 267      ACEB688F 
 267      CE6350E7 
 268 014f 83D7499E 		.ascii	"\203\327I\236\310lh\350\006\334A\330\007\177\367By\023"
 268      C86C68E8 
 268      06DC41D8 
 268      077FF742 
 268      7913
 269 0161 CA7E28F7 		.ascii	"\312~(\367\212\251\362P\037\030\314\331\224\2673\317"
 269      8AA9F250 
 269      1F18CCD9 
 269      94B733CF 
 270 0171 AF210FE5 		.ascii	"\257!\017\345\373~\300\331\244\323\340m\330\314\331"
 270      FB7EC0D9 
 270      A4D3E06D 
 270      D8CCD9
 271 0180 51D4B137 		.ascii	"Q\324\2617\352vj!\314VV\3729\302s\232V\2435\325i\217"
 271      EA766A21 
 271      CC5656FA 
 271      39C2739A 
 271      56A335D5 
 272 0196 B50D192E 		.ascii	"\265\015\031.,\321\340\312k\003\016\246\023\231\014"
 272      2CD1E0CA 
 272      6B030EA6 
 272      13990C
 273 01a5 C9169EC2 		.ascii	"\311\026\236\302Fn62\364\023a\243\246\325\367\035\376"
 273      466E3632 
 273      F41361A3 
ARM GAS  /tmp/cc6gOb22.s 			page 21


 273      A6D5F71D 
 273      FE
 274 01b6 32E6D7B4 		.ascii	"2\346\327\264\240L6\220\341@\350\247D\370\231\260\015"
 274      A04C3690 
 274      E140E8A7 
 274      44F899B0 
 274      0D
 275 01c7 C6D56BDA 		.ascii	"\306\325k\332\206QB\352\225\011V\024&\023A&\233\001"
 275      865142EA 
 275      95095614 
 275      26134126 
 275      9B01
 276 01d9 4D269BC8 		.ascii	"M&\233\310\317\030\035\255\357zk\327|2W\323\010{&\350"
 276      CF181DAD 
 276      EF7A6BD7 
 276      7C3257D3 
 276      087B26E8 
 277 01ed 4F6DAE7B 		.ascii	"Om\256{\204&\220\"\366\301\212u\177\2475\275M2\011\325"
 277      84269022 
 277      F6C18A75 
 277      7FA735BD 
 277      4D3209D5 
 278 0201 440CF23F 		.ascii	"D\014\362?LJ\265\351J\233\017\245z\005\245\372/b\"\227"
 278      4C4AB5E9 
 278      4A9B0FA5 
 278      7A05A5FA 
 278      2F622297 
 279 0215 1145149E 		.ascii	"\021E\024\236't\310\353\251R\264\032R\274\356J\212u"
 279      2774C8EB 
 279      A952B41A 
 279      52BCEE4A 
 279      8A75
 280 0227 BA1432D9 		.ascii	"\272\0242\331\016\222\210\302\272\004\256N8\317\240"
 280      0E9288C2 
 280      BA04AE4E 
 280      38CFA0
 281 0236 4B1D5E6F 		.ascii	"K\035^o\262K\357`\306k\354\312\255\227\015\260\015\236"
 281      B24BEF60 
 281      C66BECCA 
 281      AD970DB0 
 281      0D9E
 282 0248 C1F24C60 		.ascii	"\301\362L`\315]kGjM-$[X@U\254\325i\367mM\252d\230\201"
 282      CD5D6B47 
 282      6A4D2D24 
 282      5B584055 
 282      ACD569F7 
 283 0262 20727A5D 		.ascii	" rz]s\207\346\223\311^B\357n!f\265\272\207\351\\\264"
 283      7387E693 
 283      C95E42EF 
 283      6E2166B5 
 283      BA87E95C 
 284 0277 EF9FD13C 		.ascii	"\357\237\321<\373\021\350\304\200\201\372\027oy\010"
 284      FB11E8C4 
 284      8081FA17 
 284      6F7908
 285 0286 810E2050 		.ascii	"\201\016 P\235h\006\222\211\224P`\342\267\321\201\242"
 285      9D680692 
ARM GAS  /tmp/cc6gOb22.s 			page 22


 285      89945060 
 285      E2B7D181 
 285      A2
 286 0297 E163BD11 		.ascii	"\341c\275\021\217K\302\367\330Y\024\226\210\026s\231"
 286      8F4BC2F7 
 286      D8591496 
 286      88167399 
 287 02a7 24D29B41 		.ascii	"$\322\233AG\333\367]km\367\257\322b\363$\323\224\270"
 287      47DBF75D 
 287      6B6DF7AF 
 287      D262F324 
 287      D394B8
 288 02ba 53584E9D 		.ascii	"SXN\235\031~hD\225\311\257\356\260u\006\312\341\333"
 288      197E6844 
 288      95C9AFEE 
 288      B07506CA 
 288      E1DB
 289 02cc E44E6C49 		.ascii	"\344NlIH\017nL\314\201\352\267IA\354\006\352\212\236"
 289      480F6E4C 
 289      CC81EAB7 
 289      4941EC06 
 289      EA8A9E
 290 02df FF454C44 		.ascii	"\377ELDE\267\240\347\255\264(\332\304\021\243\344\304"
 290      45B7A0E7 
 290      ADB428DA 
 290      C411A3E4 
 290      C4
 291 02f0 452BC971 		.ascii	"E+\311q\2305)\317D\241\311\2522;\017\017\232\231\347"
 291      983529CF 
 291      44A1C9AA 
 291      323B0F0F 
 291      9A99E7
 292 0303 5576BDF5 		.ascii	"Uv\275\365/\233\310\262Z\255m\014J+\012\233\334\000"
 292      2F9BC8B2 
 292      5AAD6D0C 
 292      4A2B0A9B 
 292      DC00
 293 0315 0EB3B181 		.ascii	"\016\263\261\201\335\305/\0202\331I~\002u3\271\007\352"
 293      DDC52F10 
 293      32D9497E 
 293      027533B9 
 293      07EA
 294 0327 DD58EFC1 		.ascii	"\335X\357\301:\206u\033\324i\025M\341\350\264N`\357"
 294      3A86751B 
 294      D469154D 
 294      E1E8B44E 
 294      60EF
 295 0339 22A2BE90 		.ascii	"\"\242\276\220\016l\251\270\234\\*d\362\206g0\223\""
 295      0E6CA9B8 
 295      9C5C2A64 
 295      F2866730 
 295      9322
 296 034b 6357F5A5 		.ascii	"cW\365\245\202\315}\231\274e\305\363\346\313\261\227"
 296      82CD7D99 
 296      BC65C5F3 
 296      E6CBB197 
 297 035b 56E6763C 		.ascii	"V\346v<e,$\333D\342\021lX:\243l\346\214\262\025\215"
ARM GAS  /tmp/cc6gOb22.s 			page 23


 297      652C24DB 
 297      44E2116C 
 297      583AA36C 
 297      E68CB215 
 298 0370 B20D4D70 		.ascii	"\262\015Mp\024\353cX\267\2731\307\372\2449\220m-\326"
 298      14EB6358 
 298      B7BB31C7 
 298      FAA43990 
 298      6D2DD6
 299 0383 F0245529 		.ascii	"\360$U)\013\225\273\200k\233H\242\005\014\230J\201\272"
 299      0B95BB80 
 299      6B9B48A2 
 299      050C984A 
 299      81BA
 300 0395 F07E14AE 		.ascii	"\360~\024\256\303\022Ib_\257\316\245+i\207\213(\242"
 300      C3124962 
 300      5FAFCEA5 
 300      2B69878B 
 300      28A2
 301 03a7 C596F4AC 		.ascii	"\305\226\364\254%4\212\330\220\353K\004\256\273\205"
 301      25348AD8 
 301      90EB4B04 
 301      AEBB85
 302 03b6 C46CFDF8 		.ascii	"\304l\375\370\257\227%\234\255\357!\247\357\210\031"
 302      AF97259C 
 302      ADEF21A7 
 302      EF8819
 303 03c5 E39F1946 		.ascii	"\343\237\031F\024:pHwJ\374\253\373\314\210\177\335\256"
 303      143A7048 
 303      774AFCAB 
 303      FBCC887F 
 303      DDAE
 304 03d7 38DFD7ED 		.ascii	"8\337\327\355\310\371$\336\262\3062sI\217\333=\310x"
 304      C8F924DE 
 304      B2C63273 
 304      498FDB3D 
 304      C878
 305 03e9 AF3DE34D 		.ascii	"\257=\343M\223\234`D\341s\034\322\233\032\270O\324\350"
 305      939C6044 
 305      E1731CD2 
 305      9B1AB84F 
 305      D4E8
 306 03fb 8CF7BA0A 		.ascii	"\214\367\272\012\334'\237s\231~\370\014\372\223\223"
 306      DC279F73 
 306      997EF80C 
 306      FA9393
 307 040a 627C344A 		.ascii	"b|4J\224\311y\024!\236Y\367f\010QX \321!\027Ru\377\201"
 307      94C97914 
 307      219E59F7 
 307      66085158 
 307      20D12117 
 308 0422 21C20557 		.ascii	"!\302\005W\272\277~\224\351\336\320\346\322\004\256"
 308      BABF7E94 
 308      E9DED0E6 
 308      D204AE
 309 0431 9DEA322F 		.ascii	"\235\3522/(7\216\302\202\242\307f\246\217\264!\243\177"
 309      28378EC2 
ARM GAS  /tmp/cc6gOb22.s 			page 24


 309      82A2C766 
 309      A68FB421 
 309      A37F
 310 0443 F5BB2749 		.ascii	"\365\273'I-\362\373)N\363\223\222m\230w\001\325\271"
 310      2DF2FB29 
 310      4EF39392 
 310      6D987701 
 310      D5B9
 311 0455 E8700BA9 		.ascii	"\350p\013\251A\250/\020\352\314\200\241\372\027\037"
 311      41A82F10 
 311      EACC80A1 
 311      FA171F
 312 0464 6019C315 		.ascii	"`\031\303\025\004:'Y3\206\200%c\010\230\343z ;\331\240"
 312      043A2759 
 312      33868025 
 312      630898E3 
 312      7A203BD9 
 313 0479 FBC5A1C2 		.ascii	"\373\305\241\302\367\334]\024>\263\332-c\0204\371\001"
 313      F7DC5D14 
 313      3EB3DA2D 
 313      631034F9 
 313      01
 314 048a E40DBD22 		.ascii	"\344\015\275\"\346\015\306\364\311r\322\221(\\AZ\327"
 314      E60DC6F4 
 314      C972D291 
 314      285C415A 
 314      D7
 315 049b ADBE17FF 		.ascii	"\255\276\027\377\260\335\360\275\353\256\246\317\236"
 315      B0DDF0BD 
 315      EBAEA6CF 
 315      9E
 316 04a8 A32BDD4D 		.ascii	"\243+\335M\037\321\240\177/\322\337\346\243\364oZ\351"
 316      1FD1A07F 
 316      2FD2DFE6 
 316      A3F46F5A 
 316      E9
 317 04b9 F79C6F7B 		.ascii	"\367\234o{\262A\323\206\261G\231\311\357\357~)\225\274"
 317      B241D386 
 317      B14799C9 
 317      EFEF7E29 
 317      95BC
 318 04cb 6372A4BB 		.ascii	"cr\244\273F\374\303\013\375\272\220\232H\223\205\363"
 318      46FCC30B 
 318      FDBA909A 
 318      489385F3 
 319 04db 3EAB734C 		.ascii	">\253sL\314\341\211\351\031\024\227\257|\232`\177@1"
 319      CCE189E9 
 319      191497AF 
 319      7C9A607F 
 319      4031
 320 04ed 1BE4FCE4 		.ascii	"\033\344\374\344\337\267\355\322\264\205Y\006\017_x"
 320      DFB7EDD2 
 320      B4855906 
 320      0F5F78
 321 04fc 46CC3369 		.ascii	"F\3143i\342@7f\001\014\354\212\033\2604Q\373\020\017"
 321      E2403766 
 321      010CEC8A 
ARM GAS  /tmp/cc6gOb22.s 			page 25


 321      1BB03451 
 321      FB100F
 322 050f 76D53398 		.ascii	"v\3253\230\231\263\016\036\354\206\0330\273\274L\007"
 322      99B30E1E 
 322      EC861B30 
 322      BBBC4C07 
 323 051f 3BC5837D 		.ascii	";\305\203}\353\031\314\314\331{<\330-7`#\2359\353\342"
 323      EB19CCCC 
 323      D97B3CD8 
 323      2D376023 
 323      9D39EBE2 
 324 0533 C16AFC5E 		.ascii	"\301j\374^\301\314\234\275\317\203\325\271\001\313\263"
 324      C1CC9CBD 
 324      CF83D5B9 
 324      01CBB3
 325 0542 E12C7139 		.ascii	"\341,q9%>\337&\023\037QX\3507\226\004\217>-$1\236\367"
 325      253EDF26 
 325      131F5158 
 325      E8379604 
 325      8F3E2D24 
 326 0559 7B5DC24C 		.ascii	"{]\302LrC\370\376p\203\221\307\237\303\035H\275\033"
 326      7243F8FE 
 326      708391C7 
 326      9FC31D48 
 326      BD1B
 327 056b C4340E53 		.ascii	"\3044\016S\177\0145\311\300Vx\0063\233\245\221\202\231"
 327      7F0C35C9 
 327      C0567806 
 327      339BA591 
 327      8299
 328 057d D61A3D20 		.ascii	"\326\032= \365m\212\215lH\256vA\003\213\036\334\260"
 328      F56D8A8D 
 328      6C48AE76 
 328      41038B1E 
 328      DCB0
 329 058f A5AD5ED3 		.ascii	"\245\255^\323\304Dgm\344H\373\2762Y'\322D\266Q\314N"
 329      C444676D 
 329      E448FBBE 
 329      325927D2 
 329      44B651CC 
 330 05a4 70C1DA46 		.ascii	"p\301\332F+N\250\236\327\372-GB\306\225i\250\223'\254"
 330      2B4EA89E 
 330      D7FA2D47 
 330      42C69569 
 330      A89327AC 
 331 05b8 11394F58 		.ascii	"\0219OX\357FMi\246B\207\223\232bu\332\0022\267\371\356"
 331      EF464D69 
 331      A6428793 
 331      9A6275DA 
 331      0232B7F9 
 332 05cd B4B961FC 		.ascii	"\264\271a\374\303\317\327\353I\300\037D\032\2737\373"
 332      C3CFD7EB 
 332      49C01F44 
 332      1ABB37FB 
 333 05dd 6D930057 		.ascii	"m\223\000W`\235\213N\030\031\305f\004k\0368XS\377\361"
 333      609D8B4E 
 333      1819C566 
ARM GAS  /tmp/cc6gOb22.s 			page 26


 333      046B1E38 
 333      5853FFF1 
 334 05f1 BB692EBF 		.ascii	"\273i.\277\015\201\376\344\267\006\215lKF\221m\216\371"
 334      0D81FEE4 
 334      B7068D6C 
 334      4B46916D 
 334      8EF9
 335 0603 D9D9C946 		.ascii	"\331\331\311F\334\270\314f\374^\3078\231~\003o\372\303"
 335      DCB8CC66 
 335      FC5EC738 
 335      997E036F 
 335      FAC3
 336 0615 9E4D6F9A 		.ascii	"\236Mo\232!\220\203\\\023Wj\261\271\022\347\353i'\006"
 336      2190835C 
 336      13576AB1 
 336      B912E7EB 
 336      692706
 337 0628 646A670F 		.ascii	"djg\017\375\013fj\257\243^\333\355\015\344\002\250s"
 337      FD0B666A 
 337      AFA35EDB 
 337      ED0DE402 
 337      A873
 338 063a D16BFF84 		.ascii	"\321k\377\204@\315\010tz\300@\375\213\033' \320\033"
 338      40CD0874 
 338      7AC040FD 
 338      8B1B2720 
 338      D01B
 339 064c 08F4418A 		.ascii	"\010\364A\212\245\211\305\322\304l\001\222\235l\244"
 339      A589C5D2 
 339      C46C0192 
 339      9D6CA4
 340 065b 58EB3BEC 		.ascii	"X\353;\354+\012\377k5\227I\2344\241!\261\336\336\\J"
 340      2B0AFF6B 
 340      3597499C 
 340      34A121B1 
 340      DEDE5C4A 
 341 066f BEACD11A 		.ascii	"\276\254\321\032\306x\320\316j\335^\373Q;\237\245h\247"
 341      C678D0CE 
 341      6ADD5EFB 
 341      513B9FA5 
 341      68A7
 342 0681 59F4A61E 		.ascii	"Y\364\246\036H1<\213\0214\213Q\027\037\200\030o11\016"
 342      48313C8B 
 342      11348B51 
 342      171F8018 
 342      6F31310E 
 343 0695 A118DF7E 		.ascii	"\241\030\337~\007b\324fy\025c\030'\006n^_b\321o\204"
 343      0762D466 
 343      79156318 
 343      27066E5E 
 343      5F62D16F 
 344 06aa B0347D06 		.ascii	"\2604}\006O\371yG\034a>k8}\234\344\261\333\2317\215"
 344      4FF97947 
 344      1C613E6B 
 344      387D9CE4 
 344      B1DB9937 
 345 06bf 5F1E5F8B 		.ascii	"_\036_\213\2313*Ls\265\243:\233\330\347\265\242\312"
ARM GAS  /tmp/cc6gOb22.s 			page 27


 345      99332A4C 
 345      73B5A33A 
 345      9BD8E7B5 
 345      A2CA
 346 06d1 1664D94C 		.ascii	"\026d\331L07PM\235\307\360x\371\010\302,\036(L_\377"
 346      3037504D 
 346      9DC7F078 
 346      F908C22C 
 346      1E284C5F 
 347 06e6 F17D6C9E 		.ascii	"\361}l\236\266#\320\212,\253\011\263,\026\3142[\020"
 347      B623D08A 
 347      2CAB09B3 
 347      2C16CC32 
 347      5B10
 348 06f8 7E524A37 		.ascii	"~RJ7p\201|F\277C\177\004\204\377\367q\242\320\204\354"
 348      70817C46 
 348      BF437F04 
 348      84FFF771 
 348      A2D084EC 
 349 070c 53EB79CC 		.ascii	"S\353y\314\277\014\357\251\373h\231\221;1\003m\271-"
 349      BF0CEFA9 
 349      FB689991 
 349      3B31036D 
 349      B92D
 350 071e C49AD8CB 		.ascii	"\304\232\330\313/\032/5\360Lu\347m\302\0358aM\013,\333"
 350      2F1A2F35 
 350      F04C75E7 
 350      6DC21D38 
 350      614D0B2C 
 351 0733 B6F30E61 		.ascii	"\266\363\016a\30784:\337\307\316\246\2730-\336\227b"
 351      C738343A 
 351      DFC7CEA6 
 351      BB302DDE 
 351      9762
 352 0745 EE73C4B2 		.ascii	"\356s\304\262m;g>gv\232H\247\371\010x\364v\315\320z"
 352      6D3B673E 
 352      67769A48 
 352      A7F90878 
 352      F476CDD0 
 353 075a D562868E 		.ascii	"\325b\206\216\333\324\333\327/\272;\242z\312\300b\357"
 353      DBD4DBD7 
 353      2FBA3BA2 
 353      7ACAC062 
 353      EF
 354 076b E7DE47B2 		.ascii	"\347\336G\262\275\242e\213\275\346z_\235\236\021\321"
 354      BDA2658B 
 354      BDE67A5F 
 354      9D9E11D1 
 355 077b 6799578A 		.ascii	"g\231W\212\236\217\263\265\245\271\354pI&\227\360@\230"
 355      9E8FB3B5 
 355      A5B9EC70 
 355      492697F0 
 355      4098
 356 078d 8EB44B94 		.ascii	"\216\264K\2242\252'\326\253\264\215\361\262\346\264"
 356      32AA27D6 
 356      ABB48DF1 
 356      B2E6B4
ARM GAS  /tmp/cc6gOb22.s 			page 28


 357 079c 1A6BCE79 		.ascii	"\032k\316y\324\345\374\200\325\350G\254\313\264\247"
 357      D4E5FC80 
 357      D5E847AC 
 357      CBB4A7
 358 07ab 49B72840 		.ascii	"I\267(@\314\342\270\335)'.'\247\372\200w\252\027\003"
 358      CCE2B8DD 
 358      29272E27 
 358      A7FA8077 
 358      AA1703
 359 07be B7E502F4 		.ascii	"\267\345\002\364}\344F\346T\231\234@K\034\360\016C\312"
 359      7DE446E6 
 359      54999C40 
 359      4B1CF00E 
 359      43CA
 360 07d0 2B90F225 		.ascii	"+\220\362%\253\027\304\277i{V?\003\271\344\312\013\256"
 360      AB17C4BF 
 360      697B563F 
 360      03B9E4CA 
 360      0BAE
 361 07e2 DA78C1A5 		.ascii	"\332x\301\245\001z\001\270\364\305#\004\341\330\276"
 361      017A01B8 
 361      F4C52304 
 361      E1D8BE
 362 07f1 ECAD0493 		.ascii	"\354\255\004\223\036\255\240\303\335T\274*\206\371W"
 362      1EADA0C3 
 362      DD54BC2A 
 362      86F957
 363 0800 ECCCC734 		.ascii	"\354\314\3074b^\021\351\261\351\341\024\327b\232\341"
 363      625E11E9 
 363      B1E9E114 
 363      D7629AE1 
 364 0810 5C2BA946 		.ascii	"\\+\251F\231|\212\033\265\317D\372\226\341s\254/\213"
 364      997C8A1B 
 364      B5CF44FA 
 364      96E173AC 
 364      2F8B
 365 0822 2EDE35F4 		.ascii	".\3365\364\213)\257~\274\310\235\347\322\373.\362\336"
 365      8B29AF7E 
 365      BCC89DE7 
 365      D2FB2EF2 
 365      DE
 366 0833 F797DBF4 		.ascii	"\367\227\333\364\276k\255\307}x\260\350\341\370\365"
 366      BE6BADC7 
 366      7D78B0E8 
 366      E1F8F5
 367 0842 EC6163E2 		.ascii	"\354ac\342^\307\211\373^\212v\277\260f\321n\316H\373"
 367      5EC789FB 
 367      5E8A76BF 
 367      B066D16E 
 367      CE48FB
 368 0855 062A4AE2 		.ascii	"\006*J\342\202\2449\340b\217\223g\243\365D\240\355\322"
 368      82A439E0 
 368      628F9367 
 368      A3F544A0 
 368      EDD2
 369 0867 D3B48C07 		.ascii	"\323\264\214\007\255\306\353\364\0131\366\272\343o\350"
 369      ADC6EBF4 
ARM GAS  /tmp/cc6gOb22.s 			page 29


 369      0B31F6BA 
 369      E36FE8
 370 0876 69172DBA 		.ascii	"i\027-\272pq^{\003\207hR\312\273\202\304y-}\226\371"
 370      70715E7B 
 370      03876852 
 370      CABB82C4 
 370      792D7D96 
 371 088b C074F773 		.ascii	"\300t\367sFHg\261\221y \035;P}\232L\230dP&5\022\235"
 371      464867B1 
 371      9179201D 
 371      3B507D9A 
 371      4C986450 
 372 08a3 20B51237 		.ascii	" \265\0227) g\014\272\320\375}N\256\010\313\320)\363"
 372      2920670C 
 372      BAD0FD7D 
 372      4EAE08CB 
 372      D029F3
 373 08b6 BB8E7A2B 		.ascii	"\273\216z+\236\335Bd\302\343mY\023\253\357\304\343!"
 373      9EDD4264 
 373      C2E36D59 
 373      13ABEFC4 
 373      E321
 374 08c8 E6A3ABDC 		.ascii	"\346\243\253\33407\306\031\354\345e\206r/b\206\262\301"
 374      3037C619 
 374      ECE56586 
 374      722F6286 
 374      B2C1
 375 08da 0DDE0427 		.ascii	"\015\336\004'akb\373:\327\352x\354\305\312v\317xf\376"
 375      616B62FB 
 375      3AD7EA78 
 375      ECC5CA76 
 375      CF7866FE 
 376 08ee 4E2F33E5 		.ascii	"N/3\345s\273\335\300Mrm\373\344\213,\231|\202\257c/"
 376      73BBDDC0 
 376      4D726DFB 
 376      E48B2C99 
 376      7C82AF63 
 377 0903 E22BD8BF 		.ascii	"\342+\330\277b}\015\353\025\270P6`\275\032\353\365X"
 377      627D0DEB 
 377      15B85036 
 377      60BD1AEB 
 377      F558
 378 0915 BF86F51F 		.ascii	"\277\206\365\037\261>\210\365\333X\337\304z\276D\353"
 378      B13E88F5 
 378      DB58DFC4 
 378      7ABE44EB 
 379 0925 67B15E88 		.ascii	"g\261^\210\365\"\254_\220\\,\270\226\034\320p\371\336"
 379      F522AC5F 
 379      905C2CB8 
 379      961CD070 
 379      F9DE
 380 0937 01BF6F3F 		.ascii	"\001\277o?u4q\242h\274o\367\002\226\227N\207\275\234"
 380      753471A2 
 380      68BC6FF7 
 380      0296974E 
 380      87BD9C
 381 094a 0EFB5087 		.ascii	"\016\373P\207\377\203z{\221\227\324\010\277\335\003"
ARM GAS  /tmp/cc6gOb22.s 			page 30


 381      FF837A7B 
 381      9197D408 
 381      BFDD03
 382 0959 7EC3B7BF 		.ascii	"~\303\267\277\233w,\231\\\265\342y\212\277\232\361\362"
 382      9B772C99 
 382      5CB5E279 
 382      8ABF9AF1 
 382      F2
 383 096a 81BD4E5A 		.ascii	"\201\275NZ.z\0053{i\347J\363\022\265\322\015^\232\023"
 383      2E7A0533 
 383      7B69E74A 
 383      F312B5D2 
 383      0D5E9A13 
 384 097e 60FD949F 		.ascii	"`\375\224\237\201\255\362\014ff\356l7w\234\274?H2\203"
 384      81ADF20C 
 384      6666EE6C 
 384      37779CBC 
 384      3F483283 
 385 0992 D99D93DA 		.ascii	"\331\235\223\332\033\277\2333\376\0314\376Y4~=:\373"
 385      1BBF9B33 
 385      FE1934FE 
 385      59347E3D 
 385      3AFB
 386 09a4 12AC9762 		.ascii	"\022\254\227b\275\014\353\227\314KkK\320\370\000A'f"
 386      BD0CEB97 
 386      CC4B6B4B 
 386      D0F80041 
 386      2766
 387 09b6 7ED79FC6 		.ascii	"~\327\237\306+dr\034\010\351\266l\356a\276\3416\266"
 387      2B64721C 
 387      08E9B66C 
 387      EE61BEE1 
 387      36B6
 388 09c8 7D7C2DC6 		.ascii	"}|-\306b[\203D\027\344?\007=\307\266.\034\262&5\266"
 388      625B8344 
 388      17E43F07 
 388      3DC7B62E 
 388      1CB22635 
 389 09dd DD32BE41 		.ascii	"\3352\276AX\2239\266\315\253\215\255Z\2759\271O\252"
 389      589339B6 
 389      CDAB8DAD 
 389      5ABD39B9 
 389      4FAA
 390 09ef 4DEC2AD7 		.ascii	"M\354*\327\302\332\356\2648\230\216\275/$\370\370Nb"
 390      C2DAEEB4 
 390      38988EBD 
 390      2F24F8F8 
 390      4E62
 391 0a01 E11A2E16 		.ascii	"\341\032.\026\256\303X\330h6\330e\253\301<\306\302\375"
 391      AEC358D8 
 391      6836D865 
 391      ABC13CC6 
 391      C2FD
 392 0a13 3D462C64 		.ascii	"=F,d\237 |e\3053\177p\220&\030&.\375\266i'i\347\307"
 392      9F207C65 
 392      C5337F70 
 392      90261826 
ARM GAS  /tmp/cc6gOb22.s 			page 31


 392      2EFDB669 
 393 0a2b FAB85142 		.ascii	"\372\270QB\243\026\273\334\027\337\322\237\277\242\266"
 393      A316BBDC 
 393      17DFD29F 
 393      BFA2B6
 394 0a3a A64DBB4C 		.ascii	"\246M\273L\2634\367\037\252m\222,\037\252\261o\230\270"
 394      B334F71F 
 394      AA6D922C 
 394      1FAAB16F 
 394      98B8
 395 0a4c 2FD54461 		.ascii	"/\325Dau\266\331\237\356\025\376\240iK\265U\312c\306"
 395      75B6D99F 
 395      EE15FEA0 
 395      694BB555 
 395      CA63C6
 396 0a5f D791AF63 		.ascii	"\327\221\257c\217\215\322([:\211\217\255\376Q\330D\337"
 396      8F8DD228 
 396      5B3A898F 
 396      ADFE51D8 
 396      44DF
 397 0a71 C2BCA0CD 		.ascii	"\302\274\240\315\037F\220+A\037e2\332\026I\344oP\001"
 397      1F46902B 
 397      411F6532 
 397      DA1649E4 
 397      6F5001
 398 0a84 9BFA62DF 		.ascii	"\233\372b\337(L6\367\242\275\252\213\226\224F\024vY"
 398      284C36F7 
 398      A2BDAA8B 
 398      96944614 
 398      7659
 399 0a96 44D17982 		.ascii	"D\321y\202k\253&%Xz\305\312\322k\251,\365]\216\335j"
 399      6BAB2625 
 399      587AC5CA 
 399      D26BA92C 
 399      F55D8EDD 
 400 0aab CDAD9FDB 		.ascii	"\315\255\237\333\027\217\217r\317\323N;u'~\354e\351"
 400      178F8F72 
 400      CFD34E3B 
 400      75277EEC 
 400      65E9
 401 0abd 78E2770B 		.ascii	"x\342w\013S\033\377\021\241I\036\024\351M{\353,7\254"
 401      531BFF11 
 401      A1491E14 
 401      E94D7BEB 
 401      2C37AC
 402 0ad0 23936D12 		.ascii	"#\223m\022]pw\244\267\216>\254S\276\317\370T\254\025"
 402      5D7077A4 
 402      B78E3EAC 
 402      53BECFF8 
 402      54AC15
 403 0ae3 81B961A6 		.ascii	"\201\271a\246O\305tn\331\260\330\222gi\300\020\215o"
 403      4FC5746E 
 403      D9B0D892 
 403      6769C010 
 403      8D6F
 404 0af5 16DBAD43 		.ascii	"\026\333\255C-\024[8\212\315\224Q|\271\177\204\244\347"
 404      2D145B38 
ARM GAS  /tmp/cc6gOb22.s 			page 32


 404      8ACD9451 
 404      7CB97F84 
 404      A4E7
 405 0b07 7362D289 		.ascii	"sb\322\211\264X\274\256\266\211hY\011\233\355\260\332"
 405      B458BCAE 
 405      B6896859 
 405      099BEDB0 
 405      DA
 406 0b18 6C8FADCD 		.ascii	"l\217\255\315n\036c6{y\222{\243\035r1G:3\314\021\303"
 406      6E1E6336 
 406      7B79927B 
 406      A31D7231 
 406      473A33CC 
 407 0b2e 0A075DCD 		.ascii	"\012\007]\315\021\3152G\016Z\205\213\331\010W\337\267"
 407      11CD3247 
 407      0E5A858B 
 407      D90857DF 
 407      B7
 408 0b3f 6447CB8F 		.ascii	"dG\313\217\032vi\363\026j\267\342\317\0206\003D\241"
 408      1A7669F3 
 408      166AB7E2 
 408      CF103603 
 408      44A1
 409 0b51 6690D5E7 		.ascii	"f\220\325\347\031\306\273v\030\261+\255\317k\304\253"
 409      19C6BB76 
 409      18B12BAD 
 409      CF6BC4AB 
 410 0b61 5BB75A35 		.ascii	"[\267Z5\304\276\\4ih\261\003\033m\266l\364&\331`\360"
 410      C4BE5C34 
 410      6968B103 
 410      1B6DB66C 
 410      F426D960 
 411 0b76 B0357000 		.ascii	"\2605p\0008j\006\370\007a=\325\305\365\272\323\177&"
 411      386A06F8 
 411      07613DD5 
 411      C5F5BAD3 
 411      7F26
 412 0b88 4BB5A636 		.ascii	"K\265\2466\352+q2*\343\347\203\306\011\3477\035\354"
 412      EA2B7132 
 412      2AE3E783 
 412      C609E737 
 412      1DEC
 413 0b9a 7BBE768C 		.ascii	"{\276v\214\245\233-D\215\317\0109\372\035\\\316p\012"
 413      A59B2D44 
 413      8DCF0839 
 413      FA1D5CCE 
 413      700A
 414 0bac 73864ECC 		.ascii	"s\206N\314\031\216c\275\022\363\204\015\346\260\263"
 414      198E63BD 
 414      12F3840D 
 414      E6B0B3
 415 0bbb 2B816ACB 		.ascii	"+\201j\313\012E=\221\224\312rD\333\356\020\035\221\027"
 415      0A453D91 
 415      94CA7244 
 415      DBEE101D 
 415      9117
 416 0bcd 29C76114 		.ascii	")\307a\024\365\005\247Q'\223\243\360x\2416\355\361\202"
ARM GAS  /tmp/cc6gOb22.s 			page 33


 416      F505A751 
 416      2793A3F0 
 416      78A136ED 
 416      F182
 417 0bdf 4C2EA394 		.ascii	"L.\243\224\231\317\012\354t\236e@=\225\324y\317\356"
 417      99CF0AEC 
 417      749E6540 
 417      3D95D479 
 417      CFEE
 418 0bf1 FE727650 		.ascii	"\376rvP\321\211J\377d\220m\002\343\214C\231\352\262"
 418      D1894AFF 
 418      64906D02 
 418      E38C4399 
 418      EAB2
 419 0c03 242FB165 		.ascii	"$/\261e=\370\331g\227\253\304ey\217\221\216\237\222"
 419      3DF8D967 
 419      97ABC465 
 419      798F918E 
 419      9F92
 420 0c15 E802F715 		.ascii	"\350\002\367\025\262\320\345=\021\321\361V\364`\222"
 420      B2D0E53D 
 420      11D1F156 
 420      F46092
 421 0c24 CAC06E78 		.ascii	"\312\300nx\006\3133\2015\360`7\335\2009m\024\000l5\017"
 421      06CB3381 
 421      35F06037 
 421      DD80396D 
 421      14006C35 
 422 0c39 3637C72B 		.ascii	"67\307+\230\231\263\265<X\235\0330\247]\002\2005\362"
 422      9899B3B5 
 422      3C589D1B 
 422      30A75D02 
 422      8035F2
 423 0c4c 600B3D83 		.ascii	"`\013=\203\2319\333\311\203\275\340\006\314\351k\012"
 423      9939DBC9 
 423      83BDE006 
 423      CCE96B0A 
 424 0c5c 00DBC583 		.ascii	"\000\333\305\203-\363\014f\346\354\015\036l\225\033"
 424      2DF30C66 
 424      E6EC0D1E 
 424      6C951B
 425 0c6b B03C67CE 		.ascii	"\260<g\316\366\362`\215\236\301\314\234\375\221\007"
 425      F6F2608D 
 425      9EC1CC9C 
 425      FD9107
 426 0c7a DBE006CC 		.ascii	"\333\340\006\314)5\006\260?\361`\233=\203\2319;\300"
 426      293506B0 
 426      3FF1609B 
 426      3D839939 
 426      3BC0
 427 0c8c 836D7703 		.ascii	"\203mw\0036\306\211\263\271\261CO\326\313?\020\352\365"
 427      36C689B3 
 427      B9B1434F 
 427      D6CB3F10 
 427      EAF5
 428 0c9e 2585A11A 		.ascii	"%\205\241\032\313\0121\273\026\337\215\036\226:t\223"
 428      CB0A31BB 
ARM GAS  /tmp/cc6gOb22.s 			page 34


 428      16DF8D1E 
 428      963A7493 
 429 0cae C957D20F 		.ascii	"\311W\322\017\260ez\257\202=\234\026\335\253R\362#\241"
 429      B0657AAF 
 429      823D9C16 
 429      DDAB52F2 
 429      23A1
 430 0cc0 DCEC6483 		.ascii	"\334\354d\203\377\317.\311^4\311\266\212m\346\302Nn"
 430      FFCF2EC9 
 430      5E34C9B6 
 430      8A6DE6C2 
 430      4E6E
 431 0cd2 B3123B78 		.ascii	"\263\022;x%\356r\243\304I\316`\247x\260}n\300\036s\366"
 431      25EE72A3 
 431      C449CE60 
 431      A778B07D 
 431      6EC01E73 
 432 0ce7 95F778B0 		.ascii	"\225\367x\2607=\203\2319\353\342\301bn\300\236p\346"
 432      373D8399 
 432      39EBE2C1 
 432      626EC09E 
 432      70E6
 433 0cf9 EC7D1EEC 		.ascii	"\354}\036\354\035\317`<gscg\223\216G\277\2537y\236\351"
 433      1DCF603C 
 433      67736367 
 433      938E47BF 
 433      AB37799E 
 434 0d0e F828E178 		.ascii	"\370(\341x\254\033\347y\226n2\251\365yu\274y>{\307\343"
 434      AC1BE779 
 434      966E32A9 
 434      F57975BC 
 434      793E7BC7 
 435 0d23 BF7C49F6 		.ascii	"\277|I\366\002\261\217X\305\266;\352\232n\243C\273\213"
 435      02B18F58 
 435      C5B63BEA 
 435      9A6EA343 
 435      BB8B
 436 0d35 0FD432E9 		.ascii	"\017\3242\351\306M\371\373\230#\235\305\372\277\261"
 436      C64DF9FB 
 436      98239DC5 
 436      FABFB1
 437 0d44 EEC5BA0F 		.ascii	"\356\305\272\017\353sX\177\204\365\005\254?\301\372"
 437      EB73587F 
 437      84F505AC 
 437      3FC1FA
 438 0d53 12D69F62 		.ascii	"\022\326\237b\3759\326\227\261\276\202\365u\254\277"
 438      FD39D697 
 438      B1BE82F5 
 438      75ACBF
 439 0d62 C6FA5BAC 		.ascii	"\306\372[\254\377\206u\034\353\271>.\037\263dJ\235i"
 439      FF86751C 
 439      EBB93E2E 
 439      1FB3644A 
 439      9D69
 440 0d74 F2AB3A9F 		.ascii	"\362\253:\237S~\325\232&\277z69J\337\256\037<t\344\256"
 440      537ED59A 
 440      26BF7A36 
ARM GAS  /tmp/cc6gOb22.s 			page 35


 440      394ADFAE 
 440      1F3C74E4 
 441 0d89 57E9C7C7 		.ascii	"W\351\307\3074S\237;\217\030\271\372\255\0347\373\323"
 441      34539F3B 
 441      8F18B9FA 
 441      AD1C37FB 
 441      D3
 442 0d9a 053ECB76 		.ascii	"\005>\313v`\241/%\207\006\"g\316\265\224\354\347\210"
 442      60A12F25 
 442      87062267 
 442      CEB594EC 
 442      E788
 443 0dac 58F2F9BD 		.ascii	"X\362\371\275\304\331G\236\367\245\356\235w\347\332"
 443      C4D9479E 
 443      F7A5EE9D 
 443      77E7DA
 444 0dbb F256A3ED 		.ascii	"\362V\243\355\334\252\371\215\315\253L\026\371\3547"
 444      DCAAF98D 
 444      CDAB4C16 
 444      F9EC37
 445 0dca 8C3ADE0B 		.ascii	"\214:\336\013\266\254\0368t\344\307\364\365\226\026"
 445      B6AC1E38 
 445      74E4C7F4 
 445      F59616
 446 0dd9 8F3F730F 		.ascii	"\217?s\017#\017\033Pw\004_LO\260\336\226\340W\027\316"
 446      230F1B50 
 446      77045F4C 
 446      4FB0DE96 
 446      E05717CE 
 447 0ded DC9F4270 		.ascii	"\334\237Bp\361`W\004\227\246'\270\314\226\340\301C\027"
 447      F1605704 
 447      97A627B8 
 447      CC96E0C1 
 447      4317
 448 0dff 7F64B638 		.ascii	"\177d\2668\333\325\254\267\320\3247\216\335\311}\370"
 448      DBD5ACB7 
 448      D0D4378E 
 448      DDC97DF8 
 449 0e0f 5EECB1DC 		.ascii	"^\354\261\334\201h\342\324@w\2243\332\023#\023\216\262"
 449      8168E2D4 
 449      40779433 
 449      DA132313 
 449      8EB2
 450 0e21 DCEA282B 		.ascii	"\334\352(+|){\245\216\216\276\370\226#\023\226i5\015"
 450      7C297BA5 
 450      8E8EBEF8 
 450      96231396 
 450      69350D
 451 0e34 DA3CDC2A 		.ascii	"\332<\334*\031A\257\301|rWl\220\035\214c\371^\215\216"
 451      1941AFC1 
 451      7C72576C 
 451      901D8C63 
 451      F95E8D8E 
 452 0e48 BD00C1F3 		.ascii	"\275\000\301\363\002\265\316a\201\3125\211\262.\271"
 452      02B5CE61 
 452      81CA3589 
 452      B22EB9
ARM GAS  /tmp/cc6gOb22.s 			page 36


 453 0e57 40BD891A 		.ascii	"@\275\211\032\342\266\326\026&D\341\335\301D\037\006"
 453      E2B6D616 
 453      2644E1DD 
 453      C1441F06 
 454 0e67 D973D224 		.ascii	"\331s\322$_\217\2643\311){\223\364\030&\221I\203\217"
 454      5F8FB433 
 454      C9297B93 
 454      F4182691 
 454      49838F
 455 0e7a EEE59B06 		.ascii	"\356\345\233\006b\222&\253I\326;\230\344\342\335\231"
 455      629226AB 
 455      49D63B98 
 455      E4E2DD99 
 456 0e8a 4D32DD20 		.ascii	"M2\335 \233\223\316$\226^2\331\354\331$[\034L2\310$"
 456      9B93CE24 
 456      965E32D9 
 456      ECD9245B 
 456      1C4C32C8 
 457 0e9f 8AD10B9A 		.ascii	"\212\321\013\232\215>\313Y\216\205\011Q\270h2\211e5"
 457      8D3ECB59 
 457      8E850951 
 457      B8683289 
 457      6535
 458 0eb1 DD946635 		.ascii	"\335\224f5\335\226\\M\205{G\217\316g\377*\242\371\021"
 458      DD965C4D 
 458      857B478F 
 458      CE67FF2A 
 458      A2F911
 459 0ec4 35BFA43C 		.ascii	"5\277\244<\\ZU\244\344\207\213\243s\242\352\234J%:\272"
 459      5C5A55A4 
 459      E4878BA3 
 459      73A2EA9C 
 459      4A253ABA 
 460 0ed8 58B8A3BA 		.ascii	"X\270\243\272$\242V\311\245!\265\244L\211DC\245%Q5\244"
 460      24A256C9 
 460      A521B5A4 
 460      4C894443 
 460      A5255135 
 461 0eed 663DFA9B 		.ascii	"f=\372\233\337\346\025\010w\206\213C6\317\363\234\201"
 461      DFE61508 
 461      77868B43 
 461      36CFF39C 
 461      81
 462 0efe C3C54500 		.ascii	"\303\305E\000:\3244(\244\016\263\342\370\312\225\331"
 462      3AD43428 
 462      A40EB3E2 
 462      F8CA95D9 
 463 0f0e AAAF32A2 		.ascii	"\252\2572\242TgS^\340VH\375q~U4\222\300*Wf\225\226\314"
 463      5467535E 
 463      E05648FD 
 463      717E5534 
 463      92C02A57 
 464 0f26 C88FAA45 		.ascii	"\310\217\252E%\345*@\006\253\340\357\330\007C\352\317"
 464      25E52A40 
 464      06ABE0EF 
 464      D80743EA 
 464      CF
ARM GAS  /tmp/cc6gOb22.s 			page 37


 465 0f37 EDBA95C9 		.ascii	"\355\272\225\311\341\342\222r%?T\244<-W\225\202\004"
 465      E1E29272 
 465      253F54A4 
 465      3C2D5795 
 465      8204
 466 0f49 BA788342 		.ascii	"\272x\203B!c\240\277H)U\345`\265\372tUy8\244\372\350"
 466      2163A0BF 
 466      482955E5 
 466      60B5FA74 
 466      557938A4 
 467 0f5f 1FA9528E 		.ascii	"\037\251R\216\004K\345\250JY\310\252V\251t\331\300,"
 467      044BE5A8 
 467      4A59C8AA 
 467      56A974D9 
 467      C02C
 468 0f71 654A29CB 		.ascii	"eJ)\313\215(r\321\034]%\203\341v\362\367P\265\230\376"
 468      8D2872D1 
 468      1C5D2583 
 468      E176F2F7 
 468      50B598FE 
 469 0f85 8886FEB3 		.ascii	"\210\206\376\263J\251R\230\204\246[A\366+\204p\254\355"
 469      4AA95298 
 469      84A65B41 
 469      F62B8470 
 469      ACED
 470 0f97 C7071378 		.ascii	"\307\007\023x\345\205+\312\312"
 470      E5852BCA 
 470      CA
 471 0fa0 2ACAF32B 		.ascii	"*\312\363++\"j4\377\341\302)\005Sf\323{\225%\245\240"
 471      2B226A34 
 471      FFE1C229 
 471      055366D3 
 471      7B9525A5 
 472 0fb5 EBFC470B 		.ascii	"\353\374G\013\012@\247\206(\001\2652RR\021RQ\023\343"
 472      0A40A786 
 472      2801B532 
 472      52521152 
 472      5113E3
 473 0fc8 C785545D 		.ascii	"\307\205T]6\332\364\321G\271\024&\024\256(WA\271\367"
 473      36DAF4D1 
 473      47B91426 
 473      14AE2857 
 473      41B9F7
 474 0fdb 6724531C 		.ascii	"g$S\034\256\210(\200\233\203\303\000(\254\316\376\271"
 474      AE882880 
 474      9B83C300 
 474      28ACCEFE 
 474      B9
 475 0fec BB51A1EA 		.ascii	"\273Q\241\352_\226Q\233D\224\231r\244,\244\212\221\007"
 475      5F96519B 
 475      44949972 
 475      A42CA48A 
 475      9107
 476 0ffe C4C8     		.ascii	"\304\310"
 477 1000 2FC4C883 		.ascii	"/\304\310\203b\344\227bd\202\030yH\212\214\035\003e"
 477      62E49762 
 477      64821879 
ARM GAS  /tmp/cc6gOb22.s 			page 38


 477      488A8C1D 
 477      0365
 478 1012 AC581A11 		.ascii	"\254X\032\021\243\225\022@\373\301TJ\304_QZ\004\346"
 478      A3951240 
 478      FBC1544A 
 478      C45F515A 
 478      04E6
 479 1024 0F17CBE0 		.ascii	"\017\027\313\340\003r\2312(\252\376^.-\231Y\256\313"
 479      03729932 
 479      28AAFE5E 
 479      2E2D9959 
 479      AECB
 480 1036 F5E00309 		.ascii	"\365\340\003\011\271h3k\226<C\216\2022\243\252\254\202"
 480      B968336B 
 480      963C438E 
 480      8232A3AA 
 480      AC82
 481 1048 9A03F4C1 		.ascii	"\232\003\364\301\004P*\353\002-?>\011\250e\025E\360"
 481      04502AEB 
 481      022D3F3E 
 481      09A86515 
 481      45F0
 482 105a DCFF74A9 		.ascii	"\334\377t\251<3\032P#\312\323Q\320\012\375\343/\213"
 482      3C331A50 
 482      23CAD351 
 482      D00AFDE3 
 482      2F8B
 483 106c CE8481BA 		.ascii	"\316\204\201\272\242`\240\336\312\212\024\315\201GA"
 483      A260A0DE 
 483      CA8A14CD 
 483      814741
 484 107b 6576891A 		.ascii	"ev\211\032\206\301Y\263\324\212\031\377Q9\\\267\033"
 484      86C159B3 
 484      D48A19FF 
 484      51395CB7 
 484      1B
 485 108c 0C55224A 		.ascii	"\014U\"Jy\230\202\316R\325He \252\224\2530 \227\272"
 485      799882CE 
 485      52D54865 
 485      20AA94AB 
 485      302097BA 
 486 10a0 87522657 		.ascii	"\207R&W\026\203\"F9\317\004\205j\310\037.\007\327\221"
 486      16832246 
 486      39CF0485 
 486      6AC81F2E 
 486      07D791
 487 10b3 A00678B8 		.ascii	"\240\006x\270U\031\204\321eU` \347\221e\352l:\262bV"
 487      551984D1 
 487      65556020 
 487      E79165EA 
 487      6C3AB262 
 488 10c8 B9120960 		.ascii	"\271\022\011`_\252\007\025nW\346(\325\224\0119\372{"
 488      5FAA0715 
 488      6E57E628 
 488      D5940939 
 488      FA7B
 489 10da B8A5CCA2 		.ascii	"\270\245\314\242\015R5\304\360;\346\247C9O\244w\002"
ARM GAS  /tmp/cc6gOb22.s 			page 39


 489      0D5235C4 
 489      F03BE6A7 
 489      43394FA4 
 489      7702
 490 10ec B3E412B5 		.ascii	"\263\344\022\265\244|f\020xg\236\251T*\3450\253f\006"
 490      A47C6610 
 490      78679EA9 
 490      542AE530 
 490      AB6606
 491 10ff 0092F600 		.ascii	"\000\222\366\0003\312\245\324\201\374e\225\025\025\245"
 491      33CAA5D4 
 491      81FC6595 
 491      1515A5
 492 110e 81705504 		.ascii	"\201pU\004$W\375\021\372p\010\233\0120\261fT\315d\350"
 492      2457FD11 
 492      FA70089B 
 492      0A30B166 
 492      54CD64E8 
 493 1122 FC9DEC4A 		.ascii	"\374\235\354J\271\274$\034\002l\251h\306\314Ae2h\027"
 493      B9BC241C 
 493      026CA968 
 493      C6CC4165 
 493      326817
 494 1135 89DF6591 		.ascii	"\211\337e\221/\032\011\203l\325\352\350\2600\"\\\374"
 494      2F1A0983 
 494      6CD5EAE8 
 494      B030225C 
 494      FC
 495 1146 BB69932B 		.ascii	"\273i\223+\012\225\250\242>>\032f\240:z\214T\255V\006"
 495      0A95A8A2 
 495      3E3E1A66 
 495      A03A7A8C 
 495      54AD5606 
 496 115a 43D5D40F 		.ascii	"C\325\324\017K\324A\254\303TxL'\255<'\213M\332\\~\340"
 496      4BD441AC 
 496      C354784C 
 496      27AD3C27 
 496      8B4DDA5C 
 497 1170 3D3C8162 		.ascii	"=<\201b\2714\241Ah\207\242t\311\310\211\252S\325\212"
 497      B934A141 
 497      6887A274 
 497      C9C889AA 
 497      53D58A
 498 1183 CA874BC1 		.ascii	"\312\207K\301G\301\317\000\016\233\271\3646\020\305"
 498      47C1CF00 
 498      0E9BB9F4 
 498      3610C5
 499 1192 1F394979 		.ascii	"\0379IyT1\\<\316\012\312\234\177\352\264)\343\307\345"
 499      54315C3C 
 499      CE0ACA9C 
 499      7FEAB429 
 499      E3C7E5
 500 11a5 FFFAD793 		.ascii	"\377\372\327\223\363\247=>\245z,\254Je\324\205J\312"
 500      F3A73D3E 
 500      A57A2CAC 
 500      4A65D485 
 500      4ACA
ARM GAS  /tmp/cc6gOb22.s 			page 40


 501 11b7 1815FD07 		.ascii	"\030\025\375\007\030\272\240p,\224q\276\251S\012\012"
 501      18BAA070 
 501      2C9471BE 
 501      A9530A0A 
 502 11c7 7D931F7F 		.ascii	"}\223\037\177\244P\234Z(=\362h\241\277\240`J\341X\254"
 502      A4509C5A 
 502      283DF268 
 502      A1BFA060 
 502      4AE158AC 
 503 11db C7F90A0A 		.ascii	"\307\371\012\012\036)\224\012~3Mzbj\201\364pa\241TX"
 503      1E29940A 
 503      7E334D7A 
 503      626A81F4 
 503      7061A154 
 504 11f0 00BF61C0 		.ascii	"\000\277a\300\277N\236V(M\246#\247<\\(\376\033\0335"
 504      BF4E9E56 
 504      284DA623 
 504      A73C5C28 
 504      FE1B1B35 
 505 1204 1EFA4F2F 		.ascii	"\036\372O/\314w91qu\245\313:Nj\266\374FA\011!\231J\373"
 505      CC773931 
 505      7175A5CB 
 505      3A4E6AB6 
 505      FC464109 
 506 121c F78E4E57 		.ascii	"\367\216NWM\0256\234\352\367QE\235\212\012\231\006\203"
 506      4D15369C 
 506      EAF75145 
 506      9D8A0A99 
 506      0683
 507 122e A78FE070 		.ascii	"\247\217\340pf*\2545\336\235\222\230\035B\245\2454\""
 507      662AAC35 
 507      DE9D9298 
 507      1D42A5A5 
 507      3422
 508 1240 0C672DC4 		.ascii	"\014g-\304\010WT\301\022\025\371!\317\"\334F\016}\364"
 508      085754C1 
 508      1215F921 
 508      CF22DC46 
 508      0E7DF4
 509 1253 773014C2 		.ascii	"w0\024\3025:4\330h\214\376\305C\017\214\273\323$\023"
 509      353A34D8 
 509      688CFEC5 
 509      430F8CBB 
 509      D32413
 510 1266 58900DE1 		.ascii	"X\220\015\341;\215\177\340\377\000\336\231L\266"
 510      3B8D7FE0 
 510      FF00DE99 
 510      4CB6
 511              		.text
 512              		.section	.gnu.lto_.symtab.335c8a8ac0785a1c,"",%progbits
 513 0000 5F76745F 		.ascii	"_vt_init\000\000\000\000\000\000\000\000\000\000\000"
 513      696E6974 
 513      00000000 
 513      00000000 
 513      000000
 514 0013 00AB0100 		.ascii	"\000\253\001\000\000chVTDoSetI\000\000\000\000\000\000"
 514      00636856 
ARM GAS  /tmp/cc6gOb22.s 			page 41


 514      54446F53 
 514      65744900 
 514      00000000 
 515 0028 00000000 		.ascii	"\000\000\000\000\000\000\257\001\000\000chVTDoReset"
 515      0000AF01 
 515      00006368 
 515      5654446F 
 515      52657365 
 516 003d 49000000 		.ascii	"I\000\000\000\000\000\000\000\000\000\000\000\000\275"
 516      00000000 
 516      00000000 
 516      00BD
 517 004b 01000063 		.ascii	"\001\000\000ch\000\000\002\000\000\000\000\000\000\000"
 517      68000002 
 517      00000000 
 517      000000
 518 005a 0000CB01 		.ascii	"\000\000\313\001\000\000stStopAlarm\000\000\002\000"
 518      00007374 
 518      53746F70 
 518      416C6172 
 518      6D000002 
 519 006f 00000000 		.ascii	"\000\000\000\000\000\000\000\000\303\001\000\000stS"
 519      00000000 
 519      C3010000 
 519      737453
 520 007e 6574416C 		.ascii	"etAlarm\000\000\002\000\000\000\000\000\000\000\000"
 520      61726D00 
 520      00020000 
 520      00000000 
 520      0000
 521 0090 00C50100 		.ascii	"\000\305\001\000\000stStartAlarm\000\000\002\000\000"
 521      00737453 
 521      74617274 
 521      416C6172 
 521      6D000002 
 522 00a6 00000000 		.ascii	"\000\000\000\000\000\000\000\311\001\000\000"
 522      000000C9 
 522      010000
 523              		.text
 524              		.section	.gnu.lto_.opts,"",%progbits
 525 0000 272D6D63 		.ascii	"'-mcpu=cortex-m3' '-mno-thumb-interwork' '-mthumb' "
 525      70753D63 
 525      6F727465 
 525      782D6D33 
 525      2720272D 
 526 0033 272D6767 		.ascii	"'-ggdb' '-O2' '-fomit-frame-pointer' '-falign-funct"
 526      64622720 
 526      272D4F32 
 526      2720272D 
 526      666F6D69 
 527 0066 696F6E73 		.ascii	"ions=16' '-ffunction-sections' '-fdata-sections' '-"
 527      3D313627 
 527      20272D66 
 527      66756E63 
 527      74696F6E 
 528 0099 666E6F2D 		.ascii	"fno-common' '-flto'\000"
 528      636F6D6D 
ARM GAS  /tmp/cc6gOb22.s 			page 42


 528      6F6E2720 
 528      272D666C 
 528      746F2700 
 529              		.text
 530              		.cfi_sections	.debug_frame
 531              		.section	.text._vt_init,"ax",%progbits
 532              		.align	2
 533              		.p2align 4,,15
 534              		.global	_vt_init
 535              		.thumb
 536              		.thumb_func
 537              		.type	_vt_init, %function
 538              	_vt_init:
 539              	.LFB188:
 540              		.file 1 "../../../os/rt/src/chvt.c"
 541              		.loc 1 61 0
 542              		.cfi_startproc
 543              		@ args = 0, pretend = 0, frame = 0
 544              		@ frame_needed = 0, uses_anonymous_args = 0
 545              		@ link register save eliminated.
 546              		.loc 1 63 0
 547 0000 40F20003 		movw	r3, #:lower16:ch
 548 0004 C0F20003 		movt	r3, #:upper16:ch
 549 0008 03F11C02 		add	r2, r3, #28
 550              		.loc 1 65 0
 551 000c 4FF6FF70 		movw	r0, #65535
 552              		.loc 1 69 0
 553 0010 0021     		movs	r1, #0
 554              		.loc 1 65 0
 555 0012 9884     		strh	r0, [r3, #36]	@ movhi
 556              		.loc 1 69 0
 557 0014 D984     		strh	r1, [r3, #38]	@ movhi
 558              		.loc 1 63 0
 559 0016 DA61     		str	r2, [r3, #28]
 560              		.loc 1 64 0
 561 0018 1A62     		str	r2, [r3, #32]
 562 001a 7047     		bx	lr
 563              		.cfi_endproc
 564              	.LFE188:
 565              		.size	_vt_init, .-_vt_init
 566 001c AFF30080 		.section	.text.chVTDoSetI,"ax",%progbits
 567              		.align	2
 568              		.p2align 4,,15
 569              		.global	chVTDoSetI
 570              		.thumb
 571              		.thumb_func
 572              		.type	chVTDoSetI, %function
 573              	chVTDoSetI:
 574              	.LFB189:
 575              		.loc 1 96 0
 576              		.cfi_startproc
 577              		@ args = 0, pretend = 0, frame = 0
 578              		@ frame_needed = 0, uses_anonymous_args = 0
 579              	.LVL0:
 580 0000 F8B5     		push	{r3, r4, r5, r6, r7, lr}
 581              		.cfi_def_cfa_offset 24
 582              		.cfi_offset 3, -24
ARM GAS  /tmp/cc6gOb22.s 			page 43


 583              		.cfi_offset 4, -20
 584              		.cfi_offset 5, -16
 585              		.cfi_offset 6, -12
 586              		.cfi_offset 7, -8
 587              		.cfi_offset 14, -4
 588              	.LBB35:
 589              		.loc 1 117 0
 590 0002 40F20007 		movw	r7, #:lower16:ch
 591 0006 C0F20007 		movt	r7, #:upper16:ch
 592 000a BC46     		mov	ip, r7
 593 000c 5CF81C4F 		ldr	r4, [ip, #28]!
 594              	.LBB36:
 595              	.LBB37:
 596              	.LBB38:
 597              	.LBB39:
 598              		.file 2 "../../../os/hal/ports/STM32/LLD/TIMv1/hal_st_lld.h"
 599              		.loc 2 141 0
 600 0010 4FF08045 		mov	r5, #1073741824
 601 0014 6D6A     		ldr	r5, [r5, #36]
 602              	.LBE39:
 603              	.LBE38:
 604              	.LBE37:
 605              	.LBE36:
 606              		.loc 1 113 0
 607 0016 0129     		cmp	r1, #1
 608 0018 98BF     		it	ls
 609 001a 0221     		movls	r1, #2
 610              	.LVL1:
 611              		.loc 1 117 0
 612 001c 6445     		cmp	r4, ip
 613              	.LBE35:
 614              		.loc 1 103 0
 615 001e 0361     		str	r3, [r0, #16]
 616              		.loc 1 96 0
 617 0020 0646     		mov	r6, r0
 618              		.loc 1 104 0
 619 0022 C260     		str	r2, [r0, #12]
 620              	.LBB50:
 621              	.LBB43:
 622              	.LBB42:
 623              	.LBB41:
 624              	.LBB40:
 625              		.loc 2 141 0
 626 0024 ABB2     		uxth	r3, r5
 627              	.LVL2:
 628              	.LBE40:
 629              	.LBE41:
 630              	.LBE42:
 631              	.LBE43:
 632              		.loc 1 117 0
 633 0026 27D0     		beq	.L14
 634              	.LVL3:
 635              		.loc 1 139 0
 636 0028 FA8C     		ldrh	r2, [r7, #38]
 637              	.LVL4:
 638 002a 9B1A     		subs	r3, r3, r2
 639 002c CD18     		adds	r5, r1, r3
ARM GAS  /tmp/cc6gOb22.s 			page 44


 640 002e ADB2     		uxth	r5, r5
 641              	.LVL5:
 642              		.loc 1 141 0
 643 0030 9D42     		cmp	r5, r3
 644              		.loc 1 145 0
 645 0032 2389     		ldrh	r3, [r4, #8]
 646              		.loc 1 141 0
 647 0034 15DB     		blt	.L15
 648              		.loc 1 148 0
 649 0036 9D42     		cmp	r5, r3
 650 0038 04D2     		bcs	.L12
 651 003a 17E0     		b	.L17
 652              	.LVL6:
 653              	.L9:
 654              	.LBE50:
 655              		.loc 1 166 0
 656 003c 2468     		ldr	r4, [r4]
 657              	.LVL7:
 658              		.loc 1 165 0
 659 003e ED1A     		subs	r5, r5, r3
 660              	.LVL8:
 661              		.loc 1 164 0
 662 0040 2389     		ldrh	r3, [r4, #8]
 663              		.loc 1 165 0
 664 0042 ADB2     		uxth	r5, r5
 665              	.L12:
 666              	.LVL9:
 667              		.loc 1 164 0
 668 0044 AB42     		cmp	r3, r5
 669 0046 F9D3     		bcc	.L9
 670              		.loc 1 171 0
 671 0048 6368     		ldr	r3, [r4, #4]
 672              		.loc 1 170 0
 673 004a 3460     		str	r4, [r6]
 674              		.loc 1 171 0
 675 004c 7360     		str	r3, [r6, #4]
 676              		.loc 1 172 0
 677 004e 1E60     		str	r6, [r3]
 678              		.loc 1 173 0
 679 0050 6660     		str	r6, [r4, #4]
 680              		.loc 1 174 0
 681 0052 3581     		strh	r5, [r6, #8]	@ movhi
 682              		.loc 1 178 0
 683 0054 2289     		ldrh	r2, [r4, #8]
 684              		.loc 1 179 0
 685 0056 4FF6FF73 		movw	r3, #65535
 686              		.loc 1 178 0
 687 005a 551B     		subs	r5, r2, r5
 688              	.LVL10:
 689 005c 2581     		strh	r5, [r4, #8]	@ movhi
 690              		.loc 1 179 0
 691 005e BB84     		strh	r3, [r7, #36]	@ movhi
 692 0060 F8BD     		pop	{r3, r4, r5, r6, r7, pc}
 693              	.LVL11:
 694              	.L15:
 695              	.LBB51:
 696              		.loc 1 146 0
ARM GAS  /tmp/cc6gOb22.s 			page 45


 697 0062 2468     		ldr	r4, [r4]
 698              	.LVL12:
 699              		.loc 1 145 0
 700 0064 ED1A     		subs	r5, r5, r3
 701              	.LVL13:
 702 0066 ADB2     		uxth	r5, r5
 703              	.LVL14:
 704 0068 2389     		ldrh	r3, [r4, #8]
 705 006a EBE7     		b	.L12
 706              	.L17:
 707              	.LVL15:
 708              		.loc 1 151 0
 709 006c A818     		adds	r0, r5, r2
 710              	.LVL16:
 711              	.LBB44:
 712              	.LBB45:
 713              		.file 3 "../../../os/common/ports/ARMCMx/chcore_timer.h"
 714              		.loc 3 95 0
 715 006e 80B2     		uxth	r0, r0
 716 0070 FFF7FEFF 		bl	stSetAlarm
 717              	.LVL17:
 718 0074 2389     		ldrh	r3, [r4, #8]
 719 0076 E5E7     		b	.L12
 720              	.LVL18:
 721              	.L14:
 722              	.LBE45:
 723              	.LBE44:
 724              		.loc 1 129 0
 725 0078 C818     		adds	r0, r1, r3
 726              	.LVL19:
 727              		.loc 1 121 0
 728 007a FB84     		strh	r3, [r7, #38]	@ movhi
 729              		.loc 1 122 0
 730 007c FE61     		str	r6, [r7, #28]
 731              		.loc 1 123 0
 732 007e 3E62     		str	r6, [r7, #32]
 733              	.LBB46:
 734              	.LBB47:
 735              		.loc 3 73 0
 736 0080 80B2     		uxth	r0, r0
 737              	.LBE47:
 738              	.LBE46:
 739              		.loc 1 124 0
 740 0082 3460     		str	r4, [r6]
 741              		.loc 1 125 0
 742 0084 7460     		str	r4, [r6, #4]
 743              		.loc 1 126 0
 744 0086 3181     		strh	r1, [r6, #8]	@ movhi
 745              	.LVL20:
 746              	.LBE51:
 747              		.loc 1 180 0
 748 0088 BDE8F840 		pop	{r3, r4, r5, r6, r7, lr}
 749              	.LVL21:
 750              	.LBB52:
 751              	.LBB49:
 752              	.LBB48:
 753              		.loc 3 73 0
ARM GAS  /tmp/cc6gOb22.s 			page 46


 754 008c FFF7FEBF 		b	stStartAlarm
 755              	.LVL22:
 756              	.LBE48:
 757              	.LBE49:
 758              	.LBE52:
 759              		.cfi_endproc
 760              	.LFE189:
 761              		.size	chVTDoSetI, .-chVTDoSetI
 762              		.section	.text.chVTDoResetI,"ax",%progbits
 763              		.align	2
 764              		.p2align 4,,15
 765              		.global	chVTDoResetI
 766              		.thumb
 767              		.thumb_func
 768              		.type	chVTDoResetI, %function
 769              	chVTDoResetI:
 770              	.LFB190:
 771              		.loc 1 190 0
 772              		.cfi_startproc
 773              		@ args = 0, pretend = 0, frame = 0
 774              		@ frame_needed = 0, uses_anonymous_args = 0
 775              		@ link register save eliminated.
 776              	.LVL23:
 777              		.loc 1 214 0
 778 0000 40F20003 		movw	r3, #:lower16:ch
 779 0004 C0F20003 		movt	r3, #:upper16:ch
 780 0008 DA69     		ldr	r2, [r3, #28]
 781              		.loc 1 190 0
 782 000a 70B4     		push	{r4, r5, r6}
 783              		.cfi_def_cfa_offset 12
 784              		.cfi_offset 4, -12
 785              		.cfi_offset 5, -8
 786              		.cfi_offset 6, -4
 787              		.loc 1 214 0
 788 000c 8242     		cmp	r2, r0
 789 000e 0FD0     		beq	.L19
 790              		.loc 1 216 0
 791 0010 0268     		ldr	r2, [r0]
 792 0012 4168     		ldr	r1, [r0, #4]
 793              		.loc 1 221 0
 794 0014 1C33     		adds	r3, r3, #28
 795              		.loc 1 216 0
 796 0016 0A60     		str	r2, [r1]
 797              		.loc 1 217 0
 798 0018 0268     		ldr	r2, [r0]
 799              		.loc 1 218 0
 800 001a 0024     		movs	r4, #0
 801              		.loc 1 221 0
 802 001c 9A42     		cmp	r2, r3
 803              		.loc 1 217 0
 804 001e 5160     		str	r1, [r2, #4]
 805              		.loc 1 218 0
 806 0020 C460     		str	r4, [r0, #12]
 807              		.loc 1 221 0
 808 0022 03D0     		beq	.L18
 809              		.loc 1 222 0
 810 0024 0189     		ldrh	r1, [r0, #8]
ARM GAS  /tmp/cc6gOb22.s 			page 47


 811 0026 1389     		ldrh	r3, [r2, #8]
 812 0028 0B44     		add	r3, r3, r1
 813 002a 1381     		strh	r3, [r2, #8]	@ movhi
 814              	.LVL24:
 815              	.L18:
 816              		.loc 1 268 0
 817 002c 70BC     		pop	{r4, r5, r6}
 818 002e 7047     		bx	lr
 819              	.LVL25:
 820              	.L19:
 821              	.LBB63:
 822              	.LBB64:
 823              		.loc 1 228 0
 824 0030 1168     		ldr	r1, [r2]
 825 0032 1846     		mov	r0, r3
 826              	.LVL26:
 827 0034 40F81C1F 		str	r1, [r0, #28]!
 828              		.loc 1 230 0
 829 0038 0024     		movs	r4, #0
 830              		.loc 1 233 0
 831 003a 8142     		cmp	r1, r0
 832              		.loc 1 229 0
 833 003c 4860     		str	r0, [r1, #4]
 834              		.loc 1 230 0
 835 003e D460     		str	r4, [r2, #12]
 836              		.loc 1 233 0
 837 0040 17D0     		beq	.L26
 838              	.LBB65:
 839              	.LBB66:
 840              	.LBB67:
 841              	.LBB68:
 842              		.loc 2 141 0
 843 0042 4FF08040 		mov	r0, #1073741824
 844 0046 466A     		ldr	r6, [r0, #36]
 845              	.LBE68:
 846              	.LBE67:
 847              	.LBE66:
 848              	.LBE65:
 849              		.loc 1 240 0
 850 0048 1589     		ldrh	r5, [r2, #8]
 851              		.loc 1 249 0
 852 004a D88C     		ldrh	r0, [r3, #38]
 853              		.loc 1 240 0
 854 004c 0C89     		ldrh	r4, [r1, #8]
 855              	.LBB72:
 856              	.LBB71:
 857              	.LBB70:
 858              	.LBB69:
 859              		.loc 2 141 0
 860 004e B2B2     		uxth	r2, r6
 861              	.LVL27:
 862              	.LBE69:
 863              	.LBE70:
 864              	.LBE71:
 865              	.LBE72:
 866              		.loc 1 240 0
 867 0050 2B19     		adds	r3, r5, r4
ARM GAS  /tmp/cc6gOb22.s 			page 48


 868              		.loc 1 249 0
 869 0052 101A     		subs	r0, r2, r0
 870              		.loc 1 240 0
 871 0054 9BB2     		uxth	r3, r3
 872              		.loc 1 249 0
 873 0056 80B2     		uxth	r0, r0
 874              	.LVL28:
 875              		.loc 1 253 0
 876 0058 8342     		cmp	r3, r0
 877              		.loc 1 240 0
 878 005a 0B81     		strh	r3, [r1, #8]	@ movhi
 879              		.loc 1 253 0
 880 005c E6D9     		bls	.L18
 881              	.LBE64:
 882              	.LBE63:
 883              		.loc 1 268 0
 884 005e 70BC     		pop	{r4, r5, r6}
 885              	.LBB79:
 886              	.LBB77:
 887              		.loc 1 258 0
 888 0060 1B1A     		subs	r3, r3, r0
 889 0062 9BB2     		uxth	r3, r3
 890              	.LVL29:
 891              		.loc 1 263 0
 892 0064 012B     		cmp	r3, #1
 893 0066 98BF     		it	ls
 894 0068 0223     		movls	r3, #2
 895              	.LVL30:
 896              		.loc 1 266 0
 897 006a 9818     		adds	r0, r3, r2
 898              	.LVL31:
 899              	.LBB73:
 900              	.LBB74:
 901              		.loc 3 95 0
 902 006c 80B2     		uxth	r0, r0
 903 006e FFF7FEBF 		b	stSetAlarm
 904              	.LVL32:
 905              	.L26:
 906              	.LBE74:
 907              	.LBE73:
 908              	.LBE77:
 909              	.LBE79:
 910              		.loc 1 268 0
 911 0072 70BC     		pop	{r4, r5, r6}
 912              	.LBB80:
 913              	.LBB78:
 914              	.LBB75:
 915              	.LBB76:
 916              		.loc 3 83 0
 917 0074 FFF7FEBF 		b	stStopAlarm
 918              	.LVL33:
 919              	.LBE76:
 920              	.LBE75:
 921              	.LBE78:
 922              	.LBE80:
 923              		.cfi_endproc
 924              	.LFE190:
ARM GAS  /tmp/cc6gOb22.s 			page 49


 925              		.size	chVTDoResetI, .-chVTDoResetI
 926 0078 AFF30080 		.text
 926      AFF30080 
 927              	.Letext0:
 928              		.file 4 "/usr/include/newlib/machine/_default_types.h"
 929              		.file 5 "/usr/include/newlib/stdint.h"
 930              		.file 6 "../../../os/common/ports/ARMCMx/compilers/GCC/chtypes.h"
 931              		.file 7 "../../../os/rt/include/chsystypes.h"
 932              		.file 8 "../../../os/rt/include/chschd.h"
 933              		.file 9 "../../../os/common/ports/ARMCMx/chcore.h"
 934              		.file 10 "../../../os/common/ports/ARMCMx/chcore_v7m.h"
 935              		.file 11 "../../../os/hal/ports/STM32/LLD/TIMv1/stm32_tim.h"
 936              		.file 12 "../../../os/rt/include/chsem.h"
 937              		.file 13 "../../../os/rt/include/chmtx.h"
 938              		.file 14 "../../../os/rt/include/chvt.h"
 939              		.file 15 "../../../os/hal/include/hal_st.h"
 940              		.file 16 "../../../os/common/ext/CMSIS/include/core_cm3.h"