ARM GAS  /tmp/cc6gOb22.s 			page 1


   1              		.syntax unified
   2              		.cpu cortex-m3
   3              		.fpu softvfp
   4              		.eabi_attribute 20, 1
   5              		.eabi_attribute 21, 1
   6              		.eabi_attribute 23, 3
   7              		.eabi_attribute 24, 1
   8              		.eabi_attribute 25, 1
   9              		.eabi_attribute 26, 1
  10              		.eabi_attribute 30, 2
  11              		.eabi_attribute 34, 1
  12              		.eabi_attribute 18, 4
  13              		.thumb
  14              		.file	"chvt.c"
  15              		.text
  16              	.Ltext0:
  17              		.section	.gnu.lto_.jmpfuncs.335c8a8ac0785a1c,"",%progbits
  18 0000 789C6362 		.ascii	"x\234cb`b\300\006d\2404\013\003#\020\002\0251\363\003"
  18      6062C006 
  18      64A0340B 
  18      03231002 
  18      1531F303 
  19 0014 29206261 		.ascii	") badd\006\212\227\001\231\000\011|\000\275"
  19      6464068A 
  19      97019900 
  19      097C00BD 
  20              		.text
  21              		.section	.gnu.lto_.inline.335c8a8ac0785a1c,"",%progbits
  22 0000 789C6362 		.ascii	"x\234cb`b\300\006\224\031\031\030\244\2014\013\003\203"
  22      6062C006 
  22      94191918 
  22      A481340B 
  22      0383
  23 0012 9414230B 		.ascii	"\224\024#\013Cz5\303\257\206\216\206\007\213\277Yf2"
  23      437A35C3 
  23      AF868E86 
  23      078BBF59 
  23      6632
  24 0024 326833AC 		.ascii	"2h3\254j\000\002\323LF\306\\F\206$F\2706f\006\206\214"
  24      6A0002D3 
  24      4C46C65C 
  24      46862446 
  24      B8366606 
  25 003a 44C6858C 		.ascii	"D\306\205\214\325 \026#\003\214t`g\355Pg`\357Pgb`|\301"
  25      D5201623 
  25      038C7460 
  25      67ED5067 
  25      60EF5067 
  26 0052 2EC0C400 		.ascii	".\300\304\000\344\0120H}[\302\310\301\300\270\233]\201"
  26      E40A3048 
  26      7D5BC2C8 
  26      C1C0B89B 
  26      5D81
  27 0064 83094281 		.ascii	"\203\011B\201\214`\344\002Y\312\304\315\000\224\232"
  27      8C60E402 
  27      59CAC4CD 
  27      00949A
ARM GAS  /tmp/cc6gOb22.s 			page 2


  28 0073 E0C7C4C0 		.ascii	"\340\307\304\300\316\306\310\300\304q\300\216\201m\201"
  28      CEC6C8C0 
  28      C471C08E 
  28      816D81
  29 0082 3C13C40E 		.ascii	"<\023\304\016\243K\014\214\314\214)\021\214\231\214"
  29      A34B0C8C 
  29      CC8C2911 
  29      8C998C
  30 0091 4C40E319 		.ascii	"L@\343\031S\341,\220K\230\275\316\377\340`\340[\352"
  30      53E12C90 
  30      4B98BDCE 
  30      FFE060E0 
  30      5BEA
  31 00a3 C6C4C0B2 		.ascii	"\306\304\300\262@^\000\244\005h\032\3300\010\305\302"
  31      405E00A4 
  31      05681AD8 
  31      3008C5C2 
  32 00b3 2022C0C8 		.ascii	" \"\300\310\014v\230\002\262#9\304&Lfd\3408\242\003"
  32      0C769802 
  32      B22339C4 
  32      264C6664 
  32      E038A203 
  33 00c7 74CD2536 		.ascii	"t\315%6\026\010\011\"8\300L\240{.\261\0120\201I$C\031"
  33      16080922 
  33      38C04CA0 
  33      7B2EB10A 
  33      30814924 
  34 00dd A4F4F4F4 		.ascii	"\244\364\364\364!(\277X\277\250D\277\270(Y?9\243\254"
  34      2128BF58 
  34      BFA844BF 
  34      B828593F 
  34      39A3AC
  35 00f0 442F9901 		.ascii	"D/\231\001\000\033\3201\002"
  35      001BD031 
  35      02
  36              		.text
  37              		.section	.gnu.lto_.pureconst.335c8a8ac0785a1c,"",%progbits
  38 0000 789C6362 		.ascii	"x\234cb`b\340d\200\000\026\006)&\011f)\026)\000\002"
  38      6062E064 
  38      80001606 
  38      29260966 
  38      29162900 
  39 0015 D80081   		.ascii	"\330\000\201"
  40              		.text
  41              		.section	.gnu.lto_chVTDoResetI.part.0.335c8a8ac0785a1c,"",%progbits
  42 0000 789C9555 		.ascii	"x\234\225U]lTU\020\236\271\377\367\356n\267\232h\320"
  42      5D6C5455 
  42      109EB9FF 
  42      F7EE6EB7 
  42      9A68D0
  43 0013 4462F04D 		.ascii	"Db\360Mbo\224\230\310\2231\372BB_d\233\350\213u\275"
  43      626F9498 
  43      C89331FA 
  43      42425F64 
  43      9BE88B75 
  44 0028 DD6C6FB2 		.ascii	"\335lo\262\333%\333\025M|\340,\273!\010&\224&FE+\202"
  44      DB25DB15 
ARM GAS  /tmp/cc6gOb22.s 			page 3


  44      4D7CE02C 
  44      BB210826 
  44      94264645 
  45 003e 15154C88 		.ascii	"\025\025L\210\232\250\004\002\305\037l!-\222\370\003"
  45      9AA80402 
  45      C51F6C21 
  45      2D92F803 
  46 004e 4D1FFA60 		.ascii	"M\037\372`\370\011A\233\324\027*\260\316\234\373\263"
  46      F809419B 
  46      D4172AB0 
  46      CE9CFBB3 
  47 005e 97D5063C 		.ascii	"\227\325\006<\331{f\31693\337|3\347g\025P\240\263\225"
  47      D97B66CE 
  47      3933DF7C 
  47      33E76715 
  47      50A0B395 
  48 0072 E9FBC800 		.ascii	"\351\373\310\000\370\222$:\200\366\310\014)6*R*\212"
  48      F892243A 
  48      80F6C80C 
  48      29362A52 
  48      2A8A
  49 0084 7A5805E1 		.ascii	"zX\005\341h\277\235\002\020i\025-\236\256[\232b\035"
  49      68BF9D02 
  49      1069152D 
  49      9EAE5B9A 
  49      621D
  50 0096 5D49F3FA 		.ascii	"]I\363\372\317.M\353\212\361\306=42\233kid\240\031\030"
  50      CF2E4DEB 
  50      8AF1C63D 
  50      34329B6B 
  50      6964A019 
  51 00ab 9991B585 		.ascii	"\231\221\265\205\310\012 l\266\025U\323\015\323\302"
  51      C80A206C 
  51      B61555D3 
  51      0DD3C2
  52 00ba CDCF2387 		.ascii	"\315\317#\207\327\312\010\253`\257\020\273\347\1778"
  52      D7CA08AB 
  52      60AF10BB 
  52      E77F38
  53 00c9 FEF98AED 		.ascii	"\376\371\212\355\037\324G\304\315V\013}^\365\020\236"
  53      1FD447C4 
  53      CD560B7D 
  53      5EF5109E 
  54 00d9 230DBBA5 		.ascii	"#\015\273\245P:\310K\267\321\211_f\336Z!\022n\012<\200"
  54      503AC84B 
  54      B7D1895F 
  54      66DE5A21 
  54      126E0A3C 
  55 00ee 77E4298E 		.ascii	"w\344)\216\274\370\211hN\264ZOJ\257\207n\347uH\021\363"
  55      BCF88968 
  55      4EB45A4F 
  55      4AAF876E 
  55      E7754811 
  56 0103 ADD63B1F 		.ascii	"\255\326;\037;\367\"\226\021\025\360QU\251\3234\356"
  56      3BF72296 
  56      1115F051 
  56      55A9D334 
ARM GAS  /tmp/cc6gOb22.s 			page 4


  56      EE
  57 0114 74EE0CEA 		.ascii	"t\356\014\352t\223:\260xhC\036\307q\0258$\367\221L\361"
  57      74933AB0 
  57      7868431E 
  57      C7711538 
  57      24F7914C 
  58 0129 643A1C64 		.ascii	"d:\034dx@\260:4\205\030y0\260\014\226d\346\324r\324"
  58      7840B03A 
  58      34851879 
  58      30B00C96 
  58      64E6D472 
  59 013e 73E17268 		.ascii	"s\341rh\263T\373((\313i\3302\373\366\3425%\217\373Q"
  59      B354FB28 
  59      28CB69D8 
  59      32FBF6E2 
  59      35258FFB 
  60 0153 87222AAB 		.ascii	"\207\"*\253\341a\"\363.\354\256\013\321\355\243QD\344"
  60      E16122F3 
  60      2EECAE0B 
  60      D1EDA351 
  60      44E4
  61 0165 0C54C9FB 		.ascii	"\014T\311\373%\2142 \277\251\237\234\300k5\034\020\324"
  61      258C3220 
  61      BFA99F9C 
  61      C06B351C 
  61      10D4
  62 0177 D69255A8 		.ascii	"\326\222U\250\246|4c\010\3535X\022\333X\263\313\310"
  62      A67C3463 
  62      08EB3558 
  62      12DB58B3 
  62      CBC8
  63 0189 85603C3B 		.ascii	"\205`<;\304\303P\006\005*\262$\350\245\306\327\357?"
  63      C4C35006 
  63      052AB224 
  63      E8A5C6D7 
  63      EF3F
  64 019b 710BF886 		.ascii	"q\013\370\206\016RJ\222T \2030\342\010-8\241\327Y\322"
  64      0E524A92 
  64      54208330 
  64      E2082D38 
  64      A1D759D2 
  65 01af 4D0A1AC5 		.ascii	"M\012\032\305\211\250\177sn\3612\336\202\237\3611\265"
  65      89A87F73 
  65      6EF132DE 
  65      829FF131 
  65      B5
  66 01c0 6CD29A94 		.ascii	"l\322\232\224<\223be\022\276\277x\342\213l\\\2620p\266"
  66      3C936265 
  66      12BEBF78 
  66      E28B6C5C 
  66      B23070B6 
  67 01d4 1DF7F1FF 		.ascii	"\035\367\361\377\010\033\265>\202=\254\252g\240\261"
  67      081BB53E 
  67      823DACAA 
  67      67A0B1
  68 01e3 30F7EBD6 		.ascii	"0\367\353\326l\270g\321\346M\354\270\372\241\011\020"
  68      6CB867D1 
ARM GAS  /tmp/cc6gOb22.s 			page 5


  68      E64DECB8 
  68      FAA10910 
  69 01f3 607B917F 		.ascii	"`{\221\177\\\301\264\207\264U_\321\0325\0373\021\244"
  69      5CC1B487 
  69      B4555FD1 
  69      1A351F33 
  69      11A4
  70 0205 0674AB82 		.ascii	"\006t\253\202\315\\\232R#f\341v\220\037,[;\275]\225"
  70      CD5C9A52 
  70      2366E176 
  70      901F2C5B 
  70      3BBD5D95 
  71 0219 D9853827 		.ascii	"\331\2058'M\036\003X\266\"m\257\306\266\306\005\214"
  71      4D1E0358 
  71      B6226DAF 
  71      C6B6C605 
  71      8C
  72 022a DC748A59 		.ascii	"\334t\212Y\344r\021\332\272d}\357\200B\221\3454|;\373"
  72      E47211DA 
  72      BA647DEF 
  72      804291E5 
  72      347C3BFB 
  73 023e DE9F973E 		.ascii	"\336\237\227>\035\305\316\272,\316\216\031\361`\357"
  73      1DC5CEBA 
  73      2CCE8E19 
  73      F160EF
  74 024d 9B639978 		.ascii	"\233c\231xp\372z\303nWL\245O\243O\0170\015\216\337\254"
  74      70FA7AC3 
  74      6E574CA5 
  74      4FA34F0F 
  74      300D8EDF 
  75 0262 CF5F3B39 		.ascii	"\317_;93\212\232\217]\314b\204Yd\231B7\357\226&\267"
  75      338A9A8F 
  75      5DCC6284 
  75      59649942 
  75      37EF9626 
  76 0277 B63B6463 		.ascii	"\266;dc0\326\361\300\237\322\370\243\321\225\307c2;"
  76      30D6F1C0 
  76      9FD2F8A3 
  76      D195C763 
  76      323B
  77 0289 B3C88B5C 		.ascii	"\263\310\213\\\250\271\337\367\274\020\345l\005\245"
  77      A8B9DFF7 
  77      BC10E56C 
  77      05A5
  78 0297 0A777E0F 		.ascii	"\012w~\017\376\357\243o\266k\371z\243\032\301\3322\236"
  78      FEEFA36F 
  78      B66BF97A 
  78      A31AC1DA 
  78      329E
  79 02a9 053005E1 		.ascii	"\0050\005\341\345\014\256u\221\375'\241y\341\304\337"
  79      E50CAE75 
  79      91FD27A1 
  79      79E1C4DF 
  80 02b9 3BD544DD 		.ascii	";\325D\335\355\344\011\323\341\307GT\211wp\374\276\310"
  80      EDE409D3 
  80      E1C74754 
ARM GAS  /tmp/cc6gOb22.s 			page 6


  80      897770FC 
  80      BEC8
  81 02cb C889EC12 		.ascii	"\310\211\354\022\210\373$\242\023\"\216\215\306\210"
  81      88FB24A2 
  81      13228E8D 
  81      C688
  82 02d9 0E3385E4 		.ascii	"\0163\205\344\361\355\243\344\367\247\325)\3302\277"
  82      F1EDA3E4 
  82      F7A7D529 
  82      D832BF
  83 02e8 F3B29104 		.ascii	"\363\262\221\004`SM\211\315L\016Nf\026\304\001\322\341"
  83      60534D89 
  83      CD4C0E4E 
  83      6616C401 
  83      D2E1
  84 02fa 49B932EE 		.ascii	"I\2712\356F\001R\224\234d\303\013q\330\214\\H'8\206"
  84      46015294 
  84      9C64C30B 
  84      71D88C5C 
  84      48273886 
  85 030e 4FF38D1D 		.ascii	"O\363\215\035\337\241\330.\352\013\255VV\276\261\207"
  85      DFA1D82E 
  85      EA0BAD56 
  85      56BEB187 
  86 031e F0768F6C 		.ascii	"\360v\217l\221\257\307\031h.\314\335<\331\365\257k6"
  86      91AFC719 
  86      682ECCDD 
  86      3CD9F5AF 
  86      6B36
  87 0330 FD979EC7 		.ascii	"\375\227\236\307I\371BFG\307\350\270lwyh\346\361tt\224"
  87      49F94246 
  87      47C7E8B8 
  87      6C777968 
  87      E6F17474 
  88 0345 E889B89B 		.ascii	"\350\211\270\233\265\363\220\246\372\350\237\355*\204"
  88      B5F390A6 
  88      FAE89FED 
  88      2A84
  89 0353 891BD777 		.ascii	"\211\033\327w\2259qK\276\250g\351_\252M\"G4i\226\251"
  89      9539714B 
  89      BEA867E9 
  89      5FAA4D22 
  89      47346996 
  90 0368 DDDFD3E3 		.ascii	"\335\337\323\343\006\277\312\260[\255\271\303U\317\365"
  90      06BFCAB0 
  90      5BADB9C3 
  90      55CFF5
  91 0377 0637D57A 		.ascii	"\0067\325z<\320\007\012\245Z\336\032\252\274\"\0257"
  91      3CD0070A 
  91      A55ADE1A 
  91      AABC2215 
  91      37
  92 0388 69E955CA 		.ascii	"i\351U\312\345\312\220\273\261R\255\015\273O=\333\373"
  92      E5CA90BB 
  92      B152AD0D 
  92      BB4F3DDB 
  92      FB
ARM GAS  /tmp/cc6gOb22.s 			page 7


  93 0399 74EFABE4 		.ascii	"t\357\253\344\346U\252\205\376\232_.T{\006aM\322~0_"
  93      E655AA85 
  93      FE9A5F2E 
  93      547B0661 
  93      4DD27E30 
  94 03ae 0A8D37E4 		.ascii	"\012\2157\344z\327<\346\256_\377\214\233[\327\273\351"
  94      7AD73CE6 
  94      AE5FFF8C 
  94      9B5BD7BB 
  94      E9
  95 03bf 515EE91F 		.ascii	"Q^\351\037\256\365\227J\003\344\263\262\203\215?\344"
  95      AEF5974A 
  95      03E4B3B2 
  95      838D3FE4 
  96 03cf 955E1E28 		.ascii	"\225^\036(\004\214\006Ac\354\177\000f\340\306\240"
  96      048C0641 
  96      63EC7F00 
  96      66E0C6A0 
  97              		.text
  98              		.section	.gnu.lto__vt_init.335c8a8ac0785a1c,"",%progbits
  99 0000 789C6362 		.ascii	"x\234cb`b@\007\222 \014\024\226\001\322\214\314\014"
  99      60624007 
  99      92200C14 
  99      9601D28C 
  99      CC0C
 100 0012 8C4C13CE 		.ascii	"\214L\023\316104r012\202\030\014\214\014\365L\214\365"
 100      31303472 
 100      30313282 
 100      180C8C0C 
 100      F54C8CF5 
 101 0026 918C60B5 		.ascii	"\221\214`\265\353\231\016<\370\377\177\335\257\255\017"
 101      EB990E3C 
 101      F8FF7FDD 
 101      AFAD0F
 102 0035 FB1905D9 		.ascii	"\373\031\005\331\200\002\254\014-\015\015\023\024\030"
 102      8002AC0C 
 102      2D0D0D13 
 102      1418
 103 0043 1892C10A 		.ascii	"\030\222\301\012B\200$HW(#\023\210f>\313\320\364\253"
 103      42802448 
 103      57282313 
 103      88663ECB 
 103      D0F4AB
 104 0056 F9FF65A6 		.ascii	"\371\377e\246D\306\205\214\254\014\332\014\253\032\200"
 104      44C6858C 
 104      AC0CDA0C 
 104      AB1A80
 105 0065 C0329311 		.ascii	"\3002\223\021\306\344\316dd\234\3150\253\261\241A \223"
 105      C6E4CE64 
 105      649CCD30 
 105      ABB1A141 
 105      2093
 106 0077 91A99AE1 		.ascii	"\221\251\232\341WC\007\210\305\234\0136-\202\021\310"
 106      57430788 
 106      C59C0B36 
 106      2D8211C8 
 107 0087 04DB9B04 		.ascii	"\004\333\233\004\261\036HC\030\020\225\015\363\201\012"
ARM GAS  /tmp/cc6gOb22.s 			page 8


 107      B11E4843 
 107      1810950D 
 107      F3810A
 108 0096 58A0466D 		.ascii	"X\240Fm\005\262\031\201\372`J\301\000l\377\342\036-"
 108      05B21981 
 108      FA604AC1 
 108      006CFFE2 
 108      1E2D
 109 00a8 EAD9CF44 		.ascii	"\352\331\317D\252\375;v<\272\201\341\177V\262\355\207"
 109      AAFD3B76 
 109      3CBA81E1 
 109      7F56B2ED 
 109      87
 110 00b9 F041326C 		.ascii	"\360A2l\377\3773\303\254x\374\201\212V\260 \254\000"
 110      FFFF33C3 
 110      AC78FC81 
 110      8A56B020 
 110      AC00
 111 00cb 312E3234 		.ascii	"1.24>\350W\206\030\017\003!\300x\000\306/(0\244\364"
 111      3EE85786 
 111      180F0321 
 111      C07800C6 
 111      2F2830A4 
 112 00e0 F4F42128 		.ascii	"\364\364!(\277X\277\250D\277\270(Y?9\243\254D/\231\001"
 112      BF58BFA8 
 112      44BFB828 
 112      593F39A3 
 112      AC442F99 
 113 00f5 00BBF58A 		.ascii	"\000\273\365\212f"
 113      66
 114              		.text
 115              		.section	.gnu.lto_chVTDoSetI.335c8a8ac0785a1c,"",%progbits
 116 0000 789CAD56 		.ascii	"x\234\255V}h\225U\030?\3179\367\356\275\337[\202\371"
 116      7D689555 
 116      183FCF39 
 116      F7EEBDDF 
 116      5B82F9
 117 0013 B52F876C 		.ascii	"\265/\207ll\312\256k\216\222\350\217\250\177\004\367"
 117      6CCAAE6B 
 117      8E92E88F 
 117      A87F04F7 
 118 0023 4735A1E8 		.ascii	"G5\241\350\017\271\335\215\273\013\273\233l\313\202"
 118      0FB9DD8D 
 118      BB0BBB9B 
 118      6CCB82
 119 0032 02DFEB2E 		.ascii	"\002\337\353.\245i)2\303RA\031VL\231\222\34063\232&"
 119      A5692932 
 119      C3524119 
 119      564C9992 
 119      E036339A 
 120 0047 E892746A 		.ascii	"\350\222tj\342\256E\\\203i\202\310\314\312e\262\333"
 120      E2AE455C 
 120      836982C8 
 120      CCCA65B2 
 120      DB
 121 0058 73BEDEFB 		.ascii	"s\276\336\373\251S\351\345\336\347\274\357s\236\347"
 121      A953E9E5 
ARM GAS  /tmp/cc6gOb22.s 			page 9


 121      DEE7BCEF 
 121      739EE7
 122 0067 779EAFF3 		.ascii	"w\236\257\363\234C\011%\331\317~\374\207\274\204\034"
 122      9C430925 
 122      D9CF7EFC 
 122      87BC841C 
 123 0077 C2110A09 		.ascii	"\302\021\012\011\320\255g\011\211:(e\233g\023\323e\213"
 123      D0AD6709 
 123      893A2865 
 123      9B6713D3 
 123      658B
 124 0089 2D27A687 		.ascii	"-'\246\207\201M\262m\324>\314\220]p\371\007\202|;\370"
 124      814DB26D 
 124      D43ECC90 
 124      5D70F907 
 124      827C3BF8 
 125 009d 24BF801A 		.ascii	"$\277\200\032\033\252\220\357\340\324c\200K\262\035"
 125      1BAA90EF 
 125      E0D46380 
 125      4BB21D
 126 00ac D4F9D3D3 		.ascii	"\324\371\323\323\310v\035{\026\331N\315v\201\207\277"
 126      C8761D7B 
 126      16D94ECD 
 126      768187BF 
 127 00bc 805B8EC7 		.ascii	"\200[\216\307\035\036\352\336|\012\001]\336\230\201"
 127      1D1EEADE 
 127      7C0A015D 
 127      DE9881
 128 00cb 825E0DEB 		.ascii	"\202^\015\353\003\340/\004\310:\312l\366\002\303\341"
 128      03E02F04 
 128      C83ACA6C 
 128      F602C3E1 
 129 00db 74B93D5E 		.ascii	"t\271=^\037\254{\003\270\361\264\202\3545\315m\211}"
 129      1FAC7B03 
 129      B8F1B482 
 129      EC35CD6D 
 129      897D
 130 00ed 7F24E867 		.ascii	"\177$\350g\346Hl\217y?\231\004\010\003:Z\002$\010\344"
 130      E6486C8F 
 130      793F9904 
 130      08033A5A 
 130      022408E4 
 131 0101 75FC8072 		.ascii	"u\374\200r1P[\246\347Rwd\373\251O\346\232{\242[\315"
 131      31505BA6 
 131      E7527764 
 131      FBA94FE6 
 131      9A7BA25B 
 132 0116 69540D03 		.ascii	"iT\015\003\243\244,\245Y$5\263\302v\220\216$\222\311"
 132      A3A42CA5 
 132      592435B3 
 132      C276908E 
 132      2492C9
 133 0129 CDC37FFE 		.ascii	"\315\303\177\376v\023f=\007$\302\327\013\300^\250 \014"
 133      7613663D 
 133      0724C2D7 
 133      0BC05EA8 
 133      200C
ARM GAS  /tmp/cc6gOb22.s 			page 10


 134 013b C73E1C0D 		.ascii	"\307>\034\015\210\0008\220P\027\022\346EB|\004\015\233"
 134      88003890 
 134      501712E6 
 134      45427C04 
 134      0D9B
 135 014d 8DC43687 		.ascii	"\215\3046\207\223\271\234\314S\362\363\361\303\276\200"
 135      93B99CCC 
 135      53F2F3F1 
 135      C3BE80
 136 015c 93624E4A 		.ascii	"\223bNJ8)\345\002eJ\240\\-\260\2203+8Y\304I\245\232"
 136      3829E502 
 136      654AA05C 
 136      2DB09033 
 136      2B3859C4 
 137 0173 AE52D3D5 		.ascii	"\256R\323\325j\254\341k-Q\223K\271d\035'\313\220\024"
 137      6AACE16B 
 137      2D51934B 
 137      B9641D27 
 137      CB9014
 138 0186 342061E8 		.ascii	"4 a\350\206\235\304Lsk\271T\220\222\021\300 \005El\233"
 138      869DC44C 
 138      736BB954 
 138      909211C0 
 138      2005456C 
 139 019b 900E1864 		.ascii	"\220\016\030d\025P\034\330\217d\375\231\251;\011\010"
 139      15501CD8 
 139      8F64FD99 
 139      A93B0908 
 140 01ab C03EB093 		.ascii	"\300>\260\223\305\244\337\304\307\033\006c'\371\034"
 140      C5A4DFC4 
 140      C71B0663 
 140      27F91C
 141 01ba 23E40881 		.ascii	"#\344\010\201\301#%\343\363\226\032C\340 \204k\356\370"
 141      C12325E3 
 141      F3961A43 
 141      E020846B 
 141      EEF8
 142 01cc FBF71C4D 		.ascii	"\373\367\034Mg~MP\232.\256y\342\312\261\213g\2679\225"
 142      677E4D50 
 142      9A2EAE79 
 142      E2CAB18B 
 142      67B73995 
 143 01e0 A1DAE291 		.ascii	"\241\332\342\221\353\037\377\314\230\3655\321\273\333"
 143      EB1FFFCC 
 143      98F535D1 
 143      BBDB
 144 01ee 6B7D6CBA 		.ascii	"k}l\272u\333\232)\227\0316\017\231\246]T\006\023\351"
 144      75DB9A29 
 144      9719360F 
 144      99A65D54 
 144      0613E9
 145 0201 FD0A66CA 		.ascii	"\375\012f\312/!\322X\302c\301\205)\376\231\264k\031"
 145      2F21D258 
 145      C263C185 
 145      29FE99B4 
 145      6B19
 146 0213 F720164D 		.ascii	"\367 \026M\354\374\253wE\030\\\350\004\226NQ\030\334"
ARM GAS  /tmp/cc6gOb22.s 			page 11


 146      ECFCAB77 
 146      45185CE8 
 146      04964E51 
 146      18DC
 147 0225 1CC8C37D 		.ascii	"\034\310\303}\263\011L\217\362\207r\260\375\022\014"
 147      B3094C8F 
 147      F28772B0 
 147      FD120C
 148 0234 4371ABC7 		.ascii	"Cq\253\307\027\200~\374\014A\003\202\0212J\326O\236"
 148      17807EFC 
 148      0C410382 
 148      11324AD6 
 148      4F9E
 149 0246 F8E6FD00 		.ascii	"\370\346\375\000\014 3\000\0071\011\3749Mb\327\216\237"
 149      0C203300 
 149      073109FC 
 149      394D62D7 
 149      8E9F
 150 0258 FFD023F9 		.ascii	"\377\320#\371!\360rL\006i&\256B\213\246\201\241~\342"
 150      21F0724C 
 150      066926AE 
 150      428BA681 
 150      A17EE2
 151 026b 469F21E5 		.ascii	"F\237!\345\"\322-\033\265dl<y(\203\211\300\311\020\017"
 151      22D22D1B 
 151      B5646C3C 
 151      79288389 
 151      C0C9100F 
 152 027f 2F5A7165 		.ascii	"/Zqe\350\337\323\206\206\366-&5\030\177\225\231K\250"
 152      E8DFD386 
 152      86F62D26 
 152      35187F95 
 152      994BA8
 153 0292 EFE55E99 		.ascii	"\357\345^\231\334+\337{\344\236\271\201\277\025F\204"
 153      DC2BDF7B 
 153      E49EB981 
 153      BF154684 
 154 02a2 0F1CBE50 		.ascii	"\017\034\276P\271\306\324\250\367\325ir\362z\264\316"
 154      B9C6D4A8 
 154      F7D56972 
 154      F27AB4CE 
 155 02b2 8295AA66 		.ascii	"\202\225\252f}\030\212\024\366r\204F\030\255\231\366"
 155      7D188A14 
 155      F6728446 
 155      18AD99F6 
 156 02c2 C409A08F 		.ascii	"\304\011\240\217\024\224\365l\327\267\335\334z;\251"
 156      1494F56C 
 156      D7B7DDDC 
 156      7A3BA9
 157 02d1 E195373A 		.ascii	"\341\2257:4=\306$\256Bz\005\203\241^\353\037\333^\273"
 157      343DC624 
 157      AE427A05 
 157      83A15EEB 
 157      1FDB5EBB 
 158 02e5 2AB10659 		.ascii	"*\261\006Y\234\343\323\2234\033\234<1\270M\201\033\022"
 158      9CE3D393 
 158      341B9C3C 
ARM GAS  /tmp/cc6gOb22.s 			page 12


 158      31B84D81 
 158      1B12
 159 02f7 7CEA7F05 		.ascii	"|\352\177\005/\310\000\277\327sgKu\006x\003\202\347"
 159      2FC800BF 
 159      D773674B 
 159      75067803 
 159      82E7
 160 0309 DF568618 		.ascii	"\337V\206\030UJvC*'\207!OR\004\370\335G\006w<.\370\231"
 160      554A7643 
 160      2A278721 
 160      4F5204F8 
 160      DD470677 
 161 0321 F1E418CD 		.ascii	"\361\344\030\315\006g\371\301\235\312gQ\271=\033z\276"
 161      0667F9C1 
 161      9DCA6751 
 161      B93D1B7A 
 161      BE
 162 0332 EC7D4197 		.ascii	"\354}A\227\330l\344\2124\216\022\205\246zz\362\203\357"
 162      D86CE48A 
 162      348E1285 
 162      A67A7AF2 
 162      83EF
 163 0344 C1FCC88C 		.ascii	"\301\374\310\214N&\223\205b\317\037\230q\317#\032!\347"
 163      4E269385 
 163      62CF1F98 
 163      71CF231A 
 163      21E7
 164 0356 486C72B8 		.ascii	"Hlr\270\357\332\024dw\2343'/\340~9'6\247\\)\250\313"
 164      EFDA1464 
 164      779C3327 
 164      2FE07E39 
 164      2736A75C 
 165 036d DECADB53 		.ascii	"\336\312\333SA\260\007\340\202,/\204\013\303,\275\013"
 165      41B007E0 
 165      822C2F84 
 165      0BC32CBD 
 165      0B
 166 037e 0B484CEC 		.ascii	"\013HL\354\302\304\226\011\320;\2357]\334%r?N}q\225"
 166      C2C49609 
 166      D03B9D37 
 166      5DDC2572 
 166      3F4E7D71 
 167 0393 69AFE688 		.ascii	"i\257\346\210\375\250\313\373\315',o\021\255\215=\355"
 167      FDA8CBFB 
 167      CD272C6F 
 167      11AD8D3D 
 167      ED
 168 03a4 1A75AE68 		.ascii	"\032u\256h8sd\020\255\265\346\211\011H\213\240<\007"
 168      38736410 
 168      ADB5E689 
 168      09488BA0 
 168      3C07
 169 03b6 7046B5AB 		.ascii	"pF\265\253\273\275eZx~\212{\0044s\201\336G\267,\320"
 169      BBBD655A 
 169      787E8A7B 
 169      04347381 
 169      DE47B72C 
ARM GAS  /tmp/cc6gOb22.s 			page 13


 170 03cb 62BDCE46 		.ascii	"b\275\316F\213U\"\004\213E\217\230H\365\010D,I\245`"
 170      8B552204 
 170      8B458F98 
 170      48F50844 
 170      2C49A560 
 171 03df 1556E909 		.ascii	"\025V\351\011\306D\177\352\037\245Z\250T\306\303\252"
 171      C6447FEA 
 171      1FA55AA8 
 171      54C6C3AA 
 172 03ef 0E5F6E75 		.ascii	"\016_nu(g\327j\2252\341Yi\036\267\312d\274\307\373G"
 172      2867D76A 
 172      9532E159 
 172      691EB7CA 
 172      64BCC7FB 
 173 0404 2D0FCA53 		.ascii	"-\017\312S\335\211\344_\304P\213`\006G\346e\346\257"
 173      DD89E45F 
 173      C4508B60 
 173      0647E665 
 173      E6AF
 174 0416 5C9BEED0 		.ascii	"\\\233\356\320\246\357\330\377\217e\372\302G1\035Cr"
 174      A6EFD8FF 
 174      8F65FAC2 
 174      47311D43 
 174      72
 175 0427 2DFABCA5 		.ascii	"-\372\274\245\"\202\234\012\211\223\364\000\023\205"
 175      22829C0A 
 175      8993F400 
 175      1385
 176 0435 FFDD764B 		.ascii	"\377\335vK\250\002#,\344f(\374\000\214\211\263\353\341"
 176      A802232C 
 176      E46628FC 
 176      008C89B3 
 176      EBE1
 177 0447 855F210A 		.ascii	"\205_!\012\177l\270\317\310)\373\313_c\331\377\232Q"
 177      7F6CB8CF 
 177      C829FBCB 
 177      5F63D9FF 
 177      9A51
 178 0459 F605B965 		.ascii	"\366\005\271e\2172\011]\366\025ie\357\342e\317\233{"
 178      8F32095D 
 178      F6156965 
 178      EFE265CF 
 178      9B7B
 179 046b 35BAEEB8 		.ascii	"5\272\356\270\177\036\013\303\347\344A3\016\\j\216\223"
 179      7F1E0BC3 
 179      E7E44133 
 179      0E5C6A8E 
 179      93
 180 047c 25E882E3 		.ascii	"%\350\202\343\330\3056\0348\267\314\330uIt}7\301\313"
 180      D8C5361C 
 180      38B7CCD8 
 180      7549747D 
 180      37C1CB
 181 048f 2013191D 		.ascii	" \023\031\035\374t\201<\212CP\031\002\026\202E\312\347"
 181      FC74813C 
 181      8A435019 
 181      02168245 
ARM GAS  /tmp/cc6gOb22.s 			page 14


 181      CAE7
 182 04a1 7D6939AD 		.ascii	"}i9\255T9=\274\\\313V\345kY\364A)54\234Li\2256\337C"
 182      54393DBC 
 182      5CCB56E5 
 182      6B59F441 
 182      2935349C 
 183 04bb F0F209F2 		.ascii	"\360\362\011\362\360\324k1\241\"\030R\232\312\305w\034"
 183      F0D46B31 
 183      A1221852 
 183      9ACAC577 
 183      1C
 184 04cc 8E835E7D 		.ascii	"\216\203^}QV\326\351\003\262>\021\255\267TB\251\016"
 184      5156D6E9 
 184      03B23E11 
 184      ADB75442 
 184      A90E
 185 04de 19273404 		.ascii	"\031'4\004\325.\354lU\356\233\361\3428A\267\227\360"
 185      D52EEC6C 
 185      55EE9BF1 
 185      E23841B7 
 185      97F0
 186 04f0 CF4AF72F 		.ascii	"\317J\367/\3616n\230\227\307\225\237\213\343Gn\344\334"
 186      F1366E98 
 186      97C7959F 
 186      8BE3476E 
 186      E4DC
 187 0502 AB1E7A00 		.ascii	"\253\036z\000X\366N\0359\316\364\3425\362\002\220\337"
 187      58F64E1D 
 187      39CEF4E2 
 187      35F20290 
 187      DF
 188 0513 5E87B5C1 		.ascii	"^\207\265\301\326\217\0362\036q1\207Z\254F]\377\006"
 188      D68F1E32 
 188      1E713187 
 188      5AAC465D 
 188      FF06
 189 0525 E3344333 		.ascii	"\3434C3c\253\325\3443S\035\237C\203\361L\007\2353\030"
 189      63ABD5E4 
 189      33531D9F 
 189      4383F14C 
 189      079D3318 
 190 0539 AA3547C7 		.ascii	"\2525G\307\007o\347\204f\206\023\206\251::z\325J\345"
 190      076FE784 
 190      66861386 
 190      A93A3A7A 
 190      D54AE5
 191 054c 52A95C34 		.ascii	"R\251\\4c:U\267\223Zu\250\250\341V\244\0331\023\016"
 191      633A55B7 
 191      935A75A8 
 191      A8E156A4 
 191      1B31130E 
 192 0560 AA0AA5A1 		.ascii	"\252\012\245\241\251\243\271\021\323'\202\373\261O\004"
 192      A9A3B911 
 192      D32782FB 
 192      B14F04
 193 056f 9718C5DD 		.ascii	"\227\030\305\335\012/\301Vk\361\361\273\341y\022Ml\322"
 193      0A2FC156 
ARM GAS  /tmp/cc6gOb22.s 			page 15


 193      6BF1F1BB 
 193      E179124D 
 193      6CD2
 194 0581 A7927E9A 		.ascii	"\247\222~\232\360H\0300x\243\230_[\353\227\277\216."
 194      F0481830 
 194      78A3985F 
 194      5BEB97BF 
 194      8E2E
 195 0593 7F67B7BF 		.ascii	"\177g\267\277\2533\350\017\266\256\355\256\015\022X"
 195      AB33E80F 
 195      B6AEEDAE 
 195      0D1258
 196 05a2 636F6E69 		.ascii	"coni\353\016\324\247\213\264\006\332\374k::\273\273"
 196      EB0ED4A7 
 196      8BB406DA 
 196      FC6B3A3A 
 196      BBBB
 197 05b4 FCAF3535 		.ascii	"\374\25755\326?\343_\271\362e\177\323\212\306\265u|"
 197      D63FE35F 
 197      B9F2657F 
 197      D38AC6B5 
 197      757C
 198 05c6 667557F7 		.ascii	"fuW\367\352\266\266\346\332V\342O\327\011vD\"\035\355"
 198      EAB6B6E6 
 198      DA56E24F 
 198      D7097644 
 198      221DED
 199 05d9 4AEDC557 		.ascii	"J\355\305W\033_j|\027\327\010vt\266\254\356\016GZ:Q"
 199      1B5F6A7C 
 199      17D70876 
 199      74B6ACEE 
 199      0E475A3A 
 200 05ee BE34CB8C 		.ascii	"\2764\313\214p{\260\355\355\346\026iJ+a\355\035\357"
 200      707BB0ED 
 200      EDE61669 
 200      4A2B61ED 
 200      1DEF
 201 0600 D8B8EC7F 		.ascii	"\330\270\354\177\035\252FF"
 201      1DAA4646 
 202              		.text
 203              		.section	.gnu.lto_chVTDoResetI.335c8a8ac0785a1c,"",%progbits
 204 0000 789CAD93 		.ascii	"x\234\255\2231h\024A\024\206\337{\263\263{\271=5`#\202"
 204      31681441 
 204      1486DF7B 
 204      B3B37BB9 
 204      3D356023 
 205 0015 2016161E 		.ascii	" \026\026\036\334!6Z\210\265`\231\003\355\214\253\304"
 205      DC21365A 
 205      88B56099 
 205      03ED8CAB 
 205      C4
 206 0026 05CF4072 		.ascii	"\005\317@rha\2219sE*9\254D\033\323\211\210ZX\304\356"
 206      68619139 
 206      73452A39 
 206      AC441BD3 
 206      89885A58 
 207 003c CECAA046 		.ascii	"\316\312\240F-\204 \001\305V\215\265A\\\337\233\331"
ARM GAS  /tmp/cc6gOb22.s 			page 16


 207      2D842001 
 207      C5568DB5 
 207      415CDF9B 
 207      D9
 208 004d B9BD2487 		.ascii	"\271\275$\207i2\334\2757\263;\337\377\336\2747K@\260"
 208      6932DCBD 
 208      37B33BDF 
 208      FFDEBC37 
 208      4B40B0
 209 0060 759CE3FF 		.ascii	"u\234\343\377O\005Pe\217\021 uW\000\332%\"\365\342\025"
 209      4F055065 
 209      8F112075 
 209      5700DA25 
 209      22F5E215 
 210 0074 8029EBB5 		.ascii	"\200)\353\265\030LEQ\340\226\241]\006\030\272m\332M"
 210      184C4551 
 210      E096A15D 
 210      0618BA6D 
 210      DA4D
 211 0086 3044140F 		.ascii	"0D\024\017\010s\244\002\035\342\334\005\264\362\317"
 211      0873A402 
 211      1DE2DC05 
 211      B4F2CF
 212 0095 A8F735CB 		.ascii	"\250\3675\313\236\376y\363\344-.\323~\202\024Aa\023"
 212      9EFE79F3 
 212      E42D2ED3 
 212      7E821441 
 212      6113
 213 00a7 21909916 		.ascii	"!\220\231\026\023\211)\263\301XLE\014\223\032:\306t"
 213      138929B3 
 213      C1584C45 
 213      0C931A3A 
 213      C674
 214 00b9 0F37118F 		.ascii	"\0177\021\217\300\2421w{\237V\356\0340\017\333]\363"
 214      C0A23177 
 214      7B9F56EE 
 214      1C300FDB 
 214      5DF3
 215 00cb 37CB3045 		.ascii	"7\3130E\"8\204\220 \234\347\205\032\267.\330r>G\232"
 215      22388490 
 215      209CE785 
 215      1AB72ED8 
 215      723E479A 
 216 00df 2F171F99 		.ascii	"/\027\037\231N/\313\316X\352\350N\024\310{\036\023l"
 216      4E2FCBCE 
 216      58EAE84E 
 216      14C87B1E 
 216      136C
 217 00f1 E5540D24 		.ascii	"\345T\015$\361\352\035\334\376\274\372\275O\223\270"
 217      F1EA1DDC 
 217      FEBCFABD 
 217      4F93B8
 218 0100 881AA690 		.ascii	"\210\032\246\220\252p\214S\257\302c\303\343D\212\372"
 218      AA708C53 
 218      AFC263C3 
 218      E3448AFA 
 219 0110 01DC6F1B 		.ascii	"\001\334o\0333\236bx\0136\314\202\314\242&\212\274\304"
ARM GAS  /tmp/cc6gOb22.s 			page 17


 219      339E6278 
 219      0B36CC82 
 219      CCA2268A 
 219      BCC4
 220 0122 89ACF625 		.ascii	"\211\254\366%W\030\366\371\004^C\347G{\317@u\012U\221"
 220      5718F6F9 
 220      045E43E7 
 220      477BCF40 
 220      750A5591 
 221 0136 4983175C 		.ascii	"I\203\027\\y\033\373\336z\037\375\256\300\305\346\200"
 221      791BFBDE 
 221      7A1FFDAE 
 221      C0C5E680 
 222 0146 2C5C6244 		.ascii	",\\bD\002xa\177\036\201>\354\365\210\376\037\242\012"
 222      0278617F 
 222      1E813EEC 
 222      F588FE1F 
 222      A20A
 223 0158 64F979EC 		.ascii	"d\371y\354\220\374`\247\207\241`;\304\312.\324\322P"
 223      90FC60A7 
 223      87A1603B 
 223      C4CA2ED4 
 223      D250
 224 016a 7ED16E04 		.ascii	"~\321n\004\213\266\037\2123\260\334\322\352\372o\334"
 224      8BB61F8A 
 224      33B0DCD2 
 224      EAFA6FDC 
 225 017a 441E4F71 		.ascii	"D\036Oqlt\270\300zy2\346\313\335\337\030\224%r\255\222"
 225      6C74B8C0 
 225      7A7932E6 
 225      CBDDDF18 
 225      942572AD 
 226 018f FE9573A9 		.ascii	"\376\225s\251S\334Jn\233\357\324\246\321`\271\227'\335"
 226      53DC4A6E 
 226      9BEFD4A6 
 226      D160B997 
 226      27DD
 227 01a1 5DF8D557 		.ascii	"]\370\325W^%G\271\3414:}=\334\223}\036\213m\231ht\336"
 227      5E2547B9 
 227      E1343A7D 
 227      3DDC937D 
 227      1E8B6D99 
 228 01b8 0532BF30 		.ascii	"\0052\2770\377mP\332\012Gc\322J\235\035.\301N\301\031"
 228      FF6D50DA 
 228      0A4763D2 
 228      4A9D1D2E 
 228      C14EC119 
 229 01cc F567D0B0 		.ascii	"\365g\320\260\026\253\367\320)9\036`p_\343$\277\227"
 229      16ABF7D0 
 229      29391E60 
 229      705FE324 
 229      BF97
 230 01de 9C4C5A00 		.ascii	"\234LZ\000\241\375\002>\362'_\224b\202w\362Si\314\301"
 230      A1FD023E 
 230      F2275F94 
 230      628277F2 
 230      5369CCC1 
ARM GAS  /tmp/cc6gOb22.s 			page 18


 231 01f2 5AADEE7E 		.ascii	"Z\255\356~\323\263\365\231V}v&\251'Wo\264j\011\224\256"
 231      D3B3F599 
 231      567D7626 
 231      A927576F 
 231      B46A0994 
 232 0207 4FDFBC7C 		.ascii	"O\337\274|\345ZkR[\373\017#\334\342\360"
 232      E55A6B52 
 232      5BFB0F23 
 232      DCE2F0
 233              		.text
 234              		.section	.gnu.lto_.symbol_nodes.335c8a8ac0785a1c,"",%progbits
 235 0000 789C4DC8 		.ascii	"x\234M\310\275\015\302P\030CQ\333_\336c\006\226`EG\242"
 235      BD0DC250 
 235      184351DB 
 235      5FDE6306 
 235      96604547 
 236 0015 20A2A2A1 		.ascii	" \242\242\241$EX\203\037A\220R\221&E\346`\003\220\210"
 236      24455883 
 236      1F419052 
 236      912645E6 
 236      60039088 
 237 0029 08AEEEB1 		.ascii	"\010\256\356\261 \3541M\035\015\354z\300>TLW~\012:\321"
 237      20EC314D 
 237      1D0DEC7A 
 237      C03E544C 
 237      577E0A3A 
 238 003e 9CDEBAA2 		.ascii	"\234\336\272\242\316\264\376x\241c&\037t\361eY\222w"
 238      CEB4FE78 
 238      A163261F 
 238      74F16559 
 238      9277
 239 0050 3ACDBAD1 		.ascii	":\315\272\321\371\247@\306\272\357\226\201\204\343K"
 239      F9A740C6 
 239      BAEF9681 
 239      84E34B
 240 005f 110BB4DB 		.ascii	"\021\013\264\333UDF;<\025\005\320lF\341\015\024S+B"
 240      5544463B 
 240      3C1505D0 
 240      6C46E10D 
 240      14532B42 
 241              		.text
 242              		.section	.gnu.lto_.refs.335c8a8ac0785a1c,"",%progbits
 243 0000 789C6362 		.ascii	"x\234cb`b0f\200\000\026\006FF& d`dc\002\261 \230\221"
 243      60623066 
 243      80001606 
 243      46462620 
 243      64606463 
 244 0019 91939901 		.ascii	"\221\223\231\001\312\202\311\003i\026\220\030\003\000"
 244      CA82C903 
 244      69169018 
 244      0300
 245 0027 152A0084 		.ascii	"\025*\000\204"
 246              		.text
 247              		.section	.gnu.lto_.decls.335c8a8ac0785a1c,"",%progbits
 248 0000 789CBD5B 		.ascii	"x\234\275[{p\024\307\231\237\236\331\325\256\220x\004"
 248      7B7014C7 
 248      999F9ED9 
ARM GAS  /tmp/cc6gOb22.s 			page 19


 248      D5AE9078 
 248      04
 249 0011 6217E738 		.ascii	"b\027\3478\207|\345\\\354\334\005\361p\034\374\307\005"
 249      877CE55C 
 249      ECDC05F1 
 249      701CFCC7 
 249      05
 250 0022 7CC265BB 		.ascii	"|\302e\273*\344\\\202\244\250r]\255\207\325\030\351"
 250      2AE45C82 
 250      A4A8725D 
 250      AD87D518 
 250      E9
 251 0033 A2D7ED8E 		.ascii	"\242\327\355\216\004T]\225\007\011d06\026`@\274dAx\373"
 251      04545D95 
 251      07096430 
 251      36166040 
 251      BC644178 
 252 0048 01020321 		.ascii	"\001\002\003!\006\274\262\215\"@\001\201\214d\320Y\326"
 252      06BCB28D 
 252      22400181 
 252      8C64D059 
 252      D6
 253 0059 81CD19E2 		.ascii	"\201\315\031\342\007\302\346a\233\260\367\365\3273\273"
 253      07C2E661 
 253      9BB0F7F5 
 253      D733BB
 254 0068 3DB333BB 		.ascii	"=\2633\2733\302\276)\272\325;\323\375\373\236\335\337"
 254      33C2BE29 
 254      BAD53BD3 
 254      FDFB9EDD 
 254      DF
 255 0079 D73D8328 		.ascii	"\327=\203(\210\302\033\242 \304\341\252\233(\010\327"
 255      88C21BA2 
 255      20C4E1AA 
 255      9B2808D7 
 256 0089 B204C12F 		.ascii	"\262\004\301/\010\302\257\240HP\326C\331\000e/\024\002"
 256      08C2AFA0 
 256      4850D643 
 256      D900652F 
 256      1402
 257 009b E5389400 		.ascii	"\3458\224\000\224\215\360\343\025(;\240\034\204\362"
 257      948DF0E3 
 257      15283BA0 
 257      1C84F2
 258 00aa 0E94C350 		.ascii	"\016\224\303P\216\020\326\357\030\255\270\213\366\037"
 258      8E10D6EF 
 258      18ADB88B 
 258      F61F
 259 00b8 A1E30C81 		.ascii	"\241\343\014\201\222\013e\273N\203\342\275\242\323i"
 259      920B65BB 
 259      4E83E2BD 
 259      A2D369
 260 00c7 877E1D84 		.ascii	"\207~\035\204\321m\201r\022\332\257B9\005\245\023J\026"
 260      D16D8172 
 260      12DAAF42 
 260      3905A513 
 260      4A16
ARM GAS  /tmp/cc6gOb22.s 			page 20


 261 00d9 F01A80D2 		.ascii	"\360\032\200\322\012\355 <o\326y\332\006e7\224\030\224"
 261      0AED203C 
 261      6FD679DA 
 261      06653794 
 261      1894
 262 00eb 3D502EC1 		.ascii	"=P.\301\363v\201\365\241\264\203\"\3431\007\376\016"
 262      F37681F5 
 262      A1B48322 
 262      E33107FE 
 262      0E
 263 00fc 85321CCA 		.ascii	"\2052\034\312\035\"\343\231\362p\027\264\267\222T\276"
 263      1D22E399 
 263      F27017B4 
 263      B79254BE 
 264 010c A98C019D 		.ascii	"\251\214\001\235W+\177{u\376\375\034\017G\251\354\002"
 264      572B7F7B 
 264      75FEFD1C 
 264      0F47A9EC 
 264      02
 265 011d A34DF4F1 		.ascii	"\243M\364\361v\372\330\241\353c;\247\017\003\317\247"
 265      76FAD8A1 
 265      EB633BA7 
 265      0F03CFA7 
 266 012d EB64A2AE 		.ascii	"\353d\242\256\027\252\007^~+\037\206>r\240\335\246\353"
 266      17AA075E 
 266      7E2B1F86 
 266      3E72A0DD 
 266      A6EB
 267 013f 80CA6FF0 		.ascii	"\200\312o\360\324\256\363\325\254\353h\217\316cP\347"
 267      D4AEF3D5 
 267      ACEB688F 
 267      CE6350E7 
 268 014f 83D7499E 		.ascii	"\203\327I\236\310lh\350\006\334A\330\007\177\367By\023"
 268      C86C68E8 
 268      06DC41D8 
 268      077FF742 
 268      7913
 269 0161 CA7E28F7 		.ascii	"\312~(\367\212\251\362P\037\030\314\331\224\2673\317"
 269      8AA9F250 
 269      1F18CCD9 
 269      94B733CF 
 270 0171 AF210FE5 		.ascii	"\257!\017\345\373~\300\331\244\323\340m\330\314\331"
 270      FB7EC0D9 
 270      A4D3E06D 
 270      D8CCD9
 271 0180 51D4B137 		.ascii	"Q\324\2617\352vj!\314VV\3729\302s\232V\2435\325i\217"
 271      EA766A21 
 271      CC5656FA 
 271      39C2739A 
 271      56A335D5 
 272 0196 B50D192E 		.ascii	"\265\015\031.,\321\340\312k\003\016\246\023\231\014"
 272      2CD1E0CA 
 272      6B030EA6 
 272      13990C
 273 01a5 C9169EC2 		.ascii	"\311\026\236\302Fn62\364\023a\243\246\325\367\035\376"
 273      466E3632 
 273      F41361A3 
ARM GAS  /tmp/cc6gOb22.s 			page 21


 273      A6D5F71D 
 273      FE
 274 01b6 32E6D7B4 		.ascii	"2\346\327\264\240L6\220\341@\350\247D\370\231\260\015"
 274      A04C3690 
 274      E140E8A7 
 274      44F899B0 
 274      0D
 275 01c7 C6D56BDA 		.ascii	"\306\325k\332\206QB\352\225\011V\024&\023A&\233\001"
 275      865142EA 
 275      95095614 
 275      26134126 
 275      9B01
 276 01d9 4D269BC8 		.ascii	"M&\233\310\317\030\035\255\357zk\327|2W\323\010{&\350"
 276      CF181DAD 
 276      EF7A6BD7 
 276      7C3257D3 
 276      087B26E8 
 277 01ed 4F6DAE7B 		.ascii	"Om\256{\204&\220\"\366\301\212u\177\2475\275M2\011\325"
 277      84269022 
 277      F6C18A75 
 277      7FA735BD 
 277      4D3209D5 
 278 0201 440CF23F 		.ascii	"D\014\362?LJ\265\351J\233\017\245z\005\245\372/b\"\227"
 278      4C4AB5E9 
 278      4A9B0FA5 
 278      7A05A5FA 
 278      2F622297 
 279 0215 1145149E 		.ascii	"\021E\024\236't\310\353\251R\264\032R\274\356J\212u"
 279      2774C8EB 
 279      A952B41A 
 279      52BCEE4A 
 279      8A75
 280 0227 BA1432D9 		.ascii	"\272\0242\331\016\222\210\302\272\004\256N8\317\240"
 280      0E9288C2 
 280      BA04AE4E 
 280      38CFA0
 281 0236 4B1D5E6F 		.ascii	"K\035^o\262K\357`\306k\354\312\255\227\015\260\015\236"
 281      B24BEF60 
 281      C66BECCA 
 281      AD970DB0 
 281      0D9E
 282 0248 C1F24C60 		.ascii	"\301\362L`\315]kGjM-$[X@U\254\325i\367mM\252d\230\201"
 282      CD5D6B47 
 282      6A4D2D24 
 282      5B584055 
 282      ACD569F7 
 283 0262 20727A5D 		.ascii	" rz]s\207\346\223\311^B\357n!f\265\272\207\351\\\264"
 283      7387E693 
 283      C95E42EF 
 283      6E2166B5 
 283      BA87E95C 
 284 0277 EF9FD13C 		.ascii	"\357\237\321<\373\021\350\304\200\201\372\027oy\010"
 284      FB11E8C4 
 284      8081FA17 
 284      6F7908
 285 0286 810E2050 		.ascii	"\201\016 P\235h\006\222\211\224P`\342\267\321\201\242"
 285      9D680692 
ARM GAS  /tmp/cc6gOb22.s 			page 22


 285      89945060 
 285      E2B7D181 
 285      A2
 286 0297 E163BD11 		.ascii	"\341c\275\021\217K\302\367\330Y\024\226\210\026s\231"
 286      8F4BC2F7 
 286      D8591496 
 286      88167399 
 287 02a7 24D29B41 		.ascii	"$\322\233AG\333\367]km\367\257\322b\363$\323\224\270"
 287      47DBF75D 
 287      6B6DF7AF 
 287      D262F324 
 287      D394B8
 288 02ba 53584E9D 		.ascii	"SXN\235\031~hD\225\311\257\356\260u\006\312\341\333"
 288      197E6844 
 288      95C9AFEE 
 288      B07506CA 
 288      E1DB
 289 02cc E44E6C49 		.ascii	"\344NlIH\017nL\314\201\352\267IA\354\006\352\212\236"
 289      480F6E4C 
 289      CC81EAB7 
 289      4941EC06 
 289      EA8A9E
 290 02df FF454C44 		.ascii	"\377ELDE\267\240\347\255\264(\332\304\021\243\344\304"
 290      45B7A0E7 
 290      ADB428DA 
 290      C411A3E4 
 290      C4
 291 02f0 452BC971 		.ascii	"E+\311q\2305)\317D\241\311\2522;\017\017\232\231\347"
 291      983529CF 
 291      44A1C9AA 
 291      323B0F0F 
 291      9A99E7
 292 0303 5576BDF5 		.ascii	"Uv\275\365/\233\310\262Z\255m\014J+\012\233\334\000"
 292      2F9BC8B2 
 292      5AAD6D0C 
 292      4A2B0A9B 
 292      DC00
 293 0315 0EB3B181 		.ascii	"\016\263\261\201\335\305/\0202\331I~\002u3\271\007\352"
 293      DDC52F10 
 293      32D9497E 
 293      027533B9 
 293      07EA
 294 0327 DD58EFC1 		.ascii	"\335X\357\301:\206u\033\324i\025M\341\350\264N`\357"
 294      3A86751B 
 294      D469154D 
 294      E1E8B44E 
 294      60EF
 295 0339 22A2BE90 		.ascii	"\"\242\276\220\016l\251\270\234\\*d\362\206g0\223\""
 295      0E6CA9B8 
 295      9C5C2A64 
 295      F2866730 
 295      9322
 296 034b 6357F5A5 		.ascii	"cW\365\245\202\315}\231\274e\305\363\346\313\261\227"
 296      82CD7D99 
 296      BC65C5F3 
 296      E6CBB197 
 297 035b 56E6763C 		.ascii	"V\346v<e,$\333D\342\021lX:\243l\346\214\262\025\215"
ARM GAS  /tmp/cc6gOb22.s 			page 23


 297      652C24DB 
 297      44E2116C 
 297      583AA36C 
 297      E68CB215 
 298 0370 B20D4D70 		.ascii	"\262\015Mp\024\353cX\267\2731\307\372\2449\220m-\326"
 298      14EB6358 
 298      B7BB31C7 
 298      FAA43990 
 298      6D2DD6
 299 0383 F0245529 		.ascii	"\360$U)\013\225\273\200k\233H\242\005\014\230J\201\272"
 299      0B95BB80 
 299      6B9B48A2 
 299      050C984A 
 299      81BA
 300 0395 F07E14AE 		.ascii	"\360~\024\256\303\022Ib_\257\316\245+i\207\213(\242"
 300      C3124962 
 300      5FAFCEA5 
 300      2B69878B 
 300      28A2
 301 03a7 C596F4AC 		.ascii	"\305\226\364\254%4\212\330\220\353K\004\256\273\205"
 301      25348AD8 
 301      90EB4B04 
 301      AEBB85
 302 03b6 C46CFDF8 		.ascii	"\304l\375\370\257\227%\234\255\357!\247\357\210\031"
 302      AF97259C 
 302      ADEF21A7 
 302      EF8819
 303 03c5 E39F1946 		.ascii	"\343\237\031F\024:pHwJ\374\253\373\314\210\177\335\256"
 303      143A7048 
 303      774AFCAB 
 303      FBCC887F 
 303      DDAE
 304 03d7 38DFD7ED 		.ascii	"8\337\327\355\310\371$\336\262\3062sI\217\333=\310x"
 304      C8F924DE 
 304      B2C63273 
 304      498FDB3D 
 304      C878
 305 03e9 AF3DE34D 		.ascii	"\257=\343M\223\234`D\341s\034\322\233\032\270O\324\350"
 305      939C6044 
 305      E1731CD2 
 305      9B1AB84F 
 305      D4E8
 306 03fb 8CF7BA0A 		.ascii	"\214\367\272\012\334'\237s\231~\370\014\372\223\223"
 306      DC279F73 
 306      997EF80C 
 306      FA9393
 307 040a 627C344A 		.ascii	"b|4J\224\311y\024!\236Y\367f\010QX \321!\027Ru\377\201"
 307      94C97914 
 307      219E59F7 
 307      66085158 
 307      20D12117 
 308 0422 21C20557 		.ascii	"!\302\005W\272\277~\224\351\336\320\346\322\004\256"
 308      BABF7E94 
 308      E9DED0E6 
 308      D204AE
 309 0431 9DEA322F 		.ascii	"\235\3522/(7\216\302\202\242\307f\246\217\264!\243\177"
 309      28378EC2 
ARM GAS  /tmp/cc6gOb22.s 			page 24


 309      82A2C766 
 309      A68FB421 
 309      A37F
 310 0443 F5BB2749 		.ascii	"\365\273'I-\362\373)N\363\223\222m\230w\001\325\271"
 310      2DF2FB29 
 310      4EF39392 
 310      6D987701 
 310      D5B9
 311 0455 E8700BA9 		.ascii	"\350p\013\251A\250/\020\352\314\200\241\372\027\037"
 311      41A82F10 
 311      EACC80A1 
 311      FA171F
 312 0464 6019C315 		.ascii	"`\031\303\025\004:'Y3\206\200%c\010\230\343z ;\331\240"
 312      043A2759 
 312      33868025 
 312      630898E3 
 312      7A203BD9 
 313 0479 FBC5A1C2 		.ascii	"\373\305\241\302\367\334]\024>\263\332-c\0204\371\001"
 313      F7DC5D14 
 313      3EB3DA2D 
 313      631034F9 
 313      01
 314 048a E40DBD22 		.ascii	"\344\015\275\"\346\015\306\364\311r\322\221(\\AZ\327"
 314      E60DC6F4 
 314      C972D291 
 314      285C415A 
 314      D7
 315 049b ADBE17FF 		.ascii	"\255\276\027\377\260\335\360\275\353\256\246\317\236"
 315      B0DDF0BD 
 315      EBAEA6CF 
 315      9E
 316 04a8 A32BDD4D 		.ascii	"\243+\335M\037\321\240\177/\322\337\346\243\364oZ\351"
 316      1FD1A07F 
 316      2FD2DFE6 
 316      A3F46F5A 
 316      E9
 317 04b9 F79C6F7B 		.ascii	"\367\234o{\262A\323\206\261G\231\311\357\357~)\225\274"
 317      B241D386 
 317      B14799C9 
 317      EFEF7E29 
 317      95BC
 318 04cb 6372A4BB 		.ascii	"cr\244\273F\374\303\013\375\272\220\232H\223\205\363"
 318      46FCC30B 
 318      FDBA909A 
 318      489385F3 
 319 04db 3EAB734C 		.ascii	">\253sL\314\341\211\351\031\024\227\257|\232`\177@1"
 319      CCE189E9 
 319      191497AF 
 319      7C9A607F 
 319      4031
 320 04ed 1BE4FCE4 		.ascii	"\033\344\374\344\337\267\355\322\264\205Y\006\017_x"
 320      DFB7EDD2 
 320      B4855906 
 320      0F5F78
 321 04fc 46CC3369 		.ascii	"F\3143i\342@7f\001\014\354\212\033\2604Q\373\020\017"
 321      E2403766 
 321      010CEC8A 
ARM GAS  /tmp/cc6gOb22.s 			page 25


 321      1BB03451 
 321      FB100F
 322 050f 76D53398 		.ascii	"v\3253\230\231\263\016\036\354\206\0330\273\274L\007"
 322      99B30E1E 
 322      EC861B30 
 322      BBBC4C07 
 323 051f 3BC5837D 		.ascii	";\305\203}\353\031\314\314\331{<\330-7`#\2359\353\342"
 323      EB19CCCC 
 323      D97B3CD8 
 323      2D376023 
 323      9D39EBE2 
 324 0533 C16AFC5E 		.ascii	"\301j\374^\301\314\234\275\317\203\325\271\001\313\263"
 324      C1CC9CBD 
 324      CF83D5B9 
 324      01CBB3
 325 0542 E12C7139 		.ascii	"\341,q9%>\337&\023\037QX\3507\226\004\217>-$1\236\367"
 325      253EDF26 
 325      131F5158 
 325      E8379604 
 325      8F3E2D24 
 326 0559 7B5DC24C 		.ascii	"{]\302LrC\370\376p\203\221\307\237\303\035H\275\033"
 326      7243F8FE 
 326      708391C7 
 326      9FC31D48 
 326      BD1B
 327 056b C4340E53 		.ascii	"\3044\016S\177\0145\311\300Vx\0063\233\245\221\202\231"
 327      7F0C35C9 
 327      C0567806 
 327      339BA591 
 327      8299
 328 057d D61A3D20 		.ascii	"\326\032= \365m\212\215lH\256vA\003\213\036\334\260"
 328      F56D8A8D 
 328      6C48AE76 
 328      41038B1E 
 328      DCB0
 329 058f A5AD5ED3 		.ascii	"\245\255^\323\304Dgm\344H\373\2762Y'\322D\266Q\314N"
 329      C444676D 
 329      E448FBBE 
 329      325927D2 
 329      44B651CC 
 330 05a4 70C1DA46 		.ascii	"p\301\332F+N\250\236\327\372-GB\306\225i\250\223'\254"
 330      2B4EA89E 
 330      D7FA2D47 
 330      42C69569 
 330      A89327AC 
 331 05b8 11394F58 		.ascii	"\0219OX\357FMi\246B\207\223\232bu\332\0022\267\371\356"
 331      EF464D69 
 331      A6428793 
 331      9A6275DA 
 331      0232B7F9 
 332 05cd B4B961FC 		.ascii	"\264\271a\374\303\317\327\353I\300\037D\032\2737\373"
 332      C3CFD7EB 
 332      49C01F44 
 332      1ABB37FB 
 333 05dd 6D930057 		.ascii	"m\223\000W`\235\213N\030\031\305f\004k\0368XS\377\361"
 333      609D8B4E 
 333      1819C566 
ARM GAS  /tmp/cc6gOb22.s 			page 26


 333      046B1E38 
 333      5853FFF1 
 334 05f1 BB692EBF 		.ascii	"\273i.\277\015\201\376\344\267\006\215lKF\221m\216\371"
 334      0D81FEE4 
 334      B7068D6C 
 334      4B46916D 
 334      8EF9
 335 0603 D9D9C946 		.ascii	"\331\331\311F\334\270\314f\374^\3078\231~\003o\372\303"
 335      DCB8CC66 
 335      FC5EC738 
 335      997E036F 
 335      FAC3
 336 0615 9E4D6F9A 		.ascii	"\236Mo\232!\220\203\\\023Wj\261\271\022\347\353i'\006"
 336      2190835C 
 336      13576AB1 
 336      B912E7EB 
 336      692706
 337 0628 646A670F 		.ascii	"djg\017\375\013fj\257\243^\333\355\015\344\002\250s"
 337      FD0B666A 
 337      AFA35EDB 
 337      ED0DE402 
 337      A873
 338 063a D16BFF84 		.ascii	"\321k\377\204@\315\010tz\300@\375\213\033' \320\033"
 338      40CD0874 
 338      7AC040FD 
 338      8B1B2720 
 338      D01B
 339 064c 08F4418A 		.ascii	"\010\364A\212\245\211\305\322\304l\001\222\235l\244"
 339      A589C5D2 
 339      C46C0192 
 339      9D6CA4
 340 065b 58EB3BEC 		.ascii	"X\353;\354+\012\377k5\227I\2344\241!\261\336\336\\J"
 340      2B0AFF6B 
 340      3597499C 
 340      34A121B1 
 340      DEDE5C4A 
 341 066f BEACD11A 		.ascii	"\276\254\321\032\306x\320\316j\335^\373Q;\237\245h\247"
 341      C678D0CE 
 341      6ADD5EFB 
 341      513B9FA5 
 341      68A7
 342 0681 59F4A61E 		.ascii	"Y\364\246\036H1<\213\0214\213Q\027\037\200\030o11\016"
 342      48313C8B 
 342      11348B51 
 342      171F8018 
 342      6F31310E 
 343 0695 A118DF7E 		.ascii	"\241\030\337~\007b\324fy\025c\030'\006n^_b\321o\204"
 343      0762D466 
 343      79156318 
 343      27066E5E 
 343      5F62D16F 
 344 06aa B0347D06 		.ascii	"\2604}\006O\371yG\034a>k8}\234\344\261\333\2317\215"
 344      4FF97947 
 344      1C613E6B 
 344      387D9CE4 
 344      B1DB9937 
 345 06bf 5F1E5F8B 		.ascii	"_\036_\213\2313*Ls\265\243:\233\330\347\265\242\312"
ARM GAS  /tmp/cc6gOb22.s 			page 27


 345      99332A4C 
 345      73B5A33A 
 345      9BD8E7B5 
 345      A2CA
 346 06d1 1664D94C 		.ascii	"\026d\331L07PM\235\307\360x\371\010\302,\036(L_\377"
 346      3037504D 
 346      9DC7F078 
 346      F908C22C 
 346      1E284C5F 
 347 06e6 F17D6C9E 		.ascii	"\361}l\236\266#\320\212,\253\011\263,\026\3142[\020"
 347      B623D08A 
 347      2CAB09B3 
 347      2C16CC32 
 347      5B10
 348 06f8 7E524A37 		.ascii	"~RJ7p\201|F\277C\177\004\204\377\367q\242\320\204\354"
 348      70817C46 
 348      BF437F04 
 348      84FFF771 
 348      A2D084EC 
 349 070c 53EB79CC 		.ascii	"S\353y\314\277\014\357\251\373h\231\221;1\003m\271-"
 349      BF0CEFA9 
 349      FB689991 
 349      3B31036D 
 349      B92D
 350 071e C49AD8CB 		.ascii	"\304\232\330\313/\032/5\360Lu\347m\302\0358aM\013,\333"
 350      2F1A2F35 
 350      F04C75E7 
 350      6DC21D38 
 350      614D0B2C 
 351 0733 B6F30E61 		.ascii	"\266\363\016a\30784:\337\307\316\246\2730-\336\227b"
 351      C738343A 
 351      DFC7CEA6 
 351      BB302DDE 
 351      9762
 352 0745 EE73C4B2 		.ascii	"\356s\304\262m;g>gv\232H\247\371\010x\364v\315\320z"
 352      6D3B673E 
 352      67769A48 
 352      A7F90878 
 352      F476CDD0 
 353 075a D562868E 		.ascii	"\325b\206\216\333\324\333\327/\272;\242z\312\300b\357"
 353      DBD4DBD7 
 353      2FBA3BA2 
 353      7ACAC062 
 353      EF
 354 076b E7DE47B2 		.ascii	"\347\336G\262\275\242e\213\275\346z_\235\236\021\321"
 354      BDA2658B 
 354      BDE67A5F 
 354      9D9E11D1 
 355 077b 6799578A 		.ascii	"g\231W\212\236\217\263\265\245\271\354pI&\227\360@\230"
 355      9E8FB3B5 
 355      A5B9EC70 
 355      492697F0 
 355      4098
 356 078d 8EB44B94 		.ascii	"\216\264K\2242\252'\326\253\264\215\361\262\346\264"
 356      32AA27D6 
 356      ABB48DF1 
 356      B2E6B4
ARM GAS  /tmp/cc6gOb22.s 			page 28


 357 079c 1A6BCE79 		.ascii	"\032k\316y\324\345\374\200\325\350G\254\313\264\247"
 357      D4E5FC80 
 357      D5E847AC 
 357      CBB4A7
 358 07ab 49B72840 		.ascii	"I\267(@\314\342\270\335)'.'\247\372\200w\252\027\003"
 358      CCE2B8DD 
 358      29272E27 
 358      A7FA8077 
 358      AA1703
 359 07be B7E502F4 		.ascii	"\267\345\002\364}\344F\346T\231\234@K\034\360\016C\312"
 359      7DE446E6 
 359      54999C40 
 359      4B1CF00E 
 359      43CA
 360 07d0 2B90F225 		.ascii	"+\220\362%\253\027\304\277i{V?\003\271\344\312\013\256"
 360      AB17C4BF 
 360      697B563F 
 360      03B9E4CA 
 360      0BAE
 361 07e2 DA78C1A5 		.ascii	"\332x\301\245\001z\001\270\364\305#\004\341\330\276"
 361      017A01B8 
 361      F4C52304 
 361      E1D8BE
 362 07f1 ECAD0493 		.ascii	"\354\255\004\223\036\255\240\303\335T\274*\206\371W"
 362      1EADA0C3 
 362      DD54BC2A 
 362      86F957
 363 0800 ECCCC734 		.ascii	"\354\314\3074b^\021\351\261\351\341\024\327b\232\341"
 363      625E11E9 
 363      B1E9E114 
 363      D7629AE1 
 364 0810 5C2BA946 		.ascii	"\\+\251F\231|\212\033\265\317D\372\226\341s\254/\213"
 364      997C8A1B 
 364      B5CF44FA 
 364      96E173AC 
 364      2F8B
 365 0822 2EDE35F4 		.ascii	".\3365\364\213)\257~\274\310\235\347\322\373.\362\336"
 365      8B29AF7E 
 365      BCC89DE7 
 365      D2FB2EF2 
 365      DE
 366 0833 F797DBF4 		.ascii	"\367\227\333\364\276k\255\307}x\260\350\341\370\365"
 366      BE6BADC7 
 366      7D78B0E8 
 366      E1F8F5
 367 0842 EC6163E2 		.ascii	"\354ac\342^\307\211\373^\212v\277\260f\321n\316H\373"
 367      5EC789FB 
 367      5E8A76BF 
 367      B066D16E 
 367      CE48FB
 368 0855 062A4AE2 		.ascii	"\006*J\342\202\2449\340b\217\223g\243\365D\240\355\322"
 368      82A439E0 
 368      628F9367 
 368      A3F544A0 
 368      EDD2
 369 0867 D3B48C07 		.ascii	"\323\264\214\007\255\306\353\364\0131\366\272\343o\350"
 369      ADC6EBF4 
ARM GAS  /tmp/cc6gOb22.s 			page 29


 369      0B31F6BA 
 369      E36FE8
 370 0876 69172DBA 		.ascii	"i\027-\272pq^{\003\207hR\312\273\202\304y-}\226\371"
 370      70715E7B 
 370      03876852 
 370      CABB82C4 
 370      792D7D96 
 371 088b C074F773 		.ascii	"\300t\367sFHg\261\221y \035;P}\232L\230dP&5\022\235"
 371      464867B1 
 371      9179201D 
 371      3B507D9A 
 371      4C986450 
 372 08a3 20B51237 		.ascii	" \265\0227) g\014\272\320\375}N\256\010\313\320)\363"
 372      2920670C 
 372      BAD0FD7D 
 372      4EAE08CB 
 372      D029F3
 373 08b6 BB8E7A2B 		.ascii	"\273\216z+\236\335Bd\302\343mY\023\253\357\304\343!"
 373      9EDD4264 
 373      C2E36D59 
 373      13ABEFC4 
 373      E321
 374 08c8 E6A3ABDC 		.ascii	"\346\243\253\33407\306\031\354\345e\206r/b\206\262\301"
 374      3037C619 
 374      ECE56586 
 374      722F6286 
 374      B2C1
 375 08da 0DDE0427 		.ascii	"\015\336\004'akb\373:\327\352x\354\305\312v\317xf\376"
 375      616B62FB 
 375      3AD7EA78 
 375      ECC5CA76 
 375      CF7866FE 
 376 08ee 4E2F33E5 		.ascii	"N/3\345s\273\335\300Mrm\373\344\213,\231|\202\257c/"
 376      73BBDDC0 
 376      4D726DFB 
 376      E48B2C99 
 376      7C82AF63 
 377 0903 E22BD8BF 		.ascii	"\342+\330\277b}\015\353\025\270P6`\275\032\353\365X"
 377      627D0DEB 
 377      15B85036 
 377      60BD1AEB 
 377      F558
 378 0915 BF86F51F 		.ascii	"\277\206\365\037\261>\210\365\333X\337\304z\276D\353"
 378      B13E88F5 
 378      DB58DFC4 
 378      7ABE44EB 
 379 0925 67B15E88 		.ascii	"g\261^\210\365\"\254_\220\\,\270\226\034\320p\371\336"
 379      F522AC5F 
 379      905C2CB8 
 379      961CD070 
 379      F9DE
 380 0937 01BF6F3F 		.ascii	"\001\277o?u4q\242h\274o\367\002\226\227N\207\275\234"
 380      753471A2 
 380      68BC6FF7 
 380      0296974E 
 380      87BD9C
 381 094a 0EFB5087 		.ascii	"\016\373P\207\377\203z{\221\227\324\010\277\335\003"
ARM GAS  /tmp/cc6gOb22.s 			page 30


 381      FF837A7B 
 381      9197D408 
 381      BFDD03
 382 0959 7EC3B7BF 		.ascii	"~\303\267\277\233w,\231\\\265\342y\212\277\232\361\362"
 382      9B772C99 
 382      5CB5E279 
 382      8ABF9AF1 
 382      F2
 383 096a 81BD4E5A 		.ascii	"\201\275NZ.z\0053{i\347J\363\022\265\322\015^\232\023"
 383      2E7A0533 
 383      7B69E74A 
 383      F312B5D2 
 383      0D5E9A13 
 384 097e 60FD949F 		.ascii	"`\375\224\237\201\255\362\014ff\356l7w\234\274?H2\203"
 384      81ADF20C 
 384      6666EE6C 
 384      37779CBC 
 384      3F483283 
 385 0992 D99D93DA 		.ascii	"\331\235\223\332\033\277\2333\376\0314\376Y4~=:\373"
 385      1BBF9B33 
 385      FE1934FE 
 385      59347E3D 
 385      3AFB
 386 09a4 12AC9762 		.ascii	"\022\254\227b\275\014\353\227\314KkK\320\370\000A'f"
 386      BD0CEB97 
 386      CC4B6B4B 
 386      D0F80041 
 386      2766
 387 09b6 7ED79FC6 		.ascii	"~\327\237\306+dr\034\010\351\266l\356a\276\3416\266"
 387      2B64721C 
 387      08E9B66C 
 387      EE61BEE1 
 387      36B6
 388 09c8 7D7C2DC6 		.ascii	"}|-\306b[\203D\027\344?\007=\307\266.\034\262&5\266"
 388      625B8344 
 388      17E43F07 
 388      3DC7B62E 
 388      1CB22635 
 389 09dd DD32BE41 		.ascii	"\3352\276AX\2239\266\315\253\215\255Z\2759\271O\252"
 389      589339B6 
 389      CDAB8DAD 
 389      5ABD39B9 
 389      4FAA
 390 09ef 4DEC2AD7 		.ascii	"M\354*\327\302\332\356\2648\230\216\275/$\370\370Nb"
 390      C2DAEEB4 
 390      38988EBD 
 390      2F24F8F8 
 390      4E62
 391 0a01 E11A2E16 		.ascii	"\341\032.\026\256\303X\330h6\330e\253\301<\306\302\375"
 391      AEC358D8 
 391      6836D865 
 391      ABC13CC6 
 391      C2FD
 392 0a13 3D462C64 		.ascii	"=F,d\237 |e\3053\177p\220&\030&.\375\266i'i\347\307"
 392      9F207C65 
 392      C5337F70 
 392      90261826 
ARM GAS  /tmp/cc6gOb22.s 			page 31


 392      2EFDB669 
 393 0a2b FAB85142 		.ascii	"\372\270QB\243\026\273\334\027\337\322\237\277\242\266"
 393      A316BBDC 
 393      17DFD29F 
 393      BFA2B6
 394 0a3a A64DBB4C 		.ascii	"\246M\273L\2634\367\037\252m\222,\037\252\261o\230\270"
 394      B334F71F 
 394      AA6D922C 
 394      1FAAB16F 
 394      98B8
 395 0a4c 2FD54461 		.ascii	"/\325Dau\266\331\237\356\025\376\240iK\265U\312c\306"
 395      75B6D99F 
 395      EE15FEA0 
 395      694BB555 
 395      CA63C6
 396 0a5f D791AF63 		.ascii	"\327\221\257c\217\215\322([:\211\217\255\376Q\330D\337"
 396      8F8DD228 
 396      5B3A898F 
 396      ADFE51D8 
 396      44DF
 397 0a71 C2BCA0CD 		.ascii	"\302\274\240\315\037F\220+A\037e2\332\026I\344oP\001"
 397      1F46902B 
 397      411F6532 
 397      DA1649E4 
 397      6F5001
 398 0a84 9BFA62DF 		.ascii	"\233\372b\337(L6\367\242\275\252\213\226\224F\024vY"
 398      284C36F7 
 398      A2BDAA8B 
 398      96944614 
 398      7659
 399 0a96 44D17982 		.ascii	"D\321y\202k\253&%Xz\305\312\322k\251,\365]\216\335j"
 399      6BAB2625 
 399      587AC5CA 
 399      D26BA92C 
 399      F55D8EDD 
 400 0aab CDAD9FDB 		.ascii	"\315\255\237\333\027\217\217r\317\323N;u'~\354e\351"
 400      178F8F72 
 400      CFD34E3B 
 400      75277EEC 
 400      65E9
 401 0abd 78E2770B 		.ascii	"x\342w\013S\033\377\021\241I\036\024\351M{\353,7\254"
 401      531BFF11 
 401      A1491E14 
 401      E94D7BEB 
 401      2C37AC
 402 0ad0 23936D12 		.ascii	"#\223m\022]pw\244\267\216>\254S\276\317\370T\254\025"
 402      5D7077A4 
 402      B78E3EAC 
 402      53BECFF8 
 402      54AC15
 403 0ae3 81B961A6 		.ascii	"\201\271a\246O\305tn\331\260\330\222gi\300\020\215o"
 403      4FC5746E 
 403      D9B0D892 
 403      6769C010 
 403      8D6F
 404 0af5 16DBAD43 		.ascii	"\026\333\255C-\024[8\212\315\224Q|\271\177\204\244\347"
 404      2D145B38 
ARM GAS  /tmp/cc6gOb22.s 			page 32


 404      8ACD9451 
 404      7CB97F84 
 404      A4E7
 405 0b07 7362D289 		.ascii	"sb\322\211\264X\274\256\266\211hY\011\233\355\260\332"
 405      B458BCAE 
 405      B6896859 
 405      099BEDB0 
 405      DA
 406 0b18 6C8FADCD 		.ascii	"l\217\255\315n\036c6{y\222{\243\035r1G:3\314\021\303"
 406      6E1E6336 
 406      7B79927B 
 406      A31D7231 
 406      473A33CC 
 407 0b2e 0A075DCD 		.ascii	"\012\007]\315\021\3152G\016Z\205\213\331\010W\337\267"
 407      11CD3247 
 407      0E5A858B 
 407      D90857DF 
 407      B7
 408 0b3f 6447CB8F 		.ascii	"dG\313\217\032vi\363\026j\267\342\317\0206\003D\241"
 408      1A7669F3 
 408      166AB7E2 
 408      CF103603 
 408      44A1
 409 0b51 6690D5E7 		.ascii	"f\220\325\347\031\306\273v\030\261+\255\317k\304\253"
 409      19C6BB76 
 409      18B12BAD 
 409      CF6BC4AB 
 410 0b61 5BB75A35 		.ascii	"[\267Z5\304\276\\4ih\261\003\033m\266l\364&\331`\360"
 410      C4BE5C34 
 410      6968B103 
 410      1B6DB66C 
 410      F426D960 
 411 0b76 B0357000 		.ascii	"\2605p\0008j\006\370\007a=\325\305\365\272\323\177&"
 411      386A06F8 
 411      07613DD5 
 411      C5F5BAD3 
 411      7F26
 412 0b88 4BB5A636 		.ascii	"K\265\2466\352+q2*\343\347\203\306\011\3477\035\354"
 412      EA2B7132 
 412      2AE3E783 
 412      C609E737 
 412      1DEC
 413 0b9a 7BBE768C 		.ascii	"{\276v\214\245\233-D\215\317\0109\372\035\\\316p\012"
 413      A59B2D44 
 413      8DCF0839 
 413      FA1D5CCE 
 413      700A
 414 0bac 73864ECC 		.ascii	"s\206N\314\031\216c\275\022\363\204\015\346\260\263"
 414      198E63BD 
 414      12F3840D 
 414      E6B0B3
 415 0bbb 2B816ACB 		.ascii	"+\201j\313\012E=\221\224\312rD\333\356\020\035\221\027"
 415      0A453D91 
 415      94CA7244 
 415      DBEE101D 
 415      9117
 416 0bcd 29C76114 		.ascii	")\307a\024\365\005\247Q'\223\243\360x\2416\355\361\202"
ARM GAS  /tmp/cc6gOb22.s 			page 33


 416      F505A751 
 416      2793A3F0 
 416      78A136ED 
 416      F182
 417 0bdf 4C2EA394 		.ascii	"L.\243\224\231\317\012\354t\236e@=\225\324y\317\356"
 417      99CF0AEC 
 417      749E6540 
 417      3D95D479 
 417      CFEE
 418 0bf1 FE727650 		.ascii	"\376rvP\321\211J\377d\220m\002\343\214C\231\352\262"
 418      D1894AFF 
 418      64906D02 
 418      E38C4399 
 418      EAB2
 419 0c03 242FB165 		.ascii	"$/\261e=\370\331g\227\253\304ey\217\221\216\237\222"
 419      3DF8D967 
 419      97ABC465 
 419      798F918E 
 419      9F92
 420 0c15 E802F715 		.ascii	"\350\002\367\025\262\320\345=\021\321\361V\364`\222"
 420      B2D0E53D 
 420      11D1F156 
 420      F46092
 421 0c24 CAC06E78 		.ascii	"\312\300nx\006\3133\2015\360`7\335\2009m\024\000l5\017"
 421      06CB3381 
 421      35F06037 
 421      DD80396D 
 421      14006C35 
 422 0c39 3637C72B 		.ascii	"67\307+\230\231\263\265<X\235\0330\247]\002\2005\362"
 422      9899B3B5 
 422      3C589D1B 
 422      30A75D02 
 422      8035F2
 423 0c4c 600B3D83 		.ascii	"`\013=\203\2319\333\311\203\275\340\006\314\351k\012"
 423      9939DBC9 
 423      83BDE006 
 423      CCE96B0A 
 424 0c5c 00DBC583 		.ascii	"\000\333\305\203-\363\014f\346\354\015\036l\225\033"
 424      2DF30C66 
 424      E6EC0D1E 
 424      6C951B
 425 0c6b B03C67CE 		.ascii	"\260<g\316\366\362`\215\236\301\314\234\375\221\007"
 425      F6F2608D 
 425      9EC1CC9C 
 425      FD9107
 426 0c7a DBE006CC 		.ascii	"\333\340\006\314)5\006\260?\361`\233=\203\2319;\300"
 426      293506B0 
 426      3FF1609B 
 426      3D839939 
 426      3BC0
 427 0c8c 836D7703 		.ascii	"\203mw\0036\306\211\263\271\261CO\326\313?\020\352\365"
 427      36C689B3 
 427      B9B1434F 
 427      D6CB3F10 
 427      EAF5
 428 0c9e 2585A11A 		.ascii	"%\205\241\032\313\0121\273\026\337\215\036\226:t\223"
 428      CB0A31BB 
ARM GAS  /tmp/cc6gOb22.s 			page 34


 428      16DF8D1E 
 428      963A7493 
 429 0cae C957D20F 		.ascii	"\311W\322\017\260ez\257\202=\234\026\335\253R\362#\241"
 429      B0657AAF 
 429      823D9C16 
 429      DDAB52F2 
 429      23A1
 430 0cc0 DCEC6483 		.ascii	"\334\354d\203\377\317.\311^4\311\266\212m\346\302Nn"
 430      FFCF2EC9 
 430      5E34C9B6 
 430      8A6DE6C2 
 430      4E6E
 431 0cd2 B3123B78 		.ascii	"\263\022;x%\356r\243\304I\316`\247x\260}n\300\036s\366"
 431      25EE72A3 
 431      C449CE60 
 431      A778B07D 
 431      6EC01E73 
 432 0ce7 95F778B0 		.ascii	"\225\367x\2607=\203\2319\353\342\301bn\300\236p\346"
 432      373D8399 
 432      39EBE2C1 
 432      626EC09E 
 432      70E6
 433 0cf9 EC7D1EEC 		.ascii	"\354}\036\354\035\317`<gscg\223\216G\277\2537y\236\351"
 433      1DCF603C 
 433      67736367 
 433      938E47BF 
 433      AB37799E 
 434 0d0e F828E178 		.ascii	"\370(\341x\254\033\347y\226n2\251\365yu\274y>{\307\343"
 434      AC1BE779 
 434      966E32A9 
 434      F57975BC 
 434      793E7BC7 
 435 0d23 BF7C49F6 		.ascii	"\277|I\366\002\261\217X\305\266;\352\232n\243C\273\213"
 435      02B18F58 
 435      C5B63BEA 
 435      9A6EA343 
 435      BB8B
 436 0d35 0FD432E9 		.ascii	"\017\3242\351\306M\371\373\230#\235\305\372\277\261"
 436      C64DF9FB 
 436      98239DC5 
 436      FABFB1
 437 0d44 EEC5BA0F 		.ascii	"\356\305\272\017\353sX\177\204\365\005\254?\301\372"
 437      EB73587F 
 437      84F505AC 
 437      3FC1FA
 438 0d53 12D69F62 		.ascii	"\022\326\237b\3759\326\227\261\276\202\365u\254\277"
 438      FD39D697 
 438      B1BE82F5 
 438      75ACBF
 439 0d62 C6FA5BAC 		.ascii	"\306\372[\254\377\206u\034\353\271>.\037\263dJ\235i"
 439      FF86751C 
 439      EBB93E2E 
 439      1FB3644A 
 439      9D69
 440 0d74 F2AB3A9F 		.ascii	"\362\253:\237S~\325\232&\277z69J\337\256\037<t\344\256"
 440      537ED59A 
 440      26BF7A36 
ARM GAS  /tmp/cc6gOb22.s 			page 35


 440      394ADFAE 
 440      1F3C74E4 
 441 0d89 57E9C7C7 		.ascii	"W\351\307\3074S\237;\217\030\271\372\255\0347\373\323"
 441      34539F3B 
 441      8F18B9FA 
 441      AD1C37FB 
 441      D3
 442 0d9a 053ECB76 		.ascii	"\005>\313v`\241/%\207\006\"g\316\265\224\354\347\210"
 442      60A12F25 
 442      87062267 
 442      CEB594EC 
 442      E788
 443 0dac 58F2F9BD 		.ascii	"X\362\371\275\304\331G\236\367\245\356\235w\347\332"
 443      C4D9479E 
 443      F7A5EE9D 
 443      77E7DA
 444 0dbb F256A3ED 		.ascii	"\362V\243\355\334\252\371\215\315\253L\026\371\3547"
 444      DCAAF98D 
 444      CDAB4C16 
 444      F9EC37
 445 0dca 8C3ADE0B 		.ascii	"\214:\336\013\266\254\0368t\344\307\364\365\226\026"
 445      B6AC1E38 
 445      74E4C7F4 
 445      F59616
 446 0dd9 8F3F730F 		.ascii	"\217?s\017#\017\033Pw\004_LO\260\336\226\340W\027\316"
 446      230F1B50 
 446      77045F4C 
 446      4FB0DE96 
 446      E05717CE 
 447 0ded DC9F4270 		.ascii	"\334\237Bp\361`W\004\227\246'\270\314\226\340\301C\027"
 447      F1605704 
 447      97A627B8 
 447      CC96E0C1 
 447      4317
 448 0dff 7F64B638 		.ascii	"\177d\2668\333\325\254\267\320\3247\216\335\311}\370"
 448      DBD5ACB7 
 448      D0D4378E 
 448      DDC97DF8 
 449 0e0f 5EECB1DC 		.ascii	"^\354\261\334\201h\342\324@w\2243\332\023#\023\216\262"
 449      8168E2D4 
 449      40779433 
 449      DA132313 
 449      8EB2
 450 0e21 DCEA282B 		.ascii	"\334\352(+|){\245\216\216\276\370\226#\023\226i5\015"
 450      7C297BA5 
 450      8E8EBEF8 
 450      96231396 
 450      69350D
 451 0e34 DA3CDC2A 		.ascii	"\332<\334*\031A\257\301|rWl\220\035\214c\371^\215\216"
 451      1941AFC1 
 451      7C72576C 
 451      901D8C63 
 451      F95E8D8E 
 452 0e48 BD00C1F3 		.ascii	"\275\000\301\363\002\265\316a\201\3125\211\262.\271"
 452      02B5CE61 
 452      81CA3589 
 452      B22EB9
ARM GAS  /tmp/cc6gOb22.s 			page 36


 453 0e57 40BD891A 		.ascii	"@\275\211\032\342\266\326\026&D\341\335\301D\037\006"
 453      E2B6D616 
 453      2644E1DD 
 453      C1441F06 
 454 0e67 D973D224 		.ascii	"\331s\322$_\217\2643\311){\223\364\030&\221I\203\217"
 454      5F8FB433 
 454      C9297B93 
 454      F4182691 
 454      49838F
 455 0e7a EEE59B06 		.ascii	"\356\345\233\006b\222&\253I\326;\230\344\342\335\231"
 455      629226AB 
 455      49D63B98 
 455      E4E2DD99 
 456 0e8a 4D32DD20 		.ascii	"M2\335 \233\223\316$\226^2\331\354\331$[\034L2\310$"
 456      9B93CE24 
 456      965E32D9 
 456      ECD9245B 
 456      1C4C32C8 
 457 0e9f 8AD10B9A 		.ascii	"\212\321\013\232\215>\313Y\216\205\011Q\270h2\211e5"
 457      8D3ECB59 
 457      8E850951 
 457      B8683289 
 457      6535
 458 0eb1 DD946635 		.ascii	"\335\224f5\335\226\\M\205{G\217\316g\377*\242\371\021"
 458      DD965C4D 
 458      857B478F 
 458      CE67FF2A 
 458      A2F911
 459 0ec4 35BFA43C 		.ascii	"5\277\244<\\ZU\244\344\207\213\243s\242\352\234J%:\272"
 459      5C5A55A4 
 459      E4878BA3 
 459      73A2EA9C 
 459      4A253ABA 
 460 0ed8 58B8A3BA 		.ascii	"X\270\243\272$\242V\311\245!\265\244L\211DC\245%Q5\244"
 460      24A256C9 
 460      A521B5A4 
 460      4C894443 
 460      A5255135 
 461 0eed 663DFA9B 		.ascii	"f=\372\233\337\346\025\010w\206\213C6\317\363\234\201"
 461      DFE61508 
 461      77868B43 
 461      36CFF39C 
 461      81
 462 0efe C3C54500 		.ascii	"\303\305E\000:\3244(\244\016\263\342\370\312\225\331"
 462      3AD43428 
 462      A40EB3E2 
 462      F8CA95D9 
 463 0f0e AAAF32A2 		.ascii	"\252\2572\242TgS^\340VH\375q~U4\222\300*Wf\225\226\314"
 463      5467535E 
 463      E05648FD 
 463      717E5534 
 463      92C02A57 
 464 0f26 C88FAA45 		.ascii	"\310\217\252E%\345*@\006\253\340\357\330\007C\352\317"
 464      25E52A40 
 464      06ABE0EF 
 464      D80743EA 
 464      CF
ARM GAS  /tmp/cc6gOb22.s 			page 37


 465 0f37 EDBA95C9 		.ascii	"\355\272\225\311\341\342\222r%?T\244<-W\225\202\004"
 465      E1E29272 
 465      253F54A4 
 465      3C2D5795 
 465      8204
 466 0f49 BA788342 		.ascii	"\272x\203B!c\240\277H)U\345`\265\372tUy8\244\372\350"
 466      2163A0BF 
 466      482955E5 
 466      60B5FA74 
 466      557938A4 
 467 0f5f 1FA9528E 		.ascii	"\037\251R\216\004K\345\250JY\310\252V\251t\331\300,"
 467      044BE5A8 
 467      4A59C8AA 
 467      56A974D9 
 467      C02C
 468 0f71 654A29CB 		.ascii	"eJ)\313\215(r\321\034]%\203\341v\362\367P\265\230\376"
 468      8D2872D1 
 468      1C5D2583 
 468      E176F2F7 
 468      50B598FE 
 469 0f85 8886FEB3 		.ascii	"\210\206\376\263J\251R\230\204\246[A\366+\204p\254\355"
 469      4AA95298 
 469      84A65B41 
 469      F62B8470 
 469      ACED
 470 0f97 C7071378 		.ascii	"\307\007\023x\345\205+\312\312"
 470      E5852BCA 
 470      CA
 471 0fa0 2ACAF32B 		.ascii	"*\312\363++\"j4\377\341\302)\005Sf\323{\225%\245\240"
 471      2B226A34 
 471      FFE1C229 
 471      055366D3 
 471      7B9525A5 
 472 0fb5 EBFC470B 		.ascii	"\353\374G\013\012@\247\206(\001\2652RR\021RQ\023\343"
 472      0A40A786 
 472      2801B532 
 472      52521152 
 472      5113E3
 473 0fc8 C785545D 		.ascii	"\307\205T]6\332\364\321G\271\024&\024\256(WA\271\367"
 473      36DAF4D1 
 473      47B91426 
 473      14AE2857 
 473      41B9F7
 474 0fdb 6724531C 		.ascii	"g$S\034\256\210(\200\233\203\303\000(\254\316\376\271"
 474      AE882880 
 474      9B83C300 
 474      28ACCEFE 
 474      B9
 475 0fec BB51A1EA 		.ascii	"\273Q\241\352_\226Q\233D\224\231r\244,\244\212\221\007"
 475      5F96519B 
 475      44949972 
 475      A42CA48A 
 475      9107
 476 0ffe C4C8     		.ascii	"\304\310"
 477 1000 2FC4C883 		.ascii	"/\304\310\203b\344\227bd\202\030yH\212\214\035\003e"
 477      62E49762 
 477      64821879 
ARM GAS  /tmp/cc6gOb22.s 			page 38


 477      488A8C1D 
 477      0365
 478 1012 AC581A11 		.ascii	"\254X\032\021\243\225\022@\373\301TJ\304_QZ\004\346"
 478      A3951240 
 478      FBC1544A 
 478      C45F515A 
 478      04E6
 479 1024 0F17CBE0 		.ascii	"\017\027\313\340\003r\2312(\252\376^.-\231Y\256\313"
 479      03729932 
 479      28AAFE5E 
 479      2E2D9959 
 479      AECB
 480 1036 F5E00309 		.ascii	"\365\340\003\011\271h3k\226<C\216\2022\243\252\254\202"
 480      B968336B 
 480      963C438E 
 480      8232A3AA 
 480      AC82
 481 1048 9A03F4C1 		.ascii	"\232\003\364\301\004P*\353\002-?>\011\250e\025E\360"
 481      04502AEB 
 481      022D3F3E 
 481      09A86515 
 481      45F0
 482 105a DCFF74A9 		.ascii	"\334\377t\251<3\032P#\312\323Q\320\012\375\343/\213"
 482      3C331A50 
 482      23CAD351 
 482      D00AFDE3 
 482      2F8B
 483 106c CE8481BA 		.ascii	"\316\204\201\272\242`\240\336\312\212\024\315\201GA"
 483      A260A0DE 
 483      CA8A14CD 
 483      814741
 484 107b 6576891A 		.ascii	"ev\211\032\206\301Y\263\324\212\031\377Q9\\\267\033"
 484      86C159B3 
 484      D48A19FF 
 484      51395CB7 
 484      1B
 485 108c 0C55224A 		.ascii	"\014U\"Jy\230\202\316R\325He \252\224\2530 \227\272"
 485      799882CE 
 485      52D54865 
 485      20AA94AB 
 485      302097BA 
 486 10a0 87522657 		.ascii	"\207R&W\026\203\"F9\317\004\205j\310\037.\007\327\221"
 486      16832246 
 486      39CF0485 
 486      6AC81F2E 
 486      07D791
 487 10b3 A00678B8 		.ascii	"\240\006x\270U\031\204\321eU` \347\221e\352l:\262bV"
 487      551984D1 
 487      65556020 
 487      E79165EA 
 487      6C3AB262 
 488 10c8 B9120960 		.ascii	"\271\022\011`_\252\007\025nW\346(\325\224\0119\372{"
 488      5FAA0715 
 488      6E57E628 
 488      D5940939 
 488      FA7B
 489 10da B8A5CCA2 		.ascii	"\270\245\314\242\015R5\304\360;\346\247C9O\244w\002"
ARM GAS  /tmp/cc6gOb22.s 			page 39


 489      0D5235C4 
 489      F03BE6A7 
 489      43394FA4 
 489      7702
 490 10ec B3E412B5 		.ascii	"\263\344\022\265\244|f\020xg\236\251T*\3450\253f\006"
 490      A47C6610 
 490      78679EA9 
 490      542AE530 
 490      AB6606
 491 10ff 0092F600 		.ascii	"\000\222\366\0003\312\245\324\201\374e\225\025\025\245"
 491      33CAA5D4 
 491      81FC6595 
 491      1515A5
 492 110e 81705504 		.ascii	"\201pU\004$W\375\021\372p\010\233\0120\261fT\315d\350"
 492      2457FD11 
 492      FA70089B 
 492      0A30B166 
 492      54CD64E8 
 493 1122 FC9DEC4A 		.ascii	"\374\235\354J\271\274$\034\002l\251h\306\314Ae2h\027"
 493      B9BC241C 
 493      026CA968 
 493      C6CC4165 
 493      326817
 494 1135 89DF6591 		.ascii	"\211\337e\221/\032\011\203l\325\352\350\2600\"\\\374"
 494      2F1A0983 
 494      6CD5EAE8 
 494      B030225C 
 494      FC
 495 1146 BB69932B 		.ascii	"\273i\223+\012\225\250\242>>\032f\240:z\214T\255V\006"
 495      0A95A8A2 
 495      3E3E1A66 
 495      A03A7A8C 
 495      54AD5606 
 496 115a 43D5D40F 		.ascii	"C\325\324\017K\324A\254\303TxL'\255<'\213M\332\\~\340"
 496      4BD441AC 
 496      C354784C 
 496      27AD3C27 
 496      8B4DDA5C 
 497 1170 3D3C8162 		.ascii	"=<\201b\2714\241Ah\207\242t\311\310\211\252S\325\212"
 497      B934A141 
 497      6887A274 
 497      C9C889AA 
 497      53D58A
 498 1183 CA874BC1 		.ascii	"\312\207K\301G\301\317\000\016\233\271\3646\020\305"
 498      47C1CF00 
 498      0E9BB9F4 
 498      3610C5
 499 1192 1F394979 		.ascii	"\0379IyT1\\<\316\012\312\234\177\352\264)\343\307\345"
 499      54315C3C 
 499      CE0ACA9C 
 499      7FEAB429 
 499      E3C7E5
 500 11a5 FFFAD793 		.ascii	"\377\372\327\223\363\247=>\245z,\254Je\324\205J\312"
 500      F3A73D3E 
 500      A57A2CAC 
 500      4A65D485 
 500      4ACA
ARM GAS  /tmp/cc6gOb22.s 			page 40


 501 11b7 1815FD07 		.ascii	"\030\025\375\007\030\272\240p,\224q\276\251S\012\012"
 501      18BAA070 
 501      2C9471BE 
 501      A9530A0A 
 502 11c7 7D931F7F 		.ascii	"}\223\037\177\244P\234Z(=\362h\241\277\240`J\341X\254"
 502      A4509C5A 
 502      283DF268 
 502      A1BFA060 
 502      4AE158AC 
 503 11db C7F90A0A 		.ascii	"\307\371\012\012\036)\224\012~3Mzbj\201\364pa\241TX"
 503      1E29940A 
 503      7E334D7A 
 503      626A81F4 
 503      7061A154 
 504 11f0 00BF61C0 		.ascii	"\000\277a\300\277N\236V(M\246#\247<\\(\376\033\0335"
 504      BF4E9E56 
 504      284DA623 
 504      A73C5C28 
 504      FE1B1B35 
 505 1204 1EFA4F2F 		.ascii	"\036\372O/\314w91qu\245\313:Nj\266\374FA\011!\231J\373"
 505      CC773931 
 505      7175A5CB 
 505      3A4E6AB6 
 505      FC464109 
 506 121c F78E4E57 		.ascii	"\367\216NWM\0256\234\352\367QE\235\212\012\231\006\203"
 506      4D15369C 
 506      EAF75145 
 506      9D8A0A99 
 506      0683
 507 122e A78FE070 		.ascii	"\247\217\340pf*\2545\336\235\222\230\035B\245\2454\""
 507      662AAC35 
 507      DE9D9298 
 507      1D42A5A5 
 507      3422
 508 1240 0C672DC4 		.ascii	"\014g-\304\010WT\301\022\025\371!\317\"\334F\016}\364"
 508      085754C1 
 508      1215F921 
 508      CF22DC46 
 508      0E7DF4
 509 1253 773014C2 		.ascii	"w0\024\3025:4\330h\214\376\305C\017\214\273\323$\023"
 509      353A34D8 
 509      688CFEC5 
 509      430F8CBB 
 509      D32413
 510 1266 58900DE1 		.ascii	"X\220\015\341;\215\177\340\377\000\336\231L\266"
 510      3B8D7FE0 
 510      FF00DE99 
 510      4CB6
 511              		.text
 512              		.section	.gnu.lto_.symtab.335c8a8ac0785a1c,"",%progbits
 513 0000 5F76745F 		.ascii	"_vt_init\000\000\000\000\000\000\000\000\000\000\000"
 513      696E6974 
 513      00000000 
 513      00000000 
 513      000000
 514 0013 00AB0100 		.ascii	"\000\253\001\000\000chVTDoSetI\000\000\000\000\000\000"
 514      00636856 
ARM GAS  /tmp/cc6gOb22.s 			page 41


 514      54446F53 
 514      65744900 
 514      00000000 
 515 0028 00000000 		.ascii	"\000\000\000\000\000\000\257\001\000\000chVTDoReset"
 515      0000AF01 
 515      00006368 
 515      5654446F 
 515      52657365 
 516 003d 49000000 		.ascii	"I\000\000\000\000\000\000\000\000\000\000\000\000\275"
 516      00000000 
 516      00000000 
 516      00BD
 517 004b 01000063 		.ascii	"\001\000\000ch\000\000\002\000\000\000\000\000\000\000"
 517      68000002 
 517      00000000 
 517      000000
 518 005a 0000CB01 		.ascii	"\000\000\313\001\000\000stStopAlarm\000\000\002\000"
 518      00007374 
 518      53746F70 
 518      416C6172 
 518      6D000002 
 519 006f 00000000 		.ascii	"\000\000\000\000\000\000\000\000\303\001\000\000stS"
 519      00000000 
 519      C3010000 
 519      737453
 520 007e 6574416C 		.ascii	"etAlarm\000\000\002\000\000\000\000\000\000\000\000"
 520      61726D00 
 520      00020000 
 520      00000000 
 520      0000
 521 0090 00C50100 		.ascii	"\000\305\001\000\000stStartAlarm\000\000\002\000\000"
 521      00737453 
 521      74617274 
 521      416C6172 
 521      6D000002 
 522 00a6 00000000 		.ascii	"\000\000\000\000\000\000\000\311\001\000\000"
 522      000000C9 
 522      010000
 523              		.text
 524              		.section	.gnu.lto_.opts,"",%progbits
 525 0000 272D6D63 		.ascii	"'-mcpu=cortex-m3' '-mno-thumb-interwork' '-mthumb' "
 525      70753D63 
 525      6F727465 
 525      782D6D33 
 525      2720272D 
 526 0033 272D6767 		.ascii	"'-ggdb' '-O2' '-fomit-frame-pointer' '-falign-funct"
 526      64622720 
 526      272D4F32 
 526      2720272D 
 526      666F6D69 
 527 0066 696F6E73 		.ascii	"ions=16' '-ffunction-sections' '-fdata-sections' '-"
 527      3D313627 
 527      20272D66 
 527      66756E63 
 527      74696F6E 
 528 0099 666E6F2D 		.ascii	"fno-common' '-flto'\000"
 528      636F6D6D 
ARM GAS  /tmp/cc6gOb22.s 			page 42


 528      6F6E2720 
 528      272D666C 
 528      746F2700 
 529              		.text
 530              		.cfi_sections	.debug_frame
 531              		.section	.text._vt_init,"ax",%progbits
 532              		.align	2
 533              		.p2align 4,,15
 534              		.global	_vt_init
 535              		.thumb
 536              		.thumb_func
 537              		.type	_vt_init, %function
 538              	_vt_init:
 539              	.LFB188:
 540              		.file 1 "../../../os/rt/src/chvt.c"
 541              		.loc 1 61 0
 542              		.cfi_startproc
 543              		@ args = 0, pretend = 0, frame = 0
 544              		@ frame_needed = 0, uses_anonymous_args = 0
 545              		@ link register save eliminated.
 546              		.loc 1 63 0
 547 0000 40F20003 		movw	r3, #:lower16:ch
 548 0004 C0F20003 		movt	r3, #:upper16:ch
 549 0008 03F11C02 		add	r2, r3, #28
 550              		.loc 1 65 0
 551 000c 4FF6FF70 		movw	r0, #65535
 552              		.loc 1 69 0
 553 0010 0021     		movs	r1, #0
 554              		.loc 1 65 0
 555 0012 9884     		strh	r0, [r3, #36]	@ movhi
 556              		.loc 1 69 0
 557 0014 D984     		strh	r1, [r3, #38]	@ movhi
 558              		.loc 1 63 0
 559 0016 DA61     		str	r2, [r3, #28]
 560              		.loc 1 64 0
 561 0018 1A62     		str	r2, [r3, #32]
 562 001a 7047     		bx	lr
 563              		.cfi_endproc
 564              	.LFE188:
 565              		.size	_vt_init, .-_vt_init
 566 001c AFF30080 		.section	.text.chVTDoSetI,"ax",%progbits
 567              		.align	2
 568              		.p2align 4,,15
 569              		.global	chVTDoSetI
 570              		.thumb
 571              		.thumb_func
 572              		.type	chVTDoSetI, %function
 573              	chVTDoSetI:
 574              	.LFB189:
 575              		.loc 1 96 0
 576              		.cfi_startproc
 577              		@ args = 0, pretend = 0, frame = 0
 578              		@ frame_needed = 0, uses_anonymous_args = 0
 579              	.LVL0:
 580 0000 F8B5     		push	{r3, r4, r5, r6, r7, lr}
 581              		.cfi_def_cfa_offset 24
 582              		.cfi_offset 3, -24
ARM GAS  /tmp/cc6gOb22.s 			page 43


 583              		.cfi_offset 4, -20
 584              		.cfi_offset 5, -16
 585              		.cfi_offset 6, -12
 586              		.cfi_offset 7, -8
 587              		.cfi_offset 14, -4
 588              	.LBB35:
 589              		.loc 1 117 0
 590 0002 40F20007 		movw	r7, #:lower16:ch
 591 0006 C0F20007 		movt	r7, #:upper16:ch
 592 000a BC46     		mov	ip, r7
 593 000c 5CF81C4F 		ldr	r4, [ip, #28]!
 594              	.LBB36:
 595              	.LBB37:
 596              	.LBB38:
 597              	.LBB39:
 598              		.file 2 "../../../os/hal/ports/STM32/LLD/TIMv1/hal_st_lld.h"
 599              		.loc 2 141 0
 600 0010 4FF08045 		mov	r5, #1073741824
 601 0014 6D6A     		ldr	r5, [r5, #36]
 602              	.LBE39:
 603              	.LBE38:
 604              	.LBE37:
 605              	.LBE36:
 606              		.loc 1 113 0
 607 0016 0129     		cmp	r1, #1
 608 0018 98BF     		it	ls
 609 001a 0221     		movls	r1, #2
 610              	.LVL1:
 611              		.loc 1 117 0
 612 001c 6445     		cmp	r4, ip
 613              	.LBE35:
 614              		.loc 1 103 0
 615 001e 0361     		str	r3, [r0, #16]
 616              		.loc 1 96 0
 617 0020 0646     		mov	r6, r0
 618              		.loc 1 104 0
 619 0022 C260     		str	r2, [r0, #12]
 620              	.LBB50:
 621              	.LBB43:
 622              	.LBB42:
 623              	.LBB41:
 624              	.LBB40:
 625              		.loc 2 141 0
 626 0024 ABB2     		uxth	r3, r5
 627              	.LVL2:
 628              	.LBE40:
 629              	.LBE41:
 630              	.LBE42:
 631              	.LBE43:
 632              		.loc 1 117 0
 633 0026 27D0     		beq	.L14
 634              	.LVL3:
 635              		.loc 1 139 0
 636 0028 FA8C     		ldrh	r2, [r7, #38]
 637              	.LVL4:
 638 002a 9B1A     		subs	r3, r3, r2
 639 002c CD18     		adds	r5, r1, r3
ARM GAS  /tmp/cc6gOb22.s 			page 44


 640 002e ADB2     		uxth	r5, r5
 641              	.LVL5:
 642              		.loc 1 141 0
 643 0030 9D42     		cmp	r5, r3
 644              		.loc 1 145 0
 645 0032 2389     		ldrh	r3, [r4, #8]
 646              		.loc 1 141 0
 647 0034 15DB     		blt	.L15
 648              		.loc 1 148 0
 649 0036 9D42     		cmp	r5, r3
 650 0038 04D2     		bcs	.L12
 651 003a 17E0     		b	.L17
 652              	.LVL6:
 653              	.L9:
 654              	.LBE50:
 655              		.loc 1 166 0
 656 003c 2468     		ldr	r4, [r4]
 657              	.LVL7:
 658              		.loc 1 165 0
 659 003e ED1A     		subs	r5, r5, r3
 660              	.LVL8:
 661              		.loc 1 164 0
 662 0040 2389     		ldrh	r3, [r4, #8]
 663              		.loc 1 165 0
 664 0042 ADB2     		uxth	r5, r5
 665              	.L12:
 666              	.LVL9:
 667              		.loc 1 164 0
 668 0044 AB42     		cmp	r3, r5
 669 0046 F9D3     		bcc	.L9
 670              		.loc 1 171 0
 671 0048 6368     		ldr	r3, [r4, #4]
 672              		.loc 1 170 0
 673 004a 3460     		str	r4, [r6]
 674              		.loc 1 171 0
 675 004c 7360     		str	r3, [r6, #4]
 676              		.loc 1 172 0
 677 004e 1E60     		str	r6, [r3]
 678              		.loc 1 173 0
 679 0050 6660     		str	r6, [r4, #4]
 680              		.loc 1 174 0
 681 0052 3581     		strh	r5, [r6, #8]	@ movhi
 682              		.loc 1 178 0
 683 0054 2289     		ldrh	r2, [r4, #8]
 684              		.loc 1 179 0
 685 0056 4FF6FF73 		movw	r3, #65535
 686              		.loc 1 178 0
 687 005a 551B     		subs	r5, r2, r5
 688              	.LVL10:
 689 005c 2581     		strh	r5, [r4, #8]	@ movhi
 690              		.loc 1 179 0
 691 005e BB84     		strh	r3, [r7, #36]	@ movhi
 692 0060 F8BD     		pop	{r3, r4, r5, r6, r7, pc}
 693              	.LVL11:
 694              	.L15:
 695              	.LBB51:
 696              		.loc 1 146 0
ARM GAS  /tmp/cc6gOb22.s 			page 45


 697 0062 2468     		ldr	r4, [r4]
 698              	.LVL12:
 699              		.loc 1 145 0
 700 0064 ED1A     		subs	r5, r5, r3
 701              	.LVL13:
 702 0066 ADB2     		uxth	r5, r5
 703              	.LVL14:
 704 0068 2389     		ldrh	r3, [r4, #8]
 705 006a EBE7     		b	.L12
 706              	.L17:
 707              	.LVL15:
 708              		.loc 1 151 0
 709 006c A818     		adds	r0, r5, r2
 710              	.LVL16:
 711              	.LBB44:
 712              	.LBB45:
 713              		.file 3 "../../../os/common/ports/ARMCMx/chcore_timer.h"
 714              		.loc 3 95 0
 715 006e 80B2     		uxth	r0, r0
 716 0070 FFF7FEFF 		bl	stSetAlarm
 717              	.LVL17:
 718 0074 2389     		ldrh	r3, [r4, #8]
 719 0076 E5E7     		b	.L12
 720              	.LVL18:
 721              	.L14:
 722              	.LBE45:
 723              	.LBE44:
 724              		.loc 1 129 0
 725 0078 C818     		adds	r0, r1, r3
 726              	.LVL19:
 727              		.loc 1 121 0
 728 007a FB84     		strh	r3, [r7, #38]	@ movhi
 729              		.loc 1 122 0
 730 007c FE61     		str	r6, [r7, #28]
 731              		.loc 1 123 0
 732 007e 3E62     		str	r6, [r7, #32]
 733              	.LBB46:
 734              	.LBB47:
 735              		.loc 3 73 0
 736 0080 80B2     		uxth	r0, r0
 737              	.LBE47:
 738              	.LBE46:
 739              		.loc 1 124 0
 740 0082 3460     		str	r4, [r6]
 741              		.loc 1 125 0
 742 0084 7460     		str	r4, [r6, #4]
 743              		.loc 1 126 0
 744 0086 3181     		strh	r1, [r6, #8]	@ movhi
 745              	.LVL20:
 746              	.LBE51:
 747              		.loc 1 180 0
 748 0088 BDE8F840 		pop	{r3, r4, r5, r6, r7, lr}
 749              	.LVL21:
 750              	.LBB52:
 751              	.LBB49:
 752              	.LBB48:
 753              		.loc 3 73 0
ARM GAS  /tmp/cc6gOb22.s 			page 46


 754 008c FFF7FEBF 		b	stStartAlarm
 755              	.LVL22:
 756              	.LBE48:
 757              	.LBE49:
 758              	.LBE52:
 759              		.cfi_endproc
 760              	.LFE189:
 761              		.size	chVTDoSetI, .-chVTDoSetI
 762              		.section	.text.chVTDoResetI,"ax",%progbits
 763              		.align	2
 764              		.p2align 4,,15
 765              		.global	chVTDoResetI
 766              		.thumb
 767              		.thumb_func
 768              		.type	chVTDoResetI, %function
 769              	chVTDoResetI:
 770              	.LFB190:
 771              		.loc 1 190 0
 772              		.cfi_startproc
 773              		@ args = 0, pretend = 0, frame = 0
 774              		@ frame_needed = 0, uses_anonymous_args = 0
 775              		@ link register save eliminated.
 776              	.LVL23:
 777              		.loc 1 214 0
 778 0000 40F20003 		movw	r3, #:lower16:ch
 779 0004 C0F20003 		movt	r3, #:upper16:ch
 780 0008 DA69     		ldr	r2, [r3, #28]
 781              		.loc 1 190 0
 782 000a 70B4     		push	{r4, r5, r6}
 783              		.cfi_def_cfa_offset 12
 784              		.cfi_offset 4, -12
 785              		.cfi_offset 5, -8
 786              		.cfi_offset 6, -4
 787              		.loc 1 214 0
 788 000c 8242     		cmp	r2, r0
 789 000e 0FD0     		beq	.L19
 790              		.loc 1 216 0
 791 0010 0268     		ldr	r2, [r0]
 792 0012 4168     		ldr	r1, [r0, #4]
 793              		.loc 1 221 0
 794 0014 1C33     		adds	r3, r3, #28
 795              		.loc 1 216 0
 796 0016 0A60     		str	r2, [r1]
 797              		.loc 1 217 0
 798 0018 0268     		ldr	r2, [r0]
 799              		.loc 1 218 0
 800 001a 0024     		movs	r4, #0
 801              		.loc 1 221 0
 802 001c 9A42     		cmp	r2, r3
 803              		.loc 1 217 0
 804 001e 5160     		str	r1, [r2, #4]
 805              		.loc 1 218 0
 806 0020 C460     		str	r4, [r0, #12]
 807              		.loc 1 221 0
 808 0022 03D0     		beq	.L18
 809              		.loc 1 222 0
 810 0024 0189     		ldrh	r1, [r0, #8]
ARM GAS  /tmp/cc6gOb22.s 			page 47


 811 0026 1389     		ldrh	r3, [r2, #8]
 812 0028 0B44     		add	r3, r3, r1
 813 002a 1381     		strh	r3, [r2, #8]	@ movhi
 814              	.LVL24:
 815              	.L18:
 816              		.loc 1 268 0
 817 002c 70BC     		pop	{r4, r5, r6}
 818 002e 7047     		bx	lr
 819              	.LVL25:
 820              	.L19:
 821              	.LBB63:
 822              	.LBB64:
 823              		.loc 1 228 0
 824 0030 1168     		ldr	r1, [r2]
 825 0032 1846     		mov	r0, r3
 826              	.LVL26:
 827 0034 40F81C1F 		str	r1, [r0, #28]!
 828              		.loc 1 230 0
 829 0038 0024     		movs	r4, #0
 830              		.loc 1 233 0
 831 003a 8142     		cmp	r1, r0
 832              		.loc 1 229 0
 833 003c 4860     		str	r0, [r1, #4]
 834              		.loc 1 230 0
 835 003e D460     		str	r4, [r2, #12]
 836              		.loc 1 233 0
 837 0040 17D0     		beq	.L26
 838              	.LBB65:
 839              	.LBB66:
 840              	.LBB67:
 841              	.LBB68:
 842              		.loc 2 141 0
 843 0042 4FF08040 		mov	r0, #1073741824
 844 0046 466A     		ldr	r6, [r0, #36]
 845              	.LBE68:
 846              	.LBE67:
 847              	.LBE66:
 848              	.LBE65:
 849              		.loc 1 240 0
 850 0048 1589     		ldrh	r5, [r2, #8]
 851              		.loc 1 249 0
 852 004a D88C     		ldrh	r0, [r3, #38]
 853              		.loc 1 240 0
 854 004c 0C89     		ldrh	r4, [r1, #8]
 855              	.LBB72:
 856              	.LBB71:
 857              	.LBB70:
 858              	.LBB69:
 859              		.loc 2 141 0
 860 004e B2B2     		uxth	r2, r6
 861              	.LVL27:
 862              	.LBE69:
 863              	.LBE70:
 864              	.LBE71:
 865              	.LBE72:
 866              		.loc 1 240 0
 867 0050 2B19     		adds	r3, r5, r4
ARM GAS  /tmp/cc6gOb22.s 			page 48


 868              		.loc 1 249 0
 869 0052 101A     		subs	r0, r2, r0
 870              		.loc 1 240 0
 871 0054 9BB2     		uxth	r3, r3
 872              		.loc 1 249 0
 873 0056 80B2     		uxth	r0, r0
 874              	.LVL28:
 875              		.loc 1 253 0
 876 0058 8342     		cmp	r3, r0
 877              		.loc 1 240 0
 878 005a 0B81     		strh	r3, [r1, #8]	@ movhi
 879              		.loc 1 253 0
 880 005c E6D9     		bls	.L18
 881              	.LBE64:
 882              	.LBE63:
 883              		.loc 1 268 0
 884 005e 70BC     		pop	{r4, r5, r6}
 885              	.LBB79:
 886              	.LBB77:
 887              		.loc 1 258 0
 888 0060 1B1A     		subs	r3, r3, r0
 889 0062 9BB2     		uxth	r3, r3
 890              	.LVL29:
 891              		.loc 1 263 0
 892 0064 012B     		cmp	r3, #1
 893 0066 98BF     		it	ls
 894 0068 0223     		movls	r3, #2
 895              	.LVL30:
 896              		.loc 1 266 0
 897 006a 9818     		adds	r0, r3, r2
 898              	.LVL31:
 899              	.LBB73:
 900              	.LBB74:
 901              		.loc 3 95 0
 902 006c 80B2     		uxth	r0, r0
 903 006e FFF7FEBF 		b	stSetAlarm
 904              	.LVL32:
 905              	.L26:
 906              	.LBE74:
 907              	.LBE73:
 908              	.LBE77:
 909              	.LBE79:
 910              		.loc 1 268 0
 911 0072 70BC     		pop	{r4, r5, r6}
 912              	.LBB80:
 913              	.LBB78:
 914              	.LBB75:
 915              	.LBB76:
 916              		.loc 3 83 0
 917 0074 FFF7FEBF 		b	stStopAlarm
 918              	.LVL33:
 919              	.LBE76:
 920              	.LBE75:
 921              	.LBE78:
 922              	.LBE80:
 923              		.cfi_endproc
 924              	.LFE190:
ARM GAS  /tmp/cc6gOb22.s 			page 49


 925              		.size	chVTDoResetI, .-chVTDoResetI
 926 0078 AFF30080 		.text
 926      AFF30080 
 927              	.Letext0:
 928              		.file 4 "/usr/include/newlib/machine/_default_types.h"
 929              		.file 5 "/usr/include/newlib/stdint.h"
 930              		.file 6 "../../../os/common/ports/ARMCMx/compilers/GCC/chtypes.h"
 931              		.file 7 "../../../os/rt/include/chsystypes.h"
 932              		.file 8 "../../../os/rt/include/chschd.h"
 933              		.file 9 "../../../os/common/ports/ARMCMx/chcore.h"
 934              		.file 10 "../../../os/common/ports/ARMCMx/chcore_v7m.h"
 935              		.file 11 "../../../os/hal/ports/STM32/LLD/TIMv1/stm32_tim.h"
 936              		.file 12 "../../../os/rt/include/chsem.h"
 937              		.file 13 "../../../os/rt/include/chmtx.h"
 938              		.file 14 "../../../os/rt/include/chvt.h"
 939              		.file 15 "../../../os/hal/include/hal_st.h"
 940              		.file 16 "../../../os/common/ext/CMSIS/include/core_cm3.h"
 941              		.section	.debug_info,"",%progbits
 942              	.Ldebug_info0:
 943 0000 070A0000 		.4byte	0xa07
 944 0004 0400     		.2byte	0x4
 945 0006 00000000 		.4byte	.Ldebug_abbrev0
 946 000a 04       		.byte	0x4
 947 000b 01       		.uleb128 0x1
 948 000c 1C030000 		.4byte	.LASF113
 949 0010 01       		.byte	0x1
 950 0011 93020000 		.4byte	.LASF114
 951 0015 DC030000 		.4byte	.LASF115
 952 0019 90000000 		.4byte	.Ldebug_ranges0+0x90
 953 001d 00000000 		.4byte	0
 954 0021 00000000 		.4byte	.Ldebug_line0
 955 0025 02       		.uleb128 0x2
 956 0026 04       		.byte	0x4
 957 0027 05       		.byte	0x5
 958 0028 696E7400 		.ascii	"int\000"
 959 002c 03       		.uleb128 0x3
 960 002d 04       		.byte	0x4
 961 002e 07       		.byte	0x7
 962 002f 52000000 		.4byte	.LASF0
 963 0033 03       		.uleb128 0x3
 964 0034 01       		.byte	0x1
 965 0035 06       		.byte	0x6
 966 0036 70050000 		.4byte	.LASF1
 967 003a 04       		.uleb128 0x4
 968 003b 9E040000 		.4byte	.LASF4
 969 003f 04       		.byte	0x4
 970 0040 1C       		.byte	0x1c
 971 0041 45000000 		.4byte	0x45
 972 0045 03       		.uleb128 0x3
 973 0046 01       		.byte	0x1
 974 0047 08       		.byte	0x8
 975 0048 1A050000 		.4byte	.LASF2
 976 004c 03       		.uleb128 0x3
 977 004d 02       		.byte	0x2
 978 004e 05       		.byte	0x5
 979 004f 3E040000 		.4byte	.LASF3
 980 0053 04       		.uleb128 0x4
ARM GAS  /tmp/cc6gOb22.s 			page 50


 981 0054 9A010000 		.4byte	.LASF5
 982 0058 04       		.byte	0x4
 983 0059 26       		.byte	0x26
 984 005a 5E000000 		.4byte	0x5e
 985 005e 03       		.uleb128 0x3
 986 005f 02       		.byte	0x2
 987 0060 07       		.byte	0x7
 988 0061 82050000 		.4byte	.LASF6
 989 0065 04       		.uleb128 0x4
 990 0066 86000000 		.4byte	.LASF7
 991 006a 04       		.byte	0x4
 992 006b 37       		.byte	0x37
 993 006c 70000000 		.4byte	0x70
 994 0070 03       		.uleb128 0x3
 995 0071 04       		.byte	0x4
 996 0072 05       		.byte	0x5
 997 0073 48040000 		.4byte	.LASF8
 998 0077 04       		.uleb128 0x4
 999 0078 28050000 		.4byte	.LASF9
 1000 007c 04       		.byte	0x4
 1001 007d 38       		.byte	0x38
 1002 007e 82000000 		.4byte	0x82
 1003 0082 03       		.uleb128 0x3
 1004 0083 04       		.byte	0x4
 1005 0084 07       		.byte	0x7
 1006 0085 D4040000 		.4byte	.LASF10
 1007 0089 03       		.uleb128 0x3
 1008 008a 08       		.byte	0x8
 1009 008b 05       		.byte	0x5
 1010 008c EB020000 		.4byte	.LASF11
 1011 0090 04       		.uleb128 0x4
 1012 0091 27020000 		.4byte	.LASF12
 1013 0095 04       		.byte	0x4
 1014 0096 4E       		.byte	0x4e
 1015 0097 9B000000 		.4byte	0x9b
 1016 009b 03       		.uleb128 0x3
 1017 009c 08       		.byte	0x8
 1018 009d 07       		.byte	0x7
 1019 009e 70010000 		.4byte	.LASF13
 1020 00a2 04       		.uleb128 0x4
 1021 00a3 8B020000 		.4byte	.LASF14
 1022 00a7 05       		.byte	0x5
 1023 00a8 2A       		.byte	0x2a
 1024 00a9 3A000000 		.4byte	0x3a
 1025 00ad 04       		.uleb128 0x4
 1026 00ae 30040000 		.4byte	.LASF15
 1027 00b2 05       		.byte	0x5
 1028 00b3 36       		.byte	0x36
 1029 00b4 53000000 		.4byte	0x53
 1030 00b8 04       		.uleb128 0x4
 1031 00b9 04050000 		.4byte	.LASF16
 1032 00bd 05       		.byte	0x5
 1033 00be 41       		.byte	0x41
 1034 00bf 65000000 		.4byte	0x65
 1035 00c3 04       		.uleb128 0x4
 1036 00c4 FE000000 		.4byte	.LASF17
 1037 00c8 05       		.byte	0x5
ARM GAS  /tmp/cc6gOb22.s 			page 51


 1038 00c9 42       		.byte	0x42
 1039 00ca 77000000 		.4byte	0x77
 1040 00ce 04       		.uleb128 0x4
 1041 00cf 8F040000 		.4byte	.LASF18
 1042 00d3 05       		.byte	0x5
 1043 00d4 4E       		.byte	0x4e
 1044 00d5 90000000 		.4byte	0x90
 1045 00d9 04       		.uleb128 0x4
 1046 00da C9030000 		.4byte	.LASF19
 1047 00de 06       		.byte	0x6
 1048 00df 3C       		.byte	0x3c
 1049 00e0 A2000000 		.4byte	0xa2
 1050 00e4 04       		.uleb128 0x4
 1051 00e5 82020000 		.4byte	.LASF20
 1052 00e9 06       		.byte	0x6
 1053 00ea 3D       		.byte	0x3d
 1054 00eb A2000000 		.4byte	0xa2
 1055 00ef 04       		.uleb128 0x4
 1056 00f0 B6040000 		.4byte	.LASF21
 1057 00f4 06       		.byte	0x6
 1058 00f5 3E       		.byte	0x3e
 1059 00f6 A2000000 		.4byte	0xa2
 1060 00fa 04       		.uleb128 0x4
 1061 00fb 45010000 		.4byte	.LASF22
 1062 00ff 06       		.byte	0x6
 1063 0100 40       		.byte	0x40
 1064 0101 C3000000 		.4byte	0xc3
 1065 0105 04       		.uleb128 0x4
 1066 0106 F9020000 		.4byte	.LASF23
 1067 010a 06       		.byte	0x6
 1068 010b 41       		.byte	0x41
 1069 010c B8000000 		.4byte	0xb8
 1070 0110 04       		.uleb128 0x4
 1071 0111 1A010000 		.4byte	.LASF24
 1072 0115 06       		.byte	0x6
 1073 0116 43       		.byte	0x43
 1074 0117 C3000000 		.4byte	0xc3
 1075 011b 04       		.uleb128 0x4
 1076 011c A5010000 		.4byte	.LASF25
 1077 0120 06       		.byte	0x6
 1078 0121 45       		.byte	0x45
 1079 0122 B8000000 		.4byte	0xb8
 1080 0126 04       		.uleb128 0x4
 1081 0127 2F000000 		.4byte	.LASF26
 1082 012b 07       		.byte	0x7
 1083 012c 35       		.byte	0x35
 1084 012d AD000000 		.4byte	0xad
 1085 0131 04       		.uleb128 0x4
 1086 0132 EE010000 		.4byte	.LASF27
 1087 0136 07       		.byte	0x7
 1088 0137 3F       		.byte	0x3f
 1089 0138 3C010000 		.4byte	0x13c
 1090 013c 05       		.uleb128 0x5
 1091 013d BB020000 		.4byte	.LASF45
 1092 0141 44       		.byte	0x44
 1093 0142 08       		.byte	0x8
 1094 0143 9A       		.byte	0x9a
ARM GAS  /tmp/cc6gOb22.s 			page 52


 1095 0144 1A020000 		.4byte	0x21a
 1096 0148 06       		.uleb128 0x6
 1097 0149 FE040000 		.4byte	.LASF28
 1098 014d 08       		.byte	0x8
 1099 014e 9B       		.byte	0x9b
 1100 014f 4F020000 		.4byte	0x24f
 1101 0153 00       		.byte	0
 1102 0154 06       		.uleb128 0x6
 1103 0155 4B020000 		.4byte	.LASF29
 1104 0159 08       		.byte	0x8
 1105 015a 9C       		.byte	0x9c
 1106 015b FA000000 		.4byte	0xfa
 1107 015f 08       		.byte	0x8
 1108 0160 07       		.uleb128 0x7
 1109 0161 63747800 		.ascii	"ctx\000"
 1110 0165 08       		.byte	0x8
 1111 0166 9D       		.byte	0x9d
 1112 0167 60040000 		.4byte	0x460
 1113 016b 0C       		.byte	0xc
 1114 016c 06       		.uleb128 0x6
 1115 016d 14050000 		.4byte	.LASF30
 1116 0171 08       		.byte	0x8
 1117 0172 9F       		.byte	0x9f
 1118 0173 25020000 		.4byte	0x225
 1119 0177 10       		.byte	0x10
 1120 0178 06       		.uleb128 0x6
 1121 0179 A8050000 		.4byte	.LASF31
 1122 017d 08       		.byte	0x8
 1123 017e A0       		.byte	0xa0
 1124 017f 25020000 		.4byte	0x225
 1125 0183 14       		.byte	0x14
 1126 0184 06       		.uleb128 0x6
 1127 0185 A8040000 		.4byte	.LASF32
 1128 0189 08       		.byte	0x8
 1129 018a A7       		.byte	0xa7
 1130 018b E7060000 		.4byte	0x6e7
 1131 018f 18       		.byte	0x18
 1132 0190 06       		.uleb128 0x6
 1133 0191 7B020000 		.4byte	.LASF33
 1134 0195 08       		.byte	0x8
 1135 0196 B0       		.byte	0xb0
 1136 0197 F9060000 		.4byte	0x6f9
 1137 019b 1C       		.byte	0x1c
 1138 019c 06       		.uleb128 0x6
 1139 019d 51050000 		.4byte	.LASF34
 1140 01a1 08       		.byte	0x8
 1141 01a2 B5       		.byte	0xb5
 1142 01a3 E4000000 		.4byte	0xe4
 1143 01a7 20       		.byte	0x20
 1144 01a8 06       		.uleb128 0x6
 1145 01a9 29000000 		.4byte	.LASF35
 1146 01ad 08       		.byte	0x8
 1147 01ae B9       		.byte	0xb9
 1148 01af D9000000 		.4byte	0xd9
 1149 01b3 21       		.byte	0x21
 1150 01b4 06       		.uleb128 0x6
 1151 01b5 90000000 		.4byte	.LASF36
ARM GAS  /tmp/cc6gOb22.s 			page 53


 1152 01b9 08       		.byte	0x8
 1153 01ba BE       		.byte	0xbe
 1154 01bb EF000000 		.4byte	0xef
 1155 01bf 22       		.byte	0x22
 1156 01c0 08       		.uleb128 0x8
 1157 01c1 7500     		.ascii	"u\000"
 1158 01c3 08       		.byte	0x8
 1159 01c4 0F01     		.2byte	0x10f
 1160 01c6 1C060000 		.4byte	0x61c
 1161 01ca 24       		.byte	0x24
 1162 01cb 09       		.uleb128 0x9
 1163 01cc 33050000 		.4byte	.LASF37
 1164 01d0 08       		.byte	0x8
 1165 01d1 1401     		.2byte	0x114
 1166 01d3 2B020000 		.4byte	0x22b
 1167 01d7 28       		.byte	0x28
 1168 01d8 09       		.uleb128 0x9
 1169 01d9 AD020000 		.4byte	.LASF38
 1170 01dd 08       		.byte	0x8
 1171 01de 1A01     		.2byte	0x11a
 1172 01e0 4F020000 		.4byte	0x24f
 1173 01e4 2C       		.byte	0x2c
 1174 01e5 09       		.uleb128 0x9
 1175 01e6 49000000 		.4byte	.LASF39
 1176 01ea 08       		.byte	0x8
 1177 01eb 2001     		.2byte	0x120
 1178 01ed 10010000 		.4byte	0x110
 1179 01f1 34       		.byte	0x34
 1180 01f2 09       		.uleb128 0x9
 1181 01f3 CF010000 		.4byte	.LASF40
 1182 01f7 08       		.byte	0x8
 1183 01f8 2701     		.2byte	0x127
 1184 01fa E1060000 		.4byte	0x6e1
 1185 01fe 38       		.byte	0x38
 1186 01ff 09       		.uleb128 0x9
 1187 0200 39000000 		.4byte	.LASF41
 1188 0204 08       		.byte	0x8
 1189 0205 2B01     		.2byte	0x12b
 1190 0207 FA000000 		.4byte	0xfa
 1191 020b 3C       		.byte	0x3c
 1192 020c 09       		.uleb128 0x9
 1193 020d B7050000 		.4byte	.LASF42
 1194 0211 08       		.byte	0x8
 1195 0212 3201     		.2byte	0x132
 1196 0214 02030000 		.4byte	0x302
 1197 0218 40       		.byte	0x40
 1198 0219 00       		.byte	0
 1199 021a 04       		.uleb128 0x4
 1200 021b 68020000 		.4byte	.LASF43
 1201 021f 07       		.byte	0x7
 1202 0220 44       		.byte	0x44
 1203 0221 25020000 		.4byte	0x225
 1204 0225 0A       		.uleb128 0xa
 1205 0226 04       		.byte	0x4
 1206 0227 31010000 		.4byte	0x131
 1207 022b 04       		.uleb128 0x4
 1208 022c 77000000 		.4byte	.LASF44
ARM GAS  /tmp/cc6gOb22.s 			page 54


 1209 0230 07       		.byte	0x7
 1210 0231 49       		.byte	0x49
 1211 0232 36020000 		.4byte	0x236
 1212 0236 05       		.uleb128 0x5
 1213 0237 00000000 		.4byte	.LASF46
 1214 023b 04       		.byte	0x4
 1215 023c 08       		.byte	0x8
 1216 023d 88       		.byte	0x88
 1217 023e 4F020000 		.4byte	0x24f
 1218 0242 06       		.uleb128 0x6
 1219 0243 5F000000 		.4byte	.LASF47
 1220 0247 08       		.byte	0x8
 1221 0248 89       		.byte	0x89
 1222 0249 25020000 		.4byte	0x225
 1223 024d 00       		.byte	0
 1224 024e 00       		.byte	0
 1225 024f 04       		.uleb128 0x4
 1226 0250 BF010000 		.4byte	.LASF48
 1227 0254 07       		.byte	0x7
 1228 0255 50       		.byte	0x50
 1229 0256 5A020000 		.4byte	0x25a
 1230 025a 05       		.uleb128 0x5
 1231 025b CF000000 		.4byte	.LASF49
 1232 025f 08       		.byte	0x8
 1233 0260 08       		.byte	0x8
 1234 0261 8F       		.byte	0x8f
 1235 0262 7F020000 		.4byte	0x27f
 1236 0266 06       		.uleb128 0x6
 1237 0267 5F000000 		.4byte	.LASF47
 1238 026b 08       		.byte	0x8
 1239 026c 90       		.byte	0x90
 1240 026d 25020000 		.4byte	0x225
 1241 0271 00       		.byte	0
 1242 0272 06       		.uleb128 0x6
 1243 0273 CA000000 		.4byte	.LASF50
 1244 0277 08       		.byte	0x8
 1245 0278 91       		.byte	0x91
 1246 0279 25020000 		.4byte	0x225
 1247 027d 04       		.byte	0x4
 1248 027e 00       		.byte	0
 1249 027f 04       		.uleb128 0x4
 1250 0280 F1040000 		.4byte	.LASF51
 1251 0284 07       		.byte	0x7
 1252 0285 57       		.byte	0x57
 1253 0286 8A020000 		.4byte	0x28a
 1254 028a 0B       		.uleb128 0xb
 1255 028b B0000000 		.4byte	.LASF52
 1256 028f 1C       		.byte	0x1c
 1257 0290 08       		.byte	0x8
 1258 0291 6A01     		.2byte	0x16a
 1259 0293 E6020000 		.4byte	0x2e6
 1260 0297 09       		.uleb128 0x9
 1261 0298 FE040000 		.4byte	.LASF28
 1262 029c 08       		.byte	0x8
 1263 029d 6B01     		.2byte	0x16b
 1264 029f 4F020000 		.4byte	0x24f
 1265 02a3 00       		.byte	0
ARM GAS  /tmp/cc6gOb22.s 			page 55


 1266 02a4 09       		.uleb128 0x9
 1267 02a5 4B020000 		.4byte	.LASF29
 1268 02a9 08       		.byte	0x8
 1269 02aa 6C01     		.2byte	0x16c
 1270 02ac FA000000 		.4byte	0xfa
 1271 02b0 08       		.byte	0x8
 1272 02b1 08       		.uleb128 0x8
 1273 02b2 63747800 		.ascii	"ctx\000"
 1274 02b6 08       		.byte	0x8
 1275 02b7 6E01     		.2byte	0x16e
 1276 02b9 60040000 		.4byte	0x460
 1277 02bd 0C       		.byte	0xc
 1278 02be 09       		.uleb128 0x9
 1279 02bf 14050000 		.4byte	.LASF30
 1280 02c3 08       		.byte	0x8
 1281 02c4 7101     		.2byte	0x171
 1282 02c6 25020000 		.4byte	0x225
 1283 02ca 10       		.byte	0x10
 1284 02cb 09       		.uleb128 0x9
 1285 02cc A8050000 		.4byte	.LASF31
 1286 02d0 08       		.byte	0x8
 1287 02d1 7201     		.2byte	0x172
 1288 02d3 25020000 		.4byte	0x225
 1289 02d7 14       		.byte	0x14
 1290 02d8 09       		.uleb128 0x9
 1291 02d9 A0050000 		.4byte	.LASF53
 1292 02dd 08       		.byte	0x8
 1293 02de 7501     		.2byte	0x175
 1294 02e0 25020000 		.4byte	0x225
 1295 02e4 18       		.byte	0x18
 1296 02e5 00       		.byte	0
 1297 02e6 04       		.uleb128 0x4
 1298 02e7 E5000000 		.4byte	.LASF54
 1299 02eb 07       		.byte	0x7
 1300 02ec 5C       		.byte	0x5c
 1301 02ed F1020000 		.4byte	0x2f1
 1302 02f1 0A       		.uleb128 0xa
 1303 02f2 04       		.byte	0x4
 1304 02f3 F7020000 		.4byte	0x2f7
 1305 02f7 0C       		.uleb128 0xc
 1306 02f8 02030000 		.4byte	0x302
 1307 02fc 0D       		.uleb128 0xd
 1308 02fd 02030000 		.4byte	0x302
 1309 0301 00       		.byte	0
 1310 0302 0E       		.uleb128 0xe
 1311 0303 04       		.byte	0x4
 1312 0304 04       		.uleb128 0x4
 1313 0305 0C030000 		.4byte	.LASF55
 1314 0309 07       		.byte	0x7
 1315 030a 61       		.byte	0x61
 1316 030b 0F030000 		.4byte	0x30f
 1317 030f 0B       		.uleb128 0xb
 1318 0310 4D010000 		.4byte	.LASF56
 1319 0314 14       		.byte	0x14
 1320 0315 08       		.byte	0x8
 1321 0316 4501     		.2byte	0x145
 1322 0318 5E030000 		.4byte	0x35e
ARM GAS  /tmp/cc6gOb22.s 			page 56


 1323 031c 09       		.uleb128 0x9
 1324 031d 5F000000 		.4byte	.LASF47
 1325 0321 08       		.byte	0x8
 1326 0322 4601     		.2byte	0x146
 1327 0324 FF060000 		.4byte	0x6ff
 1328 0328 00       		.byte	0
 1329 0329 09       		.uleb128 0x9
 1330 032a CA000000 		.4byte	.LASF50
 1331 032e 08       		.byte	0x8
 1332 032f 4701     		.2byte	0x147
 1333 0331 FF060000 		.4byte	0x6ff
 1334 0335 04       		.byte	0x4
 1335 0336 09       		.uleb128 0x9
 1336 0337 7C050000 		.4byte	.LASF57
 1337 033b 08       		.byte	0x8
 1338 033c 4801     		.2byte	0x148
 1339 033e 26010000 		.4byte	0x126
 1340 0342 08       		.byte	0x8
 1341 0343 09       		.uleb128 0x9
 1342 0344 BE000000 		.4byte	.LASF58
 1343 0348 08       		.byte	0x8
 1344 0349 4901     		.2byte	0x149
 1345 034b E6020000 		.4byte	0x2e6
 1346 034f 0C       		.byte	0xc
 1347 0350 08       		.uleb128 0x8
 1348 0351 70617200 		.ascii	"par\000"
 1349 0355 08       		.byte	0x8
 1350 0356 4B01     		.2byte	0x14b
 1351 0358 02030000 		.4byte	0x302
 1352 035c 10       		.byte	0x10
 1353 035d 00       		.byte	0
 1354 035e 04       		.uleb128 0x4
 1355 035f 3B050000 		.4byte	.LASF59
 1356 0363 07       		.byte	0x7
 1357 0364 66       		.byte	0x66
 1358 0365 69030000 		.4byte	0x369
 1359 0369 0B       		.uleb128 0xb
 1360 036a D7010000 		.4byte	.LASF60
 1361 036e 0C       		.byte	0xc
 1362 036f 08       		.byte	0x8
 1363 0370 5501     		.2byte	0x155
 1364 0372 AB030000 		.4byte	0x3ab
 1365 0376 09       		.uleb128 0x9
 1366 0377 5F000000 		.4byte	.LASF47
 1367 037b 08       		.byte	0x8
 1368 037c 5601     		.2byte	0x156
 1369 037e FF060000 		.4byte	0x6ff
 1370 0382 00       		.byte	0
 1371 0383 09       		.uleb128 0x9
 1372 0384 CA000000 		.4byte	.LASF50
 1373 0388 08       		.byte	0x8
 1374 0389 5801     		.2byte	0x158
 1375 038b FF060000 		.4byte	0x6ff
 1376 038f 04       		.byte	0x4
 1377 0390 09       		.uleb128 0x9
 1378 0391 7C050000 		.4byte	.LASF57
 1379 0395 08       		.byte	0x8
ARM GAS  /tmp/cc6gOb22.s 			page 57


 1380 0396 5A01     		.2byte	0x15a
 1381 0398 26010000 		.4byte	0x126
 1382 039c 08       		.byte	0x8
 1383 039d 09       		.uleb128 0x9
 1384 039e 86040000 		.4byte	.LASF61
 1385 03a2 08       		.byte	0x8
 1386 03a3 6201     		.2byte	0x162
 1387 03a5 26010000 		.4byte	0x126
 1388 03a9 0A       		.byte	0xa
 1389 03aa 00       		.byte	0
 1390 03ab 04       		.uleb128 0x4
 1391 03ac DC020000 		.4byte	.LASF62
 1392 03b0 07       		.byte	0x7
 1393 03b1 6B       		.byte	0x6b
 1394 03b2 B6030000 		.4byte	0x3b6
 1395 03b6 0B       		.uleb128 0xb
 1396 03b7 EE000000 		.4byte	.LASF63
 1397 03bb 04       		.byte	0x4
 1398 03bc 08       		.byte	0x8
 1399 03bd 7C01     		.2byte	0x17c
 1400 03bf D1030000 		.4byte	0x3d1
 1401 03c3 09       		.uleb128 0x9
 1402 03c4 BF030000 		.4byte	.LASF64
 1403 03c8 08       		.byte	0x8
 1404 03c9 8401     		.2byte	0x184
 1405 03cb 05070000 		.4byte	0x705
 1406 03cf 00       		.byte	0
 1407 03d0 00       		.byte	0
 1408 03d1 04       		.uleb128 0x4
 1409 03d2 57050000 		.4byte	.LASF65
 1410 03d6 07       		.byte	0x7
 1411 03d7 70       		.byte	0x70
 1412 03d8 DC030000 		.4byte	0x3dc
 1413 03dc 0B       		.uleb128 0xb
 1414 03dd 70040000 		.4byte	.LASF66
 1415 03e1 70       		.byte	0x70
 1416 03e2 08       		.byte	0x8
 1417 03e3 9C01     		.2byte	0x19c
 1418 03e5 1E040000 		.4byte	0x41e
 1419 03e9 09       		.uleb128 0x9
 1420 03ea 98040000 		.4byte	.LASF67
 1421 03ee 08       		.byte	0x8
 1422 03ef A001     		.2byte	0x1a0
 1423 03f1 7F020000 		.4byte	0x27f
 1424 03f5 00       		.byte	0
 1425 03f6 09       		.uleb128 0x9
 1426 03f7 9C000000 		.4byte	.LASF68
 1427 03fb 08       		.byte	0x8
 1428 03fc A401     		.2byte	0x1a4
 1429 03fe 5E030000 		.4byte	0x35e
 1430 0402 1C       		.byte	0x1c
 1431 0403 08       		.uleb128 0x8
 1432 0404 64626700 		.ascii	"dbg\000"
 1433 0408 08       		.byte	0x8
 1434 0409 A801     		.2byte	0x1a8
 1435 040b AB030000 		.4byte	0x3ab
 1436 040f 28       		.byte	0x28
ARM GAS  /tmp/cc6gOb22.s 			page 58


 1437 0410 09       		.uleb128 0x9
 1438 0411 D1030000 		.4byte	.LASF69
 1439 0415 08       		.byte	0x8
 1440 0416 AC01     		.2byte	0x1ac
 1441 0418 31010000 		.4byte	0x131
 1442 041c 2C       		.byte	0x2c
 1443 041d 00       		.byte	0
 1444 041e 03       		.uleb128 0x3
 1445 041f 04       		.byte	0x4
 1446 0420 07       		.byte	0x7
 1447 0421 AD040000 		.4byte	.LASF70
 1448 0425 0F       		.uleb128 0xf
 1449 0426 C3000000 		.4byte	0xc3
 1450 042a 10       		.uleb128 0x10
 1451 042b C3000000 		.4byte	0xc3
 1452 042f 3A040000 		.4byte	0x43a
 1453 0433 11       		.uleb128 0x11
 1454 0434 1E040000 		.4byte	0x41e
 1455 0438 01       		.byte	0x1
 1456 0439 00       		.byte	0
 1457 043a 10       		.uleb128 0x10
 1458 043b C3000000 		.4byte	0xc3
 1459 043f 4A040000 		.4byte	0x44a
 1460 0443 11       		.uleb128 0x11
 1461 0444 1E040000 		.4byte	0x41e
 1462 0448 03       		.byte	0x3
 1463 0449 00       		.byte	0
 1464 044a 04       		.uleb128 0x4
 1465 044b 17000000 		.4byte	.LASF71
 1466 044f 09       		.byte	0x9
 1467 0450 65       		.byte	0x65
 1468 0451 02030000 		.4byte	0x302
 1469 0455 04       		.uleb128 0x4
 1470 0456 95050000 		.4byte	.LASF72
 1471 045a 09       		.byte	0x9
 1472 045b 6D       		.byte	0x6d
 1473 045c CE000000 		.4byte	0xce
 1474 0460 05       		.uleb128 0x5
 1475 0461 A3000000 		.4byte	.LASF73
 1476 0465 04       		.byte	0x4
 1477 0466 09       		.byte	0x9
 1478 0467 89       		.byte	0x89
 1479 0468 78040000 		.4byte	0x478
 1480 046c 07       		.uleb128 0x7
 1481 046d 737000   		.ascii	"sp\000"
 1482 0470 09       		.byte	0x9
 1483 0471 8A       		.byte	0x8a
 1484 0472 F4040000 		.4byte	0x4f4
 1485 0476 00       		.byte	0
 1486 0477 00       		.byte	0
 1487 0478 0B       		.uleb128 0xb
 1488 0479 51040000 		.4byte	.LASF74
 1489 047d 24       		.byte	0x24
 1490 047e 0A       		.byte	0xa
 1491 047f 5901     		.2byte	0x159
 1492 0481 F4040000 		.4byte	0x4f4
 1493 0485 08       		.uleb128 0x8
ARM GAS  /tmp/cc6gOb22.s 			page 59


 1494 0486 723400   		.ascii	"r4\000"
 1495 0489 0A       		.byte	0xa
 1496 048a 6C01     		.2byte	0x16c
 1497 048c 4A040000 		.4byte	0x44a
 1498 0490 00       		.byte	0
 1499 0491 08       		.uleb128 0x8
 1500 0492 723500   		.ascii	"r5\000"
 1501 0495 0A       		.byte	0xa
 1502 0496 6D01     		.2byte	0x16d
 1503 0498 4A040000 		.4byte	0x44a
 1504 049c 04       		.byte	0x4
 1505 049d 08       		.uleb128 0x8
 1506 049e 723600   		.ascii	"r6\000"
 1507 04a1 0A       		.byte	0xa
 1508 04a2 6E01     		.2byte	0x16e
 1509 04a4 4A040000 		.4byte	0x44a
 1510 04a8 08       		.byte	0x8
 1511 04a9 08       		.uleb128 0x8
 1512 04aa 723700   		.ascii	"r7\000"
 1513 04ad 0A       		.byte	0xa
 1514 04ae 6F01     		.2byte	0x16f
 1515 04b0 4A040000 		.4byte	0x44a
 1516 04b4 0C       		.byte	0xc
 1517 04b5 08       		.uleb128 0x8
 1518 04b6 723800   		.ascii	"r8\000"
 1519 04b9 0A       		.byte	0xa
 1520 04ba 7001     		.2byte	0x170
 1521 04bc 4A040000 		.4byte	0x44a
 1522 04c0 10       		.byte	0x10
 1523 04c1 08       		.uleb128 0x8
 1524 04c2 723900   		.ascii	"r9\000"
 1525 04c5 0A       		.byte	0xa
 1526 04c6 7101     		.2byte	0x171
 1527 04c8 4A040000 		.4byte	0x44a
 1528 04cc 14       		.byte	0x14
 1529 04cd 08       		.uleb128 0x8
 1530 04ce 72313000 		.ascii	"r10\000"
 1531 04d2 0A       		.byte	0xa
 1532 04d3 7201     		.2byte	0x172
 1533 04d5 4A040000 		.4byte	0x44a
 1534 04d9 18       		.byte	0x18
 1535 04da 08       		.uleb128 0x8
 1536 04db 72313100 		.ascii	"r11\000"
 1537 04df 0A       		.byte	0xa
 1538 04e0 7301     		.2byte	0x173
 1539 04e2 4A040000 		.4byte	0x44a
 1540 04e6 1C       		.byte	0x1c
 1541 04e7 08       		.uleb128 0x8
 1542 04e8 6C7200   		.ascii	"lr\000"
 1543 04eb 0A       		.byte	0xa
 1544 04ec 7401     		.2byte	0x174
 1545 04ee 4A040000 		.4byte	0x44a
 1546 04f2 20       		.byte	0x20
 1547 04f3 00       		.byte	0
 1548 04f4 0A       		.uleb128 0xa
 1549 04f5 04       		.byte	0x4
 1550 04f6 78040000 		.4byte	0x478
ARM GAS  /tmp/cc6gOb22.s 			page 60


 1551 04fa 12       		.uleb128 0x12
 1552 04fb 60       		.byte	0x60
 1553 04fc 0B       		.byte	0xb
 1554 04fd A101     		.2byte	0x1a1
 1555 04ff 06060000 		.4byte	0x606
 1556 0503 08       		.uleb128 0x8
 1557 0504 43523100 		.ascii	"CR1\000"
 1558 0508 0B       		.byte	0xb
 1559 0509 A201     		.2byte	0x1a2
 1560 050b 25040000 		.4byte	0x425
 1561 050f 00       		.byte	0
 1562 0510 08       		.uleb128 0x8
 1563 0511 43523200 		.ascii	"CR2\000"
 1564 0515 0B       		.byte	0xb
 1565 0516 A301     		.2byte	0x1a3
 1566 0518 25040000 		.4byte	0x425
 1567 051c 04       		.byte	0x4
 1568 051d 09       		.uleb128 0x9
 1569 051e B6020000 		.4byte	.LASF75
 1570 0522 0B       		.byte	0xb
 1571 0523 A401     		.2byte	0x1a4
 1572 0525 25040000 		.4byte	0x425
 1573 0529 08       		.byte	0x8
 1574 052a 09       		.uleb128 0x9
 1575 052b 32020000 		.4byte	.LASF76
 1576 052f 0B       		.byte	0xb
 1577 0530 A501     		.2byte	0x1a5
 1578 0532 25040000 		.4byte	0x425
 1579 0536 0C       		.byte	0xc
 1580 0537 08       		.uleb128 0x8
 1581 0538 535200   		.ascii	"SR\000"
 1582 053b 0B       		.byte	0xb
 1583 053c A601     		.2byte	0x1a6
 1584 053e 25040000 		.4byte	0x425
 1585 0542 10       		.byte	0x10
 1586 0543 08       		.uleb128 0x8
 1587 0544 45475200 		.ascii	"EGR\000"
 1588 0548 0B       		.byte	0xb
 1589 0549 A701     		.2byte	0x1a7
 1590 054b 25040000 		.4byte	0x425
 1591 054f 14       		.byte	0x14
 1592 0550 09       		.uleb128 0x9
 1593 0551 5E010000 		.4byte	.LASF77
 1594 0555 0B       		.byte	0xb
 1595 0556 A801     		.2byte	0x1a8
 1596 0558 25040000 		.4byte	0x425
 1597 055c 18       		.byte	0x18
 1598 055d 09       		.uleb128 0x9
 1599 055e 64010000 		.4byte	.LASF78
 1600 0562 0B       		.byte	0xb
 1601 0563 A901     		.2byte	0x1a9
 1602 0565 25040000 		.4byte	0x425
 1603 0569 1C       		.byte	0x1c
 1604 056a 09       		.uleb128 0x9
 1605 056b 5E020000 		.4byte	.LASF79
 1606 056f 0B       		.byte	0xb
 1607 0570 AA01     		.2byte	0x1aa
ARM GAS  /tmp/cc6gOb22.s 			page 61


 1608 0572 25040000 		.4byte	0x425
 1609 0576 20       		.byte	0x20
 1610 0577 08       		.uleb128 0x8
 1611 0578 434E5400 		.ascii	"CNT\000"
 1612 057c 0B       		.byte	0xb
 1613 057d AB01     		.2byte	0x1ab
 1614 057f 25040000 		.4byte	0x425
 1615 0583 24       		.byte	0x24
 1616 0584 08       		.uleb128 0x8
 1617 0585 50534300 		.ascii	"PSC\000"
 1618 0589 0B       		.byte	0xb
 1619 058a AC01     		.2byte	0x1ac
 1620 058c 25040000 		.4byte	0x425
 1621 0590 28       		.byte	0x28
 1622 0591 08       		.uleb128 0x8
 1623 0592 41525200 		.ascii	"ARR\000"
 1624 0596 0B       		.byte	0xb
 1625 0597 AD01     		.2byte	0x1ad
 1626 0599 25040000 		.4byte	0x425
 1627 059d 2C       		.byte	0x2c
 1628 059e 08       		.uleb128 0x8
 1629 059f 52435200 		.ascii	"RCR\000"
 1630 05a3 0B       		.byte	0xb
 1631 05a4 AE01     		.2byte	0x1ae
 1632 05a6 25040000 		.4byte	0x425
 1633 05aa 30       		.byte	0x30
 1634 05ab 08       		.uleb128 0x8
 1635 05ac 43435200 		.ascii	"CCR\000"
 1636 05b0 0B       		.byte	0xb
 1637 05b1 AF01     		.2byte	0x1af
 1638 05b3 06060000 		.4byte	0x606
 1639 05b7 34       		.byte	0x34
 1640 05b8 09       		.uleb128 0x9
 1641 05b9 26010000 		.4byte	.LASF80
 1642 05bd 0B       		.byte	0xb
 1643 05be B001     		.2byte	0x1b0
 1644 05c0 25040000 		.4byte	0x425
 1645 05c4 44       		.byte	0x44
 1646 05c5 08       		.uleb128 0x8
 1647 05c6 44435200 		.ascii	"DCR\000"
 1648 05ca 0B       		.byte	0xb
 1649 05cb B101     		.2byte	0x1b1
 1650 05cd 25040000 		.4byte	0x425
 1651 05d1 48       		.byte	0x48
 1652 05d2 09       		.uleb128 0x9
 1653 05d3 E0000000 		.4byte	.LASF81
 1654 05d7 0B       		.byte	0xb
 1655 05d8 B201     		.2byte	0x1b2
 1656 05da 25040000 		.4byte	0x425
 1657 05de 4C       		.byte	0x4c
 1658 05df 08       		.uleb128 0x8
 1659 05e0 4F5200   		.ascii	"OR\000"
 1660 05e3 0B       		.byte	0xb
 1661 05e4 B301     		.2byte	0x1b3
 1662 05e6 25040000 		.4byte	0x425
 1663 05ea 50       		.byte	0x50
 1664 05eb 09       		.uleb128 0x9
ARM GAS  /tmp/cc6gOb22.s 			page 62


 1665 05ec 6A010000 		.4byte	.LASF82
 1666 05f0 0B       		.byte	0xb
 1667 05f1 B401     		.2byte	0x1b4
 1668 05f3 25040000 		.4byte	0x425
 1669 05f7 54       		.byte	0x54
 1670 05f8 09       		.uleb128 0x9
 1671 05f9 39040000 		.4byte	.LASF83
 1672 05fd 0B       		.byte	0xb
 1673 05fe B501     		.2byte	0x1b5
 1674 0600 0B060000 		.4byte	0x60b
 1675 0604 58       		.byte	0x58
 1676 0605 00       		.byte	0
 1677 0606 0F       		.uleb128 0xf
 1678 0607 3A040000 		.4byte	0x43a
 1679 060b 0F       		.uleb128 0xf
 1680 060c 2A040000 		.4byte	0x42a
 1681 0610 13       		.uleb128 0x13
 1682 0611 FE010000 		.4byte	.LASF84
 1683 0615 0B       		.byte	0xb
 1684 0616 B601     		.2byte	0x1b6
 1685 0618 FA040000 		.4byte	0x4fa
 1686 061c 14       		.uleb128 0x14
 1687 061d 04       		.byte	0x4
 1688 061e 08       		.byte	0x8
 1689 061f D2       		.byte	0xd2
 1690 0620 7F060000 		.4byte	0x67f
 1691 0624 15       		.uleb128 0x15
 1692 0625 F7010000 		.4byte	.LASF85
 1693 0629 08       		.byte	0x8
 1694 062a D9       		.byte	0xd9
 1695 062b 05010000 		.4byte	0x105
 1696 062f 15       		.uleb128 0x15
 1697 0630 AE050000 		.4byte	.LASF86
 1698 0634 08       		.byte	0x8
 1699 0635 E0       		.byte	0xe0
 1700 0636 05010000 		.4byte	0x105
 1701 063a 15       		.uleb128 0x15
 1702 063b 95000000 		.4byte	.LASF87
 1703 063f 08       		.byte	0x8
 1704 0640 E7       		.byte	0xe7
 1705 0641 02030000 		.4byte	0x302
 1706 0645 15       		.uleb128 0x15
 1707 0646 6A050000 		.4byte	.LASF88
 1708 064a 08       		.byte	0x8
 1709 064b EE       		.byte	0xee
 1710 064c 7F060000 		.4byte	0x67f
 1711 0650 15       		.uleb128 0x15
 1712 0651 12010000 		.4byte	.LASF89
 1713 0655 08       		.byte	0x8
 1714 0656 F3       		.byte	0xf3
 1715 0657 05010000 		.4byte	0x105
 1716 065b 15       		.uleb128 0x15
 1717 065c 63050000 		.4byte	.LASF90
 1718 0660 08       		.byte	0x8
 1719 0661 FC       		.byte	0xfc
 1720 0662 AA060000 		.4byte	0x6aa
 1721 0666 16       		.uleb128 0x16
ARM GAS  /tmp/cc6gOb22.s 			page 63


 1722 0667 10000000 		.4byte	.LASF91
 1723 066b 08       		.byte	0x8
 1724 066c 0501     		.2byte	0x105
 1725 066e E1060000 		.4byte	0x6e1
 1726 0672 16       		.uleb128 0x16
 1727 0673 C3000000 		.4byte	.LASF92
 1728 0677 08       		.byte	0x8
 1729 0678 0D01     		.2byte	0x10d
 1730 067a 10010000 		.4byte	0x110
 1731 067e 00       		.byte	0
 1732 067f 0A       		.uleb128 0xa
 1733 0680 04       		.byte	0x4
 1734 0681 1A020000 		.4byte	0x21a
 1735 0685 05       		.uleb128 0x5
 1736 0686 38010000 		.4byte	.LASF93
 1737 068a 0C       		.byte	0xc
 1738 068b 0C       		.byte	0xc
 1739 068c 34       		.byte	0x34
 1740 068d AA060000 		.4byte	0x6aa
 1741 0691 06       		.uleb128 0x6
 1742 0692 FE040000 		.4byte	.LASF28
 1743 0696 0C       		.byte	0xc
 1744 0697 35       		.byte	0x35
 1745 0698 4F020000 		.4byte	0x24f
 1746 069c 00       		.byte	0
 1747 069d 07       		.uleb128 0x7
 1748 069e 636E7400 		.ascii	"cnt\000"
 1749 06a2 0C       		.byte	0xc
 1750 06a3 37       		.byte	0x37
 1751 06a4 1B010000 		.4byte	0x11b
 1752 06a8 08       		.byte	0x8
 1753 06a9 00       		.byte	0
 1754 06aa 0A       		.uleb128 0xa
 1755 06ab 04       		.byte	0x4
 1756 06ac 85060000 		.4byte	0x685
 1757 06b0 05       		.uleb128 0x5
 1758 06b1 1E020000 		.4byte	.LASF94
 1759 06b5 10       		.byte	0x10
 1760 06b6 0D       		.byte	0xd
 1761 06b7 39       		.byte	0x39
 1762 06b8 E1060000 		.4byte	0x6e1
 1763 06bc 06       		.uleb128 0x6
 1764 06bd FE040000 		.4byte	.LASF28
 1765 06c1 0D       		.byte	0xd
 1766 06c2 3A       		.byte	0x3a
 1767 06c3 4F020000 		.4byte	0x24f
 1768 06c7 00       		.byte	0
 1769 06c8 06       		.uleb128 0x6
 1770 06c9 B9010000 		.4byte	.LASF95
 1771 06cd 0D       		.byte	0xd
 1772 06ce 3C       		.byte	0x3c
 1773 06cf 25020000 		.4byte	0x225
 1774 06d3 08       		.byte	0x8
 1775 06d4 06       		.uleb128 0x6
 1776 06d5 5F000000 		.4byte	.LASF47
 1777 06d9 0D       		.byte	0xd
 1778 06da 3E       		.byte	0x3e
ARM GAS  /tmp/cc6gOb22.s 			page 64


 1779 06db 15070000 		.4byte	0x715
 1780 06df 0C       		.byte	0xc
 1781 06e0 00       		.byte	0
 1782 06e1 0A       		.uleb128 0xa
 1783 06e2 04       		.byte	0x4
 1784 06e3 B0060000 		.4byte	0x6b0
 1785 06e7 0A       		.uleb128 0xa
 1786 06e8 04       		.byte	0x4
 1787 06e9 ED060000 		.4byte	0x6ed
 1788 06ed 17       		.uleb128 0x17
 1789 06ee F2060000 		.4byte	0x6f2
 1790 06f2 03       		.uleb128 0x3
 1791 06f3 01       		.byte	0x1
 1792 06f4 08       		.byte	0x8
 1793 06f5 63020000 		.4byte	.LASF96
 1794 06f9 0A       		.uleb128 0xa
 1795 06fa 04       		.byte	0x4
 1796 06fb 55040000 		.4byte	0x455
 1797 06ff 0A       		.uleb128 0xa
 1798 0700 04       		.byte	0x4
 1799 0701 04030000 		.4byte	0x304
 1800 0705 0F       		.uleb128 0xf
 1801 0706 E7060000 		.4byte	0x6e7
 1802 070a 04       		.uleb128 0x4
 1803 070b 0C050000 		.4byte	.LASF97
 1804 070f 0D       		.byte	0xd
 1805 0710 34       		.byte	0x34
 1806 0711 B0060000 		.4byte	0x6b0
 1807 0715 0A       		.uleb128 0xa
 1808 0716 04       		.byte	0x4
 1809 0717 0A070000 		.4byte	0x70a
 1810 071b 03       		.uleb128 0x3
 1811 071c 01       		.byte	0x1
 1812 071d 02       		.byte	0x2
 1813 071e 18020000 		.4byte	.LASF98
 1814 0722 18       		.uleb128 0x18
 1815 0723 87010000 		.4byte	.LASF99
 1816 0727 02       		.byte	0x2
 1817 0728 8B       		.byte	0x8b
 1818 0729 26010000 		.4byte	0x126
 1819 072d 03       		.byte	0x3
 1820 072e 18       		.uleb128 0x18
 1821 072f 37020000 		.4byte	.LASF100
 1822 0733 03       		.byte	0x3
 1823 0734 69       		.byte	0x69
 1824 0735 26010000 		.4byte	0x126
 1825 0739 03       		.byte	0x3
 1826 073a 19       		.uleb128 0x19
 1827 073b 64000000 		.4byte	.LASF101
 1828 073f 0E       		.byte	0xe
 1829 0740 8801     		.2byte	0x188
 1830 0742 26010000 		.4byte	0x126
 1831 0746 03       		.byte	0x3
 1832 0747 1A       		.uleb128 0x1a
 1833 0748 C5020000 		.4byte	.LASF102
 1834 074c 03       		.byte	0x3
 1835 074d 47       		.byte	0x47
ARM GAS  /tmp/cc6gOb22.s 			page 65


 1836 074e 03       		.byte	0x3
 1837 074f 5F070000 		.4byte	0x75f
 1838 0753 1B       		.uleb128 0x1b
 1839 0754 B4010000 		.4byte	.LASF104
 1840 0758 03       		.byte	0x3
 1841 0759 47       		.byte	0x47
 1842 075a 26010000 		.4byte	0x126
 1843 075e 00       		.byte	0
 1844 075f 1A       		.uleb128 0x1a
 1845 0760 1B040000 		.4byte	.LASF103
 1846 0764 03       		.byte	0x3
 1847 0765 5D       		.byte	0x5d
 1848 0766 03       		.byte	0x3
 1849 0767 77070000 		.4byte	0x777
 1850 076b 1B       		.uleb128 0x1b
 1851 076c B4010000 		.4byte	.LASF104
 1852 0770 03       		.byte	0x3
 1853 0771 5D       		.byte	0x5d
 1854 0772 26010000 		.4byte	0x126
 1855 0776 00       		.byte	0
 1856 0777 1C       		.uleb128 0x1c
 1857 0778 BE040000 		.4byte	.LASF116
 1858 077c 03       		.byte	0x3
 1859 077d 51       		.byte	0x51
 1860 077e 03       		.byte	0x3
 1861 077f 1D       		.uleb128 0x1d
 1862 0780 FF020000 		.4byte	.LASF110
 1863 0784 01       		.byte	0x1
 1864 0785 BE       		.byte	0xbe
 1865 0786 01       		.byte	0x1
 1866 0787 BA070000 		.4byte	0x7ba
 1867 078b 1E       		.uleb128 0x1e
 1868 078c 76747000 		.ascii	"vtp\000"
 1869 0790 01       		.byte	0x1
 1870 0791 BE       		.byte	0xbe
 1871 0792 FF060000 		.4byte	0x6ff
 1872 0796 1F       		.uleb128 0x1f
 1873 0797 50020000 		.4byte	.LASF105
 1874 079b CA070000 		.4byte	0x7ca
 1875 079f FF020000 		.4byte	.LASF110
 1876 07a3 20       		.uleb128 0x20
 1877 07a4 AB010000 		.4byte	.LASF106
 1878 07a8 01       		.byte	0x1
 1879 07a9 D2       		.byte	0xd2
 1880 07aa 26010000 		.4byte	0x126
 1881 07ae 20       		.uleb128 0x20
 1882 07af 7C050000 		.4byte	.LASF57
 1883 07b3 01       		.byte	0x1
 1884 07b4 D2       		.byte	0xd2
 1885 07b5 26010000 		.4byte	0x126
 1886 07b9 00       		.byte	0
 1887 07ba 10       		.uleb128 0x10
 1888 07bb F2060000 		.4byte	0x6f2
 1889 07bf CA070000 		.4byte	0x7ca
 1890 07c3 11       		.uleb128 0x11
 1891 07c4 1E040000 		.4byte	0x41e
 1892 07c8 0C       		.byte	0xc
ARM GAS  /tmp/cc6gOb22.s 			page 66


 1893 07c9 00       		.byte	0
 1894 07ca 17       		.uleb128 0x17
 1895 07cb BA070000 		.4byte	0x7ba
 1896 07cf 21       		.uleb128 0x21
 1897 07d0 20000000 		.4byte	.LASF117
 1898 07d4 01       		.byte	0x1
 1899 07d5 3D       		.byte	0x3d
 1900 07d6 00000000 		.4byte	.LFB188
 1901 07da 1C000000 		.4byte	.LFE188-.LFB188
 1902 07de 01       		.uleb128 0x1
 1903 07df 9C       		.byte	0x9c
 1904 07e0 22       		.uleb128 0x22
 1905 07e1 E6040000 		.4byte	.LASF118
 1906 07e5 01       		.byte	0x1
 1907 07e6 5F       		.byte	0x5f
 1908 07e7 00000000 		.4byte	.LFB189
 1909 07eb 90000000 		.4byte	.LFE189-.LFB189
 1910 07ef 01       		.uleb128 0x1
 1911 07f0 9C       		.byte	0x9c
 1912 07f1 E4080000 		.4byte	0x8e4
 1913 07f5 23       		.uleb128 0x23
 1914 07f6 76747000 		.ascii	"vtp\000"
 1915 07fa 01       		.byte	0x1
 1916 07fb 5F       		.byte	0x5f
 1917 07fc FF060000 		.4byte	0x6ff
 1918 0800 00000000 		.4byte	.LLST0
 1919 0804 24       		.uleb128 0x24
 1920 0805 6A040000 		.4byte	.LASF107
 1921 0809 01       		.byte	0x1
 1922 080a 5F       		.byte	0x5f
 1923 080b 26010000 		.4byte	0x126
 1924 080f 64000000 		.4byte	.LLST1
 1925 0813 24       		.uleb128 0x24
 1926 0814 42000000 		.4byte	.LASF108
 1927 0818 01       		.byte	0x1
 1928 0819 60       		.byte	0x60
 1929 081a E6020000 		.4byte	0x2e6
 1930 081e A6000000 		.4byte	.LLST2
 1931 0822 23       		.uleb128 0x23
 1932 0823 70617200 		.ascii	"par\000"
 1933 0827 01       		.byte	0x1
 1934 0828 60       		.byte	0x60
 1935 0829 02030000 		.4byte	0x302
 1936 082d 12010000 		.4byte	.LLST3
 1937 0831 25       		.uleb128 0x25
 1938 0832 7000     		.ascii	"p\000"
 1939 0834 01       		.byte	0x1
 1940 0835 61       		.byte	0x61
 1941 0836 FF060000 		.4byte	0x6ff
 1942 083a 9A010000 		.4byte	.LLST4
 1943 083e 26       		.uleb128 0x26
 1944 083f 7C050000 		.4byte	.LASF57
 1945 0843 01       		.byte	0x1
 1946 0844 62       		.byte	0x62
 1947 0845 26010000 		.4byte	0x126
 1948 0849 CF010000 		.4byte	.LLST5
 1949 084d 27       		.uleb128 0x27
ARM GAS  /tmp/cc6gOb22.s 			page 67


 1950 084e 0A020000 		.4byte	.LASF119
 1951 0852 F4080000 		.4byte	0x8f4
 1952 0856 28       		.uleb128 0x28
 1953 0857 00000000 		.4byte	.Ldebug_ranges0+0
 1954 085b 29       		.uleb128 0x29
 1955 085c 6E6F7700 		.ascii	"now\000"
 1956 0860 01       		.byte	0x1
 1957 0861 6C       		.byte	0x6c
 1958 0862 26010000 		.4byte	0x126
 1959 0866 2A       		.uleb128 0x2a
 1960 0867 3A070000 		.4byte	0x73a
 1961 086b 10000000 		.4byte	.LBB36
 1962 086f 28000000 		.4byte	.Ldebug_ranges0+0x28
 1963 0873 01       		.byte	0x1
 1964 0874 6C       		.byte	0x6c
 1965 0875 9A080000 		.4byte	0x89a
 1966 0879 2B       		.uleb128 0x2b
 1967 087a 2E070000 		.4byte	0x72e
 1968 087e 10000000 		.4byte	.LBB37
 1969 0882 28000000 		.4byte	.Ldebug_ranges0+0x28
 1970 0886 0E       		.byte	0xe
 1971 0887 8D01     		.2byte	0x18d
 1972 0889 2C       		.uleb128 0x2c
 1973 088a 22070000 		.4byte	0x722
 1974 088e 10000000 		.4byte	.LBB38
 1975 0892 28000000 		.4byte	.Ldebug_ranges0+0x28
 1976 0896 03       		.byte	0x3
 1977 0897 6B       		.byte	0x6b
 1978 0898 00       		.byte	0
 1979 0899 00       		.byte	0
 1980 089a 2D       		.uleb128 0x2d
 1981 089b 5F070000 		.4byte	0x75f
 1982 089f 6E000000 		.4byte	.LBB44
 1983 08a3 0A000000 		.4byte	.LBE44-.LBB44
 1984 08a7 01       		.byte	0x1
 1985 08a8 97       		.byte	0x97
 1986 08a9 C0080000 		.4byte	0x8c0
 1987 08ad 2E       		.uleb128 0x2e
 1988 08ae 6B070000 		.4byte	0x76b
 1989 08b2 03020000 		.4byte	.LLST6
 1990 08b6 2F       		.uleb128 0x2f
 1991 08b7 74000000 		.4byte	.LVL17
 1992 08bb E1090000 		.4byte	0x9e1
 1993 08bf 00       		.byte	0
 1994 08c0 30       		.uleb128 0x30
 1995 08c1 47070000 		.4byte	0x747
 1996 08c5 80000000 		.4byte	.LBB46
 1997 08c9 40000000 		.4byte	.Ldebug_ranges0+0x40
 1998 08cd 01       		.byte	0x1
 1999 08ce 81       		.byte	0x81
 2000 08cf 2E       		.uleb128 0x2e
 2001 08d0 53070000 		.4byte	0x753
 2002 08d4 1B020000 		.4byte	.LLST7
 2003 08d8 31       		.uleb128 0x31
 2004 08d9 90000000 		.4byte	.LVL22
 2005 08dd F2090000 		.4byte	0x9f2
 2006 08e1 00       		.byte	0
ARM GAS  /tmp/cc6gOb22.s 			page 68


 2007 08e2 00       		.byte	0
 2008 08e3 00       		.byte	0
 2009 08e4 10       		.uleb128 0x10
 2010 08e5 F2060000 		.4byte	0x6f2
 2011 08e9 F4080000 		.4byte	0x8f4
 2012 08ed 11       		.uleb128 0x11
 2013 08ee 1E040000 		.4byte	0x41e
 2014 08f2 0A       		.byte	0xa
 2015 08f3 00       		.byte	0
 2016 08f4 17       		.uleb128 0x17
 2017 08f5 E4080000 		.4byte	0x8e4
 2018 08f9 32       		.uleb128 0x32
 2019 08fa 7F070000 		.4byte	0x77f
 2020 08fe 00000000 		.4byte	.LFB190
 2021 0902 78000000 		.4byte	.LFE190-.LFB190
 2022 0906 01       		.uleb128 0x1
 2023 0907 9C       		.byte	0x9c
 2024 0908 C5090000 		.4byte	0x9c5
 2025 090c 2E       		.uleb128 0x2e
 2026 090d 8B070000 		.4byte	0x78b
 2027 0911 33020000 		.4byte	.LLST8
 2028 0915 33       		.uleb128 0x33
 2029 0916 96070000 		.4byte	0x796
 2030 091a 33       		.uleb128 0x33
 2031 091b A3070000 		.4byte	0x7a3
 2032 091f 33       		.uleb128 0x33
 2033 0920 AE070000 		.4byte	0x7ae
 2034 0924 28       		.uleb128 0x28
 2035 0925 58000000 		.4byte	.Ldebug_ranges0+0x58
 2036 0929 2E       		.uleb128 0x2e
 2037 092a 8B070000 		.4byte	0x78b
 2038 092e 6D020000 		.4byte	.LLST9
 2039 0932 28       		.uleb128 0x28
 2040 0933 58000000 		.4byte	.Ldebug_ranges0+0x58
 2041 0937 34       		.uleb128 0x34
 2042 0938 A3070000 		.4byte	0x7a3
 2043 093c 8B020000 		.4byte	.LLST10
 2044 0940 34       		.uleb128 0x34
 2045 0941 AE070000 		.4byte	0x7ae
 2046 0945 9E020000 		.4byte	.LLST11
 2047 0949 33       		.uleb128 0x33
 2048 094a 96070000 		.4byte	0x796
 2049 094e 2A       		.uleb128 0x2a
 2050 094f 3A070000 		.4byte	0x73a
 2051 0953 42000000 		.4byte	.LBB65
 2052 0957 78000000 		.4byte	.Ldebug_ranges0+0x78
 2053 095b 01       		.byte	0x1
 2054 095c F9       		.byte	0xf9
 2055 095d 82090000 		.4byte	0x982
 2056 0961 2B       		.uleb128 0x2b
 2057 0962 2E070000 		.4byte	0x72e
 2058 0966 42000000 		.4byte	.LBB66
 2059 096a 78000000 		.4byte	.Ldebug_ranges0+0x78
 2060 096e 0E       		.byte	0xe
 2061 096f 8D01     		.2byte	0x18d
 2062 0971 2C       		.uleb128 0x2c
 2063 0972 22070000 		.4byte	0x722
ARM GAS  /tmp/cc6gOb22.s 			page 69


 2064 0976 42000000 		.4byte	.LBB67
 2065 097a 78000000 		.4byte	.Ldebug_ranges0+0x78
 2066 097e 03       		.byte	0x3
 2067 097f 6B       		.byte	0x6b
 2068 0980 00       		.byte	0
 2069 0981 00       		.byte	0
 2070 0982 35       		.uleb128 0x35
 2071 0983 5F070000 		.4byte	0x75f
 2072 0987 6C000000 		.4byte	.LBB73
 2073 098b 06000000 		.4byte	.LBE73-.LBB73
 2074 098f 01       		.byte	0x1
 2075 0990 0A01     		.2byte	0x10a
 2076 0992 A9090000 		.4byte	0x9a9
 2077 0996 2E       		.uleb128 0x2e
 2078 0997 6B070000 		.4byte	0x76b
 2079 099b B1020000 		.4byte	.LLST12
 2080 099f 31       		.uleb128 0x31
 2081 09a0 72000000 		.4byte	.LVL32
 2082 09a4 E1090000 		.4byte	0x9e1
 2083 09a8 00       		.byte	0
 2084 09a9 36       		.uleb128 0x36
 2085 09aa 77070000 		.4byte	0x777
 2086 09ae 74000000 		.4byte	.LBB75
 2087 09b2 04000000 		.4byte	.LBE75-.LBB75
 2088 09b6 01       		.byte	0x1
 2089 09b7 EA       		.byte	0xea
 2090 09b8 31       		.uleb128 0x31
 2091 09b9 78000000 		.4byte	.LVL33
 2092 09bd 030A0000 		.4byte	0xa03
 2093 09c1 00       		.byte	0
 2094 09c2 00       		.byte	0
 2095 09c3 00       		.byte	0
 2096 09c4 00       		.byte	0
 2097 09c5 37       		.uleb128 0x37
 2098 09c6 5D040000 		.4byte	.LASF109
 2099 09ca 10       		.byte	0x10
 2100 09cb 9606     		.2byte	0x696
 2101 09cd D1090000 		.4byte	0x9d1
 2102 09d1 0F       		.uleb128 0xf
 2103 09d2 B8000000 		.4byte	0xb8
 2104 09d6 38       		.uleb128 0x38
 2105 09d7 636800   		.ascii	"ch\000"
 2106 09da 08       		.byte	0x8
 2107 09db D201     		.2byte	0x1d2
 2108 09dd D1030000 		.4byte	0x3d1
 2109 09e1 39       		.uleb128 0x39
 2110 09e2 07010000 		.4byte	.LASF111
 2111 09e6 0F       		.byte	0xf
 2112 09e7 59       		.byte	0x59
 2113 09e8 F2090000 		.4byte	0x9f2
 2114 09ec 0D       		.uleb128 0xd
 2115 09ed 26010000 		.4byte	0x126
 2116 09f1 00       		.byte	0
 2117 09f2 39       		.uleb128 0x39
 2118 09f3 2B010000 		.4byte	.LASF112
 2119 09f7 0F       		.byte	0xf
 2120 09f8 57       		.byte	0x57
ARM GAS  /tmp/cc6gOb22.s 			page 70


 2121 09f9 030A0000 		.4byte	0xa03
 2122 09fd 0D       		.uleb128 0xd
 2123 09fe 26010000 		.4byte	0x126
 2124 0a02 00       		.byte	0
 2125 0a03 3A       		.uleb128 0x3a
 2126 0a04 7A040000 		.4byte	.LASF120
 2127 0a08 0F       		.byte	0xf
 2128 0a09 58       		.byte	0x58
 2129 0a0a 00       		.byte	0
 2130              		.section	.debug_abbrev,"",%progbits
 2131              	.Ldebug_abbrev0:
 2132 0000 01       		.uleb128 0x1
 2133 0001 11       		.uleb128 0x11
 2134 0002 01       		.byte	0x1
 2135 0003 25       		.uleb128 0x25
 2136 0004 0E       		.uleb128 0xe
 2137 0005 13       		.uleb128 0x13
 2138 0006 0B       		.uleb128 0xb
 2139 0007 03       		.uleb128 0x3
 2140 0008 0E       		.uleb128 0xe
 2141 0009 1B       		.uleb128 0x1b
 2142 000a 0E       		.uleb128 0xe
 2143 000b 55       		.uleb128 0x55
 2144 000c 17       		.uleb128 0x17
 2145 000d 11       		.uleb128 0x11
 2146 000e 01       		.uleb128 0x1
 2147 000f 10       		.uleb128 0x10
 2148 0010 17       		.uleb128 0x17
 2149 0011 00       		.byte	0
 2150 0012 00       		.byte	0
 2151 0013 02       		.uleb128 0x2
 2152 0014 24       		.uleb128 0x24
 2153 0015 00       		.byte	0
 2154 0016 0B       		.uleb128 0xb
 2155 0017 0B       		.uleb128 0xb
 2156 0018 3E       		.uleb128 0x3e
 2157 0019 0B       		.uleb128 0xb
 2158 001a 03       		.uleb128 0x3
 2159 001b 08       		.uleb128 0x8
 2160 001c 00       		.byte	0
 2161 001d 00       		.byte	0
 2162 001e 03       		.uleb128 0x3
 2163 001f 24       		.uleb128 0x24
 2164 0020 00       		.byte	0
 2165 0021 0B       		.uleb128 0xb
 2166 0022 0B       		.uleb128 0xb
 2167 0023 3E       		.uleb128 0x3e
 2168 0024 0B       		.uleb128 0xb
 2169 0025 03       		.uleb128 0x3
 2170 0026 0E       		.uleb128 0xe
 2171 0027 00       		.byte	0
 2172 0028 00       		.byte	0
 2173 0029 04       		.uleb128 0x4
 2174 002a 16       		.uleb128 0x16
 2175 002b 00       		.byte	0
 2176 002c 03       		.uleb128 0x3
 2177 002d 0E       		.uleb128 0xe
ARM GAS  /tmp/cc6gOb22.s 			page 71


 2178 002e 3A       		.uleb128 0x3a
 2179 002f 0B       		.uleb128 0xb
 2180 0030 3B       		.uleb128 0x3b
 2181 0031 0B       		.uleb128 0xb
 2182 0032 49       		.uleb128 0x49
 2183 0033 13       		.uleb128 0x13
 2184 0034 00       		.byte	0
 2185 0035 00       		.byte	0
 2186 0036 05       		.uleb128 0x5
 2187 0037 13       		.uleb128 0x13
 2188 0038 01       		.byte	0x1
 2189 0039 03       		.uleb128 0x3
 2190 003a 0E       		.uleb128 0xe
 2191 003b 0B       		.uleb128 0xb
 2192 003c 0B       		.uleb128 0xb
 2193 003d 3A       		.uleb128 0x3a
 2194 003e 0B       		.uleb128 0xb
 2195 003f 3B       		.uleb128 0x3b
 2196 0040 0B       		.uleb128 0xb
 2197 0041 01       		.uleb128 0x1
 2198 0042 13       		.uleb128 0x13
 2199 0043 00       		.byte	0
 2200 0044 00       		.byte	0
 2201 0045 06       		.uleb128 0x6
 2202 0046 0D       		.uleb128 0xd
 2203 0047 00       		.byte	0
 2204 0048 03       		.uleb128 0x3
 2205 0049 0E       		.uleb128 0xe
 2206 004a 3A       		.uleb128 0x3a
 2207 004b 0B       		.uleb128 0xb
 2208 004c 3B       		.uleb128 0x3b
 2209 004d 0B       		.uleb128 0xb
 2210 004e 49       		.uleb128 0x49
 2211 004f 13       		.uleb128 0x13
 2212 0050 38       		.uleb128 0x38
 2213 0051 0B       		.uleb128 0xb
 2214 0052 00       		.byte	0
 2215 0053 00       		.byte	0
 2216 0054 07       		.uleb128 0x7
 2217 0055 0D       		.uleb128 0xd
 2218 0056 00       		.byte	0
 2219 0057 03       		.uleb128 0x3
 2220 0058 08       		.uleb128 0x8
 2221 0059 3A       		.uleb128 0x3a
 2222 005a 0B       		.uleb128 0xb
 2223 005b 3B       		.uleb128 0x3b
 2224 005c 0B       		.uleb128 0xb
 2225 005d 49       		.uleb128 0x49
 2226 005e 13       		.uleb128 0x13
 2227 005f 38       		.uleb128 0x38
 2228 0060 0B       		.uleb128 0xb
 2229 0061 00       		.byte	0
 2230 0062 00       		.byte	0
 2231 0063 08       		.uleb128 0x8
 2232 0064 0D       		.uleb128 0xd
 2233 0065 00       		.byte	0
 2234 0066 03       		.uleb128 0x3
ARM GAS  /tmp/cc6gOb22.s 			page 72


 2235 0067 08       		.uleb128 0x8
 2236 0068 3A       		.uleb128 0x3a
 2237 0069 0B       		.uleb128 0xb
 2238 006a 3B       		.uleb128 0x3b
 2239 006b 05       		.uleb128 0x5
 2240 006c 49       		.uleb128 0x49
 2241 006d 13       		.uleb128 0x13
 2242 006e 38       		.uleb128 0x38
 2243 006f 0B       		.uleb128 0xb
 2244 0070 00       		.byte	0
 2245 0071 00       		.byte	0
 2246 0072 09       		.uleb128 0x9
 2247 0073 0D       		.uleb128 0xd
 2248 0074 00       		.byte	0
 2249 0075 03       		.uleb128 0x3
 2250 0076 0E       		.uleb128 0xe
 2251 0077 3A       		.uleb128 0x3a
 2252 0078 0B       		.uleb128 0xb
 2253 0079 3B       		.uleb128 0x3b
 2254 007a 05       		.uleb128 0x5
 2255 007b 49       		.uleb128 0x49
 2256 007c 13       		.uleb128 0x13
 2257 007d 38       		.uleb128 0x38
 2258 007e 0B       		.uleb128 0xb
 2259 007f 00       		.byte	0
 2260 0080 00       		.byte	0
 2261 0081 0A       		.uleb128 0xa
 2262 0082 0F       		.uleb128 0xf
 2263 0083 00       		.byte	0
 2264 0084 0B       		.uleb128 0xb
 2265 0085 0B       		.uleb128 0xb
 2266 0086 49       		.uleb128 0x49
 2267 0087 13       		.uleb128 0x13
 2268 0088 00       		.byte	0
 2269 0089 00       		.byte	0
 2270 008a 0B       		.uleb128 0xb
 2271 008b 13       		.uleb128 0x13
 2272 008c 01       		.byte	0x1
 2273 008d 03       		.uleb128 0x3
 2274 008e 0E       		.uleb128 0xe
 2275 008f 0B       		.uleb128 0xb
 2276 0090 0B       		.uleb128 0xb
 2277 0091 3A       		.uleb128 0x3a
 2278 0092 0B       		.uleb128 0xb
 2279 0093 3B       		.uleb128 0x3b
 2280 0094 05       		.uleb128 0x5
 2281 0095 01       		.uleb128 0x1
 2282 0096 13       		.uleb128 0x13
 2283 0097 00       		.byte	0
 2284 0098 00       		.byte	0
 2285 0099 0C       		.uleb128 0xc
 2286 009a 15       		.uleb128 0x15
 2287 009b 01       		.byte	0x1
 2288 009c 27       		.uleb128 0x27
 2289 009d 19       		.uleb128 0x19
 2290 009e 01       		.uleb128 0x1
 2291 009f 13       		.uleb128 0x13
ARM GAS  /tmp/cc6gOb22.s 			page 73


 2292 00a0 00       		.byte	0
 2293 00a1 00       		.byte	0
 2294 00a2 0D       		.uleb128 0xd
 2295 00a3 05       		.uleb128 0x5
 2296 00a4 00       		.byte	0
 2297 00a5 49       		.uleb128 0x49
 2298 00a6 13       		.uleb128 0x13
 2299 00a7 00       		.byte	0
 2300 00a8 00       		.byte	0
 2301 00a9 0E       		.uleb128 0xe
 2302 00aa 0F       		.uleb128 0xf
 2303 00ab 00       		.byte	0
 2304 00ac 0B       		.uleb128 0xb
 2305 00ad 0B       		.uleb128 0xb
 2306 00ae 00       		.byte	0
 2307 00af 00       		.byte	0
 2308 00b0 0F       		.uleb128 0xf
 2309 00b1 35       		.uleb128 0x35
 2310 00b2 00       		.byte	0
 2311 00b3 49       		.uleb128 0x49
 2312 00b4 13       		.uleb128 0x13
 2313 00b5 00       		.byte	0
 2314 00b6 00       		.byte	0
 2315 00b7 10       		.uleb128 0x10
 2316 00b8 01       		.uleb128 0x1
 2317 00b9 01       		.byte	0x1
 2318 00ba 49       		.uleb128 0x49
 2319 00bb 13       		.uleb128 0x13
 2320 00bc 01       		.uleb128 0x1
 2321 00bd 13       		.uleb128 0x13
 2322 00be 00       		.byte	0
 2323 00bf 00       		.byte	0
 2324 00c0 11       		.uleb128 0x11
 2325 00c1 21       		.uleb128 0x21
 2326 00c2 00       		.byte	0
 2327 00c3 49       		.uleb128 0x49
 2328 00c4 13       		.uleb128 0x13
 2329 00c5 2F       		.uleb128 0x2f
 2330 00c6 0B       		.uleb128 0xb
 2331 00c7 00       		.byte	0
 2332 00c8 00       		.byte	0
 2333 00c9 12       		.uleb128 0x12
 2334 00ca 13       		.uleb128 0x13
 2335 00cb 01       		.byte	0x1
 2336 00cc 0B       		.uleb128 0xb
 2337 00cd 0B       		.uleb128 0xb
 2338 00ce 3A       		.uleb128 0x3a
 2339 00cf 0B       		.uleb128 0xb
 2340 00d0 3B       		.uleb128 0x3b
 2341 00d1 05       		.uleb128 0x5
 2342 00d2 01       		.uleb128 0x1
 2343 00d3 13       		.uleb128 0x13
 2344 00d4 00       		.byte	0
 2345 00d5 00       		.byte	0
 2346 00d6 13       		.uleb128 0x13
 2347 00d7 16       		.uleb128 0x16
 2348 00d8 00       		.byte	0
ARM GAS  /tmp/cc6gOb22.s 			page 74


 2349 00d9 03       		.uleb128 0x3
 2350 00da 0E       		.uleb128 0xe
 2351 00db 3A       		.uleb128 0x3a
 2352 00dc 0B       		.uleb128 0xb
 2353 00dd 3B       		.uleb128 0x3b
 2354 00de 05       		.uleb128 0x5
 2355 00df 49       		.uleb128 0x49
 2356 00e0 13       		.uleb128 0x13
 2357 00e1 00       		.byte	0
 2358 00e2 00       		.byte	0
 2359 00e3 14       		.uleb128 0x14
 2360 00e4 17       		.uleb128 0x17
 2361 00e5 01       		.byte	0x1
 2362 00e6 0B       		.uleb128 0xb
 2363 00e7 0B       		.uleb128 0xb
 2364 00e8 3A       		.uleb128 0x3a
 2365 00e9 0B       		.uleb128 0xb
 2366 00ea 3B       		.uleb128 0x3b
 2367 00eb 0B       		.uleb128 0xb
 2368 00ec 01       		.uleb128 0x1
 2369 00ed 13       		.uleb128 0x13
 2370 00ee 00       		.byte	0
 2371 00ef 00       		.byte	0
 2372 00f0 15       		.uleb128 0x15
 2373 00f1 0D       		.uleb128 0xd
 2374 00f2 00       		.byte	0
 2375 00f3 03       		.uleb128 0x3
 2376 00f4 0E       		.uleb128 0xe
 2377 00f5 3A       		.uleb128 0x3a
 2378 00f6 0B       		.uleb128 0xb
 2379 00f7 3B       		.uleb128 0x3b
 2380 00f8 0B       		.uleb128 0xb
 2381 00f9 49       		.uleb128 0x49
 2382 00fa 13       		.uleb128 0x13
 2383 00fb 00       		.byte	0
 2384 00fc 00       		.byte	0
 2385 00fd 16       		.uleb128 0x16
 2386 00fe 0D       		.uleb128 0xd
 2387 00ff 00       		.byte	0
 2388 0100 03       		.uleb128 0x3
 2389 0101 0E       		.uleb128 0xe
 2390 0102 3A       		.uleb128 0x3a
 2391 0103 0B       		.uleb128 0xb
 2392 0104 3B       		.uleb128 0x3b
 2393 0105 05       		.uleb128 0x5
 2394 0106 49       		.uleb128 0x49
 2395 0107 13       		.uleb128 0x13
 2396 0108 00       		.byte	0
 2397 0109 00       		.byte	0
 2398 010a 17       		.uleb128 0x17
 2399 010b 26       		.uleb128 0x26
 2400 010c 00       		.byte	0
 2401 010d 49       		.uleb128 0x49
 2402 010e 13       		.uleb128 0x13
 2403 010f 00       		.byte	0
 2404 0110 00       		.byte	0
 2405 0111 18       		.uleb128 0x18
ARM GAS  /tmp/cc6gOb22.s 			page 75


 2406 0112 2E       		.uleb128 0x2e
 2407 0113 00       		.byte	0
 2408 0114 03       		.uleb128 0x3
 2409 0115 0E       		.uleb128 0xe
 2410 0116 3A       		.uleb128 0x3a
 2411 0117 0B       		.uleb128 0xb
 2412 0118 3B       		.uleb128 0x3b
 2413 0119 0B       		.uleb128 0xb
 2414 011a 27       		.uleb128 0x27
 2415 011b 19       		.uleb128 0x19
 2416 011c 49       		.uleb128 0x49
 2417 011d 13       		.uleb128 0x13
 2418 011e 20       		.uleb128 0x20
 2419 011f 0B       		.uleb128 0xb
 2420 0120 00       		.byte	0
 2421 0121 00       		.byte	0
 2422 0122 19       		.uleb128 0x19
 2423 0123 2E       		.uleb128 0x2e
 2424 0124 00       		.byte	0
 2425 0125 03       		.uleb128 0x3
 2426 0126 0E       		.uleb128 0xe
 2427 0127 3A       		.uleb128 0x3a
 2428 0128 0B       		.uleb128 0xb
 2429 0129 3B       		.uleb128 0x3b
 2430 012a 05       		.uleb128 0x5
 2431 012b 27       		.uleb128 0x27
 2432 012c 19       		.uleb128 0x19
 2433 012d 49       		.uleb128 0x49
 2434 012e 13       		.uleb128 0x13
 2435 012f 20       		.uleb128 0x20
 2436 0130 0B       		.uleb128 0xb
 2437 0131 00       		.byte	0
 2438 0132 00       		.byte	0
 2439 0133 1A       		.uleb128 0x1a
 2440 0134 2E       		.uleb128 0x2e
 2441 0135 01       		.byte	0x1
 2442 0136 03       		.uleb128 0x3
 2443 0137 0E       		.uleb128 0xe
 2444 0138 3A       		.uleb128 0x3a
 2445 0139 0B       		.uleb128 0xb
 2446 013a 3B       		.uleb128 0x3b
 2447 013b 0B       		.uleb128 0xb
 2448 013c 27       		.uleb128 0x27
 2449 013d 19       		.uleb128 0x19
 2450 013e 20       		.uleb128 0x20
 2451 013f 0B       		.uleb128 0xb
 2452 0140 01       		.uleb128 0x1
 2453 0141 13       		.uleb128 0x13
 2454 0142 00       		.byte	0
 2455 0143 00       		.byte	0
 2456 0144 1B       		.uleb128 0x1b
 2457 0145 05       		.uleb128 0x5
 2458 0146 00       		.byte	0
 2459 0147 03       		.uleb128 0x3
 2460 0148 0E       		.uleb128 0xe
 2461 0149 3A       		.uleb128 0x3a
 2462 014a 0B       		.uleb128 0xb
ARM GAS  /tmp/cc6gOb22.s 			page 76


 2463 014b 3B       		.uleb128 0x3b
 2464 014c 0B       		.uleb128 0xb
 2465 014d 49       		.uleb128 0x49
 2466 014e 13       		.uleb128 0x13
 2467 014f 00       		.byte	0
 2468 0150 00       		.byte	0
 2469 0151 1C       		.uleb128 0x1c
 2470 0152 2E       		.uleb128 0x2e
 2471 0153 00       		.byte	0
 2472 0154 03       		.uleb128 0x3
 2473 0155 0E       		.uleb128 0xe
 2474 0156 3A       		.uleb128 0x3a
 2475 0157 0B       		.uleb128 0xb
 2476 0158 3B       		.uleb128 0x3b
 2477 0159 0B       		.uleb128 0xb
 2478 015a 27       		.uleb128 0x27
 2479 015b 19       		.uleb128 0x19
 2480 015c 20       		.uleb128 0x20
 2481 015d 0B       		.uleb128 0xb
 2482 015e 00       		.byte	0
 2483 015f 00       		.byte	0
 2484 0160 1D       		.uleb128 0x1d
 2485 0161 2E       		.uleb128 0x2e
 2486 0162 01       		.byte	0x1
 2487 0163 3F       		.uleb128 0x3f
 2488 0164 19       		.uleb128 0x19
 2489 0165 03       		.uleb128 0x3
 2490 0166 0E       		.uleb128 0xe
 2491 0167 3A       		.uleb128 0x3a
 2492 0168 0B       		.uleb128 0xb
 2493 0169 3B       		.uleb128 0x3b
 2494 016a 0B       		.uleb128 0xb
 2495 016b 27       		.uleb128 0x27
 2496 016c 19       		.uleb128 0x19
 2497 016d 20       		.uleb128 0x20
 2498 016e 0B       		.uleb128 0xb
 2499 016f 01       		.uleb128 0x1
 2500 0170 13       		.uleb128 0x13
 2501 0171 00       		.byte	0
 2502 0172 00       		.byte	0
 2503 0173 1E       		.uleb128 0x1e
 2504 0174 05       		.uleb128 0x5
 2505 0175 00       		.byte	0
 2506 0176 03       		.uleb128 0x3
 2507 0177 08       		.uleb128 0x8
 2508 0178 3A       		.uleb128 0x3a
 2509 0179 0B       		.uleb128 0xb
 2510 017a 3B       		.uleb128 0x3b
 2511 017b 0B       		.uleb128 0xb
 2512 017c 49       		.uleb128 0x49
 2513 017d 13       		.uleb128 0x13
 2514 017e 00       		.byte	0
 2515 017f 00       		.byte	0
 2516 0180 1F       		.uleb128 0x1f
 2517 0181 34       		.uleb128 0x34
 2518 0182 00       		.byte	0
 2519 0183 03       		.uleb128 0x3
ARM GAS  /tmp/cc6gOb22.s 			page 77


 2520 0184 0E       		.uleb128 0xe
 2521 0185 49       		.uleb128 0x49
 2522 0186 13       		.uleb128 0x13
 2523 0187 34       		.uleb128 0x34
 2524 0188 19       		.uleb128 0x19
 2525 0189 1C       		.uleb128 0x1c
 2526 018a 0E       		.uleb128 0xe
 2527 018b 00       		.byte	0
 2528 018c 00       		.byte	0
 2529 018d 20       		.uleb128 0x20
 2530 018e 34       		.uleb128 0x34
 2531 018f 00       		.byte	0
 2532 0190 03       		.uleb128 0x3
 2533 0191 0E       		.uleb128 0xe
 2534 0192 3A       		.uleb128 0x3a
 2535 0193 0B       		.uleb128 0xb
 2536 0194 3B       		.uleb128 0x3b
 2537 0195 0B       		.uleb128 0xb
 2538 0196 49       		.uleb128 0x49
 2539 0197 13       		.uleb128 0x13
 2540 0198 00       		.byte	0
 2541 0199 00       		.byte	0
 2542 019a 21       		.uleb128 0x21
 2543 019b 2E       		.uleb128 0x2e
 2544 019c 00       		.byte	0
 2545 019d 3F       		.uleb128 0x3f
 2546 019e 19       		.uleb128 0x19
 2547 019f 03       		.uleb128 0x3
 2548 01a0 0E       		.uleb128 0xe
 2549 01a1 3A       		.uleb128 0x3a
 2550 01a2 0B       		.uleb128 0xb
 2551 01a3 3B       		.uleb128 0x3b
 2552 01a4 0B       		.uleb128 0xb
 2553 01a5 27       		.uleb128 0x27
 2554 01a6 19       		.uleb128 0x19
 2555 01a7 11       		.uleb128 0x11
 2556 01a8 01       		.uleb128 0x1
 2557 01a9 12       		.uleb128 0x12
 2558 01aa 06       		.uleb128 0x6
 2559 01ab 40       		.uleb128 0x40
 2560 01ac 18       		.uleb128 0x18
 2561 01ad 9742     		.uleb128 0x2117
 2562 01af 19       		.uleb128 0x19
 2563 01b0 00       		.byte	0
 2564 01b1 00       		.byte	0
 2565 01b2 22       		.uleb128 0x22
 2566 01b3 2E       		.uleb128 0x2e
 2567 01b4 01       		.byte	0x1
 2568 01b5 3F       		.uleb128 0x3f
 2569 01b6 19       		.uleb128 0x19
 2570 01b7 03       		.uleb128 0x3
 2571 01b8 0E       		.uleb128 0xe
 2572 01b9 3A       		.uleb128 0x3a
 2573 01ba 0B       		.uleb128 0xb
 2574 01bb 3B       		.uleb128 0x3b
 2575 01bc 0B       		.uleb128 0xb
 2576 01bd 27       		.uleb128 0x27
ARM GAS  /tmp/cc6gOb22.s 			page 78


 2577 01be 19       		.uleb128 0x19
 2578 01bf 11       		.uleb128 0x11
 2579 01c0 01       		.uleb128 0x1
 2580 01c1 12       		.uleb128 0x12
 2581 01c2 06       		.uleb128 0x6
 2582 01c3 40       		.uleb128 0x40
 2583 01c4 18       		.uleb128 0x18
 2584 01c5 9742     		.uleb128 0x2117
 2585 01c7 19       		.uleb128 0x19
 2586 01c8 01       		.uleb128 0x1
 2587 01c9 13       		.uleb128 0x13
 2588 01ca 00       		.byte	0
 2589 01cb 00       		.byte	0
 2590 01cc 23       		.uleb128 0x23
 2591 01cd 05       		.uleb128 0x5
 2592 01ce 00       		.byte	0
 2593 01cf 03       		.uleb128 0x3
 2594 01d0 08       		.uleb128 0x8
 2595 01d1 3A       		.uleb128 0x3a
 2596 01d2 0B       		.uleb128 0xb
 2597 01d3 3B       		.uleb128 0x3b
 2598 01d4 0B       		.uleb128 0xb
 2599 01d5 49       		.uleb128 0x49
 2600 01d6 13       		.uleb128 0x13
 2601 01d7 02       		.uleb128 0x2
 2602 01d8 17       		.uleb128 0x17
 2603 01d9 00       		.byte	0
 2604 01da 00       		.byte	0
 2605 01db 24       		.uleb128 0x24
 2606 01dc 05       		.uleb128 0x5
 2607 01dd 00       		.byte	0
 2608 01de 03       		.uleb128 0x3
 2609 01df 0E       		.uleb128 0xe
 2610 01e0 3A       		.uleb128 0x3a
 2611 01e1 0B       		.uleb128 0xb
 2612 01e2 3B       		.uleb128 0x3b
 2613 01e3 0B       		.uleb128 0xb
 2614 01e4 49       		.uleb128 0x49
 2615 01e5 13       		.uleb128 0x13
 2616 01e6 02       		.uleb128 0x2
 2617 01e7 17       		.uleb128 0x17
 2618 01e8 00       		.byte	0
 2619 01e9 00       		.byte	0
 2620 01ea 25       		.uleb128 0x25
 2621 01eb 34       		.uleb128 0x34
 2622 01ec 00       		.byte	0
 2623 01ed 03       		.uleb128 0x3
 2624 01ee 08       		.uleb128 0x8
 2625 01ef 3A       		.uleb128 0x3a
 2626 01f0 0B       		.uleb128 0xb
 2627 01f1 3B       		.uleb128 0x3b
 2628 01f2 0B       		.uleb128 0xb
 2629 01f3 49       		.uleb128 0x49
 2630 01f4 13       		.uleb128 0x13
 2631 01f5 02       		.uleb128 0x2
 2632 01f6 17       		.uleb128 0x17
 2633 01f7 00       		.byte	0
ARM GAS  /tmp/cc6gOb22.s 			page 79


 2634 01f8 00       		.byte	0
 2635 01f9 26       		.uleb128 0x26
 2636 01fa 34       		.uleb128 0x34
 2637 01fb 00       		.byte	0
 2638 01fc 03       		.uleb128 0x3
 2639 01fd 0E       		.uleb128 0xe
 2640 01fe 3A       		.uleb128 0x3a
 2641 01ff 0B       		.uleb128 0xb
 2642 0200 3B       		.uleb128 0x3b
 2643 0201 0B       		.uleb128 0xb
 2644 0202 49       		.uleb128 0x49
 2645 0203 13       		.uleb128 0x13
 2646 0204 02       		.uleb128 0x2
 2647 0205 17       		.uleb128 0x17
 2648 0206 00       		.byte	0
 2649 0207 00       		.byte	0
 2650 0208 27       		.uleb128 0x27
 2651 0209 34       		.uleb128 0x34
 2652 020a 00       		.byte	0
 2653 020b 03       		.uleb128 0x3
 2654 020c 0E       		.uleb128 0xe
 2655 020d 49       		.uleb128 0x49
 2656 020e 13       		.uleb128 0x13
 2657 020f 34       		.uleb128 0x34
 2658 0210 19       		.uleb128 0x19
 2659 0211 00       		.byte	0
 2660 0212 00       		.byte	0
 2661 0213 28       		.uleb128 0x28
 2662 0214 0B       		.uleb128 0xb
 2663 0215 01       		.byte	0x1
 2664 0216 55       		.uleb128 0x55
 2665 0217 17       		.uleb128 0x17
 2666 0218 00       		.byte	0
 2667 0219 00       		.byte	0
 2668 021a 29       		.uleb128 0x29
 2669 021b 34       		.uleb128 0x34
 2670 021c 00       		.byte	0
 2671 021d 03       		.uleb128 0x3
 2672 021e 08       		.uleb128 0x8
 2673 021f 3A       		.uleb128 0x3a
 2674 0220 0B       		.uleb128 0xb
 2675 0221 3B       		.uleb128 0x3b
 2676 0222 0B       		.uleb128 0xb
 2677 0223 49       		.uleb128 0x49
 2678 0224 13       		.uleb128 0x13
 2679 0225 00       		.byte	0
 2680 0226 00       		.byte	0
 2681 0227 2A       		.uleb128 0x2a
 2682 0228 1D       		.uleb128 0x1d
 2683 0229 01       		.byte	0x1
 2684 022a 31       		.uleb128 0x31
 2685 022b 13       		.uleb128 0x13
 2686 022c 52       		.uleb128 0x52
 2687 022d 01       		.uleb128 0x1
 2688 022e 55       		.uleb128 0x55
 2689 022f 17       		.uleb128 0x17
 2690 0230 58       		.uleb128 0x58
ARM GAS  /tmp/cc6gOb22.s 			page 80


 2691 0231 0B       		.uleb128 0xb
 2692 0232 59       		.uleb128 0x59
 2693 0233 0B       		.uleb128 0xb
 2694 0234 01       		.uleb128 0x1
 2695 0235 13       		.uleb128 0x13
 2696 0236 00       		.byte	0
 2697 0237 00       		.byte	0
 2698 0238 2B       		.uleb128 0x2b
 2699 0239 1D       		.uleb128 0x1d
 2700 023a 01       		.byte	0x1
 2701 023b 31       		.uleb128 0x31
 2702 023c 13       		.uleb128 0x13
 2703 023d 52       		.uleb128 0x52
 2704 023e 01       		.uleb128 0x1
 2705 023f 55       		.uleb128 0x55
 2706 0240 17       		.uleb128 0x17
 2707 0241 58       		.uleb128 0x58
 2708 0242 0B       		.uleb128 0xb
 2709 0243 59       		.uleb128 0x59
 2710 0244 05       		.uleb128 0x5
 2711 0245 00       		.byte	0
 2712 0246 00       		.byte	0
 2713 0247 2C       		.uleb128 0x2c
 2714 0248 1D       		.uleb128 0x1d
 2715 0249 00       		.byte	0
 2716 024a 31       		.uleb128 0x31
 2717 024b 13       		.uleb128 0x13
 2718 024c 52       		.uleb128 0x52
 2719 024d 01       		.uleb128 0x1
 2720 024e 55       		.uleb128 0x55
 2721 024f 17       		.uleb128 0x17
 2722 0250 58       		.uleb128 0x58
 2723 0251 0B       		.uleb128 0xb
 2724 0252 59       		.uleb128 0x59
 2725 0253 0B       		.uleb128 0xb
 2726 0254 00       		.byte	0
 2727 0255 00       		.byte	0
 2728 0256 2D       		.uleb128 0x2d
 2729 0257 1D       		.uleb128 0x1d
 2730 0258 01       		.byte	0x1
 2731 0259 31       		.uleb128 0x31
 2732 025a 13       		.uleb128 0x13
 2733 025b 11       		.uleb128 0x11
 2734 025c 01       		.uleb128 0x1
 2735 025d 12       		.uleb128 0x12
 2736 025e 06       		.uleb128 0x6
 2737 025f 58       		.uleb128 0x58
 2738 0260 0B       		.uleb128 0xb
 2739 0261 59       		.uleb128 0x59
 2740 0262 0B       		.uleb128 0xb
 2741 0263 01       		.uleb128 0x1
 2742 0264 13       		.uleb128 0x13
 2743 0265 00       		.byte	0
 2744 0266 00       		.byte	0
 2745 0267 2E       		.uleb128 0x2e
 2746 0268 05       		.uleb128 0x5
 2747 0269 00       		.byte	0
ARM GAS  /tmp/cc6gOb22.s 			page 81


 2748 026a 31       		.uleb128 0x31
 2749 026b 13       		.uleb128 0x13
 2750 026c 02       		.uleb128 0x2
 2751 026d 17       		.uleb128 0x17
 2752 026e 00       		.byte	0
 2753 026f 00       		.byte	0
 2754 0270 2F       		.uleb128 0x2f
 2755 0271 898201   		.uleb128 0x4109
 2756 0274 00       		.byte	0
 2757 0275 11       		.uleb128 0x11
 2758 0276 01       		.uleb128 0x1
 2759 0277 31       		.uleb128 0x31
 2760 0278 13       		.uleb128 0x13
 2761 0279 00       		.byte	0
 2762 027a 00       		.byte	0
 2763 027b 30       		.uleb128 0x30
 2764 027c 1D       		.uleb128 0x1d
 2765 027d 01       		.byte	0x1
 2766 027e 31       		.uleb128 0x31
 2767 027f 13       		.uleb128 0x13
 2768 0280 52       		.uleb128 0x52
 2769 0281 01       		.uleb128 0x1
 2770 0282 55       		.uleb128 0x55
 2771 0283 17       		.uleb128 0x17
 2772 0284 58       		.uleb128 0x58
 2773 0285 0B       		.uleb128 0xb
 2774 0286 59       		.uleb128 0x59
 2775 0287 0B       		.uleb128 0xb
 2776 0288 00       		.byte	0
 2777 0289 00       		.byte	0
 2778 028a 31       		.uleb128 0x31
 2779 028b 898201   		.uleb128 0x4109
 2780 028e 00       		.byte	0
 2781 028f 11       		.uleb128 0x11
 2782 0290 01       		.uleb128 0x1
 2783 0291 9542     		.uleb128 0x2115
 2784 0293 19       		.uleb128 0x19
 2785 0294 31       		.uleb128 0x31
 2786 0295 13       		.uleb128 0x13
 2787 0296 00       		.byte	0
 2788 0297 00       		.byte	0
 2789 0298 32       		.uleb128 0x32
 2790 0299 2E       		.uleb128 0x2e
 2791 029a 01       		.byte	0x1
 2792 029b 31       		.uleb128 0x31
 2793 029c 13       		.uleb128 0x13
 2794 029d 11       		.uleb128 0x11
 2795 029e 01       		.uleb128 0x1
 2796 029f 12       		.uleb128 0x12
 2797 02a0 06       		.uleb128 0x6
 2798 02a1 40       		.uleb128 0x40
 2799 02a2 18       		.uleb128 0x18
 2800 02a3 9742     		.uleb128 0x2117
 2801 02a5 19       		.uleb128 0x19
 2802 02a6 01       		.uleb128 0x1
 2803 02a7 13       		.uleb128 0x13
 2804 02a8 00       		.byte	0
ARM GAS  /tmp/cc6gOb22.s 			page 82


 2805 02a9 00       		.byte	0
 2806 02aa 33       		.uleb128 0x33
 2807 02ab 34       		.uleb128 0x34
 2808 02ac 00       		.byte	0
 2809 02ad 31       		.uleb128 0x31
 2810 02ae 13       		.uleb128 0x13
 2811 02af 00       		.byte	0
 2812 02b0 00       		.byte	0
 2813 02b1 34       		.uleb128 0x34
 2814 02b2 34       		.uleb128 0x34
 2815 02b3 00       		.byte	0
 2816 02b4 31       		.uleb128 0x31
 2817 02b5 13       		.uleb128 0x13
 2818 02b6 02       		.uleb128 0x2
 2819 02b7 17       		.uleb128 0x17
 2820 02b8 00       		.byte	0
 2821 02b9 00       		.byte	0
 2822 02ba 35       		.uleb128 0x35
 2823 02bb 1D       		.uleb128 0x1d
 2824 02bc 01       		.byte	0x1
 2825 02bd 31       		.uleb128 0x31
 2826 02be 13       		.uleb128 0x13
 2827 02bf 11       		.uleb128 0x11
 2828 02c0 01       		.uleb128 0x1
 2829 02c1 12       		.uleb128 0x12
 2830 02c2 06       		.uleb128 0x6
 2831 02c3 58       		.uleb128 0x58
 2832 02c4 0B       		.uleb128 0xb
 2833 02c5 59       		.uleb128 0x59
 2834 02c6 05       		.uleb128 0x5
 2835 02c7 01       		.uleb128 0x1
 2836 02c8 13       		.uleb128 0x13
 2837 02c9 00       		.byte	0
 2838 02ca 00       		.byte	0
 2839 02cb 36       		.uleb128 0x36
 2840 02cc 1D       		.uleb128 0x1d
 2841 02cd 01       		.byte	0x1
 2842 02ce 31       		.uleb128 0x31
 2843 02cf 13       		.uleb128 0x13
 2844 02d0 11       		.uleb128 0x11
 2845 02d1 01       		.uleb128 0x1
 2846 02d2 12       		.uleb128 0x12
 2847 02d3 06       		.uleb128 0x6
 2848 02d4 58       		.uleb128 0x58
 2849 02d5 0B       		.uleb128 0xb
 2850 02d6 59       		.uleb128 0x59
 2851 02d7 0B       		.uleb128 0xb
 2852 02d8 00       		.byte	0
 2853 02d9 00       		.byte	0
 2854 02da 37       		.uleb128 0x37
 2855 02db 34       		.uleb128 0x34
 2856 02dc 00       		.byte	0
 2857 02dd 03       		.uleb128 0x3
 2858 02de 0E       		.uleb128 0xe
 2859 02df 3A       		.uleb128 0x3a
 2860 02e0 0B       		.uleb128 0xb
 2861 02e1 3B       		.uleb128 0x3b
ARM GAS  /tmp/cc6gOb22.s 			page 83


 2862 02e2 05       		.uleb128 0x5
 2863 02e3 49       		.uleb128 0x49
 2864 02e4 13       		.uleb128 0x13
 2865 02e5 3F       		.uleb128 0x3f
 2866 02e6 19       		.uleb128 0x19
 2867 02e7 3C       		.uleb128 0x3c
 2868 02e8 19       		.uleb128 0x19
 2869 02e9 00       		.byte	0
 2870 02ea 00       		.byte	0
 2871 02eb 38       		.uleb128 0x38
 2872 02ec 34       		.uleb128 0x34
 2873 02ed 00       		.byte	0
 2874 02ee 03       		.uleb128 0x3
 2875 02ef 08       		.uleb128 0x8
 2876 02f0 3A       		.uleb128 0x3a
 2877 02f1 0B       		.uleb128 0xb
 2878 02f2 3B       		.uleb128 0x3b
 2879 02f3 05       		.uleb128 0x5
 2880 02f4 49       		.uleb128 0x49
 2881 02f5 13       		.uleb128 0x13
 2882 02f6 3F       		.uleb128 0x3f
 2883 02f7 19       		.uleb128 0x19
 2884 02f8 3C       		.uleb128 0x3c
 2885 02f9 19       		.uleb128 0x19
 2886 02fa 00       		.byte	0
 2887 02fb 00       		.byte	0
 2888 02fc 39       		.uleb128 0x39
 2889 02fd 2E       		.uleb128 0x2e
 2890 02fe 01       		.byte	0x1
 2891 02ff 3F       		.uleb128 0x3f
 2892 0300 19       		.uleb128 0x19
 2893 0301 03       		.uleb128 0x3
 2894 0302 0E       		.uleb128 0xe
 2895 0303 3A       		.uleb128 0x3a
 2896 0304 0B       		.uleb128 0xb
 2897 0305 3B       		.uleb128 0x3b
 2898 0306 0B       		.uleb128 0xb
 2899 0307 27       		.uleb128 0x27
 2900 0308 19       		.uleb128 0x19
 2901 0309 3C       		.uleb128 0x3c
 2902 030a 19       		.uleb128 0x19
 2903 030b 01       		.uleb128 0x1
 2904 030c 13       		.uleb128 0x13
 2905 030d 00       		.byte	0
 2906 030e 00       		.byte	0
 2907 030f 3A       		.uleb128 0x3a
 2908 0310 2E       		.uleb128 0x2e
 2909 0311 00       		.byte	0
 2910 0312 3F       		.uleb128 0x3f
 2911 0313 19       		.uleb128 0x19
 2912 0314 03       		.uleb128 0x3
 2913 0315 0E       		.uleb128 0xe
 2914 0316 3A       		.uleb128 0x3a
 2915 0317 0B       		.uleb128 0xb
 2916 0318 3B       		.uleb128 0x3b
 2917 0319 0B       		.uleb128 0xb
 2918 031a 27       		.uleb128 0x27
ARM GAS  /tmp/cc6gOb22.s 			page 84


 2919 031b 19       		.uleb128 0x19
 2920 031c 3C       		.uleb128 0x3c
 2921 031d 19       		.uleb128 0x19
 2922 031e 00       		.byte	0
 2923 031f 00       		.byte	0
 2924 0320 00       		.byte	0
 2925              		.section	.debug_loc,"",%progbits
 2926              	.Ldebug_loc0:
 2927              	.LLST0:
 2928 0000 00000000 		.4byte	.LVL0
 2929 0004 3C000000 		.4byte	.LVL6
 2930 0008 0100     		.2byte	0x1
 2931 000a 50       		.byte	0x50
 2932 000b 3C000000 		.4byte	.LVL6
 2933 000f 62000000 		.4byte	.LVL11
 2934 0013 0100     		.2byte	0x1
 2935 0015 56       		.byte	0x56
 2936 0016 62000000 		.4byte	.LVL11
 2937 001a 6E000000 		.4byte	.LVL16
 2938 001e 0100     		.2byte	0x1
 2939 0020 50       		.byte	0x50
 2940 0021 6E000000 		.4byte	.LVL16
 2941 0025 78000000 		.4byte	.LVL18
 2942 0029 0100     		.2byte	0x1
 2943 002b 56       		.byte	0x56
 2944 002c 78000000 		.4byte	.LVL18
 2945 0030 7A000000 		.4byte	.LVL19
 2946 0034 0100     		.2byte	0x1
 2947 0036 50       		.byte	0x50
 2948 0037 7A000000 		.4byte	.LVL19
 2949 003b 8C000000 		.4byte	.LVL21
 2950 003f 0100     		.2byte	0x1
 2951 0041 56       		.byte	0x56
 2952 0042 8C000000 		.4byte	.LVL21
 2953 0046 8F000000 		.4byte	.LVL22-1
 2954 004a 0200     		.2byte	0x2
 2955 004c 7C       		.byte	0x7c
 2956 004d 00       		.sleb128 0
 2957 004e 8F000000 		.4byte	.LVL22-1
 2958 0052 90000000 		.4byte	.LFE189
 2959 0056 0400     		.2byte	0x4
 2960 0058 F3       		.byte	0xf3
 2961 0059 01       		.uleb128 0x1
 2962 005a 50       		.byte	0x50
 2963 005b 9F       		.byte	0x9f
 2964 005c 00000000 		.4byte	0
 2965 0060 00000000 		.4byte	0
 2966              	.LLST1:
 2967 0064 00000000 		.4byte	.LVL0
 2968 0068 1C000000 		.4byte	.LVL1
 2969 006c 0100     		.2byte	0x1
 2970 006e 51       		.byte	0x51
 2971 006f 1C000000 		.4byte	.LVL1
 2972 0073 26000000 		.4byte	.LVL2
 2973 0077 0400     		.2byte	0x4
 2974 0079 F3       		.byte	0xf3
 2975 007a 01       		.uleb128 0x1
ARM GAS  /tmp/cc6gOb22.s 			page 85


 2976 007b 51       		.byte	0x51
 2977 007c 9F       		.byte	0x9f
 2978 007d 26000000 		.4byte	.LVL2
 2979 0081 3C000000 		.4byte	.LVL6
 2980 0085 0100     		.2byte	0x1
 2981 0087 51       		.byte	0x51
 2982 0088 62000000 		.4byte	.LVL11
 2983 008c 73000000 		.4byte	.LVL17-1
 2984 0090 0100     		.2byte	0x1
 2985 0092 51       		.byte	0x51
 2986 0093 78000000 		.4byte	.LVL18
 2987 0097 8F000000 		.4byte	.LVL22-1
 2988 009b 0100     		.2byte	0x1
 2989 009d 51       		.byte	0x51
 2990 009e 00000000 		.4byte	0
 2991 00a2 00000000 		.4byte	0
 2992              	.LLST2:
 2993 00a6 00000000 		.4byte	.LVL0
 2994 00aa 2A000000 		.4byte	.LVL4
 2995 00ae 0100     		.2byte	0x1
 2996 00b0 52       		.byte	0x52
 2997 00b1 2A000000 		.4byte	.LVL4
 2998 00b5 3C000000 		.4byte	.LVL6
 2999 00b9 0200     		.2byte	0x2
 3000 00bb 70       		.byte	0x70
 3001 00bc 0C       		.sleb128 12
 3002 00bd 3C000000 		.4byte	.LVL6
 3003 00c1 62000000 		.4byte	.LVL11
 3004 00c5 0400     		.2byte	0x4
 3005 00c7 F3       		.byte	0xf3
 3006 00c8 01       		.uleb128 0x1
 3007 00c9 52       		.byte	0x52
 3008 00ca 9F       		.byte	0x9f
 3009 00cb 62000000 		.4byte	.LVL11
 3010 00cf 6E000000 		.4byte	.LVL16
 3011 00d3 0200     		.2byte	0x2
 3012 00d5 70       		.byte	0x70
 3013 00d6 0C       		.sleb128 12
 3014 00d7 6E000000 		.4byte	.LVL16
 3015 00db 73000000 		.4byte	.LVL17-1
 3016 00df 0200     		.2byte	0x2
 3017 00e1 76       		.byte	0x76
 3018 00e2 0C       		.sleb128 12
 3019 00e3 73000000 		.4byte	.LVL17-1
 3020 00e7 78000000 		.4byte	.LVL18
 3021 00eb 0400     		.2byte	0x4
 3022 00ed F3       		.byte	0xf3
 3023 00ee 01       		.uleb128 0x1
 3024 00ef 52       		.byte	0x52
 3025 00f0 9F       		.byte	0x9f
 3026 00f1 78000000 		.4byte	.LVL18
 3027 00f5 8F000000 		.4byte	.LVL22-1
 3028 00f9 0100     		.2byte	0x1
 3029 00fb 52       		.byte	0x52
 3030 00fc 8F000000 		.4byte	.LVL22-1
 3031 0100 90000000 		.4byte	.LFE189
 3032 0104 0400     		.2byte	0x4
ARM GAS  /tmp/cc6gOb22.s 			page 86


 3033 0106 F3       		.byte	0xf3
 3034 0107 01       		.uleb128 0x1
 3035 0108 52       		.byte	0x52
 3036 0109 9F       		.byte	0x9f
 3037 010a 00000000 		.4byte	0
 3038 010e 00000000 		.4byte	0
 3039              	.LLST3:
 3040 0112 00000000 		.4byte	.LVL0
 3041 0116 26000000 		.4byte	.LVL2
 3042 011a 0100     		.2byte	0x1
 3043 011c 53       		.byte	0x53
 3044 011d 26000000 		.4byte	.LVL2
 3045 0121 3C000000 		.4byte	.LVL6
 3046 0125 0200     		.2byte	0x2
 3047 0127 70       		.byte	0x70
 3048 0128 10       		.sleb128 16
 3049 0129 3C000000 		.4byte	.LVL6
 3050 012d 62000000 		.4byte	.LVL11
 3051 0131 0400     		.2byte	0x4
 3052 0133 F3       		.byte	0xf3
 3053 0134 01       		.uleb128 0x1
 3054 0135 53       		.byte	0x53
 3055 0136 9F       		.byte	0x9f
 3056 0137 62000000 		.4byte	.LVL11
 3057 013b 6E000000 		.4byte	.LVL16
 3058 013f 0200     		.2byte	0x2
 3059 0141 70       		.byte	0x70
 3060 0142 10       		.sleb128 16
 3061 0143 6E000000 		.4byte	.LVL16
 3062 0147 73000000 		.4byte	.LVL17-1
 3063 014b 0200     		.2byte	0x2
 3064 014d 76       		.byte	0x76
 3065 014e 10       		.sleb128 16
 3066 014f 73000000 		.4byte	.LVL17-1
 3067 0153 78000000 		.4byte	.LVL18
 3068 0157 0400     		.2byte	0x4
 3069 0159 F3       		.byte	0xf3
 3070 015a 01       		.uleb128 0x1
 3071 015b 53       		.byte	0x53
 3072 015c 9F       		.byte	0x9f
 3073 015d 78000000 		.4byte	.LVL18
 3074 0161 7A000000 		.4byte	.LVL19
 3075 0165 0200     		.2byte	0x2
 3076 0167 70       		.byte	0x70
 3077 0168 10       		.sleb128 16
 3078 0169 7A000000 		.4byte	.LVL19
 3079 016d 8C000000 		.4byte	.LVL21
 3080 0171 0200     		.2byte	0x2
 3081 0173 76       		.byte	0x76
 3082 0174 10       		.sleb128 16
 3083 0175 8C000000 		.4byte	.LVL21
 3084 0179 8F000000 		.4byte	.LVL22-1
 3085 017d 0500     		.2byte	0x5
 3086 017f 7C       		.byte	0x7c
 3087 0180 00       		.sleb128 0
 3088 0181 06       		.byte	0x6
 3089 0182 23       		.byte	0x23
ARM GAS  /tmp/cc6gOb22.s 			page 87


 3090 0183 10       		.uleb128 0x10
 3091 0184 8F000000 		.4byte	.LVL22-1
 3092 0188 90000000 		.4byte	.LFE189
 3093 018c 0400     		.2byte	0x4
 3094 018e F3       		.byte	0xf3
 3095 018f 01       		.uleb128 0x1
 3096 0190 53       		.byte	0x53
 3097 0191 9F       		.byte	0x9f
 3098 0192 00000000 		.4byte	0
 3099 0196 00000000 		.4byte	0
 3100              	.LLST4:
 3101 019a 28000000 		.4byte	.LVL3
 3102 019e 3E000000 		.4byte	.LVL7
 3103 01a2 0100     		.2byte	0x1
 3104 01a4 54       		.byte	0x54
 3105 01a5 44000000 		.4byte	.LVL9
 3106 01a9 64000000 		.4byte	.LVL12
 3107 01ad 0100     		.2byte	0x1
 3108 01af 54       		.byte	0x54
 3109 01b0 64000000 		.4byte	.LVL12
 3110 01b4 68000000 		.4byte	.LVL14
 3111 01b8 0200     		.2byte	0x2
 3112 01ba 7C       		.byte	0x7c
 3113 01bb 00       		.sleb128 0
 3114 01bc 68000000 		.4byte	.LVL14
 3115 01c0 78000000 		.4byte	.LVL18
 3116 01c4 0100     		.2byte	0x1
 3117 01c6 54       		.byte	0x54
 3118 01c7 00000000 		.4byte	0
 3119 01cb 00000000 		.4byte	0
 3120              	.LLST5:
 3121 01cf 30000000 		.4byte	.LVL5
 3122 01d3 40000000 		.4byte	.LVL8
 3123 01d7 0100     		.2byte	0x1
 3124 01d9 55       		.byte	0x55
 3125 01da 44000000 		.4byte	.LVL9
 3126 01de 5C000000 		.4byte	.LVL10
 3127 01e2 0100     		.2byte	0x1
 3128 01e4 55       		.byte	0x55
 3129 01e5 62000000 		.4byte	.LVL11
 3130 01e9 66000000 		.4byte	.LVL13
 3131 01ed 0100     		.2byte	0x1
 3132 01ef 55       		.byte	0x55
 3133 01f0 68000000 		.4byte	.LVL14
 3134 01f4 78000000 		.4byte	.LVL18
 3135 01f8 0100     		.2byte	0x1
 3136 01fa 55       		.byte	0x55
 3137 01fb 00000000 		.4byte	0
 3138 01ff 00000000 		.4byte	0
 3139              	.LLST6:
 3140 0203 6C000000 		.4byte	.LVL15
 3141 0207 73000000 		.4byte	.LVL17-1
 3142 020b 0600     		.2byte	0x6
 3143 020d 75       		.byte	0x75
 3144 020e 00       		.sleb128 0
 3145 020f 72       		.byte	0x72
 3146 0210 00       		.sleb128 0
ARM GAS  /tmp/cc6gOb22.s 			page 88


 3147 0211 22       		.byte	0x22
 3148 0212 9F       		.byte	0x9f
 3149 0213 00000000 		.4byte	0
 3150 0217 00000000 		.4byte	0
 3151              	.LLST7:
 3152 021b 88000000 		.4byte	.LVL20
 3153 021f 8C000000 		.4byte	.LVL21
 3154 0223 0600     		.2byte	0x6
 3155 0225 71       		.byte	0x71
 3156 0226 00       		.sleb128 0
 3157 0227 73       		.byte	0x73
 3158 0228 00       		.sleb128 0
 3159 0229 22       		.byte	0x22
 3160 022a 9F       		.byte	0x9f
 3161 022b 00000000 		.4byte	0
 3162 022f 00000000 		.4byte	0
 3163              	.LLST8:
 3164 0233 00000000 		.4byte	.LVL23
 3165 0237 2C000000 		.4byte	.LVL24
 3166 023b 0100     		.2byte	0x1
 3167 023d 50       		.byte	0x50
 3168 023e 2C000000 		.4byte	.LVL24
 3169 0242 30000000 		.4byte	.LVL25
 3170 0246 0400     		.2byte	0x4
 3171 0248 F3       		.byte	0xf3
 3172 0249 01       		.uleb128 0x1
 3173 024a 50       		.byte	0x50
 3174 024b 9F       		.byte	0x9f
 3175 024c 30000000 		.4byte	.LVL25
 3176 0250 34000000 		.4byte	.LVL26
 3177 0254 0100     		.2byte	0x1
 3178 0256 50       		.byte	0x50
 3179 0257 34000000 		.4byte	.LVL26
 3180 025b 78000000 		.4byte	.LFE190
 3181 025f 0400     		.2byte	0x4
 3182 0261 F3       		.byte	0xf3
 3183 0262 01       		.uleb128 0x1
 3184 0263 50       		.byte	0x50
 3185 0264 9F       		.byte	0x9f
 3186 0265 00000000 		.4byte	0
 3187 0269 00000000 		.4byte	0
 3188              	.LLST9:
 3189 026d 30000000 		.4byte	.LVL25
 3190 0271 50000000 		.4byte	.LVL27
 3191 0275 0100     		.2byte	0x1
 3192 0277 52       		.byte	0x52
 3193 0278 72000000 		.4byte	.LVL32
 3194 027c 77000000 		.4byte	.LVL33-1
 3195 0280 0100     		.2byte	0x1
 3196 0282 52       		.byte	0x52
 3197 0283 00000000 		.4byte	0
 3198 0287 00000000 		.4byte	0
 3199              	.LLST10:
 3200 028b 58000000 		.4byte	.LVL28
 3201 028f 6C000000 		.4byte	.LVL31
 3202 0293 0100     		.2byte	0x1
 3203 0295 50       		.byte	0x50
ARM GAS  /tmp/cc6gOb22.s 			page 89


 3204 0296 00000000 		.4byte	0
 3205 029a 00000000 		.4byte	0
 3206              	.LLST11:
 3207 029e 64000000 		.4byte	.LVL29
 3208 02a2 71000000 		.4byte	.LVL32-1
 3209 02a6 0100     		.2byte	0x1
 3210 02a8 53       		.byte	0x53
 3211 02a9 00000000 		.4byte	0
 3212 02ad 00000000 		.4byte	0
 3213              	.LLST12:
 3214 02b1 6A000000 		.4byte	.LVL30
 3215 02b5 71000000 		.4byte	.LVL32-1
 3216 02b9 0600     		.2byte	0x6
 3217 02bb 73       		.byte	0x73
 3218 02bc 00       		.sleb128 0
 3219 02bd 72       		.byte	0x72
 3220 02be 00       		.sleb128 0
 3221 02bf 22       		.byte	0x22
 3222 02c0 9F       		.byte	0x9f
 3223 02c1 00000000 		.4byte	0
 3224 02c5 00000000 		.4byte	0
 3225              		.section	.debug_aranges,"",%progbits
 3226 0000 2C000000 		.4byte	0x2c
 3227 0004 0200     		.2byte	0x2
 3228 0006 00000000 		.4byte	.Ldebug_info0
 3229 000a 04       		.byte	0x4
 3230 000b 00       		.byte	0
 3231 000c 0000     		.2byte	0
 3232 000e 0000     		.2byte	0
 3233 0010 00000000 		.4byte	.LFB188
 3234 0014 1C000000 		.4byte	.LFE188-.LFB188
 3235 0018 00000000 		.4byte	.LFB189
 3236 001c 90000000 		.4byte	.LFE189-.LFB189
 3237 0020 00000000 		.4byte	.LFB190
 3238 0024 78000000 		.4byte	.LFE190-.LFB190
 3239 0028 00000000 		.4byte	0
 3240 002c 00000000 		.4byte	0
 3241              		.section	.debug_ranges,"",%progbits
 3242              	.Ldebug_ranges0:
 3243 0000 02000000 		.4byte	.LBB35
 3244 0004 1E000000 		.4byte	.LBE35
 3245 0008 24000000 		.4byte	.LBB50
 3246 000c 3C000000 		.4byte	.LBE50
 3247 0010 62000000 		.4byte	.LBB51
 3248 0014 88000000 		.4byte	.LBE51
 3249 0018 8C000000 		.4byte	.LBB52
 3250 001c 90000000 		.4byte	.LBE52
 3251 0020 00000000 		.4byte	0
 3252 0024 00000000 		.4byte	0
 3253 0028 10000000 		.4byte	.LBB36
 3254 002c 16000000 		.4byte	.LBE36
 3255 0030 24000000 		.4byte	.LBB43
 3256 0034 26000000 		.4byte	.LBE43
 3257 0038 00000000 		.4byte	0
 3258 003c 00000000 		.4byte	0
 3259 0040 80000000 		.4byte	.LBB46
 3260 0044 82000000 		.4byte	.LBE46
ARM GAS  /tmp/cc6gOb22.s 			page 90


 3261 0048 8C000000 		.4byte	.LBB49
 3262 004c 90000000 		.4byte	.LBE49
 3263 0050 00000000 		.4byte	0
 3264 0054 00000000 		.4byte	0
 3265 0058 30000000 		.4byte	.LBB63
 3266 005c 5E000000 		.4byte	.LBE63
 3267 0060 60000000 		.4byte	.LBB79
 3268 0064 72000000 		.4byte	.LBE79
 3269 0068 74000000 		.4byte	.LBB80
 3270 006c 78000000 		.4byte	.LBE80
 3271 0070 00000000 		.4byte	0
 3272 0074 00000000 		.4byte	0
 3273 0078 42000000 		.4byte	.LBB65
 3274 007c 48000000 		.4byte	.LBE65
 3275 0080 4E000000 		.4byte	.LBB72
 3276 0084 50000000 		.4byte	.LBE72
 3277 0088 00000000 		.4byte	0
 3278 008c 00000000 		.4byte	0
 3279 0090 00000000 		.4byte	.LFB188
 3280 0094 1C000000 		.4byte	.LFE188
 3281 0098 00000000 		.4byte	.LFB189
 3282 009c 90000000 		.4byte	.LFE189
 3283 00a0 00000000 		.4byte	.LFB190
 3284 00a4 78000000 		.4byte	.LFE190
 3285 00a8 00000000 		.4byte	0
 3286 00ac 00000000 		.4byte	0
 3287              		.section	.debug_line,"",%progbits
 3288              	.Ldebug_line0:
 3289 0000 FC020000 		.section	.debug_str,"MS",%progbits,1
 3289      0200F801 
 3289      00000201 
 3289      FB0E0D00 
 3289      01010101 
 3290              	.LASF46:
 3291 0000 63685F74 		.ascii	"ch_threads_list\000"
 3291      68726561 
 3291      64735F6C 
 3291      69737400 
 3292              	.LASF91:
 3293 0010 77746D74 		.ascii	"wtmtxp\000"
 3293      787000
 3294              	.LASF71:
 3295 0017 72656761 		.ascii	"regarm_t\000"
 3295      726D5F74 
 3295      00
 3296              	.LASF117:
 3297 0020 5F76745F 		.ascii	"_vt_init\000"
 3297      696E6974 
 3297      00
 3298              	.LASF35:
 3299 0029 666C6167 		.ascii	"flags\000"
 3299      7300
 3300              	.LASF26:
 3301 002f 73797374 		.ascii	"systime_t\000"
 3301      696D655F 
 3301      7400
 3302              	.LASF41:
ARM GAS  /tmp/cc6gOb22.s 			page 91


 3303 0039 7265616C 		.ascii	"realprio\000"
 3303      7072696F 
 3303      00
 3304              	.LASF108:
 3305 0042 76746675 		.ascii	"vtfunc\000"
 3305      6E6300
 3306              	.LASF39:
 3307 0049 6570656E 		.ascii	"epending\000"
 3307      64696E67 
 3307      00
 3308              	.LASF0:
 3309 0052 756E7369 		.ascii	"unsigned int\000"
 3309      676E6564 
 3309      20696E74 
 3309      00
 3310              	.LASF47:
 3311 005f 6E657874 		.ascii	"next\000"
 3311      00
 3312              	.LASF101:
 3313 0064 63685654 		.ascii	"chVTGetSystemTimeX\000"
 3313      47657453 
 3313      79737465 
 3313      6D54696D 
 3313      655800
 3314              	.LASF44:
 3315 0077 74687265 		.ascii	"threads_list_t\000"
 3315      6164735F 
 3315      6C697374 
 3315      5F7400
 3316              	.LASF7:
 3317 0086 5F5F696E 		.ascii	"__int32_t\000"
 3317      7433325F 
 3317      7400
 3318              	.LASF36:
 3319 0090 72656673 		.ascii	"refs\000"
 3319      00
 3320              	.LASF87:
 3321 0095 77746F62 		.ascii	"wtobjp\000"
 3321      6A7000
 3322              	.LASF68:
 3323 009c 76746C69 		.ascii	"vtlist\000"
 3323      737400
 3324              	.LASF73:
 3325 00a3 706F7274 		.ascii	"port_context\000"
 3325      5F636F6E 
 3325      74657874 
 3325      00
 3326              	.LASF52:
 3327 00b0 63685F72 		.ascii	"ch_ready_list\000"
 3327      65616479 
 3327      5F6C6973 
 3327      7400
 3328              	.LASF58:
 3329 00be 66756E63 		.ascii	"func\000"
 3329      00
 3330              	.LASF92:
 3331 00c3 65776D61 		.ascii	"ewmask\000"
ARM GAS  /tmp/cc6gOb22.s 			page 92


 3331      736B00
 3332              	.LASF50:
 3333 00ca 70726576 		.ascii	"prev\000"
 3333      00
 3334              	.LASF49:
 3335 00cf 63685F74 		.ascii	"ch_threads_queue\000"
 3335      68726561 
 3335      64735F71 
 3335      75657565 
 3335      00
 3336              	.LASF81:
 3337 00e0 444D4152 		.ascii	"DMAR\000"
 3337      00
 3338              	.LASF54:
 3339 00e5 76746675 		.ascii	"vtfunc_t\000"
 3339      6E635F74 
 3339      00
 3340              	.LASF63:
 3341 00ee 63685F73 		.ascii	"ch_system_debug\000"
 3341      79737465 
 3341      6D5F6465 
 3341      62756700 
 3342              	.LASF17:
 3343 00fe 75696E74 		.ascii	"uint32_t\000"
 3343      33325F74 
 3343      00
 3344              	.LASF111:
 3345 0107 73745365 		.ascii	"stSetAlarm\000"
 3345      74416C61 
 3345      726D00
 3346              	.LASF89:
 3347 0112 73656E74 		.ascii	"sentmsg\000"
 3347      6D736700 
 3348              	.LASF24:
 3349 011a 6576656E 		.ascii	"eventmask_t\000"
 3349      746D6173 
 3349      6B5F7400 
 3350              	.LASF80:
 3351 0126 42445452 		.ascii	"BDTR\000"
 3351      00
 3352              	.LASF112:
 3353 012b 73745374 		.ascii	"stStartAlarm\000"
 3353      61727441 
 3353      6C61726D 
 3353      00
 3354              	.LASF93:
 3355 0138 63685F73 		.ascii	"ch_semaphore\000"
 3355      656D6170 
 3355      686F7265 
 3355      00
 3356              	.LASF22:
 3357 0145 74707269 		.ascii	"tprio_t\000"
 3357      6F5F7400 
 3358              	.LASF56:
 3359 014d 63685F76 		.ascii	"ch_virtual_timer\000"
 3359      69727475 
 3359      616C5F74 
ARM GAS  /tmp/cc6gOb22.s 			page 93


 3359      696D6572 
 3359      00
 3360              	.LASF77:
 3361 015e 43434D52 		.ascii	"CCMR1\000"
 3361      3100
 3362              	.LASF78:
 3363 0164 43434D52 		.ascii	"CCMR2\000"
 3363      3200
 3364              	.LASF82:
 3365 016a 43434D52 		.ascii	"CCMR3\000"
 3365      3300
 3366              	.LASF13:
 3367 0170 6C6F6E67 		.ascii	"long long unsigned int\000"
 3367      206C6F6E 
 3367      6720756E 
 3367      7369676E 
 3367      65642069 
 3368              	.LASF99:
 3369 0187 73745F6C 		.ascii	"st_lld_get_counter\000"
 3369      6C645F67 
 3369      65745F63 
 3369      6F756E74 
 3369      657200
 3370              	.LASF5:
 3371 019a 5F5F7569 		.ascii	"__uint16_t\000"
 3371      6E743136 
 3371      5F7400
 3372              	.LASF25:
 3373 01a5 636E745F 		.ascii	"cnt_t\000"
 3373      7400
 3374              	.LASF106:
 3375 01ab 6E6F7764 		.ascii	"nowdelta\000"
 3375      656C7461 
 3375      00
 3376              	.LASF104:
 3377 01b4 74696D65 		.ascii	"time\000"
 3377      00
 3378              	.LASF95:
 3379 01b9 6F776E65 		.ascii	"owner\000"
 3379      7200
 3380              	.LASF48:
 3381 01bf 74687265 		.ascii	"threads_queue_t\000"
 3381      6164735F 
 3381      71756575 
 3381      655F7400 
 3382              	.LASF40:
 3383 01cf 6D74786C 		.ascii	"mtxlist\000"
 3383      69737400 
 3384              	.LASF60:
 3385 01d7 63685F76 		.ascii	"ch_virtual_timers_list\000"
 3385      69727475 
 3385      616C5F74 
 3385      696D6572 
 3385      735F6C69 
 3386              	.LASF27:
 3387 01ee 74687265 		.ascii	"thread_t\000"
 3387      61645F74 
ARM GAS  /tmp/cc6gOb22.s 			page 94


 3387      00
 3388              	.LASF85:
 3389 01f7 7264796D 		.ascii	"rdymsg\000"
 3389      736700
 3390              	.LASF84:
 3391 01fe 73746D33 		.ascii	"stm32_tim_t\000"
 3391      325F7469 
 3391      6D5F7400 
 3392              	.LASF119:
 3393 020a 5F5F6675 		.ascii	"__func__.5934\000"
 3393      6E635F5F 
 3393      2E353933 
 3393      3400
 3394              	.LASF98:
 3395 0218 5F426F6F 		.ascii	"_Bool\000"
 3395      6C00
 3396              	.LASF94:
 3397 021e 63685F6D 		.ascii	"ch_mutex\000"
 3397      75746578 
 3397      00
 3398              	.LASF12:
 3399 0227 5F5F7569 		.ascii	"__uint64_t\000"
 3399      6E743634 
 3399      5F7400
 3400              	.LASF76:
 3401 0232 44494552 		.ascii	"DIER\000"
 3401      00
 3402              	.LASF100:
 3403 0237 706F7274 		.ascii	"port_timer_get_time\000"
 3403      5F74696D 
 3403      65725F67 
 3403      65745F74 
 3403      696D6500 
 3404              	.LASF29:
 3405 024b 7072696F 		.ascii	"prio\000"
 3405      00
 3406              	.LASF105:
 3407 0250 5F5F6675 		.ascii	"__func__.5942\000"
 3407      6E635F5F 
 3407      2E353934 
 3407      3200
 3408              	.LASF79:
 3409 025e 43434552 		.ascii	"CCER\000"
 3409      00
 3410              	.LASF96:
 3411 0263 63686172 		.ascii	"char\000"
 3411      00
 3412              	.LASF43:
 3413 0268 74687265 		.ascii	"thread_reference_t\000"
 3413      61645F72 
 3413      65666572 
 3413      656E6365 
 3413      5F7400
 3414              	.LASF33:
 3415 027b 77616261 		.ascii	"wabase\000"
 3415      736500
 3416              	.LASF20:
ARM GAS  /tmp/cc6gOb22.s 			page 95


 3417 0282 74737461 		.ascii	"tstate_t\000"
 3417      74655F74 
 3417      00
 3418              	.LASF14:
 3419 028b 75696E74 		.ascii	"uint8_t\000"
 3419      385F7400 
 3420              	.LASF114:
 3421 0293 2E2E2F2E 		.ascii	"../../../os/rt/src/chvt.c\000"
 3421      2E2F2E2E 
 3421      2F6F732F 
 3421      72742F73 
 3421      72632F63 
 3422              	.LASF38:
 3423 02ad 6D736771 		.ascii	"msgqueue\000"
 3423      75657565 
 3423      00
 3424              	.LASF75:
 3425 02b6 534D4352 		.ascii	"SMCR\000"
 3425      00
 3426              	.LASF45:
 3427 02bb 63685F74 		.ascii	"ch_thread\000"
 3427      68726561 
 3427      6400
 3428              	.LASF102:
 3429 02c5 706F7274 		.ascii	"port_timer_start_alarm\000"
 3429      5F74696D 
 3429      65725F73 
 3429      74617274 
 3429      5F616C61 
 3430              	.LASF62:
 3431 02dc 73797374 		.ascii	"system_debug_t\000"
 3431      656D5F64 
 3431      65627567 
 3431      5F7400
 3432              	.LASF11:
 3433 02eb 6C6F6E67 		.ascii	"long long int\000"
 3433      206C6F6E 
 3433      6720696E 
 3433      7400
 3434              	.LASF23:
 3435 02f9 6D73675F 		.ascii	"msg_t\000"
 3435      7400
 3436              	.LASF110:
 3437 02ff 63685654 		.ascii	"chVTDoResetI\000"
 3437      446F5265 
 3437      73657449 
 3437      00
 3438              	.LASF55:
 3439 030c 76697274 		.ascii	"virtual_timer_t\000"
 3439      75616C5F 
 3439      74696D65 
 3439      725F7400 
 3440              	.LASF113:
 3441 031c 474E5520 		.ascii	"GNU C 4.8.2 -mcpu=cortex-m3 -mno-thumb-interwork -m"
 3441      4320342E 
 3441      382E3220 
 3441      2D6D6370 
ARM GAS  /tmp/cc6gOb22.s 			page 96


 3441      753D636F 
 3442 034f 7468756D 		.ascii	"thumb -ggdb -O2 -fomit-frame-pointer -falign-functi"
 3442      62202D67 
 3442      67646220 
 3442      2D4F3220 
 3442      2D666F6D 
 3443 0382 6F6E733D 		.ascii	"ons=16 -ffunction-sections -fdata-sections -fno-com"
 3443      3136202D 
 3443      6666756E 
 3443      6374696F 
 3443      6E2D7365 
 3444 03b5 6D6F6E20 		.ascii	"mon -flto\000"
 3444      2D666C74 
 3444      6F00
 3445              	.LASF64:
 3446 03bf 70616E69 		.ascii	"panic_msg\000"
 3446      635F6D73 
 3446      6700
 3447              	.LASF19:
 3448 03c9 746D6F64 		.ascii	"tmode_t\000"
 3448      655F7400 
 3449              	.LASF69:
 3450 03d1 6D61696E 		.ascii	"mainthread\000"
 3450      74687265 
 3450      616400
 3451              	.LASF115:
 3452 03dc 2F686F6D 		.ascii	"/home/jerson/ChibiOS_17.6.2/demos/STM32/RT-STM32F10"
 3452      652F6A65 
 3452      72736F6E 
 3452      2F436869 
 3452      62694F53 
 3453 040f 302D4449 		.ascii	"0-DISCOVERY\000"
 3453      53434F56 
 3453      45525900 
 3454              	.LASF103:
 3455 041b 706F7274 		.ascii	"port_timer_set_alarm\000"
 3455      5F74696D 
 3455      65725F73 
 3455      65745F61 
 3455      6C61726D 
 3456              	.LASF15:
 3457 0430 75696E74 		.ascii	"uint16_t\000"
 3457      31365F74 
 3457      00
 3458              	.LASF83:
 3459 0439 43435852 		.ascii	"CCXR\000"
 3459      00
 3460              	.LASF3:
 3461 043e 73686F72 		.ascii	"short int\000"
 3461      7420696E 
 3461      7400
 3462              	.LASF8:
 3463 0448 6C6F6E67 		.ascii	"long int\000"
 3463      20696E74 
 3463      00
 3464              	.LASF74:
 3465 0451 706F7274 		.ascii	"port_intctx\000"
ARM GAS  /tmp/cc6gOb22.s 			page 97


 3465      5F696E74 
 3465      63747800 
 3466              	.LASF109:
 3467 045d 49544D5F 		.ascii	"ITM_RxBuffer\000"
 3467      52784275 
 3467      66666572 
 3467      00
 3468              	.LASF107:
 3469 046a 64656C61 		.ascii	"delay\000"
 3469      7900
 3470              	.LASF66:
 3471 0470 63685F73 		.ascii	"ch_system\000"
 3471      79737465 
 3471      6D00
 3472              	.LASF120:
 3473 047a 73745374 		.ascii	"stStopAlarm\000"
 3473      6F70416C 
 3473      61726D00 
 3474              	.LASF61:
 3475 0486 6C617374 		.ascii	"lasttime\000"
 3475      74696D65 
 3475      00
 3476              	.LASF18:
 3477 048f 75696E74 		.ascii	"uint64_t\000"
 3477      36345F74 
 3477      00
 3478              	.LASF67:
 3479 0498 726C6973 		.ascii	"rlist\000"
 3479      7400
 3480              	.LASF4:
 3481 049e 5F5F7569 		.ascii	"__uint8_t\000"
 3481      6E74385F 
 3481      7400
 3482              	.LASF32:
 3483 04a8 6E616D65 		.ascii	"name\000"
 3483      00
 3484              	.LASF70:
 3485 04ad 73697A65 		.ascii	"sizetype\000"
 3485      74797065 
 3485      00
 3486              	.LASF21:
 3487 04b6 74726566 		.ascii	"trefs_t\000"
 3487      735F7400 
 3488              	.LASF116:
 3489 04be 706F7274 		.ascii	"port_timer_stop_alarm\000"
 3489      5F74696D 
 3489      65725F73 
 3489      746F705F 
 3489      616C6172 
 3490              	.LASF10:
 3491 04d4 6C6F6E67 		.ascii	"long unsigned int\000"
 3491      20756E73 
 3491      69676E65 
 3491      6420696E 
 3491      7400
 3492              	.LASF118:
 3493 04e6 63685654 		.ascii	"chVTDoSetI\000"
ARM GAS  /tmp/cc6gOb22.s 			page 98


 3493      446F5365 
 3493      744900
 3494              	.LASF51:
 3495 04f1 72656164 		.ascii	"ready_list_t\000"
 3495      795F6C69 
 3495      73745F74 
 3495      00
 3496              	.LASF28:
 3497 04fe 71756575 		.ascii	"queue\000"
 3497      6500
 3498              	.LASF16:
 3499 0504 696E7433 		.ascii	"int32_t\000"
 3499      325F7400 
 3500              	.LASF97:
 3501 050c 6D757465 		.ascii	"mutex_t\000"
 3501      785F7400 
 3502              	.LASF30:
 3503 0514 6E657765 		.ascii	"newer\000"
 3503      7200
 3504              	.LASF2:
 3505 051a 756E7369 		.ascii	"unsigned char\000"
 3505      676E6564 
 3505      20636861 
 3505      7200
 3506              	.LASF9:
 3507 0528 5F5F7569 		.ascii	"__uint32_t\000"
 3507      6E743332 
 3507      5F7400
 3508              	.LASF37:
 3509 0533 77616974 		.ascii	"waiting\000"
 3509      696E6700 
 3510              	.LASF59:
 3511 053b 76697274 		.ascii	"virtual_timers_list_t\000"
 3511      75616C5F 
 3511      74696D65 
 3511      72735F6C 
 3511      6973745F 
 3512              	.LASF34:
 3513 0551 73746174 		.ascii	"state\000"
 3513      6500
 3514              	.LASF65:
 3515 0557 63685F73 		.ascii	"ch_system_t\000"
 3515      79737465 
 3515      6D5F7400 
 3516              	.LASF90:
 3517 0563 77747365 		.ascii	"wtsemp\000"
 3517      6D7000
 3518              	.LASF88:
 3519 056a 77747472 		.ascii	"wttrp\000"
 3519      7000
 3520              	.LASF1:
 3521 0570 7369676E 		.ascii	"signed char\000"
 3521      65642063 
 3521      68617200 
 3522              	.LASF57:
 3523 057c 64656C74 		.ascii	"delta\000"
 3523      6100
ARM GAS  /tmp/cc6gOb22.s 			page 99


 3524              	.LASF6:
 3525 0582 73686F72 		.ascii	"short unsigned int\000"
 3525      7420756E 
 3525      7369676E 
 3525      65642069 
 3525      6E7400
 3526              	.LASF72:
 3527 0595 73746B61 		.ascii	"stkalign_t\000"
 3527      6C69676E 
 3527      5F7400
 3528              	.LASF53:
 3529 05a0 63757272 		.ascii	"current\000"
 3529      656E7400 
 3530              	.LASF31:
 3531 05a8 6F6C6465 		.ascii	"older\000"
 3531      7200
 3532              	.LASF86:
 3533 05ae 65786974 		.ascii	"exitcode\000"
 3533      636F6465 
 3533      00
 3534              	.LASF42:
 3535 05b7 6D706F6F 		.ascii	"mpool\000"
 3535      6C00
 3536              		.comm	__gnu_lto_v1,1,1
 3537              		.ident	"GCC: (4.8.2-14ubuntu1+6) 4.8.2"
ARM GAS  /tmp/cc6gOb22.s 			page 100


DEFINED SYMBOLS
                            *ABS*:0000000000000000 chvt.c
     /tmp/cc6gOb22.s:532    .text._vt_init:0000000000000000 $t
     /tmp/cc6gOb22.s:538    .text._vt_init:0000000000000000 _vt_init
     /tmp/cc6gOb22.s:567    .text.chVTDoSetI:0000000000000000 $t
     /tmp/cc6gOb22.s:573    .text.chVTDoSetI:0000000000000000 chVTDoSetI
     /tmp/cc6gOb22.s:763    .text.chVTDoResetI:0000000000000000 $t
     /tmp/cc6gOb22.s:769    .text.chVTDoResetI:0000000000000000 chVTDoResetI
                            *COM*:0000000000000001 __gnu_lto_v1
                     .debug_frame:0000000000000010 $d

UNDEFINED SYMBOLS
ch
stSetAlarm
stStartAlarm
stStopAlarm
