ARM GAS  /tmp/cciS1F3m.s 			page 1


   1              		.syntax unified
   2              		.cpu cortex-m3
   3              		.fpu softvfp
   4              		.eabi_attribute 20, 1
   5              		.eabi_attribute 21, 1
   6              		.eabi_attribute 23, 3
   7              		.eabi_attribute 24, 1
   8              		.eabi_attribute 25, 1
   9              		.eabi_attribute 26, 1
  10              		.eabi_attribute 30, 2
  11              		.eabi_attribute 34, 1
  12              		.eabi_attribute 18, 4
  13              		.thumb
  14              		.file	"crt1.c"
  15              		.text
  16              	.Ltext0:
  17              		.section	.gnu.lto_.jmpfuncs.f00deff3b9107005,"",%progbits
  18 0000 789C6362 		.ascii	"x\234cb`b\300\006x\2404+\003\003#P\0113\003\013\003"
  18      6062C006 
  18      78A0342B 
  18      03032350 
  18      0933030B 
  19 0015 03000236 		.ascii	"\003\000\0026\000 "
  19      0020
  20              		.text
  21              		.section	.gnu.lto_.inline.f00deff3b9107005,"",%progbits
  22 0000 789C6362 		.ascii	"x\234cb`b\300\006\342\2414+\003\0033\023#X\021\333\002"
  22      6062C006 
  22      E2A1342B 
  22      03033313 
  22      235811DB 
  23 0015 79B05A46 		.ascii	"y\260ZF\014\021&\014\021f \017\"\302\002\261\200\205"
  23      0C11260C 
  23      1166200F 
  23      22C202B1 
  23      8085
  24 0027 41E41527 		.ascii	"A\344\025'PD\251m\321LF\2702\006\000\3774\006\240"
  24      5044A96D 
  24      D14C46B8 
  24      320600FF 
  24      3406A0
  25              		.text
  26              		.section	.gnu.lto_.pureconst.f00deff3b9107005,"",%progbits
  27 0000 789C6362 		.ascii	"x\234cb`b\340f\200\000V\006\011F\011&\011f\023\026)"
  27      6062E066 
  27      80005606 
  27      09460926 
  27      09661316 
  28 0015 00044D00 		.ascii	"\000\004M\000\265"
  28      B5
  29              		.text
  30              		.section	.gnu.lto___core_init.f00deff3b9107005,"",%progbits
  31 0000 789C6362 		.ascii	"x\234cb`b@\007\222@\034\014\304\226@\314\310\314\300"
  31      60624007 
  31      92401C0C 
  31      C49640CC 
  31      C8CCC0
ARM GAS  /tmp/cciS1F3m.s 			page 2


  32 0013 C834E11C 		.ascii	"\3104\341\034\003C#\007\023##\210\301\300\310P\317\304"
  32      03432307 
  32      13232388 
  32      C1C0C850 
  32      CFC4
  33 0025 581FC908 		.ascii	"X\037\311\010V\273\236\351\300\203\377\377\327m\350"
  33      56BB9EE9 
  33      C083FFFF 
  33      D76DE8
  34 0034 9AF38671 		.ascii	"\232\363\206q%\023\310,V\206\226\206\206\011\012\014"
  34      2513C82C 
  34      56869686 
  34      86090A0C 
  35 0044 0CC96015 		.ascii	"\014\311`\025!@\022\244-\224\221\011D3_d`Ld\\\310\310"
  35      214012A4 
  35      2D949109 
  35      44335F64 
  35      604C645C 
  36 005a 0AB72D84 		.ascii	"\012\267-\204\221\021$\001\322j\256\247\247\017A\371"
  36      91112401 
  36      D26AAEA7 
  36      A70F41F9 
  37 006a C5FAC9F9 		.ascii	"\305\372\311\371\271\271\371y\372\305%\211E%\245\005"
  37      B9B9F979 
  37      FAC52589 
  37      4525A505 
  38 007a FA8E41BE 		.ascii	"\372\216A\276\316\276\025 \321\202\314\234\324\242b"
  38      CEBE1520 
  38      D182CC9C 
  38      D4A262
  39 0089 7D776767 		.ascii	"}wgg\375\344\242\022C\275d\006\000\267\214)["
  39      FDE4A212 
  39      43BD6406 
  39      00B78C29 
  39      5B
  40              		.text
  41              		.section	.gnu.lto___early_init.f00deff3b9107005,"",%progbits
  42 0000 789C6362 		.ascii	"x\234cb`b@\007\222@\034\000\304\226@\314\310\314\300"
  42      60624007 
  42      92401C00 
  42      C49640CC 
  42      C8CCC0
  43 0013 C834E11C 		.ascii	"\3104\341\034\003C#\007\023##\210\301\300\310P\317\304"
  43      03432307 
  43      13232388 
  43      C1C0C850 
  43      CFC4
  44 0025 581FC908 		.ascii	"X\037\311\010V\273\236\351\300\203\377\377\327};5G\002"
  44      56BB9EE9 
  44      C083FFFF 
  44      D77D3B35 
  44      4702
  45 0037 64102B43 		.ascii	"d\020+CKC\303\004\005\006\206d\260t\010\220\004\351"
  45      4B43C304 
  45      05068664 
  45      B0740890 
  45      04E9
ARM GAS  /tmp/cciS1F3m.s 			page 3


  46 0049 09656402 		.ascii	"\011ed\002\321\314\027\031\030\023\031\0272\262\302"
  46      D1CC1719 
  46      18131917 
  46      32B2C2
  47 0058 AD0A6164 		.ascii	"\255\012ad\004I\200\264\232\353\351\351CP~\261~r~nn"
  47      044980B4 
  47      9AEBE9E9 
  47      43507EB1 
  47      7E727E6E 
  48 006d 7E9E7E71 		.ascii	"~\236~qIbQIi\201\276c\220\257\263o\005H\264 3'\265\250"
  48      49625149 
  48      6981BE63 
  48      90AFB36F 
  48      0548B420 
  49 0085 58DFDDD9 		.ascii	"X\337\335\331Y?\271\250\304P/\231\001\000\031\306(^"
  49      593FB9A8 
  49      C4502F99 
  49      010019C6 
  49      285E
  50              		.text
  51              		.section	.gnu.lto___late_init.f00deff3b9107005,"",%progbits
  52 0000 789C6362 		.ascii	"x\234cb`b@\007\222@\034\000\304\226@\314\310\314\300"
  52      60624007 
  52      92401C00 
  52      C49640CC 
  52      C8CCC0
  53 0013 C834E11C 		.ascii	"\3104\341\034\003C#\007\023##\210\301\300\310P\317\304"
  53      03432307 
  53      13232388 
  53      C1C0C850 
  53      CFC4
  54 0025 581FC908 		.ascii	"X\037\311\010V\273\236\351\300\203\377\377\327m\352"
  54      56BB9EE9 
  54      C083FFFF 
  54      D76DEA
  55 0034 9E230132 		.ascii	"\236#\0012\210\225\241\245\241a\202\002\003C2X:\004"
  55      8895A1A5 
  55      A1618202 
  55      03433258 
  55      3A04
  56 0046 4882F484 		.ascii	"H\202\364\20422\201h\346\213\014\214\211\214\013\031"
  56      32328168 
  56      E68B0C8C 
  56      898C0B19 
  57 0056 59E15685 		.ascii	"Y\341V\20502\202$@Z\315\365\364\364!(\277X?9?77?O\277"
  57      30328224 
  57      405ACDF5 
  57      F4F42128 
  57      BF583F39 
  58 0070 B824B1A8 		.ascii	"\270$\261\250\244\264@\3371\310\327\331\267\002$Z\220"
  58      A4B440DF 
  58      31C8D7D9 
  58      B702245A 
  58      90
  59 0081 99935A54 		.ascii	"\231\223ZT\254\357\356\354\254\237\\Tb\250\227\314\000"
  59      ACEFEEEC 
  59      AC9F5C54 
ARM GAS  /tmp/cciS1F3m.s 			page 4


  59      62A897CC 
  59      00
  60 0092 00DB0527 		.ascii	"\000\333\005'\333"
  60      DB
  61              		.text
  62              		.section	.gnu.lto___default_exit.f00deff3b9107005,"",%progbits
  63 0000 789C6362 		.ascii	"x\234cb`b@\007:@\354\003\304\226@\314\310\312\300\310"
  63      60624007 
  63      3A40EC03 
  63      C49640CC 
  63      C8CAC0C8 
  64 0014 34E11C03 		.ascii	"4\341\034\003C#\007\023#3\210\301\310\314\310\002\021"
  64      43230713 
  64      233388C1 
  64      C8CCC802 
  64      11
  65 0025 60810838 		.ascii	"`\201\010822\32431\2630\326G2\202\265\257g:\360\340"
  65      3232D433 
  65      31B330D6 
  65      473282B5 
  65      AF673AF0 
  66 003a FFFF7577 		.ascii	"\377\377uwN\317\335\303\270\236\011$\306\312\320\322"
  66      4ECFDDC3 
  66      B89E0924 
  66      C6CAD0D2 
  67 004a D0304181 		.ascii	"\3200A\201\201!\031\254\"\004H2\002I&\240Y!\214\314"
  67      812119AC 
  67      22044832 
  67      024926A0 
  67      59218CCC 
  68 005e 0C404318 		.ascii	"\014@C\030C\030Y\2404\304\020\006s==}\010\312/\326O"
  68      431859A0 
  68      34C41006 
  68      733D3D7D 
  68      08CA2FD6 
  69 0073 CECFCDCD 		.ascii	"\316\317\315\315\317\323/.I,*)-\320w\014\362u\366\255"
  69      CFD32F2E 
  69      492C2A29 
  69      2DD0770C 
  69      F275F6AD 
  70 0087 00891664 		.ascii	"\000\211\026d\346\244\026\025\353\273;;\353'\027\225"
  70      E6A41615 
  70      EBBB3B3B 
  70      EB271795 
  71 0097 18EA2533 		.ascii	"\030\352%3\000\000\351N*\305"
  71      0000E94E 
  71      2AC5
  72              		.text
  73              		.section	.gnu.lto___init_ram_areas.f00deff3b9107005,"",%progbits
  74 0000 789C8D54 		.ascii	"x\234\215T]HTA\024>g\346\336\273w\177lW\326 \241H$\350"
  74      5D485441 
  74      143E67E6 
  74      DEBB777F 
  74      6C57D620 
  75 0018 2172E949 		.ascii	"!r\351I\350!0\037z\362\241P\250\207\250m\213e\251\315"
  75      E821301F 
  75      7AF2A150 
ARM GAS  /tmp/cciS1F3m.s 			page 5


  75      A887A86D 
  75      8B65A9CD 
  76 002c 4557080A 		.ascii	"EW\010\012\234\325\015\242\244\266 \260\334@\021\351"
  76      9CD50DA2 
  76      A4B620B0 
  76      DC4011E9 
  77 003c 4F88E865 		.ascii	"O\210\350e\211\036V(T0\311G\243\300\222|\260 \304z("
  77      891E5628 
  77      5430C947 
  77      A3C0927C 
  77      B020C47A 
  78 0051 A2EDCC9D 		.ascii	"\242\355\314\235\271W\224\265\032\356\275g\346\3149"
  78      B95794B5 
  78      1AEEBD67 
  78      E6CC39
  79 0060 DF39E79B 		.ascii	"\3379\347\2339\227\001\203\215\243\237\336\263&\300"
  79      39970183 
  79      8DA39FDE 
  79      B326C0
  80 006f 41921802 		.ascii	"A\222\030\002d\205Y\200\234\315\220\253\011GSM\0145"
  80      64855980 
  80      9CCD90AB 
  80      0947534D 
  80      0C35
  81 0081 99B04D66 		.ascii	"\231\260Mf\014L\002\210\200\225\367\201\010YhK=\372"
  81      0C4C0288 
  81      8095F781 
  81      0859684B 
  81      3DFA
  82 0093 949CB06D 		.ascii	"\224\234\260m\346S\373~g\337\317\202j\031p\226A\005"
  82      E653FB7E 
  82      67DFCF82 
  82      6A197096 
  82      4105
  83 00a5 DC124094 		.ascii	"\334\022@\224\022\020z\0317L\313g\373\203\001\354=\206"
  83      12107A19 
  83      374CCB67 
  83      FB8301EC 
  83      3D86
  84 00b7 3229DE08 		.ascii	"2)\336\010#B\334Zx\365q\216\337\021\345\374\260\370"
  84      2342DC5A 
  84      78F5718E 
  84      DF11E5FC 
  84      B0F8
  85 00c9 55A920A6 		.ascii	"U\251 \246\220\012\330\217\220@8J\013lp\0043\326W\244"
  85      900AD88F 
  85      9040384A 
  85      0B6C7004 
  85      33D657A4 
  86 00dd 7CCB43B3 		.ascii	"|\313C\2637\352\305p_A\374&\327\024r\006\007\376\323"
  86      37EAC570 
  86      5F41FC26 
  86      D7147206 
  86      07FED3
  87 00f0 B3381B2A 		.ascii	"\2638\033*\344\256\210J\245\327qk\371\227\333\023V^"
  87      E4AE884A 
  87      A5D7716B 
ARM GAS  /tmp/cciS1F3m.s 			page 6


  87      F997DB13 
  87      565E
  88 0102 A8540656 		.ascii	"\250T\006V\276}(at+B\034G\260\2212\215\343(INr\214\244"
  88      BE7D2861 
  88      742B421C 
  88      47B09132 
  88      8DE32849 
  89 011a A1A5AD65 		.ascii	"\241\245\255e@\357\007\365:\004\024\255\206>FXk\"\332"
  89      40EF07F5 
  89      3A0414AD 
  89      863E4658 
  89      6B22DA
  90 012d A256EE44 		.ascii	"\242V\356D\265\262N\303\3230!/D\241\301]'\034\352\332"
  90      B5B24EC3 
  90      D330212F 
  90      44A1C15D 
  90      271CEADA 
  91 0141 E93B07D0 		.ascii	"\351;\007\320\201\214\004\237\206\276\205\253\223[\342"
  91      818C049F 
  91      86BE85AB 
  91      935BE2
  92 0150 781F4DED 		.ascii	"x\037M\355x\021~\212A!nR!f\032\327\252\350@\016y\237"
  92      78117E8A 
  92      41216E52 
  92      21661AD7 
  92      AAE8400E 
  93 0166 F4B0419B 		.ascii	"\364\260A\233&\221\366_C\337\333\322\342\017\364\242"
  93      2691F65F 
  93      43DFDBD2 
  93      E20FF4A2 
  94 0176 C994542E 		.ascii	"\311\224T.\322N\002\323Hb`\017<\022\005!N\244\320\032"
  94      D24E02D3 
  94      4862600F 
  94      3C120521 
  94      4EA4D01A 
  95 018a 82BB04EF 		.ascii	"\202\273\004\357#\177\311\227\302?\345\305\242\020\345"
  95      237FC997 
  95      C23FE5C5 
  95      A210E5
  96 0199 9D717CE8 		.ascii	"\235q|\350\2444\352\304\011\2508S\213\250\364I\014j"
  96      A434EAC4 
  96      09A83853 
  96      8BA8F449 
  96      0C6A
  97 01ab B8E39BC2 		.ascii	"\270\343\233\302a5\2701\007.(\365\363\200\252\326\362"
  97      6135B831 
  97      072E28F5 
  97      F380AAD6 
  97      F2
  98 01bc EDEBBBBC 		.ascii	"\355\353\273\274b\331\003\302\251\013\316|?)K6\200\356"
  98      62D903C2 
  98      A90BCE7C 
  98      3F294B36 
  98      80EE
  99 01ce 26A7D0CF 		.ascii	"&\247\320\317/\177.nwc\327\250\200v\022\231\014\310"
  99      2F7F2E6E 
  99      7763D7A8 
ARM GAS  /tmp/cciS1F3m.s 			page 7


  99      80761299 
  99      0CC8
 100 01e0 7520329B 		.ascii	"u 2\233~c)#\262\310\011!\302\216\025_\263\"gi\330\177"
 100      7E632923 
 100      B2C80921 
 100      C28E155F 
 100      B3226769 
 101 01f6 ADFF6B71 		.ascii	"\255\377kq\233\213\027\326&\316\305\231\006\266>\331"
 101      9B8B17D6 
 101      26CEC599 
 101      06B63ED9 
 102 0206 B076582D 		.ascii	"\260vX-\326\273\016\021\035y\243\203\"+\342\036\230"
 102      D6BB0E11 
 102      1D79A383 
 102      222BE21E 
 102      98
 103 0217 09D442DE 		.ascii	"\011\324B\336\211)4\356\020\342(\2245\323G\2704\317"
 103      892934EE 
 103      10E22894 
 103      35D347B8 
 103      34CF
 104 0229 5CF890E4 		.ascii	"\\\370\220\3446\262)\261\356Ob\012^.\345\232=\247\244"
 104      36B229B1 
 104      EE4F620A 
 104      5E2EE59A 
 104      3DA7A4
 105 023c 470451CB 		.ascii	"G\004Q\313\350\314\370\273\225K\224\2151\263zz\0368"
 105      E8CCF8BB 
 105      954B948D 
 105      31B37A7A 
 105      1E38
 106 024e B1CEBF48 		.ascii	"\261\316\277HE\330x\261\352\220k\311\373$\215%E&J\225"
 106      45D878B1 
 106      EA906BC9 
 106      FB248D25 
 106      45264A95 
 107 0262 CFE5BB54 		.ascii	"\317\345\273TZ\236\303*T\032kT\312\231\255x'v\036\337"
 107      5A9EC32A 
 107      541A6B54 
 107      CA99AD78 
 107      27761EDF 
 108 0276 F3E88C6A 		.ascii	"\363\350\214j\263\352tF]vl\311\016\256g\307Pd\014.\257"
 108      B3EA7446 
 108      5D766CC9 
 108      0EAE67C7 
 108      50640C2E 
 109 028b 9151FB77 		.ascii	"\221Q\373w2xU2j\035(\227\014#\211\266\205\024\3327\256"
 109      32785532 
 109      6A1D2897 
 109      0C2389B6 
 109      8514DA37 
 110 02a0 AE955F56 		.ascii	"\256\225_V\356\244\375t\207\353R\247\201Yd}\326\252"
 110      EEA4FD74 
 110      87EB52A7 
 110      8159647D 
 110      D6AA
 111 02b2 D1EA9C08 		.ascii	"\321\352\234\010\237&\336\317\242\352)R\351N=L\311\354"
ARM GAS  /tmp/cciS1F3m.s 			page 8


 111      9F26DECF 
 111      A2EA2952 
 111      E94E3D4C 
 111      C9EC
 112 02c4 8571D90C 		.ascii	"\205q\331\014=\224_Z\375\213\3746T\033\355t\367\237"
 112      3D945F5A 
 112      FD8BFC36 
 112      541BED74 
 112      F79F
 113 02d6 59D8411D 		.ascii	"Y\330A\035E\355?\007\271\205\322n\257I\265\005\322\226"
 113      45ED3F07 
 113      B985D26E 
 113      AF49B505 
 113      D296
 114 02e8 3CE3E6A6 		.ascii	"<\343\346\246\246\230z:\273c\211\316t\272\363|\254;"
 114      A6987A3A 
 114      BB6389CE 
 114      74BAF37C 
 114      AC3B
 115 02fa 1BEFCAF6 		.ascii	"\033\357\312\366db-G\332Z\333.Hm&u\356LWw\354Pkk,\321"
 115      64622D47 
 115      DA5ADB2E 
 115      486D2675 
 115      EE4C5777 
 116 0314 95DDD794 		.ascii	"\225\335\327\224\000\336\025\317\260l\0063\177\000T"
 116      00DE15CF 
 116      B06C0633 
 116      7F0054
 117 0323 E65540   		.ascii	"\346U@"
 118              		.text
 119              		.section	.gnu.lto_.symbol_nodes.f00deff3b9107005,"",%progbits
 120 0000 789C4DD0 		.ascii	"x\234M\320YN\002Q\020\205\341\277o\367\005\001Ap`\036"
 120      594E0251 
 120      1085E1BF 
 120      6FF70501 
 120      4170601E 
 121 0014 5C831BF0 		.ascii	"\\\203\033\360\325]\335W\036]\201kQqB\260\031\025d\022"
 121      D55DDD57 
 121      1E5D816B 
 121      517142B0 
 121      19156412 
 122 0028 8585D827 		.ascii	"\205\205\330'\306@\275|99IUR\006\303\205\307\337\230"
 122      C640BD7C 
 122      39394955 
 122      5206C385 
 122      C7DF98
 123 003b 5B1C5C87 		.ascii	"[\034\\\207\340\334M\3233w8o/\336\343\314^l\341\374"
 123      E0DC4DD3 
 123      3377386F 
 123      2FDEE3CC 
 123      5E6CE1FC 
 124 004f FF78651E 		.ascii	"\377xe\036p\301\256\264\227\004\316\267\217x\321F\373"
 124      70C1AEB4 
 124      9704CEB7 
 124      8F78D146 
 124      FB
 125 0060 141D8978 		.ascii	"\024\035\211x\306\027/\004\242\215\025\257\304D\207"
ARM GAS  /tmp/cciS1F3m.s 			page 9


 125      C6172F04 
 125      A28D15AF 
 125      C44487
 126 006f B8E87220 		.ascii	"\270\350r \336H\210\220\244\350\221\022}\016\305\200"
 126      DE488890 
 126      A4E89112 
 126      7D0EC580 
 127 007f B4189211 		.ascii	"\264\030\222\021#\216\304\230\254x''>8\026\023N\304"
 127      238EC498 
 127      AC782727 
 127      3E381613 
 127      4EC4
 128 0091 9453F1C9 		.ascii	"\224S\361\311\231\230\221\027s\012bAQ,)\211\025e\361"
 128      99989117 
 128      730A6241 
 128      512C2989 
 128      1565F1
 129 00a4 4545ACA9 		.ascii	"EE\254\251\212oj\342\207\272\330\320\020[\316\365\252"
 129      8A6F6AE2 
 129      87BAD8D0 
 129      105BCEF5 
 129      AA
 130 00b5 5F3DDA45 		.ascii	"_=\332E\311"
 130      C9
 131              		.text
 132              		.section	.gnu.lto_.refs.f00deff3b9107005,"",%progbits
 133 0000 789C25C1 		.ascii	"x\234%\301[\026BP\000\000\300{\346\270Ry\246\007J\221"
 133      5B164250 
 133      0000C07B 
 133      E6B85279 
 133      A6074A91 
 134 0014 2CA6FD6F 		.ascii	",\246\375o\310\207\031A\370\207\235D\024\247(u\2209"
 134      C8871941 
 134      F8879D44 
 134      14A72875 
 134      9039
 135 0026 3A39CB15 		.ascii	":9\313\025J\225Z\343\242uus\367\320\351\015\236^Fo\037"
 135      4A955AE3 
 135      A2757573 
 135      F7D0E90D 
 135      9E5E466F 
 136 003b 93D9D7E2 		.ascii	"\223\331\327\342g\015\033s\304\003w"
 136      670D1B73 
 136      C40377
 137              		.text
 138              		.section	.gnu.lto_.decls.f00deff3b9107005,"",%progbits
 139 0000 789C9558 		.ascii	"x\234\225Xml\024E\030\236\331+m\257=\012\242b0\020\256"
 139      6D6C1445 
 139      189ED92B 
 139      6DAF3D0A 
 139      A2623010 
 140 0015 2A9A10E9 		.ascii	"*\232\020\351\321\357h\0045\375\201\177\360\007\011"
 140      D1EF6804 
 140      35FD817F 
 140      F00709
 141 0024 89FF36EB 		.ascii	"\211\3776\353\261\206\013\327+\271n\003\350\237\005"
 141      B1860BD7 
ARM GAS  /tmp/cciS1F3m.s 			page 10


 141      2BB96E03 
 141      E89F05
 142 0033 B11088A6 		.ascii	"\261\020\210\246\020\232b*\330*\220\022\213\366#\264"
 142      109A622A 
 142      D82A9012 
 142      8BF623B4 
 143 0043 56A8DD36 		.ascii	"V\250\3356\001\212\015\006i\252\301\242^\242\321`4b"
 143      018A0D06 
 143      69AAC1A2 
 143      5EA2D160 
 143      3462
 144 0055 20105039 		.ascii	" \020P9\337\375\270\217yo\346\206N\356\271\235\335}"
 144      DFFDB88F 
 144      796FE686 
 144      4EEEB99D 
 144      DD7D
 145 0067 9FF79999 		.ascii	"\237\367\231\231g\336iz\012QH/%$\011\355\203G\010Y\353"
 145      67DE697A 
 145      0A51482F 
 145      252409ED 
 145      83470859 
 146 007c 23A490C0 		.ascii	"#\244\220\300\225d\332<@7\240\007\320\013\350\003\014"
 146      9564DA3C 
 146      4037A007 
 146      D00BE803 
 146      0C
 147 008d 01CA0123 		.ascii	"\001\312\001#\200o\001W\001\327\000?\001~\006\374\012"
 147      806F0157 
 147      01D7003F 
 147      017E06FC 
 147      0A
 148 009e B80EF803 		.ascii	"\270\016\370\003p\003p\023p\033p\027\360\237\235\024"
 148      70037013 
 148      701B7017 
 148      F09F9D14 
 149 00ae 347D8042 		.ascii	"4}\200B@\011`>`!\340a\300c\200\307\001\313\000A\300"
 149      4009603E 
 149      6021E061 
 149      C06380C7 
 149      01CB0041 
 150 00c3 53806700 		.ascii	"S\200g\000+\001\253\000\225\200\032@=\340yJ\230\326"
 150      2B01AB00 
 150      95801A40 
 150      3DE0794A 
 150      98D6
 151 00d5 9DD5A7E8 		.ascii	"\235\325\247\350>\325zPL\017'\246\027\305\364rb\372"
 151      3ED57A50 
 151      4C0F27A6 
 151      17C5F472 
 151      62FA
 152 00e7 504C1F27 		.ascii	"PL\037'\306^\247\022\300\013\020P\006\327\000`\034P"
 152      C65EA712 
 152      C00B1050 
 152      06D70060 
 152      1C50
 153 00f9 045803CF 		.ascii	"\004X\003\317\326\002\316@\177\002P\340\301\002\\\004"
 153      D602CE40 
ARM GAS  /tmp/cciS1F3m.s 			page 11


 153      7F0250E0 
 153      C1025C04 
 154 0109 4C012E79 		.ascii	"L\001.y\271\207\274\353\010\312\277\234\0345\273\254"
 154      B987BCEB 
 154      08CABF9C 
 154      1C35BBAC 
 155 0119 C43B27FA 		.ascii	"\304;'\372\227\230]\273\306\223\311\027\311b\322nB\353"
 155      97985DBB 
 155      C693C917 
 155      C962D26E 
 155      42EB
 156 012b 6A354D6A 		.ascii	"j5Mjht\355\243\3445\252\3212?\011:\235\200\337\021!"
 156      6874EDA3 
 156      E435AAD1 
 156      323F093A 
 156      9D80DF11 
 157 0140 44A31FD1 		.ascii	"D\243\037\321\305^o\243\317M\247\330\013\272\222\234"
 157      C55E6FA3 
 157      CF4DA7D8 
 157      0BBA929C 
 158 0150 047E9B69 		.ascii	"\004~\233iN<\211V\027\232\017b\340\263>\375\346ir\334"
 158      4E3C8956 
 158      179A0F62 
 158      E0B33EFD 
 158      E66972DC 
 159 0164 96337B4C 		.ascii	"\2263{L\237#f\247\353\246\313\2639\032\375\230*\271"
 159      9F2366A7 
 159      EBA6CBB3 
 159      391AFD98 
 159      2AB9
 160 0176 A3B66E7F 		.ascii	"\243\266n\177\025h\033O$\223\313\335\241(d\003\205\330"
 160      15681B4F 
 160      2493CBDD 
 160      A1286403 
 160      85D8
 161 0188 63746546 		.ascii	"cteFI\243'2T\236T\017\226:\311\225\032\230BR\352\334"
 161      49A32732 
 161      549E540F 
 161      963AC995 
 161      1A984252 
 162 019e A57AB1D4 		.ascii	"\245z\261\324)\216\324\270u\015Km\021Jy\213\371f\366"
 162      298ED4B8 
 162      750D4B6D 
 162      114A798B 
 162      F966F6
 163 01b1 32F394FB 		.ascii	"2\363\224\373\260r?G9a\265}\035h\333\231\255\3746\315"
 163      B0723F47 
 163      3961B57D 
 163      1D68DB99 
 163      ADFC36CD 
 164 01c5 9616651F 		.ascii	"\226\026e\037\302\331\207\331\354O\220n\363\362e\353"
 164      C2D987D9 
 164      EC4F906E 
 164      F3F265EB 
 165 01d5 6EEB8714 		.ascii	"n\353\207\024\366\230i\336O&\351C\244\315N\023\234,"
 165      F69869DE 
 165      4F26E943 
ARM GAS  /tmp/cciS1F3m.s 			page 12


 165      A4CD4E13 
 165      9C2C
 166 01e7 5B440E38 		.ascii	"[D\0168\333\015v\333$\354po\257\2314\265\331\026B\206"
 166      DB0D76DB 
 166      24EC706F 
 166      AF9934B5 
 166      D9164286 
 167 01fb 15E4186C 		.ascii	"\025\344\030l(\353\346|\305\213\016\012C5z\226\256 "
 167      28EBE67C 
 167      C58B0E0A 
 167      43357A96 
 167      AE20
 168 020d D2303BF0 		.ascii	"\3220;\360K\272\310\233\235\223\337\264\256\352A\367"
 168      4BBAC89B 
 168      9D93DFB4 
 168      AEEA41F7 
 169 021d 2941B3CE 		.ascii	")A\263\316j\345\004F\272\313\232\275~\221\232\007\003"
 169      6AE50446 
 169      BACB9ABD 
 169      7E919A07 
 169      03
 170 022e A5641FDC 		.ascii	"\245d\037\334\331\265\362\312$h\354\315\334\020n\325"
 170      D9B5F2CA 
 170      2468ECCD 
 170      DC106ED5 
 171 023e B813495C 		.ascii	"\270\023I\\\335wn\234\302J\300\213\011\352\207\205\036"
 171      DD776E9C 
 171      C24AC08B 
 171      09EA8785 
 171      1E
 172 024f 400BFDE0 		.ascii	"@\013\375\340\251\356\354?\373\234i\026k\364\234\223"
 172      A9EEEC3F 
 172      FB9C6916 
 172      6BF49C93 
 173 025f E83A4AA4 		.ascii	"\350:J\244\321\"?k\016\334\247\002\354l\316k\257c\037"
 173      D1223F6B 
 173      0EDCA702 
 173      EC6CCE6B 
 173      AF631F
 174 0272 E20BC85C 		.ascii	"\342\013\310\\\303E\247\3038-M\245Q\310-g\\\366\332"
 174      C345A7C3 
 174      382D4DA5 
 174      51C82D67 
 174      5CF6DA
 175 0285 F2C2BDAE 		.ascii	"\362\302\275\256\333\274\000f\275\023\347:\217\300\001"
 175      DBBC0066 
 175      BD13E73A 
 175      8FC001
 176 0294 3541DDB4 		.ascii	"5A\335\264\2603\225\271\346\0132\376\375\250O\256N\345"
 176      B03395B9 
 176      E60B32FE 
 176      FDA84FAE 
 176      4EE5
 177 02a6 7AF74172 		.ascii	"z\367Ar\025\013\307f\335\310\312ux\316\271\202h\203"
 177      150BC766 
 177      DDC8CA75 
 177      78CEB982 
ARM GAS  /tmp/cciS1F3m.s 			page 13


 177      6883
 178 02b8 B9ABADD1 		.ascii	"\271\253\255\3211\330\306\032\265h9|_t\276\247\234\357"
 178      31D8C61A 
 178      B568397C 
 178      5F74BEA7 
 178      9CEF
 179 02ca 4BB43C13 		.ascii	"K\264<\023\254\220\343\0126\334\335\300Y\3712\373\234"
 179      AC90E30A 
 179      36DCDDC0 
 179      59F932FB 
 179      9C
 180 02db C833A6AA 		.ascii	"\3103\246\252\24585X\323=\\2\005\253\321\321\314\364"
 180      A5383558 
 180      D33D5C32 
 180      05ABD1D1 
 180      CCF4
 181 02ed 72E2347A 		.ascii	"r\3424z\031\212\333n\316\0366\275=\354\204\210v\312"
 181      198ADB6E 
 181      CE1E36BD 
 181      3DEC8488 
 181      76CA
 182 02ff 37D49FD6 		.ascii	"7\324\237\326\016\3703\235\"f\032\251(\230\364\351\364"
 182      0EF8339D 
 182      22661AA9 
 182      2898F4E9 
 182      F4
 183 0310 A4C5C3B8 		.ascii	"\244\305\303\270\342\035B5d\320\334k\331\307\325\027"
 183      E21D4235 
 183      64D0DC6B 
 183      D9C7D517 
 184 0320 30B0B481 		.ascii	"0\260\264\201\356\343\2274z\306Y\035{U\336\"\367\314"
 184      EEE39734 
 184      7AC6591D 
 184      7B55DE22 
 184      F7CC
 185 0332 BDA6F54F 		.ascii	"\275\246\365O\253\342\272i\237[\211\203\326\201\363"
 185      ABE2BA69 
 185      9F5B8983 
 185      D681F3
 186 0341 879698DD 		.ascii	"\207\226\230\335\336\271\225*\3301<\202\234I}\307\034"
 186      DEB9952A 
 186      D8313C82 
 186      9C497DC7 
 186      1C
 187 0352 82EE8AA7 		.ascii	"\202\356\212\247\024\316/E\012'r\025\256H\025\276G\012"
 187      14CE2F45 
 187      0A277215 
 187      AE4815BE 
 187      470A
 188 0364 53D90ACF 		.ascii	"S\331\012\317\262\012\255C\271\012\011\251\302\017H"
 188      B20AAD43 
 188      B90A09A9 
 188      C20F48
 189 0373 E152F62A 		.ascii	"\341R\366*\255A\012\347\351\373\346\304n\323\374\027"
 189      AD410AE7 
 189      E9FBE6C4 
 189      6ED3FC17 
ARM GAS  /tmp/cciS1F3m.s 			page 14


 190 0383 24D21A7F 		.ascii	"$\322\032\177I5\022\354\037\013/\214\3461(\211\014\352"
 190      493512EC 
 190      1F0B2F8C 
 190      E6312889 
 190      0CEA
 191 0395 E0199494 		.ascii	"\340\031\224\224\012\377\"6(\211\014\352\340\031t\320"
 191      0AFF2236 
 191      28890CEA 
 191      E01974D0 
 192 03a5 2753F84D 		.ascii	"'S\370MlP\022\031\324\3013\250K\252\360\273\330\240"
 192      6C501219 
 192      D4C133A8 
 192      4BAAF0BB 
 192      D8A0
 193 03b7 2432A883 		.ascii	"$2\250\203o\320gR\215?\271\006)y\014j\337\303\032t\204"
 193      6FD06752 
 193      8D3FB906 
 193      29790C6A 
 193      DFC31A74 
 194 03cc 5B4152E1 		.ascii	"[AR\341\277\305\006\265_X\212\024x\025$U\270%6\250\375"
 194      BFC506B5 
 194      5F588A14 
 194      78152455 
 194      B82536A8 
 195 03e1 026BD011 		.ascii	"\002k\320\021n\005I\025\356\210\015j\337\263\006)\360"
 195      6E054915 
 195      EE880D6A 
 195      DFB30629 
 195      F0
 196 03f2 2B48AA71 		.ascii	"+H\252q\217k\220/\217A\235\310\240An\005I\205\357\213"
 196      8F6B902F 
 196      8F419DC8 
 196      A0416E05 
 196      4985EF8B 
 197 0406 0DEA4406 		.ascii	"\015\352D\006\015r+\250@\246\260S\021\032\324\211\014"
 197      0D722BA8 
 197      40A6B053 
 197      111AD489 
 197      0C
 198 0417 1AE45690 		.ascii	"\032\344V\220Ta\267\"4\250\023\0314(\250 \251\306\036"
 198      5461B722 
 198      34A81319 
 198      3428A820 
 198      A9C61E
 199 042a 85675041 		.ascii	"\205gPA\036\203\372\221A#\334\012\222\012\357W\204\006"
 199      1E83FA91 
 199      4123DC0A 
 199      920AEF57 
 199      8406
 200 043c F5238346 		.ascii	"\365#\203F\270\025$UxOlP?2h\204[AR\205\003b\203\372"
 200      B8152455 
 200      784F6C50 
 200      3F326884 
 200      5B415285 
 201 0454 91412382 		.ascii	"\221A#\202\012\222j\034\342\0324/\217A\303\310\2401"
 201      0A926A1C 
 201      E21A342F 
ARM GAS  /tmp/cciS1F3m.s 			page 15


 201      8F41C3C8 
 201      A031
 202 0466 6E054985 		.ascii	"n\005I\205\017\213\015\032F\006\215q+h\236L\241Sl\320"
 202      0F8B0D1A 
 202      46068D71 
 202      2B689E4C 
 202      A1536CD0 
 203 047a 3032688C 		.ascii	"02h\214[AR\205\243b\203\206\221Ac\202\012\222jts\015"
 203      5B415285 
 203      A3628386 
 203      91416382 
 203      0A926A74 
 204 0490 2ACC63D0 		.ascii	"*\314c\320(2h\206[AR\341\343b\203F\221A3\334\012\222"
 204      28326886 
 204      5B4152E1 
 204      E3628346 
 204      914133DC 
 205 04a6 2AF4880D 		.ascii	"*\364\210\015\032E\006\315p+H\252\360\211\330\240Qd"
 205      1A4506CD 
 205      702B48AA 
 205      F089D8A0 
 205      5164
 206 04b8 D08CA082 		.ascii	"\320\214\240\202\244\032\237r\015*\312c\32042h\226["
 206      A41A9F72 
 206      0D2ACA63 
 206      D0343268 
 206      965B
 207 04ca 4152E101 		.ascii	"AR\341\001\261A\323\310\240Yn\005\025\312\024N\213\015"
 207      B141D3C8 
 207      A0596E05 
 207      15CA144E 
 207      8B0D
 208 04dc 9A4606CD 		.ascii	"\232F\006\315r+H\252\360\271\330\240id\320\254\240\202"
 208      722B48AA 
 208      F0B9D8A0 
 208      6964D0AC 
 208      A082
 209 04ee A41A6758 		.ascii	"\244\032gX\203\010a~\272p\375\021q\317*\245\002V\326"
 209      8308617E 
 209      BA70FD11 
 209      71CF2AA5 
 209      0256D6
 210 0501 BF5439AC 		.ascii	"\277T9\254Q\016\313rX\366\230\037\340W\003R_Q\021r?"
 210      510ECB72 
 210      58F6981F 
 210      E0570352 
 210      5F511172 
 211 0516 4DCDA170 		.ascii	"M\315\241pSccS,\324lhq\243ek\350\345\015\353\033\326"
 211      53636353 
 211      2CD46C68 
 211      71A3656B 
 211      E8E50DEB 
 212 052c 6FB79F6E 		.ascii	"o\267\237n\215D\365xsh]CC(\0347*+\302\244TU\303Mq]\215"
 212      8D44F578 
 212      73685D43 
 212      43281C37 
 212      2A2BC2A4 
ARM GAS  /tmp/cciS1F3m.s 			page 16


 213 0547 C42246E1 		.ascii	"\304\"F\341\272W7\006\033H\3016]\333\022PU]\213Gw8/"
 213      BA573706 
 213      1B48C136 
 213      5DDB1250 
 213      555D8B47 
 214 055e 2028AA19 		.ascii	" (\252\031nP\231\252n\322\337\320Z\242\206\252o\217"
 214      6E5099AA 
 214      6ED2DFD0 
 214      5AA286AA 
 214      6F8F
 215 0570 18C53160 		.ascii	"\030\3051`\033-\361\330B\325y\255\306\265FU\213\353"
 215      1B2DF1D8 
 215      42D579AD 
 215      C6B54655 
 215      8BEB
 216 0582 5AF3B250 		.ascii	"Z\363\262PKs<\024\211\205\243-\233\364PL\337\026\215"
 216      4B733C14 
 216      8985A32D 
 216      9BF4504C 
 216      DF168D
 217 0595 BC0E43DA 		.ascii	"\274\016C\332\024\211\031\025\233Iq\013\\\253\253Tc"
 217      14891915 
 217      9B49710B 
 217      5CABAB54 
 217      63
 218 05a6 152FAC51 		.ascii	"\025/\254Q\013o\216\304\364PZ\312\330\261Uo\006Z\211"
 218      0B6F8EC4 
 218      F4505ACA 
 218      D8B1556F 
 218      065A89
 219 05b9 AAA68865 		.ascii	"\252\246\210e\216\234\241o7\034=\277sk\367J\302Q\030"
 219      8E9CA16F 
 219      371C3DBF 
 219      736BF74A 
 219      C25118
 220 05cc BAD30DC4 		.ascii	"\272\323\015\304\232\324\364\363\005\366\320\322w\252"
 220      9AD4F4F3 
 220      05F6D0D2 
 220      77AA
 221 05da E14F0F75 		.ascii	"\341O\017u\221j\017{\265\232\311\250\316\317~\244\226"
 221      916A0F7B 
 221      B59AC9A8 
 221      CECF7EA4 
 221      96
 222 05eb 79776E66 		.ascii	"ywnfu\201w\033kr_\273\374\312\\~%\303\257d\371\225\210"
 222      7581771B 
 222      6B725FBB 
 222      FCCA5C7E 
 222      25C3AF64 
 223 0602 5F95CBAF 		.ascii	"_\225\313\257b\370U,\277\012\361\253s\371\325\014\277"
 223      62F8552C 
 223      BF0AF1AB 
 223      73F9D50C 
 223      BF
 224 0613 9AE55723 		.ascii	"\232\345W#~M.\277\206\341\327\260\374\032\304\257\315"
 224      7E4D2EBF 
 224      86E1D7B0 
ARM GAS  /tmp/cciS1F3m.s 			page 17


 224      FC1AC4AF 
 224      CD
 225 0624 E5D732FC 		.ascii	"\345\3272\374Z\226_\213\370u\271\374:\206_\307\362\353"
 225      5A965F8B 
 225      F875B9FC 
 225      3A865FC7 
 225      F2EB
 226 0636 10BF3E97 		.ascii	"\020\277>\227_\317\360\353Y~}\232\377?@\215\001\312"
 226      5FCFF0EB 
 226      597E7D9A 
 226      FF3F408D 
 226      01CA
 227              		.text
 228              		.section	.gnu.lto_.symtab.f00deff3b9107005,"",%progbits
 229 0000 5F5F636F 		.ascii	"__core_init\000\000\001\000\000\000\000\000\000\000"
 229      72655F69 
 229      6E697400 
 229      00010000 
 229      00000000 
 230 0015 0000A100 		.ascii	"\000\000\241\000\000\000__early_init\000\000\001\000"
 230      00005F5F 
 230      6561726C 
 230      795F696E 
 230      69740000 
 231 002b 00000000 		.ascii	"\000\000\000\000\000\000\000\000\250\000\000\000__l"
 231      00000000 
 231      A8000000 
 231      5F5F6C
 232 003a 6174655F 		.ascii	"ate_init\000\000\001\000\000\000\000\000\000\000\000"
 232      696E6974 
 232      00000100 
 232      00000000 
 232      000000
 233 004d 00AC0000 		.ascii	"\000\254\000\000\000__default_exit\000\000\001\000\000"
 233      005F5F64 
 233      65666175 
 233      6C745F65 
 233      78697400 
 234 0065 00000000 		.ascii	"\000\000\000\000\000\000\000\260\000\000\000__init_"
 234      000000B0 
 234      0000005F 
 234      5F696E69 
 234      745F
 235 0077 72616D5F 		.ascii	"ram_areas\000\000\000\000\000\000\000\000\000\000\000"
 235      61726561 
 235      73000000 
 235      00000000 
 235      00000000 
 236 008b 00B60000 		.ascii	"\000\266\000\000\000__ram0_init_text__\000\000\002\000"
 236      005F5F72 
 236      616D305F 
 236      696E6974 
 236      5F746578 
 237 00a6 00000000 		.ascii	"\000\000\000\000\000\000\000\000\326\000\000\000__r"
 237      00000000 
 237      D6000000 
 237      5F5F72
ARM GAS  /tmp/cciS1F3m.s 			page 18


 238 00b5 616D305F 		.ascii	"am0_init__\000\000\002\000\000\000\000\000\000\000\000"
 238      696E6974 
 238      5F5F0000 
 238      02000000 
 238      00000000 
 239 00ca 00D90000 		.ascii	"\000\331\000\000\000__ram0_clear__\000\000\002\000\000"
 239      005F5F72 
 239      616D305F 
 239      636C6561 
 239      725F5F00 
 240 00e2 00000000 		.ascii	"\000\000\000\000\000\000\000\334\000\000\000__ram0_"
 240      000000DC 
 240      0000005F 
 240      5F72616D 
 240      305F
 241 00f4 6E6F696E 		.ascii	"noinit__\000\000\002\000\000\000\000\000\000\000\000"
 241      69745F5F 
 241      00000200 
 241      00000000 
 241      000000
 242 0107 00DF0000 		.ascii	"\000\337\000\000\000__ram1_init_text__\000\000\002\000"
 242      005F5F72 
 242      616D315F 
 242      696E6974 
 242      5F746578 
 243 0122 00000000 		.ascii	"\000\000\000\000\000\000\000\000\343\000\000\000__r"
 243      00000000 
 243      E3000000 
 243      5F5F72
 244 0131 616D315F 		.ascii	"am1_init__\000\000\002\000\000\000\000\000\000\000\000"
 244      696E6974 
 244      5F5F0000 
 244      02000000 
 244      00000000 
 245 0146 00E60000 		.ascii	"\000\346\000\000\000__ram1_clear__\000\000\002\000\000"
 245      005F5F72 
 245      616D315F 
 245      636C6561 
 245      725F5F00 
 246 015e 00000000 		.ascii	"\000\000\000\000\000\000\000\351\000\000\000__ram1_"
 246      000000E9 
 246      0000005F 
 246      5F72616D 
 246      315F
 247 0170 6E6F696E 		.ascii	"noinit__\000\000\002\000\000\000\000\000\000\000\000"
 247      69745F5F 
 247      00000200 
 247      00000000 
 247      000000
 248 0183 00EC0000 		.ascii	"\000\354\000\000\000__ram2_init_text__\000\000\002\000"
 248      005F5F72 
 248      616D325F 
 248      696E6974 
 248      5F746578 
 249 019e 00000000 		.ascii	"\000\000\000\000\000\000\000\000\360\000\000\000__r"
 249      00000000 
 249      F0000000 
ARM GAS  /tmp/cciS1F3m.s 			page 19


 249      5F5F72
 250 01ad 616D325F 		.ascii	"am2_init__\000\000\002\000\000\000\000\000\000\000\000"
 250      696E6974 
 250      5F5F0000 
 250      02000000 
 250      00000000 
 251 01c2 00F30000 		.ascii	"\000\363\000\000\000__ram2_clear__\000\000\002\000\000"
 251      005F5F72 
 251      616D325F 
 251      636C6561 
 251      725F5F00 
 252 01da 00000000 		.ascii	"\000\000\000\000\000\000\000\366\000\000\000__ram2_"
 252      000000F6 
 252      0000005F 
 252      5F72616D 
 252      325F
 253 01ec 6E6F696E 		.ascii	"noinit__\000\000\002\000\000\000\000\000\000\000\000"
 253      69745F5F 
 253      00000200 
 253      00000000 
 253      000000
 254 01ff 00F90000 		.ascii	"\000\371\000\000\000__ram3_init_text__\000\000\002\000"
 254      005F5F72 
 254      616D335F 
 254      696E6974 
 254      5F746578 
 255 021a 00000000 		.ascii	"\000\000\000\000\000\000\000\000\375\000\000\000__r"
 255      00000000 
 255      FD000000 
 255      5F5F72
 256 0229 616D335F 		.ascii	"am3_init__\000\000\002\000\000\000\000\000\000\000\000"
 256      696E6974 
 256      5F5F0000 
 256      02000000 
 256      00000000 
 257 023e 00000100 		.ascii	"\000\000\001\000\000__ram3_clear__\000\000\002\000\000"
 257      005F5F72 
 257      616D335F 
 257      636C6561 
 257      725F5F00 
 258 0256 00000000 		.ascii	"\000\000\000\000\000\000\000\003\001\000\000__ram3_"
 258      00000003 
 258      0100005F 
 258      5F72616D 
 258      335F
 259 0268 6E6F696E 		.ascii	"noinit__\000\000\002\000\000\000\000\000\000\000\000"
 259      69745F5F 
 259      00000200 
 259      00000000 
 259      000000
 260 027b 00060100 		.ascii	"\000\006\001\000\000__ram4_init_text__\000\000\002\000"
 260      005F5F72 
 260      616D345F 
 260      696E6974 
 260      5F746578 
 261 0296 00000000 		.ascii	"\000\000\000\000\000\000\000\000\012\001\000\000__r"
 261      00000000 
ARM GAS  /tmp/cciS1F3m.s 			page 20


 261      0A010000 
 261      5F5F72
 262 02a5 616D345F 		.ascii	"am4_init__\000\000\002\000\000\000\000\000\000\000\000"
 262      696E6974 
 262      5F5F0000 
 262      02000000 
 262      00000000 
 263 02ba 000D0100 		.ascii	"\000\015\001\000\000__ram4_clear__\000\000\002\000\000"
 263      005F5F72 
 263      616D345F 
 263      636C6561 
 263      725F5F00 
 264 02d2 00000000 		.ascii	"\000\000\000\000\000\000\000\020\001\000\000__ram4_"
 264      00000010 
 264      0100005F 
 264      5F72616D 
 264      345F
 265 02e4 6E6F696E 		.ascii	"noinit__\000\000\002\000\000\000\000\000\000\000\000"
 265      69745F5F 
 265      00000200 
 265      00000000 
 265      000000
 266 02f7 00130100 		.ascii	"\000\023\001\000\000__ram5_init_text__\000\000\002\000"
 266      005F5F72 
 266      616D355F 
 266      696E6974 
 266      5F746578 
 267 0312 00000000 		.ascii	"\000\000\000\000\000\000\000\000\027\001\000\000__r"
 267      00000000 
 267      17010000 
 267      5F5F72
 268 0321 616D355F 		.ascii	"am5_init__\000\000\002\000\000\000\000\000\000\000\000"
 268      696E6974 
 268      5F5F0000 
 268      02000000 
 268      00000000 
 269 0336 001A0100 		.ascii	"\000\032\001\000\000__ram5_clear__\000\000\002\000\000"
 269      005F5F72 
 269      616D355F 
 269      636C6561 
 269      725F5F00 
 270 034e 00000000 		.ascii	"\000\000\000\000\000\000\000\035\001\000\000__ram5_"
 270      0000001D 
 270      0100005F 
 270      5F72616D 
 270      355F
 271 0360 6E6F696E 		.ascii	"noinit__\000\000\002\000\000\000\000\000\000\000\000"
 271      69745F5F 
 271      00000200 
 271      00000000 
 271      000000
 272 0373 00200100 		.ascii	"\000 \001\000\000__ram6_init_text__\000\000\002\000"
 272      005F5F72 
 272      616D365F 
 272      696E6974 
 272      5F746578 
 273 038e 00000000 		.ascii	"\000\000\000\000\000\000\000\000$\001\000\000__ram6"
ARM GAS  /tmp/cciS1F3m.s 			page 21


 273      00000000 
 273      24010000 
 273      5F5F7261 
 273      6D36
 274 03a0 5F696E69 		.ascii	"_init__\000\000\002\000\000\000\000\000\000\000\000"
 274      745F5F00 
 274      00020000 
 274      00000000 
 274      0000
 275 03b2 00270100 		.ascii	"\000'\001\000\000__ram6_clear__\000\000\002\000\000"
 275      005F5F72 
 275      616D365F 
 275      636C6561 
 275      725F5F00 
 276 03ca 00000000 		.ascii	"\000\000\000\000\000\000\000*\001\000\000__ram6_noi"
 276      0000002A 
 276      0100005F 
 276      5F72616D 
 276      365F6E6F 
 277 03df 6E69745F 		.ascii	"nit__\000\000\002\000\000\000\000\000\000\000\000\000"
 277      5F000002 
 277      00000000 
 277      00000000 
 277      00
 278 03f0 2D010000 		.ascii	"-\001\000\000__ra"
 278      5F5F7261 
 279 03f8 6D375F69 		.ascii	"m7_init_text__\000\000\002\000\000\000\000\000\000\000"
 279      6E69745F 
 279      74657874 
 279      5F5F0000 
 279      02000000 
 280 0410 00003101 		.ascii	"\000\0001\001\000\000__ram7_init__\000\000\002\000\000"
 280      00005F5F 
 280      72616D37 
 280      5F696E69 
 280      745F5F00 
 281 0428 00000000 		.ascii	"\000\000\000\000\000\000\0004\001\000\000__ram7_cle"
 281      00000034 
 281      0100005F 
 281      5F72616D 
 281      375F636C 
 282 043d 61725F5F 		.ascii	"ar__\000\000\002\000\000\000\000\000\000\000\000\000"
 282      00000200 
 282      00000000 
 282      00000000 
 283 044d 37010000 		.ascii	"7\001\000\000__ram7_noinit__\000\000\002\000\000\000"
 283      5F5F7261 
 283      6D375F6E 
 283      6F696E69 
 283      745F5F00 
 284 0466 00000000 		.ascii	"\000\000\000\000\000\000:\001\000\000"
 284      00003A01 
 284      0000
 285              		.text
 286              		.section	.gnu.lto_.opts,"",%progbits
 287 0000 272D6D63 		.ascii	"'-mcpu=cortex-m3' '-mno-thumb-interwork' '-mthumb' "
 287      70753D63 
ARM GAS  /tmp/cciS1F3m.s 			page 22


 287      6F727465 
 287      782D6D33 
 287      2720272D 
 288 0033 272D6767 		.ascii	"'-ggdb' '-O2' '-fomit-frame-pointer' '-falign-funct"
 288      64622720 
 288      272D4F32 
 288      2720272D 
 288      666F6D69 
 289 0066 696F6E73 		.ascii	"ions=16' '-ffunction-sections' '-fdata-sections' '-"
 289      3D313627 
 289      20272D66 
 289      66756E63 
 289      74696F6E 
 290 0099 666E6F2D 		.ascii	"fno-common' '-flto'\000"
 290      636F6D6D 
 290      6F6E2720 
 290      272D666C 
 290      746F2700 
 291              		.text
 292              		.cfi_sections	.debug_frame
 293              		.section	.text.__core_init,"ax",%progbits
 294              		.align	2
 295              		.p2align 4,,15
 296              		.weak	__core_init
 297              		.thumb
 298              		.thumb_func
 299              		.type	__core_init, %function
 300              	__core_init:
 301              	.LFB63:
 302              		.file 1 "../../../os/common/startup/ARMCMx/compilers/GCC/crt1.c"
 303              		.loc 1 136 0
 304              		.cfi_startproc
 305              		@ args = 0, pretend = 0, frame = 0
 306              		@ frame_needed = 0, uses_anonymous_args = 0
 307              		@ link register save eliminated.
 308 0000 7047     		bx	lr
 309              		.cfi_endproc
 310              	.LFE63:
 311              		.size	__core_init, .-__core_init
 312 0002 00BFAFF3 		.section	.text.__early_init,"ax",%progbits
 312      0080AFF3 
 312      0080AFF3 
 312      0080
 313              		.align	2
 314              		.p2align 4,,15
 315              		.weak	__early_init
 316              		.thumb
 317              		.thumb_func
 318              		.type	__early_init, %function
 319              	__early_init:
 320              	.LFB64:
 321              		.loc 1 155 0
 322              		.cfi_startproc
 323              		@ args = 0, pretend = 0, frame = 0
 324              		@ frame_needed = 0, uses_anonymous_args = 0
 325              		@ link register save eliminated.
 326 0000 7047     		bx	lr
ARM GAS  /tmp/cciS1F3m.s 			page 23


 327              		.cfi_endproc
 328              	.LFE64:
 329              		.size	__early_init, .-__early_init
 330 0002 00BFAFF3 		.section	.text.__late_init,"ax",%progbits
 330      0080AFF3 
 330      0080AFF3 
 330      0080
 331              		.align	2
 332              		.p2align 4,,15
 333              		.weak	__late_init
 334              		.thumb
 335              		.thumb_func
 336              		.type	__late_init, %function
 337              	__late_init:
 338              	.LFB65:
 339              		.loc 1 169 0
 340              		.cfi_startproc
 341              		@ args = 0, pretend = 0, frame = 0
 342              		@ frame_needed = 0, uses_anonymous_args = 0
 343              		@ link register save eliminated.
 344 0000 7047     		bx	lr
 345              		.cfi_endproc
 346              	.LFE65:
 347              		.size	__late_init, .-__late_init
 348 0002 00BFAFF3 		.section	.text.__default_exit,"ax",%progbits
 348      0080AFF3 
 348      0080AFF3 
 348      0080
 349              		.align	2
 350              		.p2align 4,,15
 351              		.weak	__default_exit
 352              		.thumb
 353              		.thumb_func
 354              		.type	__default_exit, %function
 355              	__default_exit:
 356              	.LFB66:
 357              		.loc 1 182 0
 358              		.cfi_startproc
 359              		@ Volatile: function does not return.
 360              		@ args = 0, pretend = 0, frame = 0
 361              		@ frame_needed = 0, uses_anonymous_args = 0
 362              		@ link register save eliminated.
 363              	.L5:
 364 0000 FEE7     		b	.L5
 365              		.cfi_endproc
 366              	.LFE66:
 367              		.size	__default_exit, .-__default_exit
 368 0002 00BFAFF3 		.section	.text.__init_ram_areas,"ax",%progbits
 368      0080AFF3 
 368      0080AFF3 
 368      0080
 369              		.align	2
 370              		.p2align 4,,15
 371              		.global	__init_ram_areas
 372              		.thumb
 373              		.thumb_func
 374              		.type	__init_ram_areas, %function
ARM GAS  /tmp/cciS1F3m.s 			page 24


 375              	__init_ram_areas:
 376              	.LFB67:
 377              		.loc 1 192 0
 378              		.cfi_startproc
 379              		@ args = 0, pretend = 0, frame = 0
 380              		@ frame_needed = 0, uses_anonymous_args = 0
 381              		@ link register save eliminated.
 382              	.LVL0:
 383              		.loc 1 192 0
 384 0000 F0B4     		push	{r4, r5, r6, r7}
 385              		.cfi_def_cfa_offset 16
 386              		.cfi_offset 4, -16
 387              		.cfi_offset 5, -12
 388              		.cfi_offset 6, -8
 389              		.cfi_offset 7, -4
 390 0002 134E     		ldr	r6, .L19
 391              	.LBB2:
 392              		.loc 1 209 0
 393 0004 0025     		movs	r5, #0
 394 0006 06F17007 		add	r7, r6, #112
 395              	.LVL1:
 396              	.L15:
 397              		.loc 1 197 0
 398 000a A6F11001 		sub	r1, r6, #16
 399              	.LVL2:
 400 000e 1AC9     		ldmia	r1, {r1, r3, r4}
 401              	.LVL3:
 402              		.loc 1 201 0
 403 0010 A342     		cmp	r3, r4
 404 0012 0DD2     		bcs	.L7
 405 0014 0439     		subs	r1, r1, #4
 406              	.LVL4:
 407 0016 1A46     		mov	r2, r3
 408              	.LVL5:
 409              	.L9:
 410              		.loc 1 202 0
 411 0018 51F8040F 		ldr	r0, [r1, #4]!
 412              	.LVL6:
 413 001c 42F8040B 		str	r0, [r2], #4
 414              	.LVL7:
 415              		.loc 1 201 0
 416 0020 A242     		cmp	r2, r4
 417 0022 F9D3     		bcc	.L9
 418 0024 DA43     		mvns	r2, r3
 419              	.LVL8:
 420 0026 1444     		add	r4, r4, r2
 421 0028 24F00304 		bic	r4, r4, #3
 422 002c 0434     		adds	r4, r4, #4
 423 002e 2344     		add	r3, r3, r4
 424              	.LVL9:
 425              	.L7:
 426              		.loc 1 208 0 discriminator 1
 427 0030 56F8042C 		ldr	r2, [r6, #-4]
 428 0034 9342     		cmp	r3, r2
 429 0036 03D2     		bcs	.L13
 430              	.L14:
 431              		.loc 1 209 0
ARM GAS  /tmp/cciS1F3m.s 			page 25


 432 0038 43F8045B 		str	r5, [r3], #4
 433              	.LVL10:
 434              		.loc 1 208 0
 435 003c 9342     		cmp	r3, r2
 436 003e FBD3     		bcc	.L14
 437              	.L13:
 438              	.LVL11:
 439              	.LBE2:
 440              		.loc 1 214 0
 441 0040 BE42     		cmp	r6, r7
 442 0042 06F11003 		add	r3, r6, #16
 443              	.LVL12:
 444 0046 01D2     		bcs	.L18
 445 0048 1E46     		mov	r6, r3
 446              	.LVL13:
 447 004a DEE7     		b	.L15
 448              	.LVL14:
 449              	.L18:
 450              		.loc 1 216 0
 451 004c F0BC     		pop	{r4, r5, r6, r7}
 452              	.LVL15:
 453 004e 7047     		bx	lr
 454              	.L20:
 455              		.align	2
 456              	.L19:
 457 0050 10000000 		.word	.LANCHOR0+16
 458              		.cfi_endproc
 459              	.LFE67:
 460              		.size	__init_ram_areas, .-__init_ram_areas
 461 0054 AFF30080 		.section	.rodata.ram_areas,"a",%progbits
 461      AFF30080 
 461      AFF30080 
 462              		.align	2
 463              		.set	.LANCHOR0,. + 0
 464              		.type	ram_areas, %object
 465              		.size	ram_areas, 128
 466              	ram_areas:
 467 0000 00000000 		.word	__ram0_init_text__
 468 0004 00000000 		.word	__ram0_init__
 469 0008 00000000 		.word	__ram0_clear__
 470 000c 00000000 		.word	__ram0_noinit__
 471 0010 00000000 		.word	__ram1_init_text__
 472 0014 00000000 		.word	__ram1_init__
 473 0018 00000000 		.word	__ram1_clear__
 474 001c 00000000 		.word	__ram1_noinit__
 475 0020 00000000 		.word	__ram2_init_text__
 476 0024 00000000 		.word	__ram2_init__
 477 0028 00000000 		.word	__ram2_clear__
 478 002c 00000000 		.word	__ram2_noinit__
 479 0030 00000000 		.word	__ram3_init_text__
 480 0034 00000000 		.word	__ram3_init__
 481 0038 00000000 		.word	__ram3_clear__
 482 003c 00000000 		.word	__ram3_noinit__
 483 0040 00000000 		.word	__ram4_init_text__
 484 0044 00000000 		.word	__ram4_init__
 485 0048 00000000 		.word	__ram4_clear__
 486 004c 00000000 		.word	__ram4_noinit__
ARM GAS  /tmp/cciS1F3m.s 			page 26


 487 0050 00000000 		.word	__ram5_init_text__
 488 0054 00000000 		.word	__ram5_init__
 489 0058 00000000 		.word	__ram5_clear__
 490 005c 00000000 		.word	__ram5_noinit__
 491 0060 00000000 		.word	__ram6_init_text__
 492 0064 00000000 		.word	__ram6_init__
 493 0068 00000000 		.word	__ram6_clear__
 494 006c 00000000 		.word	__ram6_noinit__
 495 0070 00000000 		.word	__ram7_init_text__
 496 0074 00000000 		.word	__ram7_init__
 497 0078 00000000 		.word	__ram7_clear__
 498 007c 00000000 		.word	__ram7_noinit__
 499              		.text
 500              	.Letext0:
 501              		.file 2 "/usr/include/newlib/machine/_default_types.h"
 502              		.file 3 "/usr/include/newlib/stdint.h"
 503              		.file 4 "../../../os/common/ext/CMSIS/include/core_cm3.h"