ARM GAS  /tmp/ccbsOoKd.s 			page 1


   1              		.syntax unified
   2              		.cpu cortex-m3
   3              		.fpu softvfp
   4              		.eabi_attribute 20, 1
   5              		.eabi_attribute 21, 1
   6              		.eabi_attribute 23, 3
   7              		.eabi_attribute 24, 1
   8              		.eabi_attribute 25, 1
   9              		.eabi_attribute 26, 1
  10              		.eabi_attribute 30, 2
  11              		.eabi_attribute 34, 1
  12              		.eabi_attribute 18, 4
  13              		.thumb
  14              		.file	"hal_st_lld.c"
  15              		.text
  16              	.Ltext0:
  17              		.section	.gnu.lto_.jmpfuncs.b0062a1d0c5a7503,"",%progbits
  18 0000 789C6362 		.ascii	"x\234cb`b\300\006\244\2414X\226\221\201\211)\2021\223"
  18      6062C006 
  18      A4A13458 
  18      96918189 
  18      29823193 
  19 0014 91410628 		.ascii	"\221A\006(\000fp\000E\001\031\363\001\323"
  19      00667000 
  19      450119F3 
  19      01D3
  20              		.text
  21              		.section	.gnu.lto_.inline.b0062a1d0c5a7503,"",%progbits
  22 0000 789C6362 		.ascii	"x\234cb`b\300\006\254\2404P\226G\224\221\201\211\357"
  22      6062C006 
  22      ACA03450 
  22      96479491 
  22      8189EF
  23 0013 5E0003DB 		.ascii	"^\000\003\333\002y\260bF.8\301 \"\003\224\224yp\213"
  23      0279B062 
  23      462E38C1 
  23      20220394 
  23      9479708B 
  24 0027 112ECBCC 		.ascii	"\021.\313\314\003\326\305\000\000\260\004\005a"
  24      03D6C500 
  24      00B00405 
  24      61
  25              		.text
  26              		.section	.gnu.lto_.pureconst.b0062a1d0c5a7503,"",%progbits
  27 0000 789C6362 		.ascii	"x\234cb`b`e\200\000&\006+F)\000\001f\000a"
  27      60626065 
  27      80002606 
  27      2B462900 
  27      01660061 
  28              		.text
  29              		.section	.gnu.lto_VectorB0.b0062a1d0c5a7503,"",%progbits
  30 0000 789C8D53 		.ascii	"x\234\215S_HSQ\030\377\276s\357\3344\007\372\332\303"
  30      5F485351 
  30      18FFBE73 
  30      EFDC3407 
  30      FADAC3
  31 0013 1C421494 		.ascii	"\034B\024\224\273\251\017\275\026\366\"\270\0277\241"
ARM GAS  /tmp/ccbsOoKd.s 			page 2


  31      BBA90FBD 
  31      16F622B8 
  31      1737A1
  32 0022 9EC6F53A 		.ascii	"\236\306\365:\334\205\315\311\356\024\245\007\317\334"
  32      DC85CDC9 
  32      EE14A507 
  32      CFDC
  33 0030 1E0283C4 		.ascii	"\036\002\203\304\210\"\321\360!\243\036\222\"\"\024"
  33      8822D1F0 
  33      21A31E92 
  33      222214
  34 003f 4A7B3242 		.ascii	"J{2BE\212\010)\230/\202\364O\361\241Hm}\347^ww\035R"
  34      458A0829 
  34      982F82F4 
  34      4FF1A148 
  34      6D7DE75E 
  35 0057 7DEC3BDF 		.ascii	"}\354;\337w\276\177\347w~\347\216\001\203ri\"\235\224"
  35      77BE7FE7 
  35      777EE78E 
  35      01837269 
  35      229D94
  36 006a 007E9045 		.ascii	"\000~\220E\027 \033]\006\310x\030\223f}\300\253\344"
  36      17201B5D 
  36      06C87818 
  36      93667DC0 
  36      ABE4
  37 007c F70AF06A 		.ascii	"\367\012\360j\011e+,#\012\007\020\206\230$\343\320e"
  37      09652B2C 
  37      230A0710 
  37      869824E3 
  37      D065
  38 008e 3487CCB0 		.ascii	"4\207\314\260\371|\241\360\350\305\365\273{\370\222"
  38      F97CA1F0 
  38      E8C5F5BB 
  38      7BF892
  39 009d 7925D011 		.ascii	"y%\320\021d\261\220\270 \307\371\250\037@3\267aZ\305"
  39      64B190B8 
  39      20C7F9A8 
  39      1F4033B7 
  39      615AC5
  40 00b0 880E64C2 		.ascii	"\210\016d\302JK\360j\355\303\356:Sq\212\216\357F\351"
  40      4A4BF06A 
  40      EDC3EE3A 
  40      53718A8E 
  40      EF46E9
  41 00c3 343CE439 		.ascii	"4<\3449\324\021\307\341\016\031v\211\026\211\223\310"
  41      D411C7E1 
  41      0E197689 
  41      168993C8 
  42 00d3 60BAE681 		.ascii	"`\272\346\201\235X\304\277\004\331\271\354\006\026\333"
  42      9D58C4BF 
  42      04D9B9EC 
  42      0616DB
  43 00e2 659A20CA 		.ascii	"e\232 \312\314\233.B\356K\306k\247\314\270S:h\332\254"
  43      CC9B2E42 
  43      EE4BC66B 
  43      A7CCB853 
ARM GAS  /tmp/ccbsOoKd.s 			page 3


  43      3A68DAAC 
  44 00f6 4F4078FE 		.ascii	"O@x\376sw\373\000\202y~\206\207\376\023\201\210\230"
  44      7377FB00 
  44      82797E86 
  44      87FE1381 
  44      8898
  45 0108 EE6B18F6 		.ascii	"\356k\030\366\000\324\303\024\347c\371O\017\226\026"
  45      00D4C314 
  45      E763F94F 
  45      0F9616
  46 0117 702CCB17 		.ascii	"p,\313\027yn\276P\300:\035e\006](8\020\015.\277i*\344"
  46      796EBE50 
  46      C03A1D65 
  46      065D2838 
  46      100D2EBF 
  47 012e C36F2162 		.ascii	"\303o!b21\005\3130\274\275\226\235>nsg9\363so\307\245"
  47      323105CB 
  47      30BCBD96 
  47      9D3E6E73 
  47      6739F373 
  48 0145 532A4E63 		.ascii	"S*Nc\275M,\377\276\262 \331\005;7\027\275\015\245\335"
  48      BD4D2CFF 
  48      BEB220D9 
  48      053B3717 
  48      BD0DA5DD 
  49 0159 AD91DAC7 		.ascii	"\255\221\332\307.{\373fo\2076\326-5\024`\030\251D*\223"
  49      2E7BFB66 
  49      6F8736D6 
  49      2D351460 
  49      18A9442A 
  50 016e BAC07C57 		.ascii	"\272\300|W\204\217\024\"\366$\353c\361\301W\234\340"
  50      848F1422 
  50      F624EB63 
  50      F1C1579C 
  50      E0
  51 017f B7CFEBE8 		.ascii	"\267\317\353\350>\004\261\224\337:\310{\254K\254@vk"
  51      3E04B194 
  51      DF3AC87B 
  51      AC4BAC40 
  51      766B
  52 0191 EFDEC6B5 		.ascii	"\357\336\306\265\206r\360#\373Yw\351\370\012\253\372"
  52      8672F023 
  52      FB5977E9 
  52      F80AABFA 
  53 01a1 0AFCE257 		.ascii	"\012\374\342Wy\215\216\225\032\272U|j\301\320\261\252"
  53      798D8E95 
  53      1ABA557C 
  53      6AC1D0B1 
  53      AA
  54 01b2 9CD0CDE5 		.ascii	"\234\320\315\345rBU\274o^\340\237\214\302\337\030\375"
  54      724255BC 
  54      6F5EE09F 
  54      8CC2DF18 
  54      FD
  55 01c3 3C21187D 		.ascii	"<!\030}\346dt\356\335\272\223\321o^\305\301\350d\355"
  55      E66474EE 
  55      DDBA93D1 
ARM GAS  /tmp/ccbsOoKd.s 			page 4


  55      6F5EC5C1 
  55      E864ED
  56 01d6 AA83D1FD 		.ascii	"\252\203\321\375\033\216+yH+I\253H\217\035\301\250\212"
  56      1B8E2B79 
  56      482B49AB 
  56      488F1DC1 
  56      A88A
  57 01e8 33E4D890 		.ascii	"3\344\330\220\212\014\252\370\004}\316\217R6\377\030"
  57      8A0CAAF8 
  57      047DCE8F 
  57      5236FF18 
  58 01f8 C463FE77 		.ascii	"\304c\376w\2675\3730O\325`s\264\012\231|\341d\261\310"
  58      B735FB30 
  58      4FD56073 
  58      B40A997C 
  58      E164B1C8 
  59 020c 92303D2D 		.ascii	"\2220=-\015\020\263\233\003\001\305\372%\015%\246\306"
  59      0D10B39B 
  59      0301C5FA 
  59      250D25A6 
  59      C6
  60 021d 95DE642A 		.ascii	"\225\336d*m(\241p\260\271Iik\273\250\204[\203\375\215"
  60      6D28A170 
  60      B0B94969 
  60      6BBBA884 
  60      5B83FD8D 
  61 0231 221331D2 		.ascii	"\"\0231\322\221x\274+\240A\203\263GK&\022\311\236\203"
  61      9178BC2B 
  61      A04183B3 
  61      474B2612 
  61      C99E83
  62 0244 B60BEDC1 		.ascii	"\266\013\355\301\226\340\200\242\305\264d*\032\351?"
  62      96E080A2 
  62      C5B4642A 
  62      1AE93F
  63 0253 9708C4C0 		.ascii	"\227\010\304\300\325\257\306\373\242\215G\364D\007\322"
  63      D5AFC6FB 
  63      A28D47F4 
  63      4407D2
  64 0262 4A4B30D4 		.ascii	"JK0\324\032R\364\036-\336\327\025U\264\204\241\033\221"
  64      1A52F41E 
  64      2DDED715 
  64      55B484A1 
  64      1B91
  65 0274 6E4DA3BE 		.ascii	"nM\243\276:gG*]\252\211\031\203Fy^ O\032\264P\241\260"
  65      3A67472A 
  65      5DAA8919 
  65      8346795E 
  65      204F1AB4 
  66 028b 94AF0986 		.ascii	"\224\257\011\206\332\375\235\252\021\355M\351g\374'"
  66      DAFD9DAA 
  66      11ED4DE9 
  66      67FC27
  67 029a CE024B81 		.ascii	"\316\002K\201;\021M$S\203\360\007h\2222f"
  67      3B114D24 
  67      5383F007 
  67      68923266 
ARM GAS  /tmp/ccbsOoKd.s 			page 5


  68              		.text
  69              		.section	.gnu.lto_st_lld_init.b0062a1d0c5a7503,"",%progbits
  70 0000 789C95D3 		.ascii	"x\234\225\323\275O\302@\024\000\360\367\356\332\362"
  70      BD4FC240 
  70      1400F0F7 
  70      EEDAF2
  71 000f A1313A4A 		.ascii	"\2411:J\034\\\215\221F\211\263\213\013\011L\326D&\202"
  71      1C5C8D91 
  71      4689B38B 
  71      0B094CD6 
  71      442682
  72 0022 98200909 		.ascii	"\230 \011\011F\210\213\003G\304\204\301\2018\021u\320"
  72      46888B03 
  72      47C484C1 
  72      81381175 
  72      D0
  73 0033 150C6CA6 		.ascii	"\025\014l\246\306A\302\346\000\306\21581\352\177@\\"
  73      C641C2E6 
  73      00C68D38 
  73      31EA7F40 
  73      5C
  74 0044 EA5D3F40 		.ascii	"\352]?@\300\220\364\322\276k{\367~}m\257\004\010L\266"
  74      C090F4D2 
  74      BE6B7BF7 
  74      7E7D6DAF 
  74      04084CB6 
  75 0058 65BE0724 		.ascii	"e\276\007$\200m\336#\005$\225.@\321K\020\305\001 \024"
  75      806DDE23 
  75      0524952E 
  75      40D14B10 
  75      C5012014 
  76 006c 08166268 		.ascii	"\010\026bh\316m\222V\3370\032O\327wW\330%K\004\322\010"
  76      CE6D9256 
  76      DF301A4F 
  76      D77757D8 
  76      254B04D2 
  77 0081 54045904 		.ascii	"T\004Y\004E\004\336d(1VY\005H\232\247\032\217\202\332"
  77      4504DE64 
  77      28315659 
  77      05489AA7 
  77      1A8F82DA 
  78 0095 47227ADA 		.ascii	"G\"z\332\201\366\247^\013$\360\001eH!Y\207\032+\025"
  78      81F6A75E 
  78      0B24F001 
  78      65482159 
  78      871A2B15 
  79 00a9 17D388B7 		.ascii	"\027\323\210\267p\203i$\007<Pv_f\022\230\207\346\255"
  79      70836924 
  79      073C5076 
  79      5F661298 
  79      87E6AD
  80 00bc 0FD129B8 		.ascii	"\017\321)\270\003\027\317\324\311\246)k>\2409\322\016"
  80      0317CFD4 
  80      C9A6296B 
  80      3EA039D2 
  80      0E
  81 00cd 5B03EECC 		.ascii	"[\003\356\314\2248\027e\225\353\304\201\345IB\022y2"
ARM GAS  /tmp/ccbsOoKd.s 			page 6


  81      94381765 
  81      95EBC481 
  81      E5494212 
  81      7932
  82 00df 6B55D882 		.ascii	"kU\330\202I\3106\201\377\225\245p\300,\213-\316\254"
  82      49C83681 
  82      FF95A570 
  82      C02C8B2D 
  82      CEAC
  83 00f1 6B36CA1D 		.ascii	"k6\312\0353Y\037\324\333\364/\300v\206\202\"\322<\214"
  83      33591FD4 
  83      DBF42FC0 
  83      76868222 
  83      D23C8C
  84 0104 37EBC93C 		.ascii	"7\353\311<\266`}hq\005__\354\227\243W\033\256\035:r"
  84      B6607D68 
  84      71055F5F 
  84      EC97A357 
  84      1BAE1D3A 
  85 0119 0C83DA8E 		.ascii	"\014\203\332\216\356\336\221F\016\330Jo\250l\300\243"
  85      EEDE9146 
  85      0ED84A6F 
  85      A86CC0A3 
  86 0129 50627C70 		.ascii	"Pb|p\004zg\203\362\020\364\015\327\362\030?p_\2442\255"
  86      047A6783 
  86      F210F40D 
  86      D7F2183F 
  86      705FA432 
  87 013e 549BAE15 		.ascii	"T\233\256\025\317\264\242\273W\274#\305\371|=\367\212"
  87      CFB4A2BB 
  87      57BC23C5 
  87      F97C3DF7 
  87      8A
  88 014f 6F5C7987 		.ascii	"o\\y\207\313\376\333\267\337B\000\316\341\207\225\031"
  88      CBFEDBB7 
  88      DF4200CE 
  88      E1879519 
  89 015f 5F8EFEA4 		.ascii	"_\216\376\244\275\344\304\314\271\025\253\363\362\377"
  89      BDE4C4CC 
  89      B915ABF3 
  89      F2FF
  90 016d 791EE003 		.ascii	"y\036\340\003\212\375\2575'\305j\032\237\316\377e\261"
  90      8AFDAF35 
  90      27C56A1A 
  90      9FCEFF65 
  90      B1
  91 017e C842C1A0 		.ascii	"\310B\301\240jm\331\234z\234\310\250'\331\323|N\335"
  91      6A6DD99C 
  91      7A9CC8A8 
  91      27D9D37C 
  91      4EDD
  92 0190 D3A2A12D 		.ascii	"\323\242\241-5\022\331U\265p\364lS\214\304s\371x&s\024"
  92      3512D955 
  92      B570F46C 
  92      538CC473 
  92      F9782673 
  93 01a5 4CC22F21 		.ascii	"L\302/!\316\367_"
ARM GAS  /tmp/ccbsOoKd.s 			page 7


  93      CEF75F
  94              		.text
  95              		.section	.gnu.lto_.symbol_nodes.b0062a1d0c5a7503,"",%progbits
  96 0000 789C6362 		.ascii	"x\234cb`bHd\200\002\246\333\214\365\014\014\023\316"
  96      60624864 
  96      8002A6DB 
  96      8CF50C0C 
  96      13CE
  97 0012 3130D4D7 		.ascii	"10\324\327\317\353`d\272\303X\317\210\3402\336e\254"
  97      CFEB6064 
  97      BAC358CF 
  97      88E032DE 
  97      65AC
  98 0024 6782701B 		.ascii	"g\202p\033\032\030\031\3571\3263#x\367\031\353Y\340"
  98      1A1819EF 
  98      31D63323 
  98      78F719EB 
  98      59E0
  99 0036 3C660666 		.ascii	"<f\006f\206\303[M\230\201f/n{#\317\314\310\302p\270"
  99      86C35B4D 
  99      9881662F 
  99      6E7B23CF 
  99      CCC8C270 
 100 004b FD8D3C03 		.ascii	"\375\215<\003\000\310\245\0350"
 100      00C8A51D 
 100      30
 101              		.text
 102              		.section	.gnu.lto_.refs.b0062a1d0c5a7503,"",%progbits
 103 0000 789C6362 		.ascii	"x\234cb`b`d\200\002\000\000F\000\006"
 103      60626064 
 103      80020000 
 103      460006
 104              		.text
 105              		.section	.gnu.lto_.decls.b0062a1d0c5a7503,"",%progbits
 106 0000 789CA557 		.ascii	"x\234\245W\177p\024\325\035\177o/?M\2101*\023;\323\311"
 106      7F7014D5 
 106      1D7F6F2F 
 106      3F4D8831 
 106      2A133BD3 
 107 0015 31533B1D 		.ascii	"1S;\035\035\271$L\325\177JI\356\016\222\031\002\231"
 107      1DB9244C 
 107      D57F4A49 
 107      EE0E9219 
 107      0299
 108 0027 BDE030E3 		.ascii	"\275\3400\343\214\333\345r\230\233\336\017zw\301\360"
 108      8CDBE572 
 108      989BDE0F 
 108      7A77C1F0 
 109 0037 171B4315 		.ascii	"\027\033C\025\265\2263\001\214\0251AC\301\342\200\020"
 109      B5963301 
 109      8C153141 
 109      43C1E280 
 109      10
 110 0048 8188D093 		.ascii	"\201\210\320\223Q\314\000\323B&\246\221\264\303\211"
 110      51CC00D3 
 110      4226A691 
 110      B4C389
ARM GAS  /tmp/ccbsOoKd.s 			page 8


 111 0057 5AD411CA 		.ascii	"Z\324\021\312\017\025\253\340\365\373\336\356^\336\333"
 111      0F15ABE0 
 111      F5FBDEEE 
 111      5EDEDB
 112 0066 EC1E7B76 		.ascii	"\354\036{v'\337\357\276\333}\337\317\367\363\276\337"
 112      27DFEFBE 
 112      DB7DDFCF 
 112      F7F3BEDF 
 113 0076 EFBEBCAF 		.ascii	"\357\276\274\257\200\004\344\301\010e\340\372\254\032"
 113      8004E4C1 
 113      0865E0FA 
 113      AC1A
 114 0084 A1430E84 		.ascii	"\241C\016\204\340\017\315\007\201\307h\020\251W!\310"
 114      E00FCD07 
 114      81C76810 
 114      A95721C8 
 115 0094 0E905D20 		.ascii	"\016\220] \273A\336\000\331\207f^dN\031H1\310A\220\021"
 115      BB41DE00 
 115      D987665E 
 115      644E1948 
 115      31C84190 
 116 00a9 902F359C 		.ascii	"\220/5\234\012\220r\220\013 \227A\256\202\354\324\374"
 116      0A907290 
 116      0B209741 
 116      AE82ECD4 
 116      FC
 117 00ba 1C0399A5 		.ascii	"\034\003\231\245\331\177\005r\015\344;\220\033H\235"
 117      D97F0572 
 117      0DE43B90 
 117      1B489D
 118 00c9 508A559F 		.ascii	"P\212U\237\345p\277\025\244\012\344N\254r1^\2734,\235"
 118      E570BF15 
 118      A40AE44E 
 118      AC72315E 
 118      BB342C9D 
 119 00dd 4335CCFB 		.ascii	"C5\314\373%\310\375 \363\3614\247\017A\012@~\215U~\303"
 119      25C8FD20 
 119      F3F134A7 
 119      0F410A40 
 119      7E8D557E 
 120 00f2 20B780DC 		.ascii	" \267\200\334\013\277\177\0052\006\343q\220\343 \223"
 120      0BBF7F05 
 120      3206E371 
 120      90E32093 
 121 0102 20EF82A4 		.ascii	" \357\202\244@FA\216\200\010\232/\2638\224\242\365\212"
 121      4046418E 
 121      80089A2F 
 121      B33894A2 
 121      F58A
 122 0114 F2B832F0 		.ascii	"\362\2702\360\204\3224\012\353^\216e\\Q\212\234tP^J"
 122      84D2340A 
 122      EB5E8E65 
 122      5C518A9C 
 122      74505E4A 
 123 0128 DDDE8D5E 		.ascii	"\335\336\215^U\224d\372\275siAQJd<\210K\001\322\211"
 123      559464FA 
 123      BD736941 
ARM GAS  /tmp/ccbsOoKd.s 			page 9


 123      514A643C 
 123      884B01D2 
 124 013d D13D68A7 		.ascii	"\321=h\247\002o\024e\333\354\377\013\371\364G'\034\024"
 124      026F1465 
 124      DBECFF0B 
 124      F9F44727 
 124      1C14
 125 014f 7988223F 		.ascii	"y\210\"?\202\221\214_\305\367h82..eq\351o}\002\001\243"
 125      82918C5F 
 125      C5F76838 
 125      322E2E65 
 125      71E96F7D 
 126 0166 AFB50129 		.ascii	"\257\265\001)\217[Q\276\323k\320Ve \235\336\367\376"
 126      8F5B51BE 
 126      D36BD056 
 126      65209DDE 
 126      F7FE
 127 0178 7F6E7F41 		.ascii	"\177n\177AI\255S2\231\265h6\332\004\213#\364\025\234"
 127      49AD5332 
 127      99B56836 
 127      DA048B23 
 127      F4159C
 128 018b 90F1FC3B 		.ascii	"\220\361\374;MW@\360w\342\331\332h\231C\365)\240\227"
 128      4D5740F0 
 128      77E2D9DA 
 128      689943F5 
 128      29A097
 129 019e 30BF0884 		.ascii	"0\277\010\204~\216\206\010\236\262CqP42\177\007\256"
 129      7E8E8608 
 129      9EB24371 
 129      5034327F 
 129      07AE
 130 01b0 E1A9BE86 		.ascii	"\341\251\276\206\005\366\201\312+u\240\367\004Vz\225"
 130      05F681CA 
 130      2B75A0F7 
 130      04567A95 
 131 01c0 EB998C43 		.ascii	"\353\231\214Cs'\240\355\266\034\3542:x}\246\203t2\375"
 131      7327A0ED 
 131      B61CEC32 
 131      3A787DA6 
 131      837432FD 
 132 01d4 C133179E 		.ascii	"\3013\027\236\304\317\365\014\214*\227H<t\037\351\031"
 132      C4CFF50C 
 132      8C2A9748 
 132      3C741FE9 
 132      19
 133 01e5 3E54903D 		.ascii	">T\220=\246 \023\033\276)xA9\252FO\207\350\023\314!"
 133      A620131B 
 133      BE297841 
 133      39AA464F 
 133      87E813CC 
 134 01fa F69A426C 		.ascii	"\366\232Bl\351\373;\316B\330O\300\260\226\000\007\255"
 134      E9FB3BCE 
 134      42D84FC0 
 134      B0960007 
 134      AD
 135 020b 74A45628 		.ascii	"t\244V(\367\203\313\016M\320\230\005\261\003<1Z\304"
ARM GAS  /tmp/ccbsOoKd.s 			page 10


 135      F783CB0E 
 135      4DD09805 
 135      B1033C31 
 135      5AC4
 136 021d 3D398B58 		.ascii	"=9\213X\306\333\360\335\266\312\254\012=GV\344d\220"
 136      C6DBF0DD 
 136      B6CAAC0A 
 136      3D4756E4 
 136      6490
 137 022f 94221DEA 		.ascii	"\224\"\035\3527(\373=<\377\374\265\373\351\3670\202"
 137      3728FB3D 
 137      3CFFFCB5 
 137      FBE9F730 
 137      82
 138 0240 AB80EA66 		.ascii	"\253\200\352f\007O\365\2460\204\323\333`\252\032QP%"
 138      074FF5A6 
 138      3084D3DB 
 138      60AA1A51 
 138      5025
 139 0252 D53755AE 		.ascii	"\3257U\256\024\250\317\221\311\312\265k\016\032P\326"
 139      14A8CF91 
 139      C9CAB56B 
 139      0E1A50D6 
 140 0262 F5A4364D 		.ascii	"\365\2446Mm\271K\0318\012\220\007\351'\271\215R \266"
 140      6DB94B19 
 140      380A9007 
 140      E927B98D 
 140      5220B6
 141 0275 6611D086 		.ascii	"f\021\320\206\352\245M\340\3616O\225'e\035l{\336`N\016"
 141      EAA54DE0 
 141      F1364F95 
 141      27651D6C 
 141      7BDE604E 
 142 028a AC9F057B 		.ascii	"\254\237\005{\315\016X\2115\263?\261`\273\363\006\343"
 142      CD0E5889 
 142      35B33FB1 
 142      60BBF306 
 142      E3
 143 029b 996D61C1 		.ascii	"\231ma\301\206\355\200UZ3\333\312\202\035\310\033\214"
 143      86ED8055 
 143      5A33DBCA 
 143      821DC81B 
 143      8C
 144 02ac 67B68705 		.ascii	"g\266\207\005;d\007\254\332\232\331^\026\354\235\274"
 144      3B6407AC 
 144      DA9AD95E 
 144      16EC9DBC 
 145 02bc C17866C3 		.ascii	"\301xf\303,\330\373v\300\234\326\314\366\263`'\363\006"
 145      2CD8FB76 
 145      C09CD6CC 
 145      F6B36027 
 145      F306
 146 02ce E3991D64 		.ascii	"\343\231\035d\301N\331\001\373\2055\263\267X\260\361"
 146      C14ED901 
 146      FB8535B3 
 146      B758B0F1 
 147 02de BCC17866 		.ascii	"\274\301xfo\263`\223v\300j\255\230u\247\216<\234\224"
ARM GAS  /tmp/ccbsOoKd.s 			page 11


 147      6FB36093 
 147      76C06AAD 
 147      9875A78E 
 147      3C9C94
 148 02f1 6F43496D 		.ascii	"oCImKQQ\365m\005\363\245\305N\033\264\236&\3433\370"
 148      4B5151F5 
 148      6D05F3A5 
 148      C54E1BB4 
 148      9E26E333 
 149 0306 363AA2DB 		.ascii	"6:\242\333\247\242m\237t\206\325\036>\245\356\322\323"
 149      A7A26D9F 
 149      7486D51E 
 149      3EA5EED2 
 149      D3
 150 0317 9FBF3698 		.ascii	"\237\2776\230\336\263\331Y\260\354\177\032\227\315\263"
 150      DEB3D959 
 150      B0EC7F1A 
 150      97CDB3
 151 0326 305B371F 		.ascii	"0[7\037\304Sl\020\323v\202\270\300\032l\214\005\373"
 151      C4536C10 
 151      D37682B8 
 151      C01A6C8C 
 151      05FB
 152 0338 D40E5893 		.ascii	"\324\016X\223u\255\214\263`\237\347\015\3063\233`\301"
 152      75AD8CB3 
 152      609FE70D 
 152      C6339B60 
 152      C1
 153 0349 2EDA016B 		.ascii	".\332\001k\265f6\311\202]\316\033\214e\326\235:3]x\003"
 153      B56636C9 
 153      825DCE1B 
 153      8C65D69D 
 153      3A335D78 
 154 035e 0B0C95B7 		.ascii	"\013\014\225\267\200\337m\271i\203\226\323d\374y\336"
 154      80DF6DB9 
 154      698396D3 
 154      64FC79DE 
 155 036e 85F78545 		.ascii	"\205\367\205E\341a\256\360\276\230.\274k\306es$\264"
 155      E161AEF0 
 155      BE982EBC 
 155      6BC66573 
 155      24B4
 156 0380 E1729318 		.ascii	"\341r\223\030\232]\354?j\031\037\246\007\211#x\016\350"
 156      9A5DEC3F 
 156      6A191FA6 
 156      07892378 
 156      0EE8
 157 0392 14D547A9 		.ascii	"\024\325G\251~\227\352cT\217R}\234\352\223T\377\215"
 157      7E97EA63 
 157      548F527D 
 157      9CEA9354 
 157      FF8D
 158 03a4 EA53548F 		.ascii	"\352ST\217Q=N\365\004\325\223T\377\213\352\263T\177"
 158      513D4EF5 
 158      04D59354 
 158      FF8BEAB3 
 158      547F
ARM GAS  /tmp/ccbsOoKd.s 			page 12


 159 03b6 44F5C754 		.ascii	"D\365\307T\177J\365y\320\331\253\014==}nW\317 V\261"
 159      7F4AF579 
 159      D0D9AB0C 
 159      3D3D7D6E 
 159      57CF2056 
 160 03cb FB1297E9 		.ascii	"\373\022\227\351V\331\014\365Wh\007\377\364\220R]\235"
 160      56D90CF5 
 160      576807FF 
 160      F490525D 
 160      9D
 161 03dc 8D41091B 		.ascii	"\215A\011\033W\365H\002\006\202\214/\322Z\272\356\300"
 161      57F54802 
 161      06828C2F 
 161      D25ABAEE 
 161      C0
 162 03ed C6D0E801 		.ascii	"\306\320\350\001\272\310$H\035\353\243\014\316\302W"
 162      BAC82448 
 162      1DEBA30C 
 162      CEC257
 163 03fc EAF08266 		.ascii	"\352\360\202fuA+\004&u\372\356\325_\241\232k\246\017"
 163      75412B04 
 163      2675FAEE 
 163      D55FA19A 
 163      6BA60F
 164 040f EAA6C59A 		.ascii	"\352\246\305\232\301\345\274k\350\212E\015\025\231\207"
 164      C1E5BC6B 
 164      E88A450D 
 164      159987
 165 041e 941C8DAD 		.ascii	"\224\034\215\255\240\256BH\231\323\0319\030\247.\245"
 165      A0AE4248 
 165      99D31939 
 165      18A72EA5 
 166 042e FBCE8DAE 		.ascii	"\373\316\215\256\307\357\014=\241$\273\323\231\265/"
 166      C7EF0C3D 
 166      A124BBD3 
 166      99B52F
 167 043d A72AF5F3 		.ascii	"\247*\365\363\365`\201\2356\340+c\033\360\365\314\343"
 167      F560819D 
 167      36E02B63 
 167      1BF0F5CC 
 167      E3
 168 044e 377899D8 		.ascii	"7x\231\330p\266H\357\177\346\350\036\206my\270f\364"
 168      70B648EF 
 168      7FE6E81E 
 168      866D79B8 
 168      66F4
 169 0460 F0ADA987 		.ascii	"\360\255\251\207\361\023\327\357\232\341\341=[\036\276"
 169      F113D7EF 
 169      9AE1E13D 
 169      5B1EBE
 170 046f 337AF8DE 		.ascii	"3z\370\336\314Cj\374\337\243Z\257\324\263^\310\266!"
 170      CC436AFC 
 170      DFA35AAF 
 170      D4B35EC8 
 170      B621
 171 0481 93B65CDC 		.ascii	"\223\266\\\3340\272\370\301t\021\233\316_j\372\357^"
 171      30BAF8C1 
ARM GAS  /tmp/ccbsOoKd.s 			page 13


 171      74119BCE 
 171      5F6AFAEF 
 171      5E
 172 0492 45794AF9 		.ascii	"EyJ\371!\263\266{\335\034\373\215J\267`\322\250\030"
 172      21B3B67B 
 172      DD1CFB8D 
 172      4AB760D2 
 172      A818
 173 04a4 1A938D85 		.ascii	"\032\223\215\205,U:\023\316\337\205\332\347\3613\364"
 173      2C553A13 
 173      CEDF85DA 
 173      E7F133F4 
 174 04b4 8A02CB3B 		.ascii	"\212\002\313;}\254<\211\365N|\017\265P\204\032\213\366"
 174      7DAC3C89 
 174      F54E7C0F 
 174      B550841A 
 174      8BF6
 175 04c6 446B80B4 		.ascii	"Dk\200\264\025_\355n\255\316\256\230\030q+\356\021\314"
 175      155FED6E 
 175      ADCEAE98 
 175      18712BEE 
 175      11CC
 176 04d8 56DC77EE 		.ascii	"V\334w\356\333~\323\362\333_h'\256O\031\275<m\346%u"
 176      DB7ED3F2 
 176      DB5F6827 
 176      AE4F19BD 
 176      3C6DE625 
 177 04ed F09C59EA 		.ascii	"\360\234Y\352\216\333r\361\007\243\213gM\0272\261\341"
 177      8EDB72F1 
 177      07A38B67 
 177      4D1732B1 
 177      E1
 178 04fe EB99157E 		.ascii	"\353\231\025~\326\226\207\015F\017IS\017\343\317\034"
 178      D696870D 
 178      460F4953 
 178      0FE3CF1C 
 179 050e FBC90C0F 		.ascii	"\373\311\014\017Wly\3505z\3503\015\323\360y\2630=Yd"
 179      576C79E8 
 179      357AE833 
 179      0DD3F079 
 179      B3303D59 
 180 0523 C7C526A3 		.ascii	"\307\305&\243\213\315\274\013\263\326\322\301\236\245"
 180      8BCDBC0B 
 180      B3D6D2C1 
 180      9EA5
 181 0531 B40EF51F 		.ascii	"\264\016\365\037W>\013\367@\271\313\270_ -\352I\203"
 181      573E0BF7 
 181      40B9CBB8 
 181      5F202DEA 
 181      4983
 182 0543 F79BE210 		.ascii	"\367\233\342\020\337/\012\206\026\365\3733\264E%\317"
 182      DF2F0A86 
 182      16F5FB33 
 182      B44525CF 
 183 0553 6FDEA266 		.ascii	"o\336\242f\316l\344Z\324IJ\201\330\376\270\0265\311"
 183      CE6CE45A 
 183      D4494A81 
ARM GAS  /tmp/ccbsOoKd.s 			page 14


 183      D8FEB816 
 183      35C9
 184 0565 1E6DA6F2 		.ascii	"\036m\246\362\006sr`\275\334\331\322\016X\216\026u#"
 184      06737260 
 184      BDDCD9D2 
 184      0E588E16 
 184      7523
 185 0577 0BF649DE 		.ascii	"\013\366I\336`<3\256\023\277`\007,G\213\312u\342\337"
 185      603C33AE 
 185      13BF6007 
 185      2C478BCA 
 185      75E2DF
 186 058a E40DC633 		.ascii	"\344\015\3063\343:\361\033v\300r\264\250\\'\376\373"
 186      E33AF11B 
 186      76C072B4 
 186      A85C27FE 
 186      FB
 187 059b E27CC178 		.ascii	"\342|\301xf\\'\376\254\0350\24753\256\023\357\315\033"
 187      665C27FE 
 187      AC1D30A7 
 187      3533AE13 
 187      EFCD1B
 188 05ae 8C61A63C 		.ascii	"\214a\246<\236:\360\342\037\265\217@\375W\260\331\016"
 188      9E3AF0E2 
 188      1FB58F40 
 188      FD57B0D9 
 188      0E
 189 05bf 5E8E2E75 		.ascii	"^\216.ud\212\377\250\006\362\306s\"\313\213\375\342"
 189      648AFFA8 
 189      06F2C673 
 189      22CB8BFD 
 189      E2
 190 05d0 65BC4520 		.ascii	"e\274E g\335\227\004r\376|\231\352A\252_\241z\210\352"
 190      67DD9704 
 190      72FE7C99 
 190      EA41AA5F 
 190      A17A88EA 
 191 05e4 3F53BD93 		.ascii	"?S\275\223\352\277P\375:\325\273\251~\203\352}\202\365"
 191      EABF50FD 
 191      3AD5BBA9 
 191      7E83EA7D 
 191      82F5
 192 05f6 D9B5DF82 		.ascii	"\331\265\337\2028\341\362\246\220=\273j\273\025\351"
 192      38E1F2A6 
 192      903DBB6A 
 192      BB15E9
 193 0605 2EB2EBE0 		.ascii	".\262\353\340\016\365\352\256\227\372\240\027;e\274"
 193      0EF5EAAE 
 193      97FAA017 
 193      3B65BC
 194 0614 9FEE78DB 		.ascii	"\237\356x\333\213Mw<k\014\342s\304\270\343\035\036\243"
 194      8B4D773C 
 194      6B0CE273 
 194      C4B8E31D 
 194      1EA3
 195 0626 3BDE88AD 		.ascii	";\336\210\255\035\357\364\030\237\2347)\205\221\037"
 195      1DEFF418 
ARM GAS  /tmp/ccbsOoKd.s 			page 15


 195      9F9C3729 
 195      85911F
 196 0635 BDE38D8D 		.ascii	"\275\343\215\215e+Q\306[\005!O\260\234\231\036a2\375"
 196      652B51C6 
 196      5B05214F 
 196      B09C991E 
 196      6132FD
 197 0648 16CDF421 		.ascii	"\026\315\364!\232\255\3039\262\265?G\266\216Lg\313`"
 197      9AADC339 
 197      B2B53F47 
 197      B68E4C67 
 197      CB60
 198 065a 359CE330 		.ascii	"5\234\3430\375\327i+\364SWg<\346\012F\374\241\316\366"
 198      FDD7692B 
 198      F4535767 
 198      3CE60A46 
 198      FCA1CEF6 
 199 066e 802B1278 		.ascii	"\200+\022x,\024\\\341\212'\332\203\221\304\334\016T"
 199      2C145CE1 
 199      8A27DA83 
 199      91C4DC0E 
 199      54
 200 067f D209F779 		.ascii	"\322\011\367y\365R\242h\321\222eN7\272\317lvX\366w\004"
 200      F552A268 
 200      D192654E 
 200      37BACF6C 
 200      7658F677 
 201 0694 230197D4 		.ascii	"#\001\227\324\036X)w\206\022Rb\315\252@\034\254o\221"
 201      1E582977 
 201      86125262 
 201      CDAA401C 
 201      AC6F91
 202 06a7 24DD7EDE 		.ascii	"$\335~\336\334\271.\365/\032wu\310!\327\252h,\021w\371"
 202      DCB92EF5 
 202      2F1A7775 
 202      C821D7AA 
 202      682C1177 
 203 06bc DA5AE6D5 		.ascii	"\332Z\346\325\273\026/\366\270\332\232[V\327\2217R<"
 203      BB162FF6 
 203      B8DA9A5B 
 203      56D79137 
 203      523C
 204 06ce 218542ED 		.ascii	"!\205B\355s\375\250\344\241\200?\021\2155\326\226\251"
 204      73FDA8E4 
 204      A1803F11 
 204      8D35D696 
 204      A9
 205 06df 8FA46024 		.ascii	"\217\244`$\230\270\217\005\362G\303\341hD\303j\020["
 205      98B88F05 
 205      F247C3E1 
 205      6844C36A 
 205      105B
 206 06f1 DC2D5D2E 		.ascii	"\334-].\177\207?\032\013H\253\037\010\003\203*\211\274"
 206      7F873F1A 
 206      0B48AB1F 
 206      0803832A 
 206      89BC
ARM GAS  /tmp/ccbsOoKd.s 			page 16


 207 0703 9382B1DF 		.ascii	"\223\202\261\337I\201U\301P\364\321\316@\015\013\020"
 207      498155C1 
 207      50F4D1CE 
 207      400D0B10 
 208 0713 4B6417E3 		.ascii	"Kd\027\343\357\210\257!\244\253\374\035\2765\361\266"
 208      EF88AF21 
 208      A4ABFC1D 
 208      BE35F1B6 
 209 0723 6038106B 		.ascii	"`8\020k\222#\355\241@\254\371^s\362\232w\315odu\320"
 209      9223EDA1 
 209      40ACF95E 
 209      73F29A77 
 209      CD6F6475 
 210 0738 0FE695E4 		.ascii	"\017\346\225\344\356\215\310+B\001\225~\275\275\225"
 210      EE8DC82B 
 210      4201957E 
 210      BDBD95
 211 0747 C7136112 		.ascii	"\307\023a\022\247 a]\226\375!%\034n\261\016\244\276"
 211      A720615D 
 211      96FD2125 
 211      1C6EB10E 
 211      A4BE
 212 0759 C0D7E216 		.ascii	"\300\327\342\026\013<\315^Q\360\211\016\357\"\261\320"
 212      0B3CCD5E 
 212      51F0890E 
 212      EF22B1D0 
 213 0769 ED6E11EB 		.ascii	"\355n\021\353\250\256/p\273\275\242\303\275\244\315"
 213      A8AE2F70 
 213      BBBDA2C3 
 213      BDA4CD
 214 0778 D1EA733B 		.ascii	"\321\352s;\032D\321!\272\3417\0304z\332D\207\207X\266"
 214      1A44D121 
 214      BAE13718 
 214      347ADA44 
 214      878758B6 
 215 078c 3488C252 		.ascii	"4\210\302R\325j\036\314_.\026\370;\344X\215\221]4\016"
 215      D56A1ECC 
 215      5F2E16F8 
 215      3BE4588D 
 215      915D340E 
 216 07a0 0AC242EE 		.ascii	"\012\302B\356$\032\344\016\361X\034\365\377va,\032n"
 216      241AE40E 
 216      F1581CF5 
 216      FF76612C 
 216      1A6E
 217 07b2 F6899534 		.ascii	"\366\211\2254@\314\203*\032\343\020<\220V\302\023)\030"
 217      40CC832A 
 217      1AE3103C 
 217      9056C213 
 217      2918
 218 07c4 8F95661F 		.ascii	"\217\225f\037\325\231\344+\320\225p\271"
 218      D599E42B 
 218      D09570B9 
 219 07d0 5B7CCDBE 		.ascii	"[|\315\276\351\340\207\343\301\270\364\250\237Dp\226"
 219      E9E087E3 
 219      C1B8F4A8 
 219      9F447096 
ARM GAS  /tmp/ccbsOoKd.s 			page 17


 220 07e0 24C50309 		.ascii	"$\305\003\011\251\261\301\347m\025\233g\311\241\307"
 220      A9B1C1E7 
 220      6D159B67 
 220      C9A1C7
 221 07ef E43571C8 		.ascii	"\3445q\310}\010j\254p\265\034\352\014\334NH-\345st\207"
 221      7D086AAC 
 221      70B51CEA 
 221      0CDC4E48 
 221      2DE57374 
 222 0804 46745924 		.ascii	"FtY$\3040\243T\271GwPf\235\021\216n\031\363\360\301"
 222      C430A354 
 222      B9477750 
 222      669D118E 
 222      6E19F3F0 
 223 0819 9C847D6D 		.ascii	"\234\204}mj\346\026\326uu\2519[YW[\333\265\202dMt\273"
 223      6AE616D6 
 223      7575A939 
 223      5B59575B 
 223      DBB58264 
 224 0830 A536287D 		.ascii	"\2456(}O`\245\000\021w/\\\0049h\026K\032Z\033\353E_"
 224      4F60A500 
 224      11772F5C 
 224      04396816 
 224      4B1A5A1B 
 225 0847 1B1DD491 		.ascii	"\033\035\324\221AQCS\243w\211XL^h\367:\270C\262H\326"
 225      41514353 
 225      A3778958 
 225      4C5E68F7 
 225      3AB843B2 
 226 085d 7C62A9E8 		.ascii	"|b\251\350\365y\305\207\274\236\332B\002R_\341i\\\324"
 226      F579C587 
 226      BC9EDA42 
 226      02525FE1 
 226      695CD4
 227 0870 E25EA683 		.ascii	"\342^\246\203\0275{\334K=\336\377\001\227\027\320c"
 227      17357BDC 
 227      4B3DDEFF 
 227      019717D0 
 227      63
 228              		.text
 229              		.section	.gnu.lto_.symtab.b0062a1d0c5a7503,"",%progbits
 230 0000 56656374 		.ascii	"VectorB0\000\000\000\000\000\000\000\000\000\000\000"
 230      6F724230 
 230      00000000 
 230      00000000 
 230      000000
 231 0013 00A80000 		.ascii	"\000\250\000\000\000st_lld_init\000\000\000\000\000"
 231      0073745F 
 231      6C6C645F 
 231      696E6974 
 231      00000000 
 232 0028 00000000 		.ascii	"\000\000\000\000\000\000\000\254\000\000\000_port_i"
 232      000000AC 
 232      0000005F 
 232      706F7274 
 232      5F69
 233 003a 72715F65 		.ascii	"rq_epilogue\000\000\002\000\000\000\000\000\000\000"
ARM GAS  /tmp/ccbsOoKd.s 			page 18


 233      70696C6F 
 233      67756500 
 233      00020000 
 233      00000000 
 234 004f 0000AF00 		.ascii	"\000\000\257\000\000\000chSysTimerHandlerI\000\000\002"
 234      00006368 
 234      53797354 
 234      696D6572 
 234      48616E64 
 235 006a 00000000 		.ascii	"\000\000\000\000\000\000\000\000\000\261\000\000\000"
 235      00000000 
 235      00B10000 
 235      00
 236 0077 6E766963 		.ascii	"nvicEnableVector\000\000\002\000\000\000\000\000\000"
 236      456E6162 
 236      6C655665 
 236      63746F72 
 236      00000200 
 237 0090 000000B3 		.ascii	"\000\000\000\263\000\000\000"
 237      000000
 238              		.text
 239              		.section	.gnu.lto_.opts,"",%progbits
 240 0000 272D6D63 		.ascii	"'-mcpu=cortex-m3' '-mno-thumb-interwork' '-mthumb' "
 240      70753D63 
 240      6F727465 
 240      782D6D33 
 240      2720272D 
 241 0033 272D6767 		.ascii	"'-ggdb' '-O2' '-fomit-frame-pointer' '-falign-funct"
 241      64622720 
 241      272D4F32 
 241      2720272D 
 241      666F6D69 
 242 0066 696F6E73 		.ascii	"ions=16' '-ffunction-sections' '-fdata-sections' '-"
 242      3D313627 
 242      20272D66 
 242      66756E63 
 242      74696F6E 
 243 0099 666E6F2D 		.ascii	"fno-common' '-flto'\000"
 243      636F6D6D 
 243      6F6E2720 
 243      272D666C 
 243      746F2700 
 244              		.text
 245              		.cfi_sections	.debug_frame
 246              		.section	.text.VectorB0,"ax",%progbits
 247              		.align	2
 248              		.p2align 4,,15
 249              		.global	VectorB0
 250              		.thumb
 251              		.thumb_func
 252              		.type	VectorB0, %function
 253              	VectorB0:
 254              	.LFB219:
 255              		.file 1 "../../../os/hal/ports/STM32/LLD/TIMv1/hal_st_lld.c"
 256              		.loc 1 239 0
 257              		.cfi_startproc
 258              		@ args = 0, pretend = 0, frame = 0
ARM GAS  /tmp/ccbsOoKd.s 			page 19


 259              		@ frame_needed = 0, uses_anonymous_args = 0
 260 0000 08B5     		push	{r3, lr}
 261              		.cfi_def_cfa_offset 8
 262              		.cfi_offset 3, -8
 263              		.cfi_offset 14, -4
 264              		.loc 1 246 0
 265 0002 4FF08043 		mov	r3, #1073741824
 266 0006 1A69     		ldr	r2, [r3, #16]
 267 0008 9207     		lsls	r2, r2, #30
 268 000a 09D5     		bpl	.L2
 269              		.loc 1 247 0
 270 000c 0022     		movs	r2, #0
 271 000e 1A61     		str	r2, [r3, #16]
 272              	.LVL0:
 273              	.LBB52:
 274              	.LBB53:
 275              	.LBB54:
 276              	.LBB55:
 277              	.LBB56:
 278              	.LBB57:
 279              		.file 2 "../../../os/common/ext/CMSIS/include/cmsis_gcc.h"
 280              		.loc 2 264 0
 281 0010 2023     		movs	r3, #32
 282              	@ 264 "../../../os/common/ext/CMSIS/include/cmsis_gcc.h" 1
 283 0012 83F31188 		MSR basepri, r3
 284              	@ 0 "" 2
 285              		.thumb
 286              	.LBE57:
 287              	.LBE56:
 288              	.LBE55:
 289              	.LBE54:
 290              	.LBE53:
 291              	.LBE52:
 292              	.LBB58:
 293              	.LBB59:
 294              		.file 3 "../../../os/hal/osal/rt/osal.h"
 295              		.loc 3 585 0
 296 0016 FFF7FEFF 		bl	chSysTimerHandlerI
 297              	.LVL1:
 298              	.LBE59:
 299              	.LBE58:
 300              	.LBB60:
 301              	.LBB61:
 302              	.LBB62:
 303              	.LBB63:
 304              	.LBB64:
 305              	.LBB65:
 306              		.loc 2 264 0
 307 001a 0023     		movs	r3, #0
 308              	@ 264 "../../../os/common/ext/CMSIS/include/cmsis_gcc.h" 1
 309 001c 83F31188 		MSR basepri, r3
 310              	@ 0 "" 2
 311              	.LVL2:
 312              		.thumb
 313              	.L2:
 314              	.LBE65:
 315              	.LBE64:
ARM GAS  /tmp/ccbsOoKd.s 			page 20


 316              	.LBE63:
 317              	.LBE62:
 318              	.LBE61:
 319              	.LBE60:
 320              		.loc 1 255 0
 321 0020 BDE80840 		pop	{r3, lr}
 322              		.loc 1 254 0
 323 0024 FFF7FEBF 		b	_port_irq_epilogue
 324              	.LVL3:
 325              		.cfi_endproc
 326              	.LFE219:
 327              		.size	VectorB0, .-VectorB0
 328 0028 AFF30080 		.section	.text.st_lld_init,"ax",%progbits
 328      AFF30080 
 329              		.align	2
 330              		.p2align 4,,15
 331              		.global	st_lld_init
 332              		.thumb
 333              		.thumb_func
 334              		.type	st_lld_init, %function
 335              	st_lld_init:
 336              	.LFB220:
 337              		.loc 1 267 0
 338              		.cfi_startproc
 339              		@ args = 0, pretend = 0, frame = 0
 340              		@ frame_needed = 0, uses_anonymous_args = 0
 341              		@ link register save eliminated.
 342              		.loc 1 273 0
 343 0000 4FF48053 		mov	r3, #4096
 344 0004 C4F20203 		movt	r3, 16386
 345 0008 DA69     		ldr	r2, [r3, #28]
 346              		.loc 1 267 0
 347 000a 70B4     		push	{r4, r5, r6}
 348              		.cfi_def_cfa_offset 12
 349              		.cfi_offset 4, -12
 350              		.cfi_offset 5, -8
 351              		.cfi_offset 6, -4
 352              		.loc 1 273 0
 353 000c 42F00102 		orr	r2, r2, #1
 354              		.loc 1 276 0
 355 0010 4FF40051 		mov	r1, #8192
 356              		.loc 1 273 0
 357 0014 DA61     		str	r2, [r3, #28]
 358              		.loc 1 276 0
 359 0016 CEF20401 		movt	r1, 57348
 360 001a 4868     		ldr	r0, [r1, #4]
 361              		.loc 1 279 0
 362 001c 4FF08043 		mov	r3, #1073741824
 363              		.loc 1 281 0
 364 0020 0022     		movs	r2, #0
 365              		.loc 1 285 0
 366 0022 0124     		movs	r4, #1
 367              		.loc 1 276 0
 368 0024 40F40060 		orr	r0, r0, #2048
 369              		.loc 1 279 0
 370 0028 45F6BF56 		movw	r6, #23999
 371              		.loc 1 280 0
ARM GAS  /tmp/ccbsOoKd.s 			page 21


 372 002c 4FF6FF75 		movw	r5, #65535
 373              		.loc 1 276 0
 374 0030 4860     		str	r0, [r1, #4]
 375              		.loc 1 279 0
 376 0032 9E62     		str	r6, [r3, #40]
 377              		.loc 1 289 0
 378 0034 1C20     		movs	r0, #28
 379              		.loc 1 280 0
 380 0036 DD62     		str	r5, [r3, #44]
 381              		.loc 1 289 0
 382 0038 0821     		movs	r1, #8
 383              		.loc 1 281 0
 384 003a 9A61     		str	r2, [r3, #24]
 385              		.loc 1 282 0
 386 003c 5A63     		str	r2, [r3, #52]
 387              		.loc 1 283 0
 388 003e DA60     		str	r2, [r3, #12]
 389              		.loc 1 284 0
 390 0040 5A60     		str	r2, [r3, #4]
 391              		.loc 1 285 0
 392 0042 5C61     		str	r4, [r3, #20]
 393              		.loc 1 286 0
 394 0044 1C60     		str	r4, [r3]
 395              		.loc 1 304 0
 396 0046 70BC     		pop	{r4, r5, r6}
 397              		.loc 1 289 0
 398 0048 FFF7FEBF 		b	nvicEnableVector
 399              	.LVL4:
 400              		.cfi_endproc
 401              	.LFE220:
 402              		.size	st_lld_init, .-st_lld_init
 403 004c AFF30080 		.text
 404              	.Letext0:
 405              		.file 4 "/usr/include/newlib/machine/_default_types.h"
 406              		.file 5 "/usr/include/newlib/stdint.h"
 407              		.file 6 "../../../os/common/ports/ARMCMx/compilers/GCC/chtypes.h"
 408              		.file 7 "../../../os/rt/include/chsystypes.h"
 409              		.file 8 "../../../os/rt/include/chschd.h"
 410              		.file 9 "../../../os/common/ext/CMSIS/ST/STM32F1xx/stm32f100xb.h"
 411              		.file 10 "../../../os/common/ports/ARMCMx/chcore.h"
 412              		.file 11 "../../../os/common/ports/ARMCMx/chcore_v7m.h"
 413              		.file 12 "../../../os/hal/ports/STM32/LLD/TIMv1/stm32_tim.h"
 414              		.file 13 "../../../os/rt/include/chsem.h"
 415              		.file 14 "../../../os/rt/include/chmtx.h"
 416              		.file 15 "../../../os/rt/include/chsys.h"
 417              		.file 16 "../../../os/common/ext/CMSIS/include/core_cm3.h"
 418              		.file 17 "../../../os/hal/ports/common/ARMCMx/nvic.h"
 419              		.section	.debug_info,"",%progbits
 420              	.Ldebug_info0:
 421 0000 D1090000 		.4byte	0x9d1
 422 0004 0400     		.2byte	0x4
 423 0006 00000000 		.4byte	.Ldebug_abbrev0
 424 000a 04       		.byte	0x4
 425 000b 01       		.uleb128 0x1
 426 000c 1E030000 		.4byte	.LASF125
 427 0010 01       		.byte	0x1
 428 0011 83050000 		.4byte	.LASF126
ARM GAS  /tmp/ccbsOoKd.s 			page 22


 429 0015 F2030000 		.4byte	.LASF127
 430 0019 00000000 		.4byte	.Ldebug_ranges0+0
 431 001d 00000000 		.4byte	0
 432 0021 00000000 		.4byte	.Ldebug_line0
 433 0025 02       		.uleb128 0x2
 434 0026 04       		.byte	0x4
 435 0027 05       		.byte	0x5
 436 0028 696E7400 		.ascii	"int\000"
 437 002c 03       		.uleb128 0x3
 438 002d 04       		.byte	0x4
 439 002e 07       		.byte	0x7
 440 002f 7A000000 		.4byte	.LASF0
 441 0033 03       		.uleb128 0x3
 442 0034 01       		.byte	0x1
 443 0035 06       		.byte	0x6
 444 0036 E8050000 		.4byte	.LASF1
 445 003a 04       		.uleb128 0x4
 446 003b DC040000 		.4byte	.LASF4
 447 003f 04       		.byte	0x4
 448 0040 1C       		.byte	0x1c
 449 0041 45000000 		.4byte	0x45
 450 0045 03       		.uleb128 0x3
 451 0046 01       		.byte	0x1
 452 0047 08       		.byte	0x8
 453 0048 4C050000 		.4byte	.LASF2
 454 004c 03       		.uleb128 0x3
 455 004d 02       		.byte	0x2
 456 004e 05       		.byte	0x5
 457 004f 5A040000 		.4byte	.LASF3
 458 0053 04       		.uleb128 0x4
 459 0054 CF010000 		.4byte	.LASF5
 460 0058 04       		.byte	0x4
 461 0059 26       		.byte	0x26
 462 005a 5E000000 		.4byte	0x5e
 463 005e 03       		.uleb128 0x3
 464 005f 02       		.byte	0x2
 465 0060 07       		.byte	0x7
 466 0061 FA050000 		.4byte	.LASF6
 467 0065 04       		.uleb128 0x4
 468 0066 A0000000 		.4byte	.LASF7
 469 006a 04       		.byte	0x4
 470 006b 37       		.byte	0x37
 471 006c 70000000 		.4byte	0x70
 472 0070 03       		.uleb128 0x3
 473 0071 04       		.byte	0x4
 474 0072 05       		.byte	0x5
 475 0073 64040000 		.4byte	.LASF8
 476 0077 04       		.uleb128 0x4
 477 0078 5A050000 		.4byte	.LASF9
 478 007c 04       		.byte	0x4
 479 007d 38       		.byte	0x38
 480 007e 82000000 		.4byte	0x82
 481 0082 03       		.uleb128 0x3
 482 0083 04       		.byte	0x4
 483 0084 07       		.byte	0x7
 484 0085 FC040000 		.4byte	.LASF10
 485 0089 03       		.uleb128 0x3
ARM GAS  /tmp/ccbsOoKd.s 			page 23


 486 008a 08       		.byte	0x8
 487 008b 05       		.byte	0x5
 488 008c F3020000 		.4byte	.LASF11
 489 0090 04       		.uleb128 0x4
 490 0091 72020000 		.4byte	.LASF12
 491 0095 04       		.byte	0x4
 492 0096 4E       		.byte	0x4e
 493 0097 9B000000 		.4byte	0x9b
 494 009b 03       		.uleb128 0x3
 495 009c 08       		.byte	0x8
 496 009d 07       		.byte	0x7
 497 009e B8010000 		.4byte	.LASF13
 498 00a2 04       		.uleb128 0x4
 499 00a3 C4020000 		.4byte	.LASF14
 500 00a7 05       		.byte	0x5
 501 00a8 2A       		.byte	0x2a
 502 00a9 3A000000 		.4byte	0x3a
 503 00ad 04       		.uleb128 0x4
 504 00ae 31040000 		.4byte	.LASF15
 505 00b2 05       		.byte	0x5
 506 00b3 36       		.byte	0x36
 507 00b4 53000000 		.4byte	0x53
 508 00b8 04       		.uleb128 0x4
 509 00b9 21050000 		.4byte	.LASF16
 510 00bd 05       		.byte	0x5
 511 00be 41       		.byte	0x41
 512 00bf 65000000 		.4byte	0x65
 513 00c3 04       		.uleb128 0x4
 514 00c4 5E010000 		.4byte	.LASF17
 515 00c8 05       		.byte	0x5
 516 00c9 42       		.byte	0x42
 517 00ca 77000000 		.4byte	0x77
 518 00ce 04       		.uleb128 0x4
 519 00cf B3040000 		.4byte	.LASF18
 520 00d3 05       		.byte	0x5
 521 00d4 4E       		.byte	0x4e
 522 00d5 90000000 		.4byte	0x90
 523 00d9 04       		.uleb128 0x4
 524 00da DF030000 		.4byte	.LASF19
 525 00de 06       		.byte	0x6
 526 00df 3C       		.byte	0x3c
 527 00e0 A2000000 		.4byte	0xa2
 528 00e4 04       		.uleb128 0x4
 529 00e5 B4020000 		.4byte	.LASF20
 530 00e9 06       		.byte	0x6
 531 00ea 3D       		.byte	0x3d
 532 00eb A2000000 		.4byte	0xa2
 533 00ef 04       		.uleb128 0x4
 534 00f0 F4040000 		.4byte	.LASF21
 535 00f4 06       		.byte	0x6
 536 00f5 3E       		.byte	0x3e
 537 00f6 A2000000 		.4byte	0xa2
 538 00fa 04       		.uleb128 0x4
 539 00fb 8D010000 		.4byte	.LASF22
 540 00ff 06       		.byte	0x6
 541 0100 40       		.byte	0x40
 542 0101 C3000000 		.4byte	0xc3
ARM GAS  /tmp/ccbsOoKd.s 			page 24


 543 0105 04       		.uleb128 0x4
 544 0106 08030000 		.4byte	.LASF23
 545 010a 06       		.byte	0x6
 546 010b 41       		.byte	0x41
 547 010c B8000000 		.4byte	0xb8
 548 0110 04       		.uleb128 0x4
 549 0111 6F010000 		.4byte	.LASF24
 550 0115 06       		.byte	0x6
 551 0116 43       		.byte	0x43
 552 0117 C3000000 		.4byte	0xc3
 553 011b 04       		.uleb128 0x4
 554 011c DA010000 		.4byte	.LASF25
 555 0120 06       		.byte	0x6
 556 0121 45       		.byte	0x45
 557 0122 B8000000 		.4byte	0xb8
 558 0126 04       		.uleb128 0x4
 559 0127 5E000000 		.4byte	.LASF26
 560 012b 07       		.byte	0x7
 561 012c 35       		.byte	0x35
 562 012d AD000000 		.4byte	0xad
 563 0131 04       		.uleb128 0x4
 564 0132 1B020000 		.4byte	.LASF27
 565 0136 07       		.byte	0x7
 566 0137 3F       		.byte	0x3f
 567 0138 3C010000 		.4byte	0x13c
 568 013c 05       		.uleb128 0x5
 569 013d DA020000 		.4byte	.LASF45
 570 0141 44       		.byte	0x44
 571 0142 08       		.byte	0x8
 572 0143 9A       		.byte	0x9a
 573 0144 1A020000 		.4byte	0x21a
 574 0148 06       		.uleb128 0x6
 575 0149 1B050000 		.4byte	.LASF28
 576 014d 08       		.byte	0x8
 577 014e 9B       		.byte	0x9b
 578 014f 4F020000 		.4byte	0x24f
 579 0153 00       		.byte	0
 580 0154 06       		.uleb128 0x6
 581 0155 8B020000 		.4byte	.LASF29
 582 0159 08       		.byte	0x8
 583 015a 9C       		.byte	0x9c
 584 015b FA000000 		.4byte	0xfa
 585 015f 08       		.byte	0x8
 586 0160 07       		.uleb128 0x7
 587 0161 63747800 		.ascii	"ctx\000"
 588 0165 08       		.byte	0x8
 589 0166 9D       		.byte	0x9d
 590 0167 40050000 		.4byte	0x540
 591 016b 0C       		.byte	0xc
 592 016c 06       		.uleb128 0x6
 593 016d 31050000 		.4byte	.LASF30
 594 0171 08       		.byte	0x8
 595 0172 9F       		.byte	0x9f
 596 0173 25020000 		.4byte	0x225
 597 0177 10       		.byte	0x10
 598 0178 06       		.uleb128 0x6
 599 0179 2C060000 		.4byte	.LASF31
ARM GAS  /tmp/ccbsOoKd.s 			page 25


 600 017d 08       		.byte	0x8
 601 017e A0       		.byte	0xa0
 602 017f 25020000 		.4byte	0x225
 603 0183 14       		.byte	0x14
 604 0184 06       		.uleb128 0x6
 605 0185 E6040000 		.4byte	.LASF32
 606 0189 08       		.byte	0x8
 607 018a A7       		.byte	0xa7
 608 018b C7070000 		.4byte	0x7c7
 609 018f 18       		.byte	0x18
 610 0190 06       		.uleb128 0x6
 611 0191 AD020000 		.4byte	.LASF33
 612 0195 08       		.byte	0x8
 613 0196 B0       		.byte	0xb0
 614 0197 D9070000 		.4byte	0x7d9
 615 019b 1C       		.byte	0x1c
 616 019c 06       		.uleb128 0x6
 617 019d C9050000 		.4byte	.LASF34
 618 01a1 08       		.byte	0x8
 619 01a2 B5       		.byte	0xb5
 620 01a3 E4000000 		.4byte	0xe4
 621 01a7 20       		.byte	0x20
 622 01a8 06       		.uleb128 0x6
 623 01a9 58000000 		.4byte	.LASF35
 624 01ad 08       		.byte	0x8
 625 01ae B9       		.byte	0xb9
 626 01af D9000000 		.4byte	0xd9
 627 01b3 21       		.byte	0x21
 628 01b4 06       		.uleb128 0x6
 629 01b5 AA000000 		.4byte	.LASF36
 630 01b9 08       		.byte	0x8
 631 01ba BE       		.byte	0xbe
 632 01bb EF000000 		.4byte	0xef
 633 01bf 22       		.byte	0x22
 634 01c0 08       		.uleb128 0x8
 635 01c1 7500     		.ascii	"u\000"
 636 01c3 08       		.byte	0x8
 637 01c4 0F01     		.2byte	0x10f
 638 01c6 FC060000 		.4byte	0x6fc
 639 01ca 24       		.byte	0x24
 640 01cb 09       		.uleb128 0x9
 641 01cc 65050000 		.4byte	.LASF37
 642 01d0 08       		.byte	0x8
 643 01d1 1401     		.2byte	0x114
 644 01d3 2B020000 		.4byte	0x22b
 645 01d7 28       		.byte	0x28
 646 01d8 09       		.uleb128 0x9
 647 01d9 CC020000 		.4byte	.LASF38
 648 01dd 08       		.byte	0x8
 649 01de 1A01     		.2byte	0x11a
 650 01e0 4F020000 		.4byte	0x24f
 651 01e4 2C       		.byte	0x2c
 652 01e5 09       		.uleb128 0x9
 653 01e6 71000000 		.4byte	.LASF39
 654 01ea 08       		.byte	0x8
 655 01eb 2001     		.2byte	0x120
 656 01ed 10010000 		.4byte	0x110
ARM GAS  /tmp/ccbsOoKd.s 			page 26


 657 01f1 34       		.byte	0x34
 658 01f2 09       		.uleb128 0x9
 659 01f3 FC010000 		.4byte	.LASF40
 660 01f7 08       		.byte	0x8
 661 01f8 2701     		.2byte	0x127
 662 01fa C1070000 		.4byte	0x7c1
 663 01fe 38       		.byte	0x38
 664 01ff 09       		.uleb128 0x9
 665 0200 68000000 		.4byte	.LASF41
 666 0204 08       		.byte	0x8
 667 0205 2B01     		.2byte	0x12b
 668 0207 FA000000 		.4byte	0xfa
 669 020b 3C       		.byte	0x3c
 670 020c 09       		.uleb128 0x9
 671 020d 3B060000 		.4byte	.LASF42
 672 0211 08       		.byte	0x8
 673 0212 3201     		.2byte	0x132
 674 0214 02030000 		.4byte	0x302
 675 0218 40       		.byte	0x40
 676 0219 00       		.byte	0
 677 021a 04       		.uleb128 0x4
 678 021b 9A020000 		.4byte	.LASF43
 679 021f 07       		.byte	0x7
 680 0220 44       		.byte	0x44
 681 0221 25020000 		.4byte	0x225
 682 0225 0A       		.uleb128 0xa
 683 0226 04       		.byte	0x4
 684 0227 31010000 		.4byte	0x131
 685 022b 04       		.uleb128 0x4
 686 022c 8C000000 		.4byte	.LASF44
 687 0230 07       		.byte	0x7
 688 0231 49       		.byte	0x49
 689 0232 36020000 		.4byte	0x236
 690 0236 05       		.uleb128 0x5
 691 0237 00000000 		.4byte	.LASF46
 692 023b 04       		.byte	0x4
 693 023c 08       		.byte	0x8
 694 023d 88       		.byte	0x88
 695 023e 4F020000 		.4byte	0x24f
 696 0242 06       		.uleb128 0x6
 697 0243 87000000 		.4byte	.LASF47
 698 0247 08       		.byte	0x8
 699 0248 89       		.byte	0x89
 700 0249 25020000 		.4byte	0x225
 701 024d 00       		.byte	0
 702 024e 00       		.byte	0
 703 024f 04       		.uleb128 0x4
 704 0250 E6010000 		.4byte	.LASF48
 705 0254 07       		.byte	0x7
 706 0255 50       		.byte	0x50
 707 0256 5A020000 		.4byte	0x25a
 708 025a 05       		.uleb128 0x5
 709 025b 06010000 		.4byte	.LASF49
 710 025f 08       		.byte	0x8
 711 0260 08       		.byte	0x8
 712 0261 8F       		.byte	0x8f
 713 0262 7F020000 		.4byte	0x27f
ARM GAS  /tmp/ccbsOoKd.s 			page 27


 714 0266 06       		.uleb128 0x6
 715 0267 87000000 		.4byte	.LASF47
 716 026b 08       		.byte	0x8
 717 026c 90       		.byte	0x90
 718 026d 25020000 		.4byte	0x225
 719 0271 00       		.byte	0
 720 0272 06       		.uleb128 0x6
 721 0273 01010000 		.4byte	.LASF50
 722 0277 08       		.byte	0x8
 723 0278 91       		.byte	0x91
 724 0279 25020000 		.4byte	0x225
 725 027d 04       		.byte	0x4
 726 027e 00       		.byte	0
 727 027f 04       		.uleb128 0x4
 728 0280 0E050000 		.4byte	.LASF51
 729 0284 07       		.byte	0x7
 730 0285 57       		.byte	0x57
 731 0286 8A020000 		.4byte	0x28a
 732 028a 0B       		.uleb128 0xb
 733 028b E7000000 		.4byte	.LASF52
 734 028f 1C       		.byte	0x1c
 735 0290 08       		.byte	0x8
 736 0291 6A01     		.2byte	0x16a
 737 0293 E6020000 		.4byte	0x2e6
 738 0297 09       		.uleb128 0x9
 739 0298 1B050000 		.4byte	.LASF28
 740 029c 08       		.byte	0x8
 741 029d 6B01     		.2byte	0x16b
 742 029f 4F020000 		.4byte	0x24f
 743 02a3 00       		.byte	0
 744 02a4 09       		.uleb128 0x9
 745 02a5 8B020000 		.4byte	.LASF29
 746 02a9 08       		.byte	0x8
 747 02aa 6C01     		.2byte	0x16c
 748 02ac FA000000 		.4byte	0xfa
 749 02b0 08       		.byte	0x8
 750 02b1 08       		.uleb128 0x8
 751 02b2 63747800 		.ascii	"ctx\000"
 752 02b6 08       		.byte	0x8
 753 02b7 6E01     		.2byte	0x16e
 754 02b9 40050000 		.4byte	0x540
 755 02bd 0C       		.byte	0xc
 756 02be 09       		.uleb128 0x9
 757 02bf 31050000 		.4byte	.LASF30
 758 02c3 08       		.byte	0x8
 759 02c4 7101     		.2byte	0x171
 760 02c6 25020000 		.4byte	0x225
 761 02ca 10       		.byte	0x10
 762 02cb 09       		.uleb128 0x9
 763 02cc 2C060000 		.4byte	.LASF31
 764 02d0 08       		.byte	0x8
 765 02d1 7201     		.2byte	0x172
 766 02d3 25020000 		.4byte	0x225
 767 02d7 14       		.byte	0x14
 768 02d8 09       		.uleb128 0x9
 769 02d9 18060000 		.4byte	.LASF53
 770 02dd 08       		.byte	0x8
ARM GAS  /tmp/ccbsOoKd.s 			page 28


 771 02de 7501     		.2byte	0x175
 772 02e0 25020000 		.4byte	0x225
 773 02e4 18       		.byte	0x18
 774 02e5 00       		.byte	0
 775 02e6 04       		.uleb128 0x4
 776 02e7 45010000 		.4byte	.LASF54
 777 02eb 07       		.byte	0x7
 778 02ec 5C       		.byte	0x5c
 779 02ed F1020000 		.4byte	0x2f1
 780 02f1 0A       		.uleb128 0xa
 781 02f2 04       		.byte	0x4
 782 02f3 F7020000 		.4byte	0x2f7
 783 02f7 0C       		.uleb128 0xc
 784 02f8 02030000 		.4byte	0x302
 785 02fc 0D       		.uleb128 0xd
 786 02fd 02030000 		.4byte	0x302
 787 0301 00       		.byte	0
 788 0302 0E       		.uleb128 0xe
 789 0303 04       		.byte	0x4
 790 0304 04       		.uleb128 0x4
 791 0305 0E030000 		.4byte	.LASF55
 792 0309 07       		.byte	0x7
 793 030a 61       		.byte	0x61
 794 030b 0F030000 		.4byte	0x30f
 795 030f 0B       		.uleb128 0xb
 796 0310 95010000 		.4byte	.LASF56
 797 0314 14       		.byte	0x14
 798 0315 08       		.byte	0x8
 799 0316 4501     		.2byte	0x145
 800 0318 5E030000 		.4byte	0x35e
 801 031c 09       		.uleb128 0x9
 802 031d 87000000 		.4byte	.LASF47
 803 0321 08       		.byte	0x8
 804 0322 4601     		.2byte	0x146
 805 0324 DF070000 		.4byte	0x7df
 806 0328 00       		.byte	0
 807 0329 09       		.uleb128 0x9
 808 032a 01010000 		.4byte	.LASF50
 809 032e 08       		.byte	0x8
 810 032f 4701     		.2byte	0x147
 811 0331 DF070000 		.4byte	0x7df
 812 0335 04       		.byte	0x4
 813 0336 09       		.uleb128 0x9
 814 0337 F4050000 		.4byte	.LASF57
 815 033b 08       		.byte	0x8
 816 033c 4801     		.2byte	0x148
 817 033e 26010000 		.4byte	0x126
 818 0342 08       		.byte	0x8
 819 0343 09       		.uleb128 0x9
 820 0344 F5000000 		.4byte	.LASF58
 821 0348 08       		.byte	0x8
 822 0349 4901     		.2byte	0x149
 823 034b E6020000 		.4byte	0x2e6
 824 034f 0C       		.byte	0xc
 825 0350 08       		.uleb128 0x8
 826 0351 70617200 		.ascii	"par\000"
 827 0355 08       		.byte	0x8
ARM GAS  /tmp/ccbsOoKd.s 			page 29


 828 0356 4B01     		.2byte	0x14b
 829 0358 02030000 		.4byte	0x302
 830 035c 10       		.byte	0x10
 831 035d 00       		.byte	0
 832 035e 04       		.uleb128 0x4
 833 035f 6D050000 		.4byte	.LASF59
 834 0363 07       		.byte	0x7
 835 0364 66       		.byte	0x66
 836 0365 69030000 		.4byte	0x369
 837 0369 0B       		.uleb128 0xb
 838 036a 04020000 		.4byte	.LASF60
 839 036e 0C       		.byte	0xc
 840 036f 08       		.byte	0x8
 841 0370 5501     		.2byte	0x155
 842 0372 AB030000 		.4byte	0x3ab
 843 0376 09       		.uleb128 0x9
 844 0377 87000000 		.4byte	.LASF47
 845 037b 08       		.byte	0x8
 846 037c 5601     		.2byte	0x156
 847 037e DF070000 		.4byte	0x7df
 848 0382 00       		.byte	0
 849 0383 09       		.uleb128 0x9
 850 0384 01010000 		.4byte	.LASF50
 851 0388 08       		.byte	0x8
 852 0389 5801     		.2byte	0x158
 853 038b DF070000 		.4byte	0x7df
 854 038f 04       		.byte	0x4
 855 0390 09       		.uleb128 0x9
 856 0391 F4050000 		.4byte	.LASF57
 857 0395 08       		.byte	0x8
 858 0396 5A01     		.2byte	0x15a
 859 0398 26010000 		.4byte	0x126
 860 039c 08       		.byte	0x8
 861 039d 09       		.uleb128 0x9
 862 039e AA040000 		.4byte	.LASF61
 863 03a2 08       		.byte	0x8
 864 03a3 6201     		.2byte	0x162
 865 03a5 26010000 		.4byte	0x126
 866 03a9 0A       		.byte	0xa
 867 03aa 00       		.byte	0
 868 03ab 04       		.uleb128 0x4
 869 03ac E4020000 		.4byte	.LASF62
 870 03b0 07       		.byte	0x7
 871 03b1 6B       		.byte	0x6b
 872 03b2 B6030000 		.4byte	0x3b6
 873 03b6 0B       		.uleb128 0xb
 874 03b7 4E010000 		.4byte	.LASF63
 875 03bb 04       		.byte	0x4
 876 03bc 08       		.byte	0x8
 877 03bd 7C01     		.2byte	0x17c
 878 03bf D1030000 		.4byte	0x3d1
 879 03c3 09       		.uleb128 0x9
 880 03c4 CF030000 		.4byte	.LASF64
 881 03c8 08       		.byte	0x8
 882 03c9 8401     		.2byte	0x184
 883 03cb E5070000 		.4byte	0x7e5
 884 03cf 00       		.byte	0
ARM GAS  /tmp/ccbsOoKd.s 			page 30


 885 03d0 00       		.byte	0
 886 03d1 04       		.uleb128 0x4
 887 03d2 CF050000 		.4byte	.LASF65
 888 03d6 07       		.byte	0x7
 889 03d7 70       		.byte	0x70
 890 03d8 DC030000 		.4byte	0x3dc
 891 03dc 0B       		.uleb128 0xb
 892 03dd 86040000 		.4byte	.LASF66
 893 03e1 70       		.byte	0x70
 894 03e2 08       		.byte	0x8
 895 03e3 9C01     		.2byte	0x19c
 896 03e5 1E040000 		.4byte	0x41e
 897 03e9 09       		.uleb128 0x9
 898 03ea C1040000 		.4byte	.LASF67
 899 03ee 08       		.byte	0x8
 900 03ef A001     		.2byte	0x1a0
 901 03f1 7F020000 		.4byte	0x27f
 902 03f5 00       		.byte	0
 903 03f6 09       		.uleb128 0x9
 904 03f7 C0000000 		.4byte	.LASF68
 905 03fb 08       		.byte	0x8
 906 03fc A401     		.2byte	0x1a4
 907 03fe 5E030000 		.4byte	0x35e
 908 0402 1C       		.byte	0x1c
 909 0403 08       		.uleb128 0x8
 910 0404 64626700 		.ascii	"dbg\000"
 911 0408 08       		.byte	0x8
 912 0409 A801     		.2byte	0x1a8
 913 040b AB030000 		.4byte	0x3ab
 914 040f 28       		.byte	0x28
 915 0410 09       		.uleb128 0x9
 916 0411 E7030000 		.4byte	.LASF69
 917 0415 08       		.byte	0x8
 918 0416 AC01     		.2byte	0x1ac
 919 0418 31010000 		.4byte	0x131
 920 041c 2C       		.byte	0x2c
 921 041d 00       		.byte	0
 922 041e 03       		.uleb128 0x3
 923 041f 04       		.byte	0x4
 924 0420 07       		.byte	0x7
 925 0421 EB040000 		.4byte	.LASF70
 926 0425 0F       		.uleb128 0xf
 927 0426 C3000000 		.4byte	0xc3
 928 042a 10       		.uleb128 0x10
 929 042b C3000000 		.4byte	0xc3
 930 042f 3A040000 		.4byte	0x43a
 931 0433 11       		.uleb128 0x11
 932 0434 1E040000 		.4byte	0x41e
 933 0438 01       		.byte	0x1
 934 0439 00       		.byte	0
 935 043a 10       		.uleb128 0x10
 936 043b C3000000 		.4byte	0xc3
 937 043f 4A040000 		.4byte	0x44a
 938 0443 11       		.uleb128 0x11
 939 0444 1E040000 		.4byte	0x41e
 940 0448 03       		.byte	0x3
 941 0449 00       		.byte	0
ARM GAS  /tmp/ccbsOoKd.s 			page 31


 942 044a 12       		.uleb128 0x12
 943 044b 08       		.byte	0x8
 944 044c 09       		.byte	0x9
 945 044d 0E01     		.2byte	0x10e
 946 044f 6D040000 		.4byte	0x46d
 947 0453 09       		.uleb128 0x9
 948 0454 01030000 		.4byte	.LASF71
 949 0458 09       		.byte	0x9
 950 0459 1001     		.2byte	0x110
 951 045b 25040000 		.4byte	0x425
 952 045f 00       		.byte	0
 953 0460 08       		.uleb128 0x8
 954 0461 435200   		.ascii	"CR\000"
 955 0464 09       		.byte	0x9
 956 0465 1101     		.2byte	0x111
 957 0467 25040000 		.4byte	0x425
 958 046b 04       		.byte	0x4
 959 046c 00       		.byte	0
 960 046d 13       		.uleb128 0x13
 961 046e 2D010000 		.4byte	.LASF72
 962 0472 09       		.byte	0x9
 963 0473 1201     		.2byte	0x112
 964 0475 4A040000 		.4byte	0x44a
 965 0479 12       		.uleb128 0x12
 966 047a 30       		.byte	0x30
 967 047b 09       		.byte	0x9
 968 047c 9D01     		.2byte	0x19d
 969 047e 1E050000 		.4byte	0x51e
 970 0482 08       		.uleb128 0x8
 971 0483 435200   		.ascii	"CR\000"
 972 0486 09       		.byte	0x9
 973 0487 9F01     		.2byte	0x19f
 974 0489 25040000 		.4byte	0x425
 975 048d 00       		.byte	0
 976 048e 09       		.uleb128 0x9
 977 048f BC040000 		.4byte	.LASF73
 978 0493 09       		.byte	0x9
 979 0494 A001     		.2byte	0x1a0
 980 0496 25040000 		.4byte	0x425
 981 049a 04       		.byte	0x4
 982 049b 08       		.uleb128 0x8
 983 049c 43495200 		.ascii	"CIR\000"
 984 04a0 09       		.byte	0x9
 985 04a1 A101     		.2byte	0x1a1
 986 04a3 25040000 		.4byte	0x425
 987 04a7 08       		.byte	0x8
 988 04a8 09       		.uleb128 0x9
 989 04a9 4F000000 		.4byte	.LASF74
 990 04ad 09       		.byte	0x9
 991 04ae A201     		.2byte	0x1a2
 992 04b0 25040000 		.4byte	0x425
 993 04b4 0C       		.byte	0xc
 994 04b5 09       		.uleb128 0x9
 995 04b6 82020000 		.4byte	.LASF75
 996 04ba 09       		.byte	0x9
 997 04bb A301     		.2byte	0x1a3
 998 04bd 25040000 		.4byte	0x425
ARM GAS  /tmp/ccbsOoKd.s 			page 32


 999 04c1 10       		.byte	0x10
 1000 04c2 09       		.uleb128 0x9
 1001 04c3 BD020000 		.4byte	.LASF76
 1002 04c7 09       		.byte	0x9
 1003 04c8 A401     		.2byte	0x1a4
 1004 04ca 25040000 		.4byte	0x425
 1005 04ce 14       		.byte	0x14
 1006 04cf 09       		.uleb128 0x9
 1007 04d0 C7030000 		.4byte	.LASF77
 1008 04d4 09       		.byte	0x9
 1009 04d5 A501     		.2byte	0x1a5
 1010 04d7 25040000 		.4byte	0x425
 1011 04db 18       		.byte	0x18
 1012 04dc 09       		.uleb128 0x9
 1013 04dd 10000000 		.4byte	.LASF78
 1014 04e1 09       		.byte	0x9
 1015 04e2 A601     		.2byte	0x1a6
 1016 04e4 25040000 		.4byte	0x425
 1017 04e8 1C       		.byte	0x1c
 1018 04e9 09       		.uleb128 0x9
 1019 04ea 9B000000 		.4byte	.LASF79
 1020 04ee 09       		.byte	0x9
 1021 04ef A701     		.2byte	0x1a7
 1022 04f1 25040000 		.4byte	0x425
 1023 04f5 20       		.byte	0x20
 1024 04f6 08       		.uleb128 0x8
 1025 04f7 43535200 		.ascii	"CSR\000"
 1026 04fb 09       		.byte	0x9
 1027 04fc A801     		.2byte	0x1a8
 1028 04fe 25040000 		.4byte	0x425
 1029 0502 24       		.byte	0x24
 1030 0503 09       		.uleb128 0x9
 1031 0504 50040000 		.4byte	.LASF80
 1032 0508 09       		.byte	0x9
 1033 0509 AB01     		.2byte	0x1ab
 1034 050b C3000000 		.4byte	0xc3
 1035 050f 28       		.byte	0x28
 1036 0510 09       		.uleb128 0x9
 1037 0511 C1030000 		.4byte	.LASF81
 1038 0515 09       		.byte	0x9
 1039 0516 AC01     		.2byte	0x1ac
 1040 0518 25040000 		.4byte	0x425
 1041 051c 2C       		.byte	0x2c
 1042 051d 00       		.byte	0
 1043 051e 13       		.uleb128 0x13
 1044 051f 5D020000 		.4byte	.LASF82
 1045 0523 09       		.byte	0x9
 1046 0524 AD01     		.2byte	0x1ad
 1047 0526 79040000 		.4byte	0x479
 1048 052a 04       		.uleb128 0x4
 1049 052b 46000000 		.4byte	.LASF83
 1050 052f 0A       		.byte	0xa
 1051 0530 65       		.byte	0x65
 1052 0531 02030000 		.4byte	0x302
 1053 0535 04       		.uleb128 0x4
 1054 0536 0D060000 		.4byte	.LASF84
 1055 053a 0A       		.byte	0xa
ARM GAS  /tmp/ccbsOoKd.s 			page 33


 1056 053b 6D       		.byte	0x6d
 1057 053c CE000000 		.4byte	0xce
 1058 0540 05       		.uleb128 0x5
 1059 0541 C7000000 		.4byte	.LASF85
 1060 0545 04       		.byte	0x4
 1061 0546 0A       		.byte	0xa
 1062 0547 89       		.byte	0x89
 1063 0548 58050000 		.4byte	0x558
 1064 054c 07       		.uleb128 0x7
 1065 054d 737000   		.ascii	"sp\000"
 1066 0550 0A       		.byte	0xa
 1067 0551 8A       		.byte	0x8a
 1068 0552 D4050000 		.4byte	0x5d4
 1069 0556 00       		.byte	0
 1070 0557 00       		.byte	0
 1071 0558 0B       		.uleb128 0xb
 1072 0559 6D040000 		.4byte	.LASF86
 1073 055d 24       		.byte	0x24
 1074 055e 0B       		.byte	0xb
 1075 055f 5901     		.2byte	0x159
 1076 0561 D4050000 		.4byte	0x5d4
 1077 0565 08       		.uleb128 0x8
 1078 0566 723400   		.ascii	"r4\000"
 1079 0569 0B       		.byte	0xb
 1080 056a 6C01     		.2byte	0x16c
 1081 056c 2A050000 		.4byte	0x52a
 1082 0570 00       		.byte	0
 1083 0571 08       		.uleb128 0x8
 1084 0572 723500   		.ascii	"r5\000"
 1085 0575 0B       		.byte	0xb
 1086 0576 6D01     		.2byte	0x16d
 1087 0578 2A050000 		.4byte	0x52a
 1088 057c 04       		.byte	0x4
 1089 057d 08       		.uleb128 0x8
 1090 057e 723600   		.ascii	"r6\000"
 1091 0581 0B       		.byte	0xb
 1092 0582 6E01     		.2byte	0x16e
 1093 0584 2A050000 		.4byte	0x52a
 1094 0588 08       		.byte	0x8
 1095 0589 08       		.uleb128 0x8
 1096 058a 723700   		.ascii	"r7\000"
 1097 058d 0B       		.byte	0xb
 1098 058e 6F01     		.2byte	0x16f
 1099 0590 2A050000 		.4byte	0x52a
 1100 0594 0C       		.byte	0xc
 1101 0595 08       		.uleb128 0x8
 1102 0596 723800   		.ascii	"r8\000"
 1103 0599 0B       		.byte	0xb
 1104 059a 7001     		.2byte	0x170
 1105 059c 2A050000 		.4byte	0x52a
 1106 05a0 10       		.byte	0x10
 1107 05a1 08       		.uleb128 0x8
 1108 05a2 723900   		.ascii	"r9\000"
 1109 05a5 0B       		.byte	0xb
 1110 05a6 7101     		.2byte	0x171
 1111 05a8 2A050000 		.4byte	0x52a
 1112 05ac 14       		.byte	0x14
ARM GAS  /tmp/ccbsOoKd.s 			page 34


 1113 05ad 08       		.uleb128 0x8
 1114 05ae 72313000 		.ascii	"r10\000"
 1115 05b2 0B       		.byte	0xb
 1116 05b3 7201     		.2byte	0x172
 1117 05b5 2A050000 		.4byte	0x52a
 1118 05b9 18       		.byte	0x18
 1119 05ba 08       		.uleb128 0x8
 1120 05bb 72313100 		.ascii	"r11\000"
 1121 05bf 0B       		.byte	0xb
 1122 05c0 7301     		.2byte	0x173
 1123 05c2 2A050000 		.4byte	0x52a
 1124 05c6 1C       		.byte	0x1c
 1125 05c7 08       		.uleb128 0x8
 1126 05c8 6C7200   		.ascii	"lr\000"
 1127 05cb 0B       		.byte	0xb
 1128 05cc 7401     		.2byte	0x174
 1129 05ce 2A050000 		.4byte	0x52a
 1130 05d2 20       		.byte	0x20
 1131 05d3 00       		.byte	0
 1132 05d4 0A       		.uleb128 0xa
 1133 05d5 04       		.byte	0x4
 1134 05d6 58050000 		.4byte	0x558
 1135 05da 12       		.uleb128 0x12
 1136 05db 60       		.byte	0x60
 1137 05dc 0C       		.byte	0xc
 1138 05dd A101     		.2byte	0x1a1
 1139 05df E6060000 		.4byte	0x6e6
 1140 05e3 08       		.uleb128 0x8
 1141 05e4 43523100 		.ascii	"CR1\000"
 1142 05e8 0C       		.byte	0xc
 1143 05e9 A201     		.2byte	0x1a2
 1144 05eb 25040000 		.4byte	0x425
 1145 05ef 00       		.byte	0
 1146 05f0 08       		.uleb128 0x8
 1147 05f1 43523200 		.ascii	"CR2\000"
 1148 05f5 0C       		.byte	0xc
 1149 05f6 A301     		.2byte	0x1a3
 1150 05f8 25040000 		.4byte	0x425
 1151 05fc 04       		.byte	0x4
 1152 05fd 09       		.uleb128 0x9
 1153 05fe D5020000 		.4byte	.LASF87
 1154 0602 0C       		.byte	0xc
 1155 0603 A401     		.2byte	0x1a4
 1156 0605 25040000 		.4byte	0x425
 1157 0609 08       		.byte	0x8
 1158 060a 09       		.uleb128 0x9
 1159 060b 7D020000 		.4byte	.LASF88
 1160 060f 0C       		.byte	0xc
 1161 0610 A501     		.2byte	0x1a5
 1162 0612 25040000 		.4byte	0x425
 1163 0616 0C       		.byte	0xc
 1164 0617 08       		.uleb128 0x8
 1165 0618 535200   		.ascii	"SR\000"
 1166 061b 0C       		.byte	0xc
 1167 061c A601     		.2byte	0x1a6
 1168 061e 25040000 		.4byte	0x425
 1169 0622 10       		.byte	0x10
ARM GAS  /tmp/ccbsOoKd.s 			page 35


 1170 0623 08       		.uleb128 0x8
 1171 0624 45475200 		.ascii	"EGR\000"
 1172 0628 0C       		.byte	0xc
 1173 0629 A701     		.2byte	0x1a7
 1174 062b 25040000 		.4byte	0x425
 1175 062f 14       		.byte	0x14
 1176 0630 09       		.uleb128 0x9
 1177 0631 A6010000 		.4byte	.LASF89
 1178 0635 0C       		.byte	0xc
 1179 0636 A801     		.2byte	0x1a8
 1180 0638 25040000 		.4byte	0x425
 1181 063c 18       		.byte	0x18
 1182 063d 09       		.uleb128 0x9
 1183 063e AC010000 		.4byte	.LASF90
 1184 0642 0C       		.byte	0xc
 1185 0643 A901     		.2byte	0x1a9
 1186 0645 25040000 		.4byte	0x425
 1187 0649 1C       		.byte	0x1c
 1188 064a 09       		.uleb128 0x9
 1189 064b 90020000 		.4byte	.LASF91
 1190 064f 0C       		.byte	0xc
 1191 0650 AA01     		.2byte	0x1aa
 1192 0652 25040000 		.4byte	0x425
 1193 0656 20       		.byte	0x20
 1194 0657 08       		.uleb128 0x8
 1195 0658 434E5400 		.ascii	"CNT\000"
 1196 065c 0C       		.byte	0xc
 1197 065d AB01     		.2byte	0x1ab
 1198 065f 25040000 		.4byte	0x425
 1199 0663 24       		.byte	0x24
 1200 0664 08       		.uleb128 0x8
 1201 0665 50534300 		.ascii	"PSC\000"
 1202 0669 0C       		.byte	0xc
 1203 066a AC01     		.2byte	0x1ac
 1204 066c 25040000 		.4byte	0x425
 1205 0670 28       		.byte	0x28
 1206 0671 08       		.uleb128 0x8
 1207 0672 41525200 		.ascii	"ARR\000"
 1208 0676 0C       		.byte	0xc
 1209 0677 AD01     		.2byte	0x1ad
 1210 0679 25040000 		.4byte	0x425
 1211 067d 2C       		.byte	0x2c
 1212 067e 08       		.uleb128 0x8
 1213 067f 52435200 		.ascii	"RCR\000"
 1214 0683 0C       		.byte	0xc
 1215 0684 AE01     		.2byte	0x1ae
 1216 0686 25040000 		.4byte	0x425
 1217 068a 30       		.byte	0x30
 1218 068b 08       		.uleb128 0x8
 1219 068c 43435200 		.ascii	"CCR\000"
 1220 0690 0C       		.byte	0xc
 1221 0691 AF01     		.2byte	0x1af
 1222 0693 E6060000 		.4byte	0x6e6
 1223 0697 34       		.byte	0x34
 1224 0698 09       		.uleb128 0x9
 1225 0699 7B010000 		.4byte	.LASF92
 1226 069d 0C       		.byte	0xc
ARM GAS  /tmp/ccbsOoKd.s 			page 36


 1227 069e B001     		.2byte	0x1b0
 1228 06a0 25040000 		.4byte	0x425
 1229 06a4 44       		.byte	0x44
 1230 06a5 08       		.uleb128 0x8
 1231 06a6 44435200 		.ascii	"DCR\000"
 1232 06aa 0C       		.byte	0xc
 1233 06ab B101     		.2byte	0x1b1
 1234 06ad 25040000 		.4byte	0x425
 1235 06b1 48       		.byte	0x48
 1236 06b2 09       		.uleb128 0x9
 1237 06b3 28010000 		.4byte	.LASF93
 1238 06b7 0C       		.byte	0xc
 1239 06b8 B201     		.2byte	0x1b2
 1240 06ba 25040000 		.4byte	0x425
 1241 06be 4C       		.byte	0x4c
 1242 06bf 08       		.uleb128 0x8
 1243 06c0 4F5200   		.ascii	"OR\000"
 1244 06c3 0C       		.byte	0xc
 1245 06c4 B301     		.2byte	0x1b3
 1246 06c6 25040000 		.4byte	0x425
 1247 06ca 50       		.byte	0x50
 1248 06cb 09       		.uleb128 0x9
 1249 06cc B2010000 		.4byte	.LASF94
 1250 06d0 0C       		.byte	0xc
 1251 06d1 B401     		.2byte	0x1b4
 1252 06d3 25040000 		.4byte	0x425
 1253 06d7 54       		.byte	0x54
 1254 06d8 09       		.uleb128 0x9
 1255 06d9 4B040000 		.4byte	.LASF95
 1256 06dd 0C       		.byte	0xc
 1257 06de B501     		.2byte	0x1b5
 1258 06e0 EB060000 		.4byte	0x6eb
 1259 06e4 58       		.byte	0x58
 1260 06e5 00       		.byte	0
 1261 06e6 0F       		.uleb128 0xf
 1262 06e7 3A040000 		.4byte	0x43a
 1263 06eb 0F       		.uleb128 0xf
 1264 06ec 2A040000 		.4byte	0x42a
 1265 06f0 13       		.uleb128 0x13
 1266 06f1 51020000 		.4byte	.LASF96
 1267 06f5 0C       		.byte	0xc
 1268 06f6 B601     		.2byte	0x1b6
 1269 06f8 DA050000 		.4byte	0x5da
 1270 06fc 14       		.uleb128 0x14
 1271 06fd 04       		.byte	0x4
 1272 06fe 08       		.byte	0x8
 1273 06ff D2       		.byte	0xd2
 1274 0700 5F070000 		.4byte	0x75f
 1275 0704 15       		.uleb128 0x15
 1276 0705 37020000 		.4byte	.LASF97
 1277 0709 08       		.byte	0x8
 1278 070a D9       		.byte	0xd9
 1279 070b 05010000 		.4byte	0x105
 1280 070f 15       		.uleb128 0x15
 1281 0710 32060000 		.4byte	.LASF98
 1282 0714 08       		.byte	0x8
 1283 0715 E0       		.byte	0xe0
ARM GAS  /tmp/ccbsOoKd.s 			page 37


 1284 0716 05010000 		.4byte	0x105
 1285 071a 15       		.uleb128 0x15
 1286 071b AF000000 		.4byte	.LASF99
 1287 071f 08       		.byte	0x8
 1288 0720 E7       		.byte	0xe7
 1289 0721 02030000 		.4byte	0x302
 1290 0725 15       		.uleb128 0x15
 1291 0726 E2050000 		.4byte	.LASF100
 1292 072a 08       		.byte	0x8
 1293 072b EE       		.byte	0xee
 1294 072c 5F070000 		.4byte	0x75f
 1295 0730 15       		.uleb128 0x15
 1296 0731 67010000 		.4byte	.LASF101
 1297 0735 08       		.byte	0x8
 1298 0736 F3       		.byte	0xf3
 1299 0737 05010000 		.4byte	0x105
 1300 073b 15       		.uleb128 0x15
 1301 073c DB050000 		.4byte	.LASF102
 1302 0740 08       		.byte	0x8
 1303 0741 FC       		.byte	0xfc
 1304 0742 8A070000 		.4byte	0x78a
 1305 0746 16       		.uleb128 0x16
 1306 0747 18000000 		.4byte	.LASF103
 1307 074b 08       		.byte	0x8
 1308 074c 0501     		.2byte	0x105
 1309 074e C1070000 		.4byte	0x7c1
 1310 0752 16       		.uleb128 0x16
 1311 0753 FA000000 		.4byte	.LASF104
 1312 0757 08       		.byte	0x8
 1313 0758 0D01     		.2byte	0x10d
 1314 075a 10010000 		.4byte	0x110
 1315 075e 00       		.byte	0
 1316 075f 0A       		.uleb128 0xa
 1317 0760 04       		.byte	0x4
 1318 0761 1A020000 		.4byte	0x21a
 1319 0765 05       		.uleb128 0x5
 1320 0766 80010000 		.4byte	.LASF105
 1321 076a 0C       		.byte	0xc
 1322 076b 0D       		.byte	0xd
 1323 076c 34       		.byte	0x34
 1324 076d 8A070000 		.4byte	0x78a
 1325 0771 06       		.uleb128 0x6
 1326 0772 1B050000 		.4byte	.LASF28
 1327 0776 0D       		.byte	0xd
 1328 0777 35       		.byte	0x35
 1329 0778 4F020000 		.4byte	0x24f
 1330 077c 00       		.byte	0
 1331 077d 07       		.uleb128 0x7
 1332 077e 636E7400 		.ascii	"cnt\000"
 1333 0782 0D       		.byte	0xd
 1334 0783 37       		.byte	0x37
 1335 0784 1B010000 		.4byte	0x11b
 1336 0788 08       		.byte	0x8
 1337 0789 00       		.byte	0
 1338 078a 0A       		.uleb128 0xa
 1339 078b 04       		.byte	0x4
 1340 078c 65070000 		.4byte	0x765
ARM GAS  /tmp/ccbsOoKd.s 			page 38


 1341 0790 05       		.uleb128 0x5
 1342 0791 69020000 		.4byte	.LASF106
 1343 0795 10       		.byte	0x10
 1344 0796 0E       		.byte	0xe
 1345 0797 39       		.byte	0x39
 1346 0798 C1070000 		.4byte	0x7c1
 1347 079c 06       		.uleb128 0x6
 1348 079d 1B050000 		.4byte	.LASF28
 1349 07a1 0E       		.byte	0xe
 1350 07a2 3A       		.byte	0x3a
 1351 07a3 4F020000 		.4byte	0x24f
 1352 07a7 00       		.byte	0
 1353 07a8 06       		.uleb128 0x6
 1354 07a9 E0010000 		.4byte	.LASF107
 1355 07ad 0E       		.byte	0xe
 1356 07ae 3C       		.byte	0x3c
 1357 07af 25020000 		.4byte	0x225
 1358 07b3 08       		.byte	0x8
 1359 07b4 06       		.uleb128 0x6
 1360 07b5 87000000 		.4byte	.LASF47
 1361 07b9 0E       		.byte	0xe
 1362 07ba 3E       		.byte	0x3e
 1363 07bb F5070000 		.4byte	0x7f5
 1364 07bf 0C       		.byte	0xc
 1365 07c0 00       		.byte	0
 1366 07c1 0A       		.uleb128 0xa
 1367 07c2 04       		.byte	0x4
 1368 07c3 90070000 		.4byte	0x790
 1369 07c7 0A       		.uleb128 0xa
 1370 07c8 04       		.byte	0x4
 1371 07c9 CD070000 		.4byte	0x7cd
 1372 07cd 17       		.uleb128 0x17
 1373 07ce D2070000 		.4byte	0x7d2
 1374 07d2 03       		.uleb128 0x3
 1375 07d3 01       		.byte	0x1
 1376 07d4 08       		.byte	0x8
 1377 07d5 95020000 		.4byte	.LASF108
 1378 07d9 0A       		.uleb128 0xa
 1379 07da 04       		.byte	0x4
 1380 07db 35050000 		.4byte	0x535
 1381 07df 0A       		.uleb128 0xa
 1382 07e0 04       		.byte	0x4
 1383 07e1 04030000 		.4byte	0x304
 1384 07e5 0F       		.uleb128 0xf
 1385 07e6 C7070000 		.4byte	0x7c7
 1386 07ea 04       		.uleb128 0x4
 1387 07eb 29050000 		.4byte	.LASF109
 1388 07ef 0E       		.byte	0xe
 1389 07f0 34       		.byte	0x34
 1390 07f1 90070000 		.4byte	0x790
 1391 07f5 0A       		.uleb128 0xa
 1392 07f6 04       		.byte	0x4
 1393 07f7 EA070000 		.4byte	0x7ea
 1394 07fb 03       		.uleb128 0x3
 1395 07fc 01       		.byte	0x1
 1396 07fd 02       		.byte	0x2
 1397 07fe D9030000 		.4byte	.LASF110
ARM GAS  /tmp/ccbsOoKd.s 			page 39


 1398 0802 18       		.uleb128 0x18
 1399 0803 90040000 		.4byte	.LASF128
 1400 0807 02       		.byte	0x2
 1401 0808 0601     		.2byte	0x106
 1402 080a 03       		.byte	0x3
 1403 080b 1C080000 		.4byte	0x81c
 1404 080f 19       		.uleb128 0x19
 1405 0810 F6010000 		.4byte	.LASF129
 1406 0814 02       		.byte	0x2
 1407 0815 0601     		.2byte	0x106
 1408 0817 C3000000 		.4byte	0xc3
 1409 081b 00       		.byte	0
 1410 081c 1A       		.uleb128 0x1a
 1411 081d B6000000 		.4byte	.LASF111
 1412 0821 0B       		.byte	0xb
 1413 0822 5202     		.2byte	0x252
 1414 0824 03       		.byte	0x3
 1415 0825 1A       		.uleb128 0x1a
 1416 0826 20060000 		.4byte	.LASF112
 1417 082a 0B       		.byte	0xb
 1418 082b 6A02     		.2byte	0x26a
 1419 082d 03       		.byte	0x3
 1420 082e 1A       		.uleb128 0x1a
 1421 082f D4000000 		.4byte	.LASF113
 1422 0833 0B       		.byte	0xb
 1423 0834 7902     		.2byte	0x279
 1424 0836 03       		.byte	0x3
 1425 0837 1A       		.uleb128 0x1a
 1426 0838 37050000 		.4byte	.LASF114
 1427 083c 0B       		.byte	0xb
 1428 083d 8402     		.2byte	0x284
 1429 083f 03       		.byte	0x3
 1430 0840 1A       		.uleb128 0x1a
 1431 0841 17010000 		.4byte	.LASF115
 1432 0845 0F       		.byte	0xf
 1433 0846 9E01     		.2byte	0x19e
 1434 0848 03       		.byte	0x3
 1435 0849 1A       		.uleb128 0x1a
 1436 084a 24020000 		.4byte	.LASF116
 1437 084e 0F       		.byte	0xf
 1438 084f B201     		.2byte	0x1b2
 1439 0851 03       		.byte	0x3
 1440 0852 1A       		.uleb128 0x1a
 1441 0853 3E020000 		.4byte	.LASF117
 1442 0857 03       		.byte	0x3
 1443 0858 0102     		.2byte	0x201
 1444 085a 03       		.byte	0x3
 1445 085b 1A       		.uleb128 0x1a
 1446 085c 1F000000 		.4byte	.LASF118
 1447 0860 03       		.byte	0x3
 1448 0861 4702     		.2byte	0x247
 1449 0863 03       		.byte	0x3
 1450 0864 1A       		.uleb128 0x1a
 1451 0865 C7040000 		.4byte	.LASF119
 1452 0869 03       		.byte	0x3
 1453 086a 0C02     		.2byte	0x20c
 1454 086c 03       		.byte	0x3
ARM GAS  /tmp/ccbsOoKd.s 			page 40


 1455 086d 1B       		.uleb128 0x1b
 1456 086e 3C010000 		.4byte	.LASF120
 1457 0872 01       		.byte	0x1
 1458 0873 EF       		.byte	0xef
 1459 0874 00000000 		.4byte	.LFB219
 1460 0878 28000000 		.4byte	.LFE219-.LFB219
 1461 087c 01       		.uleb128 0x1
 1462 087d 9C       		.byte	0x9c
 1463 087e 6B090000 		.4byte	0x96b
 1464 0882 1C       		.uleb128 0x1c
 1465 0883 52080000 		.4byte	0x852
 1466 0887 10000000 		.4byte	.LBB52
 1467 088b 06000000 		.4byte	.LBE52-.LBB52
 1468 088f 01       		.byte	0x1
 1469 0890 F9       		.byte	0xf9
 1470 0891 E3080000 		.4byte	0x8e3
 1471 0895 1D       		.uleb128 0x1d
 1472 0896 40080000 		.4byte	0x840
 1473 089a 10000000 		.4byte	.LBB53
 1474 089e 06000000 		.4byte	.LBE53-.LBB53
 1475 08a2 03       		.byte	0x3
 1476 08a3 0302     		.2byte	0x203
 1477 08a5 1D       		.uleb128 0x1d
 1478 08a6 2E080000 		.4byte	0x82e
 1479 08aa 10000000 		.4byte	.LBB54
 1480 08ae 06000000 		.4byte	.LBE54-.LBB54
 1481 08b2 0F       		.byte	0xf
 1482 08b3 A001     		.2byte	0x1a0
 1483 08b5 1D       		.uleb128 0x1d
 1484 08b6 1C080000 		.4byte	0x81c
 1485 08ba 10000000 		.4byte	.LBB55
 1486 08be 06000000 		.4byte	.LBE55-.LBB55
 1487 08c2 0B       		.byte	0xb
 1488 08c3 7B02     		.2byte	0x27b
 1489 08c5 1D       		.uleb128 0x1d
 1490 08c6 02080000 		.4byte	0x802
 1491 08ca 10000000 		.4byte	.LBB56
 1492 08ce 06000000 		.4byte	.LBE56-.LBB56
 1493 08d2 0B       		.byte	0xb
 1494 08d3 5A02     		.2byte	0x25a
 1495 08d5 1E       		.uleb128 0x1e
 1496 08d6 0F080000 		.4byte	0x80f
 1497 08da 00000000 		.4byte	.LLST0
 1498 08de 00       		.byte	0
 1499 08df 00       		.byte	0
 1500 08e0 00       		.byte	0
 1501 08e1 00       		.byte	0
 1502 08e2 00       		.byte	0
 1503 08e3 1C       		.uleb128 0x1c
 1504 08e4 5B080000 		.4byte	0x85b
 1505 08e8 16000000 		.4byte	.LBB58
 1506 08ec 04000000 		.4byte	.LBE58-.LBB58
 1507 08f0 01       		.byte	0x1
 1508 08f1 FA       		.byte	0xfa
 1509 08f2 00090000 		.4byte	0x900
 1510 08f6 1F       		.uleb128 0x1f
 1511 08f7 1A000000 		.4byte	.LVL1
ARM GAS  /tmp/ccbsOoKd.s 			page 41


 1512 08fb B2090000 		.4byte	0x9b2
 1513 08ff 00       		.byte	0
 1514 0900 1C       		.uleb128 0x1c
 1515 0901 64080000 		.4byte	0x864
 1516 0905 1A000000 		.4byte	.LBB60
 1517 0909 06000000 		.4byte	.LBE60-.LBB60
 1518 090d 01       		.byte	0x1
 1519 090e FB       		.byte	0xfb
 1520 090f 61090000 		.4byte	0x961
 1521 0913 1D       		.uleb128 0x1d
 1522 0914 49080000 		.4byte	0x849
 1523 0918 1A000000 		.4byte	.LBB61
 1524 091c 06000000 		.4byte	.LBE61-.LBB61
 1525 0920 03       		.byte	0x3
 1526 0921 0E02     		.2byte	0x20e
 1527 0923 1D       		.uleb128 0x1d
 1528 0924 37080000 		.4byte	0x837
 1529 0928 1A000000 		.4byte	.LBB62
 1530 092c 06000000 		.4byte	.LBE62-.LBB62
 1531 0930 0F       		.byte	0xf
 1532 0931 B601     		.2byte	0x1b6
 1533 0933 1D       		.uleb128 0x1d
 1534 0934 25080000 		.4byte	0x825
 1535 0938 1A000000 		.4byte	.LBB63
 1536 093c 06000000 		.4byte	.LBE63-.LBB63
 1537 0940 0B       		.byte	0xb
 1538 0941 8602     		.2byte	0x286
 1539 0943 1D       		.uleb128 0x1d
 1540 0944 02080000 		.4byte	0x802
 1541 0948 1A000000 		.4byte	.LBB64
 1542 094c 06000000 		.4byte	.LBE64-.LBB64
 1543 0950 0B       		.byte	0xb
 1544 0951 6D02     		.2byte	0x26d
 1545 0953 1E       		.uleb128 0x1e
 1546 0954 0F080000 		.4byte	0x80f
 1547 0958 15000000 		.4byte	.LLST1
 1548 095c 00       		.byte	0
 1549 095d 00       		.byte	0
 1550 095e 00       		.byte	0
 1551 095f 00       		.byte	0
 1552 0960 00       		.byte	0
 1553 0961 20       		.uleb128 0x20
 1554 0962 28000000 		.4byte	.LVL3
 1555 0966 BA090000 		.4byte	0x9ba
 1556 096a 00       		.byte	0
 1557 096b 21       		.uleb128 0x21
 1558 096c 9E040000 		.4byte	.LASF121
 1559 0970 01       		.byte	0x1
 1560 0971 0B01     		.2byte	0x10b
 1561 0973 00000000 		.4byte	.LFB220
 1562 0977 4C000000 		.4byte	.LFE220-.LFB220
 1563 097b 01       		.uleb128 0x1
 1564 097c 9C       		.byte	0x9c
 1565 097d 96090000 		.4byte	0x996
 1566 0981 22       		.uleb128 0x22
 1567 0982 4C000000 		.4byte	.LVL4
 1568 0986 C2090000 		.4byte	0x9c2
ARM GAS  /tmp/ccbsOoKd.s 			page 42


 1569 098a 23       		.uleb128 0x23
 1570 098b 01       		.uleb128 0x1
 1571 098c 51       		.byte	0x51
 1572 098d 01       		.uleb128 0x1
 1573 098e 38       		.byte	0x38
 1574 098f 23       		.uleb128 0x23
 1575 0990 01       		.uleb128 0x1
 1576 0991 50       		.byte	0x50
 1577 0992 01       		.uleb128 0x1
 1578 0993 4C       		.byte	0x4c
 1579 0994 00       		.byte	0
 1580 0995 00       		.byte	0
 1581 0996 24       		.uleb128 0x24
 1582 0997 79040000 		.4byte	.LASF122
 1583 099b 10       		.byte	0x10
 1584 099c 9606     		.2byte	0x696
 1585 099e A2090000 		.4byte	0x9a2
 1586 09a2 0F       		.uleb128 0xf
 1587 09a3 B8000000 		.4byte	0xb8
 1588 09a7 25       		.uleb128 0x25
 1589 09a8 636800   		.ascii	"ch\000"
 1590 09ab 08       		.byte	0x8
 1591 09ac D201     		.2byte	0x1d2
 1592 09ae D1030000 		.4byte	0x3d1
 1593 09b2 26       		.uleb128 0x26
 1594 09b3 33000000 		.4byte	.LASF123
 1595 09b7 0F       		.byte	0xf
 1596 09b8 3401     		.2byte	0x134
 1597 09ba 26       		.uleb128 0x26
 1598 09bb B6050000 		.4byte	.LASF124
 1599 09bf 0B       		.byte	0xb
 1600 09c0 EA01     		.2byte	0x1ea
 1601 09c2 27       		.uleb128 0x27
 1602 09c3 3A040000 		.4byte	.LASF130
 1603 09c7 11       		.byte	0x11
 1604 09c8 4E       		.byte	0x4e
 1605 09c9 0D       		.uleb128 0xd
 1606 09ca C3000000 		.4byte	0xc3
 1607 09ce 0D       		.uleb128 0xd
 1608 09cf C3000000 		.4byte	0xc3
 1609 09d3 00       		.byte	0
 1610 09d4 00       		.byte	0
 1611              		.section	.debug_abbrev,"",%progbits
 1612              	.Ldebug_abbrev0:
 1613 0000 01       		.uleb128 0x1
 1614 0001 11       		.uleb128 0x11
 1615 0002 01       		.byte	0x1
 1616 0003 25       		.uleb128 0x25
 1617 0004 0E       		.uleb128 0xe
 1618 0005 13       		.uleb128 0x13
 1619 0006 0B       		.uleb128 0xb
 1620 0007 03       		.uleb128 0x3
 1621 0008 0E       		.uleb128 0xe
 1622 0009 1B       		.uleb128 0x1b
 1623 000a 0E       		.uleb128 0xe
 1624 000b 55       		.uleb128 0x55
 1625 000c 17       		.uleb128 0x17
ARM GAS  /tmp/ccbsOoKd.s 			page 43


 1626 000d 11       		.uleb128 0x11
 1627 000e 01       		.uleb128 0x1
 1628 000f 10       		.uleb128 0x10
 1629 0010 17       		.uleb128 0x17
 1630 0011 00       		.byte	0
 1631 0012 00       		.byte	0
 1632 0013 02       		.uleb128 0x2
 1633 0014 24       		.uleb128 0x24
 1634 0015 00       		.byte	0
 1635 0016 0B       		.uleb128 0xb
 1636 0017 0B       		.uleb128 0xb
 1637 0018 3E       		.uleb128 0x3e
 1638 0019 0B       		.uleb128 0xb
 1639 001a 03       		.uleb128 0x3
 1640 001b 08       		.uleb128 0x8
 1641 001c 00       		.byte	0
 1642 001d 00       		.byte	0
 1643 001e 03       		.uleb128 0x3
 1644 001f 24       		.uleb128 0x24
 1645 0020 00       		.byte	0
 1646 0021 0B       		.uleb128 0xb
 1647 0022 0B       		.uleb128 0xb
 1648 0023 3E       		.uleb128 0x3e
 1649 0024 0B       		.uleb128 0xb
 1650 0025 03       		.uleb128 0x3
 1651 0026 0E       		.uleb128 0xe
 1652 0027 00       		.byte	0
 1653 0028 00       		.byte	0
 1654 0029 04       		.uleb128 0x4
 1655 002a 16       		.uleb128 0x16
 1656 002b 00       		.byte	0
 1657 002c 03       		.uleb128 0x3
 1658 002d 0E       		.uleb128 0xe
 1659 002e 3A       		.uleb128 0x3a
 1660 002f 0B       		.uleb128 0xb
 1661 0030 3B       		.uleb128 0x3b
 1662 0031 0B       		.uleb128 0xb
 1663 0032 49       		.uleb128 0x49
 1664 0033 13       		.uleb128 0x13
 1665 0034 00       		.byte	0
 1666 0035 00       		.byte	0
 1667 0036 05       		.uleb128 0x5
 1668 0037 13       		.uleb128 0x13
 1669 0038 01       		.byte	0x1
 1670 0039 03       		.uleb128 0x3
 1671 003a 0E       		.uleb128 0xe
 1672 003b 0B       		.uleb128 0xb
 1673 003c 0B       		.uleb128 0xb
 1674 003d 3A       		.uleb128 0x3a
 1675 003e 0B       		.uleb128 0xb
 1676 003f 3B       		.uleb128 0x3b
 1677 0040 0B       		.uleb128 0xb
 1678 0041 01       		.uleb128 0x1
 1679 0042 13       		.uleb128 0x13
 1680 0043 00       		.byte	0
 1681 0044 00       		.byte	0
 1682 0045 06       		.uleb128 0x6
ARM GAS  /tmp/ccbsOoKd.s 			page 44


 1683 0046 0D       		.uleb128 0xd
 1684 0047 00       		.byte	0
 1685 0048 03       		.uleb128 0x3
 1686 0049 0E       		.uleb128 0xe
 1687 004a 3A       		.uleb128 0x3a
 1688 004b 0B       		.uleb128 0xb
 1689 004c 3B       		.uleb128 0x3b
 1690 004d 0B       		.uleb128 0xb
 1691 004e 49       		.uleb128 0x49
 1692 004f 13       		.uleb128 0x13
 1693 0050 38       		.uleb128 0x38
 1694 0051 0B       		.uleb128 0xb
 1695 0052 00       		.byte	0
 1696 0053 00       		.byte	0
 1697 0054 07       		.uleb128 0x7
 1698 0055 0D       		.uleb128 0xd
 1699 0056 00       		.byte	0
 1700 0057 03       		.uleb128 0x3
 1701 0058 08       		.uleb128 0x8
 1702 0059 3A       		.uleb128 0x3a
 1703 005a 0B       		.uleb128 0xb
 1704 005b 3B       		.uleb128 0x3b
 1705 005c 0B       		.uleb128 0xb
 1706 005d 49       		.uleb128 0x49
 1707 005e 13       		.uleb128 0x13
 1708 005f 38       		.uleb128 0x38
 1709 0060 0B       		.uleb128 0xb
 1710 0061 00       		.byte	0
 1711 0062 00       		.byte	0
 1712 0063 08       		.uleb128 0x8
 1713 0064 0D       		.uleb128 0xd
 1714 0065 00       		.byte	0
 1715 0066 03       		.uleb128 0x3
 1716 0067 08       		.uleb128 0x8
 1717 0068 3A       		.uleb128 0x3a
 1718 0069 0B       		.uleb128 0xb
 1719 006a 3B       		.uleb128 0x3b
 1720 006b 05       		.uleb128 0x5
 1721 006c 49       		.uleb128 0x49
 1722 006d 13       		.uleb128 0x13
 1723 006e 38       		.uleb128 0x38
 1724 006f 0B       		.uleb128 0xb
 1725 0070 00       		.byte	0
 1726 0071 00       		.byte	0
 1727 0072 09       		.uleb128 0x9
 1728 0073 0D       		.uleb128 0xd
 1729 0074 00       		.byte	0
 1730 0075 03       		.uleb128 0x3
 1731 0076 0E       		.uleb128 0xe
 1732 0077 3A       		.uleb128 0x3a
 1733 0078 0B       		.uleb128 0xb
 1734 0079 3B       		.uleb128 0x3b
 1735 007a 05       		.uleb128 0x5
 1736 007b 49       		.uleb128 0x49
 1737 007c 13       		.uleb128 0x13
 1738 007d 38       		.uleb128 0x38
 1739 007e 0B       		.uleb128 0xb
ARM GAS  /tmp/ccbsOoKd.s 			page 45


 1740 007f 00       		.byte	0
 1741 0080 00       		.byte	0
 1742 0081 0A       		.uleb128 0xa
 1743 0082 0F       		.uleb128 0xf
 1744 0083 00       		.byte	0
 1745 0084 0B       		.uleb128 0xb
 1746 0085 0B       		.uleb128 0xb
 1747 0086 49       		.uleb128 0x49
 1748 0087 13       		.uleb128 0x13
 1749 0088 00       		.byte	0
 1750 0089 00       		.byte	0
 1751 008a 0B       		.uleb128 0xb
 1752 008b 13       		.uleb128 0x13
 1753 008c 01       		.byte	0x1
 1754 008d 03       		.uleb128 0x3
 1755 008e 0E       		.uleb128 0xe
 1756 008f 0B       		.uleb128 0xb
 1757 0090 0B       		.uleb128 0xb
 1758 0091 3A       		.uleb128 0x3a
 1759 0092 0B       		.uleb128 0xb
 1760 0093 3B       		.uleb128 0x3b
 1761 0094 05       		.uleb128 0x5
 1762 0095 01       		.uleb128 0x1
 1763 0096 13       		.uleb128 0x13
 1764 0097 00       		.byte	0
 1765 0098 00       		.byte	0
 1766 0099 0C       		.uleb128 0xc
 1767 009a 15       		.uleb128 0x15
 1768 009b 01       		.byte	0x1
 1769 009c 27       		.uleb128 0x27
 1770 009d 19       		.uleb128 0x19
 1771 009e 01       		.uleb128 0x1
 1772 009f 13       		.uleb128 0x13
 1773 00a0 00       		.byte	0
 1774 00a1 00       		.byte	0
 1775 00a2 0D       		.uleb128 0xd
 1776 00a3 05       		.uleb128 0x5
 1777 00a4 00       		.byte	0
 1778 00a5 49       		.uleb128 0x49
 1779 00a6 13       		.uleb128 0x13
 1780 00a7 00       		.byte	0
 1781 00a8 00       		.byte	0
 1782 00a9 0E       		.uleb128 0xe
 1783 00aa 0F       		.uleb128 0xf
 1784 00ab 00       		.byte	0
 1785 00ac 0B       		.uleb128 0xb
 1786 00ad 0B       		.uleb128 0xb
 1787 00ae 00       		.byte	0
 1788 00af 00       		.byte	0
 1789 00b0 0F       		.uleb128 0xf
 1790 00b1 35       		.uleb128 0x35
 1791 00b2 00       		.byte	0
 1792 00b3 49       		.uleb128 0x49
 1793 00b4 13       		.uleb128 0x13
 1794 00b5 00       		.byte	0
 1795 00b6 00       		.byte	0
 1796 00b7 10       		.uleb128 0x10
ARM GAS  /tmp/ccbsOoKd.s 			page 46


 1797 00b8 01       		.uleb128 0x1
 1798 00b9 01       		.byte	0x1
 1799 00ba 49       		.uleb128 0x49
 1800 00bb 13       		.uleb128 0x13
 1801 00bc 01       		.uleb128 0x1
 1802 00bd 13       		.uleb128 0x13
 1803 00be 00       		.byte	0
 1804 00bf 00       		.byte	0
 1805 00c0 11       		.uleb128 0x11
 1806 00c1 21       		.uleb128 0x21
 1807 00c2 00       		.byte	0
 1808 00c3 49       		.uleb128 0x49
 1809 00c4 13       		.uleb128 0x13
 1810 00c5 2F       		.uleb128 0x2f
 1811 00c6 0B       		.uleb128 0xb
 1812 00c7 00       		.byte	0
 1813 00c8 00       		.byte	0
 1814 00c9 12       		.uleb128 0x12
 1815 00ca 13       		.uleb128 0x13
 1816 00cb 01       		.byte	0x1
 1817 00cc 0B       		.uleb128 0xb
 1818 00cd 0B       		.uleb128 0xb
 1819 00ce 3A       		.uleb128 0x3a
 1820 00cf 0B       		.uleb128 0xb
 1821 00d0 3B       		.uleb128 0x3b
 1822 00d1 05       		.uleb128 0x5
 1823 00d2 01       		.uleb128 0x1
 1824 00d3 13       		.uleb128 0x13
 1825 00d4 00       		.byte	0
 1826 00d5 00       		.byte	0
 1827 00d6 13       		.uleb128 0x13
 1828 00d7 16       		.uleb128 0x16
 1829 00d8 00       		.byte	0
 1830 00d9 03       		.uleb128 0x3
 1831 00da 0E       		.uleb128 0xe
 1832 00db 3A       		.uleb128 0x3a
 1833 00dc 0B       		.uleb128 0xb
 1834 00dd 3B       		.uleb128 0x3b
 1835 00de 05       		.uleb128 0x5
 1836 00df 49       		.uleb128 0x49
 1837 00e0 13       		.uleb128 0x13
 1838 00e1 00       		.byte	0
 1839 00e2 00       		.byte	0
 1840 00e3 14       		.uleb128 0x14
 1841 00e4 17       		.uleb128 0x17
 1842 00e5 01       		.byte	0x1
 1843 00e6 0B       		.uleb128 0xb
 1844 00e7 0B       		.uleb128 0xb
 1845 00e8 3A       		.uleb128 0x3a
 1846 00e9 0B       		.uleb128 0xb
 1847 00ea 3B       		.uleb128 0x3b
 1848 00eb 0B       		.uleb128 0xb
 1849 00ec 01       		.uleb128 0x1
 1850 00ed 13       		.uleb128 0x13
 1851 00ee 00       		.byte	0
 1852 00ef 00       		.byte	0
 1853 00f0 15       		.uleb128 0x15
ARM GAS  /tmp/ccbsOoKd.s 			page 47


 1854 00f1 0D       		.uleb128 0xd
 1855 00f2 00       		.byte	0
 1856 00f3 03       		.uleb128 0x3
 1857 00f4 0E       		.uleb128 0xe
 1858 00f5 3A       		.uleb128 0x3a
 1859 00f6 0B       		.uleb128 0xb
 1860 00f7 3B       		.uleb128 0x3b
 1861 00f8 0B       		.uleb128 0xb
 1862 00f9 49       		.uleb128 0x49
 1863 00fa 13       		.uleb128 0x13
 1864 00fb 00       		.byte	0
 1865 00fc 00       		.byte	0
 1866 00fd 16       		.uleb128 0x16
 1867 00fe 0D       		.uleb128 0xd
 1868 00ff 00       		.byte	0
 1869 0100 03       		.uleb128 0x3
 1870 0101 0E       		.uleb128 0xe
 1871 0102 3A       		.uleb128 0x3a
 1872 0103 0B       		.uleb128 0xb
 1873 0104 3B       		.uleb128 0x3b
 1874 0105 05       		.uleb128 0x5
 1875 0106 49       		.uleb128 0x49
 1876 0107 13       		.uleb128 0x13
 1877 0108 00       		.byte	0
 1878 0109 00       		.byte	0
 1879 010a 17       		.uleb128 0x17
 1880 010b 26       		.uleb128 0x26
 1881 010c 00       		.byte	0
 1882 010d 49       		.uleb128 0x49
 1883 010e 13       		.uleb128 0x13
 1884 010f 00       		.byte	0
 1885 0110 00       		.byte	0
 1886 0111 18       		.uleb128 0x18
 1887 0112 2E       		.uleb128 0x2e
 1888 0113 01       		.byte	0x1
 1889 0114 03       		.uleb128 0x3
 1890 0115 0E       		.uleb128 0xe
 1891 0116 3A       		.uleb128 0x3a
 1892 0117 0B       		.uleb128 0xb
 1893 0118 3B       		.uleb128 0x3b
 1894 0119 05       		.uleb128 0x5
 1895 011a 27       		.uleb128 0x27
 1896 011b 19       		.uleb128 0x19
 1897 011c 20       		.uleb128 0x20
 1898 011d 0B       		.uleb128 0xb
 1899 011e 01       		.uleb128 0x1
 1900 011f 13       		.uleb128 0x13
 1901 0120 00       		.byte	0
 1902 0121 00       		.byte	0
 1903 0122 19       		.uleb128 0x19
 1904 0123 05       		.uleb128 0x5
 1905 0124 00       		.byte	0
 1906 0125 03       		.uleb128 0x3
 1907 0126 0E       		.uleb128 0xe
 1908 0127 3A       		.uleb128 0x3a
 1909 0128 0B       		.uleb128 0xb
 1910 0129 3B       		.uleb128 0x3b
ARM GAS  /tmp/ccbsOoKd.s 			page 48


 1911 012a 05       		.uleb128 0x5
 1912 012b 49       		.uleb128 0x49
 1913 012c 13       		.uleb128 0x13
 1914 012d 00       		.byte	0
 1915 012e 00       		.byte	0
 1916 012f 1A       		.uleb128 0x1a
 1917 0130 2E       		.uleb128 0x2e
 1918 0131 00       		.byte	0
 1919 0132 03       		.uleb128 0x3
 1920 0133 0E       		.uleb128 0xe
 1921 0134 3A       		.uleb128 0x3a
 1922 0135 0B       		.uleb128 0xb
 1923 0136 3B       		.uleb128 0x3b
 1924 0137 05       		.uleb128 0x5
 1925 0138 27       		.uleb128 0x27
 1926 0139 19       		.uleb128 0x19
 1927 013a 20       		.uleb128 0x20
 1928 013b 0B       		.uleb128 0xb
 1929 013c 00       		.byte	0
 1930 013d 00       		.byte	0
 1931 013e 1B       		.uleb128 0x1b
 1932 013f 2E       		.uleb128 0x2e
 1933 0140 01       		.byte	0x1
 1934 0141 3F       		.uleb128 0x3f
 1935 0142 19       		.uleb128 0x19
 1936 0143 03       		.uleb128 0x3
 1937 0144 0E       		.uleb128 0xe
 1938 0145 3A       		.uleb128 0x3a
 1939 0146 0B       		.uleb128 0xb
 1940 0147 3B       		.uleb128 0x3b
 1941 0148 0B       		.uleb128 0xb
 1942 0149 27       		.uleb128 0x27
 1943 014a 19       		.uleb128 0x19
 1944 014b 11       		.uleb128 0x11
 1945 014c 01       		.uleb128 0x1
 1946 014d 12       		.uleb128 0x12
 1947 014e 06       		.uleb128 0x6
 1948 014f 40       		.uleb128 0x40
 1949 0150 18       		.uleb128 0x18
 1950 0151 9742     		.uleb128 0x2117
 1951 0153 19       		.uleb128 0x19
 1952 0154 01       		.uleb128 0x1
 1953 0155 13       		.uleb128 0x13
 1954 0156 00       		.byte	0
 1955 0157 00       		.byte	0
 1956 0158 1C       		.uleb128 0x1c
 1957 0159 1D       		.uleb128 0x1d
 1958 015a 01       		.byte	0x1
 1959 015b 31       		.uleb128 0x31
 1960 015c 13       		.uleb128 0x13
 1961 015d 11       		.uleb128 0x11
 1962 015e 01       		.uleb128 0x1
 1963 015f 12       		.uleb128 0x12
 1964 0160 06       		.uleb128 0x6
 1965 0161 58       		.uleb128 0x58
 1966 0162 0B       		.uleb128 0xb
 1967 0163 59       		.uleb128 0x59
ARM GAS  /tmp/ccbsOoKd.s 			page 49


 1968 0164 0B       		.uleb128 0xb
 1969 0165 01       		.uleb128 0x1
 1970 0166 13       		.uleb128 0x13
 1971 0167 00       		.byte	0
 1972 0168 00       		.byte	0
 1973 0169 1D       		.uleb128 0x1d
 1974 016a 1D       		.uleb128 0x1d
 1975 016b 01       		.byte	0x1
 1976 016c 31       		.uleb128 0x31
 1977 016d 13       		.uleb128 0x13
 1978 016e 11       		.uleb128 0x11
 1979 016f 01       		.uleb128 0x1
 1980 0170 12       		.uleb128 0x12
 1981 0171 06       		.uleb128 0x6
 1982 0172 58       		.uleb128 0x58
 1983 0173 0B       		.uleb128 0xb
 1984 0174 59       		.uleb128 0x59
 1985 0175 05       		.uleb128 0x5
 1986 0176 00       		.byte	0
 1987 0177 00       		.byte	0
 1988 0178 1E       		.uleb128 0x1e
 1989 0179 05       		.uleb128 0x5
 1990 017a 00       		.byte	0
 1991 017b 31       		.uleb128 0x31
 1992 017c 13       		.uleb128 0x13
 1993 017d 02       		.uleb128 0x2
 1994 017e 17       		.uleb128 0x17
 1995 017f 00       		.byte	0
 1996 0180 00       		.byte	0
 1997 0181 1F       		.uleb128 0x1f
 1998 0182 898201   		.uleb128 0x4109
 1999 0185 00       		.byte	0
 2000 0186 11       		.uleb128 0x11
 2001 0187 01       		.uleb128 0x1
 2002 0188 31       		.uleb128 0x31
 2003 0189 13       		.uleb128 0x13
 2004 018a 00       		.byte	0
 2005 018b 00       		.byte	0
 2006 018c 20       		.uleb128 0x20
 2007 018d 898201   		.uleb128 0x4109
 2008 0190 00       		.byte	0
 2009 0191 11       		.uleb128 0x11
 2010 0192 01       		.uleb128 0x1
 2011 0193 9542     		.uleb128 0x2115
 2012 0195 19       		.uleb128 0x19
 2013 0196 31       		.uleb128 0x31
 2014 0197 13       		.uleb128 0x13
 2015 0198 00       		.byte	0
 2016 0199 00       		.byte	0
 2017 019a 21       		.uleb128 0x21
 2018 019b 2E       		.uleb128 0x2e
 2019 019c 01       		.byte	0x1
 2020 019d 3F       		.uleb128 0x3f
 2021 019e 19       		.uleb128 0x19
 2022 019f 03       		.uleb128 0x3
 2023 01a0 0E       		.uleb128 0xe
 2024 01a1 3A       		.uleb128 0x3a
ARM GAS  /tmp/ccbsOoKd.s 			page 50


 2025 01a2 0B       		.uleb128 0xb
 2026 01a3 3B       		.uleb128 0x3b
 2027 01a4 05       		.uleb128 0x5
 2028 01a5 27       		.uleb128 0x27
 2029 01a6 19       		.uleb128 0x19
 2030 01a7 11       		.uleb128 0x11
 2031 01a8 01       		.uleb128 0x1
 2032 01a9 12       		.uleb128 0x12
 2033 01aa 06       		.uleb128 0x6
 2034 01ab 40       		.uleb128 0x40
 2035 01ac 18       		.uleb128 0x18
 2036 01ad 9742     		.uleb128 0x2117
 2037 01af 19       		.uleb128 0x19
 2038 01b0 01       		.uleb128 0x1
 2039 01b1 13       		.uleb128 0x13
 2040 01b2 00       		.byte	0
 2041 01b3 00       		.byte	0
 2042 01b4 22       		.uleb128 0x22
 2043 01b5 898201   		.uleb128 0x4109
 2044 01b8 01       		.byte	0x1
 2045 01b9 11       		.uleb128 0x11
 2046 01ba 01       		.uleb128 0x1
 2047 01bb 9542     		.uleb128 0x2115
 2048 01bd 19       		.uleb128 0x19
 2049 01be 31       		.uleb128 0x31
 2050 01bf 13       		.uleb128 0x13
 2051 01c0 00       		.byte	0
 2052 01c1 00       		.byte	0
 2053 01c2 23       		.uleb128 0x23
 2054 01c3 8A8201   		.uleb128 0x410a
 2055 01c6 00       		.byte	0
 2056 01c7 02       		.uleb128 0x2
 2057 01c8 18       		.uleb128 0x18
 2058 01c9 9142     		.uleb128 0x2111
 2059 01cb 18       		.uleb128 0x18
 2060 01cc 00       		.byte	0
 2061 01cd 00       		.byte	0
 2062 01ce 24       		.uleb128 0x24
 2063 01cf 34       		.uleb128 0x34
 2064 01d0 00       		.byte	0
 2065 01d1 03       		.uleb128 0x3
 2066 01d2 0E       		.uleb128 0xe
 2067 01d3 3A       		.uleb128 0x3a
 2068 01d4 0B       		.uleb128 0xb
 2069 01d5 3B       		.uleb128 0x3b
 2070 01d6 05       		.uleb128 0x5
 2071 01d7 49       		.uleb128 0x49
 2072 01d8 13       		.uleb128 0x13
 2073 01d9 3F       		.uleb128 0x3f
 2074 01da 19       		.uleb128 0x19
 2075 01db 3C       		.uleb128 0x3c
 2076 01dc 19       		.uleb128 0x19
 2077 01dd 00       		.byte	0
 2078 01de 00       		.byte	0
 2079 01df 25       		.uleb128 0x25
 2080 01e0 34       		.uleb128 0x34
 2081 01e1 00       		.byte	0
ARM GAS  /tmp/ccbsOoKd.s 			page 51


 2082 01e2 03       		.uleb128 0x3
 2083 01e3 08       		.uleb128 0x8
 2084 01e4 3A       		.uleb128 0x3a
 2085 01e5 0B       		.uleb128 0xb
 2086 01e6 3B       		.uleb128 0x3b
 2087 01e7 05       		.uleb128 0x5
 2088 01e8 49       		.uleb128 0x49
 2089 01e9 13       		.uleb128 0x13
 2090 01ea 3F       		.uleb128 0x3f
 2091 01eb 19       		.uleb128 0x19
 2092 01ec 3C       		.uleb128 0x3c
 2093 01ed 19       		.uleb128 0x19
 2094 01ee 00       		.byte	0
 2095 01ef 00       		.byte	0
 2096 01f0 26       		.uleb128 0x26
 2097 01f1 2E       		.uleb128 0x2e
 2098 01f2 00       		.byte	0
 2099 01f3 3F       		.uleb128 0x3f
 2100 01f4 19       		.uleb128 0x19
 2101 01f5 03       		.uleb128 0x3
 2102 01f6 0E       		.uleb128 0xe
 2103 01f7 3A       		.uleb128 0x3a
 2104 01f8 0B       		.uleb128 0xb
 2105 01f9 3B       		.uleb128 0x3b
 2106 01fa 05       		.uleb128 0x5
 2107 01fb 27       		.uleb128 0x27
 2108 01fc 19       		.uleb128 0x19
 2109 01fd 3C       		.uleb128 0x3c
 2110 01fe 19       		.uleb128 0x19
 2111 01ff 00       		.byte	0
 2112 0200 00       		.byte	0
 2113 0201 27       		.uleb128 0x27
 2114 0202 2E       		.uleb128 0x2e
 2115 0203 01       		.byte	0x1
 2116 0204 3F       		.uleb128 0x3f
 2117 0205 19       		.uleb128 0x19
 2118 0206 03       		.uleb128 0x3
 2119 0207 0E       		.uleb128 0xe
 2120 0208 3A       		.uleb128 0x3a
 2121 0209 0B       		.uleb128 0xb
 2122 020a 3B       		.uleb128 0x3b
 2123 020b 0B       		.uleb128 0xb
 2124 020c 27       		.uleb128 0x27
 2125 020d 19       		.uleb128 0x19
 2126 020e 3C       		.uleb128 0x3c
 2127 020f 19       		.uleb128 0x19
 2128 0210 00       		.byte	0
 2129 0211 00       		.byte	0
 2130 0212 00       		.byte	0
 2131              		.section	.debug_loc,"",%progbits
 2132              	.Ldebug_loc0:
 2133              	.LLST0:
 2134 0000 10000000 		.4byte	.LVL0
 2135 0004 20000000 		.4byte	.LVL2
 2136 0008 0300     		.2byte	0x3
 2137 000a 08       		.byte	0x8
 2138 000b 20       		.byte	0x20
ARM GAS  /tmp/ccbsOoKd.s 			page 52


 2139 000c 9F       		.byte	0x9f
 2140 000d 00000000 		.4byte	0
 2141 0011 00000000 		.4byte	0
 2142              	.LLST1:
 2143 0015 1A000000 		.4byte	.LVL1
 2144 0019 20000000 		.4byte	.LVL2
 2145 001d 0200     		.2byte	0x2
 2146 001f 30       		.byte	0x30
 2147 0020 9F       		.byte	0x9f
 2148 0021 00000000 		.4byte	0
 2149 0025 00000000 		.4byte	0
 2150              		.section	.debug_aranges,"",%progbits
 2151 0000 24000000 		.4byte	0x24
 2152 0004 0200     		.2byte	0x2
 2153 0006 00000000 		.4byte	.Ldebug_info0
 2154 000a 04       		.byte	0x4
 2155 000b 00       		.byte	0
 2156 000c 0000     		.2byte	0
 2157 000e 0000     		.2byte	0
 2158 0010 00000000 		.4byte	.LFB219
 2159 0014 28000000 		.4byte	.LFE219-.LFB219
 2160 0018 00000000 		.4byte	.LFB220
 2161 001c 4C000000 		.4byte	.LFE220-.LFB220
 2162 0020 00000000 		.4byte	0
 2163 0024 00000000 		.4byte	0
 2164              		.section	.debug_ranges,"",%progbits
 2165              	.Ldebug_ranges0:
 2166 0000 00000000 		.4byte	.LFB219
 2167 0004 28000000 		.4byte	.LFE219
 2168 0008 00000000 		.4byte	.LFB220
 2169 000c 4C000000 		.4byte	.LFE220
 2170 0010 00000000 		.4byte	0
 2171 0014 00000000 		.4byte	0
 2172              		.section	.debug_line,"",%progbits
 2173              	.Ldebug_line0:
 2174 0000 A8020000 		.section	.debug_str,"MS",%progbits,1
 2174      02004002 
 2174      00000201 
 2174      FB0E0D00 
 2174      01010101 
 2175              	.LASF46:
 2176 0000 63685F74 		.ascii	"ch_threads_list\000"
 2176      68726561 
 2176      64735F6C 
 2176      69737400 
 2177              	.LASF78:
 2178 0010 41504231 		.ascii	"APB1ENR\000"
 2178      454E5200 
 2179              	.LASF103:
 2180 0018 77746D74 		.ascii	"wtmtxp\000"
 2180      787000
 2181              	.LASF118:
 2182 001f 6F73616C 		.ascii	"osalOsTimerHandlerI\000"
 2182      4F735469 
 2182      6D657248 
 2182      616E646C 
 2182      65724900 
ARM GAS  /tmp/ccbsOoKd.s 			page 53


 2183              	.LASF123:
 2184 0033 63685379 		.ascii	"chSysTimerHandlerI\000"
 2184      7354696D 
 2184      65724861 
 2184      6E646C65 
 2184      724900
 2185              	.LASF83:
 2186 0046 72656761 		.ascii	"regarm_t\000"
 2186      726D5F74 
 2186      00
 2187              	.LASF74:
 2188 004f 41504232 		.ascii	"APB2RSTR\000"
 2188      52535452 
 2188      00
 2189              	.LASF35:
 2190 0058 666C6167 		.ascii	"flags\000"
 2190      7300
 2191              	.LASF26:
 2192 005e 73797374 		.ascii	"systime_t\000"
 2192      696D655F 
 2192      7400
 2193              	.LASF41:
 2194 0068 7265616C 		.ascii	"realprio\000"
 2194      7072696F 
 2194      00
 2195              	.LASF39:
 2196 0071 6570656E 		.ascii	"epending\000"
 2196      64696E67 
 2196      00
 2197              	.LASF0:
 2198 007a 756E7369 		.ascii	"unsigned int\000"
 2198      676E6564 
 2198      20696E74 
 2198      00
 2199              	.LASF47:
 2200 0087 6E657874 		.ascii	"next\000"
 2200      00
 2201              	.LASF44:
 2202 008c 74687265 		.ascii	"threads_list_t\000"
 2202      6164735F 
 2202      6C697374 
 2202      5F7400
 2203              	.LASF79:
 2204 009b 42444352 		.ascii	"BDCR\000"
 2204      00
 2205              	.LASF7:
 2206 00a0 5F5F696E 		.ascii	"__int32_t\000"
 2206      7433325F 
 2206      7400
 2207              	.LASF36:
 2208 00aa 72656673 		.ascii	"refs\000"
 2208      00
 2209              	.LASF99:
 2210 00af 77746F62 		.ascii	"wtobjp\000"
 2210      6A7000
 2211              	.LASF111:
 2212 00b6 706F7274 		.ascii	"port_lock\000"
ARM GAS  /tmp/ccbsOoKd.s 			page 54


 2212      5F6C6F63 
 2212      6B00
 2213              	.LASF68:
 2214 00c0 76746C69 		.ascii	"vtlist\000"
 2214      737400
 2215              	.LASF85:
 2216 00c7 706F7274 		.ascii	"port_context\000"
 2216      5F636F6E 
 2216      74657874 
 2216      00
 2217              	.LASF113:
 2218 00d4 706F7274 		.ascii	"port_lock_from_isr\000"
 2218      5F6C6F63 
 2218      6B5F6672 
 2218      6F6D5F69 
 2218      737200
 2219              	.LASF52:
 2220 00e7 63685F72 		.ascii	"ch_ready_list\000"
 2220      65616479 
 2220      5F6C6973 
 2220      7400
 2221              	.LASF58:
 2222 00f5 66756E63 		.ascii	"func\000"
 2222      00
 2223              	.LASF104:
 2224 00fa 65776D61 		.ascii	"ewmask\000"
 2224      736B00
 2225              	.LASF50:
 2226 0101 70726576 		.ascii	"prev\000"
 2226      00
 2227              	.LASF49:
 2228 0106 63685F74 		.ascii	"ch_threads_queue\000"
 2228      68726561 
 2228      64735F71 
 2228      75657565 
 2228      00
 2229              	.LASF115:
 2230 0117 63685379 		.ascii	"chSysLockFromISR\000"
 2230      734C6F63 
 2230      6B46726F 
 2230      6D495352 
 2230      00
 2231              	.LASF93:
 2232 0128 444D4152 		.ascii	"DMAR\000"
 2232      00
 2233              	.LASF72:
 2234 012d 4442474D 		.ascii	"DBGMCU_TypeDef\000"
 2234      43555F54 
 2234      79706544 
 2234      656600
 2235              	.LASF120:
 2236 013c 56656374 		.ascii	"VectorB0\000"
 2236      6F724230 
 2236      00
 2237              	.LASF54:
 2238 0145 76746675 		.ascii	"vtfunc_t\000"
 2238      6E635F74 
ARM GAS  /tmp/ccbsOoKd.s 			page 55


 2238      00
 2239              	.LASF63:
 2240 014e 63685F73 		.ascii	"ch_system_debug\000"
 2240      79737465 
 2240      6D5F6465 
 2240      62756700 
 2241              	.LASF17:
 2242 015e 75696E74 		.ascii	"uint32_t\000"
 2242      33325F74 
 2242      00
 2243              	.LASF101:
 2244 0167 73656E74 		.ascii	"sentmsg\000"
 2244      6D736700 
 2245              	.LASF24:
 2246 016f 6576656E 		.ascii	"eventmask_t\000"
 2246      746D6173 
 2246      6B5F7400 
 2247              	.LASF92:
 2248 017b 42445452 		.ascii	"BDTR\000"
 2248      00
 2249              	.LASF105:
 2250 0180 63685F73 		.ascii	"ch_semaphore\000"
 2250      656D6170 
 2250      686F7265 
 2250      00
 2251              	.LASF22:
 2252 018d 74707269 		.ascii	"tprio_t\000"
 2252      6F5F7400 
 2253              	.LASF56:
 2254 0195 63685F76 		.ascii	"ch_virtual_timer\000"
 2254      69727475 
 2254      616C5F74 
 2254      696D6572 
 2254      00
 2255              	.LASF89:
 2256 01a6 43434D52 		.ascii	"CCMR1\000"
 2256      3100
 2257              	.LASF90:
 2258 01ac 43434D52 		.ascii	"CCMR2\000"
 2258      3200
 2259              	.LASF94:
 2260 01b2 43434D52 		.ascii	"CCMR3\000"
 2260      3300
 2261              	.LASF13:
 2262 01b8 6C6F6E67 		.ascii	"long long unsigned int\000"
 2262      206C6F6E 
 2262      6720756E 
 2262      7369676E 
 2262      65642069 
 2263              	.LASF5:
 2264 01cf 5F5F7569 		.ascii	"__uint16_t\000"
 2264      6E743136 
 2264      5F7400
 2265              	.LASF25:
 2266 01da 636E745F 		.ascii	"cnt_t\000"
 2266      7400
 2267              	.LASF107:
ARM GAS  /tmp/ccbsOoKd.s 			page 56


 2268 01e0 6F776E65 		.ascii	"owner\000"
 2268      7200
 2269              	.LASF48:
 2270 01e6 74687265 		.ascii	"threads_queue_t\000"
 2270      6164735F 
 2270      71756575 
 2270      655F7400 
 2271              	.LASF129:
 2272 01f6 76616C75 		.ascii	"value\000"
 2272      6500
 2273              	.LASF40:
 2274 01fc 6D74786C 		.ascii	"mtxlist\000"
 2274      69737400 
 2275              	.LASF60:
 2276 0204 63685F76 		.ascii	"ch_virtual_timers_list\000"
 2276      69727475 
 2276      616C5F74 
 2276      696D6572 
 2276      735F6C69 
 2277              	.LASF27:
 2278 021b 74687265 		.ascii	"thread_t\000"
 2278      61645F74 
 2278      00
 2279              	.LASF116:
 2280 0224 63685379 		.ascii	"chSysUnlockFromISR\000"
 2280      73556E6C 
 2280      6F636B46 
 2280      726F6D49 
 2280      535200
 2281              	.LASF97:
 2282 0237 7264796D 		.ascii	"rdymsg\000"
 2282      736700
 2283              	.LASF117:
 2284 023e 6F73616C 		.ascii	"osalSysLockFromISR\000"
 2284      5379734C 
 2284      6F636B46 
 2284      726F6D49 
 2284      535200
 2285              	.LASF96:
 2286 0251 73746D33 		.ascii	"stm32_tim_t\000"
 2286      325F7469 
 2286      6D5F7400 
 2287              	.LASF82:
 2288 025d 5243435F 		.ascii	"RCC_TypeDef\000"
 2288      54797065 
 2288      44656600 
 2289              	.LASF106:
 2290 0269 63685F6D 		.ascii	"ch_mutex\000"
 2290      75746578 
 2290      00
 2291              	.LASF12:
 2292 0272 5F5F7569 		.ascii	"__uint64_t\000"
 2292      6E743634 
 2292      5F7400
 2293              	.LASF88:
 2294 027d 44494552 		.ascii	"DIER\000"
 2294      00
ARM GAS  /tmp/ccbsOoKd.s 			page 57


 2295              	.LASF75:
 2296 0282 41504231 		.ascii	"APB1RSTR\000"
 2296      52535452 
 2296      00
 2297              	.LASF29:
 2298 028b 7072696F 		.ascii	"prio\000"
 2298      00
 2299              	.LASF91:
 2300 0290 43434552 		.ascii	"CCER\000"
 2300      00
 2301              	.LASF108:
 2302 0295 63686172 		.ascii	"char\000"
 2302      00
 2303              	.LASF43:
 2304 029a 74687265 		.ascii	"thread_reference_t\000"
 2304      61645F72 
 2304      65666572 
 2304      656E6365 
 2304      5F7400
 2305              	.LASF33:
 2306 02ad 77616261 		.ascii	"wabase\000"
 2306      736500
 2307              	.LASF20:
 2308 02b4 74737461 		.ascii	"tstate_t\000"
 2308      74655F74 
 2308      00
 2309              	.LASF76:
 2310 02bd 41484245 		.ascii	"AHBENR\000"
 2310      4E5200
 2311              	.LASF14:
 2312 02c4 75696E74 		.ascii	"uint8_t\000"
 2312      385F7400 
 2313              	.LASF38:
 2314 02cc 6D736771 		.ascii	"msgqueue\000"
 2314      75657565 
 2314      00
 2315              	.LASF87:
 2316 02d5 534D4352 		.ascii	"SMCR\000"
 2316      00
 2317              	.LASF45:
 2318 02da 63685F74 		.ascii	"ch_thread\000"
 2318      68726561 
 2318      6400
 2319              	.LASF62:
 2320 02e4 73797374 		.ascii	"system_debug_t\000"
 2320      656D5F64 
 2320      65627567 
 2320      5F7400
 2321              	.LASF11:
 2322 02f3 6C6F6E67 		.ascii	"long long int\000"
 2322      206C6F6E 
 2322      6720696E 
 2322      7400
 2323              	.LASF71:
 2324 0301 4944434F 		.ascii	"IDCODE\000"
 2324      444500
 2325              	.LASF23:
ARM GAS  /tmp/ccbsOoKd.s 			page 58


 2326 0308 6D73675F 		.ascii	"msg_t\000"
 2326      7400
 2327              	.LASF55:
 2328 030e 76697274 		.ascii	"virtual_timer_t\000"
 2328      75616C5F 
 2328      74696D65 
 2328      725F7400 
 2329              	.LASF125:
 2330 031e 474E5520 		.ascii	"GNU C 4.8.2 -mcpu=cortex-m3 -mno-thumb-interwork -m"
 2330      4320342E 
 2330      382E3220 
 2330      2D6D6370 
 2330      753D636F 
 2331 0351 7468756D 		.ascii	"thumb -ggdb -O2 -fomit-frame-pointer -falign-functi"
 2331      62202D67 
 2331      67646220 
 2331      2D4F3220 
 2331      2D666F6D 
 2332 0384 6F6E733D 		.ascii	"ons=16 -ffunction-sections -fdata-sections -fno-com"
 2332      3136202D 
 2332      6666756E 
 2332      6374696F 
 2332      6E2D7365 
 2333 03b7 6D6F6E20 		.ascii	"mon -flto\000"
 2333      2D666C74 
 2333      6F00
 2334              	.LASF81:
 2335 03c1 43464752 		.ascii	"CFGR2\000"
 2335      3200
 2336              	.LASF77:
 2337 03c7 41504232 		.ascii	"APB2ENR\000"
 2337      454E5200 
 2338              	.LASF64:
 2339 03cf 70616E69 		.ascii	"panic_msg\000"
 2339      635F6D73 
 2339      6700
 2340              	.LASF110:
 2341 03d9 5F426F6F 		.ascii	"_Bool\000"
 2341      6C00
 2342              	.LASF19:
 2343 03df 746D6F64 		.ascii	"tmode_t\000"
 2343      655F7400 
 2344              	.LASF69:
 2345 03e7 6D61696E 		.ascii	"mainthread\000"
 2345      74687265 
 2345      616400
 2346              	.LASF127:
 2347 03f2 2F686F6D 		.ascii	"/home/jerson/ChibiOS_17.6.2/demos/STM32/RT-STM32F10"
 2347      652F6A65 
 2347      72736F6E 
 2347      2F436869 
 2347      62694F53 
 2348 0425 302D4449 		.ascii	"0-DISCOVERY\000"
 2348      53434F56 
 2348      45525900 
 2349              	.LASF15:
 2350 0431 75696E74 		.ascii	"uint16_t\000"
ARM GAS  /tmp/ccbsOoKd.s 			page 59


 2350      31365F74 
 2350      00
 2351              	.LASF130:
 2352 043a 6E766963 		.ascii	"nvicEnableVector\000"
 2352      456E6162 
 2352      6C655665 
 2352      63746F72 
 2352      00
 2353              	.LASF95:
 2354 044b 43435852 		.ascii	"CCXR\000"
 2354      00
 2355              	.LASF80:
 2356 0450 52455345 		.ascii	"RESERVED0\000"
 2356      52564544 
 2356      3000
 2357              	.LASF3:
 2358 045a 73686F72 		.ascii	"short int\000"
 2358      7420696E 
 2358      7400
 2359              	.LASF8:
 2360 0464 6C6F6E67 		.ascii	"long int\000"
 2360      20696E74 
 2360      00
 2361              	.LASF86:
 2362 046d 706F7274 		.ascii	"port_intctx\000"
 2362      5F696E74 
 2362      63747800 
 2363              	.LASF122:
 2364 0479 49544D5F 		.ascii	"ITM_RxBuffer\000"
 2364      52784275 
 2364      66666572 
 2364      00
 2365              	.LASF66:
 2366 0486 63685F73 		.ascii	"ch_system\000"
 2366      79737465 
 2366      6D00
 2367              	.LASF128:
 2368 0490 5F5F7365 		.ascii	"__set_BASEPRI\000"
 2368      745F4241 
 2368      53455052 
 2368      4900
 2369              	.LASF121:
 2370 049e 73745F6C 		.ascii	"st_lld_init\000"
 2370      6C645F69 
 2370      6E697400 
 2371              	.LASF61:
 2372 04aa 6C617374 		.ascii	"lasttime\000"
 2372      74696D65 
 2372      00
 2373              	.LASF18:
 2374 04b3 75696E74 		.ascii	"uint64_t\000"
 2374      36345F74 
 2374      00
 2375              	.LASF73:
 2376 04bc 43464752 		.ascii	"CFGR\000"
 2376      00
 2377              	.LASF67:
ARM GAS  /tmp/ccbsOoKd.s 			page 60


 2378 04c1 726C6973 		.ascii	"rlist\000"
 2378      7400
 2379              	.LASF119:
 2380 04c7 6F73616C 		.ascii	"osalSysUnlockFromISR\000"
 2380      53797355 
 2380      6E6C6F63 
 2380      6B46726F 
 2380      6D495352 
 2381              	.LASF4:
 2382 04dc 5F5F7569 		.ascii	"__uint8_t\000"
 2382      6E74385F 
 2382      7400
 2383              	.LASF32:
 2384 04e6 6E616D65 		.ascii	"name\000"
 2384      00
 2385              	.LASF70:
 2386 04eb 73697A65 		.ascii	"sizetype\000"
 2386      74797065 
 2386      00
 2387              	.LASF21:
 2388 04f4 74726566 		.ascii	"trefs_t\000"
 2388      735F7400 
 2389              	.LASF10:
 2390 04fc 6C6F6E67 		.ascii	"long unsigned int\000"
 2390      20756E73 
 2390      69676E65 
 2390      6420696E 
 2390      7400
 2391              	.LASF51:
 2392 050e 72656164 		.ascii	"ready_list_t\000"
 2392      795F6C69 
 2392      73745F74 
 2392      00
 2393              	.LASF28:
 2394 051b 71756575 		.ascii	"queue\000"
 2394      6500
 2395              	.LASF16:
 2396 0521 696E7433 		.ascii	"int32_t\000"
 2396      325F7400 
 2397              	.LASF109:
 2398 0529 6D757465 		.ascii	"mutex_t\000"
 2398      785F7400 
 2399              	.LASF30:
 2400 0531 6E657765 		.ascii	"newer\000"
 2400      7200
 2401              	.LASF114:
 2402 0537 706F7274 		.ascii	"port_unlock_from_isr\000"
 2402      5F756E6C 
 2402      6F636B5F 
 2402      66726F6D 
 2402      5F697372 
 2403              	.LASF2:
 2404 054c 756E7369 		.ascii	"unsigned char\000"
 2404      676E6564 
 2404      20636861 
 2404      7200
 2405              	.LASF9:
ARM GAS  /tmp/ccbsOoKd.s 			page 61


 2406 055a 5F5F7569 		.ascii	"__uint32_t\000"
 2406      6E743332 
 2406      5F7400
 2407              	.LASF37:
 2408 0565 77616974 		.ascii	"waiting\000"
 2408      696E6700 
 2409              	.LASF59:
 2410 056d 76697274 		.ascii	"virtual_timers_list_t\000"
 2410      75616C5F 
 2410      74696D65 
 2410      72735F6C 
 2410      6973745F 
 2411              	.LASF126:
 2412 0583 2E2E2F2E 		.ascii	"../../../os/hal/ports/STM32/LLD/TIMv1/hal_st_lld.c\000"
 2412      2E2F2E2E 
 2412      2F6F732F 
 2412      68616C2F 
 2412      706F7274 
 2413              	.LASF124:
 2414 05b6 5F706F72 		.ascii	"_port_irq_epilogue\000"
 2414      745F6972 
 2414      715F6570 
 2414      696C6F67 
 2414      756500
 2415              	.LASF34:
 2416 05c9 73746174 		.ascii	"state\000"
 2416      6500
 2417              	.LASF65:
 2418 05cf 63685F73 		.ascii	"ch_system_t\000"
 2418      79737465 
 2418      6D5F7400 
 2419              	.LASF102:
 2420 05db 77747365 		.ascii	"wtsemp\000"
 2420      6D7000
 2421              	.LASF100:
 2422 05e2 77747472 		.ascii	"wttrp\000"
 2422      7000
 2423              	.LASF1:
 2424 05e8 7369676E 		.ascii	"signed char\000"
 2424      65642063 
 2424      68617200 
 2425              	.LASF57:
 2426 05f4 64656C74 		.ascii	"delta\000"
 2426      6100
 2427              	.LASF6:
 2428 05fa 73686F72 		.ascii	"short unsigned int\000"
 2428      7420756E 
 2428      7369676E 
 2428      65642069 
 2428      6E7400
 2429              	.LASF84:
 2430 060d 73746B61 		.ascii	"stkalign_t\000"
 2430      6C69676E 
 2430      5F7400
 2431              	.LASF53:
 2432 0618 63757272 		.ascii	"current\000"
 2432      656E7400 
ARM GAS  /tmp/ccbsOoKd.s 			page 62


 2433              	.LASF112:
 2434 0620 706F7274 		.ascii	"port_unlock\000"
 2434      5F756E6C 
 2434      6F636B00 
 2435              	.LASF31:
 2436 062c 6F6C6465 		.ascii	"older\000"
 2436      7200
 2437              	.LASF98:
 2438 0632 65786974 		.ascii	"exitcode\000"
 2438      636F6465 
 2438      00
 2439              	.LASF42:
 2440 063b 6D706F6F 		.ascii	"mpool\000"
 2440      6C00
 2441              		.comm	__gnu_lto_v1,1,1
 2442              		.ident	"GCC: (4.8.2-14ubuntu1+6) 4.8.2"
ARM GAS  /tmp/ccbsOoKd.s 			page 63


DEFINED SYMBOLS
                            *ABS*:0000000000000000 hal_st_lld.c
     /tmp/ccbsOoKd.s:247    .text.VectorB0:0000000000000000 $t
     /tmp/ccbsOoKd.s:253    .text.VectorB0:0000000000000000 VectorB0
     /tmp/ccbsOoKd.s:329    .text.st_lld_init:0000000000000000 $t
     /tmp/ccbsOoKd.s:335    .text.st_lld_init:0000000000000000 st_lld_init
                            *COM*:0000000000000001 __gnu_lto_v1
                     .debug_frame:0000000000000010 $d

UNDEFINED SYMBOLS
chSysTimerHandlerI
_port_irq_epilogue
nvicEnableVector
