ARM GAS  /tmp/ccUxSct7.s 			page 1


   1              		.syntax unified
   2              		.cpu cortex-m3
   3              		.fpu softvfp
   4              		.eabi_attribute 20, 1
   5              		.eabi_attribute 21, 1
   6              		.eabi_attribute 23, 3
   7              		.eabi_attribute 24, 1
   8              		.eabi_attribute 25, 1
   9              		.eabi_attribute 26, 1
  10              		.eabi_attribute 30, 2
  11              		.eabi_attribute 34, 1
  12              		.eabi_attribute 18, 4
  13              		.thumb
  14              		.file	"hal_st.c"
  15              		.text
  16              	.Ltext0:
  17              		.section	.gnu.lto_.jmpfuncs.47d92d141e75342d,"",%progbits
  18 0000 789C6362 		.ascii	"x\234cb`b\300\006x\2414+\020322103\26200\000\000\002"
  18      6062C006 
  18      78A1342B 
  18      10333232 
  18      313033B2 
  19 0019 6D0023   		.ascii	"m\000#"
  20              		.text
  21              		.section	.gnu.lto_.inline.47d92d141e75342d,"",%progbits
  22 0000 789C6362 		.ascii	"x\234cb`b\300\006\362\2414+\003\003\013\017#X\021\333"
  22      6062C006 
  22      F2A1342B 
  22      03030B0F 
  22      235811DB 
  23 0014 0279B05A 		.ascii	"\002y\260ZF.\020\301\300\306\312\310\010\244\030\030"
  23      462E10C1 
  23      C0C6CAC8 
  23      08A41818 
  24 0024 98D83EE8 		.ascii	"\230\330>\350\301%\231\030X\230\201\312\231.\360\303"
  24      C1259918 
  24      589881CA 
  24      992EF0C3 
  25 0034 85984142 		.ascii	"\205\230ABP\245\310\342,\230J\031\000\300\002\010{"
  25      50A5C8E2 
  25      2C984A19 
  25      00C00208 
  25      7B
  26              		.text
  27              		.section	.gnu.lto_.pureconst.47d92d141e75342d,"",%progbits
  28 0000 789C6362 		.ascii	"x\234cb`b\340f\200\000V\006\011F)&)f)\026)\000\004\027"
  28      6062E066 
  28      80005606 
  28      09462926 
  28      29662916 
  29 0018 009F     		.ascii	"\000\237"
  30              		.text
  31              		.section	.gnu.lto_stInit.47d92d141e75342d,"",%progbits
  32 0000 789C6362 		.ascii	"x\234cb`b@\007\222@\\\011\304\362@\314\310\314\300\310"
  32      60624007 
  32      92405C09 
  32      C4F240CC 
ARM GAS  /tmp/ccUxSct7.s 			page 2


  32      C8CCC0C8 
  33 0014 34E11C03 		.ascii	"4\341\034\003C#\007\023##\210\301\300\310P\317\304X"
  33      43230713 
  33      232388C1 
  33      C0C850CF 
  33      C458
  34 0026 1FC90856 		.ascii	"\037\311\010V\273\236\351\300\203\377\377\327\375X\373"
  34      BB9EE9C0 
  34      83FFFFD7 
  34      FD58FB
  35 0035 B01EA894 		.ascii	"\260\036\250\224\201\201\225\241\245\241a\202\002\003"
  35      818195A1 
  35      A5A16182 
  35      0203
  36 0043 4332583E 		.ascii	"C2X>\004H\2024\20522\201h\346\363\014\315\017\376\331"
  36      04488234 
  36      85323281 
  36      68E6F30C 
  36      CD0FFED9 
  37 0057 24322E64 		.ascii	"$2.dd\005\312V3\374j\350h\020\310d\004\252\206\030\227"
  37      6405CA56 
  37      33FC6AE8 
  37      6810C864 
  37      04AA8618 
  38 006c 09A22F32 		.ascii	"\011\242/24>\370\317\004S\004\001!@\011\240\001 \307"
  38      343EF8CF 
  38      04530401 
  38      214009A0 
  38      0120C7
  39 007f CAEAE9E9 		.ascii	"\312\352\351\351CP~\261~Fb\216~qQ2\210\216/.\321Kf\000"
  39      43507EB1 
  39      7E46628E 
  39      7E715132 
  39      888E2F2E 
  40 0097 0032792A 		.ascii	"\0002y*\325"
  40      D5
  41              		.text
  42              		.section	.gnu.lto_stStartAlarm.47d92d141e75342d,"",%progbits
  43 0000 789C9D51 		.ascii	"x\234\235Q?K\303@\024\177\357r\261\335\354\352 \224"
  43      3F4BC340 
  43      147FEF72 
  43      B1DDECEA 
  43      2094
  44 0012 AE6282F6 		.ascii	"\256b\202\366\003\270\270\010\355d\004;\225X\305\036"
  44      03B8B808 
  44      ED64043B 
  44      9558C51E 
  45 0022 B4549AE0 		.ascii	"\264T\232\340\332K)\035t)\235\244\272T\024A\305Nb\005"
  45      DA4B291D 
  45      74299DA4 
  45      BA541441 
  45      C54E6205 
  46 0036 876AA70E 		.ascii	"\207j\247\016\012E'A\020\334\245\337 \336]R\244]\004"
  46      0A452741 
  46      10DCA5DF 
  46      20DE5D52 
  46      A45D04
ARM GAS  /tmp/ccUxSct7.s 			page 3


  47 0049 1FB9BCBB 		.ascii	"\037\271\274\273\367~\177\036w\004\010L\307\234X_\010"
  47      F77E7F1E 
  47      7704084C 
  47      C79C585F 
  47      08
  48 005a B029326A 		.ascii	"\260)2j\200\244\361\002\340E\011\242\334\000B\205`%"
  48      80A4F102 
  48      E04509A2 
  48      DC004285 
  48      6025
  49 006c 830ADB21 		.ascii	"\203\012\333!\275O\337\277\351\326/N\260E\004\246\210"
  49      BD4FDFBF 
  49      E9D62F4E 
  49      B04504A6 
  49      88
  50 007d 4081A9A6 		.ascii	"@\201\251\246\0165\316\033\361\"\212SNU,\361\227\032"
  50      0E35CE1B 
  50      F1228A53 
  50      4E552CF1 
  50      971A
  51 008f 1B4864D6 		.ascii	"\033Hd\326\006P\215\002$\240\315y\263w_\357#?\340\336"
  51      06508D02 
  51      24A0CD79 
  51      B3775FEF 
  51      233FE0DE 
  52 00a3 C8F76719 		.ascii	"\310\367g\031\012D\034%m\023\031\222\230J\332\324\254"
  52      0A441C25 
  52      6D131992 
  52      984ADAD4 
  52      AC
  53 00b4 BB0204CF 		.ascii	"\273\002\004\317P\375\356\337\275_\271\241\335\330\267"
  53      50FDEEDF 
  53      BD5FB9A1 
  53      DDD8B7
  54 00c3 77F836D4 		.ascii	"w\3706\324m<\305\204@\332\330F]\250a@\243!\363i\360"
  54      6D3CC584 
  54      40DAD846 
  54      5DA86140 
  54      A321F369 
  55 00d8 F0FA518D 		.ascii	"\360\372Q\215\330x&\272\213p\315k\036\3170\244\013p"
  55      D87826BA 
  55      8B70CD6B 
  55      1ECF30A4 
  55      0B70
  56 00ea 29B72B0C 		.ascii	")\267+\014\365chy\015\036c8#'\210p\021T\015\023Q#l\241"
  56      F5636879 
  56      0D1E6338 
  56      23278870 
  56      11540D13 
  57 0102 523F177C 		.ascii	"R?\027|U\215\006\223\205\025\341\244l\272G\235G-p\371"
  57      558D0693 
  57      8515E1A4 
  57      6CBA479D 
  57      472D70F9 
  58 0116 95A67F4A 		.ascii	"\225\246\177J\343\2044\225E)\326\375\227\030\231\024"
  58      E3843495 
  58      4529D6FD 
ARM GAS  /tmp/ccUxSct7.s 			page 4


  58      97189914 
  59 0126 93573904 		.ascii	"\223W9\004o\324\274\245\301\345\214\303\022\266\342"
  59      6FD4BCA5 
  59      C1E58CC3 
  59      12B6E2
  60 0135 6D647FDE 		.ascii	"md\177\3360\314\340+9f\336.\230N9's\326q\215\034P\227"
  60      30CCE02B 
  60      3966DE2E 
  60      984E3927 
  60      73D6718D 
  61 014c 157792D3 		.ascii	"\025w\222\323\220\275R\331u\314u+\235\\6S\251U\323Z"
  61      90BD52D9 
  61      75CC752B 
  61      9D5C3653 
  61      A955D35A 
  62 0160 4BEF2F85 		.ascii	"K\357/\205\244l\241\260m\344\341\007\310\\\220\343"
  62      A46CA1B0 
  62      6DE4E107 
  62      C85C90E3 
  63              		.text
  64              		.section	.gnu.lto_stStopAlarm.47d92d141e75342d,"",%progbits
  65 0000 789C6362 		.ascii	"x\234cb`b@\007\222@|\024\210\203\201\230\221\231\201"
  65      60624007 
  65      92407C14 
  65      88838198 
  65      919981
  66 0013 9169C239 		.ascii	"\221i\3029\006\206F\016&FF\020\203\201\221\241\236\211"
  66      0686460E 
  66      26464610 
  66      838191A1 
  66      9E89
  67 0025 B13E9211 		.ascii	"\261>\222\021\254v=\323\201\007\377\377\257\373\322"
  67      AC763DD3 
  67      8107FFFF 
  67      AFFBD2
  68 0034 36E70EE3 		.ascii	"6\347\016\343l&\026\240\010+CKC\303\004\005\006\206"
  68      6C2616A0 
  68      082B434B 
  68      43C30405 
  68      0686
  69 0046 64B08A10 		.ascii	"d\260\212\020 \011\322\026\312\310\004\242\231\3172"
  69      2009D216 
  69      CAC804A2 
  69      99CF32
  70 0055 1CDA31E7 		.ascii	"\034\3321\347\322\363G\254pu\020\306\201\356{\007Y\031"
  70      D2F347AC 
  70      707510C6 
  70      81EE7B07 
  70      5919
  71 0067 18121917 		.ascii	"\030\022\031\0272\262\002\265\202\365j3\254jhi|0q\357"
  71      32B202B5 
  71      82F56A33 
  71      AC6A6869 
  71      7C3071EF 
  72 007b 34F94C46 		.ascii	"4\371LF\206\331\014\263\032'4\010d22F0f225\000\001\013"
  72      86D90CB3 
  72      1A273408 
ARM GAS  /tmp/ccUxSct7.s 			page 5


  72      64323246 
  72      30663232 
  73 0093 03980976 		.ascii	"\003\230\011vI\022HK\"\343b\240v\260(X\360\"C\343\207"
  73      4912484B 
  73      22E362A0 
  73      76B02858 
  73      F02243E3 
  74 00a8 4BDB5920 		.ascii	"K\333Y \246\302@\010\320t\240S@\332d\365\364\364!(\277"
  74      A6C24008 
  74      D074A053 
  74      40DA64F5 
  74      F4F42128 
  75 00bd 583F2331 		.ascii	"X?#1G\277\270(\031D\307\027\227\350%3\030\243\313\026"
  75      47BFB828 
  75      1944C717 
  75      97E82533 
  75      18A3CB16 
  76 00d1 E4179514 		.ascii	"\344\027\225\024\353\007\207\370\032\033\351\373\370"
  76      EB0787F8 
  76      1A1BE9FB 
  76      F8
  77 00de B8E88778 		.ascii	"\270\350\207x\372\226\031B\325\307\347\344\244\350e"
  77      FA961942 
  77      D5C7E7E4 
  77      A4E865
  78 00ed 30000080 		.ascii	"0\000\000\200\211PH"
  78      895048
  79              		.text
  80              		.section	.gnu.lto_stSetAlarm.47d92d141e75342d,"",%progbits
  81 0000 789C5D50 		.ascii	"x\234]P\261N\002A\020\235\267\334\001\235\264\026&\204"
  81      B14E0241 
  81      109DB7DC 
  81      019DB416 
  81      2684
  82 0012 D67817E5 		.ascii	"\326x\027\345\003llH\240\362L\240\"'\032\271\004\202"
  82      036C6C48 
  82      A0F24CA0 
  82      22271AB9 
  82      0482
  83 0024 E12EB6EC 		.ascii	"\341.\266\354\021\022\022m\210\245\306\002\242\026\306"
  83      1112126D 
  83      88A5C602 
  83      A216C6
  84 0033 A054165A 		.ascii	"\240T\026Z\020\251(4Q;c\341\027\020\032\353sw\357h\230"
  84      10A92834 
  84      513B63E1 
  84      17101AEB 
  84      7377EF68 
  85 0048 ECEECCCE 		.ascii	"\354\356\314\316\2747\363v\0311Z\266U\261s *\012\217"
  85      BC37F376 
  85      19315AB6 
  85      55B17320 
  85      2A0A8F
  86 005b 1881F5DE 		.ascii	"\030\201\365\336\211\374$\003d@\240\026C\253\004\205"
  86      89FC2403 
  86      6440A016 
  86      43AB0485 
ARM GAS  /tmp/ccUxSct7.s 			page 6


  87 006b 7D60E3DF 		.ascii	"}`\343\337 \030>vo\177p\305\342\014u\220F\216*\352\324"
  87      20183E76 
  87      6F7F70C5 
  87      E20C7590 
  87      468E2AEA 
  88 0080 E1BC97AE 		.ascii	"\341\274\227\256C\334**c\211S\366\330\003\223>6\245"
  88      43DC2A2A 
  88      638953F6 
  88      D803933E 
  88      36A5
  89 0092 76922843 		.ascii	"v\222(C}\316\317\307\243\356\004\374\224\373\363 Xq"
  89      7DCECFC7 
  89      A3EE04FC 
  89      94FBF320 
  89      5871
  90 00a4 20106948 		.ascii	" \020iHZ\021\016XJ\271\330\222\326#\001\2427j\317&O"
  90      5A110E58 
  90      4AB9D892 
  90      D62301A2 
  90      376ACF26 
  91 00b9 DF432F1A 		.ascii	"\337C/\032\267\230;>\233\215t\033\003d\004\322F\037"
  91      B7983B3E 
  91      9B8D741B 
  91      036404D2 
  91      461F
  92 00cb BAE88690 		.ascii	"\272\350\206\220\246E\314\327\351\313\327_;a\343ZT7"
  92      A645CCD7 
  92      E9CBD75F 
  92      3B61E35A 
  92      5437
  93 00dd E89E777C 		.ascii	"\350\236w|^r\240\255\323\235\014\267\035\350\227t\341"
  93      5E72A0AD 
  93      D39D0CB7 
  93      1DE89774 
  93      E1
  94 00ee F778CA41 		.ascii	"\367x\312A\\*Hpa\232\022\223P\022\366\241\272\337\010"
  94      5C2A4870 
  94      619A1293 
  94      5012F6A1 
  94      BADF08
  95 0101 BECA2643 		.ascii	"\276\312&CeQFL\"\372 \177\376\371\254\205\022\026f\011"
  95      6551464C 
  95      22FA207F 
  95      FEF9AC85 
  95      12166609 
  96 0115 29E207E4 		.ascii	")\342\007\344\203\326\014\303\014W\3035\253v\315t\233"
  96      83D60CC3 
  96      0C57C335 
  96      AB76CD74 
  96      9B
  97 0126 15E9CBAE 		.ascii	"\025\351\313\256gTH\363\234\372av\031r\334hz\256\271"
  97      675448F3 
  97      9CFA6176 
  97      1972DC68 
  97      7AAEB9
  98 0139 6B15B25B 		.ascii	"k\025\262[f>\277cZ\271\302\311fD*\327j\007F\225\376"
  98      663EBF63 
ARM GAS  /tmp/ccUxSct7.s 			page 7


  98      5AB9C2C9 
  98      66442AD7 
  98      6A074695 
  99 014e 01E6CB6C 		.ascii	"\001\346\313l\275"
  99      BD
 100              		.text
 101              		.section	.gnu.lto_stGetAlarm.47d92d141e75342d,"",%progbits
 102 0000 789C6362 		.ascii	"x\234cb`b@\007\222@\374\037\210\203\201\230\221\231"
 102      60624007 
 102      9240FC1F 
 102      88838198 
 102      9199
 103 0012 819169C2 		.ascii	"\201\221i\3029\006\206F\016&FF\020\203\201\221\241\236"
 103      39068646 
 103      0E264646 
 103      10838191 
 103      A19E
 104 0024 89B13E92 		.ascii	"\211\261>\222\021\254v=\323\201\007\377\377\257\373"
 104      11AC763D 
 104      D38107FF 
 104      FFAFFB
 105 0033 D03EEF0E 		.ascii	"\320>\357\016\343|&Vf\206LF\006\026 \001\222eehih\230"
 105      E37C2656 
 105      66864C46 
 105      06162001 
 105      92656568 
 106 004a A0900B62 		.ascii	"\240\220\013b'\203\225\207\000I\220\031\241\214L \232"
 106      27839587 
 106      00499019 
 106      A18C4C20 
 106      9A
 107 005b F92CC3A1 		.ascii	"\371,\303\241;s.\375\177\304\011U\012\323s\240\373\237"
 107      3B732EFD 
 107      7FC40955 
 107      0AD373A0 
 107      FB9F
 108 006d 21034322 		.ascii	"!\003C\"\343BFV\240N\260\326tFf]\2065\015-\215\017&"
 108      E3424656 
 108      A04EB0D6 
 108      7446665D 
 108      86350D2D 
 109 0084 FE9DEE97 		.ascii	"\376\235\356\227\311\310\244\315\260\012\310k\230\314"
 109      C9C8A4CD 
 109      B00AC86B 
 109      98CC
 110 0092 98C9C83C 		.ascii	"\230\311\310<\233aV\343\204\006\201LF\226\010 \227\265"
 110      9B6156E3 
 110      8406814C 
 110      46960820 
 110      97B5
 111 00a4 01085818 		.ascii	"\001\010X\030\300L\260#\223@&$2.\006qA\242l\020\177"
 111      C04CB023 
 111      93402624 
 111      322E0671 
 111      41A26C10 
 112 00b9 42451818 		.ascii	"BE\030\030\31624\275k\346Kd\\\004\344\2463\262\000\255"
 112      CE3234BD 
ARM GAS  /tmp/ccUxSct7.s 			page 8


 112      6BE64B64 
 112      5C04E4A6 
 112      33B200AD 
 113 00cd 6260B8C8 		.ascii	"b`\270\310\320\270\341\220=\304\011@1\210\216\020\240"
 113      D0B8E190 
 113      3DC40940 
 113      31888E10 
 113      A0
 114 00de 5B80EE06 		.ascii	"[\200\356\006\005\231\254\236\236>\004\345\027\353g"
 114      0599AC9E 
 114      9E3E04E5 
 114      17EB67
 115 00ed 24E6E817 		.ascii	"$\346\350\027\027%\203\350\370\342\022\275d\006ct\331"
 115      172583E8 
 115      F8E212BD 
 115      64066374 
 115      D9
 116 00fe 82FCA292 		.ascii	"\202\374\242\222b\375\340\020_c#}\037\037\027\375\020"
 116      62FDE010 
 116      5F63237D 
 116      1F1F17FD 
 116      10
 117 010f 4FDF3243 		.ascii	"O\3372C\250\372\370\234\234\024\275\014\006\000\301"
 117      A8FAF89C 
 117      9C14BD0C 
 117      0600C1
 118 011e 285BC0   		.ascii	"([\300"
 119              		.text
 120              		.section	.gnu.lto_.symbol_nodes.47d92d141e75342d,"",%progbits
 121 0000 789C4DC7 		.ascii	"x\234M\307\301\021@0\024E\321w\177\244R\205\274\314"
 121      C1114030 
 121      1445D177 
 121      7FA45285 
 121      BCCC
 122 0012 D858AA40 		.ascii	"\330X\252@I\032\020\244\022c\301\214\234\335\011\205"
 122      491A10A4 
 122      1263C18C 
 122      9CDD0985 
 123 0022 467D62C7 		.ascii	"F}b\307\322\262I\366:\023\025\323\365\300\321\365\304"
 123      D2B249F6 
 123      3A1315D3 
 123      F5C0D1F5 
 123      C4
 124 0033 A9EB8587 		.ascii	"\251\353\205\207\2774\234\337\226BR\326\324n\364\000"
 124      BF349CDF 
 124      964252D6 
 124      D46EF400 
 125 0043 44081F8A 		.ascii	"D\010\037\212"
 126              		.text
 127              		.section	.gnu.lto_.refs.47d92d141e75342d,"",%progbits
 128 0000 789C6362 		.ascii	"x\234cb`b`d\200\002\000\000F\000\006"
 128      60626064 
 128      80020000 
 128      460006
 129              		.text
 130              		.section	.gnu.lto_.decls.47d92d141e75342d,"",%progbits
 131 0000 789CB558 		.ascii	"x\234\265X}l\024E\024\237\331=\372y\224\026\205T\023"
ARM GAS  /tmp/ccUxSct7.s 			page 9


 131      7D6C1445 
 131      149FD93D 
 131      FA799416 
 131      855413
 132 0013 4231601A 		.ascii	"B1`\032\242=\332j\015\377 x%@B\221\\K\322\304?\226\245"
 132      A23DDA6A 
 132      0DFF2078 
 132      25404291 
 132      5C4BD2C4 
 133 002a 3DEC25FD 		.ascii	"=\354%\375Jo\253!\3763\264RH\021i\213`A\002\307W[\022"
 133      4A6FAB21 
 133      FE33B452 
 133      4811698B 
 133      604102C7 
 134 0041 1201A150 		.ascii	"\022\001\241P\344\340\370h!T+\266\012\326\242\036\032"
 134      E4E0F868 
 134      21542BB6 
 134      0AD6A21E 
 134      1A
 135 0052 45628825 		.ascii	"Eb\210%\242\204\200=gfg\357v\207\335\262G\342\244\357"
 135      A284803D 
 135      676667EF 
 135      7687DDB2 
 135      47E2A4EF 
 136 0066 756EEEBD 		.ascii	"un\356\275\337\374\346\2757\2733'\000\001tA\000\"\270"
 136      DFFCE6BD 
 136      37BB3327 
 136      00017441 
 136      0022B8
 137 0079 A53D0B40 		.ascii	"\245=\013@\271\000@\002\000`\036\2105\362y\017\226\016"
 137      B9004002 
 137      00601E88 
 137      35F2790F 
 137      960E
 138 008b 2CDD587A 		.ascii	",\335Xz\260\004\261\234\003\2177b\207!\300\005,{\331"
 138      B004B19C 
 138      038F3762 
 138      8721C005 
 138      2C7BD9
 139 009e 98C0C6CD 		.ascii	"\230\300\306\315\354\011f2\226D,\007\261\244aqb\271"
 139      EC096632 
 139      96442C07 
 139      B1A46171 
 139      62B9
 140 00b0 88A51FCB 		.ascii	"\210\245\037\313\000\2261,\016,\"\226;XF\260\0143\\"
 140      0096312C 
 140      0E2C2296 
 140      3B5846B0 
 140      0C335C
 141 00c3 E21F61FD 		.ascii	"\342\037a\375\317\210\0354\342w3\277\213:,\250\363'"
 141      CF881D34 
 141      E27733BF 
 141      8B3A2CA8 
 141      F327
 142 00d5 DFA7713E 		.ascii	"\337\247q>\200\255\321./\310x\011\314/\003\252\375\317"
 142      80ADD12E 
 142      2FC87809 
ARM GAS  /tmp/ccUxSct7.s 			page 10


 142      CC2F03AA 
 142      FDCF
 143 00e7 B14CE1B0 		.ascii	"\261L\341\260\203\014S\303}\022\036\261\177\036\252"
 143      830C53C3 
 143      7D121EB1 
 143      7F1EAA
 144 00f6 63D338AC 		.ascii	"c\3238\254\351`\027\012\204\303\353v\367C\324\206\036"
 144      E960170A 
 144      84C3EB76 
 144      F743D486 
 144      1E
 145 0107 45222298 		.ascii	"E\"\"\230\012\266\"\334\002M\010AE\206\363\246\200R"
 145      0AB622DC 
 145      024D0841 
 145      4586F3A6 
 145      8052
 146 0119 28C3B464 		.ascii	"(\303\264d\220E;\316d:\001\0002\334\013\247\262\336"
 146      90453BCE 
 146      643A0100 
 146      32DC0BA7 
 146      B2DE
 147 012b 0A518513 		.ascii	"\012Q\205\023@\026\004\263\301A\354\337\202\320\317"
 147      401604B3 
 147      C141ECDF 
 147      82D0CF
 148 013a CF3C1E14 		.ascii	"\317<\036\024\334^\004\007\310\004\250\013\211\024\236"
 148      DC5E0407 
 148      C804A80B 
 148      89149E
 149 0149 00EC81D3 		.ascii	"\000\354\201\323\365&2\334\007\005\236gx4t\262\317\331"
 149      F52632DC 
 149      07059E67 
 149      783474B2 
 149      CFD9
 150 015b B2361C89 		.ascii	"\2626\034\211L\267O\262\223\221\024i,pB6 \324\200P\023"
 150      4CB74FB2 
 150      93911469 
 150      2C704236 
 150      20D48050 
 151 0170 CAEEC209 		.ascii	"\312\356\302\011a^\351\232\027\261\231\005\366c\372"
 151      615EE99A 
 151      17B19905 
 151      F663FA
 152 017f E1E0F121 		.ascii	"\341\340\361!\001\241$\031\036\204d\274\030b\260\375"
 152      01A12419 
 152      1E8464BC 
 152      1862B0FD 
 153 018f 70362364 		.ascii	"p6#d\037\347a\323\211\227(\316!\212\363\336\323\342"
 153      1FE761D3 
 153      899728CE 
 153      218AF3DE 
 153      D3E2
 154 01a1 6C6FEE9C 		.ascii	"lo\356\234Kq>\2458G\241\021H\206b\2621\204\370\263f"
 154      4B713EA5 
 154      3847A111 
 154      488662B2 
 154      3184F8B3 
ARM GAS  /tmp/ccUxSct7.s 			page 11


 155 01b6 40D0E8D7 		.ascii	"@\320\350\327\254C\362\374?\032\307\012\202\326D\220"
 155      AC43F2FC 
 155      3F1AC70A 
 155      82D64490 
 156 01c6 A33A13EC 		.ascii	"\243:\023\354C\250-\274\356\326\357b;\012\011Z\204\257"
 156      43A82DBC 
 156      EED6EF62 
 156      3B0A095A 
 156      84AF
 157 01d8 50B30E5C 		.ascii	"P\263\016\\\011fQP\255b\345\263\011\255K\207\321\372"
 157      09665150 
 157      AD62E5B3 
 157      09AD4B87 
 157      D1FA
 158 01ea E9E0EBE7 		.ascii	"\351\340\353\347\250i\375\334\323\352G-^\001\014r\324"
 158      A869FDDC 
 158      D3EA472D 
 158      5E010C72 
 158      D4
 159 01fb CCABB39B 		.ascii	"\314\253\263\233G?a\212~\370R\024\275\223\242\377h\272"
 159      473F618A 
 159      7EF85214 
 159      BD93A2FF 
 159      68BA
 160 020d 70747F65 		.ascii	"pt\177e\266\272\032\031\036\303@2\354y\2525\367\360"
 160      B6BA1A19 
 160      1EC34032 
 160      EC79AA35 
 160      F7F0
 161 021f AC4E99B2 		.ascii	"\254N\231\262\272{i\323s(\320\020\212D^\347\3676A\267"
 161      BA7B69D3 
 161      7328D010 
 161      8A445EE7 
 161      F73641B7 
 162 0233 DA37674C 		.ascii	"\3327gL6\367m\363h5\240\303]h\202FV\206A\213\3450\274"
 162      36F76DF3 
 162      6835A0C3 
 162      5D688246 
 162      5686418B 
 163 024a B326345B 		.ascii	"\263&4[\302\303_\375\273\026\2666\006.\243\321Hd\022"
 163      C2C35FFD 
 163      BB16B636 
 163      062EA3D1 
 163      486412
 164 025d D012D425 		.ascii	"\320\022\324%\360S\252 \347\215 \251\240\231\360\300"
 164      F053AA20 
 164      E78D20A9 
 164      A099F0C0 
 165 026d 0B5B7C39 		.ascii	"\013[|9M\365\265Z\330\005\230\252G\244\033\260\221y"
 165      4DF5B55A 
 165      D80598AA 
 165      47A41BB0 
 165      9179
 166 027f 0253AFE8 		.ascii	"\002S\257\350F\356=\007\361V\205l\317\216\347\"\303"
 166      46EE3D07 
 166      F156856C 
 166      CF8EE722 
ARM GAS  /tmp/ccUxSct7.s 			page 12


 166      C3
 167 0290 5E380BEB 		.ascii	"^8\013\353D\343NIL\216u\310\353r\022\211\3521\301\364"
 167      44E34E49 
 167      4C8E75C8 
 167      EB721289 
 167      EA31C1F4 
 168 02a4 916083D1 		.ascii	"\221`\203\321\366\346\323\352#\3412\335@A\201\177$$"
 168      F6E6D3EA 
 168      23E132DD 
 168      4041817F 
 168      2424
 169 02b6 728F8427 		.ascii	"r\217\204'\323\211\323<\003\264\220\202\312\"A\277\030"
 169      D389D33C 
 169      03B49082 
 169      CA2241BF 
 169      18
 170 02c7 AB260435 		.ascii	"\253&\0045\266\351\024Jo\326gm&\303/`F,\006(\232O\247"
 170      B6E9144A 
 170      6FD6676D 
 170      26C32F60 
 170      462C0628 
 171 02de 759D7EA9 		.ascii	"u\235~\251\356\020m8\332\021\015+\321\254\300d\320\312"
 171      EE106D38 
 171      DA110D2B 
 171      D1ACC064 
 171      D0CA
 172 02f0 9844238B 		.ascii	"\230D#\213\0224\237\225\261\320\036\331v\277\200\206"
 172      12349F95 
 172      B1D01ED9 
 172      76BF8086 
 173 0300 76004EC6 		.ascii	"v\000N\306\241}\310\205\366\2110d\322\257\261\253\352"
 173      A17DC885 
 173      F6893064 
 173      D2AFB1AB 
 173      EA
 174 0311 44415168 		.ascii	"DAQh\313\210\0239\324q`R\325\254\315\000\001\364~ch"
 174      CB881339 
 174      D4716052 
 174      D5ACCD00 
 174      01F47E63 
 175 0326 EBC84EBC 		.ascii	"\353\310N\274o\317C5\260\002X/B\206i\026\212\350\362"
 175      6FCF4335 
 175      B002582F 
 175      42866916 
 175      8AE8F2
 176 0339 B558A425 		.ascii	"\265X\244%sx\333F\234-\262\006\2661n\260,\003X\273\036"
 176      7378DB46 
 176      9C2DB206 
 176      B6316EB0 
 176      2C0358BB 
 177 034e 6CB31DB0 		.ascii	"l\263\035\260$kf;\364`\037\305\015fd\266S\017\266\335"
 177      246B663B 
 177      F4601FC5 
 177      0D6664B6 
 177      530FB6DD 
 178 0362 0E58BA35 		.ascii	"\016X\2725\263]z\260\235q\203\031\231\035\326\203\005"
 178      B35D7AB0 
ARM GAS  /tmp/ccUxSct7.s 			page 13


 178      9D718319 
 178      991DD683 
 178      05
 179 0373 EC80655A 		.ascii	"\354\200eZ3;\252\007\353\210\033\314\310\354\230\036"
 179      333BAA07 
 179      EB881BCC 
 179      C8EC981E 
 180 0383 EC901DB0 		.ascii	"\354\220\035\260,kf\335z\260#q\203\031\231\235\324\203"
 180      2C6B66DD 
 180      7AB02371 
 180      8319999D 
 180      D483
 181 0395 1DB70396 		.ascii	"\035\267\003\226m\315\354\224\036\254'n0#\263\323z\260"
 181      6DCDEC94 
 181      1EAC276E 
 181      3023B3D3 
 181      7AB0
 182 03a7 A01DB039 		.ascii	"\240\035\2609V\314\326\206\316\274E\260\372\361\303"
 182      56CCD686 
 182      CEBC45B0 
 182      FAF1C3
 183 03b6 4F00E778 		.ascii	"O\000\347x,\343S\322\014\314\310\354\252\236Y\257\035"
 183      2CE353D2 
 183      0CCCC8EC 
 183      AA9E59AF 
 183      1D
 184 03c7 66F3ADC1 		.ascii	"f\363\255\301\006\365`W\354\200-\266N\3007z\260\201"
 184      06F56057 
 184      EC802DB6 
 184      4EC0377A 
 184      B081
 185 03d9 B8C18CCC 		.ascii	"\270\301\214\314\256\351\301\206\354\200-\267f\366\235"
 185      AEE9C186 
 185      EC802DB7 
 185      66F69D
 186 03e8 1EEC5ADC 		.ascii	"\036\354Z\334`zfkC\337\343l\2627^`>\367f\234o|\204\031"
 186      607A666B 
 186      43DFE36C 
 186      B2375E60 
 186      3EF7669C 
 187 0400 CCFA2CCD 		.ascii	"\314\372,\315d\3700\356\027\343#\213\027\243\376\006"
 187      64F830EE 
 187      17E3238B 
 187      17A3FE06 
 188 0410 18B3C2CB 		.ascii	"\030\263\302\313\276\301/\333@\202uKMbh\326\364o?\031"
 188      BEC12FDB 
 188      4082754B 
 188      4D6268D6 
 188      F46F3F19 
 189 0424 0ED2C3D0 		.ascii	"\016\322\303\320\020\234\201\365\267T_\247z\230\352"
 189      109C81F5 
 189      B7545FA7 
 189      7A98EA
 190 0433 11AA7FA0 		.ascii	"\021\252\177\240\372'\252oR\375\013\325\277R}\213\352"
 190      FA27AA6F 
 190      52FD0BD5 
 190      BF527D8B 
ARM GAS  /tmp/ccUxSct7.s 			page 14


 190      EA
 191 0444 DB54FF41 		.ascii	"\333T\377A\365\035\252\377\244\372.\325\177Q\3757\325"
 191      F51DAAFF 
 191      A4FA2ED5 
 191      7F51FD37 
 191      D5
 192 0455 F7A97E80 		.ascii	"\367\251~\200u\264qg\304\001\213\374\022\356c\370\214"
 192      75B47167 
 192      C4018BFC 
 192      12EE63F8 
 192      8C
 193 0466 C81A399E 		.ascii	"\310\0329\236\206F\361\361\364\306y\330\326\210\324"
 193      8646F1F1 
 193      F4C679D8 
 193      D688D4
 194 0475 E3692049 		.ascii	"\343i I;\342\337\024M\217\370Cr\266v\255\271G-\"6\217"
 194      3BE2DF14 
 194      4D8FF843 
 194      72B676AD 
 194      B9472D22 
 195 048b F8C36879 		.ascii	"\370\303hyf\364\204\037\341O\370H0\234z_\000{\320\325"
 195      66F4841F 
 195      E14FF848 
 195      309C7A5F 
 195      007BD0D5 
 196 049f ABE1DE5B 		.ascii	"\253\341\336[\355pC\030\337\270\307\"\021\250\035\265"
 196      ED704318 
 196      DFB8C722 
 196      11A81DB5 
 197 04af DAD3D839 		.ascii	"\332\323\33092| \224\331\036;\246$\351\353@=\227`\007"
 197      327C2094 
 197      D91E3BA6 
 197      24E9EB40 
 197      3D976007 
 198 04c3 216A8C32 		.ascii	"!j\21423\315me\270^ Y\334 \304\352J\355k\275\010\375"
 198      33CD6D65 
 198      B85E2059 
 198      DC20C4EA 
 198      4AED6BBD 
 199 04d9 D1E28168 		.ascii	"\321\342\201h\362[\210J\177|W6i\2056\351Dj\033[\217"
 199      F25B884A 
 199      7F7C5736 
 199      698536E9 
 199      446A1B5B 
 200 04ee 6A696E25 		.ascii	"jin%\303f!\336\015\262Q0\337 N\003g\315\012\257lL\344"
 200      C36621DE 
 200      0DB25130 
 200      DF204E03 
 200      67CD0AAF 
 201 0505 2EA81C09 		.ascii	".\250\034\011|Fc\277\035\3110\005\352J\3477\256t\324"
 201      7C4663BF 
 201      1DC93005 
 201      EA4AE737 
 201      AE74D4
 202 0518 ABCD5687 		.ascii	"\253\315V\207\235\273\347\207\002W\003\233\205\307\256"
 202      9DBBE787 
 202      0257039B 
ARM GAS  /tmp/ccUxSct7.s 			page 15


 202      85C7AE
 203 0527 4FA1D1D0 		.ascii	"O\241\321\320`\277z\367\334\035J\327J\263\323aZ\232"
 203      60BF7AF7 
 203      DC1D4AD7 
 203      4AB3D361 
 203      5A9A
 204 0539 67E5E8ED 		.ascii	"g\345\350\355\263A \267\317V\341)J\263\225\247\325f"
 204      B34120B7 
 204      CF56E129 
 204      4AB395A7 
 204      D566
 205 054b 5E9AFF98 		.ascii	"^\232\377\230\226\246\014\233b\251,\325&M\035/\341\234"
 205      96A60C9B 
 205      62A92CD5 
 205      264D1D2F 
 205      E19C
 206 055d 950C3F8E 		.ascii	"\225\014?\216;\341\355\026\011O1,D\263\302\335\017\004"
 206      3BE1ED16 
 206      094F312C 
 206      44B3C2DD 
 206      0F04
 207 056f EE76CE91 		.ascii	"\356v\316\221\020\300I\363\204\217\265\301-\372\204"
 207      10C049F3 
 207      848FB5C1 
 207      2DFA84
 208 057e 9FA109E9 		.ascii	"\237\241\011\3513O8\177}\336a\221\0176\321'\346\201"
 208      334F387F 
 208      7DDE6191 
 208      0F36D127 
 208      E681
 209 0590 1ED3055A 		.ascii	"\036\323\005Z\206\333pp4\376\301q\370_7\360\007\323"
 209      86DB7070 
 209      34FEC171 
 209      F85F37F0 
 209      07D3
 210 05a2 72725CEA 		.ascii	"rr\\\352_\215\337U!W\272\374ue\344\277\344Wr\312@\202"
 210      5F8DDF55 
 210      2157BAFC 
 210      7565E4BF 
 210      E45772CA 
 211 05b8 5F5952ED 		.ascii	"_YR\355S\022\026-[\221\345\0063\365\266u\212\313W]V"
 211      5312162D 
 211      5B91E506 
 211      33F5B675 
 211      8ACB575D 
 212 05cd 595FEE75 		.ascii	"Y_\356u\225U\370\327\370\2255\265^\177N\005H&}_\225"
 212      9555F8D7 
 212      F89535B5 
 212      5E7F4E05 
 212      48267D5F 
 213 05e2 5752A6B9 		.ascii	"WR\246\271\352\375uQ\243j\357\273\225\276U.\277R\356"
 213      EAFD7551 
 213      A36AEFBB 
 213      95BE552E 
 213      BF52EE
 214 05f5 AB56B05D 		.ascii	"\253V\260]R=\376\237[ )/\233\231U\311e\025\276j\257"
 214      523DFE9F 
ARM GAS  /tmp/ccUxSct7.s 			page 16


 214      5B20292F 
 214      9B9955C9 
 214      6515BE6A 
 215 060a 4B2AF7AE 		.ascii	"K*\367\256\226\353+\025I\203O\221$\315\321\351W\212"
 215      96EB2B15 
 215      49834F91 
 215      24CDD1E9 
 215      578A
 216 061c 15B94E59 		.ascii	"\025\271NYP)\327U%\312\253\350\264\251d\260\246\226"
 216      5029D755 
 216      25CAABE8 
 216      B4A964B0 
 216      A696
 217 062e 8EA5E0BE 		.ascii	"\216\245\340\276W\321\272\213X7\237_qmM\235\342w\025"
 217      57D1BA8B 
 217      58379F5F 
 217      716D4D9D 
 217      E27715
 218 0641 9714E5E7 		.ascii	"\227\024\345\347\271\226.-t\225,)z'\227\305@\252\254"
 218      B9962E2D 
 218      74952C29 
 218      7A2797C5 
 218      40AAAC
 219 0654 2CC7B3A6 		.ascii	",\307\263\246\252=\311\207\203A\211\347\347I\012\243"
 219      AA3DC987 
 219      834189E7 
 219      E7490AA3 
 220 0664 42BA79F6 		.ascii	"B\272y\3660\375J\025\261\366U\251\220\354\203\244\210"
 220      30FD4A15 
 220      B1F655A9 
 220      90EC83A4 
 220      88
 221 0675 6E4F2E96 		.ascii	"nO.\226<Gq\221\333\343(\\\262\320#\024{\304\205\213"
 221      3C477191 
 221      DBE3285C 
 221      B2D02314 
 221      7BC4858B 
 222 0689 3C13DCEE 		.ascii	"<\023\334\356\"O.\325y\016\267{\241Gt/+\021\227\027"
 222      224F2ED5 
 222      790EB77B 
 222      A147742F 
 222      2B119717 
 223 069d BBC5051E 		.ascii	"\273\305\005\036\217\350q\343\317\330\341\215\302\022"
 223      8FE871E3 
 223      CFD8E18D 
 223      C212
 224 06ab 8F58483C 		.ascii	"\217XH<\213\026x\2047U\257|l_\352\231\314\210\373I\240"
 224      8B167884 
 224      3755AF7C 
 224      6C5FEA99 
 224      CC88FB49 
 225 06c0 2499ACDF 		.ascii	"$\231\254\337A\302\344(\253\220\353\222$iu}u\231$M\324"
 225      41C2E428 
 225      AB90EB92 
 225      2469757D 
 225      7599244D 
 226 06d5 3A3905AF 		.ascii	":9\005\257\314-\310\210\372\324\324\252.\351\332\210"
ARM GAS  /tmp/ccUxSct7.s 			page 17


 226      CC2DC888 
 226      FAD4D4AA 
 226      2EE9DA88 
 227 06e5 9761E81C 		.ascii	"\227a\350\034^\235\223\257}\375\266\351\327\257\375"
 227      5E9D93AF 
 227      7DFDB6E9 
 227      D7AFFD
 228 06f4 07B30A98 		.ascii	"\007\263\012\230i"
 228      69
 229              		.text
 230              		.section	.gnu.lto_.symtab.47d92d141e75342d,"",%progbits
 231 0000 7374496E 		.ascii	"stInit\000\000\000\000\000\000\000\000\000\000\000\000"
 231      69740000 
 231      00000000 
 231      00000000 
 231      0000
 232 0012 A1000000 		.ascii	"\241\000\000\000stStartAlarm\000\000\000\000\000\000"
 232      73745374 
 232      61727441 
 232      6C61726D 
 232      00000000 
 233 0028 00000000 		.ascii	"\000\000\000\000\000\000\246\000\000\000stStopAlarm"
 233      0000A600 
 233      00007374 
 233      53746F70 
 233      416C6172 
 234 003d 00000000 		.ascii	"\000\000\000\000\000\000\000\000\000\000\000\000\266"
 234      00000000 
 234      00000000 
 234      B6
 235 004a 00000073 		.ascii	"\000\000\000stSetAlarm\000\000\000\000\000\000\000\000"
 235      74536574 
 235      416C6172 
 235      6D000000 
 235      00000000 
 236 005f 00000000 		.ascii	"\000\000\000\000\271\000\000\000stGetAlarm\000\000\000"
 236      B9000000 
 236      73744765 
 236      74416C61 
 236      726D0000 
 237 0074 00000000 		.ascii	"\000\000\000\000\000\000\000\000\000\275\000\000\000"
 237      00000000 
 237      00BD0000 
 237      00
 238 0081 73745F6C 		.ascii	"st_lld_init\000\000\002\000\000\000\000\000\000\000"
 238      6C645F69 
 238      6E697400 
 238      00020000 
 238      00000000 
 239 0096 0000C100 		.ascii	"\000\000\301\000\000\000"
 239      0000
 240              		.text
 241              		.section	.gnu.lto_.opts,"",%progbits
 242 0000 272D6D63 		.ascii	"'-mcpu=cortex-m3' '-mno-thumb-interwork' '-mthumb' "
 242      70753D63 
 242      6F727465 
 242      782D6D33 
ARM GAS  /tmp/ccUxSct7.s 			page 18


 242      2720272D 
 243 0033 272D6767 		.ascii	"'-ggdb' '-O2' '-fomit-frame-pointer' '-falign-funct"
 243      64622720 
 243      272D4F32 
 243      2720272D 
 243      666F6D69 
 244 0066 696F6E73 		.ascii	"ions=16' '-ffunction-sections' '-fdata-sections' '-"
 244      3D313627 
 244      20272D66 
 244      66756E63 
 244      74696F6E 
 245 0099 666E6F2D 		.ascii	"fno-common' '-flto'\000"
 245      636F6D6D 
 245      6F6E2720 
 245      272D666C 
 245      746F2700 
 246              		.text
 247              		.cfi_sections	.debug_frame
 248              		.section	.text.stInit,"ax",%progbits
 249              		.align	2
 250              		.p2align 4,,15
 251              		.global	stInit
 252              		.thumb
 253              		.thumb_func
 254              		.type	stInit, %function
 255              	stInit:
 256              	.LFB219:
 257              		.file 1 "../../../os/hal/src/hal_st.c"
 258              		.loc 1 60 0
 259              		.cfi_startproc
 260              		@ args = 0, pretend = 0, frame = 0
 261              		@ frame_needed = 0, uses_anonymous_args = 0
 262              		@ link register save eliminated.
 263              		.loc 1 62 0
 264 0000 FFF7FEBF 		b	st_lld_init
 265              	.LVL0:
 266              		.cfi_endproc
 267              	.LFE219:
 268              		.size	stInit, .-stInit
 269 0004 AFF30080 		.section	.text.stStartAlarm,"ax",%progbits
 269      AFF30080 
 269      AFF30080 
 270              		.align	2
 271              		.p2align 4,,15
 272              		.global	stStartAlarm
 273              		.thumb
 274              		.thumb_func
 275              		.type	stStartAlarm, %function
 276              	stStartAlarm:
 277              	.LFB220:
 278              		.loc 1 76 0
 279              		.cfi_startproc
 280              		@ args = 0, pretend = 0, frame = 0
 281              		@ frame_needed = 0, uses_anonymous_args = 0
 282              		@ link register save eliminated.
 283              	.LVL1:
 284              	.LBB10:
ARM GAS  /tmp/ccUxSct7.s 			page 19


 285              	.LBB11:
 286              		.file 2 "../../../os/hal/ports/STM32/LLD/TIMv1/hal_st_lld.h"
 287              		.loc 2 155 0
 288 0000 4FF08043 		mov	r3, #1073741824
 289              		.loc 2 156 0
 290 0004 0021     		movs	r1, #0
 291              		.loc 2 157 0
 292 0006 0222     		movs	r2, #2
 293              		.loc 2 155 0
 294 0008 5863     		str	r0, [r3, #52]
 295              		.loc 2 156 0
 296 000a 1961     		str	r1, [r3, #16]
 297              		.loc 2 157 0
 298 000c DA60     		str	r2, [r3, #12]
 299 000e 7047     		bx	lr
 300              	.LBE11:
 301              	.LBE10:
 302              		.cfi_endproc
 303              	.LFE220:
 304              		.size	stStartAlarm, .-stStartAlarm
 305              		.section	.text.stStopAlarm,"ax",%progbits
 306              		.align	2
 307              		.p2align 4,,15
 308              		.global	stStopAlarm
 309              		.thumb
 310              		.thumb_func
 311              		.type	stStopAlarm, %function
 312              	stStopAlarm:
 313              	.LFB221:
 314              		.loc 1 90 0
 315              		.cfi_startproc
 316              		@ args = 0, pretend = 0, frame = 0
 317              		@ frame_needed = 0, uses_anonymous_args = 0
 318              		@ link register save eliminated.
 319              	.LBB12:
 320              	.LBB13:
 321              		.loc 2 167 0
 322 0000 4FF08043 		mov	r3, #1073741824
 323 0004 0022     		movs	r2, #0
 324 0006 DA60     		str	r2, [r3, #12]
 325 0008 7047     		bx	lr
 326              	.LBE13:
 327              	.LBE12:
 328              		.cfi_endproc
 329              	.LFE221:
 330              		.size	stStopAlarm, .-stStopAlarm
 331              		.section	.text.stSetAlarm,"ax",%progbits
 332              		.align	2
 333              		.p2align 4,,15
 334              		.global	stSetAlarm
 335              		.thumb
 336              		.thumb_func
 337              		.type	stSetAlarm, %function
 338              	stSetAlarm:
 339              	.LFB222:
 340              		.loc 1 104 0
 341              		.cfi_startproc
ARM GAS  /tmp/ccUxSct7.s 			page 20


 342              		@ args = 0, pretend = 0, frame = 0
 343              		@ frame_needed = 0, uses_anonymous_args = 0
 344              		@ link register save eliminated.
 345              	.LVL2:
 346              	.LBB14:
 347              	.LBB15:
 348              		.loc 2 179 0
 349 0000 4FF08043 		mov	r3, #1073741824
 350 0004 5863     		str	r0, [r3, #52]
 351 0006 7047     		bx	lr
 352              	.LBE15:
 353              	.LBE14:
 354              		.cfi_endproc
 355              	.LFE222:
 356              		.size	stSetAlarm, .-stSetAlarm
 357 0008 AFF30080 		.section	.text.stGetAlarm,"ax",%progbits
 357      AFF30080 
 358              		.align	2
 359              		.p2align 4,,15
 360              		.global	stGetAlarm
 361              		.thumb
 362              		.thumb_func
 363              		.type	stGetAlarm, %function
 364              	stGetAlarm:
 365              	.LFB223:
 366              		.loc 1 120 0
 367              		.cfi_startproc
 368              		@ args = 0, pretend = 0, frame = 0
 369              		@ frame_needed = 0, uses_anonymous_args = 0
 370              		@ link register save eliminated.
 371              	.LBB16:
 372              	.LBB17:
 373              		.loc 2 191 0
 374 0000 4FF08043 		mov	r3, #1073741824
 375 0004 586B     		ldr	r0, [r3, #52]
 376              	.LBE17:
 377              	.LBE16:
 378              		.loc 1 125 0
 379 0006 80B2     		uxth	r0, r0
 380 0008 7047     		bx	lr
 381              		.cfi_endproc
 382              	.LFE223:
 383              		.size	stGetAlarm, .-stGetAlarm
 384 000a 00BFAFF3 		.text
 384      0080
 385              	.Letext0:
 386              		.file 3 "/usr/include/newlib/machine/_default_types.h"
 387              		.file 4 "/usr/include/newlib/stdint.h"
 388              		.file 5 "../../../os/common/ports/ARMCMx/compilers/GCC/chtypes.h"
 389              		.file 6 "../../../os/rt/include/chsystypes.h"
 390              		.file 7 "../../../os/rt/include/chschd.h"
 391              		.file 8 "../../../os/common/ports/ARMCMx/chcore.h"
 392              		.file 9 "../../../os/common/ports/ARMCMx/chcore_v7m.h"
 393              		.file 10 "../../../os/hal/ports/STM32/LLD/TIMv1/stm32_tim.h"
 394              		.file 11 "../../../os/rt/include/chsem.h"
 395              		.file 12 "../../../os/rt/include/chmtx.h"
 396              		.file 13 "../../../os/common/ext/CMSIS/include/core_cm3.h"
ARM GAS  /tmp/ccUxSct7.s 			page 21


 397              		.section	.debug_info,"",%progbits
 398              	.Ldebug_info0:
 399 0000 B1080000 		.4byte	0x8b1
 400 0004 0400     		.2byte	0x4
 401 0006 00000000 		.4byte	.Ldebug_abbrev0
 402 000a 04       		.byte	0x4
 403 000b 01       		.uleb128 0x1
 404 000c EE020000 		.4byte	.LASF111
 405 0010 01       		.byte	0x1
 406 0011 93010000 		.4byte	.LASF112
 407 0015 B6030000 		.4byte	.LASF113
 408 0019 00000000 		.4byte	.Ldebug_ranges0+0
 409 001d 00000000 		.4byte	0
 410 0021 00000000 		.4byte	.Ldebug_line0
 411 0025 02       		.uleb128 0x2
 412 0026 04       		.byte	0x4
 413 0027 05       		.byte	0x5
 414 0028 696E7400 		.ascii	"int\000"
 415 002c 03       		.uleb128 0x3
 416 002d 04       		.byte	0x4
 417 002e 07       		.byte	0x7
 418 002f 55000000 		.4byte	.LASF0
 419 0033 03       		.uleb128 0x3
 420 0034 01       		.byte	0x1
 421 0035 06       		.byte	0x6
 422 0036 3B050000 		.4byte	.LASF1
 423 003a 04       		.uleb128 0x4
 424 003b 6E040000 		.4byte	.LASF4
 425 003f 03       		.byte	0x3
 426 0040 1C       		.byte	0x1c
 427 0041 45000000 		.4byte	0x45
 428 0045 03       		.uleb128 0x3
 429 0046 01       		.byte	0x1
 430 0047 08       		.byte	0x8
 431 0048 C9040000 		.4byte	.LASF2
 432 004c 03       		.uleb128 0x3
 433 004d 02       		.byte	0x2
 434 004e 05       		.byte	0x5
 435 004f 03040000 		.4byte	.LASF3
 436 0053 04       		.uleb128 0x4
 437 0054 B0010000 		.4byte	.LASF5
 438 0058 03       		.byte	0x3
 439 0059 26       		.byte	0x26
 440 005a 5E000000 		.4byte	0x5e
 441 005e 03       		.uleb128 0x3
 442 005f 02       		.byte	0x2
 443 0060 07       		.byte	0x7
 444 0061 4D050000 		.4byte	.LASF6
 445 0065 04       		.uleb128 0x4
 446 0066 76000000 		.4byte	.LASF7
 447 006a 03       		.byte	0x3
 448 006b 37       		.byte	0x37
 449 006c 70000000 		.4byte	0x70
 450 0070 03       		.uleb128 0x3
 451 0071 04       		.byte	0x4
 452 0072 05       		.byte	0x5
 453 0073 0D040000 		.4byte	.LASF8
ARM GAS  /tmp/ccUxSct7.s 			page 22


 454 0077 04       		.uleb128 0x4
 455 0078 D7040000 		.4byte	.LASF9
 456 007c 03       		.byte	0x3
 457 007d 38       		.byte	0x38
 458 007e 82000000 		.4byte	0x82
 459 0082 03       		.uleb128 0x3
 460 0083 04       		.byte	0x4
 461 0084 07       		.byte	0x7
 462 0085 8E040000 		.4byte	.LASF10
 463 0089 03       		.uleb128 0x3
 464 008a 08       		.byte	0x8
 465 008b 05       		.byte	0x5
 466 008c CA020000 		.4byte	.LASF11
 467 0090 04       		.uleb128 0x4
 468 0091 41020000 		.4byte	.LASF12
 469 0095 03       		.byte	0x3
 470 0096 4E       		.byte	0x4e
 471 0097 9B000000 		.4byte	0x9b
 472 009b 03       		.uleb128 0x3
 473 009c 08       		.byte	0x8
 474 009d 07       		.byte	0x7
 475 009e 7C010000 		.4byte	.LASF13
 476 00a2 04       		.uleb128 0x4
 477 00a3 9B020000 		.4byte	.LASF14
 478 00a7 04       		.byte	0x4
 479 00a8 2A       		.byte	0x2a
 480 00a9 3A000000 		.4byte	0x3a
 481 00ad 04       		.uleb128 0x4
 482 00ae F5030000 		.4byte	.LASF15
 483 00b2 04       		.byte	0x4
 484 00b3 36       		.byte	0x36
 485 00b4 53000000 		.4byte	0x53
 486 00b8 04       		.uleb128 0x4
 487 00b9 B3040000 		.4byte	.LASF16
 488 00bd 04       		.byte	0x4
 489 00be 41       		.byte	0x41
 490 00bf 65000000 		.4byte	0x65
 491 00c3 04       		.uleb128 0x4
 492 00c4 0A010000 		.4byte	.LASF17
 493 00c8 04       		.byte	0x4
 494 00c9 42       		.byte	0x42
 495 00ca 77000000 		.4byte	0x77
 496 00ce 04       		.uleb128 0x4
 497 00cf 5F040000 		.4byte	.LASF18
 498 00d3 04       		.byte	0x4
 499 00d4 4E       		.byte	0x4e
 500 00d5 90000000 		.4byte	0x90
 501 00d9 04       		.uleb128 0x4
 502 00da 9B030000 		.4byte	.LASF19
 503 00de 05       		.byte	0x5
 504 00df 3C       		.byte	0x3c
 505 00e0 A2000000 		.4byte	0xa2
 506 00e4 04       		.uleb128 0x4
 507 00e5 8B020000 		.4byte	.LASF20
 508 00e9 05       		.byte	0x5
 509 00ea 3D       		.byte	0x3d
 510 00eb A2000000 		.4byte	0xa2
ARM GAS  /tmp/ccUxSct7.s 			page 23


 511 00ef 04       		.uleb128 0x4
 512 00f0 86040000 		.4byte	.LASF21
 513 00f4 05       		.byte	0x5
 514 00f5 3E       		.byte	0x3e
 515 00f6 A2000000 		.4byte	0xa2
 516 00fa 04       		.uleb128 0x4
 517 00fb 51010000 		.4byte	.LASF22
 518 00ff 05       		.byte	0x5
 519 0100 40       		.byte	0x40
 520 0101 C3000000 		.4byte	0xc3
 521 0105 04       		.uleb128 0x4
 522 0106 D8020000 		.4byte	.LASF23
 523 010a 05       		.byte	0x5
 524 010b 41       		.byte	0x41
 525 010c B8000000 		.4byte	0xb8
 526 0110 04       		.uleb128 0x4
 527 0111 26010000 		.4byte	.LASF24
 528 0115 05       		.byte	0x5
 529 0116 43       		.byte	0x43
 530 0117 C3000000 		.4byte	0xc3
 531 011b 04       		.uleb128 0x4
 532 011c BB010000 		.4byte	.LASF25
 533 0120 05       		.byte	0x5
 534 0121 45       		.byte	0x45
 535 0122 B8000000 		.4byte	0xb8
 536 0126 04       		.uleb128 0x4
 537 0127 39000000 		.4byte	.LASF26
 538 012b 06       		.byte	0x6
 539 012c 35       		.byte	0x35
 540 012d AD000000 		.4byte	0xad
 541 0131 04       		.uleb128 0x4
 542 0132 FB010000 		.4byte	.LASF27
 543 0136 06       		.byte	0x6
 544 0137 3F       		.byte	0x3f
 545 0138 3C010000 		.4byte	0x13c
 546 013c 05       		.uleb128 0x5
 547 013d B1020000 		.4byte	.LASF45
 548 0141 44       		.byte	0x44
 549 0142 07       		.byte	0x7
 550 0143 9A       		.byte	0x9a
 551 0144 1A020000 		.4byte	0x21a
 552 0148 06       		.uleb128 0x6
 553 0149 AD040000 		.4byte	.LASF28
 554 014d 07       		.byte	0x7
 555 014e 9B       		.byte	0x9b
 556 014f 4F020000 		.4byte	0x24f
 557 0153 00       		.byte	0
 558 0154 06       		.uleb128 0x6
 559 0155 51020000 		.4byte	.LASF29
 560 0159 07       		.byte	0x7
 561 015a 9C       		.byte	0x9c
 562 015b FA000000 		.4byte	0xfa
 563 015f 08       		.byte	0x8
 564 0160 07       		.uleb128 0x7
 565 0161 63747800 		.ascii	"ctx\000"
 566 0165 07       		.byte	0x7
 567 0166 9D       		.byte	0x9d
ARM GAS  /tmp/ccUxSct7.s 			page 24


 568 0167 60040000 		.4byte	0x460
 569 016b 0C       		.byte	0xc
 570 016c 06       		.uleb128 0x6
 571 016d C3040000 		.4byte	.LASF30
 572 0171 07       		.byte	0x7
 573 0172 9F       		.byte	0x9f
 574 0173 25020000 		.4byte	0x225
 575 0177 10       		.byte	0x10
 576 0178 06       		.uleb128 0x6
 577 0179 73050000 		.4byte	.LASF31
 578 017d 07       		.byte	0x7
 579 017e A0       		.byte	0xa0
 580 017f 25020000 		.4byte	0x225
 581 0183 14       		.byte	0x14
 582 0184 06       		.uleb128 0x6
 583 0185 78040000 		.4byte	.LASF32
 584 0189 07       		.byte	0x7
 585 018a A7       		.byte	0xa7
 586 018b E7060000 		.4byte	0x6e7
 587 018f 18       		.byte	0x18
 588 0190 06       		.uleb128 0x6
 589 0191 73020000 		.4byte	.LASF33
 590 0195 07       		.byte	0x7
 591 0196 B0       		.byte	0xb0
 592 0197 F9060000 		.4byte	0x6f9
 593 019b 1C       		.byte	0x1c
 594 019c 06       		.uleb128 0x6
 595 019d 11050000 		.4byte	.LASF34
 596 01a1 07       		.byte	0x7
 597 01a2 B5       		.byte	0xb5
 598 01a3 E4000000 		.4byte	0xe4
 599 01a7 20       		.byte	0x20
 600 01a8 06       		.uleb128 0x6
 601 01a9 33000000 		.4byte	.LASF35
 602 01ad 07       		.byte	0x7
 603 01ae B9       		.byte	0xb9
 604 01af D9000000 		.4byte	0xd9
 605 01b3 21       		.byte	0x21
 606 01b4 06       		.uleb128 0x6
 607 01b5 80000000 		.4byte	.LASF36
 608 01b9 07       		.byte	0x7
 609 01ba BE       		.byte	0xbe
 610 01bb EF000000 		.4byte	0xef
 611 01bf 22       		.byte	0x22
 612 01c0 08       		.uleb128 0x8
 613 01c1 7500     		.ascii	"u\000"
 614 01c3 07       		.byte	0x7
 615 01c4 0F01     		.2byte	0x10f
 616 01c6 1C060000 		.4byte	0x61c
 617 01ca 24       		.byte	0x24
 618 01cb 09       		.uleb128 0x9
 619 01cc E2040000 		.4byte	.LASF37
 620 01d0 07       		.byte	0x7
 621 01d1 1401     		.2byte	0x114
 622 01d3 2B020000 		.4byte	0x22b
 623 01d7 28       		.byte	0x28
 624 01d8 09       		.uleb128 0x9
ARM GAS  /tmp/ccUxSct7.s 			page 25


 625 01d9 A3020000 		.4byte	.LASF38
 626 01dd 07       		.byte	0x7
 627 01de 1A01     		.2byte	0x11a
 628 01e0 4F020000 		.4byte	0x24f
 629 01e4 2C       		.byte	0x2c
 630 01e5 09       		.uleb128 0x9
 631 01e6 4C000000 		.4byte	.LASF39
 632 01ea 07       		.byte	0x7
 633 01eb 2001     		.2byte	0x120
 634 01ed 10010000 		.4byte	0x110
 635 01f1 34       		.byte	0x34
 636 01f2 09       		.uleb128 0x9
 637 01f3 DC010000 		.4byte	.LASF40
 638 01f7 07       		.byte	0x7
 639 01f8 2701     		.2byte	0x127
 640 01fa E1060000 		.4byte	0x6e1
 641 01fe 38       		.byte	0x38
 642 01ff 09       		.uleb128 0x9
 643 0200 43000000 		.4byte	.LASF41
 644 0204 07       		.byte	0x7
 645 0205 2B01     		.2byte	0x12b
 646 0207 FA000000 		.4byte	0xfa
 647 020b 3C       		.byte	0x3c
 648 020c 09       		.uleb128 0x9
 649 020d 82050000 		.4byte	.LASF42
 650 0211 07       		.byte	0x7
 651 0212 3201     		.2byte	0x132
 652 0214 02030000 		.4byte	0x302
 653 0218 40       		.byte	0x40
 654 0219 00       		.byte	0
 655 021a 04       		.uleb128 0x4
 656 021b 60020000 		.4byte	.LASF43
 657 021f 06       		.byte	0x6
 658 0220 44       		.byte	0x44
 659 0221 25020000 		.4byte	0x225
 660 0225 0A       		.uleb128 0xa
 661 0226 04       		.byte	0x4
 662 0227 31010000 		.4byte	0x131
 663 022b 04       		.uleb128 0x4
 664 022c 67000000 		.4byte	.LASF44
 665 0230 06       		.byte	0x6
 666 0231 49       		.byte	0x49
 667 0232 36020000 		.4byte	0x236
 668 0236 05       		.uleb128 0x5
 669 0237 00000000 		.4byte	.LASF46
 670 023b 04       		.byte	0x4
 671 023c 07       		.byte	0x7
 672 023d 88       		.byte	0x88
 673 023e 4F020000 		.4byte	0x24f
 674 0242 06       		.uleb128 0x6
 675 0243 62000000 		.4byte	.LASF47
 676 0247 07       		.byte	0x7
 677 0248 89       		.byte	0x89
 678 0249 25020000 		.4byte	0x225
 679 024d 00       		.byte	0
 680 024e 00       		.byte	0
 681 024f 04       		.uleb128 0x4
ARM GAS  /tmp/ccUxSct7.s 			page 26


 682 0250 CC010000 		.4byte	.LASF48
 683 0254 06       		.byte	0x6
 684 0255 50       		.byte	0x50
 685 0256 5A020000 		.4byte	0x25a
 686 025a 05       		.uleb128 0x5
 687 025b DB000000 		.4byte	.LASF49
 688 025f 08       		.byte	0x8
 689 0260 07       		.byte	0x7
 690 0261 8F       		.byte	0x8f
 691 0262 7F020000 		.4byte	0x27f
 692 0266 06       		.uleb128 0x6
 693 0267 62000000 		.4byte	.LASF47
 694 026b 07       		.byte	0x7
 695 026c 90       		.byte	0x90
 696 026d 25020000 		.4byte	0x225
 697 0271 00       		.byte	0
 698 0272 06       		.uleb128 0x6
 699 0273 D6000000 		.4byte	.LASF50
 700 0277 07       		.byte	0x7
 701 0278 91       		.byte	0x91
 702 0279 25020000 		.4byte	0x225
 703 027d 04       		.byte	0x4
 704 027e 00       		.byte	0
 705 027f 04       		.uleb128 0x4
 706 0280 A0040000 		.4byte	.LASF51
 707 0284 06       		.byte	0x6
 708 0285 57       		.byte	0x57
 709 0286 8A020000 		.4byte	0x28a
 710 028a 0B       		.uleb128 0xb
 711 028b A0000000 		.4byte	.LASF52
 712 028f 1C       		.byte	0x1c
 713 0290 07       		.byte	0x7
 714 0291 6A01     		.2byte	0x16a
 715 0293 E6020000 		.4byte	0x2e6
 716 0297 09       		.uleb128 0x9
 717 0298 AD040000 		.4byte	.LASF28
 718 029c 07       		.byte	0x7
 719 029d 6B01     		.2byte	0x16b
 720 029f 4F020000 		.4byte	0x24f
 721 02a3 00       		.byte	0
 722 02a4 09       		.uleb128 0x9
 723 02a5 51020000 		.4byte	.LASF29
 724 02a9 07       		.byte	0x7
 725 02aa 6C01     		.2byte	0x16c
 726 02ac FA000000 		.4byte	0xfa
 727 02b0 08       		.byte	0x8
 728 02b1 08       		.uleb128 0x8
 729 02b2 63747800 		.ascii	"ctx\000"
 730 02b6 07       		.byte	0x7
 731 02b7 6E01     		.2byte	0x16e
 732 02b9 60040000 		.4byte	0x460
 733 02bd 0C       		.byte	0xc
 734 02be 09       		.uleb128 0x9
 735 02bf C3040000 		.4byte	.LASF30
 736 02c3 07       		.byte	0x7
 737 02c4 7101     		.2byte	0x171
 738 02c6 25020000 		.4byte	0x225
ARM GAS  /tmp/ccUxSct7.s 			page 27


 739 02ca 10       		.byte	0x10
 740 02cb 09       		.uleb128 0x9
 741 02cc 73050000 		.4byte	.LASF31
 742 02d0 07       		.byte	0x7
 743 02d1 7201     		.2byte	0x172
 744 02d3 25020000 		.4byte	0x225
 745 02d7 14       		.byte	0x14
 746 02d8 09       		.uleb128 0x9
 747 02d9 6B050000 		.4byte	.LASF53
 748 02dd 07       		.byte	0x7
 749 02de 7501     		.2byte	0x175
 750 02e0 25020000 		.4byte	0x225
 751 02e4 18       		.byte	0x18
 752 02e5 00       		.byte	0
 753 02e6 04       		.uleb128 0x4
 754 02e7 F1000000 		.4byte	.LASF54
 755 02eb 06       		.byte	0x6
 756 02ec 5C       		.byte	0x5c
 757 02ed F1020000 		.4byte	0x2f1
 758 02f1 0A       		.uleb128 0xa
 759 02f2 04       		.byte	0x4
 760 02f3 F7020000 		.4byte	0x2f7
 761 02f7 0C       		.uleb128 0xc
 762 02f8 02030000 		.4byte	0x302
 763 02fc 0D       		.uleb128 0xd
 764 02fd 02030000 		.4byte	0x302
 765 0301 00       		.byte	0
 766 0302 0E       		.uleb128 0xe
 767 0303 04       		.byte	0x4
 768 0304 04       		.uleb128 0x4
 769 0305 DE020000 		.4byte	.LASF55
 770 0309 06       		.byte	0x6
 771 030a 61       		.byte	0x61
 772 030b 0F030000 		.4byte	0x30f
 773 030f 0B       		.uleb128 0xb
 774 0310 59010000 		.4byte	.LASF56
 775 0314 14       		.byte	0x14
 776 0315 07       		.byte	0x7
 777 0316 4501     		.2byte	0x145
 778 0318 5E030000 		.4byte	0x35e
 779 031c 09       		.uleb128 0x9
 780 031d 62000000 		.4byte	.LASF47
 781 0321 07       		.byte	0x7
 782 0322 4601     		.2byte	0x146
 783 0324 FF060000 		.4byte	0x6ff
 784 0328 00       		.byte	0
 785 0329 09       		.uleb128 0x9
 786 032a D6000000 		.4byte	.LASF50
 787 032e 07       		.byte	0x7
 788 032f 4701     		.2byte	0x147
 789 0331 FF060000 		.4byte	0x6ff
 790 0335 04       		.byte	0x4
 791 0336 09       		.uleb128 0x9
 792 0337 47050000 		.4byte	.LASF57
 793 033b 07       		.byte	0x7
 794 033c 4801     		.2byte	0x148
 795 033e 26010000 		.4byte	0x126
ARM GAS  /tmp/ccUxSct7.s 			page 28


 796 0342 08       		.byte	0x8
 797 0343 09       		.uleb128 0x9
 798 0344 CA000000 		.4byte	.LASF58
 799 0348 07       		.byte	0x7
 800 0349 4901     		.2byte	0x149
 801 034b E6020000 		.4byte	0x2e6
 802 034f 0C       		.byte	0xc
 803 0350 08       		.uleb128 0x8
 804 0351 70617200 		.ascii	"par\000"
 805 0355 07       		.byte	0x7
 806 0356 4B01     		.2byte	0x14b
 807 0358 02030000 		.4byte	0x302
 808 035c 10       		.byte	0x10
 809 035d 00       		.byte	0
 810 035e 04       		.uleb128 0x4
 811 035f EA040000 		.4byte	.LASF59
 812 0363 06       		.byte	0x6
 813 0364 66       		.byte	0x66
 814 0365 69030000 		.4byte	0x369
 815 0369 0B       		.uleb128 0xb
 816 036a E4010000 		.4byte	.LASF60
 817 036e 0C       		.byte	0xc
 818 036f 07       		.byte	0x7
 819 0370 5501     		.2byte	0x155
 820 0372 AB030000 		.4byte	0x3ab
 821 0376 09       		.uleb128 0x9
 822 0377 62000000 		.4byte	.LASF47
 823 037b 07       		.byte	0x7
 824 037c 5601     		.2byte	0x156
 825 037e FF060000 		.4byte	0x6ff
 826 0382 00       		.byte	0
 827 0383 09       		.uleb128 0x9
 828 0384 D6000000 		.4byte	.LASF50
 829 0388 07       		.byte	0x7
 830 0389 5801     		.2byte	0x158
 831 038b FF060000 		.4byte	0x6ff
 832 038f 04       		.byte	0x4
 833 0390 09       		.uleb128 0x9
 834 0391 47050000 		.4byte	.LASF57
 835 0395 07       		.byte	0x7
 836 0396 5A01     		.2byte	0x15a
 837 0398 26010000 		.4byte	0x126
 838 039c 08       		.byte	0x8
 839 039d 09       		.uleb128 0x9
 840 039e 56040000 		.4byte	.LASF61
 841 03a2 07       		.byte	0x7
 842 03a3 6201     		.2byte	0x162
 843 03a5 26010000 		.4byte	0x126
 844 03a9 0A       		.byte	0xa
 845 03aa 00       		.byte	0
 846 03ab 04       		.uleb128 0x4
 847 03ac BB020000 		.4byte	.LASF62
 848 03b0 06       		.byte	0x6
 849 03b1 6B       		.byte	0x6b
 850 03b2 B6030000 		.4byte	0x3b6
 851 03b6 0B       		.uleb128 0xb
 852 03b7 FA000000 		.4byte	.LASF63
ARM GAS  /tmp/ccUxSct7.s 			page 29


 853 03bb 04       		.byte	0x4
 854 03bc 07       		.byte	0x7
 855 03bd 7C01     		.2byte	0x17c
 856 03bf D1030000 		.4byte	0x3d1
 857 03c3 09       		.uleb128 0x9
 858 03c4 91030000 		.4byte	.LASF64
 859 03c8 07       		.byte	0x7
 860 03c9 8401     		.2byte	0x184
 861 03cb 05070000 		.4byte	0x705
 862 03cf 00       		.byte	0
 863 03d0 00       		.byte	0
 864 03d1 04       		.uleb128 0x4
 865 03d2 17050000 		.4byte	.LASF65
 866 03d6 06       		.byte	0x6
 867 03d7 70       		.byte	0x70
 868 03d8 DC030000 		.4byte	0x3dc
 869 03dc 0B       		.uleb128 0xb
 870 03dd 34040000 		.4byte	.LASF66
 871 03e1 70       		.byte	0x70
 872 03e2 07       		.byte	0x7
 873 03e3 9C01     		.2byte	0x19c
 874 03e5 1E040000 		.4byte	0x41e
 875 03e9 09       		.uleb128 0x9
 876 03ea 68040000 		.4byte	.LASF67
 877 03ee 07       		.byte	0x7
 878 03ef A001     		.2byte	0x1a0
 879 03f1 7F020000 		.4byte	0x27f
 880 03f5 00       		.byte	0
 881 03f6 09       		.uleb128 0x9
 882 03f7 8C000000 		.4byte	.LASF68
 883 03fb 07       		.byte	0x7
 884 03fc A401     		.2byte	0x1a4
 885 03fe 5E030000 		.4byte	0x35e
 886 0402 1C       		.byte	0x1c
 887 0403 08       		.uleb128 0x8
 888 0404 64626700 		.ascii	"dbg\000"
 889 0408 07       		.byte	0x7
 890 0409 A801     		.2byte	0x1a8
 891 040b AB030000 		.4byte	0x3ab
 892 040f 28       		.byte	0x28
 893 0410 09       		.uleb128 0x9
 894 0411 A3030000 		.4byte	.LASF69
 895 0415 07       		.byte	0x7
 896 0416 AC01     		.2byte	0x1ac
 897 0418 31010000 		.4byte	0x131
 898 041c 2C       		.byte	0x2c
 899 041d 00       		.byte	0
 900 041e 03       		.uleb128 0x3
 901 041f 04       		.byte	0x4
 902 0420 07       		.byte	0x7
 903 0421 7D040000 		.4byte	.LASF70
 904 0425 0F       		.uleb128 0xf
 905 0426 C3000000 		.4byte	0xc3
 906 042a 10       		.uleb128 0x10
 907 042b C3000000 		.4byte	0xc3
 908 042f 3A040000 		.4byte	0x43a
 909 0433 11       		.uleb128 0x11
ARM GAS  /tmp/ccUxSct7.s 			page 30


 910 0434 1E040000 		.4byte	0x41e
 911 0438 01       		.byte	0x1
 912 0439 00       		.byte	0
 913 043a 10       		.uleb128 0x10
 914 043b C3000000 		.4byte	0xc3
 915 043f 4A040000 		.4byte	0x44a
 916 0443 11       		.uleb128 0x11
 917 0444 1E040000 		.4byte	0x41e
 918 0448 03       		.byte	0x3
 919 0449 00       		.byte	0
 920 044a 04       		.uleb128 0x4
 921 044b 17000000 		.4byte	.LASF71
 922 044f 08       		.byte	0x8
 923 0450 65       		.byte	0x65
 924 0451 02030000 		.4byte	0x302
 925 0455 04       		.uleb128 0x4
 926 0456 60050000 		.4byte	.LASF72
 927 045a 08       		.byte	0x8
 928 045b 6D       		.byte	0x6d
 929 045c CE000000 		.4byte	0xce
 930 0460 05       		.uleb128 0x5
 931 0461 93000000 		.4byte	.LASF73
 932 0465 04       		.byte	0x4
 933 0466 08       		.byte	0x8
 934 0467 89       		.byte	0x89
 935 0468 78040000 		.4byte	0x478
 936 046c 07       		.uleb128 0x7
 937 046d 737000   		.ascii	"sp\000"
 938 0470 08       		.byte	0x8
 939 0471 8A       		.byte	0x8a
 940 0472 F4040000 		.4byte	0x4f4
 941 0476 00       		.byte	0
 942 0477 00       		.byte	0
 943 0478 0B       		.uleb128 0xb
 944 0479 16040000 		.4byte	.LASF74
 945 047d 24       		.byte	0x24
 946 047e 09       		.byte	0x9
 947 047f 5901     		.2byte	0x159
 948 0481 F4040000 		.4byte	0x4f4
 949 0485 08       		.uleb128 0x8
 950 0486 723400   		.ascii	"r4\000"
 951 0489 09       		.byte	0x9
 952 048a 6C01     		.2byte	0x16c
 953 048c 4A040000 		.4byte	0x44a
 954 0490 00       		.byte	0
 955 0491 08       		.uleb128 0x8
 956 0492 723500   		.ascii	"r5\000"
 957 0495 09       		.byte	0x9
 958 0496 6D01     		.2byte	0x16d
 959 0498 4A040000 		.4byte	0x44a
 960 049c 04       		.byte	0x4
 961 049d 08       		.uleb128 0x8
 962 049e 723600   		.ascii	"r6\000"
 963 04a1 09       		.byte	0x9
 964 04a2 6E01     		.2byte	0x16e
 965 04a4 4A040000 		.4byte	0x44a
 966 04a8 08       		.byte	0x8
ARM GAS  /tmp/ccUxSct7.s 			page 31


 967 04a9 08       		.uleb128 0x8
 968 04aa 723700   		.ascii	"r7\000"
 969 04ad 09       		.byte	0x9
 970 04ae 6F01     		.2byte	0x16f
 971 04b0 4A040000 		.4byte	0x44a
 972 04b4 0C       		.byte	0xc
 973 04b5 08       		.uleb128 0x8
 974 04b6 723800   		.ascii	"r8\000"
 975 04b9 09       		.byte	0x9
 976 04ba 7001     		.2byte	0x170
 977 04bc 4A040000 		.4byte	0x44a
 978 04c0 10       		.byte	0x10
 979 04c1 08       		.uleb128 0x8
 980 04c2 723900   		.ascii	"r9\000"
 981 04c5 09       		.byte	0x9
 982 04c6 7101     		.2byte	0x171
 983 04c8 4A040000 		.4byte	0x44a
 984 04cc 14       		.byte	0x14
 985 04cd 08       		.uleb128 0x8
 986 04ce 72313000 		.ascii	"r10\000"
 987 04d2 09       		.byte	0x9
 988 04d3 7201     		.2byte	0x172
 989 04d5 4A040000 		.4byte	0x44a
 990 04d9 18       		.byte	0x18
 991 04da 08       		.uleb128 0x8
 992 04db 72313100 		.ascii	"r11\000"
 993 04df 09       		.byte	0x9
 994 04e0 7301     		.2byte	0x173
 995 04e2 4A040000 		.4byte	0x44a
 996 04e6 1C       		.byte	0x1c
 997 04e7 08       		.uleb128 0x8
 998 04e8 6C7200   		.ascii	"lr\000"
 999 04eb 09       		.byte	0x9
 1000 04ec 7401     		.2byte	0x174
 1001 04ee 4A040000 		.4byte	0x44a
 1002 04f2 20       		.byte	0x20
 1003 04f3 00       		.byte	0
 1004 04f4 0A       		.uleb128 0xa
 1005 04f5 04       		.byte	0x4
 1006 04f6 78040000 		.4byte	0x478
 1007 04fa 12       		.uleb128 0x12
 1008 04fb 60       		.byte	0x60
 1009 04fc 0A       		.byte	0xa
 1010 04fd A101     		.2byte	0x1a1
 1011 04ff 06060000 		.4byte	0x606
 1012 0503 08       		.uleb128 0x8
 1013 0504 43523100 		.ascii	"CR1\000"
 1014 0508 0A       		.byte	0xa
 1015 0509 A201     		.2byte	0x1a2
 1016 050b 25040000 		.4byte	0x425
 1017 050f 00       		.byte	0
 1018 0510 08       		.uleb128 0x8
 1019 0511 43523200 		.ascii	"CR2\000"
 1020 0515 0A       		.byte	0xa
 1021 0516 A301     		.2byte	0x1a3
 1022 0518 25040000 		.4byte	0x425
 1023 051c 04       		.byte	0x4
ARM GAS  /tmp/ccUxSct7.s 			page 32


 1024 051d 09       		.uleb128 0x9
 1025 051e AC020000 		.4byte	.LASF75
 1026 0522 0A       		.byte	0xa
 1027 0523 A401     		.2byte	0x1a4
 1028 0525 25040000 		.4byte	0x425
 1029 0529 08       		.byte	0x8
 1030 052a 09       		.uleb128 0x9
 1031 052b 4C020000 		.4byte	.LASF76
 1032 052f 0A       		.byte	0xa
 1033 0530 A501     		.2byte	0x1a5
 1034 0532 25040000 		.4byte	0x425
 1035 0536 0C       		.byte	0xc
 1036 0537 08       		.uleb128 0x8
 1037 0538 535200   		.ascii	"SR\000"
 1038 053b 0A       		.byte	0xa
 1039 053c A601     		.2byte	0x1a6
 1040 053e 25040000 		.4byte	0x425
 1041 0542 10       		.byte	0x10
 1042 0543 08       		.uleb128 0x8
 1043 0544 45475200 		.ascii	"EGR\000"
 1044 0548 0A       		.byte	0xa
 1045 0549 A701     		.2byte	0x1a7
 1046 054b 25040000 		.4byte	0x425
 1047 054f 14       		.byte	0x14
 1048 0550 09       		.uleb128 0x9
 1049 0551 6A010000 		.4byte	.LASF77
 1050 0555 0A       		.byte	0xa
 1051 0556 A801     		.2byte	0x1a8
 1052 0558 25040000 		.4byte	0x425
 1053 055c 18       		.byte	0x18
 1054 055d 09       		.uleb128 0x9
 1055 055e 70010000 		.4byte	.LASF78
 1056 0562 0A       		.byte	0xa
 1057 0563 A901     		.2byte	0x1a9
 1058 0565 25040000 		.4byte	0x425
 1059 0569 1C       		.byte	0x1c
 1060 056a 09       		.uleb128 0x9
 1061 056b 56020000 		.4byte	.LASF79
 1062 056f 0A       		.byte	0xa
 1063 0570 AA01     		.2byte	0x1aa
 1064 0572 25040000 		.4byte	0x425
 1065 0576 20       		.byte	0x20
 1066 0577 08       		.uleb128 0x8
 1067 0578 434E5400 		.ascii	"CNT\000"
 1068 057c 0A       		.byte	0xa
 1069 057d AB01     		.2byte	0x1ab
 1070 057f 25040000 		.4byte	0x425
 1071 0583 24       		.byte	0x24
 1072 0584 08       		.uleb128 0x8
 1073 0585 50534300 		.ascii	"PSC\000"
 1074 0589 0A       		.byte	0xa
 1075 058a AC01     		.2byte	0x1ac
 1076 058c 25040000 		.4byte	0x425
 1077 0590 28       		.byte	0x28
 1078 0591 08       		.uleb128 0x8
 1079 0592 41525200 		.ascii	"ARR\000"
 1080 0596 0A       		.byte	0xa
ARM GAS  /tmp/ccUxSct7.s 			page 33


 1081 0597 AD01     		.2byte	0x1ad
 1082 0599 25040000 		.4byte	0x425
 1083 059d 2C       		.byte	0x2c
 1084 059e 08       		.uleb128 0x8
 1085 059f 52435200 		.ascii	"RCR\000"
 1086 05a3 0A       		.byte	0xa
 1087 05a4 AE01     		.2byte	0x1ae
 1088 05a6 25040000 		.4byte	0x425
 1089 05aa 30       		.byte	0x30
 1090 05ab 08       		.uleb128 0x8
 1091 05ac 43435200 		.ascii	"CCR\000"
 1092 05b0 0A       		.byte	0xa
 1093 05b1 AF01     		.2byte	0x1af
 1094 05b3 06060000 		.4byte	0x606
 1095 05b7 34       		.byte	0x34
 1096 05b8 09       		.uleb128 0x9
 1097 05b9 32010000 		.4byte	.LASF80
 1098 05bd 0A       		.byte	0xa
 1099 05be B001     		.2byte	0x1b0
 1100 05c0 25040000 		.4byte	0x425
 1101 05c4 44       		.byte	0x44
 1102 05c5 08       		.uleb128 0x8
 1103 05c6 44435200 		.ascii	"DCR\000"
 1104 05ca 0A       		.byte	0xa
 1105 05cb B101     		.2byte	0x1b1
 1106 05cd 25040000 		.4byte	0x425
 1107 05d1 48       		.byte	0x48
 1108 05d2 09       		.uleb128 0x9
 1109 05d3 EC000000 		.4byte	.LASF81
 1110 05d7 0A       		.byte	0xa
 1111 05d8 B201     		.2byte	0x1b2
 1112 05da 25040000 		.4byte	0x425
 1113 05de 4C       		.byte	0x4c
 1114 05df 08       		.uleb128 0x8
 1115 05e0 4F5200   		.ascii	"OR\000"
 1116 05e3 0A       		.byte	0xa
 1117 05e4 B301     		.2byte	0x1b3
 1118 05e6 25040000 		.4byte	0x425
 1119 05ea 50       		.byte	0x50
 1120 05eb 09       		.uleb128 0x9
 1121 05ec 76010000 		.4byte	.LASF82
 1122 05f0 0A       		.byte	0xa
 1123 05f1 B401     		.2byte	0x1b4
 1124 05f3 25040000 		.4byte	0x425
 1125 05f7 54       		.byte	0x54
 1126 05f8 09       		.uleb128 0x9
 1127 05f9 FE030000 		.4byte	.LASF83
 1128 05fd 0A       		.byte	0xa
 1129 05fe B501     		.2byte	0x1b5
 1130 0600 0B060000 		.4byte	0x60b
 1131 0604 58       		.byte	0x58
 1132 0605 00       		.byte	0
 1133 0606 0F       		.uleb128 0xf
 1134 0607 3A040000 		.4byte	0x43a
 1135 060b 0F       		.uleb128 0xf
 1136 060c 2A040000 		.4byte	0x42a
 1137 0610 13       		.uleb128 0x13
ARM GAS  /tmp/ccUxSct7.s 			page 34


 1138 0611 19020000 		.4byte	.LASF84
 1139 0615 0A       		.byte	0xa
 1140 0616 B601     		.2byte	0x1b6
 1141 0618 FA040000 		.4byte	0x4fa
 1142 061c 14       		.uleb128 0x14
 1143 061d 04       		.byte	0x4
 1144 061e 07       		.byte	0x7
 1145 061f D2       		.byte	0xd2
 1146 0620 7F060000 		.4byte	0x67f
 1147 0624 15       		.uleb128 0x15
 1148 0625 04020000 		.4byte	.LASF85
 1149 0629 07       		.byte	0x7
 1150 062a D9       		.byte	0xd9
 1151 062b 05010000 		.4byte	0x105
 1152 062f 15       		.uleb128 0x15
 1153 0630 79050000 		.4byte	.LASF86
 1154 0634 07       		.byte	0x7
 1155 0635 E0       		.byte	0xe0
 1156 0636 05010000 		.4byte	0x105
 1157 063a 15       		.uleb128 0x15
 1158 063b 85000000 		.4byte	.LASF87
 1159 063f 07       		.byte	0x7
 1160 0640 E7       		.byte	0xe7
 1161 0641 02030000 		.4byte	0x302
 1162 0645 15       		.uleb128 0x15
 1163 0646 2A050000 		.4byte	.LASF88
 1164 064a 07       		.byte	0x7
 1165 064b EE       		.byte	0xee
 1166 064c 7F060000 		.4byte	0x67f
 1167 0650 15       		.uleb128 0x15
 1168 0651 1E010000 		.4byte	.LASF89
 1169 0655 07       		.byte	0x7
 1170 0656 F3       		.byte	0xf3
 1171 0657 05010000 		.4byte	0x105
 1172 065b 15       		.uleb128 0x15
 1173 065c 23050000 		.4byte	.LASF90
 1174 0660 07       		.byte	0x7
 1175 0661 FC       		.byte	0xfc
 1176 0662 AA060000 		.4byte	0x6aa
 1177 0666 16       		.uleb128 0x16
 1178 0667 10000000 		.4byte	.LASF91
 1179 066b 07       		.byte	0x7
 1180 066c 0501     		.2byte	0x105
 1181 066e E1060000 		.4byte	0x6e1
 1182 0672 16       		.uleb128 0x16
 1183 0673 CF000000 		.4byte	.LASF92
 1184 0677 07       		.byte	0x7
 1185 0678 0D01     		.2byte	0x10d
 1186 067a 10010000 		.4byte	0x110
 1187 067e 00       		.byte	0
 1188 067f 0A       		.uleb128 0xa
 1189 0680 04       		.byte	0x4
 1190 0681 1A020000 		.4byte	0x21a
 1191 0685 05       		.uleb128 0x5
 1192 0686 44010000 		.4byte	.LASF93
 1193 068a 0C       		.byte	0xc
 1194 068b 0B       		.byte	0xb
ARM GAS  /tmp/ccUxSct7.s 			page 35


 1195 068c 34       		.byte	0x34
 1196 068d AA060000 		.4byte	0x6aa
 1197 0691 06       		.uleb128 0x6
 1198 0692 AD040000 		.4byte	.LASF28
 1199 0696 0B       		.byte	0xb
 1200 0697 35       		.byte	0x35
 1201 0698 4F020000 		.4byte	0x24f
 1202 069c 00       		.byte	0
 1203 069d 07       		.uleb128 0x7
 1204 069e 636E7400 		.ascii	"cnt\000"
 1205 06a2 0B       		.byte	0xb
 1206 06a3 37       		.byte	0x37
 1207 06a4 1B010000 		.4byte	0x11b
 1208 06a8 08       		.byte	0x8
 1209 06a9 00       		.byte	0
 1210 06aa 0A       		.uleb128 0xa
 1211 06ab 04       		.byte	0x4
 1212 06ac 85060000 		.4byte	0x685
 1213 06b0 05       		.uleb128 0x5
 1214 06b1 38020000 		.4byte	.LASF94
 1215 06b5 10       		.byte	0x10
 1216 06b6 0C       		.byte	0xc
 1217 06b7 39       		.byte	0x39
 1218 06b8 E1060000 		.4byte	0x6e1
 1219 06bc 06       		.uleb128 0x6
 1220 06bd AD040000 		.4byte	.LASF28
 1221 06c1 0C       		.byte	0xc
 1222 06c2 3A       		.byte	0x3a
 1223 06c3 4F020000 		.4byte	0x24f
 1224 06c7 00       		.byte	0
 1225 06c8 06       		.uleb128 0x6
 1226 06c9 C6010000 		.4byte	.LASF95
 1227 06cd 0C       		.byte	0xc
 1228 06ce 3C       		.byte	0x3c
 1229 06cf 25020000 		.4byte	0x225
 1230 06d3 08       		.byte	0x8
 1231 06d4 06       		.uleb128 0x6
 1232 06d5 62000000 		.4byte	.LASF47
 1233 06d9 0C       		.byte	0xc
 1234 06da 3E       		.byte	0x3e
 1235 06db 15070000 		.4byte	0x715
 1236 06df 0C       		.byte	0xc
 1237 06e0 00       		.byte	0
 1238 06e1 0A       		.uleb128 0xa
 1239 06e2 04       		.byte	0x4
 1240 06e3 B0060000 		.4byte	0x6b0
 1241 06e7 0A       		.uleb128 0xa
 1242 06e8 04       		.byte	0x4
 1243 06e9 ED060000 		.4byte	0x6ed
 1244 06ed 17       		.uleb128 0x17
 1245 06ee F2060000 		.4byte	0x6f2
 1246 06f2 03       		.uleb128 0x3
 1247 06f3 01       		.byte	0x1
 1248 06f4 08       		.byte	0x8
 1249 06f5 5B020000 		.4byte	.LASF96
 1250 06f9 0A       		.uleb128 0xa
 1251 06fa 04       		.byte	0x4
ARM GAS  /tmp/ccUxSct7.s 			page 36


 1252 06fb 55040000 		.4byte	0x455
 1253 06ff 0A       		.uleb128 0xa
 1254 0700 04       		.byte	0x4
 1255 0701 04030000 		.4byte	0x304
 1256 0705 0F       		.uleb128 0xf
 1257 0706 E7060000 		.4byte	0x6e7
 1258 070a 04       		.uleb128 0x4
 1259 070b BB040000 		.4byte	.LASF97
 1260 070f 0C       		.byte	0xc
 1261 0710 34       		.byte	0x34
 1262 0711 B0060000 		.4byte	0x6b0
 1263 0715 0A       		.uleb128 0xa
 1264 0716 04       		.byte	0x4
 1265 0717 0A070000 		.4byte	0x70a
 1266 071b 03       		.uleb128 0x3
 1267 071c 01       		.byte	0x1
 1268 071d 02       		.byte	0x2
 1269 071e 25020000 		.4byte	.LASF98
 1270 0722 18       		.uleb128 0x18
 1271 0723 20000000 		.4byte	.LASF99
 1272 0727 02       		.byte	0x2
 1273 0728 99       		.byte	0x99
 1274 0729 03       		.byte	0x3
 1275 072a 3A070000 		.4byte	0x73a
 1276 072e 19       		.uleb128 0x19
 1277 072f C1010000 		.4byte	.LASF101
 1278 0733 02       		.byte	0x2
 1279 0734 99       		.byte	0x99
 1280 0735 26010000 		.4byte	0x126
 1281 0739 00       		.byte	0
 1282 073a 1A       		.uleb128 0x1a
 1283 073b 22040000 		.4byte	.LASF114
 1284 073f 02       		.byte	0x2
 1285 0740 A5       		.byte	0xa5
 1286 0741 03       		.byte	0x3
 1287 0742 18       		.uleb128 0x18
 1288 0743 00050000 		.4byte	.LASF100
 1289 0747 02       		.byte	0x2
 1290 0748 B1       		.byte	0xb1
 1291 0749 03       		.byte	0x3
 1292 074a 5A070000 		.4byte	0x75a
 1293 074e 19       		.uleb128 0x19
 1294 074f C1010000 		.4byte	.LASF101
 1295 0753 02       		.byte	0x2
 1296 0754 B1       		.byte	0xb1
 1297 0755 26010000 		.4byte	0x126
 1298 0759 00       		.byte	0
 1299 075a 1B       		.uleb128 0x1b
 1300 075b 7A020000 		.4byte	.LASF115
 1301 075f 02       		.byte	0x2
 1302 0760 BD       		.byte	0xbd
 1303 0761 26010000 		.4byte	0x126
 1304 0765 03       		.byte	0x3
 1305 0766 1C       		.uleb128 0x1c
 1306 0767 94020000 		.4byte	.LASF102
 1307 076b 01       		.byte	0x1
 1308 076c 3C       		.byte	0x3c
ARM GAS  /tmp/ccUxSct7.s 			page 37


 1309 076d 00000000 		.4byte	.LFB219
 1310 0771 04000000 		.4byte	.LFE219-.LFB219
 1311 0775 01       		.uleb128 0x1
 1312 0776 9C       		.byte	0x9c
 1313 0777 85070000 		.4byte	0x785
 1314 077b 1D       		.uleb128 0x1d
 1315 077c 04000000 		.4byte	.LVL0
 1316 0780 AD080000 		.4byte	0x8ad
 1317 0784 00       		.byte	0
 1318 0785 1C       		.uleb128 0x1c
 1319 0786 37010000 		.4byte	.LASF103
 1320 078a 01       		.byte	0x1
 1321 078b 4C       		.byte	0x4c
 1322 078c 00000000 		.4byte	.LFB220
 1323 0790 10000000 		.4byte	.LFE220-.LFB220
 1324 0794 01       		.uleb128 0x1
 1325 0795 9C       		.byte	0x9c
 1326 0796 C8070000 		.4byte	0x7c8
 1327 079a 1E       		.uleb128 0x1e
 1328 079b AE030000 		.4byte	.LASF106
 1329 079f 01       		.byte	0x1
 1330 07a0 4C       		.byte	0x4c
 1331 07a1 26010000 		.4byte	0x126
 1332 07a5 01       		.uleb128 0x1
 1333 07a6 50       		.byte	0x50
 1334 07a7 1F       		.uleb128 0x1f
 1335 07a8 0B020000 		.4byte	.LASF107
 1336 07ac D8070000 		.4byte	0x7d8
 1337 07b0 20       		.uleb128 0x20
 1338 07b1 22070000 		.4byte	0x722
 1339 07b5 00000000 		.4byte	.LBB10
 1340 07b9 10000000 		.4byte	.LBE10-.LBB10
 1341 07bd 01       		.byte	0x1
 1342 07be 50       		.byte	0x50
 1343 07bf 21       		.uleb128 0x21
 1344 07c0 2E070000 		.4byte	0x72e
 1345 07c4 01       		.uleb128 0x1
 1346 07c5 50       		.byte	0x50
 1347 07c6 00       		.byte	0
 1348 07c7 00       		.byte	0
 1349 07c8 10       		.uleb128 0x10
 1350 07c9 F2060000 		.4byte	0x6f2
 1351 07cd D8070000 		.4byte	0x7d8
 1352 07d1 11       		.uleb128 0x11
 1353 07d2 1E040000 		.4byte	0x41e
 1354 07d6 0C       		.byte	0xc
 1355 07d7 00       		.byte	0
 1356 07d8 17       		.uleb128 0x17
 1357 07d9 C8070000 		.4byte	0x7c8
 1358 07dd 1C       		.uleb128 0x1c
 1359 07de 4A040000 		.4byte	.LASF104
 1360 07e2 01       		.byte	0x1
 1361 07e3 5A       		.byte	0x5a
 1362 07e4 00000000 		.4byte	.LFB221
 1363 07e8 0A000000 		.4byte	.LFE221-.LFB221
 1364 07ec 01       		.uleb128 0x1
 1365 07ed 9C       		.byte	0x9c
ARM GAS  /tmp/ccUxSct7.s 			page 38


 1366 07ee 02080000 		.4byte	0x802
 1367 07f2 22       		.uleb128 0x22
 1368 07f3 3A070000 		.4byte	0x73a
 1369 07f7 00000000 		.4byte	.LBB12
 1370 07fb 0A000000 		.4byte	.LBE12-.LBB12
 1371 07ff 01       		.byte	0x1
 1372 0800 5C       		.byte	0x5c
 1373 0801 00       		.byte	0
 1374 0802 1C       		.uleb128 0x1c
 1375 0803 13010000 		.4byte	.LASF105
 1376 0807 01       		.byte	0x1
 1377 0808 68       		.byte	0x68
 1378 0809 00000000 		.4byte	.LFB222
 1379 080d 08000000 		.4byte	.LFE222-.LFB222
 1380 0811 01       		.uleb128 0x1
 1381 0812 9C       		.byte	0x9c
 1382 0813 45080000 		.4byte	0x845
 1383 0817 1E       		.uleb128 0x1e
 1384 0818 AE030000 		.4byte	.LASF106
 1385 081c 01       		.byte	0x1
 1386 081d 68       		.byte	0x68
 1387 081e 26010000 		.4byte	0x126
 1388 0822 01       		.uleb128 0x1
 1389 0823 50       		.byte	0x50
 1390 0824 1F       		.uleb128 0x1f
 1391 0825 AE000000 		.4byte	.LASF108
 1392 0829 55080000 		.4byte	0x855
 1393 082d 20       		.uleb128 0x20
 1394 082e 42070000 		.4byte	0x742
 1395 0832 00000000 		.4byte	.LBB14
 1396 0836 08000000 		.4byte	.LBE14-.LBB14
 1397 083a 01       		.byte	0x1
 1398 083b 6C       		.byte	0x6c
 1399 083c 21       		.uleb128 0x21
 1400 083d 4E070000 		.4byte	0x74e
 1401 0841 01       		.uleb128 0x1
 1402 0842 50       		.byte	0x50
 1403 0843 00       		.byte	0
 1404 0844 00       		.byte	0
 1405 0845 10       		.uleb128 0x10
 1406 0846 F2060000 		.4byte	0x6f2
 1407 084a 55080000 		.4byte	0x855
 1408 084e 11       		.uleb128 0x11
 1409 084f 1E040000 		.4byte	0x41e
 1410 0853 0A       		.byte	0xa
 1411 0854 00       		.byte	0
 1412 0855 17       		.uleb128 0x17
 1413 0856 45080000 		.4byte	0x845
 1414 085a 23       		.uleb128 0x23
 1415 085b 30050000 		.4byte	.LASF116
 1416 085f 01       		.byte	0x1
 1417 0860 78       		.byte	0x78
 1418 0861 26010000 		.4byte	0x126
 1419 0865 00000000 		.4byte	.LFB223
 1420 0869 0A000000 		.4byte	.LFE223-.LFB223
 1421 086d 01       		.uleb128 0x1
 1422 086e 9C       		.byte	0x9c
ARM GAS  /tmp/ccUxSct7.s 			page 39


 1423 086f 8C080000 		.4byte	0x88c
 1424 0873 1F       		.uleb128 0x1f
 1425 0874 BC000000 		.4byte	.LASF109
 1426 0878 8C080000 		.4byte	0x88c
 1427 087c 22       		.uleb128 0x22
 1428 087d 5A070000 		.4byte	0x75a
 1429 0881 00000000 		.4byte	.LBB16
 1430 0885 06000000 		.4byte	.LBE16-.LBB16
 1431 0889 01       		.byte	0x1
 1432 088a 7C       		.byte	0x7c
 1433 088b 00       		.byte	0
 1434 088c 17       		.uleb128 0x17
 1435 088d 45080000 		.4byte	0x845
 1436 0891 24       		.uleb128 0x24
 1437 0892 2B020000 		.4byte	.LASF110
 1438 0896 0D       		.byte	0xd
 1439 0897 9606     		.2byte	0x696
 1440 0899 9D080000 		.4byte	0x89d
 1441 089d 0F       		.uleb128 0xf
 1442 089e B8000000 		.4byte	0xb8
 1443 08a2 25       		.uleb128 0x25
 1444 08a3 636800   		.ascii	"ch\000"
 1445 08a6 07       		.byte	0x7
 1446 08a7 D201     		.2byte	0x1d2
 1447 08a9 D1030000 		.4byte	0x3d1
 1448 08ad 26       		.uleb128 0x26
 1449 08ae 3E040000 		.4byte	.LASF117
 1450 08b2 02       		.byte	0x2
 1451 08b3 7B       		.byte	0x7b
 1452 08b4 00       		.byte	0
 1453              		.section	.debug_abbrev,"",%progbits
 1454              	.Ldebug_abbrev0:
 1455 0000 01       		.uleb128 0x1
 1456 0001 11       		.uleb128 0x11
 1457 0002 01       		.byte	0x1
 1458 0003 25       		.uleb128 0x25
 1459 0004 0E       		.uleb128 0xe
 1460 0005 13       		.uleb128 0x13
 1461 0006 0B       		.uleb128 0xb
 1462 0007 03       		.uleb128 0x3
 1463 0008 0E       		.uleb128 0xe
 1464 0009 1B       		.uleb128 0x1b
 1465 000a 0E       		.uleb128 0xe
 1466 000b 55       		.uleb128 0x55
 1467 000c 17       		.uleb128 0x17
 1468 000d 11       		.uleb128 0x11
 1469 000e 01       		.uleb128 0x1
 1470 000f 10       		.uleb128 0x10
 1471 0010 17       		.uleb128 0x17
 1472 0011 00       		.byte	0
 1473 0012 00       		.byte	0
 1474 0013 02       		.uleb128 0x2
 1475 0014 24       		.uleb128 0x24
 1476 0015 00       		.byte	0
 1477 0016 0B       		.uleb128 0xb
 1478 0017 0B       		.uleb128 0xb
 1479 0018 3E       		.uleb128 0x3e
ARM GAS  /tmp/ccUxSct7.s 			page 40


 1480 0019 0B       		.uleb128 0xb
 1481 001a 03       		.uleb128 0x3
 1482 001b 08       		.uleb128 0x8
 1483 001c 00       		.byte	0
 1484 001d 00       		.byte	0
 1485 001e 03       		.uleb128 0x3
 1486 001f 24       		.uleb128 0x24
 1487 0020 00       		.byte	0
 1488 0021 0B       		.uleb128 0xb
 1489 0022 0B       		.uleb128 0xb
 1490 0023 3E       		.uleb128 0x3e
 1491 0024 0B       		.uleb128 0xb
 1492 0025 03       		.uleb128 0x3
 1493 0026 0E       		.uleb128 0xe
 1494 0027 00       		.byte	0
 1495 0028 00       		.byte	0
 1496 0029 04       		.uleb128 0x4
 1497 002a 16       		.uleb128 0x16
 1498 002b 00       		.byte	0
 1499 002c 03       		.uleb128 0x3
 1500 002d 0E       		.uleb128 0xe
 1501 002e 3A       		.uleb128 0x3a
 1502 002f 0B       		.uleb128 0xb
 1503 0030 3B       		.uleb128 0x3b
 1504 0031 0B       		.uleb128 0xb
 1505 0032 49       		.uleb128 0x49
 1506 0033 13       		.uleb128 0x13
 1507 0034 00       		.byte	0
 1508 0035 00       		.byte	0
 1509 0036 05       		.uleb128 0x5
 1510 0037 13       		.uleb128 0x13
 1511 0038 01       		.byte	0x1
 1512 0039 03       		.uleb128 0x3
 1513 003a 0E       		.uleb128 0xe
 1514 003b 0B       		.uleb128 0xb
 1515 003c 0B       		.uleb128 0xb
 1516 003d 3A       		.uleb128 0x3a
 1517 003e 0B       		.uleb128 0xb
 1518 003f 3B       		.uleb128 0x3b
 1519 0040 0B       		.uleb128 0xb
 1520 0041 01       		.uleb128 0x1
 1521 0042 13       		.uleb128 0x13
 1522 0043 00       		.byte	0
 1523 0044 00       		.byte	0
 1524 0045 06       		.uleb128 0x6
 1525 0046 0D       		.uleb128 0xd
 1526 0047 00       		.byte	0
 1527 0048 03       		.uleb128 0x3
 1528 0049 0E       		.uleb128 0xe
 1529 004a 3A       		.uleb128 0x3a
 1530 004b 0B       		.uleb128 0xb
 1531 004c 3B       		.uleb128 0x3b
 1532 004d 0B       		.uleb128 0xb
 1533 004e 49       		.uleb128 0x49
 1534 004f 13       		.uleb128 0x13
 1535 0050 38       		.uleb128 0x38
 1536 0051 0B       		.uleb128 0xb
ARM GAS  /tmp/ccUxSct7.s 			page 41


 1537 0052 00       		.byte	0
 1538 0053 00       		.byte	0
 1539 0054 07       		.uleb128 0x7
 1540 0055 0D       		.uleb128 0xd
 1541 0056 00       		.byte	0
 1542 0057 03       		.uleb128 0x3
 1543 0058 08       		.uleb128 0x8
 1544 0059 3A       		.uleb128 0x3a
 1545 005a 0B       		.uleb128 0xb
 1546 005b 3B       		.uleb128 0x3b
 1547 005c 0B       		.uleb128 0xb
 1548 005d 49       		.uleb128 0x49
 1549 005e 13       		.uleb128 0x13
 1550 005f 38       		.uleb128 0x38
 1551 0060 0B       		.uleb128 0xb
 1552 0061 00       		.byte	0
 1553 0062 00       		.byte	0
 1554 0063 08       		.uleb128 0x8
 1555 0064 0D       		.uleb128 0xd
 1556 0065 00       		.byte	0
 1557 0066 03       		.uleb128 0x3
 1558 0067 08       		.uleb128 0x8
 1559 0068 3A       		.uleb128 0x3a
 1560 0069 0B       		.uleb128 0xb
 1561 006a 3B       		.uleb128 0x3b
 1562 006b 05       		.uleb128 0x5
 1563 006c 49       		.uleb128 0x49
 1564 006d 13       		.uleb128 0x13
 1565 006e 38       		.uleb128 0x38
 1566 006f 0B       		.uleb128 0xb
 1567 0070 00       		.byte	0
 1568 0071 00       		.byte	0
 1569 0072 09       		.uleb128 0x9
 1570 0073 0D       		.uleb128 0xd
 1571 0074 00       		.byte	0
 1572 0075 03       		.uleb128 0x3
 1573 0076 0E       		.uleb128 0xe
 1574 0077 3A       		.uleb128 0x3a
 1575 0078 0B       		.uleb128 0xb
 1576 0079 3B       		.uleb128 0x3b
 1577 007a 05       		.uleb128 0x5
 1578 007b 49       		.uleb128 0x49
 1579 007c 13       		.uleb128 0x13
 1580 007d 38       		.uleb128 0x38
 1581 007e 0B       		.uleb128 0xb
 1582 007f 00       		.byte	0
 1583 0080 00       		.byte	0
 1584 0081 0A       		.uleb128 0xa
 1585 0082 0F       		.uleb128 0xf
 1586 0083 00       		.byte	0
 1587 0084 0B       		.uleb128 0xb
 1588 0085 0B       		.uleb128 0xb
 1589 0086 49       		.uleb128 0x49
 1590 0087 13       		.uleb128 0x13
 1591 0088 00       		.byte	0
 1592 0089 00       		.byte	0
 1593 008a 0B       		.uleb128 0xb
ARM GAS  /tmp/ccUxSct7.s 			page 42


 1594 008b 13       		.uleb128 0x13
 1595 008c 01       		.byte	0x1
 1596 008d 03       		.uleb128 0x3
 1597 008e 0E       		.uleb128 0xe
 1598 008f 0B       		.uleb128 0xb
 1599 0090 0B       		.uleb128 0xb
 1600 0091 3A       		.uleb128 0x3a
 1601 0092 0B       		.uleb128 0xb
 1602 0093 3B       		.uleb128 0x3b
 1603 0094 05       		.uleb128 0x5
 1604 0095 01       		.uleb128 0x1
 1605 0096 13       		.uleb128 0x13
 1606 0097 00       		.byte	0
 1607 0098 00       		.byte	0
 1608 0099 0C       		.uleb128 0xc
 1609 009a 15       		.uleb128 0x15
 1610 009b 01       		.byte	0x1
 1611 009c 27       		.uleb128 0x27
 1612 009d 19       		.uleb128 0x19
 1613 009e 01       		.uleb128 0x1
 1614 009f 13       		.uleb128 0x13
 1615 00a0 00       		.byte	0
 1616 00a1 00       		.byte	0
 1617 00a2 0D       		.uleb128 0xd
 1618 00a3 05       		.uleb128 0x5
 1619 00a4 00       		.byte	0
 1620 00a5 49       		.uleb128 0x49
 1621 00a6 13       		.uleb128 0x13
 1622 00a7 00       		.byte	0
 1623 00a8 00       		.byte	0
 1624 00a9 0E       		.uleb128 0xe
 1625 00aa 0F       		.uleb128 0xf
 1626 00ab 00       		.byte	0
 1627 00ac 0B       		.uleb128 0xb
 1628 00ad 0B       		.uleb128 0xb
 1629 00ae 00       		.byte	0
 1630 00af 00       		.byte	0
 1631 00b0 0F       		.uleb128 0xf
 1632 00b1 35       		.uleb128 0x35
 1633 00b2 00       		.byte	0
 1634 00b3 49       		.uleb128 0x49
 1635 00b4 13       		.uleb128 0x13
 1636 00b5 00       		.byte	0
 1637 00b6 00       		.byte	0
 1638 00b7 10       		.uleb128 0x10
 1639 00b8 01       		.uleb128 0x1
 1640 00b9 01       		.byte	0x1
 1641 00ba 49       		.uleb128 0x49
 1642 00bb 13       		.uleb128 0x13
 1643 00bc 01       		.uleb128 0x1
 1644 00bd 13       		.uleb128 0x13
 1645 00be 00       		.byte	0
 1646 00bf 00       		.byte	0
 1647 00c0 11       		.uleb128 0x11
 1648 00c1 21       		.uleb128 0x21
 1649 00c2 00       		.byte	0
 1650 00c3 49       		.uleb128 0x49
ARM GAS  /tmp/ccUxSct7.s 			page 43


 1651 00c4 13       		.uleb128 0x13
 1652 00c5 2F       		.uleb128 0x2f
 1653 00c6 0B       		.uleb128 0xb
 1654 00c7 00       		.byte	0
 1655 00c8 00       		.byte	0
 1656 00c9 12       		.uleb128 0x12
 1657 00ca 13       		.uleb128 0x13
 1658 00cb 01       		.byte	0x1
 1659 00cc 0B       		.uleb128 0xb
 1660 00cd 0B       		.uleb128 0xb
 1661 00ce 3A       		.uleb128 0x3a
 1662 00cf 0B       		.uleb128 0xb
 1663 00d0 3B       		.uleb128 0x3b
 1664 00d1 05       		.uleb128 0x5
 1665 00d2 01       		.uleb128 0x1
 1666 00d3 13       		.uleb128 0x13
 1667 00d4 00       		.byte	0
 1668 00d5 00       		.byte	0
 1669 00d6 13       		.uleb128 0x13
 1670 00d7 16       		.uleb128 0x16
 1671 00d8 00       		.byte	0
 1672 00d9 03       		.uleb128 0x3
 1673 00da 0E       		.uleb128 0xe
 1674 00db 3A       		.uleb128 0x3a
 1675 00dc 0B       		.uleb128 0xb
 1676 00dd 3B       		.uleb128 0x3b
 1677 00de 05       		.uleb128 0x5
 1678 00df 49       		.uleb128 0x49
 1679 00e0 13       		.uleb128 0x13
 1680 00e1 00       		.byte	0
 1681 00e2 00       		.byte	0
 1682 00e3 14       		.uleb128 0x14
 1683 00e4 17       		.uleb128 0x17
 1684 00e5 01       		.byte	0x1
 1685 00e6 0B       		.uleb128 0xb
 1686 00e7 0B       		.uleb128 0xb
 1687 00e8 3A       		.uleb128 0x3a
 1688 00e9 0B       		.uleb128 0xb
 1689 00ea 3B       		.uleb128 0x3b
 1690 00eb 0B       		.uleb128 0xb
 1691 00ec 01       		.uleb128 0x1
 1692 00ed 13       		.uleb128 0x13
 1693 00ee 00       		.byte	0
 1694 00ef 00       		.byte	0
 1695 00f0 15       		.uleb128 0x15
 1696 00f1 0D       		.uleb128 0xd
 1697 00f2 00       		.byte	0
 1698 00f3 03       		.uleb128 0x3
 1699 00f4 0E       		.uleb128 0xe
 1700 00f5 3A       		.uleb128 0x3a
 1701 00f6 0B       		.uleb128 0xb
 1702 00f7 3B       		.uleb128 0x3b
 1703 00f8 0B       		.uleb128 0xb
 1704 00f9 49       		.uleb128 0x49
 1705 00fa 13       		.uleb128 0x13
 1706 00fb 00       		.byte	0
 1707 00fc 00       		.byte	0
ARM GAS  /tmp/ccUxSct7.s 			page 44


 1708 00fd 16       		.uleb128 0x16
 1709 00fe 0D       		.uleb128 0xd
 1710 00ff 00       		.byte	0
 1711 0100 03       		.uleb128 0x3
 1712 0101 0E       		.uleb128 0xe
 1713 0102 3A       		.uleb128 0x3a
 1714 0103 0B       		.uleb128 0xb
 1715 0104 3B       		.uleb128 0x3b
 1716 0105 05       		.uleb128 0x5
 1717 0106 49       		.uleb128 0x49
 1718 0107 13       		.uleb128 0x13
 1719 0108 00       		.byte	0
 1720 0109 00       		.byte	0
 1721 010a 17       		.uleb128 0x17
 1722 010b 26       		.uleb128 0x26
 1723 010c 00       		.byte	0
 1724 010d 49       		.uleb128 0x49
 1725 010e 13       		.uleb128 0x13
 1726 010f 00       		.byte	0
 1727 0110 00       		.byte	0
 1728 0111 18       		.uleb128 0x18
 1729 0112 2E       		.uleb128 0x2e
 1730 0113 01       		.byte	0x1
 1731 0114 03       		.uleb128 0x3
 1732 0115 0E       		.uleb128 0xe
 1733 0116 3A       		.uleb128 0x3a
 1734 0117 0B       		.uleb128 0xb
 1735 0118 3B       		.uleb128 0x3b
 1736 0119 0B       		.uleb128 0xb
 1737 011a 27       		.uleb128 0x27
 1738 011b 19       		.uleb128 0x19
 1739 011c 20       		.uleb128 0x20
 1740 011d 0B       		.uleb128 0xb
 1741 011e 01       		.uleb128 0x1
 1742 011f 13       		.uleb128 0x13
 1743 0120 00       		.byte	0
 1744 0121 00       		.byte	0
 1745 0122 19       		.uleb128 0x19
 1746 0123 05       		.uleb128 0x5
 1747 0124 00       		.byte	0
 1748 0125 03       		.uleb128 0x3
 1749 0126 0E       		.uleb128 0xe
 1750 0127 3A       		.uleb128 0x3a
 1751 0128 0B       		.uleb128 0xb
 1752 0129 3B       		.uleb128 0x3b
 1753 012a 0B       		.uleb128 0xb
 1754 012b 49       		.uleb128 0x49
 1755 012c 13       		.uleb128 0x13
 1756 012d 00       		.byte	0
 1757 012e 00       		.byte	0
 1758 012f 1A       		.uleb128 0x1a
 1759 0130 2E       		.uleb128 0x2e
 1760 0131 00       		.byte	0
 1761 0132 03       		.uleb128 0x3
 1762 0133 0E       		.uleb128 0xe
 1763 0134 3A       		.uleb128 0x3a
 1764 0135 0B       		.uleb128 0xb
ARM GAS  /tmp/ccUxSct7.s 			page 45


 1765 0136 3B       		.uleb128 0x3b
 1766 0137 0B       		.uleb128 0xb
 1767 0138 27       		.uleb128 0x27
 1768 0139 19       		.uleb128 0x19
 1769 013a 20       		.uleb128 0x20
 1770 013b 0B       		.uleb128 0xb
 1771 013c 00       		.byte	0
 1772 013d 00       		.byte	0
 1773 013e 1B       		.uleb128 0x1b
 1774 013f 2E       		.uleb128 0x2e
 1775 0140 00       		.byte	0
 1776 0141 03       		.uleb128 0x3
 1777 0142 0E       		.uleb128 0xe
 1778 0143 3A       		.uleb128 0x3a
 1779 0144 0B       		.uleb128 0xb
 1780 0145 3B       		.uleb128 0x3b
 1781 0146 0B       		.uleb128 0xb
 1782 0147 27       		.uleb128 0x27
 1783 0148 19       		.uleb128 0x19
 1784 0149 49       		.uleb128 0x49
 1785 014a 13       		.uleb128 0x13
 1786 014b 20       		.uleb128 0x20
 1787 014c 0B       		.uleb128 0xb
 1788 014d 00       		.byte	0
 1789 014e 00       		.byte	0
 1790 014f 1C       		.uleb128 0x1c
 1791 0150 2E       		.uleb128 0x2e
 1792 0151 01       		.byte	0x1
 1793 0152 3F       		.uleb128 0x3f
 1794 0153 19       		.uleb128 0x19
 1795 0154 03       		.uleb128 0x3
 1796 0155 0E       		.uleb128 0xe
 1797 0156 3A       		.uleb128 0x3a
 1798 0157 0B       		.uleb128 0xb
 1799 0158 3B       		.uleb128 0x3b
 1800 0159 0B       		.uleb128 0xb
 1801 015a 27       		.uleb128 0x27
 1802 015b 19       		.uleb128 0x19
 1803 015c 11       		.uleb128 0x11
 1804 015d 01       		.uleb128 0x1
 1805 015e 12       		.uleb128 0x12
 1806 015f 06       		.uleb128 0x6
 1807 0160 40       		.uleb128 0x40
 1808 0161 18       		.uleb128 0x18
 1809 0162 9742     		.uleb128 0x2117
 1810 0164 19       		.uleb128 0x19
 1811 0165 01       		.uleb128 0x1
 1812 0166 13       		.uleb128 0x13
 1813 0167 00       		.byte	0
 1814 0168 00       		.byte	0
 1815 0169 1D       		.uleb128 0x1d
 1816 016a 898201   		.uleb128 0x4109
 1817 016d 00       		.byte	0
 1818 016e 11       		.uleb128 0x11
 1819 016f 01       		.uleb128 0x1
 1820 0170 9542     		.uleb128 0x2115
 1821 0172 19       		.uleb128 0x19
ARM GAS  /tmp/ccUxSct7.s 			page 46


 1822 0173 31       		.uleb128 0x31
 1823 0174 13       		.uleb128 0x13
 1824 0175 00       		.byte	0
 1825 0176 00       		.byte	0
 1826 0177 1E       		.uleb128 0x1e
 1827 0178 05       		.uleb128 0x5
 1828 0179 00       		.byte	0
 1829 017a 03       		.uleb128 0x3
 1830 017b 0E       		.uleb128 0xe
 1831 017c 3A       		.uleb128 0x3a
 1832 017d 0B       		.uleb128 0xb
 1833 017e 3B       		.uleb128 0x3b
 1834 017f 0B       		.uleb128 0xb
 1835 0180 49       		.uleb128 0x49
 1836 0181 13       		.uleb128 0x13
 1837 0182 02       		.uleb128 0x2
 1838 0183 18       		.uleb128 0x18
 1839 0184 00       		.byte	0
 1840 0185 00       		.byte	0
 1841 0186 1F       		.uleb128 0x1f
 1842 0187 34       		.uleb128 0x34
 1843 0188 00       		.byte	0
 1844 0189 03       		.uleb128 0x3
 1845 018a 0E       		.uleb128 0xe
 1846 018b 49       		.uleb128 0x49
 1847 018c 13       		.uleb128 0x13
 1848 018d 34       		.uleb128 0x34
 1849 018e 19       		.uleb128 0x19
 1850 018f 00       		.byte	0
 1851 0190 00       		.byte	0
 1852 0191 20       		.uleb128 0x20
 1853 0192 1D       		.uleb128 0x1d
 1854 0193 01       		.byte	0x1
 1855 0194 31       		.uleb128 0x31
 1856 0195 13       		.uleb128 0x13
 1857 0196 11       		.uleb128 0x11
 1858 0197 01       		.uleb128 0x1
 1859 0198 12       		.uleb128 0x12
 1860 0199 06       		.uleb128 0x6
 1861 019a 58       		.uleb128 0x58
 1862 019b 0B       		.uleb128 0xb
 1863 019c 59       		.uleb128 0x59
 1864 019d 0B       		.uleb128 0xb
 1865 019e 00       		.byte	0
 1866 019f 00       		.byte	0
 1867 01a0 21       		.uleb128 0x21
 1868 01a1 05       		.uleb128 0x5
 1869 01a2 00       		.byte	0
 1870 01a3 31       		.uleb128 0x31
 1871 01a4 13       		.uleb128 0x13
 1872 01a5 02       		.uleb128 0x2
 1873 01a6 18       		.uleb128 0x18
 1874 01a7 00       		.byte	0
 1875 01a8 00       		.byte	0
 1876 01a9 22       		.uleb128 0x22
 1877 01aa 1D       		.uleb128 0x1d
 1878 01ab 00       		.byte	0
ARM GAS  /tmp/ccUxSct7.s 			page 47


 1879 01ac 31       		.uleb128 0x31
 1880 01ad 13       		.uleb128 0x13
 1881 01ae 11       		.uleb128 0x11
 1882 01af 01       		.uleb128 0x1
 1883 01b0 12       		.uleb128 0x12
 1884 01b1 06       		.uleb128 0x6
 1885 01b2 58       		.uleb128 0x58
 1886 01b3 0B       		.uleb128 0xb
 1887 01b4 59       		.uleb128 0x59
 1888 01b5 0B       		.uleb128 0xb
 1889 01b6 00       		.byte	0
 1890 01b7 00       		.byte	0
 1891 01b8 23       		.uleb128 0x23
 1892 01b9 2E       		.uleb128 0x2e
 1893 01ba 01       		.byte	0x1
 1894 01bb 3F       		.uleb128 0x3f
 1895 01bc 19       		.uleb128 0x19
 1896 01bd 03       		.uleb128 0x3
 1897 01be 0E       		.uleb128 0xe
 1898 01bf 3A       		.uleb128 0x3a
 1899 01c0 0B       		.uleb128 0xb
 1900 01c1 3B       		.uleb128 0x3b
 1901 01c2 0B       		.uleb128 0xb
 1902 01c3 27       		.uleb128 0x27
 1903 01c4 19       		.uleb128 0x19
 1904 01c5 49       		.uleb128 0x49
 1905 01c6 13       		.uleb128 0x13
 1906 01c7 11       		.uleb128 0x11
 1907 01c8 01       		.uleb128 0x1
 1908 01c9 12       		.uleb128 0x12
 1909 01ca 06       		.uleb128 0x6
 1910 01cb 40       		.uleb128 0x40
 1911 01cc 18       		.uleb128 0x18
 1912 01cd 9742     		.uleb128 0x2117
 1913 01cf 19       		.uleb128 0x19
 1914 01d0 01       		.uleb128 0x1
 1915 01d1 13       		.uleb128 0x13
 1916 01d2 00       		.byte	0
 1917 01d3 00       		.byte	0
 1918 01d4 24       		.uleb128 0x24
 1919 01d5 34       		.uleb128 0x34
 1920 01d6 00       		.byte	0
 1921 01d7 03       		.uleb128 0x3
 1922 01d8 0E       		.uleb128 0xe
 1923 01d9 3A       		.uleb128 0x3a
 1924 01da 0B       		.uleb128 0xb
 1925 01db 3B       		.uleb128 0x3b
 1926 01dc 05       		.uleb128 0x5
 1927 01dd 49       		.uleb128 0x49
 1928 01de 13       		.uleb128 0x13
 1929 01df 3F       		.uleb128 0x3f
 1930 01e0 19       		.uleb128 0x19
 1931 01e1 3C       		.uleb128 0x3c
 1932 01e2 19       		.uleb128 0x19
 1933 01e3 00       		.byte	0
 1934 01e4 00       		.byte	0
 1935 01e5 25       		.uleb128 0x25
ARM GAS  /tmp/ccUxSct7.s 			page 48


 1936 01e6 34       		.uleb128 0x34
 1937 01e7 00       		.byte	0
 1938 01e8 03       		.uleb128 0x3
 1939 01e9 08       		.uleb128 0x8
 1940 01ea 3A       		.uleb128 0x3a
 1941 01eb 0B       		.uleb128 0xb
 1942 01ec 3B       		.uleb128 0x3b
 1943 01ed 05       		.uleb128 0x5
 1944 01ee 49       		.uleb128 0x49
 1945 01ef 13       		.uleb128 0x13
 1946 01f0 3F       		.uleb128 0x3f
 1947 01f1 19       		.uleb128 0x19
 1948 01f2 3C       		.uleb128 0x3c
 1949 01f3 19       		.uleb128 0x19
 1950 01f4 00       		.byte	0
 1951 01f5 00       		.byte	0
 1952 01f6 26       		.uleb128 0x26
 1953 01f7 2E       		.uleb128 0x2e
 1954 01f8 00       		.byte	0
 1955 01f9 3F       		.uleb128 0x3f
 1956 01fa 19       		.uleb128 0x19
 1957 01fb 03       		.uleb128 0x3
 1958 01fc 0E       		.uleb128 0xe
 1959 01fd 3A       		.uleb128 0x3a
 1960 01fe 0B       		.uleb128 0xb
 1961 01ff 3B       		.uleb128 0x3b
 1962 0200 0B       		.uleb128 0xb
 1963 0201 27       		.uleb128 0x27
 1964 0202 19       		.uleb128 0x19
 1965 0203 3C       		.uleb128 0x3c
 1966 0204 19       		.uleb128 0x19
 1967 0205 00       		.byte	0
 1968 0206 00       		.byte	0
 1969 0207 00       		.byte	0
 1970              		.section	.debug_aranges,"",%progbits
 1971 0000 3C000000 		.4byte	0x3c
 1972 0004 0200     		.2byte	0x2
 1973 0006 00000000 		.4byte	.Ldebug_info0
 1974 000a 04       		.byte	0x4
 1975 000b 00       		.byte	0
 1976 000c 0000     		.2byte	0
 1977 000e 0000     		.2byte	0
 1978 0010 00000000 		.4byte	.LFB219
 1979 0014 04000000 		.4byte	.LFE219-.LFB219
 1980 0018 00000000 		.4byte	.LFB220
 1981 001c 10000000 		.4byte	.LFE220-.LFB220
 1982 0020 00000000 		.4byte	.LFB221
 1983 0024 0A000000 		.4byte	.LFE221-.LFB221
 1984 0028 00000000 		.4byte	.LFB222
 1985 002c 08000000 		.4byte	.LFE222-.LFB222
 1986 0030 00000000 		.4byte	.LFB223
 1987 0034 0A000000 		.4byte	.LFE223-.LFB223
 1988 0038 00000000 		.4byte	0
 1989 003c 00000000 		.4byte	0
 1990              		.section	.debug_ranges,"",%progbits
 1991              	.Ldebug_ranges0:
 1992 0000 00000000 		.4byte	.LFB219
ARM GAS  /tmp/ccUxSct7.s 			page 49


 1993 0004 04000000 		.4byte	.LFE219
 1994 0008 00000000 		.4byte	.LFB220
 1995 000c 10000000 		.4byte	.LFE220
 1996 0010 00000000 		.4byte	.LFB221
 1997 0014 0A000000 		.4byte	.LFE221
 1998 0018 00000000 		.4byte	.LFB222
 1999 001c 08000000 		.4byte	.LFE222
 2000 0020 00000000 		.4byte	.LFB223
 2001 0024 0A000000 		.4byte	.LFE223
 2002 0028 00000000 		.4byte	0
 2003 002c 00000000 		.4byte	0
 2004              		.section	.debug_line,"",%progbits
 2005              	.Ldebug_line0:
 2006 0000 34020000 		.section	.debug_str,"MS",%progbits,1
 2006      0200BB01 
 2006      00000201 
 2006      FB0E0D00 
 2006      01010101 
 2007              	.LASF46:
 2008 0000 63685F74 		.ascii	"ch_threads_list\000"
 2008      68726561 
 2008      64735F6C 
 2008      69737400 
 2009              	.LASF91:
 2010 0010 77746D74 		.ascii	"wtmtxp\000"
 2010      787000
 2011              	.LASF71:
 2012 0017 72656761 		.ascii	"regarm_t\000"
 2012      726D5F74 
 2012      00
 2013              	.LASF99:
 2014 0020 73745F6C 		.ascii	"st_lld_start_alarm\000"
 2014      6C645F73 
 2014      74617274 
 2014      5F616C61 
 2014      726D00
 2015              	.LASF35:
 2016 0033 666C6167 		.ascii	"flags\000"
 2016      7300
 2017              	.LASF26:
 2018 0039 73797374 		.ascii	"systime_t\000"
 2018      696D655F 
 2018      7400
 2019              	.LASF41:
 2020 0043 7265616C 		.ascii	"realprio\000"
 2020      7072696F 
 2020      00
 2021              	.LASF39:
 2022 004c 6570656E 		.ascii	"epending\000"
 2022      64696E67 
 2022      00
 2023              	.LASF0:
 2024 0055 756E7369 		.ascii	"unsigned int\000"
 2024      676E6564 
 2024      20696E74 
 2024      00
 2025              	.LASF47:
ARM GAS  /tmp/ccUxSct7.s 			page 50


 2026 0062 6E657874 		.ascii	"next\000"
 2026      00
 2027              	.LASF44:
 2028 0067 74687265 		.ascii	"threads_list_t\000"
 2028      6164735F 
 2028      6C697374 
 2028      5F7400
 2029              	.LASF7:
 2030 0076 5F5F696E 		.ascii	"__int32_t\000"
 2030      7433325F 
 2030      7400
 2031              	.LASF36:
 2032 0080 72656673 		.ascii	"refs\000"
 2032      00
 2033              	.LASF87:
 2034 0085 77746F62 		.ascii	"wtobjp\000"
 2034      6A7000
 2035              	.LASF68:
 2036 008c 76746C69 		.ascii	"vtlist\000"
 2036      737400
 2037              	.LASF73:
 2038 0093 706F7274 		.ascii	"port_context\000"
 2038      5F636F6E 
 2038      74657874 
 2038      00
 2039              	.LASF52:
 2040 00a0 63685F72 		.ascii	"ch_ready_list\000"
 2040      65616479 
 2040      5F6C6973 
 2040      7400
 2041              	.LASF108:
 2042 00ae 5F5F6675 		.ascii	"__func__.6503\000"
 2042      6E635F5F 
 2042      2E363530 
 2042      3300
 2043              	.LASF109:
 2044 00bc 5F5F6675 		.ascii	"__func__.6507\000"
 2044      6E635F5F 
 2044      2E363530 
 2044      3700
 2045              	.LASF58:
 2046 00ca 66756E63 		.ascii	"func\000"
 2046      00
 2047              	.LASF92:
 2048 00cf 65776D61 		.ascii	"ewmask\000"
 2048      736B00
 2049              	.LASF50:
 2050 00d6 70726576 		.ascii	"prev\000"
 2050      00
 2051              	.LASF49:
 2052 00db 63685F74 		.ascii	"ch_threads_queue\000"
 2052      68726561 
 2052      64735F71 
 2052      75657565 
 2052      00
 2053              	.LASF81:
 2054 00ec 444D4152 		.ascii	"DMAR\000"
ARM GAS  /tmp/ccUxSct7.s 			page 51


 2054      00
 2055              	.LASF54:
 2056 00f1 76746675 		.ascii	"vtfunc_t\000"
 2056      6E635F74 
 2056      00
 2057              	.LASF63:
 2058 00fa 63685F73 		.ascii	"ch_system_debug\000"
 2058      79737465 
 2058      6D5F6465 
 2058      62756700 
 2059              	.LASF17:
 2060 010a 75696E74 		.ascii	"uint32_t\000"
 2060      33325F74 
 2060      00
 2061              	.LASF105:
 2062 0113 73745365 		.ascii	"stSetAlarm\000"
 2062      74416C61 
 2062      726D00
 2063              	.LASF89:
 2064 011e 73656E74 		.ascii	"sentmsg\000"
 2064      6D736700 
 2065              	.LASF24:
 2066 0126 6576656E 		.ascii	"eventmask_t\000"
 2066      746D6173 
 2066      6B5F7400 
 2067              	.LASF80:
 2068 0132 42445452 		.ascii	"BDTR\000"
 2068      00
 2069              	.LASF103:
 2070 0137 73745374 		.ascii	"stStartAlarm\000"
 2070      61727441 
 2070      6C61726D 
 2070      00
 2071              	.LASF93:
 2072 0144 63685F73 		.ascii	"ch_semaphore\000"
 2072      656D6170 
 2072      686F7265 
 2072      00
 2073              	.LASF22:
 2074 0151 74707269 		.ascii	"tprio_t\000"
 2074      6F5F7400 
 2075              	.LASF56:
 2076 0159 63685F76 		.ascii	"ch_virtual_timer\000"
 2076      69727475 
 2076      616C5F74 
 2076      696D6572 
 2076      00
 2077              	.LASF77:
 2078 016a 43434D52 		.ascii	"CCMR1\000"
 2078      3100
 2079              	.LASF78:
 2080 0170 43434D52 		.ascii	"CCMR2\000"
 2080      3200
 2081              	.LASF82:
 2082 0176 43434D52 		.ascii	"CCMR3\000"
 2082      3300
 2083              	.LASF13:
ARM GAS  /tmp/ccUxSct7.s 			page 52


 2084 017c 6C6F6E67 		.ascii	"long long unsigned int\000"
 2084      206C6F6E 
 2084      6720756E 
 2084      7369676E 
 2084      65642069 
 2085              	.LASF112:
 2086 0193 2E2E2F2E 		.ascii	"../../../os/hal/src/hal_st.c\000"
 2086      2E2F2E2E 
 2086      2F6F732F 
 2086      68616C2F 
 2086      7372632F 
 2087              	.LASF5:
 2088 01b0 5F5F7569 		.ascii	"__uint16_t\000"
 2088      6E743136 
 2088      5F7400
 2089              	.LASF25:
 2090 01bb 636E745F 		.ascii	"cnt_t\000"
 2090      7400
 2091              	.LASF101:
 2092 01c1 74696D65 		.ascii	"time\000"
 2092      00
 2093              	.LASF95:
 2094 01c6 6F776E65 		.ascii	"owner\000"
 2094      7200
 2095              	.LASF48:
 2096 01cc 74687265 		.ascii	"threads_queue_t\000"
 2096      6164735F 
 2096      71756575 
 2096      655F7400 
 2097              	.LASF40:
 2098 01dc 6D74786C 		.ascii	"mtxlist\000"
 2098      69737400 
 2099              	.LASF60:
 2100 01e4 63685F76 		.ascii	"ch_virtual_timers_list\000"
 2100      69727475 
 2100      616C5F74 
 2100      696D6572 
 2100      735F6C69 
 2101              	.LASF27:
 2102 01fb 74687265 		.ascii	"thread_t\000"
 2102      61645F74 
 2102      00
 2103              	.LASF85:
 2104 0204 7264796D 		.ascii	"rdymsg\000"
 2104      736700
 2105              	.LASF107:
 2106 020b 5F5F6675 		.ascii	"__func__.6496\000"
 2106      6E635F5F 
 2106      2E363439 
 2106      3600
 2107              	.LASF84:
 2108 0219 73746D33 		.ascii	"stm32_tim_t\000"
 2108      325F7469 
 2108      6D5F7400 
 2109              	.LASF98:
 2110 0225 5F426F6F 		.ascii	"_Bool\000"
 2110      6C00
ARM GAS  /tmp/ccUxSct7.s 			page 53


 2111              	.LASF110:
 2112 022b 49544D5F 		.ascii	"ITM_RxBuffer\000"
 2112      52784275 
 2112      66666572 
 2112      00
 2113              	.LASF94:
 2114 0238 63685F6D 		.ascii	"ch_mutex\000"
 2114      75746578 
 2114      00
 2115              	.LASF12:
 2116 0241 5F5F7569 		.ascii	"__uint64_t\000"
 2116      6E743634 
 2116      5F7400
 2117              	.LASF76:
 2118 024c 44494552 		.ascii	"DIER\000"
 2118      00
 2119              	.LASF29:
 2120 0251 7072696F 		.ascii	"prio\000"
 2120      00
 2121              	.LASF79:
 2122 0256 43434552 		.ascii	"CCER\000"
 2122      00
 2123              	.LASF96:
 2124 025b 63686172 		.ascii	"char\000"
 2124      00
 2125              	.LASF43:
 2126 0260 74687265 		.ascii	"thread_reference_t\000"
 2126      61645F72 
 2126      65666572 
 2126      656E6365 
 2126      5F7400
 2127              	.LASF33:
 2128 0273 77616261 		.ascii	"wabase\000"
 2128      736500
 2129              	.LASF115:
 2130 027a 73745F6C 		.ascii	"st_lld_get_alarm\000"
 2130      6C645F67 
 2130      65745F61 
 2130      6C61726D 
 2130      00
 2131              	.LASF20:
 2132 028b 74737461 		.ascii	"tstate_t\000"
 2132      74655F74 
 2132      00
 2133              	.LASF102:
 2134 0294 7374496E 		.ascii	"stInit\000"
 2134      697400
 2135              	.LASF14:
 2136 029b 75696E74 		.ascii	"uint8_t\000"
 2136      385F7400 
 2137              	.LASF38:
 2138 02a3 6D736771 		.ascii	"msgqueue\000"
 2138      75657565 
 2138      00
 2139              	.LASF75:
 2140 02ac 534D4352 		.ascii	"SMCR\000"
 2140      00
ARM GAS  /tmp/ccUxSct7.s 			page 54


 2141              	.LASF45:
 2142 02b1 63685F74 		.ascii	"ch_thread\000"
 2142      68726561 
 2142      6400
 2143              	.LASF62:
 2144 02bb 73797374 		.ascii	"system_debug_t\000"
 2144      656D5F64 
 2144      65627567 
 2144      5F7400
 2145              	.LASF11:
 2146 02ca 6C6F6E67 		.ascii	"long long int\000"
 2146      206C6F6E 
 2146      6720696E 
 2146      7400
 2147              	.LASF23:
 2148 02d8 6D73675F 		.ascii	"msg_t\000"
 2148      7400
 2149              	.LASF55:
 2150 02de 76697274 		.ascii	"virtual_timer_t\000"
 2150      75616C5F 
 2150      74696D65 
 2150      725F7400 
 2151              	.LASF111:
 2152 02ee 474E5520 		.ascii	"GNU C 4.8.2 -mcpu=cortex-m3 -mno-thumb-interwork -m"
 2152      4320342E 
 2152      382E3220 
 2152      2D6D6370 
 2152      753D636F 
 2153 0321 7468756D 		.ascii	"thumb -ggdb -O2 -fomit-frame-pointer -falign-functi"
 2153      62202D67 
 2153      67646220 
 2153      2D4F3220 
 2153      2D666F6D 
 2154 0354 6F6E733D 		.ascii	"ons=16 -ffunction-sections -fdata-sections -fno-com"
 2154      3136202D 
 2154      6666756E 
 2154      6374696F 
 2154      6E2D7365 
 2155 0387 6D6F6E20 		.ascii	"mon -flto\000"
 2155      2D666C74 
 2155      6F00
 2156              	.LASF64:
 2157 0391 70616E69 		.ascii	"panic_msg\000"
 2157      635F6D73 
 2157      6700
 2158              	.LASF19:
 2159 039b 746D6F64 		.ascii	"tmode_t\000"
 2159      655F7400 
 2160              	.LASF69:
 2161 03a3 6D61696E 		.ascii	"mainthread\000"
 2161      74687265 
 2161      616400
 2162              	.LASF106:
 2163 03ae 61627374 		.ascii	"abstime\000"
 2163      696D6500 
 2164              	.LASF113:
 2165 03b6 2F686F6D 		.ascii	"/home/jerson/ChibiOS_17.6.2/demos/STM32/RT-STM32F10"
ARM GAS  /tmp/ccUxSct7.s 			page 55


 2165      652F6A65 
 2165      72736F6E 
 2165      2F436869 
 2165      62694F53 
 2166 03e9 302D4449 		.ascii	"0-DISCOVERY\000"
 2166      53434F56 
 2166      45525900 
 2167              	.LASF15:
 2168 03f5 75696E74 		.ascii	"uint16_t\000"
 2168      31365F74 
 2168      00
 2169              	.LASF83:
 2170 03fe 43435852 		.ascii	"CCXR\000"
 2170      00
 2171              	.LASF3:
 2172 0403 73686F72 		.ascii	"short int\000"
 2172      7420696E 
 2172      7400
 2173              	.LASF8:
 2174 040d 6C6F6E67 		.ascii	"long int\000"
 2174      20696E74 
 2174      00
 2175              	.LASF74:
 2176 0416 706F7274 		.ascii	"port_intctx\000"
 2176      5F696E74 
 2176      63747800 
 2177              	.LASF114:
 2178 0422 73745F6C 		.ascii	"st_lld_stop_alarm\000"
 2178      6C645F73 
 2178      746F705F 
 2178      616C6172 
 2178      6D00
 2179              	.LASF66:
 2180 0434 63685F73 		.ascii	"ch_system\000"
 2180      79737465 
 2180      6D00
 2181              	.LASF117:
 2182 043e 73745F6C 		.ascii	"st_lld_init\000"
 2182      6C645F69 
 2182      6E697400 
 2183              	.LASF104:
 2184 044a 73745374 		.ascii	"stStopAlarm\000"
 2184      6F70416C 
 2184      61726D00 
 2185              	.LASF61:
 2186 0456 6C617374 		.ascii	"lasttime\000"
 2186      74696D65 
 2186      00
 2187              	.LASF18:
 2188 045f 75696E74 		.ascii	"uint64_t\000"
 2188      36345F74 
 2188      00
 2189              	.LASF67:
 2190 0468 726C6973 		.ascii	"rlist\000"
 2190      7400
 2191              	.LASF4:
 2192 046e 5F5F7569 		.ascii	"__uint8_t\000"
ARM GAS  /tmp/ccUxSct7.s 			page 56


 2192      6E74385F 
 2192      7400
 2193              	.LASF32:
 2194 0478 6E616D65 		.ascii	"name\000"
 2194      00
 2195              	.LASF70:
 2196 047d 73697A65 		.ascii	"sizetype\000"
 2196      74797065 
 2196      00
 2197              	.LASF21:
 2198 0486 74726566 		.ascii	"trefs_t\000"
 2198      735F7400 
 2199              	.LASF10:
 2200 048e 6C6F6E67 		.ascii	"long unsigned int\000"
 2200      20756E73 
 2200      69676E65 
 2200      6420696E 
 2200      7400
 2201              	.LASF51:
 2202 04a0 72656164 		.ascii	"ready_list_t\000"
 2202      795F6C69 
 2202      73745F74 
 2202      00
 2203              	.LASF28:
 2204 04ad 71756575 		.ascii	"queue\000"
 2204      6500
 2205              	.LASF16:
 2206 04b3 696E7433 		.ascii	"int32_t\000"
 2206      325F7400 
 2207              	.LASF97:
 2208 04bb 6D757465 		.ascii	"mutex_t\000"
 2208      785F7400 
 2209              	.LASF30:
 2210 04c3 6E657765 		.ascii	"newer\000"
 2210      7200
 2211              	.LASF2:
 2212 04c9 756E7369 		.ascii	"unsigned char\000"
 2212      676E6564 
 2212      20636861 
 2212      7200
 2213              	.LASF9:
 2214 04d7 5F5F7569 		.ascii	"__uint32_t\000"
 2214      6E743332 
 2214      5F7400
 2215              	.LASF37:
 2216 04e2 77616974 		.ascii	"waiting\000"
 2216      696E6700 
 2217              	.LASF59:
 2218 04ea 76697274 		.ascii	"virtual_timers_list_t\000"
 2218      75616C5F 
 2218      74696D65 
 2218      72735F6C 
 2218      6973745F 
 2219              	.LASF100:
 2220 0500 73745F6C 		.ascii	"st_lld_set_alarm\000"
 2220      6C645F73 
 2220      65745F61 
ARM GAS  /tmp/ccUxSct7.s 			page 57


 2220      6C61726D 
 2220      00
 2221              	.LASF34:
 2222 0511 73746174 		.ascii	"state\000"
 2222      6500
 2223              	.LASF65:
 2224 0517 63685F73 		.ascii	"ch_system_t\000"
 2224      79737465 
 2224      6D5F7400 
 2225              	.LASF90:
 2226 0523 77747365 		.ascii	"wtsemp\000"
 2226      6D7000
 2227              	.LASF88:
 2228 052a 77747472 		.ascii	"wttrp\000"
 2228      7000
 2229              	.LASF116:
 2230 0530 73744765 		.ascii	"stGetAlarm\000"
 2230      74416C61 
 2230      726D00
 2231              	.LASF1:
 2232 053b 7369676E 		.ascii	"signed char\000"
 2232      65642063 
 2232      68617200 
 2233              	.LASF57:
 2234 0547 64656C74 		.ascii	"delta\000"
 2234      6100
 2235              	.LASF6:
 2236 054d 73686F72 		.ascii	"short unsigned int\000"
 2236      7420756E 
 2236      7369676E 
 2236      65642069 
 2236      6E7400
 2237              	.LASF72:
 2238 0560 73746B61 		.ascii	"stkalign_t\000"
 2238      6C69676E 
 2238      5F7400
 2239              	.LASF53:
 2240 056b 63757272 		.ascii	"current\000"
 2240      656E7400 
 2241              	.LASF31:
 2242 0573 6F6C6465 		.ascii	"older\000"
 2242      7200
 2243              	.LASF86:
 2244 0579 65786974 		.ascii	"exitcode\000"
 2244      636F6465 
 2244      00
 2245              	.LASF42:
 2246 0582 6D706F6F 		.ascii	"mpool\000"
 2246      6C00
 2247              		.comm	__gnu_lto_v1,1,1
 2248              		.ident	"GCC: (4.8.2-14ubuntu1+6) 4.8.2"
ARM GAS  /tmp/ccUxSct7.s 			page 58


DEFINED SYMBOLS
                            *ABS*:0000000000000000 hal_st.c
     /tmp/ccUxSct7.s:249    .text.stInit:0000000000000000 $t
     /tmp/ccUxSct7.s:255    .text.stInit:0000000000000000 stInit
     /tmp/ccUxSct7.s:270    .text.stStartAlarm:0000000000000000 $t
     /tmp/ccUxSct7.s:276    .text.stStartAlarm:0000000000000000 stStartAlarm
     /tmp/ccUxSct7.s:306    .text.stStopAlarm:0000000000000000 $t
     /tmp/ccUxSct7.s:312    .text.stStopAlarm:0000000000000000 stStopAlarm
     /tmp/ccUxSct7.s:332    .text.stSetAlarm:0000000000000000 $t
     /tmp/ccUxSct7.s:338    .text.stSetAlarm:0000000000000000 stSetAlarm
     /tmp/ccUxSct7.s:358    .text.stGetAlarm:0000000000000000 $t
     /tmp/ccUxSct7.s:364    .text.stGetAlarm:0000000000000000 stGetAlarm
                            *COM*:0000000000000001 __gnu_lto_v1
                     .debug_frame:0000000000000010 $d

UNDEFINED SYMBOLS
st_lld_init
