ARM GAS  /tmp/ccbsOoKd.s 			page 1


   1              		.syntax unified
   2              		.cpu cortex-m3
   3              		.fpu softvfp
   4              		.eabi_attribute 20, 1
   5              		.eabi_attribute 21, 1
   6              		.eabi_attribute 23, 3
   7              		.eabi_attribute 24, 1
   8              		.eabi_attribute 25, 1
   9              		.eabi_attribute 26, 1
  10              		.eabi_attribute 30, 2
  11              		.eabi_attribute 34, 1
  12              		.eabi_attribute 18, 4
  13              		.thumb
  14              		.file	"hal_st_lld.c"
  15              		.text
  16              	.Ltext0:
  17              		.section	.gnu.lto_.jmpfuncs.b0062a1d0c5a7503,"",%progbits
  18 0000 789C6362 		.ascii	"x\234cb`b\300\006\244\2414X\226\221\201\211)\2021\223"
  18      6062C006 
  18      A4A13458 
  18      96918189 
  18      29823193 
  19 0014 91410628 		.ascii	"\221A\006(\000fp\000E\001\031\363\001\323"
  19      00667000 
  19      450119F3 
  19      01D3
  20              		.text
  21              		.section	.gnu.lto_.inline.b0062a1d0c5a7503,"",%progbits
  22 0000 789C6362 		.ascii	"x\234cb`b\300\006\254\2404P\226G\224\221\201\211\357"
  22      6062C006 
  22      ACA03450 
  22      96479491 
  22      8189EF
  23 0013 5E0003DB 		.ascii	"^\000\003\333\002y\260bF.8\301 \"\003\224\224yp\213"
  23      0279B062 
  23      462E38C1 
  23      20220394 
  23      9479708B 
  24 0027 112ECBCC 		.ascii	"\021.\313\314\003\326\305\000\000\260\004\005a"
  24      03D6C500 
  24      00B00405 
  24      61
  25              		.text
  26              		.section	.gnu.lto_.pureconst.b0062a1d0c5a7503,"",%progbits
  27 0000 789C6362 		.ascii	"x\234cb`b`e\200\000&\006+F)\000\001f\000a"
  27      60626065 
  27      80002606 
  27      2B462900 
  27      01660061 
  28              		.text
  29              		.section	.gnu.lto_VectorB0.b0062a1d0c5a7503,"",%progbits
  30 0000 789C8D53 		.ascii	"x\234\215S_HSQ\030\377\276s\357\3344\007\372\332\303"
  30      5F485351 
  30      18FFBE73 
  30      EFDC3407 
  30      FADAC3
  31 0013 1C421494 		.ascii	"\034B\024\224\273\251\017\275\026\366\"\270\0277\241"
ARM GAS  /tmp/ccbsOoKd.s 			page 2


  31      BBA90FBD 
  31      16F622B8 
  31      1737A1
  32 0022 9EC6F53A 		.ascii	"\236\306\365:\334\205\315\311\356\024\245\007\317\334"
  32      DC85CDC9 
  32      EE14A507 
  32      CFDC
  33 0030 1E0283C4 		.ascii	"\036\002\203\304\210\"\321\360!\243\036\222\"\"\024"
  33      8822D1F0 
  33      21A31E92 
  33      222214
  34 003f 4A7B3242 		.ascii	"J{2BE\212\010)\230/\202\364O\361\241Hm}\347^ww\035R"
  34      458A0829 
  34      982F82F4 
  34      4FF1A148 
  34      6D7DE75E 
  35 0057 7DEC3BDF 		.ascii	"}\354;\337w\276\177\347w~\347\216\001\203ri\"\235\224"
  35      77BE7FE7 
  35      777EE78E 
  35      01837269 
  35      229D94
  36 006a 007E9045 		.ascii	"\000~\220E\027 \033]\006\310x\030\223f}\300\253\344"
  36      17201B5D 
  36      06C87818 
  36      93667DC0 
  36      ABE4
  37 007c F70AF06A 		.ascii	"\367\012\360j\011e+,#\012\007\020\206\230$\343\320e"
  37      09652B2C 
  37      230A0710 
  37      869824E3 
  37      D065
  38 008e 3487CCB0 		.ascii	"4\207\314\260\371|\241\360\350\305\365\273{\370\222"
  38      F97CA1F0 
  38      E8C5F5BB 
  38      7BF892
  39 009d 7925D011 		.ascii	"y%\320\021d\261\220\270 \307\371\250\037@3\267aZ\305"
  39      64B190B8 
  39      20C7F9A8 
  39      1F4033B7 
  39      615AC5
  40 00b0 880E64C2 		.ascii	"\210\016d\302JK\360j\355\303\356:Sq\212\216\357F\351"
  40      4A4BF06A 
  40      EDC3EE3A 
  40      53718A8E 
  40      EF46E9
  41 00c3 343CE439 		.ascii	"4<\3449\324\021\307\341\016\031v\211\026\211\223\310"
  41      D411C7E1 
  41      0E197689 
  41      168993C8 
  42 00d3 60BAE681 		.ascii	"`\272\346\201\235X\304\277\004\331\271\354\006\026\333"
  42      9D58C4BF 
  42      04D9B9EC 
  42      0616DB
  43 00e2 659A20CA 		.ascii	"e\232 \312\314\233.B\356K\306k\247\314\270S:h\332\254"
  43      CC9B2E42 
  43      EE4BC66B 
  43      A7CCB853 
ARM GAS  /tmp/ccbsOoKd.s 			page 3


  43      3A68DAAC 
  44 00f6 4F4078FE 		.ascii	"O@x\376sw\373\000\202y~\206\207\376\023\201\210\230"
  44      7377FB00 
  44      82797E86 
  44      87FE1381 
  44      8898
  45 0108 EE6B18F6 		.ascii	"\356k\030\366\000\324\303\024\347c\371O\017\226\026"
  45      00D4C314 
  45      E763F94F 
  45      0F9616
  46 0117 702CCB17 		.ascii	"p,\313\027yn\276P\300:\035e\006](8\020\015.\277i*\344"
  46      796EBE50 
  46      C03A1D65 
  46      065D2838 
  46      100D2EBF 
  47 012e C36F2162 		.ascii	"\303o!b21\005\3130\274\275\226\235>nsg9\363so\307\245"
  47      323105CB 
  47      30BCBD96 
  47      9D3E6E73 
  47      6739F373 
  48 0145 532A4E63 		.ascii	"S*Nc\275M,\377\276\262 \331\005;7\027\275\015\245\335"
  48      BD4D2CFF 
  48      BEB220D9 
  48      053B3717 
  48      BD0DA5DD 
  49 0159 AD91DAC7 		.ascii	"\255\221\332\307.{\373fo\2076\326-5\024`\030\251D*\223"
  49      2E7BFB66 
  49      6F8736D6 
  49      2D351460 
  49      18A9442A 
  50 016e BAC07C57 		.ascii	"\272\300|W\204\217\024\"\366$\353c\361\301W\234\340"
  50      848F1422 
  50      F624EB63 
  50      F1C1579C 
  50      E0
  51 017f B7CFEBE8 		.ascii	"\267\317\353\350>\004\261\224\337:\310{\254K\254@vk"
  51      3E04B194 
  51      DF3AC87B 
  51      AC4BAC40 
  51      766B
  52 0191 EFDEC6B5 		.ascii	"\357\336\306\265\206r\360#\373Yw\351\370\012\253\372"
  52      8672F023 
  52      FB5977E9 
  52      F80AABFA 
  53 01a1 0AFCE257 		.ascii	"\012\374\342Wy\215\216\225\032\272U|j\301\320\261\252"
  53      798D8E95 
  53      1ABA557C 
  53      6AC1D0B1 
  53      AA
  54 01b2 9CD0CDE5 		.ascii	"\234\320\315\345rBU\274o^\340\237\214\302\337\030\375"
  54      724255BC 
  54      6F5EE09F 
  54      8CC2DF18 
  54      FD
  55 01c3 3C21187D 		.ascii	"<!\030}\346dt\356\335\272\223\321o^\305\301\350d\355"
  55      E66474EE 
  55      DDBA93D1 
ARM GAS  /tmp/ccbsOoKd.s 			page 4


  55      6F5EC5C1 
  55      E864ED
  56 01d6 AA83D1FD 		.ascii	"\252\203\321\375\033\216+yH+I\253H\217\035\301\250\212"
  56      1B8E2B79 
  56      482B49AB 
  56      488F1DC1 
  56      A88A
  57 01e8 33E4D890 		.ascii	"3\344\330\220\212\014\252\370\004}\316\217R6\377\030"
  57      8A0CAAF8 
  57      047DCE8F 
  57      5236FF18 
  58 01f8 C463FE77 		.ascii	"\304c\376w\2675\3730O\325`s\264\012\231|\341d\261\310"
  58      B735FB30 
  58      4FD56073 
  58      B40A997C 
  58      E164B1C8 
  59 020c 92303D2D 		.ascii	"\2220=-\015\020\263\233\003\001\305\372%\015%\246\306"
  59      0D10B39B 
  59      0301C5FA 
  59      250D25A6 
  59      C6
  60 021d 95DE642A 		.ascii	"\225\336d*m(\241p\260\271Iik\273\250\204[\203\375\215"
  60      6D28A170 
  60      B0B94969 
  60      6BBBA884 
  60      5B83FD8D 
  61 0231 221331D2 		.ascii	"\"\0231\322\221x\274+\240A\203\263GK&\022\311\236\203"
  61      9178BC2B 
  61      A04183B3 
  61      474B2612 
  61      C99E83
  62 0244 B60BEDC1 		.ascii	"\266\013\355\301\226\340\200\242\305\264d*\032\351?"
  62      96E080A2 
  62      C5B4642A 
  62      1AE93F
  63 0253 9708C4C0 		.ascii	"\227\010\304\300\325\257\306\373\242\215G\364D\007\322"
  63      D5AFC6FB 
  63      A28D47F4 
  63      4407D2
  64 0262 4A4B30D4 		.ascii	"JK0\324\032R\364\036-\336\327\025U\264\204\241\033\221"
  64      1A52F41E 
  64      2DDED715 
  64      55B484A1 
  64      1B91
  65 0274 6E4DA3BE 		.ascii	"nM\243\276:gG*]\252\211\031\203Fy^ O\032\264P\241\260"
  65      3A67472A 
  65      5DAA8919 
  65      8346795E 
  65      204F1AB4 
  66 028b 94AF0986 		.ascii	"\224\257\011\206\332\375\235\252\021\355M\351g\374'"
  66      DAFD9DAA 
  66      11ED4DE9 
  66      67FC27
  67 029a CE024B81 		.ascii	"\316\002K\201;\021M$S\203\360\007h\2222f"
  67      3B114D24 
  67      5383F007 
  67      68923266 
ARM GAS  /tmp/ccbsOoKd.s 			page 5


  68              		.text
  69              		.section	.gnu.lto_st_lld_init.b0062a1d0c5a7503,"",%progbits
  70 0000 789C95D3 		.ascii	"x\234\225\323\275O\302@\024\000\360\367\356\332\362"
  70      BD4FC240 
  70      1400F0F7 
  70      EEDAF2
  71 000f A1313A4A 		.ascii	"\2411:J\034\\\215\221F\211\263\213\013\011L\326D&\202"
  71      1C5C8D91 
  71      4689B38B 
  71      0B094CD6 
  71      442682
  72 0022 98200909 		.ascii	"\230 \011\011F\210\213\003G\304\204\301\2018\021u\320"
  72      46888B03 
  72      47C484C1 
  72      81381175 
  72      D0
  73 0033 150C6CA6 		.ascii	"\025\014l\246\306A\302\346\000\306\21581\352\177@\\"
  73      C641C2E6 
  73      00C68D38 
  73      31EA7F40 
  73      5C
  74 0044 EA5D3F40 		.ascii	"\352]?@\300\220\364\322\276k{\367~}m\257\004\010L\266"
  74      C090F4D2 
  74      BE6B7BF7 
  74      7E7D6DAF 
  74      04084CB6 
  75 0058 65BE0724 		.ascii	"e\276\007$\200m\336#\005$\225.@\321K\020\305\001 \024"
  75      806DDE23 
  75      0524952E 
  75      40D14B10 
  75      C5012014 
  76 006c 08166268 		.ascii	"\010\026bh\316m\222V\3370\032O\327wW\330%K\004\322\010"
  76      CE6D9256 
  76      DF301A4F 
  76      D77757D8 
  76      254B04D2 
  77 0081 54045904 		.ascii	"T\004Y\004E\004\336d(1VY\005H\232\247\032\217\202\332"
  77      4504DE64 
  77      28315659 
  77      05489AA7 
  77      1A8F82DA 
  78 0095 47227ADA 		.ascii	"G\"z\332\201\366\247^\013$\360\001eH!Y\207\032+\025"
  78      81F6A75E 
  78      0B24F001 
  78      65482159 
  78      871A2B15 
  79 00a9 17D388B7 		.ascii	"\027\323\210\267p\203i$\007<Pv_f\022\230\207\346\255"
  79      70836924 
  79      073C5076 
  79      5F661298 
  79      87E6AD
  80 00bc 0FD129B8 		.ascii	"\017\321)\270\003\027\317\324\311\246)k>\2409\322\016"
  80      0317CFD4 
  80      C9A6296B 
  80      3EA039D2 
  80      0E
  81 00cd 5B03EECC 		.ascii	"[\003\356\314\2248\027e\225\353\304\201\345IB\022y2"
ARM GAS  /tmp/ccbsOoKd.s 			page 6


  81      94381765 
  81      95EBC481 
  81      E5494212 
  81      7932
  82 00df 6B55D882 		.ascii	"kU\330\202I\3106\201\377\225\245p\300,\213-\316\254"
  82      49C83681 
  82      FF95A570 
  82      C02C8B2D 
  82      CEAC
  83 00f1 6B36CA1D 		.ascii	"k6\312\0353Y\037\324\333\364/\300v\206\202\"\322<\214"
  83      33591FD4 
  83      DBF42FC0 
  83      76868222 
  83      D23C8C
  84 0104 37EBC93C 		.ascii	"7\353\311<\266`}hq\005__\354\227\243W\033\256\035:r"
  84      B6607D68 
  84      71055F5F 
  84      EC97A357 
  84      1BAE1D3A 
  85 0119 0C83DA8E 		.ascii	"\014\203\332\216\356\336\221F\016\330Jo\250l\300\243"
  85      EEDE9146 
  85      0ED84A6F 
  85      A86CC0A3 
  86 0129 50627C70 		.ascii	"Pb|p\004zg\203\362\020\364\015\327\362\030?p_\2442\255"
  86      047A6783 
  86      F210F40D 
  86      D7F2183F 
  86      705FA432 
  87 013e 549BAE15 		.ascii	"T\233\256\025\317\264\242\273W\274#\305\371|=\367\212"
  87      CFB4A2BB 
  87      57BC23C5 
  87      F97C3DF7 
  87      8A
  88 014f 6F5C7987 		.ascii	"o\\y\207\313\376\333\267\337B\000\316\341\207\225\031"
  88      CBFEDBB7 
  88      DF4200CE 
  88      E1879519 
  89 015f 5F8EFEA4 		.ascii	"_\216\376\244\275\344\304\314\271\025\253\363\362\377"
  89      BDE4C4CC 
  89      B915ABF3 
  89      F2FF
  90 016d 791EE003 		.ascii	"y\036\340\003\212\375\2575'\305j\032\237\316\377e\261"
  90      8AFDAF35 
  90      27C56A1A 
  90      9FCEFF65 
  90      B1
  91 017e C842C1A0 		.ascii	"\310B\301\240jm\331\234z\234\310\250'\331\323|N\335"
  91      6A6DD99C 
  91      7A9CC8A8 
  91      27D9D37C 
  91      4EDD
  92 0190 D3A2A12D 		.ascii	"\323\242\241-5\022\331U\265p\364lS\214\304s\371x&s\024"
  92      3512D955 
  92      B570F46C 
  92      538CC473 
  92      F9782673 
  93 01a5 4CC22F21 		.ascii	"L\302/!\316\367_"
ARM GAS  /tmp/ccbsOoKd.s 			page 7


  93      CEF75F
  94              		.text
  95              		.section	.gnu.lto_.symbol_nodes.b0062a1d0c5a7503,"",%progbits
  96 0000 789C6362 		.ascii	"x\234cb`bHd\200\002\246\333\214\365\014\014\023\316"
  96      60624864 
  96      8002A6DB 
  96      8CF50C0C 
  96      13CE
  97 0012 3130D4D7 		.ascii	"10\324\327\317\353`d\272\303X\317\210\3402\336e\254"
  97      CFEB6064 
  97      BAC358CF 
  97      88E032DE 
  97      65AC
  98 0024 6782701B 		.ascii	"g\202p\033\032\030\031\3571\3263#x\367\031\353Y\340"
  98      1A1819EF 
  98      31D63323 
  98      78F719EB 
  98      59E0
  99 0036 3C660666 		.ascii	"<f\006f\206\303[M\230\201f/n{#\317\314\310\302p\270"
  99      86C35B4D 
  99      9881662F 
  99      6E7B23CF 
  99      CCC8C270 
 100 004b FD8D3C03 		.ascii	"\375\215<\003\000\310\245\0350"
 100      00C8A51D 
 100      30
 101              		.text
 102              		.section	.gnu.lto_.refs.b0062a1d0c5a7503,"",%progbits
 103 0000 789C6362 		.ascii	"x\234cb`b`d\200\002\000\000F\000\006"
 103      60626064 
 103      80020000 
 103      460006
 104              		.text
 105              		.section	.gnu.lto_.decls.b0062a1d0c5a7503,"",%progbits
 106 0000 789CA557 		.ascii	"x\234\245W\177p\024\325\035\177o/?M\2101*\023;\323\311"
 106      7F7014D5 
 106      1D7F6F2F 
 106      3F4D8831 
 106      2A133BD3 
 107 0015 31533B1D 		.ascii	"1S;\035\035\271$L\325\177JI\356\016\222\031\002\231"
 107      1DB9244C 
 107      D57F4A49 
 107      EE0E9219 
 107      0299
 108 0027 BDE030E3 		.ascii	"\275\3400\343\214\333\345r\230\233\336\017zw\301\360"
 108      8CDBE572 
 108      989BDE0F 
 108      7A77C1F0 
 109 0037 171B4315 		.ascii	"\027\033C\025\265\2263\001\214\0251AC\301\342\200\020"
 109      B5963301 
 109      8C153141 
 109      43C1E280 
 109      10
 110 0048 8188D093 		.ascii	"\201\210\320\223Q\314\000\323B&\246\221\264\303\211"
 110      51CC00D3 
 110      4226A691 
 110      B4C389
ARM GAS  /tmp/ccbsOoKd.s 			page 8


 111 0057 5AD411CA 		.ascii	"Z\324\021\312\017\025\253\340\365\373\336\356^\336\333"
 111      0F15ABE0 
 111      F5FBDEEE 
 111      5EDEDB
 112 0066 EC1E7B76 		.ascii	"\354\036{v'\337\357\276\333}\337\317\367\363\276\337"
 112      27DFEFBE 
 112      DB7DDFCF 
 112      F7F3BEDF 
 113 0076 EFBEBCAF 		.ascii	"\357\276\274\257\200\004\344\301\010e\340\372\254\032"
 113      8004E4C1 
 113      0865E0FA 
 113      AC1A
 114 0084 A1430E84 		.ascii	"\241C\016\204\340\017\315\007\201\307h\020\251W!\310"
 114      E00FCD07 
 114      81C76810 
 114      A95721C8 
 115 0094 0E905D20 		.ascii	"\016\220] \273A\336\000\331\207f^dN\031H1\310A\220\021"
 115      BB41DE00 
 115      D987665E 
 115      644E1948 
 115      31C84190 
 116 00a9 902F359C 		.ascii	"\220/5\234\012\220r\220\013 \227A\256\202\354\324\374"
 116      0A907290 
 116      0B209741 
 116      AE82ECD4 
 116      FC
 117 00ba 1C0399A5 		.ascii	"\034\003\231\245\331\177\005r\015\344;\220\033H\235"
 117      D97F0572 
 117      0DE43B90 
 117      1B489D
 118 00c9 508A559F 		.ascii	"P\212U\237\345p\277\025\244\012\344N\254r1^\2734,\235"
 118      E570BF15 
 118      A40AE44E 
 118      AC72315E 
 118      BB342C9D 
 119 00dd 4335CCFB 		.ascii	"C5\314\373%\310\375 \363\3614\247\017A\012@~\215U~\303"
 119      25C8FD20 
 119      F3F134A7 
 119      0F410A40 
 119      7E8D557E 
 120 00f2 20B780DC 		.ascii	" \267\200\334\013\277\177\0052\006\343q\220\343 \223"
 120      0BBF7F05 
 120      3206E371 
 120      90E32093 
 121 0102 20EF82A4 		.ascii	" \357\202\244@FA\216\200\010\232/\2638\224\242\365\212"
 121      4046418E 
 121      80089A2F 
 121      B33894A2 
 121      F58A
 122 0114 F2B832F0 		.ascii	"\362\2702\360\204\3224\012\353^\216e\\Q\212\234tP^J"
 122      84D2340A 
 122      EB5E8E65 
 122      5C518A9C 
 122      74505E4A 
 123 0128 DDDE8D5E 		.ascii	"\335\336\215^U\224d\372\275siAQJd<\210K\001\322\211"
 123      559464FA 
 123      BD736941 
ARM GAS  /tmp/ccbsOoKd.s 			page 9


 123      514A643C 
 123      884B01D2 
 124 013d D13D68A7 		.ascii	"\321=h\247\002o\024e\333\354\377\013\371\364G'\034\024"
 124      026F1465 
 124      DBECFF0B 
 124      F9F44727 
 124      1C14
 125 014f 7988223F 		.ascii	"y\210\"?\202\221\214_\305\367h82..eq\351o}\002\001\243"
 125      82918C5F 
 125      C5F76838 
 125      322E2E65 
 125      71E96F7D 
 126 0166 AFB50129 		.ascii	"\257\265\001)\217[Q\276\323k\320Ve \235\336\367\376"
 126      8F5B51BE 
 126      D36BD056 
 126      65209DDE 
 126      F7FE
 127 0178 7F6E7F41 		.ascii	"\177n\177AI\255S2\231\265h6\332\004\213#\364\025\234"
 127      49AD5332 
 127      99B56836 
 127      DA048B23 
 127      F4159C
 128 018b 90F1FC3B 		.ascii	"\220\361\374;MW@\360w\342\331\332h\231C\365)\240\227"
 128      4D5740F0 
 128      77E2D9DA 
 128      689943F5 
 128      29A097
 129 019e 30BF0884 		.ascii	"0\277\010\204~\216\206\010\236\262CqP42\177\007\256"
 129      7E8E8608 
 129      9EB24371 
 129      5034327F 
 129      07AE
 130 01b0 E1A9BE86 		.ascii	"\341\251\276\206\005\366\201\312+u\240\367\004Vz\225"
 130      05F681CA 
 130      2B75A0F7 
 130      04567A95 
 131 01c0 EB998C43 		.ascii	"\353\231\214Cs'\240\355\266\034\3542:x}\246\203t2\375"
 131      7327A0ED 
 131      B61CEC32 
 131      3A787DA6 
 131      837432FD 
 132 01d4 C133179E 		.ascii	"\3013\027\236\304\317\365\014\214*\227H<t\037\351\031"
 132      C4CFF50C 
 132      8C2A9748 
 132      3C741FE9 
 132      19
 133 01e5 3E54903D 		.ascii	">T\220=\246 \023\033\276)xA9\252FO\207\350\023\314!"
 133      A620131B 
 133      BE297841 
 133      39AA464F 
 133      87E813CC 
 134 01fa F69A426C 		.ascii	"\366\232Bl\351\373;\316B\330O\300\260\226\000\007\255"
 134      E9FB3BCE 
 134      42D84FC0 
 134      B0960007 
 134      AD
 135 020b 74A45628 		.ascii	"t\244V(\367\203\313\016M\320\230\005\261\003<1Z\304"
ARM GAS  /tmp/ccbsOoKd.s 			page 10


 135      F783CB0E 
 135      4DD09805 
 135      B1033C31 
 135      5AC4
 136 021d 3D398B58 		.ascii	"=9\213X\306\333\360\335\266\312\254\012=GV\344d\220"
 136      C6DBF0DD 
 136      B6CAAC0A 
 136      3D4756E4 
 136      6490
 137 022f 94221DEA 		.ascii	"\224\"\035\3527(\373=<\377\374\265\373\351\3670\202"
 137      3728FB3D 
 137      3CFFFCB5 
 137      FBE9F730 
 137      82
 138 0240 AB80EA66 		.ascii	"\253\200\352f\007O\365\2460\204\323\333`\252\032QP%"
 138      074FF5A6 
 138      3084D3DB 
 138      60AA1A51 
 138      5025
 139 0252 D53755AE 		.ascii	"\3257U\256\024\250\317\221\311\312\265k\016\032P\326"
 139      14A8CF91 
 139      C9CAB56B 
 139      0E1A50D6 
 140 0262 F5A4364D 		.ascii	"\365\2446Mm\271K\0318\012\220\007\351'\271\215R \266"
 140      6DB94B19 
 140      380A9007 
 140      E927B98D 
 140      5220B6
 141 0275 6611D086 		.ascii	"f\021\320\206\352\245M\340\3616O\225'e\035l{\336`N\016"
 141      EAA54DE0 
 141      F1364F95 
 141      27651D6C 
 141      7BDE604E 
 142 028a AC9F057B 		.ascii	"\254\237\005{\315\016X\2115\263?\261`\273\363\006\343"
 142      CD0E5889 
 142      35B33FB1 
 142      60BBF306 
 142      E3
 143 029b 996D61C1 		.ascii	"\231ma\301\206\355\200UZ3\333\312\202\035\310\033\214"
 143      86ED8055 
 143      5A33DBCA 
 143      821DC81B 
 143      8C
 144 02ac 67B68705 		.ascii	"g\266\207\005;d\007\254\332\232\331^\026\354\235\274"
 144      3B6407AC 
 144      DA9AD95E 
 144      16EC9DBC 
 145 02bc C17866C3 		.ascii	"\301xf\303,\330\373v\300\234\326\314\366\263`'\363\006"
 145      2CD8FB76 
 145      C09CD6CC 
 145      F6B36027 
 145      F306
 146 02ce E3991D64 		.ascii	"\343\231\035d\301N\331\001\373\2055\263\267X\260\361"
 146      C14ED901 
 146      FB8535B3 
 146      B758B0F1 
 147 02de BCC17866 		.ascii	"\274\301xfo\263`\223v\300j\255\230u\247\216<\234\224"
ARM GAS  /tmp/ccbsOoKd.s 			page 11


 147      6FB36093 
 147      76C06AAD 
 147      9875A78E 
 147      3C9C94
 148 02f1 6F43496D 		.ascii	"oCImKQQ\365m\005\363\245\305N\033\264\236&\3433\370"
 148      4B5151F5 
 148      6D05F3A5 
 148      C54E1BB4 
 148      9E26E333 
 149 0306 363AA2DB 		.ascii	"6:\242\333\247\242m\237t\206\325\036>\245\356\322\323"
 149      A7A26D9F 
 149      7486D51E 
 149      3EA5EED2 
 149      D3
 150 0317 9FBF3698 		.ascii	"\237\2776\230\336\263\331Y\260\354\177\032\227\315\263"
 150      DEB3D959 
 150      B0EC7F1A 
 150      97CDB3
 151 0326 305B371F 		.ascii	"0[7\037\304Sl\020\323v\202\270\300\032l\214\005\373"
 151      C4536C10 
 151      D37682B8 
 151      C01A6C8C 
 151      05FB
 152 0338 D40E5893 		.ascii	"\324\016X\223u\255\214\263`\237\347\015\3063\233`\301"
 152      75AD8CB3 
 152      609FE70D 
 152      C6339B60 
 152      C1
 153 0349 2EDA016B 		.ascii	".\332\001k\265f6\311\202]\316\033\214e\326\235:3]x\003"
 153      B56636C9 
 153      825DCE1B 
 153      8C65D69D 
 153      3A335D78 
 154 035e 0B0C95B7 		.ascii	"\013\014\225\267\200\337m\271i\203\226\323d\374y\336"
 154      80DF6DB9 
 154      698396D3 
 154      64FC79DE 
 155 036e 85F78545 		.ascii	"\205\367\205E\341a\256\360\276\230.\274k\306es$\264"
 155      E161AEF0 
 155      BE982EBC 
 155      6BC66573 
 155      24B4
 156 0380 E1729318 		.ascii	"\341r\223\030\232]\354?j\031\037\246\007\211#x\016\350"
 156      9A5DEC3F 
 156      6A191FA6 
 156      07892378 
 156      0EE8
 157 0392 14D547A9 		.ascii	"\024\325G\251~\227\352cT\217R}\234\352\223T\377\215"
 157      7E97EA63 
 157      548F527D 
 157      9CEA9354 
 157      FF8D
 158 03a4 EA53548F 		.ascii	"\352ST\217Q=N\365\004\325\223T\377\213\352\263T\177"
 158      513D4EF5 
 158      04D59354 
 158      FF8BEAB3 
 158      547F
ARM GAS  /tmp/ccbsOoKd.s 			page 12


 159 03b6 44F5C754 		.ascii	"D\365\307T\177J\365y\320\331\253\014==}nW\317 V\261"
 159      7F4AF579 
 159      D0D9AB0C 
 159      3D3D7D6E 
 159      57CF2056 
 160 03cb FB1297E9 		.ascii	"\373\022\227\351V\331\014\365Wh\007\377\364\220R]\235"
 160      56D90CF5 
 160      576807FF 
 160      F490525D 
 160      9D
 161 03dc 8D41091B 		.ascii	"\215A\011\033W\365H\002\006\202\214/\322Z\272\356\300"
 161      57F54802 
 161      06828C2F 
 161      D25ABAEE 
 161      C0
 162 03ed C6D0E801 		.ascii	"\306\320\350\001\272\310$H\035\353\243\014\316\302W"
 162      BAC82448 
 162      1DEBA30C 
 162      CEC257
 163 03fc EAF08266 		.ascii	"\352\360\202fuA+\004&u\372\356\325_\241\232k\246\017"
 163      75412B04 
 163      2675FAEE 
 163      D55FA19A 
 163      6BA60F
 164 040f EAA6C59A 		.ascii	"\352\246\305\232\301\345\274k\350\212E\015\025\231\207"
 164      C1E5BC6B 
 164      E88A450D 
 164      159987
 165 041e 941C8DAD 		.ascii	"\224\034\215\255\240\256BH\231\323\0319\030\247.\245"
 165      A0AE4248 
 165      99D31939 
 165      18A72EA5 
 166 042e FBCE8DAE 		.ascii	"\373\316\215\256\307\357\014=\241$\273\323\231\265/"
 166      C7EF0C3D 
 166      A124BBD3 
 166      99B52F
 167 043d A72AF5F3 		.ascii	"\247*\365\363\365`\201\2356\340+c\033\360\365\314\343"
 167      F560819D 
 167      36E02B63 
 167      1BF0F5CC 
 167      E3
 168 044e 377899D8 		.ascii	"7x\231\330p\266H\357\177\346\350\036\206my\270f\364"
 168      70B648EF 
 168      7FE6E81E 
 168      866D79B8 
 168      66F4
 169 0460 F0ADA987 		.ascii	"\360\255\251\207\361\023\327\357\232\341\341=[\036\276"
 169      F113D7EF 
 169      9AE1E13D 
 169      5B1EBE
 170 046f 337AF8DE 		.ascii	"3z\370\336\314Cj\374\337\243Z\257\324\263^\310\266!"
 170      CC436AFC 
 170      DFA35AAF 
 170      D4B35EC8 
 170      B621
 171 0481 93B65CDC 		.ascii	"\223\266\\\3340\272\370\301t\021\233\316_j\372\357^"
 171      30BAF8C1 
ARM GAS  /tmp/ccbsOoKd.s 			page 13


 171      74119BCE 
 171      5F6AFAEF 
 171      5E
 172 0492 45794AF9 		.ascii	"EyJ\371!\263\266{\335\034\373\215J\267`\322\250\030"
 172      21B3B67B 
 172      DD1CFB8D 
 172      4AB760D2 
 172      A818
 173 04a4 1A938D85 		.ascii	"\032\223\215\205,U:\023\316\337\205\332\347\3613\364"
 173      2C553A13 
 173      CEDF85DA 
 173      E7F133F4 
 174 04b4 8A02CB3B 		.ascii	"\212\002\313;}\254<\211\365N|\017\265P\204\032\213\366"
 174      7DAC3C89 
 174      F54E7C0F 
 174      B550841A 
 174      8BF6
 175 04c6 446B80B4 		.ascii	"Dk\200\264\025_\355n\255\316\256\230\030q+\356\021\314"
 175      155FED6E 
 175      ADCEAE98 
 175      18712BEE 
 175      11CC
 176 04d8 56DC77EE 		.ascii	"V\334w\356\333~\323\362\333_h'\256O\031\275<m\346%u"
 176      DB7ED3F2 
 176      DB5F6827 
 176      AE4F19BD 
 176      3C6DE625 
 177 04ed F09C59EA 		.ascii	"\360\234Y\352\216\333r\361\007\243\213gM\0272\261\341"
 177      8EDB72F1 
 177      07A38B67 
 177      4D1732B1 
 177      E1
 178 04fe EB99157E 		.ascii	"\353\231\025~\326\226\207\015F\017IS\017\343\317\034"
 178      D696870D 
 178      460F4953 
 178      0FE3CF1C 
 179 050e FBC90C0F 		.ascii	"\373\311\014\017Wly\3505z\3503\015\323\360y\2630=Yd"
 179      576C79E8 
 179      357AE833 
 179      0DD3F079 
 179      B3303D59 
 180 0523 C7C526A3 		.ascii	"\307\305&\243\213\315\274\013\263\326\322\301\236\245"
 180      8BCDBC0B 
 180      B3D6D2C1 
 180      9EA5
 181 0531 B40EF51F 		.ascii	"\264\016\365\037W>\013\367@\271\313\270_ -\352I\203"
 181      573E0BF7 
 181      40B9CBB8 
 181      5F202DEA 
 181      4983
 182 0543 F79BE210 		.ascii	"\367\233\342\020\337/\012\206\026\365\3733\264E%\317"
 182      DF2F0A86 
 182      16F5FB33 
 182      B44525CF 
 183 0553 6FDEA266 		.ascii	"o\336\242f\316l\344Z\324IJ\201\330\376\270\0265\311"
 183      CE6CE45A 
 183      D4494A81 
ARM GAS  /tmp/ccbsOoKd.s 			page 14


 183      D8FEB816 
 183      35C9
 184 0565 1E6DA6F2 		.ascii	"\036m\246\362\006sr`\275\334\331\322\016X\216\026u#"
 184      06737260 
 184      BDDCD9D2 
 184      0E588E16 
 184      7523
 185 0577 0BF649DE 		.ascii	"\013\366I\336`<3\256\023\277`\007,G\213\312u\342\337"
 185      603C33AE 
 185      13BF6007 
 185      2C478BCA 
 185      75E2DF
 186 058a E40DC633 		.ascii	"\344\015\3063\343:\361\033v\300r\264\250\\'\376\373"
 186      E33AF11B 
 186      76C072B4 
 186      A85C27FE 
 186      FB
 187 059b E27CC178 		.ascii	"\342|\301xf\\'\376\254\0350\24753\256\023\357\315\033"
 187      665C27FE 
 187      AC1D30A7 
 187      3533AE13 
 187      EFCD1B
 188 05ae 8C61A63C 		.ascii	"\214a\246<\236:\360\342\037\265\217@\375W\260\331\016"
 188      9E3AF0E2 
 188      1FB58F40 
 188      FD57B0D9 
 188      0E
 189 05bf 5E8E2E75 		.ascii	"^\216.ud\212\377\250\006\362\306s\"\313\213\375\342"
 189      648AFFA8 
 189      06F2C673 
 189      22CB8BFD 
 189      E2
 190 05d0 65BC4520 		.ascii	"e\274E g\335\227\004r\376|\231\352A\252_\241z\210\352"
 190      67DD9704 
 190      72FE7C99 
 190      EA41AA5F 
 190      A17A88EA 
 191 05e4 3F53BD93 		.ascii	"?S\275\223\352\277P\375:\325\273\251~\203\352}\202\365"
 191      EABF50FD 
 191      3AD5BBA9 
 191      7E83EA7D 
 191      82F5
 192 05f6 D9B5DF82 		.ascii	"\331\265\337\2028\341\362\246\220=\273j\273\025\351"
 192      38E1F2A6 
 192      903DBB6A 
 192      BB15E9
 193 0605 2EB2EBE0 		.ascii	".\262\353\340\016\365\352\256\227\372\240\027;e\274"
 193      0EF5EAAE 
 193      97FAA017 
 193      3B65BC
 194 0614 9FEE78DB 		.ascii	"\237\356x\333\213Mw<k\014\342s\304\270\343\035\036\243"
 194      8B4D773C 
 194      6B0CE273 
 194      C4B8E31D 
 194      1EA3
 195 0626 3BDE88AD 		.ascii	";\336\210\255\035\357\364\030\237\2347)\205\221\037"
 195      1DEFF418 
ARM GAS  /tmp/ccbsOoKd.s 			page 15


 195      9F9C3729 
 195      85911F
 196 0635 BDE38D8D 		.ascii	"\275\343\215\215e+Q\306[\005!O\260\234\231\036a2\375"
 196      652B51C6 
 196      5B05214F 
 196      B09C991E 
 196      6132FD
 197 0648 16CDF421 		.ascii	"\026\315\364!\232\255\3039\262\265?G\266\216Lg\313`"
 197      9AADC339 
 197      B2B53F47 
 197      B68E4C67 
 197      CB60
 198 065a 359CE330 		.ascii	"5\234\3430\375\327i+\364SWg<\346\012F\374\241\316\366"
 198      FDD7692B 
 198      F4535767 
 198      3CE60A46 
 198      FCA1CEF6 
 199 066e 802B1278 		.ascii	"\200+\022x,\024\\\341\212'\332\203\221\304\334\016T"
 199      2C145CE1 
 199      8A27DA83 
 199      91C4DC0E 
 199      54
 200 067f D209F779 		.ascii	"\322\011\367y\365R\242h\321\222eN7\272\317lvX\366w\004"
 200      F552A268 
 200      D192654E 
 200      37BACF6C 
 200      7658F677 
 201 0694 230197D4 		.ascii	"#\001\227\324\036X)w\206\022Rb\315\252@\034\254o\221"
 201      1E582977 
 201      86125262 
 201      CDAA401C 
 201      AC6F91
 202 06a7 24DD7EDE 		.ascii	"$\335~\336\334\271.\365/\032wu\310!\327\252h,\021w\371"
 202      DCB92EF5 
 202      2F1A7775 
 202      C821D7AA 
 202      682C1177 
 203 06bc DA5AE6D5 		.ascii	"\332Z\346\325\273\026/\366\270\332\232[V\327\2217R<"
 203      BB162FF6 
 203      B8DA9A5B 
 203      56D79137 
 203      523C
 204 06ce 218542ED 		.ascii	"!\205B\355s\375\250\344\241\200?\021\2155\326\226\251"
 204      73FDA8E4 
 204      A1803F11 
 204      8D35D696 
 204      A9
 205 06df 8FA46024 		.ascii	"\217\244`$\230\270\217\005\362G\303\341hD\303j\020["
 205      98B88F05 
 205      F247C3E1 
 205      6844C36A 
 205      105B
 206 06f1 DC2D5D2E 		.ascii	"\334-].\177\207?\032\013H\253\037\010\003\203*\211\274"
 206      7F873F1A 
 206      0B48AB1F 
 206      0803832A 
 206      89BC
ARM GAS  /tmp/ccbsOoKd.s 			page 16


 207 0703 9382B1DF 		.ascii	"\223\202\261\337I\201U\301P\364\321\316@\015\013\020"
 207      498155C1 
 207      50F4D1CE 
 207      400D0B10 
 208 0713 4B6417E3 		.ascii	"Kd\027\343\357\210\257!\244\253\374\035\2765\361\266"
 208      EF88AF21 
 208      A4ABFC1D 
 208      BE35F1B6 
 209 0723 6038106B 		.ascii	"`8\020k\222#\355\241@\254\371^s\362\232w\315odu\320"
 209      9223EDA1 
 209      40ACF95E 
 209      73F29A77 
 209      CD6F6475 
 210 0738 0FE695E4 		.ascii	"\017\346\225\344\356\215\310+B\001\225~\275\275\225"
 210      EE8DC82B 
 210      4201957E 
 210      BDBD95
 211 0747 C7136112 		.ascii	"\307\023a\022\247 a]\226\375!%\034n\261\016\244\276"
 211      A720615D 
 211      96FD2125 
 211      1C6EB10E 
 211      A4BE
 212 0759 C0D7E216 		.ascii	"\300\327\342\026\013<\315^Q\360\211\016\357\"\261\320"
 212      0B3CCD5E 
 212      51F0890E 
 212      EF22B1D0 
 213 0769 ED6E11EB 		.ascii	"\355n\021\353\250\256/p\273\275\242\303\275\244\315"
 213      A8AE2F70 
 213      BBBDA2C3 
 213      BDA4CD
 214 0778 D1EA733B 		.ascii	"\321\352s;\032D\321!\272\3417\0304z\332D\207\207X\266"
 214      1A44D121 
 214      BAE13718 
 214      347ADA44 
 214      878758B6 
 215 078c 3488C252 		.ascii	"4\210\302R\325j\036\314_.\026\370;\344X\215\221]4\016"
 215      D56A1ECC 
 215      5F2E16F8 
 215      3BE4588D 
 215      915D340E 
 216 07a0 0AC242EE 		.ascii	"\012\302B\356$\032\344\016\361X\034\365\377va,\032n"
 216      241AE40E 
 216      F1581CF5 
 216      FF76612C 
 216      1A6E
 217 07b2 F6899534 		.ascii	"\366\211\2254@\314\203*\032\343\020<\220V\302\023)\030"
 217      40CC832A 
 217      1AE3103C 
 217      9056C213 
 217      2918
 218 07c4 8F95661F 		.ascii	"\217\225f\037\325\231\344+\320\225p\271"
 218      D599E42B 
 218      D09570B9 
 219 07d0 5B7CCDBE 		.ascii	"[|\315\276\351\340\207\343\301\270\364\250\237Dp\226"
 219      E9E087E3 
 219      C1B8F4A8 
 219      9F447096 
ARM GAS  /tmp/ccbsOoKd.s 			page 17


 220 07e0 24C50309 		.ascii	"$\305\003\011\251\261\301\347m\025\233g\311\241\307"
 220      A9B1C1E7 
 220      6D159B67 
 220      C9A1C7
 221 07ef E43571C8 		.ascii	"\3445q\310}\010j\254p\265\034\352\014\334NH-\345st\207"
 221      7D086AAC 
 221      70B51CEA 
 221      0CDC4E48 
 221      2DE57374 
 222 0804 46745924 		.ascii	"FtY$\3040\243T\271GwPf\235\021\216n\031\363\360\301"
 222      C430A354 
 222      B9477750 
 222      669D118E 
 222      6E19F3F0 
 223 0819 9C847D6D 		.ascii	"\234\204}mj\346\026\326uu\2519[YW[\333\265\202dMt\273"
 223      6AE616D6 
 223      7575A939 
 223      5B59575B 
 223      DBB58264 
 224 0830 A536287D 		.ascii	"\2456(}O`\245\000\021w/\\\0049h\026K\032Z\033\353E_"
 224      4F60A500 
 224      11772F5C 
 224      04396816 
 224      4B1A5A1B 
 225 0847 1B1DD491 		.ascii	"\033\035\324\221AQCS\243w\211XL^h\367:\270C\262H\326"
 225      41514353 
 225      A3778958 
 225      4C5E68F7 
 225      3AB843B2 
 226 085d 7C62A9E8 		.ascii	"|b\251\350\365y\305\207\274\236\332B\002R_\341i\\\324"
 226      F579C587 
 226      BC9EDA42 
 226      02525FE1 
 226      695CD4
 227 0870 E25EA683 		.ascii	"\342^\246\203\0275{\334K=\336\377\001\227\027\320c"
 227      17357BDC 
 227      4B3DDEFF 
 227      019717D0 
 227      63
 228              		.text
 229              		.section	.gnu.lto_.symtab.b0062a1d0c5a7503,"",%progbits
 230 0000 56656374 		.ascii	"VectorB0\000\000\000\000\000\000\000\000\000\000\000"
 230      6F724230 
 230      00000000 
 230      00000000 
 230      000000
 231 0013 00A80000 		.ascii	"\000\250\000\000\000st_lld_init\000\000\000\000\000"
 231      0073745F 
 231      6C6C645F 
 231      696E6974 
 231      00000000 
 232 0028 00000000 		.ascii	"\000\000\000\000\000\000\000\254\000\000\000_port_i"
 232      000000AC 
 232      0000005F 
 232      706F7274 
 232      5F69
 233 003a 72715F65 		.ascii	"rq_epilogue\000\000\002\000\000\000\000\000\000\000"
ARM GAS  /tmp/ccbsOoKd.s 			page 18


 233      70696C6F 
 233      67756500 
 233      00020000 
 233      00000000 
 234 004f 0000AF00 		.ascii	"\000\000\257\000\000\000chSysTimerHandlerI\000\000\002"
 234      00006368 
 234      53797354 
 234      696D6572 
 234      48616E64 
 235 006a 00000000 		.ascii	"\000\000\000\000\000\000\000\000\000\261\000\000\000"
 235      00000000 
 235      00B10000 
 235      00
 236 0077 6E766963 		.ascii	"nvicEnableVector\000\000\002\000\000\000\000\000\000"
 236      456E6162 
 236      6C655665 
 236      63746F72 
 236      00000200 
 237 0090 000000B3 		.ascii	"\000\000\000\263\000\000\000"
 237      000000
 238              		.text
 239              		.section	.gnu.lto_.opts,"",%progbits
 240 0000 272D6D63 		.ascii	"'-mcpu=cortex-m3' '-mno-thumb-interwork' '-mthumb' "
 240      70753D63 
 240      6F727465 
 240      782D6D33 
 240      2720272D 
 241 0033 272D6767 		.ascii	"'-ggdb' '-O2' '-fomit-frame-pointer' '-falign-funct"
 241      64622720 
 241      272D4F32 
 241      2720272D 
 241      666F6D69 
 242 0066 696F6E73 		.ascii	"ions=16' '-ffunction-sections' '-fdata-sections' '-"
 242      3D313627 
 242      20272D66 
 242      66756E63 
 242      74696F6E 
 243 0099 666E6F2D 		.ascii	"fno-common' '-flto'\000"
 243      636F6D6D 
 243      6F6E2720 
 243      272D666C 
 243      746F2700 
 244              		.text
 245              		.cfi_sections	.debug_frame
 246              		.section	.text.VectorB0,"ax",%progbits
 247              		.align	2
 248              		.p2align 4,,15
 249              		.global	VectorB0
 250              		.thumb
 251              		.thumb_func
 252              		.type	VectorB0, %function
 253              	VectorB0:
 254              	.LFB219:
 255              		.file 1 "../../../os/hal/ports/STM32/LLD/TIMv1/hal_st_lld.c"
 256              		.loc 1 239 0
 257              		.cfi_startproc
 258              		@ args = 0, pretend = 0, frame = 0
ARM GAS  /tmp/ccbsOoKd.s 			page 19


 259              		@ frame_needed = 0, uses_anonymous_args = 0
 260 0000 08B5     		push	{r3, lr}
 261              		.cfi_def_cfa_offset 8
 262              		.cfi_offset 3, -8
 263              		.cfi_offset 14, -4
 264              		.loc 1 246 0
 265 0002 4FF08043 		mov	r3, #1073741824
 266 0006 1A69     		ldr	r2, [r3, #16]
 267 0008 9207     		lsls	r2, r2, #30
 268 000a 09D5     		bpl	.L2
 269              		.loc 1 247 0
 270 000c 0022     		movs	r2, #0
 271 000e 1A61     		str	r2, [r3, #16]
 272              	.LVL0:
 273              	.LBB52:
 274              	.LBB53:
 275              	.LBB54:
 276              	.LBB55:
 277              	.LBB56:
 278              	.LBB57:
 279              		.file 2 "../../../os/common/ext/CMSIS/include/cmsis_gcc.h"
 280              		.loc 2 264 0
 281 0010 2023     		movs	r3, #32
 282              	@ 264 "../../../os/common/ext/CMSIS/include/cmsis_gcc.h" 1
 283 0012 83F31188 		MSR basepri, r3
 284              	@ 0 "" 2
 285              		.thumb
 286              	.LBE57:
 287              	.LBE56:
 288              	.LBE55:
 289              	.LBE54:
 290              	.LBE53:
 291              	.LBE52:
 292              	.LBB58:
 293              	.LBB59:
 294              		.file 3 "../../../os/hal/osal/rt/osal.h"
 295              		.loc 3 585 0
 296 0016 FFF7FEFF 		bl	chSysTimerHandlerI
 297              	.LVL1:
 298              	.LBE59:
 299              	.LBE58:
 300              	.LBB60:
 301              	.LBB61:
 302              	.LBB62:
 303              	.LBB63:
 304              	.LBB64:
 305              	.LBB65:
 306              		.loc 2 264 0
 307 001a 0023     		movs	r3, #0
 308              	@ 264 "../../../os/common/ext/CMSIS/include/cmsis_gcc.h" 1
 309 001c 83F31188 		MSR basepri, r3
 310              	@ 0 "" 2
 311              	.LVL2:
 312              		.thumb
 313              	.L2:
 314              	.LBE65:
 315              	.LBE64:
ARM GAS  /tmp/ccbsOoKd.s 			page 20


 316              	.LBE63:
 317              	.LBE62:
 318              	.LBE61:
 319              	.LBE60:
 320              		.loc 1 255 0
 321 0020 BDE80840 		pop	{r3, lr}
 322              		.loc 1 254 0
 323 0024 FFF7FEBF 		b	_port_irq_epilogue
 324              	.LVL3:
 325              		.cfi_endproc
 326              	.LFE219:
 327              		.size	VectorB0, .-VectorB0
 328 0028 AFF30080 		.section	.text.st_lld_init,"ax",%progbits
 328      AFF30080 
 329              		.align	2
 330              		.p2align 4,,15
 331              		.global	st_lld_init
 332              		.thumb
 333              		.thumb_func
 334              		.type	st_lld_init, %function
 335              	st_lld_init:
 336              	.LFB220:
 337              		.loc 1 267 0
 338              		.cfi_startproc
 339              		@ args = 0, pretend = 0, frame = 0
 340              		@ frame_needed = 0, uses_anonymous_args = 0
 341              		@ link register save eliminated.
 342              		.loc 1 273 0
 343 0000 4FF48053 		mov	r3, #4096
 344 0004 C4F20203 		movt	r3, 16386
 345 0008 DA69     		ldr	r2, [r3, #28]
 346              		.loc 1 267 0
 347 000a 70B4     		push	{r4, r5, r6}
 348              		.cfi_def_cfa_offset 12
 349              		.cfi_offset 4, -12
 350              		.cfi_offset 5, -8
 351              		.cfi_offset 6, -4
 352              		.loc 1 273 0
 353 000c 42F00102 		orr	r2, r2, #1
 354              		.loc 1 276 0
 355 0010 4FF40051 		mov	r1, #8192
 356              		.loc 1 273 0
 357 0014 DA61     		str	r2, [r3, #28]
 358              		.loc 1 276 0
 359 0016 CEF20401 		movt	r1, 57348
 360 001a 4868     		ldr	r0, [r1, #4]
 361              		.loc 1 279 0
 362 001c 4FF08043 		mov	r3, #1073741824
 363              		.loc 1 281 0
 364 0020 0022     		movs	r2, #0
 365              		.loc 1 285 0
 366 0022 0124     		movs	r4, #1
 367              		.loc 1 276 0
 368 0024 40F40060 		orr	r0, r0, #2048
 369              		.loc 1 279 0
 370 0028 45F6BF56 		movw	r6, #23999
 371              		.loc 1 280 0
ARM GAS  /tmp/ccbsOoKd.s 			page 21


 372 002c 4FF6FF75 		movw	r5, #65535
 373              		.loc 1 276 0
 374 0030 4860     		str	r0, [r1, #4]
 375              		.loc 1 279 0
 376 0032 9E62     		str	r6, [r3, #40]
 377              		.loc 1 289 0
 378 0034 1C20     		movs	r0, #28
 379              		.loc 1 280 0
 380 0036 DD62     		str	r5, [r3, #44]
 381              		.loc 1 289 0
 382 0038 0821     		movs	r1, #8
 383              		.loc 1 281 0
 384 003a 9A61     		str	r2, [r3, #24]
 385              		.loc 1 282 0
 386 003c 5A63     		str	r2, [r3, #52]
 387              		.loc 1 283 0
 388 003e DA60     		str	r2, [r3, #12]
 389              		.loc 1 284 0
 390 0040 5A60     		str	r2, [r3, #4]
 391              		.loc 1 285 0
 392 0042 5C61     		str	r4, [r3, #20]
 393              		.loc 1 286 0
 394 0044 1C60     		str	r4, [r3]
 395              		.loc 1 304 0
 396 0046 70BC     		pop	{r4, r5, r6}
 397              		.loc 1 289 0
 398 0048 FFF7FEBF 		b	nvicEnableVector
 399              	.LVL4:
 400              		.cfi_endproc
 401              	.LFE220:
 402              		.size	st_lld_init, .-st_lld_init
 403 004c AFF30080 		.text
 404              	.Letext0:
 405              		.file 4 "/usr/include/newlib/machine/_default_types.h"
 406              		.file 5 "/usr/include/newlib/stdint.h"
 407              		.file 6 "../../../os/common/ports/ARMCMx/compilers/GCC/chtypes.h"
 408              		.file 7 "../../../os/rt/include/chsystypes.h"
 409              		.file 8 "../../../os/rt/include/chschd.h"
 410              		.file 9 "../../../os/common/ext/CMSIS/ST/STM32F1xx/stm32f100xb.h"
 411              		.file 10 "../../../os/common/ports/ARMCMx/chcore.h"
 412              		.file 11 "../../../os/common/ports/ARMCMx/chcore_v7m.h"
 413              		.file 12 "../../../os/hal/ports/STM32/LLD/TIMv1/stm32_tim.h"
 414              		.file 13 "../../../os/rt/include/chsem.h"
 415              		.file 14 "../../../os/rt/include/chmtx.h"
 416              		.file 15 "../../../os/rt/include/chsys.h"
 417              		.file 16 "../../../os/common/ext/CMSIS/include/core_cm3.h"
 418              		.file 17 "../../../os/hal/ports/common/ARMCMx/nvic.h"