ARM GAS  /tmp/ccUxSct7.s 			page 1


   1              		.syntax unified
   2              		.cpu cortex-m3
   3              		.fpu softvfp
   4              		.eabi_attribute 20, 1
   5              		.eabi_attribute 21, 1
   6              		.eabi_attribute 23, 3
   7              		.eabi_attribute 24, 1
   8              		.eabi_attribute 25, 1
   9              		.eabi_attribute 26, 1
  10              		.eabi_attribute 30, 2
  11              		.eabi_attribute 34, 1
  12              		.eabi_attribute 18, 4
  13              		.thumb
  14              		.file	"hal_st.c"
  15              		.text
  16              	.Ltext0:
  17              		.section	.gnu.lto_.jmpfuncs.47d92d141e75342d,"",%progbits
  18 0000 789C6362 		.ascii	"x\234cb`b\300\006x\2414+\020322103\26200\000\000\002"
  18      6062C006 
  18      78A1342B 
  18      10333232 
  18      313033B2 
  19 0019 6D0023   		.ascii	"m\000#"
  20              		.text
  21              		.section	.gnu.lto_.inline.47d92d141e75342d,"",%progbits
  22 0000 789C6362 		.ascii	"x\234cb`b\300\006\362\2414+\003\003\013\017#X\021\333"
  22      6062C006 
  22      F2A1342B 
  22      03030B0F 
  22      235811DB 
  23 0014 0279B05A 		.ascii	"\002y\260ZF.\020\301\300\306\312\310\010\244\030\030"
  23      462E10C1 
  23      C0C6CAC8 
  23      08A41818 
  24 0024 98D83EE8 		.ascii	"\230\330>\350\301%\231\030X\230\201\312\231.\360\303"
  24      C1259918 
  24      589881CA 
  24      992EF0C3 
  25 0034 85984142 		.ascii	"\205\230ABP\245\310\342,\230J\031\000\300\002\010{"
  25      50A5C8E2 
  25      2C984A19 
  25      00C00208 
  25      7B
  26              		.text
  27              		.section	.gnu.lto_.pureconst.47d92d141e75342d,"",%progbits
  28 0000 789C6362 		.ascii	"x\234cb`b\340f\200\000V\006\011F)&)f)\026)\000\004\027"
  28      6062E066 
  28      80005606 
  28      09462926 
  28      29662916 
  29 0018 009F     		.ascii	"\000\237"
  30              		.text
  31              		.section	.gnu.lto_stInit.47d92d141e75342d,"",%progbits
  32 0000 789C6362 		.ascii	"x\234cb`b@\007\222@\\\011\304\362@\314\310\314\300\310"
  32      60624007 
  32      92405C09 
  32      C4F240CC 
ARM GAS  /tmp/ccUxSct7.s 			page 2


  32      C8CCC0C8 
  33 0014 34E11C03 		.ascii	"4\341\034\003C#\007\023##\210\301\300\310P\317\304X"
  33      43230713 
  33      232388C1 
  33      C0C850CF 
  33      C458
  34 0026 1FC90856 		.ascii	"\037\311\010V\273\236\351\300\203\377\377\327\375X\373"
  34      BB9EE9C0 
  34      83FFFFD7 
  34      FD58FB
  35 0035 B01EA894 		.ascii	"\260\036\250\224\201\201\225\241\245\241a\202\002\003"
  35      818195A1 
  35      A5A16182 
  35      0203
  36 0043 4332583E 		.ascii	"C2X>\004H\2024\20522\201h\346\363\014\315\017\376\331"
  36      04488234 
  36      85323281 
  36      68E6F30C 
  36      CD0FFED9 
  37 0057 24322E64 		.ascii	"$2.dd\005\312V3\374j\350h\020\310d\004\252\206\030\227"
  37      6405CA56 
  37      33FC6AE8 
  37      6810C864 
  37      04AA8618 
  38 006c 09A22F32 		.ascii	"\011\242/24>\370\317\004S\004\001!@\011\240\001 \307"
  38      343EF8CF 
  38      04530401 
  38      214009A0 
  38      0120C7
  39 007f CAEAE9E9 		.ascii	"\312\352\351\351CP~\261~Fb\216~qQ2\210\216/.\321Kf\000"
  39      43507EB1 
  39      7E46628E 
  39      7E715132 
  39      888E2F2E 
  40 0097 0032792A 		.ascii	"\0002y*\325"
  40      D5
  41              		.text
  42              		.section	.gnu.lto_stStartAlarm.47d92d141e75342d,"",%progbits
  43 0000 789C9D51 		.ascii	"x\234\235Q?K\303@\024\177\357r\261\335\354\352 \224"
  43      3F4BC340 
  43      147FEF72 
  43      B1DDECEA 
  43      2094
  44 0012 AE6282F6 		.ascii	"\256b\202\366\003\270\270\010\355d\004;\225X\305\036"
  44      03B8B808 
  44      ED64043B 
  44      9558C51E 
  45 0022 B4549AE0 		.ascii	"\264T\232\340\332K)\035t)\235\244\272T\024A\305Nb\005"
  45      DA4B291D 
  45      74299DA4 
  45      BA541441 
  45      C54E6205 
  46 0036 876AA70E 		.ascii	"\207j\247\016\012E'A\020\334\245\337 \336]R\244]\004"
  46      0A452741 
  46      10DCA5DF 
  46      20DE5D52 
  46      A45D04
ARM GAS  /tmp/ccUxSct7.s 			page 3


  47 0049 1FB9BCBB 		.ascii	"\037\271\274\273\367~\177\036w\004\010L\307\234X_\010"
  47      F77E7F1E 
  47      7704084C 
  47      C79C585F 
  47      08
  48 005a B029326A 		.ascii	"\260)2j\200\244\361\002\340E\011\242\334\000B\205`%"
  48      80A4F102 
  48      E04509A2 
  48      DC004285 
  48      6025
  49 006c 830ADB21 		.ascii	"\203\012\333!\275O\337\277\351\326/N\260E\004\246\210"
  49      BD4FDFBF 
  49      E9D62F4E 
  49      B04504A6 
  49      88
  50 007d 4081A9A6 		.ascii	"@\201\251\246\0165\316\033\361\"\212SNU,\361\227\032"
  50      0E35CE1B 
  50      F1228A53 
  50      4E552CF1 
  50      971A
  51 008f 1B4864D6 		.ascii	"\033Hd\326\006P\215\002$\240\315y\263w_\357#?\340\336"
  51      06508D02 
  51      24A0CD79 
  51      B3775FEF 
  51      233FE0DE 
  52 00a3 C8F76719 		.ascii	"\310\367g\031\012D\034%m\023\031\222\230J\332\324\254"
  52      0A441C25 
  52      6D131992 
  52      984ADAD4 
  52      AC
  53 00b4 BB0204CF 		.ascii	"\273\002\004\317P\375\356\337\275_\271\241\335\330\267"
  53      50FDEEDF 
  53      BD5FB9A1 
  53      DDD8B7
  54 00c3 77F836D4 		.ascii	"w\3706\324m<\305\204@\332\330F]\250a@\243!\363i\360"
  54      6D3CC584 
  54      40DAD846 
  54      5DA86140 
  54      A321F369 
  55 00d8 F0FA518D 		.ascii	"\360\372Q\215\330x&\272\213p\315k\036\3170\244\013p"
  55      D87826BA 
  55      8B70CD6B 
  55      1ECF30A4 
  55      0B70
  56 00ea 29B72B0C 		.ascii	")\267+\014\365chy\015\036c8#'\210p\021T\015\023Q#l\241"
  56      F5636879 
  56      0D1E6338 
  56      23278870 
  56      11540D13 
  57 0102 523F177C 		.ascii	"R?\027|U\215\006\223\205\025\341\244l\272G\235G-p\371"
  57      558D0693 
  57      8515E1A4 
  57      6CBA479D 
  57      472D70F9 
  58 0116 95A67F4A 		.ascii	"\225\246\177J\343\2044\225E)\326\375\227\030\231\024"
  58      E3843495 
  58      4529D6FD 
ARM GAS  /tmp/ccUxSct7.s 			page 4


  58      97189914 
  59 0126 93573904 		.ascii	"\223W9\004o\324\274\245\301\345\214\303\022\266\342"
  59      6FD4BCA5 
  59      C1E58CC3 
  59      12B6E2
  60 0135 6D647FDE 		.ascii	"md\177\3360\314\340+9f\336.\230N9's\326q\215\034P\227"
  60      30CCE02B 
  60      3966DE2E 
  60      984E3927 
  60      73D6718D 
  61 014c 157792D3 		.ascii	"\025w\222\323\220\275R\331u\314u+\235\\6S\251U\323Z"
  61      90BD52D9 
  61      75CC752B 
  61      9D5C3653 
  61      A955D35A 
  62 0160 4BEF2F85 		.ascii	"K\357/\205\244l\241\260m\344\341\007\310\\\220\343"
  62      A46CA1B0 
  62      6DE4E107 
  62      C85C90E3 
  63              		.text
  64              		.section	.gnu.lto_stStopAlarm.47d92d141e75342d,"",%progbits
  65 0000 789C6362 		.ascii	"x\234cb`b@\007\222@|\024\210\203\201\230\221\231\201"
  65      60624007 
  65      92407C14 
  65      88838198 
  65      919981
  66 0013 9169C239 		.ascii	"\221i\3029\006\206F\016&FF\020\203\201\221\241\236\211"
  66      0686460E 
  66      26464610 
  66      838191A1 
  66      9E89
  67 0025 B13E9211 		.ascii	"\261>\222\021\254v=\323\201\007\377\377\257\373\322"
  67      AC763DD3 
  67      8107FFFF 
  67      AFFBD2
  68 0034 36E70EE3 		.ascii	"6\347\016\343l&\026\240\010+CKC\303\004\005\006\206"
  68      6C2616A0 
  68      082B434B 
  68      43C30405 
  68      0686
  69 0046 64B08A10 		.ascii	"d\260\212\020 \011\322\026\312\310\004\242\231\3172"
  69      2009D216 
  69      CAC804A2 
  69      99CF32
  70 0055 1CDA31E7 		.ascii	"\034\3321\347\322\363G\254pu\020\306\201\356{\007Y\031"
  70      D2F347AC 
  70      707510C6 
  70      81EE7B07 
  70      5919
  71 0067 18121917 		.ascii	"\030\022\031\0272\262\002\265\202\365j3\254jhi|0q\357"
  71      32B202B5 
  71      82F56A33 
  71      AC6A6869 
  71      7C3071EF 
  72 007b 34F94C46 		.ascii	"4\371LF\206\331\014\263\032'4\010d22F0f225\000\001\013"
  72      86D90CB3 
  72      1A273408 
ARM GAS  /tmp/ccUxSct7.s 			page 5


  72      64323246 
  72      30663232 
  73 0093 03980976 		.ascii	"\003\230\011vI\022HK\"\343b\240v\260(X\360\"C\343\207"
  73      4912484B 
  73      22E362A0 
  73      76B02858 
  73      F02243E3 
  74 00a8 4BDB5920 		.ascii	"K\333Y \246\302@\010\320t\240S@\332d\365\364\364!(\277"
  74      A6C24008 
  74      D074A053 
  74      40DA64F5 
  74      F4F42128 
  75 00bd 583F2331 		.ascii	"X?#1G\277\270(\031D\307\027\227\350%3\030\243\313\026"
  75      47BFB828 
  75      1944C717 
  75      97E82533 
  75      18A3CB16 
  76 00d1 E4179514 		.ascii	"\344\027\225\024\353\007\207\370\032\033\351\373\370"
  76      EB0787F8 
  76      1A1BE9FB 
  76      F8
  77 00de B8E88778 		.ascii	"\270\350\207x\372\226\031B\325\307\347\344\244\350e"
  77      FA961942 
  77      D5C7E7E4 
  77      A4E865
  78 00ed 30000080 		.ascii	"0\000\000\200\211PH"
  78      895048
  79              		.text
  80              		.section	.gnu.lto_stSetAlarm.47d92d141e75342d,"",%progbits
  81 0000 789C5D50 		.ascii	"x\234]P\261N\002A\020\235\267\334\001\235\264\026&\204"
  81      B14E0241 
  81      109DB7DC 
  81      019DB416 
  81      2684
  82 0012 D67817E5 		.ascii	"\326x\027\345\003llH\240\362L\240\"'\032\271\004\202"
  82      036C6C48 
  82      A0F24CA0 
  82      22271AB9 
  82      0482
  83 0024 E12EB6EC 		.ascii	"\341.\266\354\021\022\022m\210\245\306\002\242\026\306"
  83      1112126D 
  83      88A5C602 
  83      A216C6
  84 0033 A054165A 		.ascii	"\240T\026Z\020\251(4Q;c\341\027\020\032\353sw\357h\230"
  84      10A92834 
  84      513B63E1 
  84      17101AEB 
  84      7377EF68 
  85 0048 ECEECCCE 		.ascii	"\354\356\314\316\2747\363v\0311Z\266U\261s *\012\217"
  85      BC37F376 
  85      19315AB6 
  85      55B17320 
  85      2A0A8F
  86 005b 1881F5DE 		.ascii	"\030\201\365\336\211\374$\003d@\240\026C\253\004\205"
  86      89FC2403 
  86      6440A016 
  86      43AB0485 
ARM GAS  /tmp/ccUxSct7.s 			page 6


  87 006b 7D60E3DF 		.ascii	"}`\343\337 \030>vo\177p\305\342\014u\220F\216*\352\324"
  87      20183E76 
  87      6F7F70C5 
  87      E20C7590 
  87      468E2AEA 
  88 0080 E1BC97AE 		.ascii	"\341\274\227\256C\334**c\211S\366\330\003\223>6\245"
  88      43DC2A2A 
  88      638953F6 
  88      D803933E 
  88      36A5
  89 0092 76922843 		.ascii	"v\222(C}\316\317\307\243\356\004\374\224\373\363 Xq"
  89      7DCECFC7 
  89      A3EE04FC 
  89      94FBF320 
  89      5871
  90 00a4 20106948 		.ascii	" \020iHZ\021\016XJ\271\330\222\326#\001\2427j\317&O"
  90      5A110E58 
  90      4AB9D892 
  90      D62301A2 
  90      376ACF26 
  91 00b9 DF432F1A 		.ascii	"\337C/\032\267\230;>\233\215t\033\003d\004\322F\037"
  91      B7983B3E 
  91      9B8D741B 
  91      036404D2 
  91      461F
  92 00cb BAE88690 		.ascii	"\272\350\206\220\246E\314\327\351\313\327_;a\343ZT7"
  92      A645CCD7 
  92      E9CBD75F 
  92      3B61E35A 
  92      5437
  93 00dd E89E777C 		.ascii	"\350\236w|^r\240\255\323\235\014\267\035\350\227t\341"
  93      5E72A0AD 
  93      D39D0CB7 
  93      1DE89774 
  93      E1
  94 00ee F778CA41 		.ascii	"\367x\312A\\*Hpa\232\022\223P\022\366\241\272\337\010"
  94      5C2A4870 
  94      619A1293 
  94      5012F6A1 
  94      BADF08
  95 0101 BECA2643 		.ascii	"\276\312&CeQFL\"\372 \177\376\371\254\205\022\026f\011"
  95      6551464C 
  95      22FA207F 
  95      FEF9AC85 
  95      12166609 
  96 0115 29E207E4 		.ascii	")\342\007\344\203\326\014\303\014W\3035\253v\315t\233"
  96      83D60CC3 
  96      0C57C335 
  96      AB76CD74 
  96      9B
  97 0126 15E9CBAE 		.ascii	"\025\351\313\256gTH\363\234\372av\031r\334hz\256\271"
  97      675448F3 
  97      9CFA6176 
  97      1972DC68 
  97      7AAEB9
  98 0139 6B15B25B 		.ascii	"k\025\262[f>\277cZ\271\302\311fD*\327j\007F\225\376"
  98      663EBF63 
ARM GAS  /tmp/ccUxSct7.s 			page 7


  98      5AB9C2C9 
  98      66442AD7 
  98      6A074695 
  99 014e 01E6CB6C 		.ascii	"\001\346\313l\275"
  99      BD
 100              		.text
 101              		.section	.gnu.lto_stGetAlarm.47d92d141e75342d,"",%progbits
 102 0000 789C6362 		.ascii	"x\234cb`b@\007\222@\374\037\210\203\201\230\221\231"
 102      60624007 
 102      9240FC1F 
 102      88838198 
 102      9199
 103 0012 819169C2 		.ascii	"\201\221i\3029\006\206F\016&FF\020\203\201\221\241\236"
 103      39068646 
 103      0E264646 
 103      10838191 
 103      A19E
 104 0024 89B13E92 		.ascii	"\211\261>\222\021\254v=\323\201\007\377\377\257\373"
 104      11AC763D 
 104      D38107FF 
 104      FFAFFB
 105 0033 D03EEF0E 		.ascii	"\320>\357\016\343|&Vf\206LF\006\026 \001\222eehih\230"
 105      E37C2656 
 105      66864C46 
 105      06162001 
 105      92656568 
 106 004a A0900B62 		.ascii	"\240\220\013b'\203\225\207\000I\220\031\241\214L \232"
 106      27839587 
 106      00499019 
 106      A18C4C20 
 106      9A
 107 005b F92CC3A1 		.ascii	"\371,\303\241;s.\375\177\304\011U\012\323s\240\373\237"
 107      3B732EFD 
 107      7FC40955 
 107      0AD373A0 
 107      FB9F
 108 006d 21034322 		.ascii	"!\003C\"\343BFV\240N\260\326tFf]\2065\015-\215\017&"
 108      E3424656 
 108      A04EB0D6 
 108      7446665D 
 108      86350D2D 
 109 0084 FE9DEE97 		.ascii	"\376\235\356\227\311\310\244\315\260\012\310k\230\314"
 109      C9C8A4CD 
 109      B00AC86B 
 109      98CC
 110 0092 98C9C83C 		.ascii	"\230\311\310<\233aV\343\204\006\201LF\226\010 \227\265"
 110      9B6156E3 
 110      8406814C 
 110      46960820 
 110      97B5
 111 00a4 01085818 		.ascii	"\001\010X\030\300L\260#\223@&$2.\006qA\242l\020\177"
 111      C04CB023 
 111      93402624 
 111      322E0671 
 111      41A26C10 
 112 00b9 42451818 		.ascii	"BE\030\030\31624\275k\346Kd\\\004\344\2463\262\000\255"
 112      CE3234BD 
ARM GAS  /tmp/ccUxSct7.s 			page 8


 112      6BE64B64 
 112      5C04E4A6 
 112      33B200AD 
 113 00cd 6260B8C8 		.ascii	"b`\270\310\320\270\341\220=\304\011@1\210\216\020\240"
 113      D0B8E190 
 113      3DC40940 
 113      31888E10 
 113      A0
 114 00de 5B80EE06 		.ascii	"[\200\356\006\005\231\254\236\236>\004\345\027\353g"
 114      0599AC9E 
 114      9E3E04E5 
 114      17EB67
 115 00ed 24E6E817 		.ascii	"$\346\350\027\027%\203\350\370\342\022\275d\006ct\331"
 115      172583E8 
 115      F8E212BD 
 115      64066374 
 115      D9
 116 00fe 82FCA292 		.ascii	"\202\374\242\222b\375\340\020_c#}\037\037\027\375\020"
 116      62FDE010 
 116      5F63237D 
 116      1F1F17FD 
 116      10
 117 010f 4FDF3243 		.ascii	"O\3372C\250\372\370\234\234\024\275\014\006\000\301"
 117      A8FAF89C 
 117      9C14BD0C 
 117      0600C1
 118 011e 285BC0   		.ascii	"([\300"
 119              		.text
 120              		.section	.gnu.lto_.symbol_nodes.47d92d141e75342d,"",%progbits
 121 0000 789C4DC7 		.ascii	"x\234M\307\301\021@0\024E\321w\177\244R\205\274\314"
 121      C1114030 
 121      1445D177 
 121      7FA45285 
 121      BCCC
 122 0012 D858AA40 		.ascii	"\330X\252@I\032\020\244\022c\301\214\234\335\011\205"
 122      491A10A4 
 122      1263C18C 
 122      9CDD0985 
 123 0022 467D62C7 		.ascii	"F}b\307\322\262I\366:\023\025\323\365\300\321\365\304"
 123      D2B249F6 
 123      3A1315D3 
 123      F5C0D1F5 
 123      C4
 124 0033 A9EB8587 		.ascii	"\251\353\205\207\2774\234\337\226BR\326\324n\364\000"
 124      BF349CDF 
 124      964252D6 
 124      D46EF400 
 125 0043 44081F8A 		.ascii	"D\010\037\212"
 126              		.text
 127              		.section	.gnu.lto_.refs.47d92d141e75342d,"",%progbits
 128 0000 789C6362 		.ascii	"x\234cb`b`d\200\002\000\000F\000\006"
 128      60626064 
 128      80020000 
 128      460006
 129              		.text
 130              		.section	.gnu.lto_.decls.47d92d141e75342d,"",%progbits
 131 0000 789CB558 		.ascii	"x\234\265X}l\024E\024\237\331=\372y\224\026\205T\023"
ARM GAS  /tmp/ccUxSct7.s 			page 9


 131      7D6C1445 
 131      149FD93D 
 131      FA799416 
 131      855413
 132 0013 4231601A 		.ascii	"B1`\032\242=\332j\015\377 x%@B\221\\K\322\304?\226\245"
 132      A23DDA6A 
 132      0DFF2078 
 132      25404291 
 132      5C4BD2C4 
 133 002a 3DEC25FD 		.ascii	"=\354%\375Jo\253!\3763\264RH\021i\213`A\002\307W[\022"
 133      4A6FAB21 
 133      FE33B452 
 133      4811698B 
 133      604102C7 
 134 0041 1201A150 		.ascii	"\022\001\241P\344\340\370h!T+\266\012\326\242\036\032"
 134      E4E0F868 
 134      21542BB6 
 134      0AD6A21E 
 134      1A
 135 0052 45628825 		.ascii	"Eb\210%\242\204\200=gfg\357v\207\335\262G\342\244\357"
 135      A284803D 
 135      676667EF 
 135      7687DDB2 
 135      47E2A4EF 
 136 0066 756EEEBD 		.ascii	"un\356\275\337\374\346\2757\2733'\000\001tA\000\"\270"
 136      DFFCE6BD 
 136      37BB3327 
 136      00017441 
 136      0022B8
 137 0079 A53D0B40 		.ascii	"\245=\013@\271\000@\002\000`\036\2105\362y\017\226\016"
 137      B9004002 
 137      00601E88 
 137      35F2790F 
 137      960E
 138 008b 2CDD587A 		.ascii	",\335Xz\260\004\261\234\003\2177b\207!\300\005,{\331"
 138      B004B19C 
 138      038F3762 
 138      8721C005 
 138      2C7BD9
 139 009e 98C0C6CD 		.ascii	"\230\300\306\315\354\011f2\226D,\007\261\244aqb\271"
 139      EC096632 
 139      96442C07 
 139      B1A46171 
 139      62B9
 140 00b0 88A51FCB 		.ascii	"\210\245\037\313\000\2261,\016,\"\226;XF\260\0143\\"
 140      0096312C 
 140      0E2C2296 
 140      3B5846B0 
 140      0C335C
 141 00c3 E21F61FD 		.ascii	"\342\037a\375\317\210\0354\342w3\277\213:,\250\363'"
 141      CF881D34 
 141      E27733BF 
 141      8B3A2CA8 
 141      F327
 142 00d5 DFA7713E 		.ascii	"\337\247q>\200\255\321./\310x\011\314/\003\252\375\317"
 142      80ADD12E 
 142      2FC87809 
ARM GAS  /tmp/ccUxSct7.s 			page 10


 142      CC2F03AA 
 142      FDCF
 143 00e7 B14CE1B0 		.ascii	"\261L\341\260\203\014S\303}\022\036\261\177\036\252"
 143      830C53C3 
 143      7D121EB1 
 143      7F1EAA
 144 00f6 63D338AC 		.ascii	"c\3238\254\351`\027\012\204\303\353v\367C\324\206\036"
 144      E960170A 
 144      84C3EB76 
 144      F743D486 
 144      1E
 145 0107 45222298 		.ascii	"E\"\"\230\012\266\"\334\002M\010AE\206\363\246\200R"
 145      0AB622DC 
 145      024D0841 
 145      4586F3A6 
 145      8052
 146 0119 28C3B464 		.ascii	"(\303\264d\220E;\316d:\001\0002\334\013\247\262\336"
 146      90453BCE 
 146      643A0100 
 146      32DC0BA7 
 146      B2DE
 147 012b 0A518513 		.ascii	"\012Q\205\023@\026\004\263\301A\354\337\202\320\317"
 147      401604B3 
 147      C141ECDF 
 147      82D0CF
 148 013a CF3C1E14 		.ascii	"\317<\036\024\334^\004\007\310\004\250\013\211\024\236"
 148      DC5E0407 
 148      C804A80B 
 148      89149E
 149 0149 00EC81D3 		.ascii	"\000\354\201\323\365&2\334\007\005\236gx4t\262\317\331"
 149      F52632DC 
 149      07059E67 
 149      783474B2 
 149      CFD9
 150 015b B2361C89 		.ascii	"\2626\034\211L\267O\262\223\221\024i,pB6 \324\200P\023"
 150      4CB74FB2 
 150      93911469 
 150      2C704236 
 150      20D48050 
 151 0170 CAEEC209 		.ascii	"\312\356\302\011a^\351\232\027\261\231\005\366c\372"
 151      615EE99A 
 151      17B19905 
 151      F663FA
 152 017f E1E0F121 		.ascii	"\341\340\361!\001\241$\031\036\204d\274\030b\260\375"
 152      01A12419 
 152      1E8464BC 
 152      1862B0FD 
 153 018f 70362364 		.ascii	"p6#d\037\347a\323\211\227(\316!\212\363\336\323\342"
 153      1FE761D3 
 153      899728CE 
 153      218AF3DE 
 153      D3E2
 154 01a1 6C6FEE9C 		.ascii	"lo\356\234Kq>\2458G\241\021H\206b\2621\204\370\263f"
 154      4B713EA5 
 154      3847A111 
 154      488662B2 
 154      3184F8B3 
ARM GAS  /tmp/ccUxSct7.s 			page 11


 155 01b6 40D0E8D7 		.ascii	"@\320\350\327\254C\362\374?\032\307\012\202\326D\220"
 155      AC43F2FC 
 155      3F1AC70A 
 155      82D64490 
 156 01c6 A33A13EC 		.ascii	"\243:\023\354C\250-\274\356\326\357b;\012\011Z\204\257"
 156      43A82DBC 
 156      EED6EF62 
 156      3B0A095A 
 156      84AF
 157 01d8 50B30E5C 		.ascii	"P\263\016\\\011fQP\255b\345\263\011\255K\207\321\372"
 157      09665150 
 157      AD62E5B3 
 157      09AD4B87 
 157      D1FA
 158 01ea E9E0EBE7 		.ascii	"\351\340\353\347\250i\375\334\323\352G-^\001\014r\324"
 158      A869FDDC 
 158      D3EA472D 
 158      5E010C72 
 158      D4
 159 01fb CCABB39B 		.ascii	"\314\253\263\233G?a\212~\370R\024\275\223\242\377h\272"
 159      473F618A 
 159      7EF85214 
 159      BD93A2FF 
 159      68BA
 160 020d 70747F65 		.ascii	"pt\177e\266\272\032\031\036\303@2\354y\2525\367\360"
 160      B6BA1A19 
 160      1EC34032 
 160      EC79AA35 
 160      F7F0
 161 021f AC4E99B2 		.ascii	"\254N\231\262\272{i\323s(\320\020\212D^\347\3676A\267"
 161      BA7B69D3 
 161      7328D010 
 161      8A445EE7 
 161      F73641B7 
 162 0233 DA37674C 		.ascii	"\3327gL6\367m\363h5\240\303]h\202FV\206A\213\3450\274"
 162      36F76DF3 
 162      6835A0C3 
 162      5D688246 
 162      5686418B 
 163 024a B326345B 		.ascii	"\263&4[\302\303_\375\273\026\2666\006.\243\321Hd\022"
 163      C2C35FFD 
 163      BB16B636 
 163      062EA3D1 
 163      486412
 164 025d D012D425 		.ascii	"\320\022\324%\360S\252 \347\215 \251\240\231\360\300"
 164      F053AA20 
 164      E78D20A9 
 164      A099F0C0 
 165 026d 0B5B7C39 		.ascii	"\013[|9M\365\265Z\330\005\230\252G\244\033\260\221y"
 165      4DF5B55A 
 165      D80598AA 
 165      47A41BB0 
 165      9179
 166 027f 0253AFE8 		.ascii	"\002S\257\350F\356=\007\361V\205l\317\216\347\"\303"
 166      46EE3D07 
 166      F156856C 
 166      CF8EE722 
ARM GAS  /tmp/ccUxSct7.s 			page 12


 166      C3
 167 0290 5E380BEB 		.ascii	"^8\013\353D\343NIL\216u\310\353r\022\211\3521\301\364"
 167      44E34E49 
 167      4C8E75C8 
 167      EB721289 
 167      EA31C1F4 
 168 02a4 916083D1 		.ascii	"\221`\203\321\366\346\323\352#\3412\335@A\201\177$$"
 168      F6E6D3EA 
 168      23E132DD 
 168      4041817F 
 168      2424
 169 02b6 728F8427 		.ascii	"r\217\204'\323\211\323<\003\264\220\202\312\"A\277\030"
 169      D389D33C 
 169      03B49082 
 169      CA2241BF 
 169      18
 170 02c7 AB260435 		.ascii	"\253&\0045\266\351\024Jo\326gm&\303/`F,\006(\232O\247"
 170      B6E9144A 
 170      6FD6676D 
 170      26C32F60 
 170      462C0628 
 171 02de 759D7EA9 		.ascii	"u\235~\251\356\020m8\332\021\015+\321\254\300d\320\312"
 171      EE106D38 
 171      DA110D2B 
 171      D1ACC064 
 171      D0CA
 172 02f0 9844238B 		.ascii	"\230D#\213\0224\237\225\261\320\036\331v\277\200\206"
 172      12349F95 
 172      B1D01ED9 
 172      76BF8086 
 173 0300 76004EC6 		.ascii	"v\000N\306\241}\310\205\366\2110d\322\257\261\253\352"
 173      A17DC885 
 173      F6893064 
 173      D2AFB1AB 
 173      EA
 174 0311 44415168 		.ascii	"DAQh\313\210\0239\324q`R\325\254\315\000\001\364~ch"
 174      CB881339 
 174      D4716052 
 174      D5ACCD00 
 174      01F47E63 
 175 0326 EBC84EBC 		.ascii	"\353\310N\274o\317C5\260\002X/B\206i\026\212\350\362"
 175      6FCF4335 
 175      B002582F 
 175      42866916 
 175      8AE8F2
 176 0339 B558A425 		.ascii	"\265X\244%sx\333F\234-\262\006\2661n\260,\003X\273\036"
 176      7378DB46 
 176      9C2DB206 
 176      B6316EB0 
 176      2C0358BB 
 177 034e 6CB31DB0 		.ascii	"l\263\035\260$kf;\364`\037\305\015fd\266S\017\266\335"
 177      246B663B 
 177      F4601FC5 
 177      0D6664B6 
 177      530FB6DD 
 178 0362 0E58BA35 		.ascii	"\016X\2725\263]z\260\235q\203\031\231\035\326\203\005"
 178      B35D7AB0 
ARM GAS  /tmp/ccUxSct7.s 			page 13


 178      9D718319 
 178      991DD683 
 178      05
 179 0373 EC80655A 		.ascii	"\354\200eZ3;\252\007\353\210\033\314\310\354\230\036"
 179      333BAA07 
 179      EB881BCC 
 179      C8EC981E 
 180 0383 EC901DB0 		.ascii	"\354\220\035\260,kf\335z\260#q\203\031\231\235\324\203"
 180      2C6B66DD 
 180      7AB02371 
 180      8319999D 
 180      D483
 181 0395 1DB70396 		.ascii	"\035\267\003\226m\315\354\224\036\254'n0#\263\323z\260"
 181      6DCDEC94 
 181      1EAC276E 
 181      3023B3D3 
 181      7AB0
 182 03a7 A01DB039 		.ascii	"\240\035\2609V\314\326\206\316\274E\260\372\361\303"
 182      56CCD686 
 182      CEBC45B0 
 182      FAF1C3
 183 03b6 4F00E778 		.ascii	"O\000\347x,\343S\322\014\314\310\354\252\236Y\257\035"
 183      2CE353D2 
 183      0CCCC8EC 
 183      AA9E59AF 
 183      1D
 184 03c7 66F3ADC1 		.ascii	"f\363\255\301\006\365`W\354\200-\266N\3007z\260\201"
 184      06F56057 
 184      EC802DB6 
 184      4EC0377A 
 184      B081
 185 03d9 B8C18CCC 		.ascii	"\270\301\214\314\256\351\301\206\354\200-\267f\366\235"
 185      AEE9C186 
 185      EC802DB7 
 185      66F69D
 186 03e8 1EEC5ADC 		.ascii	"\036\354Z\334`zfkC\337\343l\2627^`>\367f\234o|\204\031"
 186      607A666B 
 186      43DFE36C 
 186      B2375E60 
 186      3EF7669C 
 187 0400 CCFA2CCD 		.ascii	"\314\372,\315d\3700\356\027\343#\213\027\243\376\006"
 187      64F830EE 
 187      17E3238B 
 187      17A3FE06 
 188 0410 18B3C2CB 		.ascii	"\030\263\302\313\276\301/\333@\202uKMbh\326\364o?\031"
 188      BEC12FDB 
 188      4082754B 
 188      4D6268D6 
 188      F46F3F19 
 189 0424 0ED2C3D0 		.ascii	"\016\322\303\320\020\234\201\365\267T_\247z\230\352"
 189      109C81F5 
 189      B7545FA7 
 189      7A98EA
 190 0433 11AA7FA0 		.ascii	"\021\252\177\240\372'\252oR\375\013\325\277R}\213\352"
 190      FA27AA6F 
 190      52FD0BD5 
 190      BF527D8B 
ARM GAS  /tmp/ccUxSct7.s 			page 14


 190      EA
 191 0444 DB54FF41 		.ascii	"\333T\377A\365\035\252\377\244\372.\325\177Q\3757\325"
 191      F51DAAFF 
 191      A4FA2ED5 
 191      7F51FD37 
 191      D5
 192 0455 F7A97E80 		.ascii	"\367\251~\200u\264qg\304\001\213\374\022\356c\370\214"
 192      75B47167 
 192      C4018BFC 
 192      12EE63F8 
 192      8C
 193 0466 C81A399E 		.ascii	"\310\0329\236\206F\361\361\364\306y\330\326\210\324"
 193      8646F1F1 
 193      F4C679D8 
 193      D688D4
 194 0475 E3692049 		.ascii	"\343i I;\342\337\024M\217\370Cr\266v\255\271G-\"6\217"
 194      3BE2DF14 
 194      4D8FF843 
 194      72B676AD 
 194      B9472D22 
 195 048b F8C36879 		.ascii	"\370\303hyf\364\204\037\341O\370H0\234z_\000{\320\325"
 195      66F4841F 
 195      E14FF848 
 195      309C7A5F 
 195      007BD0D5 
 196 049f ABE1DE5B 		.ascii	"\253\341\336[\355pC\030\337\270\307\"\021\250\035\265"
 196      ED704318 
 196      DFB8C722 
 196      11A81DB5 
 197 04af DAD3D839 		.ascii	"\332\323\33092| \224\331\036;\246$\351\353@=\227`\007"
 197      327C2094 
 197      D91E3BA6 
 197      24E9EB40 
 197      3D976007 
 198 04c3 216A8C32 		.ascii	"!j\21423\315me\270^ Y\334 \304\352J\355k\275\010\375"
 198      33CD6D65 
 198      B85E2059 
 198      DC20C4EA 
 198      4AED6BBD 
 199 04d9 D1E28168 		.ascii	"\321\342\201h\362[\210J\177|W6i\2056\351Dj\033[\217"
 199      F25B884A 
 199      7F7C5736 
 199      698536E9 
 199      446A1B5B 
 200 04ee 6A696E25 		.ascii	"jin%\303f!\336\015\262Q0\337 N\003g\315\012\257lL\344"
 200      C36621DE 
 200      0DB25130 
 200      DF204E03 
 200      67CD0AAF 
 201 0505 2EA81C09 		.ascii	".\250\034\011|Fc\277\035\3110\005\352J\3477\256t\324"
 201      7C4663BF 
 201      1DC93005 
 201      EA4AE737 
 201      AE74D4
 202 0518 ABCD5687 		.ascii	"\253\315V\207\235\273\347\207\002W\003\233\205\307\256"
 202      9DBBE787 
 202      0257039B 
ARM GAS  /tmp/ccUxSct7.s 			page 15


 202      85C7AE
 203 0527 4FA1D1D0 		.ascii	"O\241\321\320`\277z\367\334\035J\327J\263\323aZ\232"
 203      60BF7AF7 
 203      DC1D4AD7 
 203      4AB3D361 
 203      5A9A
 204 0539 67E5E8ED 		.ascii	"g\345\350\355\263A \267\317V\341)J\263\225\247\325f"
 204      B34120B7 
 204      CF56E129 
 204      4AB395A7 
 204      D566
 205 054b 5E9AFF98 		.ascii	"^\232\377\230\226\246\014\233b\251,\325&M\035/\341\234"
 205      96A60C9B 
 205      62A92CD5 
 205      264D1D2F 
 205      E19C
 206 055d 950C3F8E 		.ascii	"\225\014?\216;\341\355\026\011O1,D\263\302\335\017\004"
 206      3BE1ED16 
 206      094F312C 
 206      44B3C2DD 
 206      0F04
 207 056f EE76CE91 		.ascii	"\356v\316\221\020\300I\363\204\217\265\301-\372\204"
 207      10C049F3 
 207      848FB5C1 
 207      2DFA84
 208 057e 9FA109E9 		.ascii	"\237\241\011\3513O8\177}\336a\221\0176\321'\346\201"
 208      334F387F 
 208      7DDE6191 
 208      0F36D127 
 208      E681
 209 0590 1ED3055A 		.ascii	"\036\323\005Z\206\333pp4\376\301q\370_7\360\007\323"
 209      86DB7070 
 209      34FEC171 
 209      F85F37F0 
 209      07D3
 210 05a2 72725CEA 		.ascii	"rr\\\352_\215\337U!W\272\374ue\344\277\344Wr\312@\202"
 210      5F8DDF55 
 210      2157BAFC 
 210      7565E4BF 
 210      E45772CA 
 211 05b8 5F5952ED 		.ascii	"_YR\355S\022\026-[\221\345\0063\365\266u\212\313W]V"
 211      5312162D 
 211      5B91E506 
 211      33F5B675 
 211      8ACB575D 
 212 05cd 595FEE75 		.ascii	"Y_\356u\225U\370\327\370\2255\265^\177N\005H&}_\225"
 212      9555F8D7 
 212      F89535B5 
 212      5E7F4E05 
 212      48267D5F 
 213 05e2 5752A6B9 		.ascii	"WR\246\271\352\375uQ\243j\357\273\225\276U.\277R\356"
 213      EAFD7551 
 213      A36AEFBB 
 213      95BE552E 
 213      BF52EE
 214 05f5 AB56B05D 		.ascii	"\253V\260]R=\376\237[ )/\233\231U\311e\025\276j\257"
 214      523DFE9F 
ARM GAS  /tmp/ccUxSct7.s 			page 16


 214      5B20292F 
 214      9B9955C9 
 214      6515BE6A 
 215 060a 4B2AF7AE 		.ascii	"K*\367\256\226\353+\025I\203O\221$\315\321\351W\212"
 215      96EB2B15 
 215      49834F91 
 215      24CDD1E9 
 215      578A
 216 061c 15B94E59 		.ascii	"\025\271NYP)\327U%\312\253\350\264\251d\260\246\226"
 216      5029D755 
 216      25CAABE8 
 216      B4A964B0 
 216      A696
 217 062e 8EA5E0BE 		.ascii	"\216\245\340\276W\321\272\213X7\237_qmM\235\342w\025"
 217      57D1BA8B 
 217      58379F5F 
 217      716D4D9D 
 217      E27715
 218 0641 9714E5E7 		.ascii	"\227\024\345\347\271\226.-t\225,)z'\227\305@\252\254"
 218      B9962E2D 
 218      74952C29 
 218      7A2797C5 
 218      40AAAC
 219 0654 2CC7B3A6 		.ascii	",\307\263\246\252=\311\207\203A\211\347\347I\012\243"
 219      AA3DC987 
 219      834189E7 
 219      E7490AA3 
 220 0664 42BA79F6 		.ascii	"B\272y\3660\375J\025\261\366U\251\220\354\203\244\210"
 220      30FD4A15 
 220      B1F655A9 
 220      90EC83A4 
 220      88
 221 0675 6E4F2E96 		.ascii	"nO.\226<Gq\221\333\343(\\\262\320#\024{\304\205\213"
 221      3C477191 
 221      DBE3285C 
 221      B2D02314 
 221      7BC4858B 
 222 0689 3C13DCEE 		.ascii	"<\023\334\356\"O.\325y\016\267{\241Gt/+\021\227\027"
 222      224F2ED5 
 222      790EB77B 
 222      A147742F 
 222      2B119717 
 223 069d BBC5051E 		.ascii	"\273\305\005\036\217\350q\343\317\330\341\215\302\022"
 223      8FE871E3 
 223      CFD8E18D 
 223      C212
 224 06ab 8F58483C 		.ascii	"\217XH<\213\026x\2047U\257|l_\352\231\314\210\373I\240"
 224      8B167884 
 224      3755AF7C 
 224      6C5FEA99 
 224      CC88FB49 
 225 06c0 2499ACDF 		.ascii	"$\231\254\337A\302\344(\253\220\353\222$iu}u\231$M\324"
 225      41C2E428 
 225      AB90EB92 
 225      2469757D 
 225      7599244D 
 226 06d5 3A3905AF 		.ascii	":9\005\257\314-\310\210\372\324\324\252.\351\332\210"
ARM GAS  /tmp/ccUxSct7.s 			page 17


 226      CC2DC888 
 226      FAD4D4AA 
 226      2EE9DA88 
 227 06e5 9761E81C 		.ascii	"\227a\350\034^\235\223\257}\375\266\351\327\257\375"
 227      5E9D93AF 
 227      7DFDB6E9 
 227      D7AFFD
 228 06f4 07B30A98 		.ascii	"\007\263\012\230i"
 228      69
 229              		.text
 230              		.section	.gnu.lto_.symtab.47d92d141e75342d,"",%progbits
 231 0000 7374496E 		.ascii	"stInit\000\000\000\000\000\000\000\000\000\000\000\000"
 231      69740000 
 231      00000000 
 231      00000000 
 231      0000
 232 0012 A1000000 		.ascii	"\241\000\000\000stStartAlarm\000\000\000\000\000\000"
 232      73745374 
 232      61727441 
 232      6C61726D 
 232      00000000 
 233 0028 00000000 		.ascii	"\000\000\000\000\000\000\246\000\000\000stStopAlarm"
 233      0000A600 
 233      00007374 
 233      53746F70 
 233      416C6172 
 234 003d 00000000 		.ascii	"\000\000\000\000\000\000\000\000\000\000\000\000\266"
 234      00000000 
 234      00000000 
 234      B6
 235 004a 00000073 		.ascii	"\000\000\000stSetAlarm\000\000\000\000\000\000\000\000"
 235      74536574 
 235      416C6172 
 235      6D000000 
 235      00000000 
 236 005f 00000000 		.ascii	"\000\000\000\000\271\000\000\000stGetAlarm\000\000\000"
 236      B9000000 
 236      73744765 
 236      74416C61 
 236      726D0000 
 237 0074 00000000 		.ascii	"\000\000\000\000\000\000\000\000\000\275\000\000\000"
 237      00000000 
 237      00BD0000 
 237      00
 238 0081 73745F6C 		.ascii	"st_lld_init\000\000\002\000\000\000\000\000\000\000"
 238      6C645F69 
 238      6E697400 
 238      00020000 
 238      00000000 
 239 0096 0000C100 		.ascii	"\000\000\301\000\000\000"
 239      0000
 240              		.text
 241              		.section	.gnu.lto_.opts,"",%progbits
 242 0000 272D6D63 		.ascii	"'-mcpu=cortex-m3' '-mno-thumb-interwork' '-mthumb' "
 242      70753D63 
 242      6F727465 
 242      782D6D33 
ARM GAS  /tmp/ccUxSct7.s 			page 18


 242      2720272D 
 243 0033 272D6767 		.ascii	"'-ggdb' '-O2' '-fomit-frame-pointer' '-falign-funct"
 243      64622720 
 243      272D4F32 
 243      2720272D 
 243      666F6D69 
 244 0066 696F6E73 		.ascii	"ions=16' '-ffunction-sections' '-fdata-sections' '-"
 244      3D313627 
 244      20272D66 
 244      66756E63 
 244      74696F6E 
 245 0099 666E6F2D 		.ascii	"fno-common' '-flto'\000"
 245      636F6D6D 
 245      6F6E2720 
 245      272D666C 
 245      746F2700 
 246              		.text
 247              		.cfi_sections	.debug_frame
 248              		.section	.text.stInit,"ax",%progbits
 249              		.align	2
 250              		.p2align 4,,15
 251              		.global	stInit
 252              		.thumb
 253              		.thumb_func
 254              		.type	stInit, %function
 255              	stInit:
 256              	.LFB219:
 257              		.file 1 "../../../os/hal/src/hal_st.c"
 258              		.loc 1 60 0
 259              		.cfi_startproc
 260              		@ args = 0, pretend = 0, frame = 0
 261              		@ frame_needed = 0, uses_anonymous_args = 0
 262              		@ link register save eliminated.
 263              		.loc 1 62 0
 264 0000 FFF7FEBF 		b	st_lld_init
 265              	.LVL0:
 266              		.cfi_endproc
 267              	.LFE219:
 268              		.size	stInit, .-stInit
 269 0004 AFF30080 		.section	.text.stStartAlarm,"ax",%progbits
 269      AFF30080 
 269      AFF30080 
 270              		.align	2
 271              		.p2align 4,,15
 272              		.global	stStartAlarm
 273              		.thumb
 274              		.thumb_func
 275              		.type	stStartAlarm, %function
 276              	stStartAlarm:
 277              	.LFB220:
 278              		.loc 1 76 0
 279              		.cfi_startproc
 280              		@ args = 0, pretend = 0, frame = 0
 281              		@ frame_needed = 0, uses_anonymous_args = 0
 282              		@ link register save eliminated.
 283              	.LVL1:
 284              	.LBB10:
ARM GAS  /tmp/ccUxSct7.s 			page 19


 285              	.LBB11:
 286              		.file 2 "../../../os/hal/ports/STM32/LLD/TIMv1/hal_st_lld.h"
 287              		.loc 2 155 0
 288 0000 4FF08043 		mov	r3, #1073741824
 289              		.loc 2 156 0
 290 0004 0021     		movs	r1, #0
 291              		.loc 2 157 0
 292 0006 0222     		movs	r2, #2
 293              		.loc 2 155 0
 294 0008 5863     		str	r0, [r3, #52]
 295              		.loc 2 156 0
 296 000a 1961     		str	r1, [r3, #16]
 297              		.loc 2 157 0
 298 000c DA60     		str	r2, [r3, #12]
 299 000e 7047     		bx	lr
 300              	.LBE11:
 301              	.LBE10:
 302              		.cfi_endproc
 303              	.LFE220:
 304              		.size	stStartAlarm, .-stStartAlarm
 305              		.section	.text.stStopAlarm,"ax",%progbits
 306              		.align	2
 307              		.p2align 4,,15
 308              		.global	stStopAlarm
 309              		.thumb
 310              		.thumb_func
 311              		.type	stStopAlarm, %function
 312              	stStopAlarm:
 313              	.LFB221:
 314              		.loc 1 90 0
 315              		.cfi_startproc
 316              		@ args = 0, pretend = 0, frame = 0
 317              		@ frame_needed = 0, uses_anonymous_args = 0
 318              		@ link register save eliminated.
 319              	.LBB12:
 320              	.LBB13:
 321              		.loc 2 167 0
 322 0000 4FF08043 		mov	r3, #1073741824
 323 0004 0022     		movs	r2, #0
 324 0006 DA60     		str	r2, [r3, #12]
 325 0008 7047     		bx	lr
 326              	.LBE13:
 327              	.LBE12:
 328              		.cfi_endproc
 329              	.LFE221:
 330              		.size	stStopAlarm, .-stStopAlarm
 331              		.section	.text.stSetAlarm,"ax",%progbits
 332              		.align	2
 333              		.p2align 4,,15
 334              		.global	stSetAlarm
 335              		.thumb
 336              		.thumb_func
 337              		.type	stSetAlarm, %function
 338              	stSetAlarm:
 339              	.LFB222:
 340              		.loc 1 104 0
 341              		.cfi_startproc
ARM GAS  /tmp/ccUxSct7.s 			page 20


 342              		@ args = 0, pretend = 0, frame = 0
 343              		@ frame_needed = 0, uses_anonymous_args = 0
 344              		@ link register save eliminated.
 345              	.LVL2:
 346              	.LBB14:
 347              	.LBB15:
 348              		.loc 2 179 0
 349 0000 4FF08043 		mov	r3, #1073741824
 350 0004 5863     		str	r0, [r3, #52]
 351 0006 7047     		bx	lr
 352              	.LBE15:
 353              	.LBE14:
 354              		.cfi_endproc
 355              	.LFE222:
 356              		.size	stSetAlarm, .-stSetAlarm
 357 0008 AFF30080 		.section	.text.stGetAlarm,"ax",%progbits
 357      AFF30080 
 358              		.align	2
 359              		.p2align 4,,15
 360              		.global	stGetAlarm
 361              		.thumb
 362              		.thumb_func
 363              		.type	stGetAlarm, %function
 364              	stGetAlarm:
 365              	.LFB223:
 366              		.loc 1 120 0
 367              		.cfi_startproc
 368              		@ args = 0, pretend = 0, frame = 0
 369              		@ frame_needed = 0, uses_anonymous_args = 0
 370              		@ link register save eliminated.
 371              	.LBB16:
 372              	.LBB17:
 373              		.loc 2 191 0
 374 0000 4FF08043 		mov	r3, #1073741824
 375 0004 586B     		ldr	r0, [r3, #52]
 376              	.LBE17:
 377              	.LBE16:
 378              		.loc 1 125 0
 379 0006 80B2     		uxth	r0, r0
 380 0008 7047     		bx	lr
 381              		.cfi_endproc
 382              	.LFE223:
 383              		.size	stGetAlarm, .-stGetAlarm
 384 000a 00BFAFF3 		.text
 384      0080
 385              	.Letext0:
 386              		.file 3 "/usr/include/newlib/machine/_default_types.h"
 387              		.file 4 "/usr/include/newlib/stdint.h"
 388              		.file 5 "../../../os/common/ports/ARMCMx/compilers/GCC/chtypes.h"
 389              		.file 6 "../../../os/rt/include/chsystypes.h"
 390              		.file 7 "../../../os/rt/include/chschd.h"
 391              		.file 8 "../../../os/common/ports/ARMCMx/chcore.h"
 392              		.file 9 "../../../os/common/ports/ARMCMx/chcore_v7m.h"
 393              		.file 10 "../../../os/hal/ports/STM32/LLD/TIMv1/stm32_tim.h"
 394              		.file 11 "../../../os/rt/include/chsem.h"
 395              		.file 12 "../../../os/rt/include/chmtx.h"
 396              		.file 13 "../../../os/common/ext/CMSIS/include/core_cm3.h"
ARM GAS  /tmp/ccUxSct7.s 			page 21

