ARM GAS  /tmp/cc1JZUn6.s 			page 1


   1              		.syntax unified
   2              		.cpu cortex-m3
   3              		.fpu softvfp
   4              		.eabi_attribute 20, 1
   5              		.eabi_attribute 21, 1
   6              		.eabi_attribute 23, 3
   7              		.eabi_attribute 24, 1
   8              		.eabi_attribute 25, 1
   9              		.eabi_attribute 26, 1
  10              		.eabi_attribute 30, 2
  11              		.eabi_attribute 34, 1
  12              		.eabi_attribute 18, 4
  13              		.thumb
  14              		.file	"hal_pal_lld.c"
  15              		.text
  16              	.Ltext0:
  17              		.section	.gnu.lto_.jmpfuncs.b618cd42dfaf2520,"",%progbits
  18 0000 789C6362 		.ascii	"x\234cb`b\300\006\330\2404\023\003##;\003\000\001/\000"
  18      6062C006 
  18      D8A03413 
  18      0323233B 
  18      0300012F 
  19 0015 16       		.ascii	"\026"
  20              		.text
  21              		.section	.gnu.lto_.inline.b618cd42dfaf2520,"",%progbits
  22 0000 789C6D91 		.ascii	"x\234m\221\261\015\3020\020E\357.\006\"\032\\\321\022"
  22      B10DC230 
  22      1045EF2E 
  22      06221A5C 
  22      D112
  23 0012 894CC000 		.ascii	"\211L\300\000\310cP\322\001[\334\012T\210\012\217\222"
  23      C86350D2 
  23      015BDC0A 
  23      54880A8F 
  23      92
  24 0023 968E0128 		.ascii	"\226\216\001((\031\003\337}'\025)\336\377gK\317\226"
  24      281903DF 
  24      7D271529 
  24      DEFF674B 
  24      CF96
  25 0035 2324F4EF 		.ascii	"#$\364\357{0\262\354\366[^Q\031\033r&g\347<:3{(b\250"
  25      7B30B2EC 
  25      F65B5E51 
  25      191B7226 
  25      67E73C3A 
  26 004e 93787C30 		.ascii	"\223x|0\345:!\006\2046\230\020\271\351\372|\027\232"
  26      E53A2106 
  26      84369810 
  26      B9E9FA7C 
  26      179A
  27 0060 E74DD9FE 		.ascii	"\347M\331\376.\002hh\275\266\206\3505\032:\257\235!"
  27      2E026868 
  27      BDB686E8 
  27      351A3AAF 
  27      9D21
  28 0072 794D0665 		.ascii	"yM\006eA8\005\003\030j8\341T\227*\254\352Z\205W]\254"
  28      41380503 
ARM GAS  /tmp/cc1JZUn6.s 			page 2


  28      186A38E1 
  28      54972AAC 
  28      EA5A8557 
  29 0088 302BD4A3 		.ascii	"0+\324\243\273\312G{\325\217\376r\000\331S\365W\346"
  29      BBCA477B 
  29      D58FFE72 
  29      00D953F5 
  29      57E6
  30 009a 999C0E7C 		.ascii	"\231\234\016|a{;9O\015kaZ\263f\357\335\356^\357H\313"
  30      617B3B39 
  30      4F0D6B61 
  30      5AB366EF 
  30      DDEE5EEF 
  31 00b0 612F14F2 		.ascii	"a/\024\362&Q\030\326\251\\\360\311\321nkA|\023;\246"
  31      265118D6 
  31      A95CF0C9 
  31      D16E6B41 
  31      7C133BA6 
  32 00c4 D07FCF0F 		.ascii	"\320\177\317\017\201\324D\242"
  32      81D444A2 
  33              		.text
  34              		.section	.gnu.lto_.pureconst.b618cd42dfaf2520,"",%progbits
  35 0000 789C6362 		.ascii	"x\234cb`b`e\200\000&\006)F)\000\001\006\000A"
  35      60626065 
  35      80002606 
  35      29462900 
  35      01060041 
  36              		.text
  37              		.section	.gnu.lto__pal_lld_init.b618cd42dfaf2520,"",%progbits
  38 0000 789CA596 		.ascii	"x\234\245\226\301k\023A\024\207\337\233\315n61\204\020"
  38      C16B1341 
  38      1487DF9B 
  38      CD6E3631 
  38      8410
  39 0012 42882184 		.ascii	"B\210!\204\020\275\011Y\252\210\377\200 \205\212\202"
  39      10BD0959 
  39      AA88FF80 
  39      20858A82 
  40 0022 11F450A4 		.ascii	"\021\364P\244VH\003\221\026+\336\244\023\315\301c\216"
  40      56480391 
  40      162BDEA4 
  40      13CDC163 
  40      8E
  41 0033 C516A937 		.ascii	"\305\026\2517\361P=\306\233\344 x\210\350Mz\352U\005"
  41      F1503DC6 
  41      9BE42078 
  41      88E84D7A 
  41      EA5505
  42 0046 15BD786B 		.ascii	"\025\275xk\347\355\316$\203K /\035\262\277\231ev\036"
  42      E7EDCE24 
  42      834B202F 
  42      1DB2BF99 
  42      65761E
  43 0059 DFE67B90 		.ascii	"\337\346{\220\010\020\360\3778\255\256\345\024\300%"
  43      0810F0FF 
  43      38ADAEE5 
  43      14C025
ARM GAS  /tmp/cc1JZUn6.s 			page 3


  44 0068 35A30328 		.ascii	"5\243\003(\372\237\000\272\276@\244\005 l\011\334\272"
  44      FA9F00BA 
  44      BE40A405 
  44      206C09DC 
  44      BA
  45 0079 8DE1B36F 		.ascii	"\215\341\263o\304\373\303\243\243\375\301\207\375]|"
  45      C4FBC3A3 
  45      A3FDC187 
  45      FD5D7C
  46 0088 21CE0A68 		.ascii	"!\316\012h#8\024.\336G\360h\345S\244)2\024Y\212\034"
  46      2338142E 
  46      DE47F068 
  46      E553A429 
  46      3214598A 
  47 009d 459EA240 		.ascii	"E\236\242@Q\244(Q\224)*\024U\212\032E\235B\015\027z"
  47      51A42851 
  47      94292A14 
  47      558A1A45 
  47      9D420D17 
  48 00b2 52F66B00 		.ascii	"R\366k\000\253\341mS%\001\335DA\2633\202\341\301\340"
  48      ABE16D53 
  48      2501DD44 
  48      41B33382 
  48      E1C1E0
  49 00c5 7B69055F 		.ascii	"{i\005_\242\013-\024\347\340\265\354usm\304\035x\216"
  49      A20B2D14 
  49      E7E0B5EC 
  49      75736DC4 
  49      1D788E
  50 00d8 6D14B754 		.ascii	"m\024\267T8r\357\231L@\270\014_\340.\232\327\036\301"
  50      3872EF99 
  50      4C40B80C 
  50      5FE02E9A 
  50      D71EC1
  51 00eb D3778E39 		.ascii	"\323w\2169\355\264\242\347\341q\2703\\\2146x5[t?\202"
  51      EDB4A2E7 
  51      E171B833 
  51      5C8C3678 
  51      355B743F 
  52 0100 27075F7F 		.ascii	"'\007_\177\374\036W\366\250\206\252\220\240\271/\345"
  52      FC1E57F6 
  52      A886AA90 
  52      A0B92FE5 
  53 0110 721BDDA8 		.ascii	"r\033\335\250\230\327B\227\212$u\021\324\263\030\003"
  53      98D74297 
  53      8A247511 
  53      D4B31803 
  54 0120 0E3F7E4E 		.ascii	"\016?~N\332 raL\342\323\311\224\354\3674IJ\037v4\211"
  54      DA207261 
  54      4CE2D3C9 
  54      94ECF734 
  54      494A1F76 
  55 0136 1791FCB3 		.ascii	"\027\221\374\263H|6I\342$$\256&\361#\222\355\237\023"
  55      487C3649 
  55      E22424AE 
  55      26F12392 
  55      ED9F13
ARM GAS  /tmp/cc1JZUn6.s 			page 4


  56 0149 92349BC4 		.ascii	"\2224\233\304;\011IR\223\244#\222\201E\222\231\231\304"
  56      3B094952 
  56      93A42392 
  56      81459299 
  56      99C4
  57 015b 9FC3CEF6 		.ascii	"\237\303\316\3664;\031\335'\026I\226M\302\261\023#1"
  57      343B19DD 
  57      27164996 
  57      4DC2B113 
  57      2331
  58 016d 76B2BA4F 		.ascii	"v\262\272O,\222\034\233\204c'Fb\354\344t\237\374\232"
  58      2C921C9B 
  58      84632746 
  58      62ECE474 
  58      9FFC9A
  59 0180 90E46726 		.ascii	"\220\344g&1\3058v\366\246\331\311\353>\261H\012l\022"
  59      31C53876 
  59      F6A6D9C9 
  59      EB3EB148 
  59      0A6C12
  60 0193 8E9D1889 		.ascii	"\216\235\030\211\261S\320}b\221\024\331$\034;1\022c"
  60      B153D07D 
  60      629114D9 
  60      241C3B31 
  60      1263
  61 01a5 A7A8FBC4 		.ascii	"\247\250\373\304\")\315L\222\236\303\316\253ivJ\272"
  61      2229CD4C 
  61      929EC3CE 
  61      AB69764A 
  61      BA
  62 01b6 4FFE4C48 		.ascii	"O\376LH\312l\022\216\235\030\211\261S\326}b\221T\330"
  62      CA6C128E 
  62      9D1889B1 
  62      53D67D62 
  62      9154D8
  63 01c9 241C3B31 		.ascii	"$\034;1\022c\247\242\355X$\325\231IN\315a\347\3554;"
  63      1263A7A2 
  63      ED5824D5 
  63      99494ECD 
  63      61E7ED34 
  64 01de 556DE7EF 		.ascii	"Um\347\357\204\244\306&\341\330\211\221\030;5m\307\""
  64      84A4C626 
  64      E1D88991 
  64      183B356D 
  64      C722
  65 01f0 A9B34938 		.ascii	"\251\263I8vb$\306N\035\340\013t\017\277\235\211\316"
  65      766224C6 
  65      4E1DE00B 
  65      740FBF9D 
  65      89CE
  66 0202 9BD154BF 		.ascii	"\233\321T\277n\352\217\014}\355\027\033\215 \372\254"
  66      6EEA8F0C 
  66      7DED171B 
  66      8D20FAAC 
  67 0212 6F066B2B 		.ascii	"o\006k+\235`c\375\301\303\315\340F\363\352\205\363\301"
  67      9D6063FD 
  67      C1C3CDE0 
ARM GAS  /tmp/cc1JZUn6.s 			page 5


  67      46F3EA85 
  67      F3C1
  68 0224 D2D2E5E0 		.ascii	"\322\322\345\340\312\365\305k\217\026h\353\316\206\272"
  68      CAF5C56B 
  68      8F1668EB 
  68      CE86BA
  69 0233 3A9D7B8D 		.ascii	":\235{\215U8\006M\334\014\370"
  69      5538064D 
  69      DC0CF8
  70              		.text
  71              		.section	.gnu.lto__pal_lld_setgroupmode.b618cd42dfaf2520,"",%progbits
  72 0000 789C9556 		.ascii	"x\234\225V]h\\U\020\236\271\377w\367\356n\311\377\177"
  72      5D685C55 
  72      109EB9FF 
  72      77F7EE6E 
  72      C9FF7F
  73 0013 D2D04445 		.ascii	"\322\320DE\314R\213\320\007A\021E\305\212\202\011\350"
  73      CC528BD0 
  73      07411145 
  73      C58A8209 
  73      E8
  74 0024 93C6046F 		.ascii	"\223\306\004o\026\262\264\244\342\213\017\275\311\346"
  74      16B2B4A4 
  74      E28B0FBD 
  74      C9E6
  75 0032 A1149120 		.ascii	"\241\024\221 \270\304\237\207D\011\226\030\215\012\322"
  75      B8C49F87 
  75      44099618 
  75      8D0AD2
  76 0041 D40A6E82 		.ascii	"\324\012n\202\205\246M\205<\3055\025VE\005\023T(B\252"
  76      85A64D85 
  76      3CC53515 
  76      56450513 
  76      542842AA 
  77 0055 ADEB9CBF 		.ascii	"\255\353\234\277\273\331u%\361\222=s\356\314|3\363\315"
  77      BBD97525 
  77      F1923D73 
  77      EECC7C33 
  77      F3CD
  78 0067 9C3D1B0D 		.ascii	"\234=\033\0154\250|>\245\317\246\013\360\030I<\000\250"
  78      34A87C3E 
  78      A5CFA60B 
  78      F018493C 
  78      00A8
  79 0079 4D7D0530 		.ascii	"M}\0050\356h\232\376{=\004\021c\346(\004\236\216\226"
  79      EE689AFE 
  79      7B3D0411 
  79      63E62804 
  79      9E8E96
  80 008c 501B9AC9 		.ascii	"P\033\232\311\325\026W\233Jma\\ll\3159}\033\331]\266"
  80      D516579B 
  80      4A6D615C 
  80      6C6CCD39 
  80      7D1BD95D 
  81 00a1 7A0E4684 		.ascii	"z\016F\204\332U\233\210\026\345v\217\333\243\030\023"
  81      DA559B88 
  81      16E5768F 
ARM GAS  /tmp/cc1JZUn6.s 			page 6


  81      DBA31813 
  82 00b1 6A4F6D62 		.ascii	"jOmb\"\320\262\023\327\354\363\027\201<\023\033\016"
  82      22D0B213 
  82      D7ECF317 
  82      813C131B 
  82      0E
  83 00c2 79261099 		.ascii	"y&\020\231\036\020Ni\272aZ\266\343F\242^,\236\300S\317"
  83      1E104E69 
  83      BA615AB6 
  83      E346A25E 
  83      2C9EC053 
  84 00d7 20A361A4 		.ascii	" \243a\244\021\272a6\010^+\314}\270\252\277\021\344"
  84      11BA6136 
  84      085E2BCC 
  84      7DB8AABF 
  84      11E4
  85 00e9 2667829B 		.ascii	"&g\202\233\305\"b\012\211\365Q\204!\204\247\351\005"
  85      C522620A 
  85      89F55184 
  85      2184A7E9 
  85      05
  86 00fa BBB8D08C 		.ascii	"\273\270\320\214\3626\010lpk\370R0\231+\026\357\343"
  86      F236086C 
  86      706BF852 
  86      30992B16 
  86      EFE3
  87 010c A87BF787 		.ascii	"\250{\367\207\312\375q\346\325\346`fb*\370\233\022\246"
  87      CAFD71E6 
  87      D5E66066 
  87      622AF89B 
  87      12A6
  88 011e 50D7E0FE 		.ascii	"P\327\340\376\275\220\213Z\256P,\256\255o\177\277\205"
  88      BD908B5A 
  88      AE502CAE 
  88      AD6F7FBF 
  88      85
  89 012f 35B723A4 		.ascii	"5\267#\244\0215\030\304Y\354\006]JCJSJKJ[JGJW\312\010"
  89      113518C4 
  89      59EC065D 
  89      4A434A53 
  89      4A4B4A5B 
  90 0149 C939921E 		.ascii	"\3119\222\036\246Q\213\323\242'h\301\032H\241QK\266"
  90      A6518BD3 
  90      A22768C1 
  90      1A48A151 
  90      4BB6
  91 015b 77C95627 		.ascii	"w\311V'}\353\245l\220\262Q\312&r6\233\345K\213\224\255"
  91      7DEBA56C 
  91      90B251CA 
  91      2672369B 
  91      E54B8B94 
  92 0170 4CD9265F 		.ascii	"L\331&_\332\245\354`%w\312\224]\314\343 [\272\331r\210"
  92      DAA5EC60 
  92      2577CA94 
  92      5DCCE320 
  92      5BBAD972 
  93 0185 2D3D6CE9 		.ascii	"-=l\351e\013\3215a2\010\246\272\302!\345\256\227\267"
ARM GAS  /tmp/cc1JZUn6.s 			page 7


  93      650BD135 
  93      613208A6 
  93      BAC221E5 
  93      AE97B7
  94 0198 8C9AFDC0 		.ascii	"\214\232\375\300>G\264^6\242\207\366\211\312\227\241"
  94      3E47B45E 
  94      36A287F6 
  94      89CA97A1 
  95 01a8 1ED90B25 		.ascii	"\036\331\013%8\212\236\011\212\300\020\364\364\323J"
  95      388A9E09 
  95      8AC010F4 
  95      F4D34A
  96 01b7 477280C6 		.ascii	"Gr\200\306\265\341\350\227\340\313\237\227o\234\321"
  96      B5E1E897 
  96      E0CB9F97 
  96      6F9CD1
  97 01c6 07F13DE2 		.ascii	"\007\361=\342\351\243\307\202\231\372\256H\003\250\303"
  97      E9A3C782 
  97      99FAAE48 
  97      03A8C3
  98 01d5 394DBF0A 		.ascii	"9M\277\012+W\226\026\2275\341x'\314\007\223\343\301"
  98      2B579616 
  98      9735E178 
  98      27CC0793 
  98      E3C1
  99 01e7 91145A6F 		.ascii	"\221\024Zo\301\233\004\261}\2143\250\3031\317\243\300"
  99      C19B04B1 
  99      7D8C33A8 
  99      C331CFA3 
  99      C0
 100 01f8 FA985041 		.ascii	"\372\230PA\014\230\261D\266[\227c\345\331\214\262l&"
 100      0C98B144 
 100      B65B9763 
 100      E5D98CB2 
 100      6C26
 101 020a 149067DB 		.ascii	"\024\220g\333Y\274\201\373\314\206\225\331,\306\355"
 101      59BC81FB 
 101      CC8695D9 
 101      2CC6ED
 102 0219 2A4C5C9B 		.ascii	"*L\\\233\376D\005\361\261\346.X\010\016\244\320\245"
 102      FE4405F1 
 102      B1E62E58 
 102      080EA4D0 
 102      A5
 103 022a 20E3536C 		.ascii	" \343Sl\027y\031\376\014\246\331.\232\3461X\320\250"
 103      177919FE 
 103      0CA6D92E 
 103      9AE63158 
 103      D0A8
 104 023c 0CE68545 		.ascii	"\014\346\205EQ\240_3\035*L-E\002X\005\331\012\321cR"
 104      51A05F33 
 104      1D2A4C2D 
 104      45025805 
 104      D90AD163 
 105 0251 33DD4461 		.ascii	"3\335Da\365\307\250\322\263\011\260\200<\006\331rw("
 105      F5C7A8D2 
 105      B309B080 
ARM GAS  /tmp/cc1JZUn6.s 			page 8


 105      3C06D972 
 105      7728
 106 0263 CB42A5A5 		.ascii	"\313B\245\245UY\346+-\226\262\234\255\260\024._\014"
 106      5559E62B 
 106      2D96B29C 
 106      ADB0142E 
 106      5F0C
 107 0275 6D73D216 		.ascii	"ms\322\026\316m\000m\240\353\207Z\220\371 \263\230m"
 107      CE6D006D 
 107      A0EB875A 
 107      90F920B3 
 107      986D
 108 0287 52B5D7F9 		.ascii	"R\265\327\371h2G\317\2002\012\363\234B\035\243J\200"
 108      683247CF 
 108      80320AF3 
 108      9C421DA3 
 108      4A80
 109 0299 8F1B947F 		.ascii	"\217\033\224\177\275\217z5\377\263\334\277^\372\237"
 109      BD8F7A35 
 109      FFB3DCBF 
 109      5EFA9F
 110 02a8 CB362B40 		.ascii	"\3136+@\203\217n5\300,\0074H\300\3710A\243\217v5\377"
 110      838F6E35 
 110      C02C0734 
 110      48C0F930 
 110      41A38F76 
 111 02be 05EEDFC8 		.ascii	"\005\356\337\310\375/d\276\310v*@\223\217\310OM\300"
 111      FD2F64BE 
 111      C8762A40 
 111      938FC84F 
 111      4DC0
 112 02d0 3AC10ED4 		.ascii	":\301\016\324\370\341\320\306\015\273\277\006\003tD"
 112      F8E1D0C6 
 112      0DBBBF06 
 112      037444
 113 02df BEED666D 		.ascii	"\276\355fm8\237\371!\333\242\034\233\211+\367MTkC\263"
 113      389FF921 
 113      DBA21C9B 
 113      892BF74D 
 113      546B43B3 
 114 02f3 C2BA2176 		.ascii	"\302\272!v+\333\252\260-\234dm\025v-\012\027\341\275"
 114      2BDBAAB0 
 114      2D9C646D 
 114      15762D0A 
 114      17E1BD
 115 0306 A7193910 		.ascii	"\247\0319\020\032\035>4\256\020Y\014\311\355\267\022"
 115      1A1D3E34 
 115      AE10590C 
 115      C9EDB712 
 116 0316 B7D6905B 		.ascii	"\267\326\220[\240\375\213\\k\005\271<\030T\252\363\312"
 116      A0FD8B5C 
 116      6B05B93C 
 116      1854AAF3 
 116      CA
 117 0327 E6089171 		.ascii	"\346\010\221q?\317?\227\007\207Js\256\345\207\251\024"
 117      3FCF3F97 
 117      07874A73 
ARM GAS  /tmp/cc1JZUn6.s 			page 9


 117      AEE587A9 
 117      14
 118 0338 77617394 		.ascii	"was\224\225\022\015)\\/\321o\243\321U\243/\246\332\246"
 118      95120D29 
 118      5C2FD16F 
 118      A3D155A3 
 118      2FA6DAA6 
 119 034c 687821F6 		.ascii	"hx!\366\257\022\375v>\263\332*\303jW\270X\031}a\264"
 119      AF12FD76 
 119      3EB3DA2A 
 119      C36A57B8 
 119      58197D61 
 120 0361 4AF44516 		.ascii	"J\364E\026M\036\205b\251\254\016I\337\303\335e\321-"
 120      4D1E8562 
 120      A9AC0E49 
 120      DFC3DD65 
 120      D12D
 121 0373 4D26EE7D 		.ascii	"M&\356}:\363~6\251\274;}\214\3603\217\345$\346x\370"
 121      3AF37E36 
 121      A9BC3B7D 
 121      8CF0338F 
 121      E524E678 
 122 0388 4ED1228D 		.ascii	"N\321\"\215\350D\327X\213\352\2755\326\"\213\312\217"
 122      E844D758 
 122      8BEABD35 
 122      D6228BCA 
 122      8F
 123 0399 6EB316B5 		.ascii	"n\263\026\265{\333\242Eq\240_\346\260\\\001\217\224"
 123      7BDBA245 
 123      71A05FE6 
 123      B05C018F 
 123      94
 124 03aa CA15E373 		.ascii	"\312\025\343sK\012A\310\256\234\247Y\311PW\012\316\000"
 124      4B0A41C8 
 124      AE9CA759 
 124      C950570A 
 124      CE00
 125 03bc D93C277F 		.ascii	"\331<'\177Z~\375Jx\037\211\362\355]\023%\277\204\305"
 125      5A7EFD4A 
 125      781F89F2 
 125      ED5D1325 
 125      BF84C5
 126 03cf E8C66E6E 		.ascii	"\350\306nn\216\344A\227\337w\353\355<\035{-\206y0\225"
 126      8EE44197 
 126      DF77EBED 
 126      3C1D7B2D 
 126      86793095 
 127 03e3 6A49A723 		.ascii	"jI\247#\3044\266\322L\233\324f\246q\225f\2074\016\323"
 127      C434B6D2 
 127      4C9BD466 
 127      A6719566 
 127      87340ED3 
 128 03f7 44E4E560 		.ascii	"D\344\345`-\344\251\025\235\261\035\223\021O\210Kr\345"
 128      2DE4A915 
 128      9DB11D93 
 128      114F884B 
 128      72E5
ARM GAS  /tmp/cc1JZUn6.s 			page 10


 129 0409 9BA5CFBE 		.ascii	"\233\245\317\276\323TQ]\374\262\305\377\274j\325?`\374"
 129      D354515D 
 129      FCB2C5FF 
 129      BC6AD53F 
 129      60FC
 130 041b ECFE1272 		.ascii	"\354\376\022r9HHN\231\237\227w\302p\335\334d3\375\312"
 130      3948484E 
 130      999F9777 
 130      C270DDDC 
 130      6433FDCA 
 131 042f EA4776D9 		.ascii	"\352Gv\331}\236\330#\211\317~\265X}_\357\252\357\320"
 131      7D9ED823 
 131      89CF7EB5 
 131      587D5FEF 
 131      AAEFD0
 132 0442 1EF5E9D5 		.ascii	"\036\365\351\325\353\353!$\237QE}\275\334\344\376\317"
 132      EBEB2124 
 132      9F51457D 
 132      BDDCE4FE 
 132      CF
 133 0453 FA74595F 		.ascii	"\372tY_/\300:\214\027\266z\004N=\3754\355\015\207\221"
 133      2FC03A8C 
 133      17B67A04 
 133      4E3DFD34 
 133      ED0D8791 
 134 0467 B8A7AF2F 		.ascii	"\270\247\257/)\376\216\237L\216\014\216&O\034\037{\361"
 134      29FE8E9F 
 134      4C8E0C8E 
 134      264F1C1F 
 134      7BF1
 135 0479 64F2A9FE 		.ascii	"d\362\251\376\307\217\334\235<v\354\301\344\303O>\372"
 135      C78FDC9D 
 135      3C76ECC1 
 135      E4C34F3E 
 135      FA
 136 048a C44B8799 		.ascii	"\304K\207\231\351\331\023\364\031\035\035\356\033\002"
 136      E9D913F4 
 136      191D1DEE 
 136      1B02
 137 0498 7D686C54 		.ascii	"}hlT\037z\301\307\224\226\036\321\322\264\037\033\371"
 137      1F7AC1C7 
 137      94961ED1 
 137      D2B41F1B 
 137      F9
 138 04a9 07E87946 		.ascii	"\007\350yF\377"
 138      FF
 139              		.text
 140              		.section	.gnu.lto_.symbol_nodes.b618cd42dfaf2520,"",%progbits
 141 0000 789C6362 		.ascii	"x\234cb`bPg\200\002\246\333\214\365\014\014\023\316"
 141      60625067 
 141      8002A6DB 
 141      8CF50C0C 
 141      13CE
 142 0012 3130D4D7 		.ascii	"10\324\327\317\353`d\272\303X\317\210\340\262\336ed"
 142      CFEB6064 
 142      BAC358CF 
 142      88E0B2DE 
ARM GAS  /tmp/cc1JZUn6.s 			page 11


 142      6564
 143 0024 60A96766 		.ascii	"`\251gf\000\000\361/\013W"
 143      0000F12F 
 143      0B57
 144              		.text
 145              		.section	.gnu.lto_.refs.b618cd42dfaf2520,"",%progbits
 146 0000 789C6362 		.ascii	"x\234cb`b`e\200\000FF \007\000\000\237\000\016"
 146      60626065 
 146      80004646 
 146      20070000 
 146      9F000E
 147              		.text
 148              		.section	.gnu.lto_.decls.b618cd42dfaf2520,"",%progbits
 149 0000 789CAD58 		.ascii	"x\234\255X}L\024G\024\237\331=>\016N\374H0\232\264\361"
 149      7D4C1447 
 149      149FD93D 
 149      3E0E4EFC 
 149      48309AB4 
 150 0015 B4B5696D 		.ascii	"\264\265im\353\201_\305\244\265\201;DZT\262h\323\277"
 150      EB815FC5 
 150      A4B5813B 
 150      445A54B2 
 150      68D3BF
 151 0028 7A5DE1C0 		.ascii	"z]\341\300K\201#\260\264\364\277-b\213X\355\251\210"
 151      4B8123B0 
 151      B4F4BF2D 
 151      628B58ED 
 151      A988
 152 003a E257C10A 		.ascii	"\342W\301\012\321\252A4\2661\032\335\032-F\032\265~"
 152      D1AA4134 
 152      B6311ADD 
 152      1A2D461A 
 152      B57E
 153 004c 4609F5FA 		.ascii	"F\011\365\372\207\325\304FK[k\251\304\353\233\331\217"
 153      87D5C446 
 153      4B5B6BA9 
 153      C4EB9BD9 
 153      8F
 154 005d DBBD0F6F 		.ascii	"\333\275\017o\3178\341\275Y\336\276\367\2337of\336\274"
 154      CF38E1BD 
 154      59DEBEF7 
 154      9B376F66 
 154      DEBC
 155 006f 5B0631E8 		.ascii	"[\0061\3505\214P\020\332[\343\021\372\200A\210E\010"
 155      358C5010 
 155      DA5BE311 
 155      FA804188 
 155      4508
 156 0081 CD030231 		.ascii	"\315\003\0021JAr\0031\352\004\352W\344\377 c#\357\322"
 156      4A417203 
 156      31EA04EA 
 156      57E4FF20 
 156      6323EFD2 
 157 0095 14FD2B40 		.ascii	"\024\375+@\026P\232\0144\005\350\005\240.\220\355\002"
 157      16509A0C 
 157      3405E805 
 157      A02E90ED 
ARM GAS  /tmp/cc1JZUn6.s 			page 12


 157      02
 158 00a6 3A0F740B 		.ascii	":\017t\013\310\006\224\011\362\275\320\367\002\015\000"
 158      C8069409 
 158      F2BDD0F7 
 158      020D00
 159 00b5 1D05BA06 		.ascii	"\035\005\272\006t\004\3502\320q \011\350$\320)e\334"
 159      7404E832 
 159      D0712009 
 159      E824D029 
 159      65DC
 160 00c7 4EA53F13 		.ascii	"N\245?\0236>\361k\024\320A\240\014\005?I7\207+\312\330"
 160      363EF16B 
 160      14D041A0 
 160      0C053F49 
 160      37872BCA 
 161 00dc E780FE05 		.ascii	"\347\200\376\005z\010\364\"\274\264 \231\006\201n*\343"
 161      7A08F422 
 161      BCB42099 
 161      06816E2A 
 161      E3
 162 00ed 5F56ECFA 		.ascii	"_V\354\372\225wd\256C@\177\001\335\017\033w\022\332"
 162      957764AE 
 162      43407F01 
 162      DD0F1B77 
 162      12DA
 163 00ff 21760402 		.ascii	"!v\004\002+o\037\230(v4J\301\340\333h<\332(B\353\370"
 163      2B6F1F98 
 163      2876344A 
 163      C1E0DB68 
 163      3CDA2842 
 164 0115 5C14B1C0 		.ascii	"\\\024\261\300\343y\231\350}\314\343\014+\262\323\007"
 164      E37999E8 
 164      7DCCE30C 
 164      2BB2D307 
 165 0125 9B958222 		.ascii	"\233\225\202\"\304\343\235x<}bixQ:j\021\305Fb\270\340"
 165      C4E39D78 
 165      3C7D6269 
 165      78513A6A 
 165      11C54662 
 166 013b 4CC638B4 		.ascii	"L\3068\264\216\242\000\310\031\230\220\002\021`U\214"
 166      8EA200C8 
 166      19989002 
 166      1160558C 
 167 014b 37C1602A 		.ascii	"7\301`*\332%\212\376\300\320\203VV\024S\025\013{Lu\036"
 167      DA258AFE 
 167      C0D08356 
 167      56145315 
 167      0B7B4C75 
 168 0160 77E3A928 		.ascii	"w\343\251(\256\032Q\334\215\307\241ih\017\350\371E\361"
 168      AE1A51DC 
 168      8DC7A169 
 168      680FE8F9 
 168      45F1
 169 0172 E41BD830 		.ascii	"\344\033\3300g:\254(\015\365\331D\213\254JL\366\340"
 169      673AAC28 
 169      0DF5D944 
 169      8BAC4A4C 
ARM GAS  /tmp/cc1JZUn6.s 			page 13


 169      F6E0
 170 0184 69284A9B 		.ascii	"i(J\233\214:\210\362\203\276mX\3548\211\243\214\376"
 170      8C3A88F2 
 170      83BE6D58 
 170      EC3889A3 
 170      8CFE
 171 0196 A13AB84D 		.ascii	"\241:\270M\233\222t\242\017\333y\274\017\324\031T\217"
 171      9B9274A2 
 171      0FDB79BC 
 171      0FD41954 
 171      8F
 172 01a7 0DE8F110 		.ascii	"\015\350\361\020\210/=`(\333(\276\366\312\276\366\230"
 172      882F3D60 
 172      28DB28BE 
 172      F6CABEF6 
 172      98
 173 01b8 F0B5513A 		.ascii	"\360\265Q:\334\327:\221\370jE\315\241\365@QWQY\201\336"
 173      DCD73A91 
 173      F86A45CD 
 173      A1F54051 
 173      57515981 
 174 01cd 96D33FE0 		.ascii	"\226\323?\340FX*\036\037\0043\006uc\243\323\346\241"
 174      46582A1E 
 174      1F043306 
 174      7563A3D3 
 174      E6A1
 175 01df 4EAC3E36 		.ascii	"N\254>6\027\026\223\307\207)\320`\030\020\217S\254z"
 175      171693C7 
 175      8729D060 
 175      18108F53 
 175      AC7A
 176 01f1 97E9FFAA 		.ascii	"\227\351\377\252\002A\243\257\225\007r\250G\243D\325"
 176      0241A3AF 
 176      950772A8 
 176      47A344D5 
 177 0201 1974870E 		.ascii	"\031t\207\016J\202\025\315Q\345Qn\212\202!\200\201\241"
 177      4A8215CD 
 177      51E5516E 
 177      8A822180 
 177      81A1
 178 0213 A1B5AFB4 		.ascii	"\241\265\257\264\213R\023\253\206\343\367\204\001\355"
 178      8B5213AB 
 178      86E3F784 
 178      01ED
 179 0221 861539D6 		.ascii	"\206\0259\326g\363\363*\330\037f\300R\243x\027\255\351"
 179      67F3F32A 
 179      D81F66C0 
 179      52A37817 
 179      ADE9
 180 0233 F70A8F0F 		.ascii	"\367\012\217\017\300\371\340q/\236\014\374\010\345G"
 180      C0F9E071 
 180      2F9E0CFC 
 180      08E547
 181 0242 816B8D41 		.ascii	"\201k\215A\177\323\261w\207\3066l\275x\221\021\245a"
 181      7FD3B177 
 181      87C6366C 
 181      BD789111 
ARM GAS  /tmp/cc1JZUn6.s 			page 14


 181      A561
 182 0254 E518A87B 		.ascii	"\345\030\250{\373\221\031<\303\\\354\006\274\221\002"
 182      FB91193C 
 182      C35CEC06 
 182      BC9102
 183 0263 121719AB 		.ascii	"\022\027\031\253\2211\2015!\266o\376wBX\253\314`\331"
 183      91318135 
 183      21B66FFE 
 183      774258AB 
 183      CC60D9
 184 0276 63FBD5A6 		.ascii	"c\373\325\246\303\362\233\301\312z\322z\251\313\363"
 184      C3F29BC1 
 184      CA7AD27A 
 184      A9CBF3
 185 0285 2D5D9EBD 		.ascii	"-]\236\275ta\216S.Q~\222\362S\306\245\332\304\204\237"
 185      74618E53 
 185      2E517E92 
 185      F253C6A5 
 185      DAC4849F 
 186 0299 1C3953E9 		.ascii	"\0349S\351PwkK\217\314\342\306J\345\273pz\010w)\253"
 186      50776B4B 
 186      8FCCE2C6 
 186      4AE5BB70 
 186      7A087729 
 187 02ae F3A333CC 		.ascii	"\363\2433\314\217\027\3217\242\270\036n\214;\0268#\026"
 187      8F17D137 
 187      A2B81E6E 
 187      8C3B1638 
 187      2316
 188 02c0 D994413D 		.ascii	"\331\224A=T\255\023O\212:\2046\300K\250\213d\2775\342"
 188      54AD134F 
 188      8A3A8436 
 188      C04BA88B 
 188      64BF35E2 
 189 02d4 CA3198DE 		.ascii	"\3121\230\336-H\2612L\254\0173z\201|II\255gm\376\317"
 189      2D48B132 
 189      4CAC0F33 
 189      7A817C49 
 189      49AD676D 
 190 02ea 02C1E024 		.ascii	"\002\301\340$\3637\324O\361o(\303E\202U\200\347\220"
 190      F337D44F 
 190      F16F28C3 
 190      45825580 
 190      E790
 191 02fc 96D10637 		.ascii	"\226\321\0067\3746\233f\264\363t;\334g\342\346s#\014"
 191      FC369B66 
 191      B4F3743B 
 191      DC67E2E6 
 191      73230C
 192 030f F1E36278 		.ascii	"\361\343bxB\177x\225&\364\213\361\023z\323\012\351\321"
 192      427F7895 
 192      26F48BF1 
 192      137AD30A 
 192      E9D1
 193 0321 555D425F 		.ascii	"U]B_\361\304,\314\343Ct\223\231I\223#t&\027\237.M\202"
 193      F1C42CCC 
 193      E3437493 
ARM GAS  /tmp/cc1JZUn6.s 			page 15


 193      99499323 
 193      7426179F 
 194 0338 5B235769 		.ascii	"[#WiV\273B\263\232\310&\012f7\200=\326\2035\231\001"
 194      56BB42B3 
 194      9AC8260A 
 194      6637803D 
 194      D6833599 
 195 034d 8B962215 		.ascii	"\213\226\"\0250\3775\035Xs\302`F\317\326\353\301\276"
 195      30FF351D 
 195      5873C260 
 195      46CFD6EB 
 195      C1BE
 196 035f 34033626 		.ascii	"4\0036&\266g\255z\260u\011\203\031=k\323\203m4\003\026"
 196      B667AD7A 
 196      B0750983 
 196      193D6BD3 
 196      836D3403 
 197 0374 2D7D466B 		.ascii	"-}Fk\372\035\313\343KtK]\246\331\344\032\345\327)\037"
 197      FA1DCBE3 
 197      4B744B5D 
 197      A6D9E41A 
 197      E5D7291F 
 198 0388 A07C90F2 		.ascii	"\240|\220\362\233\224\377\032/\327\250%_o[\016=S\347"
 198      9B94FF1A 
 198      2FD7A825 
 198      5F6F5B0E 
 198      3D53E7
 199 039b 68F2D8C2 		.ascii	"h\362\330\302\032\317\224\341\234\312\007/\326\011\277"
 199      1ACF94E1 
 199      9CCA072F 
 199      D609BF
 200 03aa 0500D1CF 		.ascii	"\005\000\321\317O\304;%\011\230\256e\244+-\231\344\220"
 200      4FC43B25 
 200      0998AE65 
 200      A42B2D99 
 200      E490
 201 03bc DEA6F1ED 		.ascii	"\336\246\361\355b\303\3631\271\316\015\343\231*e\022"
 201      62C3F331 
 201      B9CE0DE3 
 201      992A6512 
 202 03cc F6E29734 		.ascii	"\366\342\2274\206\307w\251\017\007\237\221\017a)\376"
 202      86C777A9 
 202      0F079F91 
 202      0F6129FE 
 203 03dc 281B35C5 		.ascii	"(\0335\305\237\3369\254\244xy\225~\246j\3751S<\321R"
 203      9FDE39AC 
 203      A4787995 
 203      7EA66AFD 
 203      31533CD1 
 204 03f1 6CA54D67 		.ascii	"l\245Mg\367A\312b\324\340]\215cJ\264T\323\366\263\335"
 204      F741CA62 
 204      D4E05D8D 
 204      634AB454 
 204      D3F6B3DD 
 205 0405 B2A93CE7 		.ascii	"\262\251<\347\2018\246w\345\010\310\027\213\264\261"
 205      8138A677 
 205      E508C817 
ARM GAS  /tmp/cc1JZUn6.s 			page 16


 205      8BB4B1
 206 0414 65450716 		.ascii	"eE\007\026\223\265\253\245?\374j\271g\274Z\246\240N"
 206      93B5ABA5 
 206      3FFC6AB9 
 206      67BC5AA6 
 206      A04E
 207 0426 F1C20569 		.ascii	"\361\302\005ik\013\251k\032\375\342\343`\020\217E~\232"
 207      6B0BA96B 
 207      1AFDE2E3 
 207      60108F45 
 207      7E9A
 208 0438 D1376728 		.ascii	"\3217g(\213\024\350\222&l\016-R\252\352\000F\272\012"
 208      8B14E892 
 208      266C0E2D 
 208      52AAEA00 
 208      46BA0A
 209 044b 7AFFABB0 		.ascii	"z\377\253\260\2415\0031\246\001\217\207\351q\302\306"
 209      A1350331 
 209      A6018F87 
 209      E971C2C6 
 210 045b 85C2D6D0 		.ascii	"\205\302\326\320C\020\223U\011\204\255\212\011l\255"
 210      43109355 
 210      0984AD8A 
 210      096CAD
 211 046a 06DF219F 		.ascii	"\006\337!\237\256\021\032\301;\021\273&|\323\304\361"
 211      AE111AC1 
 211      3B11BB26 
 211      7CD3C4F1 
 212 047a 25115DC5 		.ascii	"%\021]\305-\277v\005\3125K(\246<\376\017Tc\250\361\230"
 212      2DBF7605 
 212      CA354B28 
 212      A63CFE0F 
 212      5463A8F1 
 213 048f 845F9BAD 		.ascii	"\204_\233\255\250\245\000\2335f\006\020\031y6\332\035"
 213      A8A5009B 
 213      35660610 
 213      197936DA 
 213      1D
 214 04a0 A33C8C35 		.ascii	"\243<\2145\270\255jA<\376\014\337Q\341^0h\230\225\247"
 214      B8AD6A41 
 214      3CFE0CDF 
 214      51E15E30 
 214      689895A7 
 215 04b4 3D0B1D12 		.ascii	"=\013\035\022\233\245\216$\036?\004\277\264\274\251"
 215      9BA58E24 
 215      1E3F04BF 
 215      B4BCA9
 216 04c3 CCD7A24A 		.ascii	"\314\327\242J\260*aT\011\023\241\303\252\222TUb\211"
 216      B02A6154 
 216      0913A1C3 
 216      AA925455 
 216      6289
 217 04d5 90241943 		.ascii	"\220$\031C\012\222dU\302\252\222\024U\222b\334\002z"
 217      0A926455 
 217      C2AA9214 
 217      559262DC 
 217      027A
ARM GAS  /tmp/cc1JZUn6.s 			page 17


 218 04e7 1C6B8424 		.ascii	"\034k\204$-B\222\036!\261EHFEH2\"$\243#$cTI\272*\031"
 218      2D42921E 
 218      21B14548 
 218      46454832 
 218      2224A323 
 219 0502 AB4A48FA 		.ascii	"\253JH\372\211R0\211\332\017\370\254\320.\036\274to"
 219      89523089 
 219      DA0FF8AC 
 219      D02E1EBC 
 219      746F
 220 0514 0EDDC54D 		.ascii	"\016\335\305M\014\251\273VZ\342\326]F\030\262\352_0"
 220      0CA9BB56 
 220      5AE2D65D 
 220      4618B2EA 
 220      5F30
 221 0526 6175D7A3 		.ascii	"au\327\243\033\264\356\"\362\370uW\360\206\\wi\3675"
 221      1BB4EE22 
 221      F2F87557 
 221      F0865C77 
 221      69F735
 222 0539 7581D83E 		.ascii	"u\201\330>]\301\344\037\320\335\327\255\011\203\331"
 222      5DC1E41F 
 222      D0DDD7AD 
 222      0983D9
 223 0548 0D60EBF5 		.ascii	"\015`\353\365`\355f\300\236P0\265\352\301\266'\014f"
 223      60ED66C0 
 223      9E5030B5 
 223      EAC1B627 
 223      0C66
 224 055a F4AC4D0F 		.ascii	"\364\254M\017\326m\006\354\011\005\323f=XO\302`F\317"
 224      D66D06EC 
 224      0905D366 
 224      3D584FC2 
 224      6046CF
 225 056d B6E8C1BE 		.ascii	"\266\350\301\2763\003\026\353\367&\200m\323\203\035"
 225      330316EB 
 225      F726806D 
 225      D3831D
 226 057c 4F18CCE8 		.ascii	"O\030\314\350\331\016=\330\217f\300\354\261=;\240\007"
 226      D90E3DD8 
 226      8F66C0EC 
 226      B13D3BA0 
 226      07
 227 058d EB4F184C 		.ascii	"\353O\030L\347\231\330(}\277u\255r\010\344\317\027\347"
 227      E799D828 
 227      7DBF75AD 
 227      7208E4CF 
 227      17E7
 228 059f CDE0BD1C 		.ascii	"\315\340\275\034\333\271#\003\306Cu=a<;\212\331\364"
 228      DBB92303 
 228      C643753D 
 228      613C3B8A 
 228      D9F4
 229 05b1 279EC7CD 		.ascii	"'\236\307\315\014\271hW1\2442]M\371\032\312\277\242"
 229      0CB96857 
 229      31A4325D 
 229      4DF91ACA 
ARM GAS  /tmp/cc1JZUn6.s 			page 18


 229      BFA2
 230 05c3 7C1DE51B 		.ascii	"|\035\345\033(\337H\371&\312\333)\337J\371v\312\277"
 230      28DF48F9 
 230      26CADB29 
 230      DF4AF976 
 230      CABF
 231 05d5 6674556D 		.ascii	"ftUmXm\332\024\303q\372\273\226\321~Tk\345\236\364\014"
 231      586DDA14 
 231      C371FABB 
 231      96D17E54 
 231      6BE59EF4 
 232 05ea 7EBA45FF 		.ascii	"~\272E\377\266j\370,\301\343\375\024\254\307\360\211"
 232      B66AF82C 
 232      C1E3FD14 
 232      ACC7F089 
 233 05fa 20E697A1 		.ascii	" \346\227\241\260I\351.\273\310/\005\241I\241\331\323"
 233      B049E92E 
 233      BBC82F05 
 233      A149A1D9 
 233      D3
 234 060b A73BE43F 		.ascii	"\247;\344?_\235c9_\351\250\361\325\012u\216\222%\013"
 234      5F9D6339 
 234      5FE9A8F1 
 234      D50A758E 
 234      92250B
 235 061e 67CE7014 		.ascii	"g\316p\024\025\271\034\005\305\205\213?\316&\257\334"
 235      15B91C05 
 235      C5858B3F 
 235      CE26AFDC 
 236 062e 35409595 		.ascii	"5@\225\225e\323K\237\312j9J.X\264\324\356D\343\352\204"
 236      65D34B9F 
 236      CA6A394A 
 236      2E58B4D4 
 236      EE44E3EA 
 237 0643 AA9933DC 		.ascii	"\252\2313\334\0255^\237\273\316#\324\327\270\205\347"
 237      15355E9F 
 237      BBCE23D4 
 237      D7B885E7 
 238 0653 1DF575B5 		.ascii	"\035\365u\265\016ouie}\231\307Q\355\371\244\322\273"
 238      0E6F7569 
 238      657D99C7 
 238      51EDF9A4 
 238      D2BB
 239 0665 CC512794 		.ascii	"\314Q'\224y\253\005\260K\255\207\036,\204\327\243\251"
 239      79AB05B0 
 239      4BAD871E 
 239      2C84D7A3 
 239      A9
 240 0676 55F1A5CB 		.ascii	"U\361\245\313\275\325\036\207\273\314S\316\327W\012"
 240      BDD51E87 
 240      BBCC53CE 
 240      D7570A
 241 0685 6EE1D31A 		.ascii	"n\341\323\032O\035\230\245\271\335\252!\353+\253eKk"
 241      4F1D98A5 
 241      B9DDAA21 
 241      EB2BAB65 
 241      4B6B
ARM GAS  /tmp/cc1JZUn6.s 			page 19


 242 0697 2B819627 		.ascii	"+\201\226'\027\347\272x\201O.\316\223;\247\334\271\344"
 242      17E7BA78 
 242      814F2ECE 
 242      933BA7DC 
 242      B9E4
 243 06a9 2E9F74D6 		.ascii	".\237t\326\342\334\"\247\257\272\334[1Ju\337\355\255"
 243      E2DC22A7 
 243      AFBADC5B 
 243      314A75DF 
 243      EDAD
 244 06bb F60AC9A5 		.ascii	"\366\012\311\245T\230\243\237}\251\257\252\312W\355"
 244      5498A39F 
 244      7DA9AFAA 
 244      CA57ED
 245 06ca F034080E 		.ascii	"\3604\010\016\347\302\222\302\022\010\202\034\207\371"
 245      E7C292C2 
 245      1208821C 
 245      87F9
 246 06d8 D90D0D0E 		.ascii	"\331\015\015\016:\325\362\354\254\254\206e\340\221\215"
 246      3AD5F2EC 
 246      ACAC8665 
 246      E0918D
 247 06e7 84C5BD04 		.ascii	"\204\305\275\004\374sy\312Y'W\004\264\200-tq\354b\027"
 247      FC7379CA 
 247      59275704 
 247      B4802D74 
 247      71EC6217 
 248 06fb 67C92BE1 		.ascii	"g\311+\34186\217\343,E\316w\2714\257\217\304\324[\346"
 248      38368FE3 
 248      2C45CE77 
 248      B934AF8F 
 248      C4D45BE6 
 249 070f 166CF263 		.ascii	"\026l\362c\025_\367\221[H\365\372\252|e\036\267\220"
 249      155FF791 
 249      5B48F5FA 
 249      AA7C651E 
 249      B790
 250 0721 A9790631 		.ascii	"\251y\0061\254\250\365\325\327\020\271\205hZ\210\252"
 250      ACA8F5D5 
 250      D710B985 
 250      685A88AA 
 251 0731 85FC9B42 		.ascii	"\205\374\233B\002\220\343\026\254r(\340)\271\264\274"
 251      0290E316 
 251      AC7228E0 
 251      29B9B4BC 
 252 0741 42E097A5 		.ascii	"B\340\227\245\313\335\3649\263\346\346\244sN\247\352"
 252      CBDDF439 
 252      B3E6E6A4 
 252      734EA7EA 
 253 0751 14E3E42C 		.ascii	"\024\343\344,\316\371\005\034\353,\344Rs\213\363fp%"
 253      CEF9051C 
 253      EB2CE452 
 253      738BF366 
 253      7025
 254 0763 4BE84336 		.ascii	"K\350C6yH\316]\220\227\277\210K!/\224>\033zK\236\313"
 254      7948CE5D 
 254      9097BF88 
ARM GAS  /tmp/cc1JZUn6.s 			page 20


 254      4B212F94 
 254      3E1B7A4B 
 255 0779 0916259C 		.ascii	"\011\026%\234\225\313/\311\347\336\313we%\021\220\031"
 255      95CB2FC9 
 255      E7DECB77 
 255      65251190 
 255      19
 256 078a FF034E58 		.ascii	"\377\003NX\256\311"
 256      AEC9
 257              		.text
 258              		.section	.gnu.lto_.symtab.b618cd42dfaf2520,"",%progbits
 259 0000 5F70616C 		.ascii	"_pal_lld_init\000\000\000\000\000\000\000\000\000\000"
 259      5F6C6C64 
 259      5F696E69 
 259      74000000 
 259      00000000 
 260 0017 0000A100 		.ascii	"\000\000\241\000\000\000_pal_lld_setgroupmode\000\000"
 260      00005F70 
 260      616C5F6C 
 260      6C645F73 
 260      65746772 
 261 0034 00000000 		.ascii	"\000\000\000\000\000\000\000\000\000\000\313\000\000"
 261      00000000 
 261      0000CB00 
 261      00
 262 0041 00       		.ascii	"\000"
 263              		.text
 264              		.section	.gnu.lto_.opts,"",%progbits
 265 0000 272D6D63 		.ascii	"'-mcpu=cortex-m3' '-mno-thumb-interwork' '-mthumb' "
 265      70753D63 
 265      6F727465 
 265      782D6D33 
 265      2720272D 
 266 0033 272D6767 		.ascii	"'-ggdb' '-O2' '-fomit-frame-pointer' '-falign-funct"
 266      64622720 
 266      272D4F32 
 266      2720272D 
 266      666F6D69 
 267 0066 696F6E73 		.ascii	"ions=16' '-ffunction-sections' '-fdata-sections' '-"
 267      3D313627 
 267      20272D66 
 267      66756E63 
 267      74696F6E 
 268 0099 666E6F2D 		.ascii	"fno-common' '-flto'\000"
 268      636F6D6D 
 268      6F6E2720 
 268      272D666C 
 268      746F2700 
 269              		.text
 270              		.cfi_sections	.debug_frame
 271              		.section	.text._pal_lld_init,"ax",%progbits
 272              		.align	2
 273              		.p2align 4,,15
 274              		.global	_pal_lld_init
 275              		.thumb
 276              		.thumb_func
 277              		.type	_pal_lld_init, %function
ARM GAS  /tmp/cc1JZUn6.s 			page 21


 278              	_pal_lld_init:
 279              	.LFB219:
 280              		.file 1 "../../../os/hal/ports/STM32/LLD/GPIOv1/hal_pal_lld.c"
 281              		.loc 1 76 0
 282              		.cfi_startproc
 283              		@ args = 0, pretend = 0, frame = 0
 284              		@ frame_needed = 0, uses_anonymous_args = 0
 285              		@ link register save eliminated.
 286              	.LVL0:
 287              		.loc 1 81 0
 288 0000 4FF48053 		mov	r3, #4096
 289 0004 C4F20203 		movt	r3, 16386
 290 0008 9A69     		ldr	r2, [r3, #24]
 291              		.loc 1 76 0
 292 000a 10B4     		push	{r4}
 293              		.cfi_def_cfa_offset 4
 294              		.cfi_offset 4, -4
 295              		.loc 1 81 0
 296 000c 42F07D02 		orr	r2, r2, #125
 297 0010 9A61     		str	r2, [r3, #24]
 298              		.loc 1 86 0
 299 0012 0368     		ldr	r3, [r0]
 300 0014 4FF40062 		mov	r2, #2048
 301 0018 C4F20102 		movt	r2, 16385
 302 001c D360     		str	r3, [r2, #12]
 303              		.loc 1 87 0
 304 001e 8168     		ldr	r1, [r0, #8]
 305              		.loc 1 89 0
 306 0020 4FF44063 		mov	r3, #3072
 307              		.loc 1 87 0
 308 0024 5160     		str	r1, [r2, #4]
 309              		.loc 1 88 0
 310 0026 4168     		ldr	r1, [r0, #4]
 311              		.loc 1 89 0
 312 0028 C4F20103 		movt	r3, 16385
 313              		.loc 1 88 0
 314 002c 1160     		str	r1, [r2]
 315              		.loc 1 89 0
 316 002e C268     		ldr	r2, [r0, #12]
 317              		.loc 1 92 0
 318 0030 4FF48051 		mov	r1, #4096
 319              		.loc 1 89 0
 320 0034 DA60     		str	r2, [r3, #12]
 321              		.loc 1 90 0
 322 0036 4269     		ldr	r2, [r0, #20]
 323              		.loc 1 92 0
 324 0038 C4F20101 		movt	r1, 16385
 325              		.loc 1 90 0
 326 003c 5A60     		str	r2, [r3, #4]
 327              		.loc 1 91 0
 328 003e 0469     		ldr	r4, [r0, #16]
 329              		.loc 1 95 0
 330 0040 4FF4A052 		mov	r2, #5120
 331              		.loc 1 91 0
 332 0044 1C60     		str	r4, [r3]
 333              		.loc 1 92 0
 334 0046 8369     		ldr	r3, [r0, #24]
ARM GAS  /tmp/cc1JZUn6.s 			page 22


 335              		.loc 1 95 0
 336 0048 C4F20102 		movt	r2, 16385
 337              		.loc 1 92 0
 338 004c CB60     		str	r3, [r1, #12]
 339              		.loc 1 93 0
 340 004e 046A     		ldr	r4, [r0, #32]
 341              		.loc 1 99 0
 342 0050 4FF4C053 		mov	r3, #6144
 343              		.loc 1 93 0
 344 0054 4C60     		str	r4, [r1, #4]
 345              		.loc 1 94 0
 346 0056 C469     		ldr	r4, [r0, #28]
 347              		.loc 1 99 0
 348 0058 C4F20103 		movt	r3, 16385
 349              		.loc 1 94 0
 350 005c 0C60     		str	r4, [r1]
 351              		.loc 1 95 0
 352 005e 416A     		ldr	r1, [r0, #36]
 353              		.loc 1 113 0
 354 0060 5DF8044B 		ldr	r4, [sp], #4
 355              		.loc 1 95 0
 356 0064 D160     		str	r1, [r2, #12]
 357              		.loc 1 96 0
 358 0066 C16A     		ldr	r1, [r0, #44]
 359 0068 5160     		str	r1, [r2, #4]
 360              		.loc 1 97 0
 361 006a 816A     		ldr	r1, [r0, #40]
 362 006c 1160     		str	r1, [r2]
 363              		.loc 1 99 0
 364 006e 026B     		ldr	r2, [r0, #48]
 365 0070 DA60     		str	r2, [r3, #12]
 366              		.loc 1 100 0
 367 0072 826B     		ldr	r2, [r0, #56]
 368 0074 5A60     		str	r2, [r3, #4]
 369              		.loc 1 101 0
 370 0076 426B     		ldr	r2, [r0, #52]
 371 0078 1A60     		str	r2, [r3]
 372              		.loc 1 113 0
 373 007a 7047     		bx	lr
 374              		.cfi_endproc
 375              	.LFE219:
 376              		.size	_pal_lld_init, .-_pal_lld_init
 377 007c AFF30080 		.section	.text._pal_lld_setgroupmode,"ax",%progbits
 378              		.align	2
 379              		.p2align 4,,15
 380              		.global	_pal_lld_setgroupmode
 381              		.thumb
 382              		.thumb_func
 383              		.type	_pal_lld_setgroupmode, %function
 384              	_pal_lld_setgroupmode:
 385              	.LFB220:
 386              		.loc 1 132 0
 387              		.cfi_startproc
 388              		@ args = 0, pretend = 0, frame = 0
 389              		@ frame_needed = 0, uses_anonymous_args = 0
 390              		@ link register save eliminated.
 391              	.LVL1:
ARM GAS  /tmp/cc1JZUn6.s 			page 23


 392              		.loc 1 156 0
 393 0000 032A     		cmp	r2, #3
 394              		.loc 1 132 0
 395 0002 F0B4     		push	{r4, r5, r6, r7}
 396              		.cfi_def_cfa_offset 16
 397              		.cfi_offset 4, -16
 398              		.cfi_offset 5, -12
 399              		.cfi_offset 6, -8
 400              		.cfi_offset 7, -4
 401              		.loc 1 157 0
 402 0004 08BF     		it	eq
 403 0006 0161     		streq	r1, [r0, #16]
 404              		.loc 1 156 0
 405 0008 02D0     		beq	.L4
 406              		.loc 1 158 0
 407 000a 042A     		cmp	r2, #4
 408              		.loc 1 159 0
 409 000c 08BF     		it	eq
 410 000e 4161     		streq	r1, [r0, #20]
 411              	.L4:
 412              		.loc 1 160 0
 413 0010 40F20003 		movw	r3, #:lower16:.LANCHOR0
 414 0014 C0F20003 		movt	r3, #:upper16:.LANCHOR0
 415 0018 9F5C     		ldrb	r7, [r3, r2]	@ zero_extendqisi2
 416              	.LVL2:
 417              		.loc 1 161 0
 418 001a 0023     		movs	r3, #0
 419 001c 1C46     		mov	r4, r3
 420 001e 1A46     		mov	r2, r3
 421              	.LVL3:
 422 0020 1D46     		mov	r5, r3
 423              		.loc 1 160 0
 424 0022 0826     		movs	r6, #8
 425              	.LVL4:
 426              	.L10:
 427              		.loc 1 167 0
 428 0024 11F0800F 		tst	r1, #128
 429              		.loc 1 163 0
 430 0028 4FEA0212 		lsl	r2, r2, #4
 431              	.LVL5:
 432              		.loc 1 165 0
 433 002c 4FEA0313 		lsl	r3, r3, #4
 434              	.LVL6:
 435              		.loc 1 164 0
 436 0030 4FEA0515 		lsl	r5, r5, #4
 437              	.LVL7:
 438              		.loc 1 166 0
 439 0034 4FEA0414 		lsl	r4, r4, #4
 440              	.LVL8:
 441              		.loc 1 168 0
 442 0038 0CBF     		ite	eq
 443 003a 42F00F02 		orreq	r2, r2, #15
 444              	.LVL9:
 445              		.loc 1 170 0
 446 003e 3B43     		orrne	r3, r3, r7
 447              	.LVL10:
 448              		.loc 1 171 0
ARM GAS  /tmp/cc1JZUn6.s 			page 24


 449 0040 11F4004F 		tst	r1, #32768
 450              		.loc 1 172 0
 451 0044 0CBF     		ite	eq
 452 0046 45F00F05 		orreq	r5, r5, #15
 453              	.LVL11:
 454              		.loc 1 174 0
 455 004a 3C43     		orrne	r4, r4, r7
 456              	.LVL12:
 457              		.loc 1 162 0
 458 004c 013E     		subs	r6, r6, #1
 459              	.LVL13:
 460              		.loc 1 175 0
 461 004e 4FEA4101 		lsl	r1, r1, #1
 462              	.LVL14:
 463              		.loc 1 162 0
 464 0052 E7D1     		bne	.L10
 465              		.loc 1 177 0
 466 0054 4168     		ldr	r1, [r0, #4]
 467              	.LVL15:
 468 0056 0D40     		ands	r5, r5, r1
 469              	.LVL16:
 470 0058 2C43     		orrs	r4, r4, r5
 471              	.LVL17:
 472 005a 4460     		str	r4, [r0, #4]
 473              		.loc 1 178 0
 474 005c 0168     		ldr	r1, [r0]
 475              		.loc 1 179 0
 476 005e F0BC     		pop	{r4, r5, r6, r7}
 477              	.LVL18:
 478              		.loc 1 178 0
 479 0060 0A40     		ands	r2, r2, r1
 480              	.LVL19:
 481 0062 1343     		orrs	r3, r3, r2
 482              	.LVL20:
 483 0064 0360     		str	r3, [r0]
 484              		.loc 1 179 0
 485 0066 7047     		bx	lr
 486              		.cfi_endproc
 487              	.LFE220:
 488              		.size	_pal_lld_setgroupmode, .-_pal_lld_setgroupmode
 489 0068 AFF30080 		.section	.rodata.cfgtab.6498,"a",%progbits
 489      AFF30080 
 490              		.align	2
 491              		.set	.LANCHOR0,. + 0
 492              		.type	cfgtab.6498, %object
 493              		.size	cfgtab.6498, 18
 494              	cfgtab.6498:
 495 0000 04       		.byte	4
 496 0001 02       		.byte	2
 497 0002 04       		.byte	4
 498 0003 08       		.byte	8
 499 0004 08       		.byte	8
 500 0005 00       		.byte	0
 501 0006 03       		.byte	3
 502 0007 07       		.byte	7
 503 0008 08       		.byte	8
 504 0009 08       		.byte	8
ARM GAS  /tmp/cc1JZUn6.s 			page 25


 505 000a 08       		.byte	8
 506 000b 08       		.byte	8
 507 000c 08       		.byte	8
 508 000d 08       		.byte	8
 509 000e 08       		.byte	8
 510 000f 08       		.byte	8
 511 0010 0B       		.byte	11
 512 0011 0F       		.byte	15
 513 0012 0000     		.text
 514              	.Letext0:
 515              		.file 2 "/usr/include/newlib/machine/_default_types.h"
 516              		.file 3 "/usr/include/newlib/stdint.h"
 517              		.file 4 "../../../os/common/ports/ARMCMx/compilers/GCC/chtypes.h"
 518              		.file 5 "../../../os/rt/include/chsystypes.h"
 519              		.file 6 "../../../os/rt/include/chschd.h"
 520              		.file 7 "../../../os/common/ext/CMSIS/ST/STM32F1xx/stm32f100xb.h"
 521              		.file 8 "../../../os/common/ports/ARMCMx/chcore.h"
 522              		.file 9 "../../../os/common/ports/ARMCMx/chcore_v7m.h"
 523              		.file 10 "../../../os/rt/include/chsem.h"
 524              		.file 11 "../../../os/rt/include/chmtx.h"
 525              		.file 12 "../../../os/hal/ports/STM32/LLD/GPIOv1/hal_pal_lld.h"
 526              		.file 13 "../../../os/common/ext/CMSIS/include/core_cm3.h"