ARM GAS  /tmp/ccj5wzVV.s 			page 1


   1              		.syntax unified
   2              		.cpu cortex-m3
   3              		.fpu softvfp
   4              		.eabi_attribute 20, 1
   5              		.eabi_attribute 21, 1
   6              		.eabi_attribute 23, 3
   7              		.eabi_attribute 24, 1
   8              		.eabi_attribute 25, 1
   9              		.eabi_attribute 26, 1
  10              		.eabi_attribute 30, 2
  11              		.eabi_attribute 34, 1
  12              		.eabi_attribute 18, 4
  13              		.thumb
  14              		.file	"main.c"
  15              		.text
  16              	.Ltext0:
  17              		.section	.gnu.lto_.jmpfuncs.19f1acc143f56601,"",%progbits
  18 0000 789C6362 		.ascii	"x\234cb`b\300\006\276@if\006\006F\246\010\306LF\206"
  18      6062C006 
  18      BE406966 
  18      060646A6 
  18      08C64C46 
  19 0015 2FA84C26 		.ascii	"/\250L&\030\347\027#\0032\223\031U}5\303\257\206\216"
  19      18E71723 
  19      03329319 
  19      557D35C3 
  19      AF868E
  20 0028 06814C46 		.ascii	"\006\201LF\306\\F\260\201\254\010!\246\\F\260\030X="
  20      C65C46B0 
  20      81AC0821 
  20      A65C46B0 
  20      18583D
  21 003b F3092628 		.ascii	"\363\011&(\213\245\021(\212P\305\232\014\321\010\226"
  21      8BA51128 
  21      8A50C59A 
  21      0CD10896 
  22 004b 63C33081 		.ascii	"c\3030\201\211(\023\030QL`\302t\026X\216\035\342g\000"
  22      89281318 
  22      514C60C2 
  22      7416588E 
  22      1DE26700 
  23 005f 79A2294D 		.ascii	"y\242)M"
  24              		.text
  25              		.section	.gnu.lto_.inline.19f1acc143f56601,"",%progbits
  26 0000 789C6362 		.ascii	"x\234cb`b\300\006\332\24143\003\003\327#!F\006&\216"
  26      6062C006 
  26      DAA13433 
  26      0303D723 
  26      21460626 
  27 0015 05572418 		.ascii	"\005W$\030X \252\231\270\031\031\030a$\001yf\006\351"
  27      5820AA99 
  27      B8191918 
  27      61240179 
  27      6606E9
  28 0028 672220F9 		.ascii	"g\" \371\206W\006\330\344\331\370\031\030X\301V!X\314"
  28      865706D8 
  28      E4D9F819 
ARM GAS  /tmp/ccj5wzVV.s 			page 2


  28      1858C156 
  28      2158CC
  29 003b 3C0C2085 		.ascii	"<\014 \205\214\\\014P\202\001\000d@\011?"
  29      8C5C0C50 
  29      82010064 
  29      40093F
  30              		.text
  31              		.section	.gnu.lto_.pureconst.19f1acc143f56601,"",%progbits
  32 0000 789C6362 		.ascii	"x\234cb`b`g\200\000f\0063&3f3\000\002\315\000\266"
  32      60626067 
  32      80006606 
  32      33263366 
  32      330002CD 
  33              		.text
  34              		.section	.gnu.lto_Thread2.19f1acc143f56601,"",%progbits
  35 0000 789C9552 		.ascii	"x\234\225ROK\033A\024\177of\3245\376\211\267B\013\""
  35      4F4B1B41 
  35      147F6F66 
  35      D435FE89 
  35      B7420B22 
  36 0014 E24D4CBE 		.ascii	"\342ML\276\200\207\372\035\"\265\307\3156$\203I\204"
  36      8087FA1D 
  36      22B5C7CD 
  36      36248349 
  36      84
  37 0025 A814F1E0 		.ascii	"\250\024\361\340\213\344 \010\022\244\320P[H\012m\241"
  37      8BE42008 
  37      12A4D050 
  37      5B480A6D 
  37      A1
  38 0036 D0064A85 		.ascii	"\320\006J\205\364P\010B!Em={\212~\202\026<\365\022\337"
  38      F4500842 
  38      21456D3D 
  38      7B8A7E82 
  38      163CF512 
  39 004b CCAC2B8A 		.ascii	"\314\254+\212\007;\354\316\274y3\357\367gf\004\010\270"
  39      073BECCE 
  39      BC7933EF 
  39      F7676604 
  39      08B8
  40 005d DD66F87F 		.ascii	"\335f\370\177\316\351Y\036\261\017PT\177\001\224=\201"
  40      CEE9591E 
  40      B10F5054 
  40      7F01943D 
  40      81
  41 006e D2051295 		.ascii	"\322\005\022\225\013\224\313\314!l\010\251p\343)\332"
  41      0B94CBCC 
  41      216C08A9 
  41      70E329DA 
  42 007e FAA66877 		.ascii	"\372\246hw{\275\317_?\235\0270\346\201\266\331>\250"
  42      7BBDCF5F 
  42      3F9D1730 
  42      E681B6D9 
  42      3EA8
  43 0090 10552700 		.ascii	"\020U'\000\002;Mq\2170\217\002P\376\204M\017`\022\032"
  43      023B4D71 
  43      8F308F02 
ARM GAS  /tmp/ccj5wzVV.s 			page 3


  43      50FE844D 
  43      0F60121A 
  44 00a4 44BBEDFD 		.ascii	"D\273\355\375\263\016\322.\225\377\364zq\215\274\036"
  44      B30ED22E 
  44      95FFF47A 
  44      718DBC1E 
  45 00b4 4353B280 		.ascii	"CS\262\200\032\305\204\035\244\272)w\035\376Q\215\332"
  45      1AC5841D 
  45      A4BA2977 
  45      1DFE518D 
  45      DA
  46 00c5 DFBFF19A 		.ascii	"\337\277\361\232\032\207\370\033\252=\326\254\333\307"
  46      1A87F81B 
  46      AA3DD6AC 
  46      DBC7
  47 00d3 06F7DC8E 		.ascii	"\006\367\334\216a\363\364\365\316\321\027\031ipA{\273"
  47      61F3F4F5 
  47      CED11719 
  47      6970417B 
  47      BB
  48 00e4 39E3E35B 		.ascii	"9\343\343[\234\344=ns\200V\\\026\275i\370HD\335\277"
  48      9CE43D6E 
  48      7380565C 
  48      16BD69F8 
  48      4844DDBF 
  49 00f8 DD178F58 		.ascii	"\335\027\217X\277\233\321\220\306\376=xU&\032\3238`"
  49      BF9BD190 
  49      C6FE3D78 
  49      55261AD3 
  49      3860
  50 010a 78B74CE4 		.ascii	"x\267L\344\025l\225\321\346YEi\264\210\037\014}\332"
  50      156C95D1 
  50      E6594569 
  50      B4881F0C 
  50      7DDA
  51 011c 4086B195 		.ascii	"@\206\261\225rx2\352\343{\236\206\240O\330e\004:\310"
  51      727832EA 
  51      E37B9E86 
  51      A04FD865 
  51      043AC8
  52 012f D4060742 		.ascii	"\324\006\007B\034\021\325:\227\335\037/\037\260K\037"
  52      1C11D53A 
  52      97DD1F2F 
  52      1FB04B1F 
  53 013f DFE1F8B5 		.ascii	"\337\341\370\265A\323\346Q\002_\206<\206\203V\355T\270"
  53      41D3E651 
  53      025F863C 
  53      868356ED 
  53      54B8
  54 0151 35435161 		.ascii	"5CQa\270\030\023\3600d\240\207\251^!e\325\016\207,\022"
  54      B81813F0 
  54      3064A087 
  54      A95E2165 
  54      D50E872C 
  55 0166 AEF48F90 		.ascii	"\256\364\217\2209\334\337P\251\353+\364\310\346h\200"
  55      39DCDF50 
  55      A9EB2BF4 
ARM GAS  /tmp/ccj5wzVV.s 			page 4


  55      C8E66880 
  56 0176 22DA18BF 		.ascii	"\"\332\030\277\220|\261c\306\321A\253\363\360\277\350"
  56      907CB163 
  56      C6D141AB 
  56      F3F0BFE8 
  57 0186 D41D748B 		.ascii	"\324\035t\213\367\244soG\031\253\230\302\360\234\006"
  57      F7A4736F 
  57      4719AB98 
  57      C2F09C06 
  58 0196 0ABE2E26 		.ascii	"\012\276.&\002PE\277\220\361\322y]\\\314\224`*\221H"
  58      025045BF 
  58      90F1D279 
  58      5D5CCC94 
  58      602A9148 
  59 01aa BA6F6939 		.ascii	"\272oi9YZI\352b\220_}\226I\006\271R&\253\227WJk\211"
  59      595A49EA 
  59      62905F7D 
  59      964906B9 
  59      5226AB97 
  60 01c2 1C5C02F8 		.ascii	"\034\\\002\370\005\252u"
  60      05AA75
  61              		.text
  62              		.section	.gnu.lto_Thread1.19f1acc143f56601,"",%progbits
  63 0000 789C9552 		.ascii	"x\234\225ROK\033A\024\177of\324m\264&x\361P\020\011"
  63      4F4B1B41 
  63      147F6F66 
  63      D46DB426 
  63      78F15010 
  64 0015 BD89C917 		.ascii	"\275\211\311\027\350AoRz4X\217\233m\320\241&\205h\021"
  64      E8416F52 
  64      7A34588F 
  64      9B6DD0A1 
  64      26856811 
  65 0029 F1E08BE4 		.ascii	"\361\340\213\344\340\251\015\342Al\225\244\240\226R"
  65      E0A90DE2 
  65      416C95A4 
  65      A09652
  66 0038 147ACA31 		.ascii	"\024z\3121xj\261\251=\367\264\364\023\330\366\"zH\337"
  66      786AB1A9 
  66      3DF7B4F4 
  66      13D8F622 
  66      7A48DF
  67 004b CCAC2B8A 		.ascii	"\314\254+\212\007\035vg\336\274\231\367\37333\002\004"
  67      071D7667 
  67      DEBC99F7 
  67      FB333302 
  67      04
  68 005c DC6CA3FC 		.ascii	"\334l\243\374/r\372\011\217\330\005(j?\000*\236@\351"
  68      2F72FA09 
  68      8FD80528 
  68      6A3F002A 
  68      9E40E9
  69 006f 0289CA05 		.ascii	"\002\211\312\005\312e\306\021V\204T\2702\215\266\376"
  69      CA65C611 
  69      568454B8 
  69      328DB6FE 
  70 007f 50B4C24E 		.ascii	"P\264\302N\347\340\357\347\337\3170\341\201\266\331"
ARM GAS  /tmp/ccj5wzVV.s 			page 5


  70      E7E0EFE7 
  70      DFCF30E1 
  70      81B6D9
  71 008e 2EA812D5 		.ascii	".\250\022\325\206\001\002;\235\344\036!\207\002P~\203"
  71      8601023B 
  71      9DE41E21 
  71      8702507E 
  71      83
  72 009f 550F200D 		.ascii	"U\017 \015\015\242\365\326\277\360+\322:UN;\235\244"
  72      0DA2F5D6 
  72      BFF02BD2 
  72      3A554E3B 
  72      9DA4
  73 00b1 465E4FA0 		.ascii	"F^O\240)y\216\032\305\260\035\244\272.w\031\316i\223"
  73      29798E1A 
  73      C5B01DA4 
  73      BA2E7719 
  73      CE6993
  74 00c4 5A174D5E 		.ascii	"Z\027M^SC\220\334\246\3151\315\272}lp\317\255\015\253"
  74      534390DC 
  74      A6CD31CD 
  74      BA7D6C70 
  74      CFAD0DAB 
  75 00d8 BFDEBFF9 		.ascii	"\277\336\277\371\376E\306\032\\\320:\336\031\365\361"
  75      FE45C61A 
  75      5CD03ADE 
  75      19F5F1
  76 00e7 03A6798F 		.ascii	"\003\246y\217\333\034\240\0257\203\336\010|\"\242\360"
  76      DB1CA015 
  76      3783DE08 
  76      7C22A2F0 
  77 00f7 4FB8F188 		.ascii	"O\270\361\210\365\273\031\365j\354~\007[\025\242\224"
  77      F5BB19F5 
  77      6AEC7E07 
  77      5B15A294 
  78 0107 C61EC3BB 		.ascii	"\306\036\303\273f\"\257h\253\2146\317*\312\243E\334"
  78      6622AF68 
  78      AB8C36CF 
  78      2ACAA345 
  78      DC
  79 0118 37F47903 		.ascii	"7\364y\003\031\305V\312\361\317~\037\367x\032\201N\261"
  79      19C556CA 
  79      F1CF7E1F 
  79      F7781A81 
  79      4EB1
  80 012a CB18F401 		.ascii	"\313\030\364\001S\033\034\210pD\\\353\\\206\273o\007"
  80      531B1C88 
  80      70445CEB 
  80      5C86BB6F 
  80      07
  81 013b D9A58FBB 		.ascii	"\331\245\217\2738te\320\264\034J\340\313\220m8j\236"
  81      387465D0 
  81      B41C4AE0 
  81      CB906D38 
  81      6A9E
  82 014d 9D08B766 		.ascii	"\235\010\267f(\252\014\227`\002\036z\015t\037\325\253"
  82      28AA0C97 
ARM GAS  /tmp/ccj5wzVV.s 			page 6


  82      60021E7A 
  82      0D741FD5 
  82      AB
  83 015e A4ACDABE 		.ascii	"\244\254\332\276\210E\302\245\376\207d\236\303\011T"
  83      8845C2A5 
  83      FE87649E 
  83      C30954
  84 016d EB1397E8 		.ascii	"\353\023\227\350\261\315\376\000E\2741y\216|\261)\343"
  84      B1CDFE00 
  84      45BC3179 
  84      8E7CB129 
  84      E3
  85 017e E8A8F971 		.ascii	"\350\250\371q\340^t\352\026\272\247w\244soG\031\253"
  85      E05E74EA 
  85      16BAA777 
  85      A4736F47 
  85      19AB
  86 0190 3889D139 		.ascii	"8\211\3219\365\024}]\312\004\240J~\261\340\345\347t"
  86      F5147D5D 
  86      CA04A04A 
  86      7EB1E0E5 
  86      E774
  87 01a2 E965A10C 		.ascii	"\351e\241\014\2173\231\254\373^\315g\313\013Y]\012\346"
  87      8F3399AC 
  87      FB5ECD67 
  87      CB0B595D 
  87      0AE6
  88 01b4 5EBF2864 		.ascii	"^\277(d\203\331raF\317/\224\2272\263\360\037\242\221"
  88      83D97261 
  88      46CF2F94 
  88      9732B3F0 
  88      1FA291
  89 01c7 AB01     		.ascii	"\253\001"
  90              		.text
  91              		.section	.gnu.lto_main.19f1acc143f56601,"",%progbits
  92 0000 789C8D52 		.ascii	"x\234\215R=O\002A\020\235\267{\007\307\371\001\250\241"
  92      3D4F0241 
  92      109DB77B 
  92      07C7F901 
  92      A8A1
  93 0012 B63731B1 		.ascii	"\26671\2610V\376\013I$Vz\205\331\002\377\200\005K8\023"
  93      3056FE0B 
  93      4924567A 
  93      85D902FF 
  93      80054B38 
  94 0027 122D2809 		.ascii	"\022-(\011V\306\330X\250\211\025J\341GC\2436TV\030["
  94      56C6D858 
  94      A889154A 
  94      E14743A3 
  94      36545618 
  95 003c 6345654C 		.ascii	"cEeLpv\017\310)\024Nr;w3\357\275\231\271YA\202\376\332"
  95      70760FC8 
  95      29144E72 
  95      3B7733EF 
  95      BD99B959 
  96 0054 3A3F671C 		.ascii	":?g\034N\261G\202 j\317DeO@F/R8\235\034i\337m\255\221"
  96      4EB14782 
ARM GAS  /tmp/ccj5wzVV.s 			page 7


  96      206ACF44 
  96      654F4046 
  96      2F52389D 
  97 006e 9E76E046 		.ascii	"\236v\340Fa7\312\337{\240\222\220\216\213R\001V\357"
  97      6137CADF 
  97      7BA09290 
  97      8E8B5201 
  97      56EF
  98 0080 52DC75FB 		.ascii	"R\334u\373\375\213\336\311[\013\331\231\024)\220o\016"
  98      FD8BDEC9 
  98      5B0BD999 
  98      1429906F 
  98      0E
  99 0091 369742AD 		.ascii	"6\227B\255k\213D\201\375\334\340\023\224\207 \310\027"
  99      6B8B4481 
  99      FDDCE013 
  99      948720C8 
  99      17
 100 00a2 AA740F1F 		.ascii	"\252t\017\037\023\3338\201\313\251}\372\322U\235Q@\200"
 100      13DB3881 
 100      CBA97DFA 
 100      D2559D51 
 100      4080
 101 00b4 4856318C 		.ascii	"HV1\214\014\352\250\222\234\204\022q\324A\2671AK\006"
 101      0CEAA892 
 101      9C841271 
 101      D441B731 
 101      414B06
 102 00c7 90166522 		.ascii	"\220\026e\"\236\202S\004\015@\233P\306)\376\001L\257"
 102      9E825304 
 102      0D409B50 
 102      C629FE01 
 102      4CAF
 103 00d9 EBEFEB2B 		.ascii	"\353\357\353+\214\361\223\001\234\021\277\252\365\226"
 103      8CF19301 
 103      9C11BFAA 
 103      F596
 104 00e7 82570462 		.ascii	"\202W\004b\022\251\266\260\236\312\030\202\012\012~"
 104      12A9B6B0 
 104      9ECA1882 
 104      0A0A7E
 105 00f6 0037069A 		.ascii	"\0007\006\2322u\246\243:\341\352?\253\210\377TIL\250"
 105      3275A6A3 
 105      3AE1EA3F 
 105      AB88FF54 
 105      494CA8
 106 0109 622CCF73 		.ascii	"b,\317s\363\262\344\023=\274\326?\333\203\216w\221Z"
 106      F3B2E413 
 106      3DBCD63F 
 106      DB838E77 
 106      915A
 107 011b A2731D32 		.ascii	"\242s\0352x\346\230\032\354f\0151\255k\241v\254F\332"
 107      78E6981A 
 107      EC660D31 
 107      AD6BA176 
 107      AC46DA
 108 012e B27730BC 		.ascii	"\262w0\274*OT\271\225C\262\317|\333\205I\267)\374(\257"
ARM GAS  /tmp/ccj5wzVV.s 			page 8


 108      2A4F54B9 
 108      9543B2CF 
 108      7CDB8549 
 108      B729FC28 
 109 0143 8C52361E 		.ascii	"\214R6\036\267<\317\324\311\361\226\303n\363\335\037"
 109      B73CCFD4 
 109      C9F196C3 
 109      6EF3DD1F 
 110 0153 9B391320 		.ascii	"\2339\023 \031\237\271\211_\333Q\310\016e\\;\210\321"
 110      199FB989 
 110      5FDB51C8 
 110      0E655C3B 
 110      88D1
 111 0165 B9391DDF 		.ascii	"\2719\035\337\320\\\000\317\002M\003\363=\311\314\205"
 111      D05C00CF 
 111      024D03F3 
 111      3DC9CC85 
 112 0175 88B931B8 		.ascii	"\210\2711\270F\224,n\253\275\345\200~\000#\274\242\270"
 112      46942C6E 
 112      ABBDE580 
 112      7E0023BC 
 112      A2B8
 113              		.text
 114              		.section	.gnu.lto_.symbol_nodes.19f1acc143f56601,"",%progbits
 115 0000 789C458A 		.ascii	"x\234E\212;\016\202P\020E\357\235\341\011~\026\351\026"
 115      3B0E8250 
 115      1045EF9D 
 115      E1097E16 
 115      E916
 116 0012 5CC19090 		.ascii	"\\\301\220\220\330\330\270\000cb\330\205-\2156\2266"
 116      D8D8B800 
 116      6362D885 
 116      2D8D3696 
 116      36
 117 0023 FE405057 		.ascii	"\376@PW\241\021\020|\323\234snF x\243;\271\322\200\345"
 117      A111107C 
 117      D39C736E 
 117      462078A3 
 117      3BB9D280 
 118 0038 01305BED 		.ascii	"\0010[\355\247\356E\205A\3164\372Un4\351r\275\023W\262"
 118      A7EE4585 
 118      41CE34FA 
 118      556E34E9 
 118      72BD1357 
 119 004d 36B81325 		.ascii	"6\270\023%0u\027\262\006\2374\375\375\3041\371\240\005"
 119      307517B2 
 119      069F34FD 
 119      FDC431F9 
 119      A005
 120 005f BE2A9AF3 		.ascii	"\276*\232\363u\247\015|\025\264\320WN\213\376\245\010"
 120      75A70D7C 
 120      15B4D057 
 120      4E8BFEA5 
 120      08
 121 0070 916C8E8B 		.ascii	"\221l\216\213\260\221\254\025\351\027\351\027\235 \311"
 121      B091AC15 
 121      E917E917 
ARM GAS  /tmp/ccj5wzVV.s 			page 9


 121      9D20C9
 122 007f 3F541D23 		.ascii	"?T\035#m9B\326r\210\262cR4\214\220\314\253\355L5D\332"
 122      6D3942D6 
 122      7288B263 
 122      52348C90 
 122      CCABED4C 
 123 0096 08BED1A0 		.ascii	"\010\276\321\240N\304"
 123      4EC4
 124              		.text
 125              		.section	.gnu.lto_.refs.19f1acc143f56601,"",%progbits
 126 0000 789C25C2 		.ascii	"x\234%\302\201\015\000 \010\004\261\373\003Y\301\375"
 126      810D0020 
 126      0804B1FB 
 126      0359C1FD 
 127 0010 3795C4A6 		.ascii	"7\225\304\246\"\227/;\222)\333\243\216\330<\005h\000"
 127      22972F3B 
 127      9229DBA3 
 127      8ED83C05 
 127      6800
 128 0022 4C       		.ascii	"L"
 129              		.text
 130              		.section	.gnu.lto_.decls.19f1acc143f56601,"",%progbits
 131 0000 789CBD5C 		.ascii	"x\234\275\\\013x\024U\226\256\252~\245!\006p\324\321"
 131      0B781455 
 131      96AEAA7E 
 131      A5210670 
 131      D4D1
 132 0012 5D66C9CC 		.ascii	"]f\311\314\352|\216\256\204\207\2538\273\343\013v\225"
 132      EA7C8EAE 
 132      8487AB38 
 132      BBE30B76 
 132      95
 133 0023 1D5F5F82 		.ascii	"\035__\202\2563\273n[\351\024I\257I'tWx\314\267\337"
 133      AE33BB6E 
 133      5BE91449 
 133      AF492774 
 133      5778CCB7 
 134 0038 679140C0 		.ascii	"g\221@\300\340\016\341\031\020\002\221\2270<\003h\210"
 134      E00EE119 
 134      10029197 
 134      303C0368 
 134      88
 135 0049 88695020 		.ascii	"\210iP \200\013\201h\022\036b\210\242\230\035Y\036\242"
 135      800B8168 
 135      121E6288 
 135      A2981D59 
 135      1EA2
 136 005b 0891ECB9 		.ascii	"\010\221\354\271\247\036]\267R\325]\325\350\364\227"
 136      A71E5DB7 
 136      52D55DD5 
 136      E8F497
 137 006a BA7DBBEA 		.ascii	"\272}\273\352\336\377\236s\3569\347\236\373\250p\014"
 137      DEFF9E73 
 137      EE39E79E 
 137      FBA8700C 
 138 007a C70CE118 		.ascii	"\307\014\341\030\246\207|~\3170\267\371\031\306\315"
 138      A6877C7E 
ARM GAS  /tmp/ccj5wzVV.s 			page 10


 138      CF30B7F9 
 138      19C6CD
 139 0089 30CC8370 		.ascii	"0\314\203p\245\301\345\202\353u\270n\2032\036\370\366"
 139      A5C1E582 
 139      EB75B86E 
 139      83321EF8 
 139      F6
 140 009a C13510F2 		.ascii	"\3015\020\362\017\301\367 \370&\037\250\302\014\206"
 140      0FC1F720 
 140      F8261FA8 
 140      C20C86
 141 00a9 FC70B8EE 		.ascii	"\374p\270\356\207\353\327p=\010W6\\/\300\225\013\227"
 141      87EBD770 
 141      3D085736 
 141      5C2FC095 
 141      0B97
 142 00bb C0C9B8F9 		.ascii	"\300\311\270\371\360\035\202\353%\270\212\224\372\352"
 142      F01D82EB 
 142      25B88A94 
 142      FAEA
 143 00c9 87600C80 		.ascii	"\207`\014\200\357\233Y\206\371W\2702 \237\016\327&\270"
 143      EF9B5986 
 143      F957B832 
 143      209F0ED7 
 143      26B8
 144 00db 5F075729 		.ascii	"_\007W)\\a\270\266\300u\013<O\203\357\255p\355\341d"
 144      5C61B8B6 
 144      C0750B3C 
 144      4F83EFAD 
 144      70EDE164 
 145 00ef BAF67232 		.ascii	"\272\366r2\275\377\240\320*\302\267\004\327sPv'|\277"
 145      BDFFA0D0 
 145      2AC2B704 
 145      D7735076 
 145      277CBF
 146 0102 A73C27ED 		.ascii	"\247<'\3554)t\302\243^t\014\377\013\3211<\011\035D\226"
 146      342974C2 
 146      A35E740C 
 146      FF0BD131 
 146      3C091D44 
 147 0117 372B323F 		.ascii	"7+2?\010\371 \\\2078\271?\210\354\377\003\256f.\336"
 147      08F9205C 
 147      8738B93F 
 147      88ECFF03 
 147      AE662EDE 
 148 012b 376ABFE4 		.ascii	"7j\277\344p4M\207\311}\216\246\213\264\267\203\223\373"
 148      70344D87 
 148      C97D8EA6 
 148      8BB4B783 
 148      93FB
 149 013d EE7EA57F 		.ascii	"\356~\245\177r\225\376\312V\372r\260\322\217\277V\352"
 149      7295FECA 
 149      56FA72B0 
 149      D28FBF56 
 149      EA
 150 014e E52BFD16 		.ascii	"\345+\375\0262\320\331\227\251\224\2442\251\266Bz\274"
 150      32D0D997 
ARM GAS  /tmp/ccj5wzVV.s 			page 11


 150      A994A432 
 150      A9B6427A 
 150      BC
 151 015f 29E34666 		.ascii	")\343Ff\226\004\237\314&\220\332\363,\317f\370\231\016"
 151      96049FCC 
 151      2690DAF3 
 151      2CCF66F8 
 151      990E
 152 0171 1FE6D2FD 		.ascii	"\037\346\322\375\314\177A\351;\230\025\222T\325\261"
 152      CC7F41E9 
 152      3B981592 
 152      54D5B1
 153 0180 F2C21997 		.ascii	"\362\302\031\227$\245\361\3542\366F\320\301;Y\346.f"
 153      24A5F1EC 
 153      32F646D0 
 153      C13B59E6 
 153      2E66
 154 0192 0D54AC92 		.ascii	"\015T\254\222\244e\177\315\364\376$\305\345\331\025"
 154      A4657FCD 
 154      F4FE24C5 
 154      E5D915
 155 01a1 2C07E92A 		.ascii	",\007\351*\300\343\331\225\354]rKR\354\333i\351\222"
 155      C0E3D995 
 155      EC5D724B 
 155      52ECDB69 
 155      E992
 156 01b3 5BBECF28 		.ascii	"[\276\317(OL>?gj\201\211\330\325\275+n\223jw\261f<A"
 156      4F4C3E3F 
 156      676A8189 
 156      D8D5BD2B 
 156      6E936A77 
 157 01cb 0156D73C 		.ascii	"\001V\327<t\251\322|&\324\347\230\177d\315\210\244K"
 157      74A9D27C 
 157      26D4E798 
 157      7F64CD88 
 157      A44B
 158 01dd F1EC5A24 		.ascii	"\361\354Z$r\235\221\310\3032\221\353l\021\331\262w\037"
 158      729D91C8 
 158      C33291EB 
 158      6C11D9B2 
 158      771F
 159 01ef 2BCD4EA7 		.ascii	"+\315N\247h\274\205\231\2074V\000\221\242\237\231\036"
 159      68BC8599 
 159      87345600 
 159      91A29F99 
 159      1E
 160 0200 7FA29192 		.ascii	"\177\242\221\222\251R\342\216wCCE\353E\266\014\352\360"
 160      A952E28E 
 160      77434345 
 160      EB45B60C 
 160      EAF0
 161 0212 6C1DEB07 		.ascii	"l\035\353\007.^f\251\346y\326\343\327S\200\277\325\002"
 161      2E5E66A9 
 161      E679D6E3 
 161      D75380BF 
 161      D502
 162 0224 040E1F2B 		.ascii	"\004\016\037+\031\342C\372\2317Gjnbo\301\234\213\341"
ARM GAS  /tmp/ccj5wzVV.s 			page 12


 162      19E243FA 
 162      9937476A 
 162      6E626FC1 
 162      9C8BE1
 163 0237 E41B0FF5 		.ascii	"\344\033\017\365U\363\024+\012\365\035+c\267.\210S\237"
 163      55F3142B 
 163      0AF51D2B 
 163      63B72E88 
 163      539F
 164 0249 A6C2B171 		.ascii	"\246\302\261q\352k*\327\337\015J\244U\220,+\360\354"
 164      EA6B2AD7 
 164      DF0D4AA4 
 164      55902C2B 
 164      F0EC
 165 025b 36F60E48 		.ascii	"6\366\016HY\232z\326\037\317\364\260\244\027W\260\264"
 165      599A7AD6 
 165      1FCFF4B0 
 165      A41757B0 
 165      B4
 166 026c 006C60AB 		.ascii	"\000l`\253\242\234\261d\004j\364v\024\3441\326(I\326"
 166      A29CB164 
 166      046AF476 
 166      14E431D6 
 166      2849D6
 167 027f 20C924B4 		.ascii	" \311$\2648)k%\362\267@\221\343\037M\360u2)<\373\254"
 167      38296B25 
 167      F2B74091 
 167      E31F4DF0 
 167      7532293C 
 168 0295 4B7B6805 		.ascii	"K{h\005\2611\016\3011\237!SDK\315\212+Y\012\217\322"
 168      B1310EC1 
 168      319F2153 
 168      444BCD8A 
 168      2B590A8F 
 169 02aa DC8E9557 		.ascii	"\334\216\225W\026\3646/Jue\342\254\210\331eS\205x\266"
 169      16F4362F 
 169      4A7565E2 
 169      AC88D965 
 169      538578B6 
 170 02be 2101CAEE 		.ascii	"!\001\312\356\353\227\312N\275T\272\034K%S/\025i\263"
 170      EB97CA4E 
 170      BD54BA1C 
 170      4B25532F 
 170      1569B3
 171 02d1 24F9BD49 		.ascii	"$\371\275I\254Y\262c\315\215\207\336?\314\226\2435\037"
 171      AC59B263 
 171      CD8D87DE 
 171      3FCC96A3 
 171      351F
 172 02e3 40255CCD 		.ascii	"@%\\\315\231h\263\035\250\332\232\3757\023\207t\020"
 172      9968B31D 
 172      A8DA9AFD 
 172      37138774 
 172      10
 173 02f4 6136A40A 		.ascii	"a6\244\012\323\321p\240^6\212\303\010\364\026g4\012"
 173      D3D170A0 
 173      5E368AC3 
ARM GAS  /tmp/ccj5wzVV.s 			page 13


 173      08F41667 
 173      340A
 174 0306 AFC128BC 		.ascii	"\257\301(\274\264\242\303O\322\322e\342Z\330\227\225"
 174      B4A2C34F 
 174      D2D265E2 
 174      5AD89795 
 175 0316 3BE4878F 		.ascii	";\344\207\217\371\213\327\263\322\205\375\326J)\353"
 175      F98BD7B3 
 175      D285FDD6 
 175      4A29EB
 176 0325 A15DA5DA 		.ascii	"\241]\245\332\247W\252\030gC\251\322\364x\214^\251l"
 176      A757AA18 
 176      6743A9D2 
 176      F4788C5E 
 176      A96C
 177 0337 99DA8104 		.ascii	"\231\332\201\004Fr\324\204+[\\\264\353\271x\3371\027"
 177      4672D484 
 177      2B5B5CB4 
 177      EBB978DF 
 177      3117
 178 0349 8E4C2331 		.ascii	"\216L#1\013'mt\214\362[q\363R\205t\347\352\270F\367"
 178      0B276D74 
 178      8CF25B71 
 178      F3528574 
 178      E7EAB846 
 179 035e 5711B9B8 		.ascii	"W\021\271\270F\327\265\276u\027jt'j\364Wf\246a\013\250"
 179      46D7B5BE 
 179      75176A74 
 179      276AF457 
 179      66A6610B 
 180 0373 A6B2FEEF 		.ascii	"\246\262\376\357\020\3504\002}\2332P\303\2147\036@\240"
 180      10E83402 
 180      7D9B3250 
 180      C38C371E 
 180      40A0
 181 0385 330824B9 		.ascii	"3\010$\271\2146\3462\330\230\213\326y\227?\236\351\351"
 181      8C36E632 
 181      D8988BD6 
 181      79973F9E 
 181      E9E9
 182 0397 71313F6E 		.ascii	"q1?na[:\364\261^\207f\270l\350P\177=\036\243\327\241"
 182      615B3AF4 
 182      B15E8766 
 182      B86CE850 
 182      7F3D1EA3 
 183 03ad EBB684B3 		.ascii	"\353\266\204\263\211\324\250\323\201}\177\245\347\252"
 183      89D4A8D3 
 183      817D7FA5 
 183      E7AA
 184 03bb CA315799 		.ascii	"\3121W\231z\256\222[F\242q\364\353D,)A\203q\\L\211\345"
 184      7AAE925B 
 184      46A271F4 
 184      EB442C29 
 184      4183715C 
 185 03d2 8B7A96E7 		.ascii	"\213z\226\347\331a\371V\313\216\274>\226\273\023\261"
 185      D961F956 
 185      CB8EBC3E 
ARM GAS  /tmp/ccj5wzVV.s 			page 14


 185      96BB13B1 
 186 03e2 BCFB0764 		.ascii	"\274\373\007d\371\252\236\345\305\216Y\316d\350\217"
 186      F9AA9EE5 
 186      C58E59CE 
 186      64E88F
 187 03f1 6A4F3CBB 		.ascii	"jO<\273\201\3759\2441L\2330m\303\364\004\246\177\306"
 187      81FD39A4 
 187      314C9B30 
 187      6DC3F404 
 187      A67FC6
 188 0404 F402A657 		.ascii	"\364\002\246W MJ\347\032=\235\313\220\316U)\006vR\254"
 188      204D4AE7 
 188      1A3D9DCB 
 188      90CE5529 
 188      067652AC 
 189 0418 7B6F7A15 		.ascii	"{oz\025\257\316\223\274I\202\202\305\213\016\261\350"
 189      AFCE93BC 
 189      498282C5 
 189      8B0EB1E8 
 190 0428 B0A67064 		.ascii	"\260\246pd\356\267\317\340\260\222\302pL;V\231\306\031"
 190      EEB7CFE0 
 190      B092C270 
 190      4C3B5699 
 190      C619
 191 043a 66516F56 		.ascii	"fQoV\334D\202\026r?\371,\252\276\242\306r\252\247\237"
 191      DC448216 
 191      723FF92C 
 191      AABEA2C6 
 191      72AAA79F 
 192 044e C1D5B26A 		.ascii	"\301\325\262j\3337i,\304\216~\317f\362\354\253H\377"
 192      DB37692C 
 192      C48E7ECF 
 192      66F2ECAB 
 192      48FF
 193 0460 6973FAAD 		.ascii	"is\372\25518\346\033\2542\323H\377E>S\276\233\234\372"
 193      3138E61B 
 193      AC32D348 
 193      FF453E53 
 193      BE9B9CFA 
 194 0474 4B5FE21C 		.ascii	"K_\342\034\220ggp}\001p\252[\005L)0\217]\021\232\206"
 194      90676770 
 194      7D0170AA 
 194      5B054C29 
 194      308F5D11 
 195 048a 2415845B 		.ascii	"$\025\204[\005\032\025\357\313M\255\017\021\221\317"
 195      051A15EF 
 195      CB4DAD0F 
 195      1191CF
 196 0499 474954BA 		.ascii	"GIT\272\223K\202\002\341\2309Xe\241A\022\035W;\233\357"
 196      934B8202 
 196      E1983958 
 196      65A14112 
 196      1D573B9B 
 197 04ae 5E2049FD 		.ascii	"^ I\375\345G\311\304\001\223\374\375\213Y\322\231&-"
 197      E547C9C4 
 197      0193FCFD 
 197      8B59D299 
ARM GAS  /tmp/ccj5wzVV.s 			page 15


 197      262D
 198 04c0 3EAC0F33 		.ascii	">\254\0173\324A|\376\207\263\330)\030(\327 \345\357"
 198      D4417CFE 
 198      87B3D829 
 198      1828D720 
 198      E5EF
 199 04d2 9A535EFB 		.ascii	"\232S^\373\260\025\020\307\034\304*\265\275)\277\374"
 199      B01510C7 
 199      1CC42AB5 
 199      BD29BFFC 
 200 04e2 2B99F25A 		.ascii	"+\231\362Z[\035y\270RVC\236\235\307\221\010k\016\307"
 200      5B1D79B8 
 200      5256439E 
 200      9DC79108 
 200      6B0EC7
 201 04f5 29B0A9F5 		.ascii	")\260\251\365\344\221\375`\2112\030\307|\242\321\350"
 201      E491FD60 
 201      893218C7 
 201      7CA2D1E8 
 202 0505 706662F6 		.ascii	"pfb\366\3213\313\263\31382\237^\316\021\177\263\202"
 202      D133CBB3 
 202      CB38329F 
 202      5ECE117F 
 202      B382
 203 0517 D3F91B98 		.ascii	"\323\371\033\230%j}j&\271\344,|\267\1771\212\304\376"
 203      256A7D6A 
 203      26B9E42C 
 203      7CB77F31 
 203      8AC4FE
 204 052a 3246E34C 		.ascii	"2F\343Lm\342\263\232#AP\227\3334\232\262\001US\271{"
 204      6DE2B39A 
 204      23415097 
 204      DB349AB2 
 204      015553B9 
 205 053f A7B222B2 		.ascii	"\247\262\"\262\026\241.\244\014\3250\343\03590\333\200"
 205      16A12EA4 
 205      0CD530E3 
 205      1D3930DB 
 205      80
 206 0550 4057DDC6 		.ascii	"@W\335\306\300\314g\010\314|t\370\344\363\3073\312\332"
 206      C0CC6708 
 206      CC7C74F8 
 206      E4F3C733 
 206      CADA
 207 0562 CA8F5B9C 		.ascii	"\312\217[\234c*<\206\256s4\353\220:\256t\236\271{\241"
 207      632A3C86 
 207      AE7334EB 
 207      903AAE74 
 207      9EB97BA1 
 208 0576 149BE2B2 		.ascii	"\024\233\342\262\341\304g`[[\214\006t\276\253I1\240"
 208      E1C46760 
 208      5B5B8C06 
 208      74BEAB49 
 208      31A0
 209 0588 2DB60CE8 		.ascii	"-\266\014\350\315\375\325\366\374\270\266\022w;6\277"
 209      CDFDD5F6 
 209      FCB8B612 
ARM GAS  /tmp/ccj5wzVV.s 			page 16


 209      773B36BF 
 210 0598 0B9BDF66 		.ascii	"\013\233\337fl~\307\331\246\177\223\233\337f\253\371"
 210      6C7EC7D9 
 210      A67F939B 
 210      DF66ABF9 
 211 05a8 86B6B9BD 		.ascii	"\206\266\271\275\233\347\331\007oN\244\031\347\273\316"
 211      9BE7D907 
 211      6F4EA419 
 211      E7BBCE
 212 05b7 0C5C8A8D 		.ascii	"\014\\\212\215\274\203v\332\3551\252\306C\372%\012u"
 212      BC8376DA 
 212      ED31AAC6 
 212      43FA250A 
 212      75
 213 05c8 F6A51500 		.ascii	"\366\245\025\000\207\357U\251O\311M\000\233g^X\003\001"
 213      87EF55A9 
 213      4FC94D00 
 213      9B675E58 
 213      0301
 214 05da D52B5E95 		.ascii	"\325+^\225\206\351\216\0213)A\274\323\206\216G\006\233"
 214      86E98E11 
 214      332941BC 
 214      D3868E47 
 214      069B
 215 05ec 6107CC7A 		.ascii	"a\007\314z\366\032{W\017\366G\307`4e\315z\260Yv\300"
 215      F61A7B57 
 215      0FF647C7 
 215      603465CD 
 215      7AB05976 
 216 0601 AC6713B1 		.ascii	"\254g\023\261#z\260\271\216\301h\312>\324\203U\333\001"
 216      237AB0B9 
 216      8EC168CA 
 216      3ED48355 
 216      DB01
 217 0613 B30E8F63 		.ascii	"\263\016\217c\255z\260E\216\301h\312\332\365`K\355\200"
 217      AD7AB045 
 217      8EC168CA 
 217      DAF5604B 
 217      ED80
 218 0625 659A50A6 		.ascii	"e\232P\246}\254\202\320zN\037\204zU\207\340P\247\231"
 218      7DAC82D0 
 218      7A4E1F84 
 218      7A5587E0 
 218      50A799
 219 0638 38C64AAF 		.ascii	"8\306J\257S\007F\361M\206\357\273\337V\354B\036C\327"
 219      530746F1 
 219      4D86EFBB 
 219      DF56EC42 
 219      1E43D7
 220 064b D8414CA0 		.ascii	"\330AL\2400U\007t\003\362F\307`t\267,!`)\255\226\223"
 220      30550774 
 220      03F246C7 
 220      6074B72C 
 220      216029AD 
 221 0661 9D154EB7 		.ascii	"\235\025N\267\232}\253yY\236=\212\003\3731\316\257Q"
 221      9A7DAB79 
 221      599E3D8A 
ARM GAS  /tmp/ccj5wzVV.s 			page 17


 221      03FB31CE 
 221      AF51
 222 0673 21E7D59C 		.ascii	"!\347\325\234\274N\376\246\227^\242\326>\311\252ZiB"
 222      BC4EFEA6 
 222      975EA2D6 
 222      3EC9AA5A 
 222      6942
 223 0685 9B5E13DE 		.ascii	"\233^\023\336\266#\246\004\246\320l%\246X\2054\235\235"
 223      B623A604 
 223      A6D06C25 
 223      A6588534 
 223      9D9D
 224 0697 5C373061 		.ascii	"\\70at\010\336\371g\177B\357\374\011\016\334\215^\323"
 224      7408DEF9 
 224      677F42EF 
 224      FC090EDC 
 224      8D5ED3
 225 06aa 08C01656 		.ascii	"\010\300\026VM\345!5\234\350D\260\375\251\203\3256\034"
 225      4DE52135 
 225      9CE844B0 
 225      FDA983D5 
 225      361C
 226 06bc 184882ED 		.ascii	"\030H\202\355\323\010\324\3425\216\031~C8\341\247\007"
 226      D308D4E2 
 226      358E197E 
 226      4338E1A7 
 226      07
 227 06cd 7CBF3F9E 		.ascii	"|\277?\236\351Q?\306\215\206\037\261\216U\317\237\324"
 227      E9513FC6 
 227      8D861FB1 
 227      8E55CF9F 
 227      D4
 228 06de F7FC49C7 		.ascii	"\367\374I\307=O\031\010\011@\006WK\261\311.\373\033"
 228      3D4F1908 
 228      09400657 
 228      4BB1C92E 
 228      FB1B
 229 06f0 378D87DE 		.ascii	"7\215\207\336\375\015\206i](\327\323\275\344\332\340"
 229      FD0D8669 
 229      5D28D7D3 
 229      BDE4DAE0 
 230 0700 70E78663 		.ascii	"p\347\206c\316\032\271\240\332M\34005/\324\224\325\260"
 230      CE1AB9A0 
 230      DA4DE030 
 230      352FD494 
 230      D5B0
 231 0712 4192CABD 		.ascii	"A\222\312\275\016\330\230\251\260\361\177\310\306\327"
 231      0ED898A9 
 231      B0F17FC8 
 231      C6D7
 232 0720 3F001BDD 		.ascii	"?\000\033\335\216\331H3\260q.\0056\032e6\276F6\312|"
 232      8ED94833 
 232      B0712E05 
 232      361A6536 
 232      BE4636CA 
 233 0735 D7CF46A5 		.ascii	"\327\317F\245\317)\033\375ul\340\224nt\003\216\011?"
 233      CF291BFD 
ARM GAS  /tmp/ccj5wzVV.s 			page 18


 233      756CE094 
 233      6E74038E 
 233      093F
 234 0747 6166278E 		.ascii	"af'\216j\011=\337q?\241\247\365\037\035$\213\005\344"
 234      6A093DDF 
 234      713FA1A7 
 234      F51F1D24 
 234      8B05E4
 235 075a 76F289EC 		.ascii	"v\362\211\354\305\203\213\225\351\240\274\2033\023i"
 235      C5838B95 
 235      E9A0BC83 
 235      331369
 236 0769 27755389 		.ascii	"'uS\211\363\244X\325!\034}d\260\371\327\005V\026[:S"
 236      F3A458D5 
 236      211C7D64 
 236      B0F9D705 
 236      56165B3A 
 237 077e 9DAB3E84 		.ascii	"\235\253>\204a\301u\302\275s\310\350\245\015A\364|\013"
 237      61C175C2 
 237      BD73C8E8 
 237      A50D41F4 
 237      7C0B
 238 0790 37A0CDE2 		.ascii	"7\240\315\342\367\250\276\265\334E\010Z\325KY\346q\206"
 238      F7A8BEB5 
 238      DC45085A 
 238      D54B59E6 
 238      7186
 239 07a2 385A9E64 		.ascii	"8Z\236dkE\254\372\260\314\245\363I\015\327\327\007\240"
 239      6B45ACFA 
 239      B0CCA5F3 
 239      490DD7D7 
 239      07A0
 240 07b4 3FED0F36 		.ascii	"?\355\0176(1\205\334\021\215\327)\271\357f\332[\273"
 240      283185DC 
 240      118DD729 
 240      B9EF66DA 
 240      5BBB
 241 07c6 7A51C54A 		.ascii	"zQ\305JGF\366b\2633"
 241      4746F662 
 241      B333
 242 07d0 5C8629CF 		.ascii	"\\\206)\317\321k\035\025\212\034\311\263\344Jz\374\264"
 242      D16B1D15 
 242      8A1CC9B3 
 242      E44A7AFC 
 242      B4
 243 07e1 1FD79E6A 		.ascii	"\037\327\236jp\362\264\012W,HM\263\241+\271\212\236"
 243      70F2B40A 
 243      572C484D 
 243      B3A12BB9 
 243      8A9E
 244 07f3 149A8638 		.ascii	"\024\232\2068\331\343\334\243N\365\253\\\350\350zu\372"
 244      D9E3DCA3 
 244      4EF5AB5C 
 244      E8E87A75 
 244      FA
 245 0804 41A38770 		.ascii	"A\243\207p\260\311\3071W4!\331\215 \215\037+\245\252"
 245      B0C9C731 
ARM GAS  /tmp/ccj5wzVV.s 			page 19


 245      573421D9 
 245      8D208D1F 
 245      2BA5AA
 246 0817 D42BD5B5 		.ascii	"\324+\325\265\353S\001P\2523\217\313\201j2%\220\264"
 246      EB530150 
 246      AA338FCB 
 246      816A3225 
 246      90B4
 247 0829 C5C7FED8 		.ascii	"\305\307\376\330\362\3244\322r\265Q\013v,\3337\215\235"
 247      F2D434D2 
 247      72B5510B 
 247      762CDB37 
 247      8D9D
 248 083b 8C82ADB6 		.ascii	"\214\202\255\266\245\005\227L\264\240:E-\000\225V\027"
 248      A505974C 
 248      B4A03A45 
 248      2D009556 
 248      17
 249 084c 34E54079 		.ascii	"4\345@y\203F\244\303^P\340\272m,h\322\202QWvO\023g\275"
 249      8346A4C3 
 249      5E50E0BA 
 249      6D2C68D2 
 249      82515776 
 250 0864 D4455605 		.ascii	"\324EV\005\267\246\031UK\226\214N\265\342b\204\021\306"
 250      B7A61955 
 250      4B968C4E 
 250      B5E26284 
 250      11C6
 251 0876 4522E7D7 		.ascii	"E\"\347\327\\dIl\021\2465.\033\013\361K\342j\241.\377"
 251      5C64496C 
 251      11A6352E 
 251      1B0BF14B 
 251      E26AA12E 
 252 088b 39E13BD3 		.ascii	"9\341;\323\246\366\315\327k\337;i\327\247}\020f\215"
 252      A6F6CDD7 
 252      6BDF3B69 
 252      D7A77D10 
 252      668D
 253 089d C6751E07 		.ascii	"\306u\036\007kt\207v\253\206\273\002\015\367\275^\322"
 253      6B748776 
 253      AB86BB02 
 253      0DF7BD5E 
 253      D2
 254 08ae 5DCB395E 		.ascii	"]\3139^\020\343\230C\251\262\242}8\2465\315F\324\231"
 254      10E39843 
 254      A9B2A27D 
 254      38A635CD 
 254      46D499
 255 08c1 692275CD 		.ascii	"i\"u\315\303w\374\213\354\341\355\356\201\324\265~0"
 255      C377FC8B 
 255      ECE1EDEE 
 255      81D4B57E 
 255      30
 256 08d2 595981FE 		.ascii	"YY\201\376\023\352Z\273A\0326\026\320\276\300*\353\215"
 256      13EA5ABB 
 256      411A3616 
 256      D0BEC02A 
ARM GAS  /tmp/ccj5wzVV.s 			page 20


 256      EB8D
 257 08e4 867CB533 		.ascii	"\206|\2653\246,\240\255\267a\307e\261-\246+\320\353"
 257      A62CA0AD 
 257      B761C765 
 257      B12DA62B 
 257      D0EB
 258 08f6 13AB6042 		.ascii	"\023\253`B\201R}\270^g!\033\321B6\351\255\202c\276\265"
 258      81527DB8 
 258      5E67211B 
 258      D14236E9 
 258      AD8263BE 
 259 090b 23FC3BAD 		.ascii	"#\374;\255t\021\374\320\021y\355_]\313\3571\342\231"
 259      7411FCD0 
 259      1179ED5F 
 259      5DCBEF31 
 259      E299
 260 091d 79220A4F 		.ascii	"y\"\012O\337\2310ao\301\220IV\322\351~\033\304\015\261"
 260      DF993061 
 260      6FC19049 
 260      56D2E97E 
 260      1BC40DB1 
 261 0931 065B3A47 		.ascii	"\006[:G\025\356|\014Qf\331\301\033a\305lY\254\276E\215"
 261      15EE7C0C 
 261      5166D9C1 
 261      1B61C56C 
 261      59ACBE45 
 262 0946 0FE585EE 		.ascii	"\017\345\205\356\205\216\361h\372>\232C\205t\313\354"
 262      858EF168 
 262      FA3E9A43 
 262      8574CBEC 
 263 0956 C03D6CBB 		.ascii	"\300=l\273\357\343\373:\340\021q]a1n\030\274\201\351"
 263      EFE3FB3A 
 263      E011715D 
 263      61316E18 
 263      BC81E9
 264 0969 664C8F60 		.ascii	"fL\217`\372!\246\255\230~\214\351\227\230\236\305\364"
 264      FA21A6AD 
 264      987E8CE9 
 264      97989EC5 
 264      F4
 265 097a 22A69731 		.ascii	"\"\246\2271]\203\236u3\246[1}\013\323m\230\276m\307"
 265      5D839E75 
 265      33A65B31 
 265      7D0BD36D 
 265      98BE6DC7 
 266 098e E31A8240 		.ascii	"\343\032\202@\216Y\355w\272}FI\261\243\346x\343\003"
 266      8E59ED77 
 266      BA7D4649 
 266      B1A3E678 
 266      E303
 267 09a0 E80E55B5 		.ascii	"\350\016U\265\251\263\003\230`\370\232\275\007t\320"
 267      A9B30398 
 267      60F89ABD 
 267      0774D0
 268 09af C9FE8716 		.ascii	"\311\376\207\026\024\305\260\375m\376\037\300\267\362"
 268      14C5B0FD 
 268      6DFE1FC0 
ARM GAS  /tmp/ccj5wzVV.s 			page 21


 268      B7F2
 269 09bd EC057405 		.ascii	"\354\005t\005N\3300\312e\367,vN\271\3244D%l\267\035"
 269      4ED830CA 
 269      65F72C76 
 269      4EB9D434 
 269      44256CB7 
 270 09d2 C198ADA6 		.ascii	"\301\230\255\246\231+\330L\235\202\315B\005\233\215"
 270      992BD84C 
 270      9D82CD42 
 270      059B8D
 271 09e1 4A3217D3 		.ascii	"J2\027\323\035\250\022\215\230\276gG1fp\275\206\342"
 271      1DA8128D 
 271      98BE6747 
 271      316670BD 
 271      86E2
 272 09f3 69D7B11C 		.ascii	"i\327\261\034I\221:MG\352+Hj%\275m\366\201\337\351\036"
 272      49913A4D 
 272      47EA2B48 
 272      6A25BD6D 
 272      F681DFE9 
 273 0a08 3C2DECDD 		.ascii	"<-\354\335=\013~*u\304X\037S\201s\355\251eI\346\332"
 273      3D0B7E2A 
 273      75C4581F 
 273      538173ED 
 273      A96549E6 
 274 0a1d B1CB5E8E 		.ascii	"\261\313^\216g\367\272|\320\370\021\203\302\330\000"
 274      67F7BA7C 
 274      D0F81183 
 274      C2D800
 275 0a2c C1B36F50 		.ascii	"\301\263oP\231\232\353\236\257\350G\226\250\310\375"
 275      999AEB9E 
 275      AFE84796 
 275      A8C8FD
 276 0a3b 04230F1E 		.ascii	"\004#\017\036\254\340\230\023~9\002s\373\343\367>\217"
 276      ACE09813 
 276      7E390273 
 276      FBE3F73E 
 276      8F
 277 0a4c DF637545 		.ascii	"\337cuE\317\306o\253\307\317\311\317\204\207f\343\304"
 277      CFC66FAB 
 277      C7CFC9CF 
 277      848766E3 
 277      C4
 278 0a5d C1BC0B47 		.ascii	"\301\274\013G\236\017\\.\323j<\373\025\307\321\3027"
 278      9E0F5C2E 
 278      D36A3CFB 
 278      15C7D1C2 
 278      37
 279 0a6e 5B23B0DE 		.ascii	"[#\260\336\370\212}\277\227\004\303I\267\235\024{\375"
 279      F88A7DBF 
 279      9704C349 
 279      B79D147B 
 279      FD
 280 0a7f 64E3E141 		.ascii	"d\343\341A\353p\210n\301\301\277\246O\362\215s\023\234"
 280      EB70886E 
 280      C1C1BFA6 
 280      4FF28D73 
ARM GAS  /tmp/ccj5wzVV.s 			page 22


 280      139C
 281 0a91 D89B18AC 		.ascii	"\330\233\030\254\266\"\306Z\247\030\034\363\026V9\352"
 281      B622C65A 
 281      A7181CF3 
 281      165639EA 
 282 0aa1 329E9827 		.ascii	"2\236\230'\307\020\216\332\232\003|\247\233\003\300"
 282      C7108EDA 
 282      9A037CA7 
 282      9B03C0
 283 0ab0 B456C34B 		.ascii	"\264V\303Ka\0160\245\034O!\240\323+O\350\364\300\373"
 283      610E30A5 
 283      1C4F21A0 
 283      D32B4FE8 
 283      F4C0FB
 284 0ac3 E361EEE4 		.ascii	"\343a\356\344G\3219f\237\221$\207\216\370{uZB\216\010"
 284      47D13966 
 284      9F912487 
 284      8EF87B75 
 284      5A428E08 
 285 0ad7 714C8B63 		.ascii	"qL\213c8\312Fc\327\004\342\012e\254\023v\260\022l,\340"
 285      38CA4663 
 285      D704E20A 
 285      65AC1376 
 285      B0126C2C 
 286 0aec 18A18275 		.ascii	"\030\241\202u:\006\243\011\233\253\007\353\262\003\226"
 286      3A06A309 
 286      9BAB07EB 
 286      B20396
 287 0afb 60F9BD7A 		.ascii	"`\371\275z\317\342\244'\356,6HI\357\376\257\213:\252"
 287      CFE2A427 
 287      EE2C3648 
 287      49EFFEAF 
 287      8B3AAA
 288 0b0e 6558146A 		.ascii	"eX\024j\265 \013\255X?\225JrVK1\241\226\327\211\011"
 288      B5200BAD 
 288      583F954A 
 288      72564B31 
 288      A196D789 
 289 0b23 75617076 		.ascii	"uapv\301`B\206\226\011]V-\237s\365\2650\226^\3178\246"
 289      C1604286 
 289      96095D56 
 289      2D9F73F5 
 289      B530965E 
 290 0b3a DBB17CE9 		.ascii	"\333\261|\351\316ZXA\005mS\373\332\200\3134\351.\263"
 290      CE5A5841 
 290      056D53FB 
 290      DA80CB34 
 290      E92EB3
 291 0b4d 8FDE1FF0 		.ascii	"\217\336\037\360\354qt\233'p\004=\211\351)L?\305\364"
 291      EC71749B 
 291      2770043D 
 291      89E9294C 
 291      3FC5F4
 292 0b60 34A65F60 		.ascii	"4\246_`\372%\246\027\364\243\354\217\203\3121\257\366"
 292      FA25A617 
 292      F4A3EC8F 
 292      83CA31AF 
ARM GAS  /tmp/ccj5wzVV.s 			page 23


 292      F6
 293 0b71 350C94B4 		.ascii	"5\014\224\264_Kf\205\022\031)\255N\013Y\271\353\007"
 293      5F4B6685 
 293      121929AD 
 293      4E0B59B9 
 293      EB07
 294 0b83 6477FD0D 		.ascii	"dw\375\015\272\3329}\215\321U\253q]\340\007dw\231-v"
 294      BADA397D 
 294      8DD155AB 
 294      715DE007 
 294      6477992D 
 295 0b98 A93908D3 		.ascii	"\2519\010\323\233]\010\014\0060U\310\356\002\372\375"
 295      9B5D080C 
 295      063055C8 
 295      EE02FAFD 
 296 0ba8 087A1904 		.ascii	"\010z\031\004\2170\272\006`\216Z\225\303\022V\352\337"
 296      8F30BA06 
 296      608E5A95 
 296      C31256EA 
 296      DF
 297 0bb9 ED8AEFF9 		.ascii	"\355\212\357\371\245\373\343\231~\032\027k\214\\\320"
 297      A5FBE399 
 297      7E1A176B 
 297      8C5CD0
 298 0bc8 CD2AD967 		.ascii	"\315*\331g,;\215\234\205vye\3328f\235-\264\027\255\320"
 298      2C3B8D9C 
 298      85767965 
 298      DA38669D 
 298      2DB417AD 
 299 0bdd CCCE929A 		.ascii	"\314\316\222\232\275a\246\201\016\214+\303\273\333\317"
 299      BD61A681 
 299      0E8C2BC3 
 299      BBDBCF
 300 0bec 572AEB64 		.ascii	"W*\353den\242\015g\014\332\220\024\210\010l\252\333"
 300      656EA20D 
 300      670CDA90 
 300      1488086C 
 300      AADB
 301 0bfe 30E86EEF 		.ascii	"0\350n\357l\222\017E\222'I\006^\030*\033;\233\270\370"
 301      6C920F45 
 301      92274906 
 301      5E182A1B 
 301      3B9BB8F8 
 302 0c12 024CB2F1 		.ascii	"\002L\262\361r\035\306\233vVS\276Af\010\015\016\203"
 302      721DC69B 
 302      765653BE 
 302      4166080D 
 302      0E83
 303 0c24 5E85AE66 		.ascii	"^\205\256f\302\006\031/\247c\244\366\235c\270L\012\356"
 303      C206192F 
 303      A763A4F6 
 303      9D63B84C 
 303      0AEE
 304 0c36 080DD76D 		.ascii	"\010\015\327m\007\316j4\007\270\017i8)\335)\034M]+\015"
 304      07CE6A34 
 304      07B80F69 
 304      3829DD29 
ARM GAS  /tmp/ccj5wzVV.s 			page 24


 304      1C4D5D2B 
 305 0c4b 37C50E9C 		.ascii	"7\305\016\234\325\200\016p\3554\334t\307p4u\307h\270"
 305      D5800E70 
 305      ED34DC74 
 305      C7703475 
 305      C768B8
 306 0c5e 57EDC099 		.ascii	"W\355\300\231\015\352f\037\275\002\363l\205\233\250"
 306      0DEA661F 
 306      BD02F36C 
 306      859BA8
 307 0c6d D7343771 		.ascii	"\32747q^\225\230\276\212\351\0371\255\302t6\246s\335"
 307      5E9598BE 
 307      8AE91F31 
 307      ADC27436 
 307      A673DD
 308 0c80 36666193 		.ascii	"6fa\223\335\272\225\312Y\3516fE%\026R\320\315\212d\227"
 308      DDBA95CA 
 308      59E93666 
 308      45251652 
 308      D0CD8A64 
 309 0c95 C731D546 		.ascii	"\3071\325F<\263@\177\242m1\304_7\345\33170*]\215G\260"
 309      3CB3407F 
 309      A26D31C4 
 309      5F37E5D9 
 309      37302A5D 
 310 0cac CB7102BA 		.ascii	"\313q\002\272\007\375\371\021L/az\005\323k\230J(\222"
 310      07FDF911 
 310      4C2F617A 
 310      05D36B98 
 310      4A2892
 311 0cbf 6A3B2279 		.ascii	"j;\"y=~X\233rZ\252K\237\376)+\237VP\000b7\251\010M\234"
 311      3D7E589B 
 311      725AAA4B 
 311      9FFE292B 
 311      9F565000 
 312 0cd9 02F19ADB 		.ascii	"\002\361\232\333\251S_\3446w\352w&!v\241\333\234X\373"
 312      A9535FE4 
 312      3677EA77 
 312      262176A1 
 312      DB9C58FB 
 313 0ced 11608D3B 		.ascii	"\021`\215;\305\227\217\026\273\251P\313\306k\274/\252"
 313      C5978F16 
 313      BBA950CB 
 313      C66BBC2F 
 313      AA
 314 0cfe 10648B4C 		.ascii	"\020d\213Lq\361\335\235\247~\013\2768\331\206\032t\013"
 314      71F1DD9D 
 314      A77E0BBE 
 314      38D9861A 
 314      740B
 315 0d10 287EB252 		.ascii	"(~\262R\244\334r\243\267\177\363\010\276\357\273<\271"
 315      A4DC72A3 
 315      B77FF308 
 315      BEEFBB3C 
 315      B9
 316 0d21 AF87706F 		.ascii	"\257\207po\307\221%J\270'\237HmG\025^\236\232\217\006"
 316      C791254A 
ARM GAS  /tmp/ccj5wzVV.s 			page 25


 316      B8279F48 
 316      6D47155E 
 316      9E9A8F06 
 317 0d35 BCD6D9E9 		.ascii	"\274\326\331\351\315/\252\357\035\2354\202Q\257\030"
 317      CD2FAAEF 
 317      1D9D3482 
 317      51AF18
 318 0d44 25F1D000 		.ascii	"%\361\320\000vR\017\326\351\030l\010\005\366\215\036"
 318      76520FD6 
 318      E9186C08 
 318      05F68D1E 
 319 0d54 EC733B60 		.ascii	"\354s;`\0117\342T\303\\\201\376i%\232\333\033\230\256"
 319      0937E254 
 319      C35C81FE 
 319      69259ADB 
 319      1B98AE
 320 0d67 C174AD9B 		.ascii	"\301t\255\233\012\264\272\322\215a\235\334?:\274xG2"
 320      0AB4BAD2 
 320      8D619DDC 
 320      3F3ABC78 
 320      4732
 321 0d79 C911AD94 		.ascii	"\311\021\255\224ti\334>\0061K\244\330\371\216O\2768"
 321      7469DC3E 
 321      06314BA4 
 321      D8F98E4F 
 321      BE38
 322 0d8b 3C959D55 		.ascii	"<\225\235U.5I\347\3108,\033\000\307\364\030\010\272"
 322      2E3549E7 
 322      C8382C1B 
 322      00C7F418 
 322      08BA
 323 0d9d 9D592E49 		.ascii	"\235Y.I\2631vQB\377i7\220\022\033\334\203,\006~\371"
 323      B3317651 
 323      42FF6937 
 323      90121BDC 
 323      832C067E 
 324 0db2 18E92F99 		.ascii	"\030\351/\231\225DE\245\325\222\013\315\216Q\352P\254"
 324      954445A5 
 324      D5920BCD 
 324      8E51EA50 
 324      AC
 325 0dc3 6D7453EF 		.ascii	"mtS\357\365\313\224\305.\344\3114\251$\315\270!1I<["
 325      F5CB94C5 
 325      2EE4C934 
 325      A924CDB8 
 325      2131493C 
 326 0dd8 E7262B29 		.ascii	"\347&+)[R i\213\221\244\255\275I\252=\025\273\364Qz"
 326      5B522069 
 326      8B91A4AD 
 326      BD49AA3D 
 326      15BBF451 
 327 0ded D5E48E9E 		.ascii	"\325\344\216\236\236A\006\177\342\266\366d\333\024\177"
 327      9E41067F 
 327      E2B6F664 
 327      DB147F
 328 0dfc 12F7213C 		.ascii	"\022\367!<\373\034g0<\205\244\315\253\011+\350\372x"
 328      FB1C6730 
ARM GAS  /tmp/ccj5wzVV.s 			page 26


 328      3C85A4CD 
 328      AB092BE8 
 328      FA78
 329 0e0e B6DE828D 		.ascii	"\266\336\202\2158\206\201\276\216\252\216\266\256}\243"
 329      388681BE 
 329      8EAA8EB6 
 329      AE7DA3
 330 0e1d 176C96A6 		.ascii	"\027l\226\246\274\"]\353y\231\265\357\364\266\033\235"
 330      BC225DEB 
 330      7999B5EF 
 330      F4B61B9D 
 331 0e2d 5E279E6C 		.ascii	"^'\236l\321y=\216\2517\210_%dGoI\001%\363\316\356\034"
 331      D1793D8E 
 331      A937885F 
 331      2564476F 
 331      490125F3 
 332 0e44 BCD08A92 		.ascii	"\274\320\212\222D\257\2745\272\255g\340vw\270z\316\036"
 332      44AFBC35 
 332      BAAD67E0 
 332      7677B87A 
 332      CE1E
 333 0e56 FD2B7949 		.ascii	"\375+yIz\027\206\311\025\031\0167\270\360\305,\243\343"
 333      7A1786C9 
 333      15190E37 
 333      B8F0C52C 
 333      A3E3
 334 0e68 6CDC838E 		.ascii	"l\334\203\216s\267-\307\331\262g\235\355\377\346`\330"
 334      73B72DC7 
 334      D9B2679D 
 334      EDFFE660 
 334      D8
 335 0e79 245F9461 		.ascii	"$_\224a\376\357\034\250b<\273\037\225\375\200\221\312"
 335      FEEF1CA8 
 335      623CBB1F 
 335      95FD8091 
 335      CA
 336 0e8a 9A0AA4F2 		.ascii	"\232\012\244\362\200-*\227\356Q\226\230\310\253\366"
 336      802D2A97 
 336      EE519698 
 336      C8ABF6
 337 0e99 207B5685 		.ascii	" {V\205L\311\273\3133\033\371\015u\236\335\353\030,"
 337      4CC9BBCB 
 337      331BF90D 
 337      759EDDEB 
 337      182C
 338 0eab D30C6C1F 		.ascii	"\323\014l\037\202\265\332\001\263^KS\301\332\021\354"
 338      82B5DA01 
 338      B35E4B53 
 338      C1DA11EC 
 339 0ebb B863B04C 		.ascii	"\270c\260L\203\370\342~\370\177\320\367\036\304\364"
 339      83F8E27E 
 339      F87FD0F7 
 339      1EC4F4
 340 0eca 10A6CD76 		.ascii	"\020\246\315v\374p\223[\267ZT\206\013\300\273\235\213"
 340      FC70935B 
 340      B75A5486 
 340      0BC0BB9D 
ARM GAS  /tmp/ccj5wzVV.s 			page 27


 340      8B
 341 0edb DDECA357 		.ascii	"\335\354\243W\\\210\002q\370\331k\207\244\235n\363\005"
 341      5C880271 
 341      F8D96B87 
 341      A49D6EF3 
 341      05
 342 0eec 2C8ED992 		.ascii	",\216\331\222an\371\207M-\277\255\353\350\2035V\226"
 342      616EF987 
 342      4D2DBFAD 
 342      EBE88335 
 342      5696
 343 0efe 4FB6BFAC 		.ascii	"O\266\277\254\010h1\211\274,_\213\\\315\351\177\033"
 343      08683189 
 343      BC2C5F8B 
 343      5CCDE97F 
 343      1B
 344 0f0f 56CBC878 		.ascii	"V\313\310xa\355\036b\263\344w\365\332\335d\030\213e"
 344      61ED1E62 
 344      B3E477F5 
 344      DADD6418 
 344      8B65
 345 0f21 1847DEC5 		.ascii	"\030G\336\305n\303\301-Cdg \261\267\274\232,\344u\302"
 345      6EC3C12D 
 345      43646720 
 345      B1B7BC9A 
 345      2CE475C2 
 346 0f35 545E5337 		.ascii	"T^S7\354b\027J\273\246H==/3\366]\366I\243\264H\234\256"
 346      EC62174A 
 346      BBA6483D 
 346      3D2F33F6 
 346      5DF649A3 
 347 0f4d FD50C679 		.ascii	"\375P\306y\003a\307,\010;eJ\330\334o\367=\225\002a\237"
 347      0361C72C 
 347      083B654A 
 347      D8DC6FF7 
 347      3D950261 
 348 0f62 F61AF038 		.ascii	"\366\032\3608\246\254\237y\303\237\2316\274\355\312"
 348      A6AC9F79 
 348      C39F9936 
 348      BCEDCA
 349 0f71 BEDF680D 		.ascii	"\276\337h\015\313\200\034\263\326\002\342s\032\342\027"
 349      CB801CB3 
 349      D602E273 
 349      1AE217
 350 0f80 CCEB04E2 		.ascii	"\314\353\004\342\373\316S\317\257/#J(]\356a{\\\352?"
 350      FBCE53CF 
 350      AF2F234A 
 350      285DEE61 
 350      7B5CEA3F 
 351 0f94 FBD9A2A1 		.ascii	"\373\331\242\241(\344\323\377\311\207\000\236"
 351      28E4D3FF 
 351      C987009E 
 352 0fa0 890312B0 		.ascii	"\211\003\022\260X3\204H\373 D\222\244\351\345\032\032"
 352      58338448 
 352      FB204492 
 352      A4E9E51A 
 352      1A
ARM GAS  /tmp/ccj5wzVV.s 			page 28


 353 0fb1 99D1C090 		.ascii	"\231\321\300\220hD3\231\373t\031\341b\347\3342P\217"
 353      68443399 
 353      FB7419E1 
 353      62E7DC32 
 353      508F
 354 0fc3 4FC5D969 		.ascii	"O\305\331i\003\347\3174\016\360x\265\263\371\017\353"
 354      03E7CF34 
 354      0EF078B5 
 354      B3F90FEB 
 355 0fd3 743C9A8D 		.ascii	"t<\232\215\031\032wd\232\252\235]\374\372ue\307\366"
 355      191A7764 
 355      9AAA9D5D 
 355      FCFA7565 
 355      C7F6
 356 0fe5 2C0E8F07 		.ascii	",\016\217\007\372\231\016\217\326@\034\323\206U\316"
 356      FA990E8F 
 356      D6401CD3 
 356      8655CE
 357 0ff4 BB7B9DFF 		.ascii	"\273{\235\377\350xI>\377q\336\306"
 357      E878493E 
 357      FF71DEC6 
 358 1000 F823C566 		.ascii	"\370#\305f\035\267|w\322t\001\254\256\265\355\224B\372"
 358      1DB77C77 
 358      D27401AC 
 358      AEB5ED94 
 358      42FA
 359 1012 2524FD54 		.ascii	"%$\375Tr\322i \2169\213U.\367&\275\371\005\231\364\313"
 359      72D26920 
 359      8E398B55 
 359      2EF726BD 
 359      F90599F4 
 360 1027 B648AF6F 		.ascii	"\266H\257o\323\037\375P\017\241]v\247\264\001\005C\361"
 360      D31FFD50 
 360      0FA15D76 
 360      A7B40105 
 360      43F1
 361 1039 36F9AD17 		.ascii	"6\371\255\027\342\327\300\333\031\301\034\015w\222\372"
 361      E2D7C0DB 
 361      19C11C0D 
 361      7792FA
 362 1048 4294FC82 		.ascii	"B\224\374\202\333a\307`\231\024e-\325\364!\235\026;"
 362      DB61C760 
 362      9914652D 
 362      D5F4219D 
 362      163B
 363 105a 7809368F 		.ascii	"x\0116\217\2247\217d\260\217\034\203\321\304\035k\323"
 363      94378F64 
 363      B08F1C83 
 363      D1C41D6B 
 363      D3
 364 106b BDE2D2AD 		.ascii	"\275\342\322\255um\0020\373\353L\227u\003\351\025\034"
 364      756D0230 
 364      FBEB4C97 
 364      7503E915 
 364      1C
 365 107c 48AFE208 		.ascii	"H\257\342\010\337\215\351\367\230^\303\264\007S\311"
 365      DF8DE9F7 
ARM GAS  /tmp/ccj5wzVV.s 			page 29


 365      985EC3B4 
 365      0753C9
 366 108b 43CDE9A6 		.ascii	"C\315\351\246\364Wm\304T\023\223\251\204\024[hm\035"
 366      F4576DC4 
 366      541393A9 
 366      84145B68 
 366      6D1D
 367 109d 664B0775 		.ascii	"fK\007u\363\277\230\314NE\343\230\342\301w\242\373'"
 367      F3BF98CC 
 367      4E45E398 
 367      E2C177A2 
 367      FB27
 368 10af 350E0A87 		.ascii	"5\016\012\207cj\261\3064O/\3338\363{\3316\310\243\344"
 368      636AB1C6 
 368      344F2FDB 
 368      38F37BD9 
 368      36C8A3E4 
 369 10c3 61E5C7F3 		.ascii	"a\345\307\363S\177\277\035l\3743\365\005\351W\221\215"
 369      537FBF1D 
 369      6CFC33F5 
 369      05E95791 
 369      8D
 370 10d4 FAE46C18 		.ascii	"\372\344l\030_r\337\213Uf\232\360\361\274\314\307L["
 370      5F72DF8B 
 370      55669AF0 
 370      F1BCCCC7 
 370      4C5B
 371 10e6 7CD4CC57 		.ascii	"|\324\314W5\177\206'~<\215\324Mm\365cI+*\253\014\266"
 371      357F8627 
 371      7E3C8DD4 
 371      4D6DF563 
 371      492B2AAB 
 372 10fc D23118AD 		.ascii	"\3221\030\255\371u\255\213o\225jw\262\352\277\203i\327"
 372      F975AD8B 
 372      6F956A77 
 372      B2EABF83 
 372      69D7
 373 110e 7876B866 		.ascii	"xv\270f\241\340mn5\036\211O\026H\201\306\235\234\254"
 373      A1E06D6E 
 373      351E894F 
 373      164881C6 
 373      9D9CAC
 374 1121 9CDEAEF6 		.ascii	"\234\336\256\366\020\003<\331\337i0\3051_\030\351v\346"
 374      10033CD9 
 374      DF6930C5 
 374      315F18E9 
 374      76E6
 375 1133 9EC811F7 		.ascii	"\236\310\021\367\337\251\257\315\341\302\304\237\355"
 375      DFA9AFCD 
 375      E1C2C49F 
 375      ED
 376 1140 003A38E7 		.ascii	"\000:8\347\343\321\235\363\361\3409\037\017\261\366"
 376      E3D19DF3 
 376      F1E0391F 
 376      0FB1F6
 377 114f 3998CEC5 		.ascii	"9\230\316\305t>\246\213<6\302l\322\371\032\266r\316"
 377      743EA68B 
ARM GAS  /tmp/ccj5wzVV.s 			page 30


 377      3C36C26C 
 377      D2F91AB6 
 377      72CE
 378 1161 2765853A 		.ascii	"'e\205:\327[\241\234\200\321\012u\211R(\360\251\036"
 378      D75BA19C 
 378      80D10A75 
 378      895228F0 
 378      A91E
 379 1173 039E4385 		.ascii	"\003\236C\205\232[\215+j\262v\236\323<\213]\260\376"
 379      9A5B8D2B 
 379      6AB2769E 
 379      D33C8B5D 
 379      B0FE
 380 1185 893A659A 		.ascii	"\211:e\232\256S^\301N\251\304.\250\301t\011\246Kiw\374"
 380      AE535EC1 
 380      4EA9C42E 
 380      A8C17409 
 380      A64B6977 
 381 119a 9DD11D53 		.ascii	"\235\321\035S\276\317lp\320\213G\212m:\356\340\377\214"
 381      BECF6C70 
 381      D08B478A 
 381      6D3AEEE0 
 381      FF8C
 382 11ac D4B57EA5 		.ascii	"\324\265~\245\236\261]\216NL\032\340p\011\202cfb\225"
 382      9EB15D8E 
 382      4E4C1AE0 
 382      70098263 
 382      666295
 383 11bf 55BD9D58 		.ascii	"U\275\235XG@vb\253\222;\261)\345\261\205\257\255\212"
 383      47407662 
 383      AB923BB1 
 383      29E5B185 
 383      AFAD8A
 384 11d2 3BE372CD 		.ascii	";\343r\315\264\3339\3535\030\352\205\310\245\032\031"
 384      B4DB39EB 
 384      3518EA85 
 384      C8A51A19 
 385 11e2 3FC8EC74 		.ascii	"?\310\354t\225\256\347Vc\317\255\241\373i\315\000C?"
 385      95AEE756 
 385      63CFADA1 
 385      FB69CD00 
 385      433F
 386 11f4 99B597E0 		.ascii	"\231\265\227\340Ln\303q50\223\3773\310z#^-\365\177@"
 386      4C6EC371 
 386      353093FF 
 386      33C87A23 
 386      5E2DF57F 
 387 1209 CC003313 		.ascii	"\314\0003\0231p^\027\025\\\304\250\340k\034\375\313"
 387      31705E17 
 387      155CC4A8 
 387      E06B1CFD 
 387      CB
 388 121a 51E99661 		.ascii	"Q\351\226a\272\236fi\233\326\371\246\3414.\201z\264"
 388      BA9E6669 
 388      9BD6F9A6 
 388      E1342E81 
 388      7AB4
ARM GAS  /tmp/ccj5wzVV.s 			page 31


 389 122c F0DE6C97 		.ascii	"\360\336l\227\245\366a\262s~,\336g\017\3236\003!\243"
 389      A5F661B2 
 389      737E2CDE 
 389      670FD336 
 389      0321A3
 390 123f C7E91ECB 		.ascii	"\307\351\036\313f\217\371\036\213\372\177\352\254\352"
 390      668FF91E 
 390      8BFA7FEA 
 390      ACEA
 391 124d 6DF298EF 		.ascii	"m\362\230\357\261\310\323\011\253Z[\342\265\354F\373"
 391      B1C8D309 
 391      AB5A5BE2 
 391      B5EC46FB 
 392 125d 8DDB4FFD 		.ascii	"\215\333O\375\273\034\354oE\033\332nnC\211w\273\353"
 392      BB1CEC6F 
 392      451BDA6E 
 392      6E438977 
 392      BBEB
 393 126f 3DC62366 		.ascii	"=\306#f\255\270@Vo\313x\256\266\316U\"\000y'\263\011"
 393      ADB84056 
 393      6FCB78AE 
 393      B6CE5522 
 393      007927B3 
 394 1284 49A84FCD 		.ascii	"I\250O\315a\003^\267\354\260e\260\017\034\203eR`\327"
 394      61035EB7 
 394      ECB065B0 
 394      0F1C8365 
 394      5260D7
 395 1297 F460CD76 		.ascii	"\364`\315v\300\022\354OW\265\351\300>t\014FS6[\017\326"
 395      C012EC4F 
 395      57B5E9C0 
 395      3E740C46 
 395      53365B0F 
 396 12ac 6E072CC1 		.ascii	"n\007,\301\336\364\3348\030\317\3767\256z:\001\243)"
 396      DEF4DC38 
 396      18CFFE37 
 396      AE7A3A01 
 396      A329
 397 12be 9BAFA7EC 		.ascii	"\233\257\247\354c;\224\331\237/\324\353\\\3336tm\015"
 397      633B94D9 
 397      9F2FD4EB 
 397      5CDB3674 
 397      6D0D
 398 12d0 E80DB663 		.ascii	"\350\015\266c\272\003\323FLwb\372\036\246\357\353}\205"
 398      BA03D346 
 398      4C7762FA 
 398      1EA6EFEB 
 398      7D85
 399 12e2 C1A0B65A 		.ascii	"\301\240\266Z\220FZ\333\343\261\336o\224W\364\255j\356"
 399      90465ADB 
 399      E3B1DE6F 
 399      9457F4AD 
 399      6AEE
 400 12f4 F5D09B40 		.ascii	"\365\320\233@\347:\346m\354\272s\035\211\241\310\232"
 400      E73AE66D 
 400      ECBA731D 
 400      89A1C89A 
ARM GAS  /tmp/ccj5wzVV.s 			page 32


 401 1304 DDE4290E 		.ascii	"\335\344)\016v\016\366y\014\313Pm\234a\277\224c\246"
 401      760EF679 
 401      0CCB506D 
 401      9C61BF94 
 401      63A6
 402 1316 DD68BA71 		.ascii	"\335h\272q\323&<\256\026?\201\241K\223\307j\343F\031"
 402      D3263CAE 
 402      163F81A1 
 402      4B93C76A 
 402      E34619
 403 1329 90946D92 		.ascii	"\220\224m\222\243\3223\267j;7\244\022\325\013\007<\324"
 403      A3D233B7 
 403      6A3B37A4 
 403      12D50B07 
 403      3CD4
 404 133b 8290412E 		.ascii	"\202\220A.\237&\220\313\301\204\022=\231\240\346!K\227"
 404      9F2690CB 
 404      C184123D 
 404      99A0E621 
 404      4B97
 405 134d D892A056 		.ascii	"\330\222\240V\263e\255\306\004\265\016\307k1w\014\036"
 405      B365ADC6 
 405      04B50EC7 
 405      6B31770C 
 405      1E
 406 135e 9C25FF15 		.ascii	"\234%\377\025G\263\012\370\302\254P8XX\232'\220| *D"
 406      47B30AF8 
 406      C2AC5038 
 406      58589A27 
 406      907C202A 
 407 1373 427CE1E0 		.ascii	"B|\341\340\002&=\007s\243\"\241\361B\304\373\330S\317"
 407      02263D07 
 407      73A322A1 
 407      F142C4FB 
 407      D853CF
 408 1386 668E64FA 		.ascii	"f\216d\372\351\357=\367\344\230aY\245\321HVa(7+?\030"
 408      E9EF3DF7 
 408      E4986159 
 408      A5D14856 
 408      6128372B 
 409 139c CCE22345 		.ascii	"\314\342#E\367\204\213\303\302=\002\237\033\312\272"
 409      F7848BC3 
 409      C23D029F 
 409      1BCABA
 410 13ab 77F088C1 		.ascii	"w\360\210\301\3034\350\250\230\227'\214\005Xo4\364\007"
 410      C334E8A8 
 410      9897278C 
 410      05586F34 
 410      F407
 411 13bd 2120FE0C 		.ascii	"! \376\014k\252O\303\302\004\002\002\205Ba\021\012\371"
 411      6BAA4FC3 
 411      C2040202 
 411      85426111 
 411      0AF9
 412 13cf 4AE17B44 		.ascii	"J\341{D@\274\307\254T\021\037,\010\205\205\254\000\000"
 412      40BCC7AC 
 412      54111F2C 
ARM GAS  /tmp/ccj5wzVV.s 			page 33


 412      088585AC 
 412      0000
 413 13e1 F2A58562 		.ascii	"\362\245\205b@\234T\"D\241\226?\020P\352y&DB\242\340"
 413      409C5422 
 413      44A1963F 
 413      1050EA79 
 413      264442A2 
 414 13f6 8E087CDE 		.ascii	"\216\010|\336\010=\263\301\342\242\242\342pVIqD\214"
 414      083DB3C1 
 414      E2A2A2E2 
 414      70564971 
 414      448C
 415 1408 663D92FD 		.ascii	"f=\222\375\344\310''\222{%\241B!\022\315zl\344\310\254"
 415      E4C82727 
 415      927B25A1 
 415      422112CD 
 415      7A6CE4C8 
 416 141d 60818AE6 		.ascii	"`\201\212\346)\212\346\007D\037\000\016\037\026\020"
 416      298AE607 
 416      441F000E 
 416      1F1610
 417 142c 015BC9B9 		.ascii	"\001[\311\271JJEW\276 \336\256\007\216\210\032\225\301"
 417      4A4A4557 
 417      BE20DEAE 
 417      078E881A 
 417      95C1
 418 143e 82E8A4A8 		.ascii	"\202\350\244\250F\022\311\207\212\200\3414B\332\320"
 418      4612C987 
 418      8A80E134 
 418      42DAD0
 419 144d FB02621F 		.ascii	"\373\002b\037\231J\222u\003\224\350\006,\321\213\004"
 419      994A9275 
 419      0394E806 
 419      2CD18B04 
 420 145d 8B1E42B1 		.ascii	"\213\036B\261\350\032_$\376\302\022]\030/\204E\202\235"
 420      E81A5F24 
 420      FEC2125D 
 420      182F8445 
 420      829D
 421 146f 81B940B4 		.ascii	"\201\271@\264\2704\022\204\006\322\365?\373\313?\012"
 421      B8341284 
 421      06D2F53F 
 421      FBCB3F0A 
 422 147f 43515108 		.ascii	"CQQ\010\013\221\200\230A\337p\207\205\211b\232X@\332"
 422      0B918098 
 422      41DF7087 
 422      8589629A 
 422      5840DA
 423 1492 03E68205 		.ascii	"\003\346\202\005\0019\237i\315T\260 \017\032\355'\227"
 423      01399F69 
 423      CD54B020 
 423      0F1AED27 
 423      97
 424 14a3 8B06C695 		.ascii	"\213\006\306\225\012\245\320j\177\255\252r\313]\022"
 424      0AA5D06A 
 424      7FADAA72 
 424      CB5D12
ARM GAS  /tmp/ccj5wzVV.s 			page 34


 425 14b2 11C67B30 		.ascii	"\021\306{0\353\023K\"\241b\205u\":\205u\222u\223G\351"
 425      EB134B22 
 425      A1628575 
 425      223A8575 
 425      92759347 
 426 14c7 A42302C1 		.ascii	"\244#\002\301\342\260\010\324\374*iG\025\004\213#\002"
 426      E2B008D4 
 426      FC2A6947 
 426      15048B23 
 426      02
 427 14d8 D0D017AB 		.ascii	"\320\320\027\253\001PP\234x\217\275Z\201\361\367\027"
 427      0150509C 
 427      788FBD5A 
 427      81F1F717 
 428 14e8 41CDB488 		.ascii	"A\315\264\210\220\017Z\032\020\271\310\275\\\344\357"
 428      900F5A1A 
 428      10B9C8BD 
 428      5CE4EF
 429 14f7 B9C87D5C 		.ascii	"\271\310}\\\344~.2\202\213<\340\212\014\035\002\327"
 429      E47E2E32 
 429      828B3CE0 
 429      8A0C1D02 
 429      D7
 430 1508 50AE30C2 		.ascii	"P\2560\302EK\\\000\355\001}\023\"\236\342\302<\220W"
 430      454B5C00 
 430      ED017D13 
 430      229EE2C2 
 430      3C9057
 431 151b B08007A1 		.ascii	"\260\200\007\241\361EB\237\250\370\022_\030\312\017"
 431      F145429F 
 431      A8F8125F 
 431      18CA0F
 432 152a 2B7CDD77 		.ascii	"+|\335w\257\306\027\311z'\360\271|TH\023\243\"/\202"
 432      AFC617C9 
 432      7A27F0B9 
 432      7C544813 
 432      A3222F82 
 433 153e 7C3CF8ED 		.ascii	"|<\370\355\023\213\212\363\310\257\261\205|~\324'F\204"
 433      138B8AF3 
 433      C8AFB185 
 433      7C7ED427 
 433      4684
 434 1550 B1519001 		.ascii	"\261Q\220\001\371\362F\362&\201\246\245\011\023Cb\020"
 434      F9F246F2 
 434      2681A6A5 
 434      09134362 
 434      10
 435 1561 0A792788 		.ascii	"\012y'\210\305\271\377Yr\243\3227PD\210\010a\322\301"
 435      C5B9FF59 
 435      72A3D237 
 435      50448808 
 435      61D2C1
 436 1574 9E09A218 		.ascii	"\236\011\242\030)\361E\241\037\241B:\010>*\024\361%"
 436      29F145A1 
 436      1FA1423A 
 436      083E2A14 
 436      F125
ARM GAS  /tmp/ccj5wzVV.s 			page 35


 437 1586 05C0DE20 		.ascii	"\005\300\336 \353n\023\010\337\236 \364\275\350\202"
 437      EB6E1308 
 437      DF9E20F4 
 437      BDE882
 438 1595 14E0E156 		.ascii	"\024\340\341VI\032\324.*\005\261[\327,\022'\222\232"
 438      491AD42E 
 438      2A05B15B 
 438      D72C1227 
 438      929A
 439 15a7 C513405D 		.ascii	"\305\023@]|X\226p'\302\355\222\276\250LE|\364%\270%"
 439      7C589670 
 439      27C2ED92 
 439      BEA84C45 
 439      7CF425B8 
 440 15bc 4C2019B6 		.ascii	"L \031\2664CU\003\242c\001\261\237N1\310\035\337\004"
 440      34435503 
 440      A26301B1 
 440      9F4E31C8 
 440      1DDF04
 441 15cf 3E2486C2 		.ascii	">$\206\302\371i@;jG\232P\"\204\301\336\363}\000IJ@\347"
 441      F969403B 
 441      6A479A50 
 441      2284C1DE 
 441      F37D0049 
 442 15e6 F085442D 		.ascii	"\360\205D-<E%\305\305\205i\252\256ze\215\227\365\033"
 442      3C4525C5 
 442      C58569AA 
 442      AE7A658D 
 442      97F51B
 443 15f9 054808C1 		.ascii	"\005H\010\301\214\007\357\371\243y\212\264\3759\243"
 443      8C07EFF9 
 443      A3798AB4 
 443      FD39A3
 444 1608 02CF3E35 		.ascii	"\002\317>5\372\251\321c|\220\313\031\363\3643i\360\235"
 444      FAA9D163 
 444      7C90CB19 
 444      F3F43369 
 444      F09D
 445 161a FD4F8F8C 		.ascii	"\375O\217\214\372]B\247\207\004\021\233\272!\024\006"
 445      FA5D42A7 
 445      8704119B 
 445      BA211406 
 446 162a 9B5495BB 		.ascii	"\233T\225\273\017h\257\222MS\263\376q\001\205\023\310"
 446      0F68AF92 
 446      4D53B3FE 
 446      71018513 
 446      C8
 447 163b 058B4B41 		.ascii	"\005\213KAw#i\343\002\271\245c\241\243<\343\002bq\211"
 447      772369E3 
 447      02B9A563 
 447      A1A33CE3 
 447      02627189 
 448 164f 0F8A444A 		.ascii	"\017\212DJ\304\010|G\362\340\333?.\\,\206\306N\002\224"
 448      C4087C47 
 448      F2E0DB3F 
 448      2E5C2C86 
 448      C64E0294 
ARM GAS  /tmp/ccj5wzVV.s 			page 36


 449 1663 710139EB 		.ascii	"q\0019\353\035\007B\011\277\344\015!fFq\251\250k\326"
 449      1D074209 
 449      BFE40D21 
 449      664671A9 
 449      A86BD6
 450 1676 5B8C192E 		.ascii	"[\214\031.\224\313\025\347\232\371/\260\226\254\221"
 450      94CB15E7 
 450      9AF92FB0 
 450      96AC91
 451 1685 4FE68CCE 		.ascii	"O\346\214\316\311\312\031\003\177O\016\037\366\317C"
 451      C9CA1903 
 451      7F4F0E1F 
 451      F6CF43
 452 1694 274E04F7 		.ascii	"'N\004\367Y4|\330\330\241C\206L\314%\254<\233\363H\366"
 452      59347CD8 
 452      D8A14386 
 452      4CCC25AC 
 452      3C9BF348 
 453 16a9 98C018F0 		.ascii	"\230\300\030\360D\243\204\261\\N67*\333\365hv\266kd"
 453      44A384B1 
 453      5C4E3637 
 453      2ADBF568 
 453      76B66B64 
 454 16bd F650B886 		.ascii	"\366P\270\206\3015\334\375\330\230g\262=\245Q>\"z#\023"
 454      C135DCFD 
 454      D89867B2 
 454      3DA5513E 
 454      227A2313 
 455 16d1 493F3E60 		.ascii	"I?>`\024\223lL\330H\326\023O\214\312B\324\361CucE\240"
 455      14936C4C 
 455      D848D613 
 455      4F8CCA42 
 455      D4F14375 
 456 16e8 B0907806 		.ascii	"\260\220x\006O\264D\020\362\\\301\310P\270\206\3015"
 456      4FB44410 
 456      F25CC1C8 
 456      50B886C1 
 456      35
 457 16f9 5C194146 		.ascii	"\\\031AF\026\207\307\206\240\227\371Pxp\220\361\215"
 457      1687C786 
 457      A097F950 
 457      787090F1 
 457      8D
 458 170a 41A518E6 		.ascii	"A\245\030\346\342#\371J~\350\337Z*\241\242A\000\337"
 458      E223F94A 
 458      7EE8DF5A 
 458      2AA1A241 
 458      00DF
 459 171c 275830A6 		.ascii	"'X0\246 /\247P\020J\006j\305E!*\342\360C\224\015\362"
 459      202FA750 
 459      104A066A 
 459      C545212A 
 459      E2F04394 
 460 1732 50EE9709 		.ascii	"P\356\227\011\0077\260<\276\210\300\335\364(Xi\216\000"
 460      0737B03C 
 460      BE88C0DD 
 460      F4285869 
ARM GAS  /tmp/ccj5wzVV.s 			page 37


 460      8E00
 461 1744 820E8B40 		.ascii	"\202\016\213@c\016>\370\251\331M\030\346\322\011v@\230"
 461      630E3EF8 
 461      A9D94D18 
 461      E6D20976 
 461      4098
 462 1756 28044B89 		.ascii	"(\004K\211-\217-\015\007\003\342\000$h$\024\021\205"
 462      2D8F2D0D 
 462      0703E200 
 462      24682414 
 462      1185
 463 1768 1C50BF50 		.ascii	"\034P\277P\320\027\315\203LDL`\215\223pP\010\026\344"
 463      D017CD83 
 463      4C444C60 
 463      8D937050 
 463      0816E4
 464 177b 4C8A8E0E 		.ascii	"L\212\216\016\207\304\277I@,\031\006\341\213\024s\345"
 464      87C4BF49 
 464      402C1906 
 464      E18B1473 
 464      E5
 465 178c 8C1AEA9F 		.ascii	"\214\032\352\237\300+\222\323rC\373\022\037\000\003"
 465      C02B92D3 
 465      7243FB12 
 465      1F0003
 466 179b 8C5024FB 		.ascii	"\214P$\373p9\237N\236MR\314\360\006\270\035\377\355"
 466      70399F4E 
 466      9E4D52CC 
 466      F006B81D 
 466      FFED
 467 17ad 0B9646C0 		.ascii	"\013\226F\300\233\3008C~\335<>\024\021KA,d\204\212\250"
 467      9BC03843 
 467      7EDD3C3E 
 467      14114B41 
 467      2C64848A 
 468 17c2 867B0BD4 		.ascii	"\206{\013\3240y\320\217\272';~\352\226"
 468      3079D08F 
 468      BA273B7E 
 468      EA96
 469 17d0 274F2814 		.ascii	"'O(\024\371\264\361\212x\334\344\313U\302G\322\012\371"
 469      F9B4F18A 
 469      78DCE4CB 
 469      55C247D2 
 469      0AF9
 470 17e2 A8484A78 		.ascii	"\250HJx\307\213\004(C\2418O\310-\315\227\375\204\376"
 470      C78B0428 
 470      43A1384F 
 470      C82DCD97 
 470      FD84FE
 471 17f5 8EBF840F 		.ascii	"\216\277\204\017\207\202\001\360\022\256\274\334\374"
 471      878201F0 
 471      12AEBCDC 
 471      FC
 472 1802 3E446B64 		.ascii	">Dkd%\340\202\005\351\217=3\372iU\243A\177\237\200\353"
 472      25E08205 
 472      E98F3D33 
 472      FA6955A3 
ARM GAS  /tmp/ccj5wzVV.s 			page 38


 472      417F9F80 
 473 1817 71D768D0 		.ascii	"q\327h\320\353\247Ge\273\037\315\311\316v?1\362\267"
 473      EBA74765 
 473      BB1FCDC9 
 473      CE763F31 
 473      F2B7
 474 1829 D9D62333 		.ascii	"\331\326#3\270\177\240 2\011d{c\260 [\310\317\021DY"
 474      B87FA020 
 474      3209647B 
 474      63B0205B 
 474      C8CF1144 
 475 183e 964F816B 		.ascii	"\226O\201k\377\177\230\257Y\275"
 475      FF7F98AF 
 475      59BD
 476              		.text
 477              		.section	.gnu.lto_.symtab.19f1acc143f56601,"",%progbits
 478 0000 6D61696E 		.ascii	"main\000\000\000\000\000\000\000\000\000\000\000\000"
 478      00000000 
 478      00000000 
 478      00000000 
 479 0010 37020000 		.ascii	"7\002\000\000ch\000\000\002\000\000\000\000\000\000"
 479      63680000 
 479      02000000 
 479      000000
 480 001f 0000006D 		.ascii	"\000\000\000m\002\000\000SD1\000\000\002\000\000\000"
 480      02000053 
 480      44310000 
 480      02000000 
 481 002f 00000000 		.ascii	"\000\000\000\000\000\000g\002\000\000chThdSleep\000"
 481      00006702 
 481      00006368 
 481      54686453 
 481      6C656570 
 482 0044 00020000 		.ascii	"\000\002\000\000\000\000\000\000\000\000\000:\002\000"
 482      00000000 
 482      0000003A 
 482      0200
 483 0052 00746573 		.ascii	"\000test_execute\000\000\002\000\000\000\000\000\000"
 483      745F6578 
 483      65637574 
 483      65000002 
 483      00000000 
 484 0068 0000003E 		.ascii	"\000\000\000>\002\000\000chThdCreateStatic\000\000\002"
 484      02000063 
 484      68546864 
 484      43726561 
 484      74655374 
 485 0083 00000000 		.ascii	"\000\000\000\000\000\000\000\000\000R\002\000\000sd"
 485      00000000 
 485      00520200 
 485      007364
 486 0092 53746172 		.ascii	"Start\000\000\002\000\000\000\000\000\000\000\000\000"
 486      74000002 
 486      00000000 
 486      00000000 
 486      00
 487 00a3 5D020000 		.ascii	"]\002\000\000chSysInit\000\000\002\000\000\000\000\000"
ARM GAS  /tmp/ccj5wzVV.s 			page 39


 487      63685379 
 487      73496E69 
 487      74000002 
 487      00000000 
 488 00b8 00000000 		.ascii	"\000\000\000\000b\002\000\000halInit\000\000\002\000"
 488      62020000 
 488      68616C49 
 488      6E697400 
 488      000200
 489 00cb 00000000 		.ascii	"\000\000\000\000\000\000\000\000e\002\000\000"
 489      00000000 
 489      65020000 
 490              		.text
 491              		.section	.gnu.lto_.opts,"",%progbits
 492 0000 272D6D63 		.ascii	"'-mcpu=cortex-m3' '-mno-thumb-interwork' '-mthumb' "
 492      70753D63 
 492      6F727465 
 492      782D6D33 
 492      2720272D 
 493 0033 272D6767 		.ascii	"'-ggdb' '-O2' '-fomit-frame-pointer' '-falign-funct"
 493      64622720 
 493      272D4F32 
 493      2720272D 
 493      666F6D69 
 494 0066 696F6E73 		.ascii	"ions=16' '-ffunction-sections' '-fdata-sections' '-"
 494      3D313627 
 494      20272D66 
 494      66756E63 
 494      74696F6E 
 495 0099 666E6F2D 		.ascii	"fno-common' '-flto'\000"
 495      636F6D6D 
 495      6F6E2720 
 495      272D666C 
 495      746F2700 
 496              		.text
 497              		.cfi_sections	.debug_frame
 498              		.section	.text.Thread2,"ax",%progbits
 499              		.align	2
 500              		.p2align 4,,15
 501              		.thumb
 502              		.thumb_func
 503              		.type	Thread2, %function
 504              	Thread2:
 505              	.LFB220:
 506              		.file 1 "main.c"
 507              		.loc 1 42 0
 508              		.cfi_startproc
 509              		@ Volatile: function does not return.
 510              		@ args = 0, pretend = 0, frame = 0
 511              		@ frame_needed = 0, uses_anonymous_args = 0
 512              	.LVL0:
 513 0000 08B5     		push	{r3, lr}
 514              		.cfi_def_cfa_offset 8
 515              		.cfi_offset 3, -8
 516              		.cfi_offset 14, -4
 517              	.LBB6:
 518              	.LBB7:
ARM GAS  /tmp/ccj5wzVV.s 			page 40


 519              		.file 2 "../../../os/rt/include/chregistry.h"
 520              		.loc 2 136 0
 521 0002 40F20003 		movw	r3, #:lower16:ch
 522 0006 C0F20003 		movt	r3, #:upper16:ch
 523 000a 9A69     		ldr	r2, [r3, #24]
 524 000c 40F20003 		movw	r3, #:lower16:.LC0
 525 0010 C0F20003 		movt	r3, #:upper16:.LC0
 526              	.LBE7:
 527              	.LBE6:
 528              		.loc 1 48 0
 529 0014 4FF48054 		mov	r4, #4096
 530 0018 4FF40075 		mov	r5, #512
 531              	.LBB9:
 532              	.LBB8:
 533              		.loc 2 136 0
 534 001c 9361     		str	r3, [r2, #24]
 535              	.LBE8:
 536              	.LBE9:
 537              		.loc 1 48 0
 538 001e C4F20104 		movt	r4, 16385
 539 0022 2E46     		mov	r6, r5
 540              	.LVL1:
 541              	.L2:
 542              		.loc 1 48 0 is_stmt 0 discriminator 1
 543 0024 2661     		str	r6, [r4, #16]
 544              		.loc 1 49 0 is_stmt 1 discriminator 1
 545 0026 4FF4FA70 		mov	r0, #500
 546 002a FFF7FEFF 		bl	chThdSleep
 547              	.LVL2:
 548              		.loc 1 50 0 discriminator 1
 549 002e 6561     		str	r5, [r4, #20]
 550              		.loc 1 51 0 discriminator 1
 551 0030 4FF4FA70 		mov	r0, #500
 552 0034 FFF7FEFF 		bl	chThdSleep
 553              	.LVL3:
 554 0038 F4E7     		b	.L2
 555              		.cfi_endproc
 556              	.LFE220:
 557              		.size	Thread2, .-Thread2
 558 003a 00BFAFF3 		.section	.text.Thread1,"ax",%progbits
 558      0080
 559              		.align	2
 560              		.p2align 4,,15
 561              		.thumb
 562              		.thumb_func
 563              		.type	Thread1, %function
 564              	Thread1:
 565              	.LFB219:
 566              		.loc 1 25 0
 567              		.cfi_startproc
 568              		@ Volatile: function does not return.
 569              		@ args = 0, pretend = 0, frame = 0
 570              		@ frame_needed = 0, uses_anonymous_args = 0
 571              	.LVL4:
 572 0000 08B5     		push	{r3, lr}
 573              		.cfi_def_cfa_offset 8
 574              		.cfi_offset 3, -8
ARM GAS  /tmp/ccj5wzVV.s 			page 41


 575              		.cfi_offset 14, -4
 576              	.LBB10:
 577              	.LBB11:
 578              		.loc 2 136 0
 579 0002 40F20003 		movw	r3, #:lower16:ch
 580 0006 C0F20003 		movt	r3, #:upper16:ch
 581 000a 9A69     		ldr	r2, [r3, #24]
 582 000c 40F20003 		movw	r3, #:lower16:.LC0
 583 0010 C0F20003 		movt	r3, #:upper16:.LC0
 584              	.LBE11:
 585              	.LBE10:
 586              		.loc 1 31 0
 587 0014 4FF48054 		mov	r4, #4096
 588 0018 4FF48075 		mov	r5, #256
 589              	.LBB13:
 590              	.LBB12:
 591              		.loc 2 136 0
 592 001c 9361     		str	r3, [r2, #24]
 593              	.LBE12:
 594              	.LBE13:
 595              		.loc 1 31 0
 596 001e C4F20104 		movt	r4, 16385
 597 0022 2E46     		mov	r6, r5
 598              	.LVL5:
 599              	.L5:
 600              		.loc 1 31 0 is_stmt 0 discriminator 1
 601 0024 2661     		str	r6, [r4, #16]
 602              		.loc 1 32 0 is_stmt 1 discriminator 1
 603 0026 FA20     		movs	r0, #250
 604 0028 FFF7FEFF 		bl	chThdSleep
 605              	.LVL6:
 606              		.loc 1 33 0 discriminator 1
 607 002c 6561     		str	r5, [r4, #20]
 608              		.loc 1 34 0 discriminator 1
 609 002e FA20     		movs	r0, #250
 610 0030 FFF7FEFF 		bl	chThdSleep
 611              	.LVL7:
 612 0034 F6E7     		b	.L5
 613              		.cfi_endproc
 614              	.LFE219:
 615              		.size	Thread1, .-Thread1
 616 0036 00BFAFF3 		.section	.text.startup.main,"ax",%progbits
 616      0080AFF3 
 616      0080
 617              		.align	2
 618              		.p2align 4,,15
 619              		.global	main
 620              		.thumb
 621              		.thumb_func
 622              		.type	main, %function
 623              	main:
 624              	.LFB221:
 625              		.loc 1 58 0
 626              		.cfi_startproc
 627              		@ Volatile: function does not return.
 628              		@ args = 0, pretend = 0, frame = 0
 629              		@ frame_needed = 0, uses_anonymous_args = 0
ARM GAS  /tmp/ccj5wzVV.s 			page 42


 630 0000 00B5     		push	{lr}
 631              		.cfi_def_cfa_offset 4
 632              		.cfi_offset 14, -4
 633 0002 83B0     		sub	sp, sp, #12
 634              		.cfi_def_cfa_offset 16
 635              		.loc 1 67 0
 636 0004 FFF7FEFF 		bl	halInit
 637              	.LVL8:
 638              		.loc 1 68 0
 639 0008 FFF7FEFF 		bl	chSysInit
 640              	.LVL9:
 641              		.loc 1 74 0
 642 000c 40F20000 		movw	r0, #:lower16:SD1
 643 0010 C0F20000 		movt	r0, #:upper16:SD1
 644 0014 0021     		movs	r1, #0
 645 0016 FFF7FEFF 		bl	sdStart
 646              	.LVL10:
 647              		.loc 1 79 0
 648 001a 0024     		movs	r4, #0
 649 001c 40F20000 		movw	r0, #:lower16:.LANCHOR0
 650 0020 40F20003 		movw	r3, #:lower16:Thread1
 651 0024 0094     		str	r4, [sp]
 652 0026 C0F20003 		movt	r3, #:upper16:Thread1
 653 002a 4FF4A471 		mov	r1, #328
 654 002e 8122     		movs	r2, #129
 655 0030 C0F20000 		movt	r0, #:upper16:.LANCHOR0
 656 0034 FFF7FEFF 		bl	chThdCreateStatic
 657              	.LVL11:
 658              		.loc 1 80 0
 659 0038 40F20000 		movw	r0, #:lower16:.LANCHOR1
 660 003c 40F20003 		movw	r3, #:lower16:Thread2
 661 0040 0094     		str	r4, [sp]
 662 0042 C0F20000 		movt	r0, #:upper16:.LANCHOR1
 663 0046 C0F20003 		movt	r3, #:upper16:Thread2
 664 004a 4FF4A471 		mov	r1, #328
 665 004e 8122     		movs	r2, #129
 666              		.loc 1 88 0
 667 0050 4FF40064 		mov	r4, #2048
 668              		.loc 1 80 0
 669 0054 FFF7FEFF 		bl	chThdCreateStatic
 670              	.LVL12:
 671              		.loc 1 88 0
 672 0058 C4F20104 		movt	r4, 16385
 673 005c 03E0     		b	.L8
 674              	.L7:
 675              		.loc 1 90 0
 676 005e 4FF4FA70 		mov	r0, #500
 677 0062 FFF7FEFF 		bl	chThdSleep
 678              	.LVL13:
 679              	.L8:
 680              		.loc 1 88 0
 681 0066 A368     		ldr	r3, [r4, #8]
 682 0068 DB07     		lsls	r3, r3, #31
 683 006a F8D5     		bpl	.L7
 684              		.loc 1 89 0
 685 006c 40F20000 		movw	r0, #:lower16:SD1
 686 0070 C0F20000 		movt	r0, #:upper16:SD1
ARM GAS  /tmp/ccj5wzVV.s 			page 43


 687 0074 FFF7FEFF 		bl	test_execute
 688              	.LVL14:
 689 0078 F1E7     		b	.L7
 690              		.cfi_endproc
 691              	.LFE221:
 692              		.size	main, .-main
 693 007a 00BFAFF3 		.section	.bss.waThread1,"aw",%nobits
 693      0080
 694              		.align	3
 695              		.set	.LANCHOR0,. + 0
 696              		.type	waThread1, %object
 697              		.size	waThread1, 328
 698              	waThread1:
 699 0000 00000000 		.space	328
 699      00000000 
 699      00000000 
 699      00000000 
 699      00000000 
 700              		.section	.bss.waThread2,"aw",%nobits
 701              		.align	3
 702              		.set	.LANCHOR1,. + 0
 703              		.type	waThread2, %object
 704              		.size	waThread2, 328
 705              	waThread2:
 706 0000 00000000 		.space	328
 706      00000000 
 706      00000000 
 706      00000000 
 706      00000000 
 707              		.section	.rodata.str1.4,"aMS",%progbits,1
 708              		.align	2
 709              	.LC0:
 710 0000 626C696E 		.ascii	"blinker\000"
 710      6B657200 
 711              		.text
 712              	.Letext0:
 713              		.file 3 "/usr/lib/gcc/arm-none-eabi/4.8.2/include/stddef.h"
 714              		.file 4 "/usr/include/newlib/machine/_default_types.h"
 715              		.file 5 "/usr/include/newlib/stdint.h"
 716              		.file 6 "../../../os/common/ports/ARMCMx/compilers/GCC/chtypes.h"
 717              		.file 7 "../../../os/rt/include/chsystypes.h"
 718              		.file 8 "../../../os/rt/include/chschd.h"
 719              		.file 9 "../../../os/common/ext/CMSIS/ST/STM32F1xx/stm32f100xb.h"
 720              		.file 10 "../../../os/common/ports/ARMCMx/chcore.h"
 721              		.file 11 "../../../os/common/ports/ARMCMx/chcore_v7m.h"
 722              		.file 12 "../../../os/rt/include/chsem.h"
 723              		.file 13 "../../../os/rt/include/chmtx.h"
 724              		.file 14 "../../../os/rt/include/chthreads.h"
 725              		.file 15 "../../../os/rt/include/chevents.h"
 726              		.file 16 "../../../os/hal/include/hal_streams.h"
 727              		.file 17 "../../../os/hal/include/hal_queues.h"
 728              		.file 18 "../../../os/hal/ports/STM32/LLD/GPIOv1/hal_pal_lld.h"
 729              		.file 19 "../../../os/hal/include/hal_serial.h"
 730              		.file 20 "../../../os/hal/ports/STM32/LLD/USARTv1/hal_serial_lld.h"
 731              		.file 21 "../../../os/hal/include/hal.h"
 732              		.file 22 "../../../os/rt/include/chsys.h"
 733              		.file 23 "../../../test/lib/ch_test.h"
ARM GAS  /tmp/ccj5wzVV.s 			page 44


 734              		.file 24 "../../../os/common/ext/CMSIS/include/core_cm3.h"