ARM GAS  /tmp/ccj5wzVV.s 			page 1


   1              		.syntax unified
   2              		.cpu cortex-m3
   3              		.fpu softvfp
   4              		.eabi_attribute 20, 1
   5              		.eabi_attribute 21, 1
   6              		.eabi_attribute 23, 3
   7              		.eabi_attribute 24, 1
   8              		.eabi_attribute 25, 1
   9              		.eabi_attribute 26, 1
  10              		.eabi_attribute 30, 2
  11              		.eabi_attribute 34, 1
  12              		.eabi_attribute 18, 4
  13              		.thumb
  14              		.file	"main.c"
  15              		.text
  16              	.Ltext0:
  17              		.section	.gnu.lto_.jmpfuncs.19f1acc143f56601,"",%progbits
  18 0000 789C6362 		.ascii	"x\234cb`b\300\006\276@if\006\006F\246\010\306LF\206"
  18      6062C006 
  18      BE406966 
  18      060646A6 
  18      08C64C46 
  19 0015 2FA84C26 		.ascii	"/\250L&\030\347\027#\0032\223\031U}5\303\257\206\216"
  19      18E71723 
  19      03329319 
  19      557D35C3 
  19      AF868E
  20 0028 06814C46 		.ascii	"\006\201LF\306\\F\260\201\254\010!\246\\F\260\030X="
  20      C65C46B0 
  20      81AC0821 
  20      A65C46B0 
  20      18583D
  21 003b F3092628 		.ascii	"\363\011&(\213\245\021(\212P\305\232\014\321\010\226"
  21      8BA51128 
  21      8A50C59A 
  21      0CD10896 
  22 004b 63C33081 		.ascii	"c\3030\201\211(\023\030QL`\302t\026X\216\035\342g\000"
  22      89281318 
  22      514C60C2 
  22      7416588E 
  22      1DE26700 
  23 005f 79A2294D 		.ascii	"y\242)M"
  24              		.text
  25              		.section	.gnu.lto_.inline.19f1acc143f56601,"",%progbits
  26 0000 789C6362 		.ascii	"x\234cb`b\300\006\332\24143\003\003\327#!F\006&\216"
  26      6062C006 
  26      DAA13433 
  26      0303D723 
  26      21460626 
  27 0015 05572418 		.ascii	"\005W$\030X \252\231\270\031\031\030a$\001yf\006\351"
  27      5820AA99 
  27      B8191918 
  27      61240179 
  27      6606E9
  28 0028 672220F9 		.ascii	"g\" \371\206W\006\330\344\331\370\031\030X\301V!X\314"
  28      865706D8 
  28      E4D9F819 
ARM GAS  /tmp/ccj5wzVV.s 			page 2


  28      1858C156 
  28      2158CC
  29 003b 3C0C2085 		.ascii	"<\014 \205\214\\\014P\202\001\000d@\011?"
  29      8C5C0C50 
  29      82010064 
  29      40093F
  30              		.text
  31              		.section	.gnu.lto_.pureconst.19f1acc143f56601,"",%progbits
  32 0000 789C6362 		.ascii	"x\234cb`b`g\200\000f\0063&3f3\000\002\315\000\266"
  32      60626067 
  32      80006606 
  32      33263366 
  32      330002CD 
  33              		.text
  34              		.section	.gnu.lto_Thread2.19f1acc143f56601,"",%progbits
  35 0000 789C9552 		.ascii	"x\234\225ROK\033A\024\177of\3245\376\211\267B\013\""
  35      4F4B1B41 
  35      147F6F66 
  35      D435FE89 
  35      B7420B22 
  36 0014 E24D4CBE 		.ascii	"\342ML\276\200\207\372\035\"\265\307\3156$\203I\204"
  36      8087FA1D 
  36      22B5C7CD 
  36      36248349 
  36      84
  37 0025 A814F1E0 		.ascii	"\250\024\361\340\213\344 \010\022\244\320P[H\012m\241"
  37      8BE42008 
  37      12A4D050 
  37      5B480A6D 
  37      A1
  38 0036 D0064A85 		.ascii	"\320\006J\205\364P\010B!Em={\212~\202\026<\365\022\337"
  38      F4500842 
  38      21456D3D 
  38      7B8A7E82 
  38      163CF512 
  39 004b CCAC2B8A 		.ascii	"\314\254+\212\007;\354\316\274y3\357\367gf\004\010\270"
  39      073BECCE 
  39      BC7933EF 
  39      F7676604 
  39      08B8
  40 005d DD66F87F 		.ascii	"\335f\370\177\316\351Y\036\261\017PT\177\001\224=\201"
  40      CEE9591E 
  40      B10F5054 
  40      7F01943D 
  40      81
  41 006e D2051295 		.ascii	"\322\005\022\225\013\224\313\314!l\010\251p\343)\332"
  41      0B94CBCC 
  41      216C08A9 
  41      70E329DA 
  42 007e FAA66877 		.ascii	"\372\246hw{\275\317_?\235\0270\346\201\266\331>\250"
  42      7BBDCF5F 
  42      3F9D1730 
  42      E681B6D9 
  42      3EA8
  43 0090 10552700 		.ascii	"\020U'\000\002;Mq\2170\217\002P\376\204M\017`\022\032"
  43      023B4D71 
  43      8F308F02 
ARM GAS  /tmp/ccj5wzVV.s 			page 3


  43      50FE844D 
  43      0F60121A 
  44 00a4 44BBEDFD 		.ascii	"D\273\355\375\263\016\322.\225\377\364zq\215\274\036"
  44      B30ED22E 
  44      95FFF47A 
  44      718DBC1E 
  45 00b4 4353B280 		.ascii	"CS\262\200\032\305\204\035\244\272)w\035\376Q\215\332"
  45      1AC5841D 
  45      A4BA2977 
  45      1DFE518D 
  45      DA
  46 00c5 DFBFF19A 		.ascii	"\337\277\361\232\032\207\370\033\252=\326\254\333\307"
  46      1A87F81B 
  46      AA3DD6AC 
  46      DBC7
  47 00d3 06F7DC8E 		.ascii	"\006\367\334\216a\363\364\365\316\321\027\031ipA{\273"
  47      61F3F4F5 
  47      CED11719 
  47      6970417B 
  47      BB
  48 00e4 39E3E35B 		.ascii	"9\343\343[\234\344=ns\200V\\\026\275i\370HD\335\277"
  48      9CE43D6E 
  48      7380565C 
  48      16BD69F8 
  48      4844DDBF 
  49 00f8 DD178F58 		.ascii	"\335\027\217X\277\233\321\220\306\376=xU&\032\3238`"
  49      BF9BD190 
  49      C6FE3D78 
  49      55261AD3 
  49      3860
  50 010a 78B74CE4 		.ascii	"x\267L\344\025l\225\321\346YEi\264\210\037\014}\332"
  50      156C95D1 
  50      E6594569 
  50      B4881F0C 
  50      7DDA
  51 011c 4086B195 		.ascii	"@\206\261\225rx2\352\343{\236\206\240O\330e\004:\310"
  51      727832EA 
  51      E37B9E86 
  51      A04FD865 
  51      043AC8
  52 012f D4060742 		.ascii	"\324\006\007B\034\021\325:\227\335\037/\037\260K\037"
  52      1C11D53A 
  52      97DD1F2F 
  52      1FB04B1F 
  53 013f DFE1F8B5 		.ascii	"\337\341\370\265A\323\346Q\002_\206<\206\203V\355T\270"
  53      41D3E651 
  53      025F863C 
  53      868356ED 
  53      54B8
  54 0151 35435161 		.ascii	"5CQa\270\030\023\3600d\240\207\251^!e\325\016\207,\022"
  54      B81813F0 
  54      3064A087 
  54      A95E2165 
  54      D50E872C 
  55 0166 AEF48F90 		.ascii	"\256\364\217\2209\334\337P\251\353+\364\310\346h\200"
  55      39DCDF50 
  55      A9EB2BF4 
ARM GAS  /tmp/ccj5wzVV.s 			page 4


  55      C8E66880 
  56 0176 22DA18BF 		.ascii	"\"\332\030\277\220|\261c\306\321A\253\363\360\277\350"
  56      907CB163 
  56      C6D141AB 
  56      F3F0BFE8 
  57 0186 D41D748B 		.ascii	"\324\035t\213\367\244soG\031\253\230\302\360\234\006"
  57      F7A4736F 
  57      4719AB98 
  57      C2F09C06 
  58 0196 0ABE2E26 		.ascii	"\012\276.&\002PE\277\220\361\322y]\\\314\224`*\221H"
  58      025045BF 
  58      90F1D279 
  58      5D5CCC94 
  58      602A9148 
  59 01aa BA6F6939 		.ascii	"\272oi9YZI\352b\220_}\226I\006\271R&\253\227WJk\211"
  59      595A49EA 
  59      62905F7D 
  59      964906B9 
  59      5226AB97 
  60 01c2 1C5C02F8 		.ascii	"\034\\\002\370\005\252u"
  60      05AA75
  61              		.text
  62              		.section	.gnu.lto_Thread1.19f1acc143f56601,"",%progbits
  63 0000 789C9552 		.ascii	"x\234\225ROK\033A\024\177of\324m\264&x\361P\020\011"
  63      4F4B1B41 
  63      147F6F66 
  63      D46DB426 
  63      78F15010 
  64 0015 BD89C917 		.ascii	"\275\211\311\027\350AoRz4X\217\233m\320\241&\205h\021"
  64      E8416F52 
  64      7A34588F 
  64      9B6DD0A1 
  64      26856811 
  65 0029 F1E08BE4 		.ascii	"\361\340\213\344\340\251\015\342Al\225\244\240\226R"
  65      E0A90DE2 
  65      416C95A4 
  65      A09652
  66 0038 147ACA31 		.ascii	"\024z\3121xj\261\251=\367\264\364\023\330\366\"zH\337"
  66      786AB1A9 
  66      3DF7B4F4 
  66      13D8F622 
  66      7A48DF
  67 004b CCAC2B8A 		.ascii	"\314\254+\212\007\035vg\336\274\231\367\37333\002\004"
  67      071D7667 
  67      DEBC99F7 
  67      FB333302 
  67      04
  68 005c DC6CA3FC 		.ascii	"\334l\243\374/r\372\011\217\330\005(j?\000*\236@\351"
  68      2F72FA09 
  68      8FD80528 
  68      6A3F002A 
  68      9E40E9
  69 006f 0289CA05 		.ascii	"\002\211\312\005\312e\306\021V\204T\2702\215\266\376"
  69      CA65C611 
  69      568454B8 
  69      328DB6FE 
  70 007f 50B4C24E 		.ascii	"P\264\302N\347\340\357\347\337\3170\341\201\266\331"
ARM GAS  /tmp/ccj5wzVV.s 			page 5


  70      E7E0EFE7 
  70      DFCF30E1 
  70      81B6D9
  71 008e 2EA812D5 		.ascii	".\250\022\325\206\001\002;\235\344\036!\207\002P~\203"
  71      8601023B 
  71      9DE41E21 
  71      8702507E 
  71      83
  72 009f 550F200D 		.ascii	"U\017 \015\015\242\365\326\277\360+\322:UN;\235\244"
  72      0DA2F5D6 
  72      BFF02BD2 
  72      3A554E3B 
  72      9DA4
  73 00b1 465E4FA0 		.ascii	"F^O\240)y\216\032\305\260\035\244\272.w\031\316i\223"
  73      29798E1A 
  73      C5B01DA4 
  73      BA2E7719 
  73      CE6993
  74 00c4 5A174D5E 		.ascii	"Z\027M^SC\220\334\246\3151\315\272}lp\317\255\015\253"
  74      534390DC 
  74      A6CD31CD 
  74      BA7D6C70 
  74      CFAD0DAB 
  75 00d8 BFDEBFF9 		.ascii	"\277\336\277\371\376E\306\032\\\320:\336\031\365\361"
  75      FE45C61A 
  75      5CD03ADE 
  75      19F5F1
  76 00e7 03A6798F 		.ascii	"\003\246y\217\333\034\240\0257\203\336\010|\"\242\360"
  76      DB1CA015 
  76      3783DE08 
  76      7C22A2F0 
  77 00f7 4FB8F188 		.ascii	"O\270\361\210\365\273\031\365j\354~\007[\025\242\224"
  77      F5BB19F5 
  77      6AEC7E07 
  77      5B15A294 
  78 0107 C61EC3BB 		.ascii	"\306\036\303\273f\"\257h\253\2146\317*\312\243E\334"
  78      6622AF68 
  78      AB8C36CF 
  78      2ACAA345 
  78      DC
  79 0118 37F47903 		.ascii	"7\364y\003\031\305V\312\361\317~\037\367x\032\201N\261"
  79      19C556CA 
  79      F1CF7E1F 
  79      F7781A81 
  79      4EB1
  80 012a CB18F401 		.ascii	"\313\030\364\001S\033\034\210pD\\\353\\\206\273o\007"
  80      531B1C88 
  80      70445CEB 
  80      5C86BB6F 
  80      07
  81 013b D9A58FBB 		.ascii	"\331\245\217\2738te\320\264\034J\340\313\220m8j\236"
  81      387465D0 
  81      B41C4AE0 
  81      CB906D38 
  81      6A9E
  82 014d 9D08B766 		.ascii	"\235\010\267f(\252\014\227`\002\036z\015t\037\325\253"
  82      28AA0C97 
ARM GAS  /tmp/ccj5wzVV.s 			page 6


  82      60021E7A 
  82      0D741FD5 
  82      AB
  83 015e A4ACDABE 		.ascii	"\244\254\332\276\210E\302\245\376\207d\236\303\011T"
  83      8845C2A5 
  83      FE87649E 
  83      C30954
  84 016d EB1397E8 		.ascii	"\353\023\227\350\261\315\376\000E\2741y\216|\261)\343"
  84      B1CDFE00 
  84      45BC3179 
  84      8E7CB129 
  84      E3
  85 017e E8A8F971 		.ascii	"\350\250\371q\340^t\352\026\272\247w\244soG\031\253"
  85      E05E74EA 
  85      16BAA777 
  85      A4736F47 
  85      19AB
  86 0190 3889D139 		.ascii	"8\211\3219\365\024}]\312\004\240J~\261\340\345\347t"
  86      F5147D5D 
  86      CA04A04A 
  86      7EB1E0E5 
  86      E774
  87 01a2 E965A10C 		.ascii	"\351e\241\014\2173\231\254\373^\315g\313\013Y]\012\346"
  87      8F3399AC 
  87      FB5ECD67 
  87      CB0B595D 
  87      0AE6
  88 01b4 5EBF2864 		.ascii	"^\277(d\203\331raF\317/\224\2272\263\360\037\242\221"
  88      83D97261 
  88      46CF2F94 
  88      9732B3F0 
  88      1FA291
  89 01c7 AB01     		.ascii	"\253\001"
  90              		.text
  91              		.section	.gnu.lto_main.19f1acc143f56601,"",%progbits
  92 0000 789C8D52 		.ascii	"x\234\215R=O\002A\020\235\267{\007\307\371\001\250\241"
  92      3D4F0241 
  92      109DB77B 
  92      07C7F901 
  92      A8A1
  93 0012 B63731B1 		.ascii	"\26671\2610V\376\013I$Vz\205\331\002\377\200\005K8\023"
  93      3056FE0B 
  93      4924567A 
  93      85D902FF 
  93      80054B38 
  94 0027 122D2809 		.ascii	"\022-(\011V\306\330X\250\211\025J\341GC\2436TV\030["
  94      56C6D858 
  94      A889154A 
  94      E14743A3 
  94      36545618 
  95 003c 6345654C 		.ascii	"cEeLpv\017\310)\024Nr;w3\357\275\231\271YA\202\376\332"
  95      70760FC8 
  95      29144E72 
  95      3B7733EF 
  95      BD99B959 
  96 0054 3A3F671C 		.ascii	":?g\034N\261G\202 j\317DeO@F/R8\235\034i\337m\255\221"
  96      4EB14782 
ARM GAS  /tmp/ccj5wzVV.s 			page 7


  96      206ACF44 
  96      654F4046 
  96      2F52389D 
  97 006e 9E76E046 		.ascii	"\236v\340Fa7\312\337{\240\222\220\216\213R\001V\357"
  97      6137CADF 
  97      7BA09290 
  97      8E8B5201 
  97      56EF
  98 0080 52DC75FB 		.ascii	"R\334u\373\375\213\336\311[\013\331\231\024)\220o\016"
  98      FD8BDEC9 
  98      5B0BD999 
  98      1429906F 
  98      0E
  99 0091 369742AD 		.ascii	"6\227B\255k\213D\201\375\334\340\023\224\207 \310\027"
  99      6B8B4481 
  99      FDDCE013 
  99      948720C8 
  99      17
 100 00a2 AA740F1F 		.ascii	"\252t\017\037\023\3338\201\313\251}\372\322U\235Q@\200"
 100      13DB3881 
 100      CBA97DFA 
 100      D2559D51 
 100      4080
 101 00b4 4856318C 		.ascii	"HV1\214\014\352\250\222\234\204\022q\324A\2671AK\006"
 101      0CEAA892 
 101      9C841271 
 101      D441B731 
 101      414B06
 102 00c7 90166522 		.ascii	"\220\026e\"\236\202S\004\015@\233P\306)\376\001L\257"
 102      9E825304 
 102      0D409B50 
 102      C629FE01 
 102      4CAF
 103 00d9 EBEFEB2B 		.ascii	"\353\357\353+\214\361\223\001\234\021\277\252\365\226"
 103      8CF19301 
 103      9C11BFAA 
 103      F596
 104 00e7 82570462 		.ascii	"\202W\004b\022\251\266\260\236\312\030\202\012\012~"
 104      12A9B6B0 
 104      9ECA1882 
 104      0A0A7E
 105 00f6 0037069A 		.ascii	"\0007\006\2322u\246\243:\341\352?\253\210\377TIL\250"
 105      3275A6A3 
 105      3AE1EA3F 
 105      AB88FF54 
 105      494CA8
 106 0109 622CCF73 		.ascii	"b,\317s\363\262\344\023=\274\326?\333\203\216w\221Z"
 106      F3B2E413 
 106      3DBCD63F 
 106      DB838E77 
 106      915A
 107 011b A2731D32 		.ascii	"\242s\0352x\346\230\032\354f\0151\255k\241v\254F\332"
 107      78E6981A 
 107      EC660D31 
 107      AD6BA176 
 107      AC46DA
 108 012e B27730BC 		.ascii	"\262w0\274*OT\271\225C\262\317|\333\205I\267)\374(\257"
ARM GAS  /tmp/ccj5wzVV.s 			page 8


 108      2A4F54B9 
 108      9543B2CF 
 108      7CDB8549 
 108      B729FC28 
 109 0143 8C52361E 		.ascii	"\214R6\036\267<\317\324\311\361\226\303n\363\335\037"
 109      B73CCFD4 
 109      C9F196C3 
 109      6EF3DD1F 
 110 0153 9B391320 		.ascii	"\2339\023 \031\237\271\211_\333Q\310\016e\\;\210\321"
 110      199FB989 
 110      5FDB51C8 
 110      0E655C3B 
 110      88D1
 111 0165 B9391DDF 		.ascii	"\2719\035\337\320\\\000\317\002M\003\363=\311\314\205"
 111      D05C00CF 
 111      024D03F3 
 111      3DC9CC85 
 112 0175 88B931B8 		.ascii	"\210\2711\270F\224,n\253\275\345\200~\000#\274\242\270"
 112      46942C6E 
 112      ABBDE580 
 112      7E0023BC 
 112      A2B8
 113              		.text
 114              		.section	.gnu.lto_.symbol_nodes.19f1acc143f56601,"",%progbits
 115 0000 789C458A 		.ascii	"x\234E\212;\016\202P\020E\357\235\341\011~\026\351\026"
 115      3B0E8250 
 115      1045EF9D 
 115      E1097E16 
 115      E916
 116 0012 5CC19090 		.ascii	"\\\301\220\220\330\330\270\000cb\330\205-\2156\2266"
 116      D8D8B800 
 116      6362D885 
 116      2D8D3696 
 116      36
 117 0023 FE405057 		.ascii	"\376@PW\241\021\020|\323\234snF x\243;\271\322\200\345"
 117      A111107C 
 117      D39C736E 
 117      462078A3 
 117      3BB9D280 
 118 0038 01305BED 		.ascii	"\0010[\355\247\356E\205A\3164\372Un4\351r\275\023W\262"
 118      A7EE4585 
 118      41CE34FA 
 118      556E34E9 
 118      72BD1357 
 119 004d 36B81325 		.ascii	"6\270\023%0u\027\262\006\2374\375\375\3041\371\240\005"
 119      307517B2 
 119      069F34FD 
 119      FDC431F9 
 119      A005
 120 005f BE2A9AF3 		.ascii	"\276*\232\363u\247\015|\025\264\320WN\213\376\245\010"
 120      75A70D7C 
 120      15B4D057 
 120      4E8BFEA5 
 120      08
 121 0070 916C8E8B 		.ascii	"\221l\216\213\260\221\254\025\351\027\351\027\235 \311"
 121      B091AC15 
 121      E917E917 
ARM GAS  /tmp/ccj5wzVV.s 			page 9


 121      9D20C9
 122 007f 3F541D23 		.ascii	"?T\035#m9B\326r\210\262cR4\214\220\314\253\355L5D\332"
 122      6D3942D6 
 122      7288B263 
 122      52348C90 
 122      CCABED4C 
 123 0096 08BED1A0 		.ascii	"\010\276\321\240N\304"
 123      4EC4
 124              		.text
 125              		.section	.gnu.lto_.refs.19f1acc143f56601,"",%progbits
 126 0000 789C25C2 		.ascii	"x\234%\302\201\015\000 \010\004\261\373\003Y\301\375"
 126      810D0020 
 126      0804B1FB 
 126      0359C1FD 
 127 0010 3795C4A6 		.ascii	"7\225\304\246\"\227/;\222)\333\243\216\330<\005h\000"
 127      22972F3B 
 127      9229DBA3 
 127      8ED83C05 
 127      6800
 128 0022 4C       		.ascii	"L"
 129              		.text
 130              		.section	.gnu.lto_.decls.19f1acc143f56601,"",%progbits
 131 0000 789CBD5C 		.ascii	"x\234\275\\\013x\024U\226\256\252~\245!\006p\324\321"
 131      0B781455 
 131      96AEAA7E 
 131      A5210670 
 131      D4D1
 132 0012 5D66C9CC 		.ascii	"]f\311\314\352|\216\256\204\207\2538\273\343\013v\225"
 132      EA7C8EAE 
 132      8487AB38 
 132      BBE30B76 
 132      95
 133 0023 1D5F5F82 		.ascii	"\035__\202\2563\273n[\351\024I\257I'tWx\314\267\337"
 133      AE33BB6E 
 133      5BE91449 
 133      AF492774 
 133      5778CCB7 
 134 0038 679140C0 		.ascii	"g\221@\300\340\016\341\031\020\002\221\2270<\003h\210"
 134      E00EE119 
 134      10029197 
 134      303C0368 
 134      88
 135 0049 88695020 		.ascii	"\210iP \200\013\201h\022\036b\210\242\230\035Y\036\242"
 135      800B8168 
 135      121E6288 
 135      A2981D59 
 135      1EA2
 136 005b 0891ECB9 		.ascii	"\010\221\354\271\247\036]\267R\325]\325\350\364\227"
 136      A71E5DB7 
 136      52D55DD5 
 136      E8F497
 137 006a BA7DBBEA 		.ascii	"\272}\273\352\336\377\236s\3569\347\236\373\250p\014"
 137      DEFF9E73 
 137      EE39E79E 
 137      FBA8700C 
 138 007a C70CE118 		.ascii	"\307\014\341\030\246\207|~\3170\267\371\031\306\315"
 138      A6877C7E 
ARM GAS  /tmp/ccj5wzVV.s 			page 10


 138      CF30B7F9 
 138      19C6CD
 139 0089 30CC8370 		.ascii	"0\314\203p\245\301\345\202\353u\270n\2032\036\370\366"
 139      A5C1E582 
 139      EB75B86E 
 139      83321EF8 
 139      F6
 140 009a C13510F2 		.ascii	"\3015\020\362\017\301\367 \370&\037\250\302\014\206"
 140      0FC1F720 
 140      F8261FA8 
 140      C20C86
 141 00a9 FC70B8EE 		.ascii	"\374p\270\356\207\353\327p=\010W6\\/\300\225\013\227"
 141      87EBD770 
 141      3D085736 
 141      5C2FC095 
 141      0B97
 142 00bb C0C9B8F9 		.ascii	"\300\311\270\371\360\035\202\353%\270\212\224\372\352"
 142      F01D82EB 
 142      25B88A94 
 142      FAEA
 143 00c9 87600C80 		.ascii	"\207`\014\200\357\233Y\206\371W\2702 \237\016\327&\270"
 143      EF9B5986 
 143      F957B832 
 143      209F0ED7 
 143      26B8
 144 00db 5F075729 		.ascii	"_\007W)\\a\270\266\300u\013<O\203\357\255p\355\341d"
 144      5C61B8B6 
 144      C0750B3C 
 144      4F83EFAD 
 144      70EDE164 
 145 00ef BAF67232 		.ascii	"\272\366r2\275\377\240\320*\302\267\004\327sPv'|\277"
 145      BDFFA0D0 
 145      2AC2B704 
 145      D7735076 
 145      277CBF
 146 0102 A73C27ED 		.ascii	"\247<'\3554)t\302\243^t\014\377\013\3211<\011\035D\226"
 146      342974C2 
 146      A35E740C 
 146      FF0BD131 
 146      3C091D44 
 147 0117 372B323F 		.ascii	"7+2?\010\371 \\\2078\271?\210\354\377\003\256f.\336"
 147      08F9205C 
 147      8738B93F 
 147      88ECFF03 
 147      AE662EDE 
 148 012b 376ABFE4 		.ascii	"7j\277\344p4M\207\311}\216\246\213\264\267\203\223\373"
 148      70344D87 
 148      C97D8EA6 
 148      8BB4B783 
 148      93FB
 149 013d EE7EA57F 		.ascii	"\356~\245\177r\225\376\312V\372r\260\322\217\277V\352"
 149      7295FECA 
 149      56FA72B0 
 149      D28FBF56 
 149      EA
 150 014e E52BFD16 		.ascii	"\345+\375\0262\320\331\227\251\224\2442\251\266Bz\274"
 150      32D0D997 
ARM GAS  /tmp/ccj5wzVV.s 			page 11


 150      A994A432 
 150      A9B6427A 
 150      BC
 151 015f 29E34666 		.ascii	")\343Ff\226\004\237\314&\220\332\363,\317f\370\231\016"
 151      96049FCC 
 151      2690DAF3 
 151      2CCF66F8 
 151      990E
 152 0171 1FE6D2FD 		.ascii	"\037\346\322\375\314\177A\351;\230\025\222T\325\261"
 152      CC7F41E9 
 152      3B981592 
 152      54D5B1
 153 0180 F2C21997 		.ascii	"\362\302\031\227$\245\361\3542\366F\320\301;Y\346.f"
 153      24A5F1EC 
 153      32F646D0 
 153      C13B59E6 
 153      2E66
 154 0192 0D54AC92 		.ascii	"\015T\254\222\244e\177\315\364\376$\305\345\331\025"
 154      A4657FCD 
 154      F4FE24C5 
 154      E5D915
 155 01a1 2C07E92A 		.ascii	",\007\351*\300\343\331\225\354]rKR\354\333i\351\222"
 155      C0E3D995 
 155      EC5D724B 
 155      52ECDB69 
 155      E992
 156 01b3 5BBECF28 		.ascii	"[\276\317(OL>?gj\201\211\330\325\275+n\223jw\261f<A"
 156      4F4C3E3F 
 156      676A8189 
 156      D8D5BD2B 
 156      6E936A77 
 157 01cb 0156D73C 		.ascii	"\001V\327<t\251\322|&\324\347\230\177d\315\210\244K"
 157      74A9D27C 
 157      26D4E798 
 157      7F64CD88 
 157      A44B
 158 01dd F1EC5A24 		.ascii	"\361\354Z$r\235\221\310\3032\221\353l\021\331\262w\037"
 158      729D91C8 
 158      C33291EB 
 158      6C11D9B2 
 158      771F
 159 01ef 2BCD4EA7 		.ascii	"+\315N\247h\274\205\231\2074V\000\221\242\237\231\036"
 159      68BC8599 
 159      87345600 
 159      91A29F99 
 159      1E
 160 0200 7FA29192 		.ascii	"\177\242\221\222\251R\342\216wCCE\353E\266\014\352\360"
 160      A952E28E 
 160      77434345 
 160      EB45B60C 
 160      EAF0
 161 0212 6C1DEB07 		.ascii	"l\035\353\007.^f\251\346y\326\343\327S\200\277\325\002"
 161      2E5E66A9 
 161      E679D6E3 
 161      D75380BF 
 161      D502
 162 0224 040E1F2B 		.ascii	"\004\016\037+\031\342C\372\2317Gjnbo\301\234\213\341"
ARM GAS  /tmp/ccj5wzVV.s 			page 12


 162      19E243FA 
 162      9937476A 
 162      6E626FC1 
 162      9C8BE1
 163 0237 E41B0FF5 		.ascii	"\344\033\017\365U\363\024+\012\365\035+c\267.\210S\237"
 163      55F3142B 
 163      0AF51D2B 
 163      63B72E88 
 163      539F
 164 0249 A6C2B171 		.ascii	"\246\302\261q\352k*\327\337\015J\244U\220,+\360\354"
 164      EA6B2AD7 
 164      DF0D4AA4 
 164      55902C2B 
 164      F0EC
 165 025b 36F60E48 		.ascii	"6\366\016HY\232z\326\037\317\364\260\244\027W\260\264"
 165      599A7AD6 
 165      1FCFF4B0 
 165      A41757B0 
 165      B4
 166 026c 006C60AB 		.ascii	"\000l`\253\242\234\261d\004j\364v\024\3441\326(I\326"
 166      A29CB164 
 166      046AF476 
 166      14E431D6 
 166      2849D6
 167 027f 20C924B4 		.ascii	" \311$\2648)k%\362\267@\221\343\037M\360u2)<\373\254"
 167      38296B25 
 167      F2B74091 
 167      E31F4DF0 
 167      7532293C 
 168 0295 4B7B6805 		.ascii	"K{h\005\2611\016\3011\237!SDK\315\212+Y\012\217\322"
 168      B1310EC1 
 168      319F2153 
 168      444BCD8A 
 168      2B590A8F 
 169 02aa DC8E9557 		.ascii	"\334\216\225W\026\3646/Jue\342\254\210\331eS\205x\266"
 169      16F4362F 
 169      4A7565E2 
 169      AC88D965 
 169      538578B6 
 170 02be 2101CAEE 		.ascii	"!\001\312\356\353\227\312N\275T\272\034K%S/\025i\263"
 170      EB97CA4E 
 170      BD54BA1C 
 170      4B25532F 
 170      1569B3
 171 02d1 24F9BD49 		.ascii	"$\371\275I\254Y\262c\315\215\207\336?\314\226\2435\037"
 171      AC59B263 
 171      CD8D87DE 
 171      3FCC96A3 
 171      351F
 172 02e3 40255CCD 		.ascii	"@%\\\315\231h\263\035\250\332\232\3757\023\207t\020"
 172      9968B31D 
 172      A8DA9AFD 
 172      37138774 
 172      10
 173 02f4 6136A40A 		.ascii	"a6\244\012\323\321p\240^6\212\303\010\364\026g4\012"
 173      D3D170A0 
 173      5E368AC3 
ARM GAS  /tmp/ccj5wzVV.s 			page 13


 173      08F41667 
 173      340A
 174 0306 AFC128BC 		.ascii	"\257\301(\274\264\242\303O\322\322e\342Z\330\227\225"
 174      B4A2C34F 
 174      D2D265E2 
 174      5AD89795 
 175 0316 3BE4878F 		.ascii	";\344\207\217\371\213\327\263\322\205\375\326J)\353"
 175      F98BD7B3 
 175      D285FDD6 
 175      4A29EB
 176 0325 A15DA5DA 		.ascii	"\241]\245\332\247W\252\030gC\251\322\364x\214^\251l"
 176      A757AA18 
 176      6743A9D2 
 176      F4788C5E 
 176      A96C
 177 0337 99DA8104 		.ascii	"\231\332\201\004Fr\324\204+[\\\264\353\271x\3371\027"
 177      4672D484 
 177      2B5B5CB4 
 177      EBB978DF 
 177      3117
 178 0349 8E4C2331 		.ascii	"\216L#1\013'mt\214\362[q\363R\205t\347\352\270F\367"
 178      0B276D74 
 178      8CF25B71 
 178      F3528574 
 178      E7EAB846 
 179 035e 5711B9B8 		.ascii	"W\021\271\270F\327\265\276u\027jt'j\364Wf\246a\013\250"
 179      46D7B5BE 
 179      75176A74 
 179      276AF457 
 179      66A6610B 
 180 0373 A6B2FEEF 		.ascii	"\246\262\376\357\020\3504\002}\2332P\303\2147\036@\240"
 180      10E83402 
 180      7D9B3250 
 180      C38C371E 
 180      40A0
 181 0385 330824B9 		.ascii	"3\010$\271\2146\3462\330\230\213\326y\227?\236\351\351"
 181      8C36E632 
 181      D8988BD6 
 181      79973F9E 
 181      E9E9
 182 0397 71313F6E 		.ascii	"q1?na[:\364\261^\207f\270l\350P\177=\036\243\327\241"
 182      615B3AF4 
 182      B15E8766 
 182      B86CE850 
 182      7F3D1EA3 
 183 03ad EBB684B3 		.ascii	"\353\266\204\263\211\324\250\323\201}\177\245\347\252"
 183      89D4A8D3 
 183      817D7FA5 
 183      E7AA
 184 03bb CA315799 		.ascii	"\3121W\231z\256\222[F\242q\364\353D,)A\203q\\L\211\345"
 184      7AAE925B 
 184      46A271F4 
 184      EB442C29 
 184      4183715C 
 185 03d2 8B7A96E7 		.ascii	"\213z\226\347\331a\371V\313\216\274>\226\273\023\261"
 185      D961F956 
 185      CB8EBC3E 
ARM GAS  /tmp/ccj5wzVV.s 			page 14


 185      96BB13B1 
 186 03e2 BCFB0764 		.ascii	"\274\373\007d\371\252\236\345\305\216Y\316d\350\217"
 186      F9AA9EE5 
 186      C58E59CE 
 186      64E88F
 187 03f1 6A4F3CBB 		.ascii	"jO<\273\201\3759\2441L\2330m\303\364\004\246\177\306"
 187      81FD39A4 
 187      314C9B30 
 187      6DC3F404 
 187      A67FC6
 188 0404 F402A657 		.ascii	"\364\002\246W MJ\347\032=\235\313\220\316U)\006vR\254"
 188      204D4AE7 
 188      1A3D9DCB 
 188      90CE5529 
 188      067652AC 
 189 0418 7B6F7A15 		.ascii	"{oz\025\257\316\223\274I\202\202\305\213\016\261\350"
 189      AFCE93BC 
 189      498282C5 
 189      8B0EB1E8 
 190 0428 B0A67064 		.ascii	"\260\246pd\356\267\317\340\260\222\302pL;V\231\306\031"
 190      EEB7CFE0 
 190      B092C270 
 190      4C3B5699 
 190      C619
 191 043a 66516F56 		.ascii	"fQoV\334D\202\026r?\371,\252\276\242\306r\252\247\237"
 191      DC448216 
 191      723FF92C 
 191      AABEA2C6 
 191      72AAA79F 
 192 044e C1D5B26A 		.ascii	"\301\325\262j\3337i,\304\216~\317f\362\354\253H\377"
 192      DB37692C 
 192      C48E7ECF 
 192      66F2ECAB 
 192      48FF
 193 0460 6973FAAD 		.ascii	"is\372\25518\346\033\2542\323H\377E>S\276\233\234\372"
 193      3138E61B 
 193      AC32D348 
 193      FF453E53 
 193      BE9B9CFA 
 194 0474 4B5FE21C 		.ascii	"K_\342\034\220ggp}\001p\252[\005L)0\217]\021\232\206"
 194      90676770 
 194      7D0170AA 
 194      5B054C29 
 194      308F5D11 
 195 048a 2415845B 		.ascii	"$\025\204[\005\032\025\357\313M\255\017\021\221\317"
 195      051A15EF 
 195      CB4DAD0F 
 195      1191CF
 196 0499 474954BA 		.ascii	"GIT\272\223K\202\002\341\2309Xe\241A\022\035W;\233\357"
 196      934B8202 
 196      E1983958 
 196      65A14112 
 196      1D573B9B 
 197 04ae 5E2049FD 		.ascii	"^ I\375\345G\311\304\001\223\374\375\213Y\322\231&-"
 197      E547C9C4 
 197      0193FCFD 
 197      8B59D299 
ARM GAS  /tmp/ccj5wzVV.s 			page 15


 197      262D
 198 04c0 3EAC0F33 		.ascii	">\254\0173\324A|\376\207\263\330)\030(\327 \345\357"
 198      D4417CFE 
 198      87B3D829 
 198      1828D720 
 198      E5EF
 199 04d2 9A535EFB 		.ascii	"\232S^\373\260\025\020\307\034\304*\265\275)\277\374"
 199      B01510C7 
 199      1CC42AB5 
 199      BD29BFFC 
 200 04e2 2B99F25A 		.ascii	"+\231\362Z[\035y\270RVC\236\235\307\221\010k\016\307"
 200      5B1D79B8 
 200      5256439E 
 200      9DC79108 
 200      6B0EC7
 201 04f5 29B0A9F5 		.ascii	")\260\251\365\344\221\375`\2112\030\307|\242\321\350"
 201      E491FD60 
 201      893218C7 
 201      7CA2D1E8 
 202 0505 706662F6 		.ascii	"pfb\366\3213\313\263\31382\237^\316\021\177\263\202"
 202      D133CBB3 
 202      CB38329F 
 202      5ECE117F 
 202      B382
 203 0517 D3F91B98 		.ascii	"\323\371\033\230%j}j&\271\344,|\267\1771\212\304\376"
 203      256A7D6A 
 203      26B9E42C 
 203      7CB77F31 
 203      8AC4FE
 204 052a 3246E34C 		.ascii	"2F\343Lm\342\263\232#AP\227\3334\232\262\001US\271{"
 204      6DE2B39A 
 204      23415097 
 204      DB349AB2 
 204      015553B9 
 205 053f A7B222B2 		.ascii	"\247\262\"\262\026\241.\244\014\3250\343\03590\333\200"
 205      16A12EA4 
 205      0CD530E3 
 205      1D3930DB 
 205      80
 206 0550 4057DDC6 		.ascii	"@W\335\306\300\314g\010\314|t\370\344\363\3073\312\332"
 206      C0CC6708 
 206      CC7C74F8 
 206      E4F3C733 
 206      CADA
 207 0562 CA8F5B9C 		.ascii	"\312\217[\234c*<\206\256s4\353\220:\256t\236\271{\241"
 207      632A3C86 
 207      AE7334EB 
 207      903AAE74 
 207      9EB97BA1 
 208 0576 149BE2B2 		.ascii	"\024\233\342\262\341\304g`[[\214\006t\276\253I1\240"
 208      E1C46760 
 208      5B5B8C06 
 208      74BEAB49 
 208      31A0
 209 0588 2DB60CE8 		.ascii	"-\266\014\350\315\375\325\366\374\270\266\022w;6\277"
 209      CDFDD5F6 
 209      FCB8B612 
ARM GAS  /tmp/ccj5wzVV.s 			page 16


 209      773B36BF 
 210 0598 0B9BDF66 		.ascii	"\013\233\337fl~\307\331\246\177\223\233\337f\253\371"
 210      6C7EC7D9 
 210      A67F939B 
 210      DF66ABF9 
 211 05a8 86B6B9BD 		.ascii	"\206\266\271\275\233\347\331\007oN\244\031\347\273\316"
 211      9BE7D907 
 211      6F4EA419 
 211      E7BBCE
 212 05b7 0C5C8A8D 		.ascii	"\014\\\212\215\274\203v\332\3551\252\306C\372%\012u"
 212      BC8376DA 
 212      ED31AAC6 
 212      43FA250A 
 212      75
 213 05c8 F6A51500 		.ascii	"\366\245\025\000\207\357U\251O\311M\000\233g^X\003\001"
 213      87EF55A9 
 213      4FC94D00 
 213      9B675E58 
 213      0301
 214 05da D52B5E95 		.ascii	"\325+^\225\206\351\216\0213)A\274\323\206\216G\006\233"
 214      86E98E11 
 214      332941BC 
 214      D3868E47 
 214      069B
 215 05ec 6107CC7A 		.ascii	"a\007\314z\366\032{W\017\366G\307`4e\315z\260Yv\300"
 215      F61A7B57 
 215      0FF647C7 
 215      603465CD 
 215      7AB05976 
 216 0601 AC6713B1 		.ascii	"\254g\023\261#z\260\271\216\301h\312>\324\203U\333\001"
 216      237AB0B9 
 216      8EC168CA 
 216      3ED48355 
 216      DB01
 217 0613 B30E8F63 		.ascii	"\263\016\217c\255z\260E\216\301h\312\332\365`K\355\200"
 217      AD7AB045 
 217      8EC168CA 
 217      DAF5604B 
 217      ED80
 218 0625 659A50A6 		.ascii	"e\232P\246}\254\202\320zN\037\204zU\207\340P\247\231"
 218      7DAC82D0 
 218      7A4E1F84 
 218      7A5587E0 
 218      50A799
 219 0638 38C64AAF 		.ascii	"8\306J\257S\007F\361M\206\357\273\337V\354B\036C\327"
 219      530746F1 
 219      4D86EFBB 
 219      DF56EC42 
 219      1E43D7
 220 064b D8414CA0 		.ascii	"\330AL\2400U\007t\003\362F\307`t\267,!`)\255\226\223"
 220      30550774 
 220      03F246C7 
 220      6074B72C 
 220      216029AD 
 221 0661 9D154EB7 		.ascii	"\235\025N\267\232}\253yY\236=\212\003\3731\316\257Q"
 221      9A7DAB79 
 221      599E3D8A 
ARM GAS  /tmp/ccj5wzVV.s 			page 17


 221      03FB31CE 
 221      AF51
 222 0673 21E7D59C 		.ascii	"!\347\325\234\274N\376\246\227^\242\326>\311\252ZiB"
 222      BC4EFEA6 
 222      975EA2D6 
 222      3EC9AA5A 
 222      6942
 223 0685 9B5E13DE 		.ascii	"\233^\023\336\266#\246\004\246\320l%\246X\2054\235\235"
 223      B623A604 
 223      A6D06C25 
 223      A6588534 
 223      9D9D
 224 0697 5C373061 		.ascii	"\\70at\010\336\371g\177B\357\374\011\016\334\215^\323"
 224      7408DEF9 
 224      677F42EF 
 224      FC090EDC 
 224      8D5ED3
 225 06aa 08C01656 		.ascii	"\010\300\026VM\345!5\234\350D\260\375\251\203\3256\034"
 225      4DE52135 
 225      9CE844B0 
 225      FDA983D5 
 225      361C
 226 06bc 184882ED 		.ascii	"\030H\202\355\323\010\324\3425\216\031~C8\341\247\007"
 226      D308D4E2 
 226      358E197E 
 226      4338E1A7 
 226      07
 227 06cd 7CBF3F9E 		.ascii	"|\277?\236\351Q?\306\215\206\037\261\216U\317\237\324"
 227      E9513FC6 
 227      8D861FB1 
 227      8E55CF9F 
 227      D4
 228 06de F7FC49C7 		.ascii	"\367\374I\307=O\031\010\011@\006WK\261\311.\373\033"
 228      3D4F1908 
 228      09400657 
 228      4BB1C92E 
 228      FB1B
 229 06f0 378D87DE 		.ascii	"7\215\207\336\375\015\206i](\327\323\275\344\332\340"
 229      FD0D8669 
 229      5D28D7D3 
 229      BDE4DAE0 
 230 0700 70E78663 		.ascii	"p\347\206c\316\032\271\240\332M\34005/\324\224\325\260"
 230      CE1AB9A0 
 230      DA4DE030 
 230      352FD494 
 230      D5B0
 231 0712 4192CABD 		.ascii	"A\222\312\275\016\330\230\251\260\361\177\310\306\327"
 231      0ED898A9 
 231      B0F17FC8 
 231      C6D7
 232 0720 3F001BDD 		.ascii	"?\000\033\335\216\331H3\260q.\0056\032e6\276F6\312|"
 232      8ED94833 
 232      B0712E05 
 232      361A6536 
 232      BE4636CA 
 233 0735 D7CF46A5 		.ascii	"\327\317F\245\317)\033\375ul\340\224nt\003\216\011?"
 233      CF291BFD 
ARM GAS  /tmp/ccj5wzVV.s 			page 18


 233      756CE094 
 233      6E74038E 
 233      093F
 234 0747 6166278E 		.ascii	"af'\216j\011=\337q?\241\247\365\037\035$\213\005\344"
 234      6A093DDF 
 234      713FA1A7 
 234      F51F1D24 
 234      8B05E4
 235 075a 76F289EC 		.ascii	"v\362\211\354\305\203\213\225\351\240\274\2033\023i"
 235      C5838B95 
 235      E9A0BC83 
 235      331369
 236 0769 27755389 		.ascii	"'uS\211\363\244X\325!\034}d\260\371\327\005V\026[:S"
 236      F3A458D5 
 236      211C7D64 
 236      B0F9D705 
 236      56165B3A 
 237 077e 9DAB3E84 		.ascii	"\235\253>\204a\301u\302\275s\310\350\245\015A\364|\013"
 237      61C175C2 
 237      BD73C8E8 
 237      A50D41F4 
 237      7C0B
 238 0790 37A0CDE2 		.ascii	"7\240\315\342\367\250\276\265\334E\010Z\325KY\346q\206"
 238      F7A8BEB5 
 238      DC45085A 
 238      D54B59E6 
 238      7186
 239 07a2 385A9E64 		.ascii	"8Z\236dkE\254\372\260\314\245\363I\015\327\327\007\240"
 239      6B45ACFA 
 239      B0CCA5F3 
 239      490DD7D7 
 239      07A0
 240 07b4 3FED0F36 		.ascii	"?\355\0176(1\205\334\021\215\327)\271\357f\332[\273"
 240      283185DC 
 240      118DD729 
 240      B9EF66DA 
 240      5BBB
 241 07c6 7A51C54A 		.ascii	"zQ\305JGF\366b\2633"
 241      4746F662 
 241      B333
 242 07d0 5C8629CF 		.ascii	"\\\206)\317\321k\035\025\212\034\311\263\344Jz\374\264"
 242      D16B1D15 
 242      8A1CC9B3 
 242      E44A7AFC 
 242      B4
 243 07e1 1FD79E6A 		.ascii	"\037\327\236jp\362\264\012W,HM\263\241+\271\212\236"
 243      70F2B40A 
 243      572C484D 
 243      B3A12BB9 
 243      8A9E
 244 07f3 149A8638 		.ascii	"\024\232\2068\331\343\334\243N\365\253\\\350\350zu\372"
 244      D9E3DCA3 
 244      4EF5AB5C 
 244      E8E87A75 
 244      FA
 245 0804 41A38770 		.ascii	"A\243\207p\260\311\3071W4!\331\215 \215\037+\245\252"
 245      B0C9C731 
ARM GAS  /tmp/ccj5wzVV.s 			page 19


 245      573421D9 
 245      8D208D1F 
 245      2BA5AA
 246 0817 D42BD5B5 		.ascii	"\324+\325\265\353S\001P\2523\217\313\201j2%\220\264"
 246      EB530150 
 246      AA338FCB 
 246      816A3225 
 246      90B4
 247 0829 C5C7FED8 		.ascii	"\305\307\376\330\362\3244\322r\265Q\013v,\3337\215\235"
 247      F2D434D2 
 247      72B5510B 
 247      762CDB37 
 247      8D9D
 248 083b 8C82ADB6 		.ascii	"\214\202\255\266\245\005\227L\264\240:E-\000\225V\027"
 248      A505974C 
 248      B4A03A45 
 248      2D009556 
 248      17
 249 084c 34E54079 		.ascii	"4\345@y\203F\244\303^P\340\272m,h\322\202QWvO\023g\275"
 249      8346A4C3 
 249      5E50E0BA 
 249      6D2C68D2 
 249      82515776 
 250 0864 D4455605 		.ascii	"\324EV\005\267\246\031UK\226\214N\265\342b\204\021\306"
 250      B7A61955 
 250      4B968C4E 
 250      B5E26284 
 250      11C6
 251 0876 4522E7D7 		.ascii	"E\"\347\327\\dIl\021\2465.\033\013\361K\342j\241.\377"
 251      5C64496C 
 251      11A6352E 
 251      1B0BF14B 
 251      E26AA12E 
 252 088b 39E13BD3 		.ascii	"9\341;\323\246\366\315\327k\337;i\327\247}\020f\215"
 252      A6F6CDD7 
 252      6BDF3B69 
 252      D7A77D10 
 252      668D
 253 089d C6751E07 		.ascii	"\306u\036\007kt\207v\253\206\273\002\015\367\275^\322"
 253      6B748776 
 253      AB86BB02 
 253      0DF7BD5E 
 253      D2
 254 08ae 5DCB395E 		.ascii	"]\3139^\020\343\230C\251\262\242}8\2465\315F\324\231"
 254      10E39843 
 254      A9B2A27D 
 254      38A635CD 
 254      46D499
 255 08c1 692275CD 		.ascii	"i\"u\315\303w\374\213\354\341\355\356\201\324\265~0"
 255      C377FC8B 
 255      ECE1EDEE 
 255      81D4B57E 
 255      30
 256 08d2 595981FE 		.ascii	"YY\201\376\023\352Z\273A\0326\026\320\276\300*\353\215"
 256      13EA5ABB 
 256      411A3616 
 256      D0BEC02A 
ARM GAS  /tmp/ccj5wzVV.s 			page 20


 256      EB8D
 257 08e4 867CB533 		.ascii	"\206|\2653\246,\240\255\267a\307e\261-\246+\320\353"
 257      A62CA0AD 
 257      B761C765 
 257      B12DA62B 
 257      D0EB
 258 08f6 13AB6042 		.ascii	"\023\253`B\201R}\270^g!\033\321B6\351\255\202c\276\265"
 258      81527DB8 
 258      5E67211B 
 258      D14236E9 
 258      AD8263BE 
 259 090b 23FC3BAD 		.ascii	"#\374;\255t\021\374\320\021y\355_]\313\3571\342\231"
 259      7411FCD0 
 259      1179ED5F 
 259      5DCBEF31 
 259      E299
 260 091d 79220A4F 		.ascii	"y\"\012O\337\2310ao\301\220IV\322\351~\033\304\015\261"
 260      DF993061 
 260      6FC19049 
 260      56D2E97E 
 260      1BC40DB1 
 261 0931 065B3A47 		.ascii	"\006[:G\025\356|\014Qf\331\301\033a\305lY\254\276E\215"
 261      15EE7C0C 
 261      5166D9C1 
 261      1B61C56C 
 261      59ACBE45 
 262 0946 0FE585EE 		.ascii	"\017\345\205\356\205\216\361h\372>\232C\205t\313\354"
 262      858EF168 
 262      FA3E9A43 
 262      8574CBEC 
 263 0956 C03D6CBB 		.ascii	"\300=l\273\357\343\373:\340\021q]a1n\030\274\201\351"
 263      EFE3FB3A 
 263      E011715D 
 263      61316E18 
 263      BC81E9
 264 0969 664C8F60 		.ascii	"fL\217`\372!\246\255\230~\214\351\227\230\236\305\364"
 264      FA21A6AD 
 264      987E8CE9 
 264      97989EC5 
 264      F4
 265 097a 22A69731 		.ascii	"\"\246\2271]\203\236u3\246[1}\013\323m\230\276m\307"
 265      5D839E75 
 265      33A65B31 
 265      7D0BD36D 
 265      98BE6DC7 
 266 098e E31A8240 		.ascii	"\343\032\202@\216Y\355w\272}FI\261\243\346x\343\003"
 266      8E59ED77 
 266      BA7D4649 
 266      B1A3E678 
 266      E303
 267 09a0 E80E55B5 		.ascii	"\350\016U\265\251\263\003\230`\370\232\275\007t\320"
 267      A9B30398 
 267      60F89ABD 
 267      0774D0
 268 09af C9FE8716 		.ascii	"\311\376\207\026\024\305\260\375m\376\037\300\267\362"
 268      14C5B0FD 
 268      6DFE1FC0 
ARM GAS  /tmp/ccj5wzVV.s 			page 21


 268      B7F2
 269 09bd EC057405 		.ascii	"\354\005t\005N\3300\312e\367,vN\271\3244D%l\267\035"
 269      4ED830CA 
 269      65F72C76 
 269      4EB9D434 
 269      44256CB7 
 270 09d2 C198ADA6 		.ascii	"\301\230\255\246\231+\330L\235\202\315B\005\233\215"
 270      992BD84C 
 270      9D82CD42 
 270      059B8D
 271 09e1 4A3217D3 		.ascii	"J2\027\323\035\250\022\215\230\276gG1fp\275\206\342"
 271      1DA8128D 
 271      98BE6747 
 271      316670BD 
 271      86E2
 272 09f3 69D7B11C 		.ascii	"i\327\261\034I\221:MG\352+Hj%\275m\366\201\337\351\036"
 272      49913A4D 
 272      47EA2B48 
 272      6A25BD6D 
 272      F681DFE9 
 273 0a08 3C2DECDD 		.ascii	"<-\354\335=\013~*u\304X\037S\201s\355\251eI\346\332"
 273      3D0B7E2A 
 273      75C4581F 
 273      538173ED 
 273      A96549E6 
 274 0a1d B1CB5E8E 		.ascii	"\261\313^\216g\367\272|\320\370\021\203\302\330\000"
 274      67F7BA7C 
 274      D0F81183 
 274      C2D800
 275 0a2c C1B36F50 		.ascii	"\301\263oP\231\232\353\236\257\350G\226\250\310\375"
 275      999AEB9E 
 275      AFE84796 
 275      A8C8FD
 276 0a3b 04230F1E 		.ascii	"\004#\017\036\254\340\230\023~9\002s\373\343\367>\217"
 276      ACE09813 
 276      7E390273 
 276      FBE3F73E 
 276      8F
 277 0a4c DF637545 		.ascii	"\337cuE\317\306o\253\307\317\311\317\204\207f\343\304"
 277      CFC66FAB 
 277      C7CFC9CF 
 277      848766E3 
 277      C4
 278 0a5d C1BC0B47 		.ascii	"\301\274\013G\236\017\\.\323j<\373\025\307\321\3027"
 278      9E0F5C2E 
 278      D36A3CFB 
 278      15C7D1C2 
 278      37
 279 0a6e 5B23B0DE 		.ascii	"[#\260\336\370\212}\277\227\004\303I\267\235\024{\375"
 279      F88A7DBF 
 279      9704C349 
 279      B79D147B 
 279      FD
 280 0a7f 64E3E141 		.ascii	"d\343\341A\353p\210n\301\301\277\246O\362\215s\023\234"
 280      EB70886E 
 280      C1C1BFA6 
 280      4FF28D73 
ARM GAS  /tmp/ccj5wzVV.s 			page 22


 280      139C
 281 0a91 D89B18AC 		.ascii	"\330\233\030\254\266\"\306Z\247\030\034\363\026V9\352"
 281      B622C65A 
 281      A7181CF3 
 281      165639EA 
 282 0aa1 329E9827 		.ascii	"2\236\230'\307\020\216\332\232\003|\247\233\003\300"
 282      C7108EDA 
 282      9A037CA7 
 282      9B03C0
 283 0ab0 B456C34B 		.ascii	"\264V\303Ka\0160\245\034O!\240\323+O\350\364\300\373"
 283      610E30A5 
 283      1C4F21A0 
 283      D32B4FE8 
 283      F4C0FB
 284 0ac3 E361EEE4 		.ascii	"\343a\356\344G\3219f\237\221$\207\216\370{uZB\216\010"
 284      47D13966 
 284      9F912487 
 284      8EF87B75 
 284      5A428E08 
 285 0ad7 714C8B63 		.ascii	"qL\213c8\312Fc\327\004\342\012e\254\023v\260\022l,\340"
 285      38CA4663 
 285      D704E20A 
 285      65AC1376 
 285      B0126C2C 
 286 0aec 18A18275 		.ascii	"\030\241\202u:\006\243\011\233\253\007\353\262\003\226"
 286      3A06A309 
 286      9BAB07EB 
 286      B20396
 287 0afb 60F9BD7A 		.ascii	"`\371\275z\317\342\244'\356,6HI\357\376\257\213:\252"
 287      CFE2A427 
 287      EE2C3648 
 287      49EFFEAF 
 287      8B3AAA
 288 0b0e 6558146A 		.ascii	"eX\024j\265 \013\255X?\225JrVK1\241\226\327\211\011"
 288      B5200BAD 
 288      583F954A 
 288      72564B31 
 288      A196D789 
 289 0b23 75617076 		.ascii	"uapv\301`B\206\226\011]V-\237s\365\2650\226^\3178\246"
 289      C1604286 
 289      96095D56 
 289      2D9F73F5 
 289      B530965E 
 290 0b3a DBB17CE9 		.ascii	"\333\261|\351\316ZXA\005mS\373\332\200\3134\351.\263"
 290      CE5A5841 
 290      056D53FB 
 290      DA80CB34 
 290      E92EB3
 291 0b4d 8FDE1FF0 		.ascii	"\217\336\037\360\354qt\233'p\004=\211\351)L?\305\364"
 291      EC71749B 
 291      2770043D 
 291      89E9294C 
 291      3FC5F4
 292 0b60 34A65F60 		.ascii	"4\246_`\372%\246\027\364\243\354\217\203\3121\257\366"
 292      FA25A617 
 292      F4A3EC8F 
 292      83CA31AF 
ARM GAS  /tmp/ccj5wzVV.s 			page 23


 292      F6
 293 0b71 350C94B4 		.ascii	"5\014\224\264_Kf\205\022\031)\255N\013Y\271\353\007"
 293      5F4B6685 
 293      121929AD 
 293      4E0B59B9 
 293      EB07
 294 0b83 6477FD0D 		.ascii	"dw\375\015\272\3329}\215\321U\253q]\340\007dw\231-v"
 294      BADA397D 
 294      8DD155AB 
 294      715DE007 
 294      6477992D 
 295 0b98 A93908D3 		.ascii	"\2519\010\323\233]\010\014\0060U\310\356\002\372\375"
 295      9B5D080C 
 295      063055C8 
 295      EE02FAFD 
 296 0ba8 087A1904 		.ascii	"\010z\031\004\2170\272\006`\216Z\225\303\022V\352\337"
 296      8F30BA06 
 296      608E5A95 
 296      C31256EA 
 296      DF
 297 0bb9 ED8AEFF9 		.ascii	"\355\212\357\371\245\373\343\231~\032\027k\214\\\320"
 297      A5FBE399 
 297      7E1A176B 
 297      8C5CD0
 298 0bc8 CD2AD967 		.ascii	"\315*\331g,;\215\234\205vye\3328f\235-\264\027\255\320"
 298      2C3B8D9C 
 298      85767965 
 298      DA38669D 
 298      2DB417AD 
 299 0bdd CCCE929A 		.ascii	"\314\316\222\232\275a\246\201\016\214+\303\273\333\317"
 299      BD61A681 
 299      0E8C2BC3 
 299      BBDBCF
 300 0bec 572AEB64 		.ascii	"W*\353den\242\015g\014\332\220\024\210\010l\252\333"
 300      656EA20D 
 300      670CDA90 
 300      1488086C 
 300      AADB
 301 0bfe 30E86EEF 		.ascii	"0\350n\357l\222\017E\222'I\006^\030*\033;\233\270\370"
 301      6C920F45 
 301      92274906 
 301      5E182A1B 
 301      3B9BB8F8 
 302 0c12 024CB2F1 		.ascii	"\002L\262\361r\035\306\233vVS\276Af\010\015\016\203"
 302      721DC69B 
 302      765653BE 
 302      4166080D 
 302      0E83
 303 0c24 5E85AE66 		.ascii	"^\205\256f\302\006\031/\247c\244\366\235c\270L\012\356"
 303      C206192F 
 303      A763A4F6 
 303      9D63B84C 
 303      0AEE
 304 0c36 080DD76D 		.ascii	"\010\015\327m\007\316j4\007\270\017i8)\335)\034M]+\015"
 304      07CE6A34 
 304      07B80F69 
 304      3829DD29 
ARM GAS  /tmp/ccj5wzVV.s 			page 24


 304      1C4D5D2B 
 305 0c4b 37C50E9C 		.ascii	"7\305\016\234\325\200\016p\3554\334t\307p4u\307h\270"
 305      D5800E70 
 305      ED34DC74 
 305      C7703475 
 305      C768B8
 306 0c5e 57EDC099 		.ascii	"W\355\300\231\015\352f\037\275\002\363l\205\233\250"
 306      0DEA661F 
 306      BD02F36C 
 306      859BA8
 307 0c6d D7343771 		.ascii	"\32747q^\225\230\276\212\351\0371\255\302t6\246s\335"
 307      5E9598BE 
 307      8AE91F31 
 307      ADC27436 
 307      A673DD
 308 0c80 36666193 		.ascii	"6fa\223\335\272\225\312Y\3516fE%\026R\320\315\212d\227"
 308      DDBA95CA 
 308      59E93666 
 308      45251652 
 308      D0CD8A64 
 309 0c95 C731D546 		.ascii	"\3071\325F<\263@\177\242m1\304_7\345\33170*]\215G\260"
 309      3CB3407F 
 309      A26D31C4 
 309      5F37E5D9 
 309      37302A5D 
 310 0cac CB7102BA 		.ascii	"\313q\002\272\007\375\371\021L/az\005\323k\230J(\222"
 310      07FDF911 
 310      4C2F617A 
 310      05D36B98 
 310      4A2892
 311 0cbf 6A3B2279 		.ascii	"j;\"y=~X\233rZ\252K\237\376)+\237VP\000b7\251\010M\234"
 311      3D7E589B 
 311      725AAA4B 
 311      9FFE292B 
 311      9F565000 
 312 0cd9 02F19ADB 		.ascii	"\002\361\232\333\251S_\3446w\352w&!v\241\333\234X\373"
 312      A9535FE4 
 312      3677EA77 
 312      262176A1 
 312      DB9C58FB 
 313 0ced 11608D3B 		.ascii	"\021`\215;\305\227\217\026\273\251P\313\306k\274/\252"
 313      C5978F16 
 313      BBA950CB 
 313      C66BBC2F 
 313      AA
 314 0cfe 10648B4C 		.ascii	"\020d\213Lq\361\335\235\247~\013\2768\331\206\032t\013"
 314      71F1DD9D 
 314      A77E0BBE 
 314      38D9861A 
 314      740B
 315 0d10 287EB252 		.ascii	"(~\262R\244\334r\243\267\177\363\010\276\357\273<\271"
 315      A4DC72A3 
 315      B77FF308 
 315      BEEFBB3C 
 315      B9
 316 0d21 AF87706F 		.ascii	"\257\207po\307\221%J\270'\237HmG\025^\236\232\217\006"
 316      C791254A 
ARM GAS  /tmp/ccj5wzVV.s 			page 25


 316      B8279F48 
 316      6D47155E 
 316      9E9A8F06 
 317 0d35 BCD6D9E9 		.ascii	"\274\326\331\351\315/\252\357\035\2354\202Q\257\030"
 317      CD2FAAEF 
 317      1D9D3482 
 317      51AF18
 318 0d44 25F1D000 		.ascii	"%\361\320\000vR\017\326\351\030l\010\005\366\215\036"
 318      76520FD6 
 318      E9186C08 
 318      05F68D1E 
 319 0d54 EC733B60 		.ascii	"\354s;`\0117\342T\303\\\201\376i%\232\333\033\230\256"
 319      0937E254 
 319      C35C81FE 
 319      69259ADB 
 319      1B98AE
 320 0d67 C174AD9B 		.ascii	"\301t\255\233\012\264\272\322\215a\235\334?:\274xG2"
 320      0AB4BAD2 
 320      8D619DDC 
 320      3F3ABC78 
 320      4732
 321 0d79 C911AD94 		.ascii	"\311\021\255\224ti\334>\0061K\244\330\371\216O\2768"
 321      7469DC3E 
 321      06314BA4 
 321      D8F98E4F 
 321      BE38
 322 0d8b 3C959D55 		.ascii	"<\225\235U.5I\347\3108,\033\000\307\364\030\010\272"
 322      2E3549E7 
 322      C8382C1B 
 322      00C7F418 
 322      08BA
 323 0d9d 9D592E49 		.ascii	"\235Y.I\2631vQB\377i7\220\022\033\334\203,\006~\371"
 323      B3317651 
 323      42FF6937 
 323      90121BDC 
 323      832C067E 
 324 0db2 18E92F99 		.ascii	"\030\351/\231\225DE\245\325\222\013\315\216Q\352P\254"
 324      954445A5 
 324      D5920BCD 
 324      8E51EA50 
 324      AC
 325 0dc3 6D7453EF 		.ascii	"mtS\357\365\313\224\305.\344\3114\251$\315\270!1I<["
 325      F5CB94C5 
 325      2EE4C934 
 325      A924CDB8 
 325      2131493C 
 326 0dd8 E7262B29 		.ascii	"\347&+)[R i\213\221\244\255\275I\252=\025\273\364Qz"
 326      5B522069 
 326      8B91A4AD 
 326      BD49AA3D 
 326      15BBF451 
 327 0ded D5E48E9E 		.ascii	"\325\344\216\236\236A\006\177\342\266\366d\333\024\177"
 327      9E41067F 
 327      E2B6F664 
 327      DB147F
 328 0dfc 12F7213C 		.ascii	"\022\367!<\373\034g0<\205\244\315\253\011+\350\372x"
 328      FB1C6730 
ARM GAS  /tmp/ccj5wzVV.s 			page 26


 328      3C85A4CD 
 328      AB092BE8 
 328      FA78
 329 0e0e B6DE828D 		.ascii	"\266\336\202\2158\206\201\276\216\252\216\266\256}\243"
 329      388681BE 
 329      8EAA8EB6 
 329      AE7DA3
 330 0e1d 176C96A6 		.ascii	"\027l\226\246\274\"]\353y\231\265\357\364\266\033\235"
 330      BC225DEB 
 330      7999B5EF 
 330      F4B61B9D 
 331 0e2d 5E279E6C 		.ascii	"^'\236l\321y=\216\2517\210_%dGoI\001%\363\316\356\034"
 331      D1793D8E 
 331      A937885F 
 331      2564476F 
 331      490125F3 
 332 0e44 BCD08A92 		.ascii	"\274\320\212\222D\257\2745\272\255g\340vw\270z\316\036"
 332      44AFBC35 
 332      BAAD67E0 
 332      7677B87A 
 332      CE1E
 333 0e56 FD2B7949 		.ascii	"\375+yIz\027\206\311\025\031\0167\270\360\305,\243\343"
 333      7A1786C9 
 333      15190E37 
 333      B8F0C52C 
 333      A3E3
 334 0e68 6CDC838E 		.ascii	"l\334\203\216s\267-\307\331\262g\235\355\377\346`\330"
 334      73B72DC7 
 334      D9B2679D 
 334      EDFFE660 
 334      D8
 335 0e79 245F9461 		.ascii	"$_\224a\376\357\034\250b<\273\037\225\375\200\221\312"
 335      FEEF1CA8 
 335      623CBB1F 
 335      95FD8091 
 335      CA
 336 0e8a 9A0AA4F2 		.ascii	"\232\012\244\362\200-*\227\356Q\226\230\310\253\366"
 336      802D2A97 
 336      EE519698 
 336      C8ABF6
 337 0e99 207B5685 		.ascii	" {V\205L\311\273\3133\033\371\015u\236\335\353\030,"
 337      4CC9BBCB 
 337      331BF90D 
 337      759EDDEB 
 337      182C
 338 0eab D30C6C1F 		.ascii	"\323\014l\037\202\265\332\001\263^KS\301\332\021\354"
 338      82B5DA01 
 338      B35E4B53 
 338      C1DA11EC 
 339 0ebb B863B04C 		.ascii	"\270c\260L\203\370\342~\370\177\320\367\036\304\364"
 339      83F8E27E 
 339      F87FD0F7 
 339      1EC4F4
 340 0eca 10A6CD76 		.ascii	"\020\246\315v\374p\223[\267ZT\206\013\300\273\235\213"
 340      FC70935B 
 340      B75A5486 
 340      0BC0BB9D 
ARM GAS  /tmp/ccj5wzVV.s 			page 27


 340      8B
 341 0edb DDECA357 		.ascii	"\335\354\243W\\\210\002q\370\331k\207\244\235n\363\005"
 341      5C880271 
 341      F8D96B87 
 341      A49D6EF3 
 341      05
 342 0eec 2C8ED992 		.ascii	",\216\331\222an\371\207M-\277\255\353\350\2035V\226"
 342      616EF987 
 342      4D2DBFAD 
 342      EBE88335 
 342      5696
 343 0efe 4FB6BFAC 		.ascii	"O\266\277\254\010h1\211\274,_\213\\\315\351\177\033"
 343      08683189 
 343      BC2C5F8B 
 343      5CCDE97F 
 343      1B
 344 0f0f 56CBC878 		.ascii	"V\313\310xa\355\036b\263\344w\365\332\335d\030\213e"
 344      61ED1E62 
 344      B3E477F5 
 344      DADD6418 
 344      8B65
 345 0f21 1847DEC5 		.ascii	"\030G\336\305n\303\301-Cdg \261\267\274\232,\344u\302"
 345      6EC3C12D 
 345      43646720 
 345      B1B7BC9A 
 345      2CE475C2 
 346 0f35 545E5337 		.ascii	"T^S7\354b\027J\273\246H==/3\366]\366I\243\264H\234\256"
 346      EC62174A 
 346      BBA6483D 
 346      3D2F33F6 
 346      5DF649A3 
 347 0f4d FD50C679 		.ascii	"\375P\306y\003a\307,\010;eJ\330\334o\367=\225\002a\237"
 347      0361C72C 
 347      083B654A 
 347      D8DC6FF7 
 347      3D950261 
 348 0f62 F61AF038 		.ascii	"\366\032\3608\246\254\237y\303\237\2316\274\355\312"
 348      A6AC9F79 
 348      C39F9936 
 348      BCEDCA
 349 0f71 BEDF680D 		.ascii	"\276\337h\015\313\200\034\263\326\002\342s\032\342\027"
 349      CB801CB3 
 349      D602E273 
 349      1AE217
 350 0f80 CCEB04E2 		.ascii	"\314\353\004\342\373\316S\317\257/#J(]\356a{\\\352?"
 350      FBCE53CF 
 350      AF2F234A 
 350      285DEE61 
 350      7B5CEA3F 
 351 0f94 FBD9A2A1 		.ascii	"\373\331\242\241(\344\323\377\311\207\000\236"
 351      28E4D3FF 
 351      C987009E 
 352 0fa0 890312B0 		.ascii	"\211\003\022\260X3\204H\373 D\222\244\351\345\032\032"
 352      58338448 
 352      FB204492 
 352      A4E9E51A 
 352      1A
ARM GAS  /tmp/ccj5wzVV.s 			page 28


 353 0fb1 99D1C090 		.ascii	"\231\321\300\220hD3\231\373t\031\341b\347\3342P\217"
 353      68443399 
 353      FB7419E1 
 353      62E7DC32 
 353      508F
 354 0fc3 4FC5D969 		.ascii	"O\305\331i\003\347\3174\016\360x\265\263\371\017\353"
 354      03E7CF34 
 354      0EF078B5 
 354      B3F90FEB 
 355 0fd3 743C9A8D 		.ascii	"t<\232\215\031\032wd\232\252\235]\374\372ue\307\366"
 355      191A7764 
 355      9AAA9D5D 
 355      FCFA7565 
 355      C7F6
 356 0fe5 2C0E8F07 		.ascii	",\016\217\007\372\231\016\217\326@\034\323\206U\316"
 356      FA990E8F 
 356      D6401CD3 
 356      8655CE
 357 0ff4 BB7B9DFF 		.ascii	"\273{\235\377\350xI>\377q\336\306"
 357      E878493E 
 357      FF71DEC6 
 358 1000 F823C566 		.ascii	"\370#\305f\035\267|w\322t\001\254\256\265\355\224B\372"
 358      1DB77C77 
 358      D27401AC 
 358      AEB5ED94 
 358      42FA
 359 1012 2524FD54 		.ascii	"%$\375Tr\322i \2169\213U.\367&\275\371\005\231\364\313"
 359      72D26920 
 359      8E398B55 
 359      2EF726BD 
 359      F90599F4 
 360 1027 B648AF6F 		.ascii	"\266H\257o\323\037\375P\017\241]v\247\264\001\005C\361"
 360      D31FFD50 
 360      0FA15D76 
 360      A7B40105 
 360      43F1
 361 1039 36F9AD17 		.ascii	"6\371\255\027\342\327\300\333\031\301\034\015w\222\372"
 361      E2D7C0DB 
 361      19C11C0D 
 361      7792FA
 362 1048 4294FC82 		.ascii	"B\224\374\202\333a\307`\231\024e-\325\364!\235\026;"
 362      DB61C760 
 362      9914652D 
 362      D5F4219D 
 362      163B
 363 105a 7809368F 		.ascii	"x\0116\217\2247\217d\260\217\034\203\321\304\035k\323"
 363      94378F64 
 363      B08F1C83 
 363      D1C41D6B 
 363      D3
 364 106b BDE2D2AD 		.ascii	"\275\342\322\255um\0020\373\353L\227u\003\351\025\034"
 364      756D0230 
 364      FBEB4C97 
 364      7503E915 
 364      1C
 365 107c 48AFE208 		.ascii	"H\257\342\010\337\215\351\367\230^\303\264\007S\311"
 365      DF8DE9F7 
ARM GAS  /tmp/ccj5wzVV.s 			page 29


 365      985EC3B4 
 365      0753C9
 366 108b 43CDE9A6 		.ascii	"C\315\351\246\364Wm\304T\023\223\251\204\024[hm\035"
 366      F4576DC4 
 366      541393A9 
 366      84145B68 
 366      6D1D
 367 109d 664B0775 		.ascii	"fK\007u\363\277\230\314NE\343\230\342\301w\242\373'"
 367      F3BF98CC 
 367      4E45E398 
 367      E2C177A2 
 367      FB27
 368 10af 350E0A87 		.ascii	"5\016\012\207cj\261\3064O/\3338\363{\3316\310\243\344"
 368      636AB1C6 
 368      344F2FDB 
 368      38F37BD9 
 368      36C8A3E4 
 369 10c3 61E5C7F3 		.ascii	"a\345\307\363S\177\277\035l\3743\365\005\351W\221\215"
 369      537FBF1D 
 369      6CFC33F5 
 369      05E95791 
 369      8D
 370 10d4 FAE46C18 		.ascii	"\372\344l\030_r\337\213Uf\232\360\361\274\314\307L["
 370      5F72DF8B 
 370      55669AF0 
 370      F1BCCCC7 
 370      4C5B
 371 10e6 7CD4CC57 		.ascii	"|\324\314W5\177\206'~<\215\324Mm\365cI+*\253\014\266"
 371      357F8627 
 371      7E3C8DD4 
 371      4D6DF563 
 371      492B2AAB 
 372 10fc D23118AD 		.ascii	"\3221\030\255\371u\255\213o\225jw\262\352\277\203i\327"
 372      F975AD8B 
 372      6F956A77 
 372      B2EABF83 
 372      69D7
 373 110e 7876B866 		.ascii	"xv\270f\241\340mn5\036\211O\026H\201\306\235\234\254"
 373      A1E06D6E 
 373      351E894F 
 373      164881C6 
 373      9D9CAC
 374 1121 9CDEAEF6 		.ascii	"\234\336\256\366\020\003<\331\337i0\3051_\030\351v\346"
 374      10033CD9 
 374      DF6930C5 
 374      315F18E9 
 374      76E6
 375 1133 9EC811F7 		.ascii	"\236\310\021\367\337\251\257\315\341\302\304\237\355"
 375      DFA9AFCD 
 375      E1C2C49F 
 375      ED
 376 1140 003A38E7 		.ascii	"\000:8\347\343\321\235\363\361\3409\037\017\261\366"
 376      E3D19DF3 
 376      F1E0391F 
 376      0FB1F6
 377 114f 3998CEC5 		.ascii	"9\230\316\305t>\246\213<6\302l\322\371\032\266r\316"
 377      743EA68B 
ARM GAS  /tmp/ccj5wzVV.s 			page 30


 377      3C36C26C 
 377      D2F91AB6 
 377      72CE
 378 1161 2765853A 		.ascii	"'e\205:\327[\241\234\200\321\012u\211R(\360\251\036"
 378      D75BA19C 
 378      80D10A75 
 378      895228F0 
 378      A91E
 379 1173 039E4385 		.ascii	"\003\236C\205\232[\215+j\262v\236\323<\213]\260\376"
 379      9A5B8D2B 
 379      6AB2769E 
 379      D33C8B5D 
 379      B0FE
 380 1185 893A659A 		.ascii	"\211:e\232\256S^\301N\251\304.\250\301t\011\246Kiw\374"
 380      AE535EC1 
 380      4EA9C42E 
 380      A8C17409 
 380      A64B6977 
 381 119a 9DD11D53 		.ascii	"\235\321\035S\276\317lp\320\213G\212m:\356\340\377\214"
 381      BECF6C70 
 381      D08B478A 
 381      6D3AEEE0 
 381      FF8C
 382 11ac D4B57EA5 		.ascii	"\324\265~\245\236\261]\216NL\032\340p\011\202cfb\225"
 382      9EB15D8E 
 382      4E4C1AE0 
 382      70098263 
 382      666295
 383 11bf 55BD9D58 		.ascii	"U\275\235XG@vb\253\222;\261)\345\261\205\257\255\212"
 383      47407662 
 383      AB923BB1 
 383      29E5B185 
 383      AFAD8A
 384 11d2 3BE372CD 		.ascii	";\343r\315\264\3339\3535\030\352\205\310\245\032\031"
 384      B4DB39EB 
 384      3518EA85 
 384      C8A51A19 
 385 11e2 3FC8EC74 		.ascii	"?\310\354t\225\256\347Vc\317\255\241\373i\315\000C?"
 385      95AEE756 
 385      63CFADA1 
 385      FB69CD00 
 385      433F
 386 11f4 99B597E0 		.ascii	"\231\265\227\340Ln\303q50\223\3773\310z#^-\365\177@"
 386      4C6EC371 
 386      353093FF 
 386      33C87A23 
 386      5E2DF57F 
 387 1209 CC003313 		.ascii	"\314\0003\0231p^\027\025\\\304\250\340k\034\375\313"
 387      31705E17 
 387      155CC4A8 
 387      E06B1CFD 
 387      CB
 388 121a 51E99661 		.ascii	"Q\351\226a\272\236fi\233\326\371\246\3414.\201z\264"
 388      BA9E6669 
 388      9BD6F9A6 
 388      E1342E81 
 388      7AB4
ARM GAS  /tmp/ccj5wzVV.s 			page 31


 389 122c F0DE6C97 		.ascii	"\360\336l\227\245\366a\262s~,\336g\017\3236\003!\243"
 389      A5F661B2 
 389      737E2CDE 
 389      670FD336 
 389      0321A3
 390 123f C7E91ECB 		.ascii	"\307\351\036\313f\217\371\036\213\372\177\352\254\352"
 390      668FF91E 
 390      8BFA7FEA 
 390      ACEA
 391 124d 6DF298EF 		.ascii	"m\362\230\357\261\310\323\011\253Z[\342\265\354F\373"
 391      B1C8D309 
 391      AB5A5BE2 
 391      B5EC46FB 
 392 125d 8DDB4FFD 		.ascii	"\215\333O\375\273\034\354oE\033\332nnC\211w\273\353"
 392      BB1CEC6F 
 392      451BDA6E 
 392      6E438977 
 392      BBEB
 393 126f 3DC62366 		.ascii	"=\306#f\255\270@Vo\313x\256\266\316U\"\000y'\263\011"
 393      ADB84056 
 393      6FCB78AE 
 393      B6CE5522 
 393      007927B3 
 394 1284 49A84FCD 		.ascii	"I\250O\315a\003^\267\354\260e\260\017\034\203eR`\327"
 394      61035EB7 
 394      ECB065B0 
 394      0F1C8365 
 394      5260D7
 395 1297 F460CD76 		.ascii	"\364`\315v\300\022\354OW\265\351\300>t\014FS6[\017\326"
 395      C012EC4F 
 395      57B5E9C0 
 395      3E740C46 
 395      53365B0F 
 396 12ac 6E072CC1 		.ascii	"n\007,\301\336\364\3348\030\317\3767\256z:\001\243)"
 396      DEF4DC38 
 396      18CFFE37 
 396      AE7A3A01 
 396      A329
 397 12be 9BAFA7EC 		.ascii	"\233\257\247\354c;\224\331\237/\324\353\\\3336tm\015"
 397      633B94D9 
 397      9F2FD4EB 
 397      5CDB3674 
 397      6D0D
 398 12d0 E80DB663 		.ascii	"\350\015\266c\272\003\323FLwb\372\036\246\357\353}\205"
 398      BA03D346 
 398      4C7762FA 
 398      1EA6EFEB 
 398      7D85
 399 12e2 C1A0B65A 		.ascii	"\301\240\266Z\220FZ\333\343\261\336o\224W\364\255j\356"
 399      90465ADB 
 399      E3B1DE6F 
 399      9457F4AD 
 399      6AEE
 400 12f4 F5D09B40 		.ascii	"\365\320\233@\347:\346m\354\272s\035\211\241\310\232"
 400      E73AE66D 
 400      ECBA731D 
 400      89A1C89A 
ARM GAS  /tmp/ccj5wzVV.s 			page 32


 401 1304 DDE4290E 		.ascii	"\335\344)\016v\016\366y\014\313Pm\234a\277\224c\246"
 401      760EF679 
 401      0CCB506D 
 401      9C61BF94 
 401      63A6
 402 1316 DD68BA71 		.ascii	"\335h\272q\323&<\256\026?\201\241K\223\307j\343F\031"
 402      D3263CAE 
 402      163F81A1 
 402      4B93C76A 
 402      E34619
 403 1329 90946D92 		.ascii	"\220\224m\222\243\3223\267j;7\244\022\325\013\007<\324"
 403      A3D233B7 
 403      6A3B37A4 
 403      12D50B07 
 403      3CD4
 404 133b 8290412E 		.ascii	"\202\220A.\237&\220\313\301\204\022=\231\240\346!K\227"
 404      9F2690CB 
 404      C184123D 
 404      99A0E621 
 404      4B97
 405 134d D892A056 		.ascii	"\330\222\240V\263e\255\306\004\265\016\307k1w\014\036"
 405      B365ADC6 
 405      04B50EC7 
 405      6B31770C 
 405      1E
 406 135e 9C25FF15 		.ascii	"\234%\377\025G\263\012\370\302\254P8XX\232'\220| *D"
 406      47B30AF8 
 406      C2AC5038 
 406      58589A27 
 406      907C202A 
 407 1373 427CE1E0 		.ascii	"B|\341\340\002&=\007s\243\"\241\361B\304\373\330S\317"
 407      02263D07 
 407      73A322A1 
 407      F142C4FB 
 407      D853CF
 408 1386 668E64FA 		.ascii	"f\216d\372\351\357=\367\344\230aY\245\321HVa(7+?\030"
 408      E9EF3DF7 
 408      E4986159 
 408      A5D14856 
 408      6128372B 
 409 139c CCE22345 		.ascii	"\314\342#E\367\204\213\303\302=\002\237\033\312\272"
 409      F7848BC3 
 409      C23D029F 
 409      1BCABA
 410 13ab 77F088C1 		.ascii	"w\360\210\301\3034\350\250\230\227'\214\005Xo4\364\007"
 410      C334E8A8 
 410      9897278C 
 410      05586F34 
 410      F407
 411 13bd 2120FE0C 		.ascii	"! \376\014k\252O\303\302\004\002\002\205Ba\021\012\371"
 411      6BAA4FC3 
 411      C2040202 
 411      85426111 
 411      0AF9
 412 13cf 4AE17B44 		.ascii	"J\341{D@\274\307\254T\021\037,\010\205\205\254\000\000"
 412      40BCC7AC 
 412      54111F2C 
ARM GAS  /tmp/ccj5wzVV.s 			page 33


 412      088585AC 
 412      0000
 413 13e1 F2A58562 		.ascii	"\362\245\205b@\234T\"D\241\226?\020P\352y&DB\242\340"
 413      409C5422 
 413      44A1963F 
 413      1050EA79 
 413      264442A2 
 414 13f6 8E087CDE 		.ascii	"\216\010|\336\010=\263\301\342\242\242\342pVIqD\214"
 414      083DB3C1 
 414      E2A2A2E2 
 414      70564971 
 414      448C
 415 1408 663D92FD 		.ascii	"f=\222\375\344\310''\222{%\241B!\022\315zl\344\310\254"
 415      E4C82727 
 415      927B25A1 
 415      422112CD 
 415      7A6CE4C8 
 416 141d 60818AE6 		.ascii	"`\201\212\346)\212\346\007D\037\000\016\037\026\020"
 416      298AE607 
 416      441F000E 
 416      1F1610
 417 142c 015BC9B9 		.ascii	"\001[\311\271JJEW\276 \336\256\007\216\210\032\225\301"
 417      4A4A4557 
 417      BE20DEAE 
 417      078E881A 
 417      95C1
 418 143e 82E8A4A8 		.ascii	"\202\350\244\250F\022\311\207\212\200\3414B\332\320"
 418      4612C987 
 418      8A80E134 
 418      42DAD0
 419 144d FB02621F 		.ascii	"\373\002b\037\231J\222u\003\224\350\006,\321\213\004"
 419      994A9275 
 419      0394E806 
 419      2CD18B04 
 420 145d 8B1E42B1 		.ascii	"\213\036B\261\350\032_$\376\302\022]\030/\204E\202\235"
 420      E81A5F24 
 420      FEC2125D 
 420      182F8445 
 420      829D
 421 146f 81B940B4 		.ascii	"\201\271@\264\2704\022\204\006\322\365?\373\313?\012"
 421      B8341284 
 421      06D2F53F 
 421      FBCB3F0A 
 422 147f 43515108 		.ascii	"CQQ\010\013\221\200\230A\337p\207\205\211b\232X@\332"
 422      0B918098 
 422      41DF7087 
 422      8589629A 
 422      5840DA
 423 1492 03E68205 		.ascii	"\003\346\202\005\0019\237i\315T\260 \017\032\355'\227"
 423      01399F69 
 423      CD54B020 
 423      0F1AED27 
 423      97
 424 14a3 8B06C695 		.ascii	"\213\006\306\225\012\245\320j\177\255\252r\313]\022"
 424      0AA5D06A 
 424      7FADAA72 
 424      CB5D12
ARM GAS  /tmp/ccj5wzVV.s 			page 34


 425 14b2 11C67B30 		.ascii	"\021\306{0\353\023K\"\241b\205u\":\205u\222u\223G\351"
 425      EB134B22 
 425      A1628575 
 425      223A8575 
 425      92759347 
 426 14c7 A42302C1 		.ascii	"\244#\002\301\342\260\010\324\374*iG\025\004\213#\002"
 426      E2B008D4 
 426      FC2A6947 
 426      15048B23 
 426      02
 427 14d8 D0D017AB 		.ascii	"\320\320\027\253\001PP\234x\217\275Z\201\361\367\027"
 427      0150509C 
 427      788FBD5A 
 427      81F1F717 
 428 14e8 41CDB488 		.ascii	"A\315\264\210\220\017Z\032\020\271\310\275\\\344\357"
 428      900F5A1A 
 428      10B9C8BD 
 428      5CE4EF
 429 14f7 B9C87D5C 		.ascii	"\271\310}\\\344~.2\202\213<\340\212\014\035\002\327"
 429      E47E2E32 
 429      828B3CE0 
 429      8A0C1D02 
 429      D7
 430 1508 50AE30C2 		.ascii	"P\2560\302EK\\\000\355\001}\023\"\236\342\302<\220W"
 430      454B5C00 
 430      ED017D13 
 430      229EE2C2 
 430      3C9057
 431 151b B08007A1 		.ascii	"\260\200\007\241\361EB\237\250\370\022_\030\312\017"
 431      F145429F 
 431      A8F8125F 
 431      18CA0F
 432 152a 2B7CDD77 		.ascii	"+|\335w\257\306\027\311z'\360\271|TH\023\243\"/\202"
 432      AFC617C9 
 432      7A27F0B9 
 432      7C544813 
 432      A3222F82 
 433 153e 7C3CF8ED 		.ascii	"|<\370\355\023\213\212\363\310\257\261\205|~\324'F\204"
 433      138B8AF3 
 433      C8AFB185 
 433      7C7ED427 
 433      4684
 434 1550 B1519001 		.ascii	"\261Q\220\001\371\362F\362&\201\246\245\011\023Cb\020"
 434      F9F246F2 
 434      2681A6A5 
 434      09134362 
 434      10
 435 1561 0A792788 		.ascii	"\012y'\210\305\271\377Yr\243\3227PD\210\010a\322\301"
 435      C5B9FF59 
 435      72A3D237 
 435      50448808 
 435      61D2C1
 436 1574 9E09A218 		.ascii	"\236\011\242\030)\361E\241\037\241B:\010>*\024\361%"
 436      29F145A1 
 436      1FA1423A 
 436      083E2A14 
 436      F125
ARM GAS  /tmp/ccj5wzVV.s 			page 35


 437 1586 05C0DE20 		.ascii	"\005\300\336 \353n\023\010\337\236 \364\275\350\202"
 437      EB6E1308 
 437      DF9E20F4 
 437      BDE882
 438 1595 14E0E156 		.ascii	"\024\340\341VI\032\324.*\005\261[\327,\022'\222\232"
 438      491AD42E 
 438      2A05B15B 
 438      D72C1227 
 438      929A
 439 15a7 C513405D 		.ascii	"\305\023@]|X\226p'\302\355\222\276\250LE|\364%\270%"
 439      7C589670 
 439      27C2ED92 
 439      BEA84C45 
 439      7CF425B8 
 440 15bc 4C2019B6 		.ascii	"L \031\2664CU\003\242c\001\261\237N1\310\035\337\004"
 440      34435503 
 440      A26301B1 
 440      9F4E31C8 
 440      1DDF04
 441 15cf 3E2486C2 		.ascii	">$\206\302\371i@;jG\232P\"\204\301\336\363}\000IJ@\347"
 441      F969403B 
 441      6A479A50 
 441      2284C1DE 
 441      F37D0049 
 442 15e6 F085442D 		.ascii	"\360\205D-<E%\305\305\205i\252\256ze\215\227\365\033"
 442      3C4525C5 
 442      C58569AA 
 442      AE7A658D 
 442      97F51B
 443 15f9 054808C1 		.ascii	"\005H\010\301\214\007\357\371\243y\212\264\3759\243"
 443      8C07EFF9 
 443      A3798AB4 
 443      FD39A3
 444 1608 02CF3E35 		.ascii	"\002\317>5\372\251\321c|\220\313\031\363\3643i\360\235"
 444      FAA9D163 
 444      7C90CB19 
 444      F3F43369 
 444      F09D
 445 161a FD4F8F8C 		.ascii	"\375O\217\214\372]B\247\207\004\021\233\272!\024\006"
 445      FA5D42A7 
 445      8704119B 
 445      BA211406 
 446 162a 9B5495BB 		.ascii	"\233T\225\273\017h\257\222MS\263\376q\001\205\023\310"
 446      0F68AF92 
 446      4D53B3FE 
 446      71018513 
 446      C8
 447 163b 058B4B41 		.ascii	"\005\213KAw#i\343\002\271\245c\241\243<\343\002bq\211"
 447      772369E3 
 447      02B9A563 
 447      A1A33CE3 
 447      02627189 
 448 164f 0F8A444A 		.ascii	"\017\212DJ\304\010|G\362\340\333?.\\,\206\306N\002\224"
 448      C4087C47 
 448      F2E0DB3F 
 448      2E5C2C86 
 448      C64E0294 
ARM GAS  /tmp/ccj5wzVV.s 			page 36


 449 1663 710139EB 		.ascii	"q\0019\353\035\007B\011\277\344\015!fFq\251\250k\326"
 449      1D074209 
 449      BFE40D21 
 449      664671A9 
 449      A86BD6
 450 1676 5B8C192E 		.ascii	"[\214\031.\224\313\025\347\232\371/\260\226\254\221"
 450      94CB15E7 
 450      9AF92FB0 
 450      96AC91
 451 1685 4FE68CCE 		.ascii	"O\346\214\316\311\312\031\003\177O\016\037\366\317C"
 451      C9CA1903 
 451      7F4F0E1F 
 451      F6CF43
 452 1694 274E04F7 		.ascii	"'N\004\367Y4|\330\330\241C\206L\314%\254<\233\363H\366"
 452      59347CD8 
 452      D8A14386 
 452      4CCC25AC 
 452      3C9BF348 
 453 16a9 98C018F0 		.ascii	"\230\300\030\360D\243\204\261\\N67*\333\365hv\266kd"
 453      44A384B1 
 453      5C4E3637 
 453      2ADBF568 
 453      76B66B64 
 454 16bd F650B886 		.ascii	"\366P\270\206\3015\334\375\330\230g\262=\245Q>\"z#\023"
 454      C135DCFD 
 454      D89867B2 
 454      3DA5513E 
 454      227A2313 
 455 16d1 493F3E60 		.ascii	"I?>`\024\223lL\330H\326\023O\214\312B\324\361CucE\240"
 455      14936C4C 
 455      D848D613 
 455      4F8CCA42 
 455      D4F14375 
 456 16e8 B0907806 		.ascii	"\260\220x\006O\264D\020\362\\\301\310P\270\206\3015"
 456      4FB44410 
 456      F25CC1C8 
 456      50B886C1 
 456      35
 457 16f9 5C194146 		.ascii	"\\\031AF\026\207\307\206\240\227\371Pxp\220\361\215"
 457      1687C786 
 457      A097F950 
 457      787090F1 
 457      8D
 458 170a 41A518E6 		.ascii	"A\245\030\346\342#\371J~\350\337Z*\241\242A\000\337"
 458      E223F94A 
 458      7EE8DF5A 
 458      2AA1A241 
 458      00DF
 459 171c 275830A6 		.ascii	"'X0\246 /\247P\020J\006j\305E!*\342\360C\224\015\362"
 459      202FA750 
 459      104A066A 
 459      C545212A 
 459      E2F04394 
 460 1732 50EE9709 		.ascii	"P\356\227\011\0077\260<\276\210\300\335\364(Xi\216\000"
 460      0737B03C 
 460      BE88C0DD 
 460      F4285869 
ARM GAS  /tmp/ccj5wzVV.s 			page 37


 460      8E00
 461 1744 820E8B40 		.ascii	"\202\016\213@c\016>\370\251\331M\030\346\322\011v@\230"
 461      630E3EF8 
 461      A9D94D18 
 461      E6D20976 
 461      4098
 462 1756 28044B89 		.ascii	"(\004K\211-\217-\015\007\003\342\000$h$\024\021\205"
 462      2D8F2D0D 
 462      0703E200 
 462      24682414 
 462      1185
 463 1768 1C50BF50 		.ascii	"\034P\277P\320\027\315\203LDL`\215\223pP\010\026\344"
 463      D017CD83 
 463      4C444C60 
 463      8D937050 
 463      0816E4
 464 177b 4C8A8E0E 		.ascii	"L\212\216\016\207\304\277I@,\031\006\341\213\024s\345"
 464      87C4BF49 
 464      402C1906 
 464      E18B1473 
 464      E5
 465 178c 8C1AEA9F 		.ascii	"\214\032\352\237\300+\222\323rC\373\022\037\000\003"
 465      C02B92D3 
 465      7243FB12 
 465      1F0003
 466 179b 8C5024FB 		.ascii	"\214P$\373p9\237N\236MR\314\360\006\270\035\377\355"
 466      70399F4E 
 466      9E4D52CC 
 466      F006B81D 
 466      FFED
 467 17ad 0B9646C0 		.ascii	"\013\226F\300\233\3008C~\335<>\024\021KA,d\204\212\250"
 467      9BC03843 
 467      7EDD3C3E 
 467      14114B41 
 467      2C64848A 
 468 17c2 867B0BD4 		.ascii	"\206{\013\3240y\320\217\272';~\352\226"
 468      3079D08F 
 468      BA273B7E 
 468      EA96
 469 17d0 274F2814 		.ascii	"'O(\024\371\264\361\212x\334\344\313U\302G\322\012\371"
 469      F9B4F18A 
 469      78DCE4CB 
 469      55C247D2 
 469      0AF9
 470 17e2 A8484A78 		.ascii	"\250HJx\307\213\004(C\2418O\310-\315\227\375\204\376"
 470      C78B0428 
 470      43A1384F 
 470      C82DCD97 
 470      FD84FE
 471 17f5 8EBF840F 		.ascii	"\216\277\204\017\207\202\001\360\022\256\274\334\374"
 471      878201F0 
 471      12AEBCDC 
 471      FC
 472 1802 3E446B64 		.ascii	">Dkd%\340\202\005\351\217=3\372iU\243A\177\237\200\353"
 472      25E08205 
 472      E98F3D33 
 472      FA6955A3 
ARM GAS  /tmp/ccj5wzVV.s 			page 38


 472      417F9F80 
 473 1817 71D768D0 		.ascii	"q\327h\320\353\247Ge\273\037\315\311\316v?1\362\267"
 473      EBA74765 
 473      BB1FCDC9 
 473      CE763F31 
 473      F2B7
 474 1829 D9D62333 		.ascii	"\331\326#3\270\177\240 2\011d{c\260 [\310\317\021DY"
 474      B87FA020 
 474      3209647B 
 474      63B0205B 
 474      C8CF1144 
 475 183e 964F816B 		.ascii	"\226O\201k\377\177\230\257Y\275"
 475      FF7F98AF 
 475      59BD
 476              		.text
 477              		.section	.gnu.lto_.symtab.19f1acc143f56601,"",%progbits
 478 0000 6D61696E 		.ascii	"main\000\000\000\000\000\000\000\000\000\000\000\000"
 478      00000000 
 478      00000000 
 478      00000000 
 479 0010 37020000 		.ascii	"7\002\000\000ch\000\000\002\000\000\000\000\000\000"
 479      63680000 
 479      02000000 
 479      000000
 480 001f 0000006D 		.ascii	"\000\000\000m\002\000\000SD1\000\000\002\000\000\000"
 480      02000053 
 480      44310000 
 480      02000000 
 481 002f 00000000 		.ascii	"\000\000\000\000\000\000g\002\000\000chThdSleep\000"
 481      00006702 
 481      00006368 
 481      54686453 
 481      6C656570 
 482 0044 00020000 		.ascii	"\000\002\000\000\000\000\000\000\000\000\000:\002\000"
 482      00000000 
 482      0000003A 
 482      0200
 483 0052 00746573 		.ascii	"\000test_execute\000\000\002\000\000\000\000\000\000"
 483      745F6578 
 483      65637574 
 483      65000002 
 483      00000000 
 484 0068 0000003E 		.ascii	"\000\000\000>\002\000\000chThdCreateStatic\000\000\002"
 484      02000063 
 484      68546864 
 484      43726561 
 484      74655374 
 485 0083 00000000 		.ascii	"\000\000\000\000\000\000\000\000\000R\002\000\000sd"
 485      00000000 
 485      00520200 
 485      007364
 486 0092 53746172 		.ascii	"Start\000\000\002\000\000\000\000\000\000\000\000\000"
 486      74000002 
 486      00000000 
 486      00000000 
 486      00
 487 00a3 5D020000 		.ascii	"]\002\000\000chSysInit\000\000\002\000\000\000\000\000"
ARM GAS  /tmp/ccj5wzVV.s 			page 39


 487      63685379 
 487      73496E69 
 487      74000002 
 487      00000000 
 488 00b8 00000000 		.ascii	"\000\000\000\000b\002\000\000halInit\000\000\002\000"
 488      62020000 
 488      68616C49 
 488      6E697400 
 488      000200
 489 00cb 00000000 		.ascii	"\000\000\000\000\000\000\000\000e\002\000\000"
 489      00000000 
 489      65020000 
 490              		.text
 491              		.section	.gnu.lto_.opts,"",%progbits
 492 0000 272D6D63 		.ascii	"'-mcpu=cortex-m3' '-mno-thumb-interwork' '-mthumb' "
 492      70753D63 
 492      6F727465 
 492      782D6D33 
 492      2720272D 
 493 0033 272D6767 		.ascii	"'-ggdb' '-O2' '-fomit-frame-pointer' '-falign-funct"
 493      64622720 
 493      272D4F32 
 493      2720272D 
 493      666F6D69 
 494 0066 696F6E73 		.ascii	"ions=16' '-ffunction-sections' '-fdata-sections' '-"
 494      3D313627 
 494      20272D66 
 494      66756E63 
 494      74696F6E 
 495 0099 666E6F2D 		.ascii	"fno-common' '-flto'\000"
 495      636F6D6D 
 495      6F6E2720 
 495      272D666C 
 495      746F2700 
 496              		.text
 497              		.cfi_sections	.debug_frame
 498              		.section	.text.Thread2,"ax",%progbits
 499              		.align	2
 500              		.p2align 4,,15
 501              		.thumb
 502              		.thumb_func
 503              		.type	Thread2, %function
 504              	Thread2:
 505              	.LFB220:
 506              		.file 1 "main.c"
 507              		.loc 1 42 0
 508              		.cfi_startproc
 509              		@ Volatile: function does not return.
 510              		@ args = 0, pretend = 0, frame = 0
 511              		@ frame_needed = 0, uses_anonymous_args = 0
 512              	.LVL0:
 513 0000 08B5     		push	{r3, lr}
 514              		.cfi_def_cfa_offset 8
 515              		.cfi_offset 3, -8
 516              		.cfi_offset 14, -4
 517              	.LBB6:
 518              	.LBB7:
ARM GAS  /tmp/ccj5wzVV.s 			page 40


 519              		.file 2 "../../../os/rt/include/chregistry.h"
 520              		.loc 2 136 0
 521 0002 40F20003 		movw	r3, #:lower16:ch
 522 0006 C0F20003 		movt	r3, #:upper16:ch
 523 000a 9A69     		ldr	r2, [r3, #24]
 524 000c 40F20003 		movw	r3, #:lower16:.LC0
 525 0010 C0F20003 		movt	r3, #:upper16:.LC0
 526              	.LBE7:
 527              	.LBE6:
 528              		.loc 1 48 0
 529 0014 4FF48054 		mov	r4, #4096
 530 0018 4FF40075 		mov	r5, #512
 531              	.LBB9:
 532              	.LBB8:
 533              		.loc 2 136 0
 534 001c 9361     		str	r3, [r2, #24]
 535              	.LBE8:
 536              	.LBE9:
 537              		.loc 1 48 0
 538 001e C4F20104 		movt	r4, 16385
 539 0022 2E46     		mov	r6, r5
 540              	.LVL1:
 541              	.L2:
 542              		.loc 1 48 0 is_stmt 0 discriminator 1
 543 0024 2661     		str	r6, [r4, #16]
 544              		.loc 1 49 0 is_stmt 1 discriminator 1
 545 0026 4FF4FA70 		mov	r0, #500
 546 002a FFF7FEFF 		bl	chThdSleep
 547              	.LVL2:
 548              		.loc 1 50 0 discriminator 1
 549 002e 6561     		str	r5, [r4, #20]
 550              		.loc 1 51 0 discriminator 1
 551 0030 4FF4FA70 		mov	r0, #500
 552 0034 FFF7FEFF 		bl	chThdSleep
 553              	.LVL3:
 554 0038 F4E7     		b	.L2
 555              		.cfi_endproc
 556              	.LFE220:
 557              		.size	Thread2, .-Thread2
 558 003a 00BFAFF3 		.section	.text.Thread1,"ax",%progbits
 558      0080
 559              		.align	2
 560              		.p2align 4,,15
 561              		.thumb
 562              		.thumb_func
 563              		.type	Thread1, %function
 564              	Thread1:
 565              	.LFB219:
 566              		.loc 1 25 0
 567              		.cfi_startproc
 568              		@ Volatile: function does not return.
 569              		@ args = 0, pretend = 0, frame = 0
 570              		@ frame_needed = 0, uses_anonymous_args = 0
 571              	.LVL4:
 572 0000 08B5     		push	{r3, lr}
 573              		.cfi_def_cfa_offset 8
 574              		.cfi_offset 3, -8
ARM GAS  /tmp/ccj5wzVV.s 			page 41


 575              		.cfi_offset 14, -4
 576              	.LBB10:
 577              	.LBB11:
 578              		.loc 2 136 0
 579 0002 40F20003 		movw	r3, #:lower16:ch
 580 0006 C0F20003 		movt	r3, #:upper16:ch
 581 000a 9A69     		ldr	r2, [r3, #24]
 582 000c 40F20003 		movw	r3, #:lower16:.LC0
 583 0010 C0F20003 		movt	r3, #:upper16:.LC0
 584              	.LBE11:
 585              	.LBE10:
 586              		.loc 1 31 0
 587 0014 4FF48054 		mov	r4, #4096
 588 0018 4FF48075 		mov	r5, #256
 589              	.LBB13:
 590              	.LBB12:
 591              		.loc 2 136 0
 592 001c 9361     		str	r3, [r2, #24]
 593              	.LBE12:
 594              	.LBE13:
 595              		.loc 1 31 0
 596 001e C4F20104 		movt	r4, 16385
 597 0022 2E46     		mov	r6, r5
 598              	.LVL5:
 599              	.L5:
 600              		.loc 1 31 0 is_stmt 0 discriminator 1
 601 0024 2661     		str	r6, [r4, #16]
 602              		.loc 1 32 0 is_stmt 1 discriminator 1
 603 0026 FA20     		movs	r0, #250
 604 0028 FFF7FEFF 		bl	chThdSleep
 605              	.LVL6:
 606              		.loc 1 33 0 discriminator 1
 607 002c 6561     		str	r5, [r4, #20]
 608              		.loc 1 34 0 discriminator 1
 609 002e FA20     		movs	r0, #250
 610 0030 FFF7FEFF 		bl	chThdSleep
 611              	.LVL7:
 612 0034 F6E7     		b	.L5
 613              		.cfi_endproc
 614              	.LFE219:
 615              		.size	Thread1, .-Thread1
 616 0036 00BFAFF3 		.section	.text.startup.main,"ax",%progbits
 616      0080AFF3 
 616      0080
 617              		.align	2
 618              		.p2align 4,,15
 619              		.global	main
 620              		.thumb
 621              		.thumb_func
 622              		.type	main, %function
 623              	main:
 624              	.LFB221:
 625              		.loc 1 58 0
 626              		.cfi_startproc
 627              		@ Volatile: function does not return.
 628              		@ args = 0, pretend = 0, frame = 0
 629              		@ frame_needed = 0, uses_anonymous_args = 0
ARM GAS  /tmp/ccj5wzVV.s 			page 42


 630 0000 00B5     		push	{lr}
 631              		.cfi_def_cfa_offset 4
 632              		.cfi_offset 14, -4
 633 0002 83B0     		sub	sp, sp, #12
 634              		.cfi_def_cfa_offset 16
 635              		.loc 1 67 0
 636 0004 FFF7FEFF 		bl	halInit
 637              	.LVL8:
 638              		.loc 1 68 0
 639 0008 FFF7FEFF 		bl	chSysInit
 640              	.LVL9:
 641              		.loc 1 74 0
 642 000c 40F20000 		movw	r0, #:lower16:SD1
 643 0010 C0F20000 		movt	r0, #:upper16:SD1
 644 0014 0021     		movs	r1, #0
 645 0016 FFF7FEFF 		bl	sdStart
 646              	.LVL10:
 647              		.loc 1 79 0
 648 001a 0024     		movs	r4, #0
 649 001c 40F20000 		movw	r0, #:lower16:.LANCHOR0
 650 0020 40F20003 		movw	r3, #:lower16:Thread1
 651 0024 0094     		str	r4, [sp]
 652 0026 C0F20003 		movt	r3, #:upper16:Thread1
 653 002a 4FF4A471 		mov	r1, #328
 654 002e 8122     		movs	r2, #129
 655 0030 C0F20000 		movt	r0, #:upper16:.LANCHOR0
 656 0034 FFF7FEFF 		bl	chThdCreateStatic
 657              	.LVL11:
 658              		.loc 1 80 0
 659 0038 40F20000 		movw	r0, #:lower16:.LANCHOR1
 660 003c 40F20003 		movw	r3, #:lower16:Thread2
 661 0040 0094     		str	r4, [sp]
 662 0042 C0F20000 		movt	r0, #:upper16:.LANCHOR1
 663 0046 C0F20003 		movt	r3, #:upper16:Thread2
 664 004a 4FF4A471 		mov	r1, #328
 665 004e 8122     		movs	r2, #129
 666              		.loc 1 88 0
 667 0050 4FF40064 		mov	r4, #2048
 668              		.loc 1 80 0
 669 0054 FFF7FEFF 		bl	chThdCreateStatic
 670              	.LVL12:
 671              		.loc 1 88 0
 672 0058 C4F20104 		movt	r4, 16385
 673 005c 03E0     		b	.L8
 674              	.L7:
 675              		.loc 1 90 0
 676 005e 4FF4FA70 		mov	r0, #500
 677 0062 FFF7FEFF 		bl	chThdSleep
 678              	.LVL13:
 679              	.L8:
 680              		.loc 1 88 0
 681 0066 A368     		ldr	r3, [r4, #8]
 682 0068 DB07     		lsls	r3, r3, #31
 683 006a F8D5     		bpl	.L7
 684              		.loc 1 89 0
 685 006c 40F20000 		movw	r0, #:lower16:SD1
 686 0070 C0F20000 		movt	r0, #:upper16:SD1
ARM GAS  /tmp/ccj5wzVV.s 			page 43


 687 0074 FFF7FEFF 		bl	test_execute
 688              	.LVL14:
 689 0078 F1E7     		b	.L7
 690              		.cfi_endproc
 691              	.LFE221:
 692              		.size	main, .-main
 693 007a 00BFAFF3 		.section	.bss.waThread1,"aw",%nobits
 693      0080
 694              		.align	3
 695              		.set	.LANCHOR0,. + 0
 696              		.type	waThread1, %object
 697              		.size	waThread1, 328
 698              	waThread1:
 699 0000 00000000 		.space	328
 699      00000000 
 699      00000000 
 699      00000000 
 699      00000000 
 700              		.section	.bss.waThread2,"aw",%nobits
 701              		.align	3
 702              		.set	.LANCHOR1,. + 0
 703              		.type	waThread2, %object
 704              		.size	waThread2, 328
 705              	waThread2:
 706 0000 00000000 		.space	328
 706      00000000 
 706      00000000 
 706      00000000 
 706      00000000 
 707              		.section	.rodata.str1.4,"aMS",%progbits,1
 708              		.align	2
 709              	.LC0:
 710 0000 626C696E 		.ascii	"blinker\000"
 710      6B657200 
 711              		.text
 712              	.Letext0:
 713              		.file 3 "/usr/lib/gcc/arm-none-eabi/4.8.2/include/stddef.h"
 714              		.file 4 "/usr/include/newlib/machine/_default_types.h"
 715              		.file 5 "/usr/include/newlib/stdint.h"
 716              		.file 6 "../../../os/common/ports/ARMCMx/compilers/GCC/chtypes.h"
 717              		.file 7 "../../../os/rt/include/chsystypes.h"
 718              		.file 8 "../../../os/rt/include/chschd.h"
 719              		.file 9 "../../../os/common/ext/CMSIS/ST/STM32F1xx/stm32f100xb.h"
 720              		.file 10 "../../../os/common/ports/ARMCMx/chcore.h"
 721              		.file 11 "../../../os/common/ports/ARMCMx/chcore_v7m.h"
 722              		.file 12 "../../../os/rt/include/chsem.h"
 723              		.file 13 "../../../os/rt/include/chmtx.h"
 724              		.file 14 "../../../os/rt/include/chthreads.h"
 725              		.file 15 "../../../os/rt/include/chevents.h"
 726              		.file 16 "../../../os/hal/include/hal_streams.h"
 727              		.file 17 "../../../os/hal/include/hal_queues.h"
 728              		.file 18 "../../../os/hal/ports/STM32/LLD/GPIOv1/hal_pal_lld.h"
 729              		.file 19 "../../../os/hal/include/hal_serial.h"
 730              		.file 20 "../../../os/hal/ports/STM32/LLD/USARTv1/hal_serial_lld.h"
 731              		.file 21 "../../../os/hal/include/hal.h"
 732              		.file 22 "../../../os/rt/include/chsys.h"
 733              		.file 23 "../../../test/lib/ch_test.h"
ARM GAS  /tmp/ccj5wzVV.s 			page 44


 734              		.file 24 "../../../os/common/ext/CMSIS/include/core_cm3.h"
 735              		.section	.debug_info,"",%progbits
 736              	.Ldebug_info0:
 737 0000 9A0D0000 		.4byte	0xd9a
 738 0004 0400     		.2byte	0x4
 739 0006 00000000 		.4byte	.Ldebug_abbrev0
 740 000a 04       		.byte	0x4
 741 000b 01       		.uleb128 0x1
 742 000c A3030000 		.4byte	.LASF150
 743 0010 01       		.byte	0x1
 744 0011 36000000 		.4byte	.LASF151
 745 0015 82040000 		.4byte	.LASF152
 746 0019 30000000 		.4byte	.Ldebug_ranges0+0x30
 747 001d 00000000 		.4byte	0
 748 0021 00000000 		.4byte	.Ldebug_line0
 749 0025 02       		.uleb128 0x2
 750 0026 04       		.byte	0x4
 751 0027 05       		.byte	0x5
 752 0028 696E7400 		.ascii	"int\000"
 753 002c 03       		.uleb128 0x3
 754 002d 50020000 		.4byte	.LASF2
 755 0031 03       		.byte	0x3
 756 0032 D4       		.byte	0xd4
 757 0033 37000000 		.4byte	0x37
 758 0037 04       		.uleb128 0x4
 759 0038 04       		.byte	0x4
 760 0039 07       		.byte	0x7
 761 003a 8E000000 		.4byte	.LASF0
 762 003e 04       		.uleb128 0x4
 763 003f 01       		.byte	0x1
 764 0040 06       		.byte	0x6
 765 0041 78060000 		.4byte	.LASF1
 766 0045 03       		.uleb128 0x3
 767 0046 59050000 		.4byte	.LASF3
 768 004a 04       		.byte	0x4
 769 004b 1C       		.byte	0x1c
 770 004c 50000000 		.4byte	0x50
 771 0050 04       		.uleb128 0x4
 772 0051 01       		.byte	0x1
 773 0052 08       		.byte	0x8
 774 0053 16060000 		.4byte	.LASF4
 775 0057 04       		.uleb128 0x4
 776 0058 02       		.byte	0x2
 777 0059 05       		.byte	0x5
 778 005a 04050000 		.4byte	.LASF5
 779 005e 03       		.uleb128 0x3
 780 005f FC010000 		.4byte	.LASF6
 781 0063 04       		.byte	0x4
 782 0064 26       		.byte	0x26
 783 0065 69000000 		.4byte	0x69
 784 0069 04       		.uleb128 0x4
 785 006a 02       		.byte	0x2
 786 006b 07       		.byte	0x7
 787 006c 93060000 		.4byte	.LASF7
 788 0070 03       		.uleb128 0x3
 789 0071 CF000000 		.4byte	.LASF8
 790 0075 04       		.byte	0x4
ARM GAS  /tmp/ccj5wzVV.s 			page 45


 791 0076 37       		.byte	0x37
 792 0077 7B000000 		.4byte	0x7b
 793 007b 04       		.uleb128 0x4
 794 007c 04       		.byte	0x4
 795 007d 05       		.byte	0x5
 796 007e 15050000 		.4byte	.LASF9
 797 0082 03       		.uleb128 0x3
 798 0083 24060000 		.4byte	.LASF10
 799 0087 04       		.byte	0x4
 800 0088 38       		.byte	0x38
 801 0089 8D000000 		.4byte	0x8d
 802 008d 04       		.uleb128 0x4
 803 008e 04       		.byte	0x4
 804 008f 07       		.byte	0x7
 805 0090 C0050000 		.4byte	.LASF11
 806 0094 04       		.uleb128 0x4
 807 0095 08       		.byte	0x8
 808 0096 05       		.byte	0x5
 809 0097 40030000 		.4byte	.LASF12
 810 009b 03       		.uleb128 0x3
 811 009c 75020000 		.4byte	.LASF13
 812 00a0 04       		.byte	0x4
 813 00a1 4E       		.byte	0x4e
 814 00a2 A6000000 		.4byte	0xa6
 815 00a6 04       		.uleb128 0x4
 816 00a7 08       		.byte	0x8
 817 00a8 07       		.byte	0x7
 818 00a9 D6010000 		.4byte	.LASF14
 819 00ad 03       		.uleb128 0x3
 820 00ae FA020000 		.4byte	.LASF15
 821 00b2 05       		.byte	0x5
 822 00b3 2A       		.byte	0x2a
 823 00b4 45000000 		.4byte	0x45
 824 00b8 03       		.uleb128 0x3
 825 00b9 C8040000 		.4byte	.LASF16
 826 00bd 05       		.byte	0x5
 827 00be 36       		.byte	0x36
 828 00bf 5E000000 		.4byte	0x5e
 829 00c3 03       		.uleb128 0x3
 830 00c4 E5050000 		.4byte	.LASF17
 831 00c8 05       		.byte	0x5
 832 00c9 41       		.byte	0x41
 833 00ca 70000000 		.4byte	0x70
 834 00ce 03       		.uleb128 0x3
 835 00cf 6C010000 		.4byte	.LASF18
 836 00d3 05       		.byte	0x5
 837 00d4 42       		.byte	0x42
 838 00d5 82000000 		.4byte	0x82
 839 00d9 03       		.uleb128 0x3
 840 00da 4A050000 		.4byte	.LASF19
 841 00de 05       		.byte	0x5
 842 00df 4E       		.byte	0x4e
 843 00e0 9B000000 		.4byte	0x9b
 844 00e4 03       		.uleb128 0x3
 845 00e5 6F040000 		.4byte	.LASF20
 846 00e9 06       		.byte	0x6
 847 00ea 3C       		.byte	0x3c
ARM GAS  /tmp/ccj5wzVV.s 			page 46


 848 00eb AD000000 		.4byte	0xad
 849 00ef 03       		.uleb128 0x3
 850 00f0 E9020000 		.4byte	.LASF21
 851 00f4 06       		.byte	0x6
 852 00f5 3D       		.byte	0x3d
 853 00f6 AD000000 		.4byte	0xad
 854 00fa 03       		.uleb128 0x3
 855 00fb B8050000 		.4byte	.LASF22
 856 00ff 06       		.byte	0x6
 857 0100 3E       		.byte	0x3e
 858 0101 AD000000 		.4byte	0xad
 859 0105 03       		.uleb128 0x3
 860 0106 B5010000 		.4byte	.LASF23
 861 010a 06       		.byte	0x6
 862 010b 40       		.byte	0x40
 863 010c CE000000 		.4byte	0xce
 864 0110 03       		.uleb128 0x3
 865 0111 6B030000 		.4byte	.LASF24
 866 0115 06       		.byte	0x6
 867 0116 41       		.byte	0x41
 868 0117 C3000000 		.4byte	0xc3
 869 011b 03       		.uleb128 0x3
 870 011c 87010000 		.4byte	.LASF25
 871 0120 06       		.byte	0x6
 872 0121 43       		.byte	0x43
 873 0122 CE000000 		.4byte	0xce
 874 0126 03       		.uleb128 0x3
 875 0127 46040000 		.4byte	.LASF26
 876 012b 06       		.byte	0x6
 877 012c 44       		.byte	0x44
 878 012d CE000000 		.4byte	0xce
 879 0131 03       		.uleb128 0x3
 880 0132 07020000 		.4byte	.LASF27
 881 0136 06       		.byte	0x6
 882 0137 45       		.byte	0x45
 883 0138 C3000000 		.4byte	0xc3
 884 013c 03       		.uleb128 0x3
 885 013d 67000000 		.4byte	.LASF28
 886 0141 07       		.byte	0x7
 887 0142 35       		.byte	0x35
 888 0143 B8000000 		.4byte	0xb8
 889 0147 03       		.uleb128 0x3
 890 0148 42020000 		.4byte	.LASF29
 891 014c 07       		.byte	0x7
 892 014d 3F       		.byte	0x3f
 893 014e 52010000 		.4byte	0x152
 894 0152 05       		.uleb128 0x5
 895 0153 18030000 		.4byte	.LASF47
 896 0157 44       		.byte	0x44
 897 0158 08       		.byte	0x8
 898 0159 9A       		.byte	0x9a
 899 015a 30020000 		.4byte	0x230
 900 015e 06       		.uleb128 0x6
 901 015f DF050000 		.4byte	.LASF30
 902 0163 08       		.byte	0x8
 903 0164 9B       		.byte	0x9b
 904 0165 65020000 		.4byte	0x265
ARM GAS  /tmp/ccj5wzVV.s 			page 47


 905 0169 00       		.byte	0
 906 016a 06       		.uleb128 0x6
 907 016b B3020000 		.4byte	.LASF31
 908 016f 08       		.byte	0x8
 909 0170 9C       		.byte	0x9c
 910 0171 05010000 		.4byte	0x105
 911 0175 08       		.byte	0x8
 912 0176 07       		.uleb128 0x7
 913 0177 63747800 		.ascii	"ctx\000"
 914 017b 08       		.byte	0x8
 915 017c 9D       		.byte	0x9d
 916 017d 36050000 		.4byte	0x536
 917 0181 0C       		.byte	0xc
 918 0182 06       		.uleb128 0x6
 919 0183 10060000 		.4byte	.LASF32
 920 0187 08       		.byte	0x8
 921 0188 9F       		.byte	0x9f
 922 0189 3B020000 		.4byte	0x23b
 923 018d 10       		.byte	0x10
 924 018e 06       		.uleb128 0x6
 925 018f C5060000 		.4byte	.LASF33
 926 0193 08       		.byte	0x8
 927 0194 A0       		.byte	0xa0
 928 0195 3B020000 		.4byte	0x23b
 929 0199 14       		.byte	0x14
 930 019a 06       		.uleb128 0x6
 931 019b 71050000 		.4byte	.LASF34
 932 019f 08       		.byte	0x8
 933 01a0 A7       		.byte	0xa7
 934 01a1 9B060000 		.4byte	0x69b
 935 01a5 18       		.byte	0x18
 936 01a6 06       		.uleb128 0x6
 937 01a7 DA020000 		.4byte	.LASF35
 938 01ab 08       		.byte	0x8
 939 01ac B0       		.byte	0xb0
 940 01ad AD060000 		.4byte	0x6ad
 941 01b1 1C       		.byte	0x1c
 942 01b2 06       		.uleb128 0x6
 943 01b3 58060000 		.4byte	.LASF36
 944 01b7 08       		.byte	0x8
 945 01b8 B5       		.byte	0xb5
 946 01b9 EF000000 		.4byte	0xef
 947 01bd 20       		.byte	0x20
 948 01be 06       		.uleb128 0x6
 949 01bf 61000000 		.4byte	.LASF37
 950 01c3 08       		.byte	0x8
 951 01c4 B9       		.byte	0xb9
 952 01c5 E4000000 		.4byte	0xe4
 953 01c9 21       		.byte	0x21
 954 01ca 06       		.uleb128 0x6
 955 01cb D9000000 		.4byte	.LASF38
 956 01cf 08       		.byte	0x8
 957 01d0 BE       		.byte	0xbe
 958 01d1 FA000000 		.4byte	0xfa
 959 01d5 22       		.byte	0x22
 960 01d6 08       		.uleb128 0x8
 961 01d7 7500     		.ascii	"u\000"
ARM GAS  /tmp/ccj5wzVV.s 			page 48


 962 01d9 08       		.byte	0x8
 963 01da 0F01     		.2byte	0x10f
 964 01dc D0050000 		.4byte	0x5d0
 965 01e0 24       		.byte	0x24
 966 01e1 09       		.uleb128 0x9
 967 01e2 2F060000 		.4byte	.LASF39
 968 01e6 08       		.byte	0x8
 969 01e7 1401     		.2byte	0x114
 970 01e9 41020000 		.4byte	0x241
 971 01ed 28       		.byte	0x28
 972 01ee 09       		.uleb128 0x9
 973 01ef 0F030000 		.4byte	.LASF40
 974 01f3 08       		.byte	0x8
 975 01f4 1A01     		.2byte	0x11a
 976 01f6 65020000 		.4byte	0x265
 977 01fa 2C       		.byte	0x2c
 978 01fb 09       		.uleb128 0x9
 979 01fc 85000000 		.4byte	.LASF41
 980 0200 08       		.byte	0x8
 981 0201 2001     		.2byte	0x120
 982 0203 1B010000 		.4byte	0x11b
 983 0207 34       		.byte	0x34
 984 0208 09       		.uleb128 0x9
 985 0209 23020000 		.4byte	.LASF42
 986 020d 08       		.byte	0x8
 987 020e 2701     		.2byte	0x127
 988 0210 95060000 		.4byte	0x695
 989 0214 38       		.byte	0x38
 990 0215 09       		.uleb128 0x9
 991 0216 71000000 		.4byte	.LASF43
 992 021a 08       		.byte	0x8
 993 021b 2B01     		.2byte	0x12b
 994 021d 05010000 		.4byte	0x105
 995 0221 3C       		.byte	0x3c
 996 0222 09       		.uleb128 0x9
 997 0223 D9060000 		.4byte	.LASF44
 998 0227 08       		.byte	0x8
 999 0228 3201     		.2byte	0x132
 1000 022a 18030000 		.4byte	0x318
 1001 022e 40       		.byte	0x40
 1002 022f 00       		.byte	0
 1003 0230 03       		.uleb128 0x3
 1004 0231 C7020000 		.4byte	.LASF45
 1005 0235 07       		.byte	0x7
 1006 0236 44       		.byte	0x44
 1007 0237 3B020000 		.4byte	0x23b
 1008 023b 0A       		.uleb128 0xa
 1009 023c 04       		.byte	0x4
 1010 023d 47010000 		.4byte	0x147
 1011 0241 03       		.uleb128 0x3
 1012 0242 A0000000 		.4byte	.LASF46
 1013 0246 07       		.byte	0x7
 1014 0247 49       		.byte	0x49
 1015 0248 4C020000 		.4byte	0x24c
 1016 024c 05       		.uleb128 0x5
 1017 024d 00000000 		.4byte	.LASF48
 1018 0251 04       		.byte	0x4
ARM GAS  /tmp/ccj5wzVV.s 			page 49


 1019 0252 08       		.byte	0x8
 1020 0253 88       		.byte	0x88
 1021 0254 65020000 		.4byte	0x265
 1022 0258 06       		.uleb128 0x6
 1023 0259 9B000000 		.4byte	.LASF49
 1024 025d 08       		.byte	0x8
 1025 025e 89       		.byte	0x89
 1026 025f 3B020000 		.4byte	0x23b
 1027 0263 00       		.byte	0
 1028 0264 00       		.byte	0
 1029 0265 03       		.uleb128 0x3
 1030 0266 13020000 		.4byte	.LASF50
 1031 026a 07       		.byte	0x7
 1032 026b 50       		.byte	0x50
 1033 026c 70020000 		.4byte	0x270
 1034 0270 05       		.uleb128 0x5
 1035 0271 29010000 		.4byte	.LASF51
 1036 0275 08       		.byte	0x8
 1037 0276 08       		.byte	0x8
 1038 0277 8F       		.byte	0x8f
 1039 0278 95020000 		.4byte	0x295
 1040 027c 06       		.uleb128 0x6
 1041 027d 9B000000 		.4byte	.LASF49
 1042 0281 08       		.byte	0x8
 1043 0282 90       		.byte	0x90
 1044 0283 3B020000 		.4byte	0x23b
 1045 0287 00       		.byte	0
 1046 0288 06       		.uleb128 0x6
 1047 0289 24010000 		.4byte	.LASF52
 1048 028d 08       		.byte	0x8
 1049 028e 91       		.byte	0x91
 1050 028f 3B020000 		.4byte	0x23b
 1051 0293 04       		.byte	0x4
 1052 0294 00       		.byte	0
 1053 0295 03       		.uleb128 0x3
 1054 0296 D2050000 		.4byte	.LASF53
 1055 029a 07       		.byte	0x7
 1056 029b 57       		.byte	0x57
 1057 029c A0020000 		.4byte	0x2a0
 1058 02a0 0B       		.uleb128 0xb
 1059 02a1 0A010000 		.4byte	.LASF54
 1060 02a5 1C       		.byte	0x1c
 1061 02a6 08       		.byte	0x8
 1062 02a7 6A01     		.2byte	0x16a
 1063 02a9 FC020000 		.4byte	0x2fc
 1064 02ad 09       		.uleb128 0x9
 1065 02ae DF050000 		.4byte	.LASF30
 1066 02b2 08       		.byte	0x8
 1067 02b3 6B01     		.2byte	0x16b
 1068 02b5 65020000 		.4byte	0x265
 1069 02b9 00       		.byte	0
 1070 02ba 09       		.uleb128 0x9
 1071 02bb B3020000 		.4byte	.LASF31
 1072 02bf 08       		.byte	0x8
 1073 02c0 6C01     		.2byte	0x16c
 1074 02c2 05010000 		.4byte	0x105
 1075 02c6 08       		.byte	0x8
ARM GAS  /tmp/ccj5wzVV.s 			page 50


 1076 02c7 08       		.uleb128 0x8
 1077 02c8 63747800 		.ascii	"ctx\000"
 1078 02cc 08       		.byte	0x8
 1079 02cd 6E01     		.2byte	0x16e
 1080 02cf 36050000 		.4byte	0x536
 1081 02d3 0C       		.byte	0xc
 1082 02d4 09       		.uleb128 0x9
 1083 02d5 10060000 		.4byte	.LASF32
 1084 02d9 08       		.byte	0x8
 1085 02da 7101     		.2byte	0x171
 1086 02dc 3B020000 		.4byte	0x23b
 1087 02e0 10       		.byte	0x10
 1088 02e1 09       		.uleb128 0x9
 1089 02e2 C5060000 		.4byte	.LASF33
 1090 02e6 08       		.byte	0x8
 1091 02e7 7201     		.2byte	0x172
 1092 02e9 3B020000 		.4byte	0x23b
 1093 02ed 14       		.byte	0x14
 1094 02ee 09       		.uleb128 0x9
 1095 02ef B6060000 		.4byte	.LASF55
 1096 02f3 08       		.byte	0x8
 1097 02f4 7501     		.2byte	0x175
 1098 02f6 3B020000 		.4byte	0x23b
 1099 02fa 18       		.byte	0x18
 1100 02fb 00       		.byte	0
 1101 02fc 03       		.uleb128 0x3
 1102 02fd 3A010000 		.4byte	.LASF56
 1103 0301 07       		.byte	0x7
 1104 0302 5C       		.byte	0x5c
 1105 0303 07030000 		.4byte	0x307
 1106 0307 0A       		.uleb128 0xa
 1107 0308 04       		.byte	0x4
 1108 0309 0D030000 		.4byte	0x30d
 1109 030d 0C       		.uleb128 0xc
 1110 030e 18030000 		.4byte	0x318
 1111 0312 0D       		.uleb128 0xd
 1112 0313 18030000 		.4byte	0x318
 1113 0317 00       		.byte	0
 1114 0318 0E       		.uleb128 0xe
 1115 0319 04       		.byte	0x4
 1116 031a 03       		.uleb128 0x3
 1117 031b 77030000 		.4byte	.LASF57
 1118 031f 07       		.byte	0x7
 1119 0320 61       		.byte	0x61
 1120 0321 25030000 		.4byte	0x325
 1121 0325 0B       		.uleb128 0xb
 1122 0326 BD010000 		.4byte	.LASF58
 1123 032a 14       		.byte	0x14
 1124 032b 08       		.byte	0x8
 1125 032c 4501     		.2byte	0x145
 1126 032e 74030000 		.4byte	0x374
 1127 0332 09       		.uleb128 0x9
 1128 0333 9B000000 		.4byte	.LASF49
 1129 0337 08       		.byte	0x8
 1130 0338 4601     		.2byte	0x146
 1131 033a B3060000 		.4byte	0x6b3
 1132 033e 00       		.byte	0
ARM GAS  /tmp/ccj5wzVV.s 			page 51


 1133 033f 09       		.uleb128 0x9
 1134 0340 24010000 		.4byte	.LASF52
 1135 0344 08       		.byte	0x8
 1136 0345 4701     		.2byte	0x147
 1137 0347 B3060000 		.4byte	0x6b3
 1138 034b 04       		.byte	0x4
 1139 034c 09       		.uleb128 0x9
 1140 034d 84060000 		.4byte	.LASF59
 1141 0351 08       		.byte	0x8
 1142 0352 4801     		.2byte	0x148
 1143 0354 3C010000 		.4byte	0x13c
 1144 0358 08       		.byte	0x8
 1145 0359 09       		.uleb128 0x9
 1146 035a 18010000 		.4byte	.LASF60
 1147 035e 08       		.byte	0x8
 1148 035f 4901     		.2byte	0x149
 1149 0361 FC020000 		.4byte	0x2fc
 1150 0365 0C       		.byte	0xc
 1151 0366 08       		.uleb128 0x8
 1152 0367 70617200 		.ascii	"par\000"
 1153 036b 08       		.byte	0x8
 1154 036c 4B01     		.2byte	0x14b
 1155 036e 18030000 		.4byte	0x318
 1156 0372 10       		.byte	0x10
 1157 0373 00       		.byte	0
 1158 0374 03       		.uleb128 0x3
 1159 0375 37060000 		.4byte	.LASF61
 1160 0379 07       		.byte	0x7
 1161 037a 66       		.byte	0x66
 1162 037b 7F030000 		.4byte	0x37f
 1163 037f 0B       		.uleb128 0xb
 1164 0380 2B020000 		.4byte	.LASF62
 1165 0384 0C       		.byte	0xc
 1166 0385 08       		.byte	0x8
 1167 0386 5501     		.2byte	0x155
 1168 0388 C1030000 		.4byte	0x3c1
 1169 038c 09       		.uleb128 0x9
 1170 038d 9B000000 		.4byte	.LASF49
 1171 0391 08       		.byte	0x8
 1172 0392 5601     		.2byte	0x156
 1173 0394 B3060000 		.4byte	0x6b3
 1174 0398 00       		.byte	0
 1175 0399 09       		.uleb128 0x9
 1176 039a 24010000 		.4byte	.LASF52
 1177 039e 08       		.byte	0x8
 1178 039f 5801     		.2byte	0x158
 1179 03a1 B3060000 		.4byte	0x6b3
 1180 03a5 04       		.byte	0x4
 1181 03a6 09       		.uleb128 0x9
 1182 03a7 84060000 		.4byte	.LASF59
 1183 03ab 08       		.byte	0x8
 1184 03ac 5A01     		.2byte	0x15a
 1185 03ae 3C010000 		.4byte	0x13c
 1186 03b2 08       		.byte	0x8
 1187 03b3 09       		.uleb128 0x9
 1188 03b4 41050000 		.4byte	.LASF63
 1189 03b8 08       		.byte	0x8
ARM GAS  /tmp/ccj5wzVV.s 			page 52


 1190 03b9 6201     		.2byte	0x162
 1191 03bb 3C010000 		.4byte	0x13c
 1192 03bf 0A       		.byte	0xa
 1193 03c0 00       		.byte	0
 1194 03c1 03       		.uleb128 0x3
 1195 03c2 31030000 		.4byte	.LASF64
 1196 03c6 07       		.byte	0x7
 1197 03c7 6B       		.byte	0x6b
 1198 03c8 CC030000 		.4byte	0x3cc
 1199 03cc 0B       		.uleb128 0xb
 1200 03cd 50010000 		.4byte	.LASF65
 1201 03d1 04       		.byte	0x4
 1202 03d2 08       		.byte	0x8
 1203 03d3 7C01     		.2byte	0x17c
 1204 03d5 E7030000 		.4byte	0x3e7
 1205 03d9 09       		.uleb128 0x9
 1206 03da 53040000 		.4byte	.LASF66
 1207 03de 08       		.byte	0x8
 1208 03df 8401     		.2byte	0x184
 1209 03e1 B9060000 		.4byte	0x6b9
 1210 03e5 00       		.byte	0
 1211 03e6 00       		.byte	0
 1212 03e7 03       		.uleb128 0x3
 1213 03e8 66060000 		.4byte	.LASF67
 1214 03ec 07       		.byte	0x7
 1215 03ed 70       		.byte	0x70
 1216 03ee F2030000 		.4byte	0x3f2
 1217 03f2 0B       		.uleb128 0xb
 1218 03f3 37050000 		.4byte	.LASF68
 1219 03f7 70       		.byte	0x70
 1220 03f8 08       		.byte	0x8
 1221 03f9 9C01     		.2byte	0x19c
 1222 03fb 34040000 		.4byte	0x434
 1223 03ff 09       		.uleb128 0x9
 1224 0400 53050000 		.4byte	.LASF69
 1225 0404 08       		.byte	0x8
 1226 0405 A001     		.2byte	0x1a0
 1227 0407 95020000 		.4byte	0x295
 1228 040b 00       		.byte	0
 1229 040c 09       		.uleb128 0x9
 1230 040d F6000000 		.4byte	.LASF70
 1231 0411 08       		.byte	0x8
 1232 0412 A401     		.2byte	0x1a4
 1233 0414 74030000 		.4byte	0x374
 1234 0418 1C       		.byte	0x1c
 1235 0419 08       		.uleb128 0x8
 1236 041a 64626700 		.ascii	"dbg\000"
 1237 041e 08       		.byte	0x8
 1238 041f A801     		.2byte	0x1a8
 1239 0421 C1030000 		.4byte	0x3c1
 1240 0425 28       		.byte	0x28
 1241 0426 09       		.uleb128 0x9
 1242 0427 77040000 		.4byte	.LASF71
 1243 042b 08       		.byte	0x8
 1244 042c AC01     		.2byte	0x1ac
 1245 042e 47010000 		.4byte	0x147
 1246 0432 2C       		.byte	0x2c
ARM GAS  /tmp/ccj5wzVV.s 			page 53


 1247 0433 00       		.byte	0
 1248 0434 04       		.uleb128 0x4
 1249 0435 04       		.byte	0x4
 1250 0436 07       		.byte	0x7
 1251 0437 AF050000 		.4byte	.LASF72
 1252 043b 0F       		.uleb128 0xf
 1253 043c CE000000 		.4byte	0xce
 1254 0440 10       		.uleb128 0x10
 1255 0441 1C       		.byte	0x1c
 1256 0442 09       		.byte	0x9
 1257 0443 5B01     		.2byte	0x15b
 1258 0445 A5040000 		.4byte	0x4a5
 1259 0449 08       		.uleb128 0x8
 1260 044a 43524C00 		.ascii	"CRL\000"
 1261 044e 09       		.byte	0x9
 1262 044f 5D01     		.2byte	0x15d
 1263 0451 3B040000 		.4byte	0x43b
 1264 0455 00       		.byte	0
 1265 0456 08       		.uleb128 0x8
 1266 0457 43524800 		.ascii	"CRH\000"
 1267 045b 09       		.byte	0x9
 1268 045c 5E01     		.2byte	0x15e
 1269 045e 3B040000 		.4byte	0x43b
 1270 0462 04       		.byte	0x4
 1271 0463 08       		.uleb128 0x8
 1272 0464 49445200 		.ascii	"IDR\000"
 1273 0468 09       		.byte	0x9
 1274 0469 5F01     		.2byte	0x15f
 1275 046b 3B040000 		.4byte	0x43b
 1276 046f 08       		.byte	0x8
 1277 0470 08       		.uleb128 0x8
 1278 0471 4F445200 		.ascii	"ODR\000"
 1279 0475 09       		.byte	0x9
 1280 0476 6001     		.2byte	0x160
 1281 0478 3B040000 		.4byte	0x43b
 1282 047c 0C       		.byte	0xc
 1283 047d 09       		.uleb128 0x9
 1284 047e 3D000000 		.4byte	.LASF73
 1285 0482 09       		.byte	0x9
 1286 0483 6101     		.2byte	0x161
 1287 0485 3B040000 		.4byte	0x43b
 1288 0489 10       		.byte	0x10
 1289 048a 08       		.uleb128 0x8
 1290 048b 42525200 		.ascii	"BRR\000"
 1291 048f 09       		.byte	0x9
 1292 0490 6201     		.2byte	0x162
 1293 0492 3B040000 		.4byte	0x43b
 1294 0496 14       		.byte	0x14
 1295 0497 09       		.uleb128 0x9
 1296 0498 D4060000 		.4byte	.LASF74
 1297 049c 09       		.byte	0x9
 1298 049d 6301     		.2byte	0x163
 1299 049f 3B040000 		.4byte	0x43b
 1300 04a3 18       		.byte	0x18
 1301 04a4 00       		.byte	0
 1302 04a5 11       		.uleb128 0x11
 1303 04a6 8D050000 		.4byte	.LASF75
ARM GAS  /tmp/ccj5wzVV.s 			page 54


 1304 04aa 09       		.byte	0x9
 1305 04ab 6401     		.2byte	0x164
 1306 04ad 40040000 		.4byte	0x440
 1307 04b1 10       		.uleb128 0x10
 1308 04b2 1C       		.byte	0x1c
 1309 04b3 09       		.byte	0x9
 1310 04b4 0D02     		.2byte	0x20d
 1311 04b6 14050000 		.4byte	0x514
 1312 04ba 08       		.uleb128 0x8
 1313 04bb 535200   		.ascii	"SR\000"
 1314 04be 09       		.byte	0x9
 1315 04bf 0F02     		.2byte	0x20f
 1316 04c1 3B040000 		.4byte	0x43b
 1317 04c5 00       		.byte	0
 1318 04c6 08       		.uleb128 0x8
 1319 04c7 445200   		.ascii	"DR\000"
 1320 04ca 09       		.byte	0x9
 1321 04cb 1002     		.2byte	0x210
 1322 04cd 3B040000 		.4byte	0x43b
 1323 04d1 04       		.byte	0x4
 1324 04d2 08       		.uleb128 0x8
 1325 04d3 42525200 		.ascii	"BRR\000"
 1326 04d7 09       		.byte	0x9
 1327 04d8 1102     		.2byte	0x211
 1328 04da 3B040000 		.4byte	0x43b
 1329 04de 08       		.byte	0x8
 1330 04df 08       		.uleb128 0x8
 1331 04e0 43523100 		.ascii	"CR1\000"
 1332 04e4 09       		.byte	0x9
 1333 04e5 1202     		.2byte	0x212
 1334 04e7 3B040000 		.4byte	0x43b
 1335 04eb 0C       		.byte	0xc
 1336 04ec 08       		.uleb128 0x8
 1337 04ed 43523200 		.ascii	"CR2\000"
 1338 04f1 09       		.byte	0x9
 1339 04f2 1302     		.2byte	0x213
 1340 04f4 3B040000 		.4byte	0x43b
 1341 04f8 10       		.byte	0x10
 1342 04f9 08       		.uleb128 0x8
 1343 04fa 43523300 		.ascii	"CR3\000"
 1344 04fe 09       		.byte	0x9
 1345 04ff 1402     		.2byte	0x214
 1346 0501 3B040000 		.4byte	0x43b
 1347 0505 14       		.byte	0x14
 1348 0506 09       		.uleb128 0x9
 1349 0507 60010000 		.4byte	.LASF76
 1350 050b 09       		.byte	0x9
 1351 050c 1502     		.2byte	0x215
 1352 050e 3B040000 		.4byte	0x43b
 1353 0512 18       		.byte	0x18
 1354 0513 00       		.byte	0
 1355 0514 11       		.uleb128 0x11
 1356 0515 80020000 		.4byte	.LASF77
 1357 0519 09       		.byte	0x9
 1358 051a 1602     		.2byte	0x216
 1359 051c B1040000 		.4byte	0x4b1
 1360 0520 03       		.uleb128 0x3
ARM GAS  /tmp/ccj5wzVV.s 			page 55


 1361 0521 42000000 		.4byte	.LASF78
 1362 0525 0A       		.byte	0xa
 1363 0526 65       		.byte	0x65
 1364 0527 18030000 		.4byte	0x318
 1365 052b 03       		.uleb128 0x3
 1366 052c A6060000 		.4byte	.LASF79
 1367 0530 0A       		.byte	0xa
 1368 0531 6D       		.byte	0x6d
 1369 0532 D9000000 		.4byte	0xd9
 1370 0536 05       		.uleb128 0x5
 1371 0537 FD000000 		.4byte	.LASF80
 1372 053b 04       		.byte	0x4
 1373 053c 0A       		.byte	0xa
 1374 053d 89       		.byte	0x89
 1375 053e 4E050000 		.4byte	0x54e
 1376 0542 07       		.uleb128 0x7
 1377 0543 737000   		.ascii	"sp\000"
 1378 0546 0A       		.byte	0xa
 1379 0547 8A       		.byte	0x8a
 1380 0548 CA050000 		.4byte	0x5ca
 1381 054c 00       		.byte	0
 1382 054d 00       		.byte	0
 1383 054e 0B       		.uleb128 0xb
 1384 054f 1E050000 		.4byte	.LASF81
 1385 0553 24       		.byte	0x24
 1386 0554 0B       		.byte	0xb
 1387 0555 5901     		.2byte	0x159
 1388 0557 CA050000 		.4byte	0x5ca
 1389 055b 08       		.uleb128 0x8
 1390 055c 723400   		.ascii	"r4\000"
 1391 055f 0B       		.byte	0xb
 1392 0560 6C01     		.2byte	0x16c
 1393 0562 20050000 		.4byte	0x520
 1394 0566 00       		.byte	0
 1395 0567 08       		.uleb128 0x8
 1396 0568 723500   		.ascii	"r5\000"
 1397 056b 0B       		.byte	0xb
 1398 056c 6D01     		.2byte	0x16d
 1399 056e 20050000 		.4byte	0x520
 1400 0572 04       		.byte	0x4
 1401 0573 08       		.uleb128 0x8
 1402 0574 723600   		.ascii	"r6\000"
 1403 0577 0B       		.byte	0xb
 1404 0578 6E01     		.2byte	0x16e
 1405 057a 20050000 		.4byte	0x520
 1406 057e 08       		.byte	0x8
 1407 057f 08       		.uleb128 0x8
 1408 0580 723700   		.ascii	"r7\000"
 1409 0583 0B       		.byte	0xb
 1410 0584 6F01     		.2byte	0x16f
 1411 0586 20050000 		.4byte	0x520
 1412 058a 0C       		.byte	0xc
 1413 058b 08       		.uleb128 0x8
 1414 058c 723800   		.ascii	"r8\000"
 1415 058f 0B       		.byte	0xb
 1416 0590 7001     		.2byte	0x170
 1417 0592 20050000 		.4byte	0x520
ARM GAS  /tmp/ccj5wzVV.s 			page 56


 1418 0596 10       		.byte	0x10
 1419 0597 08       		.uleb128 0x8
 1420 0598 723900   		.ascii	"r9\000"
 1421 059b 0B       		.byte	0xb
 1422 059c 7101     		.2byte	0x171
 1423 059e 20050000 		.4byte	0x520
 1424 05a2 14       		.byte	0x14
 1425 05a3 08       		.uleb128 0x8
 1426 05a4 72313000 		.ascii	"r10\000"
 1427 05a8 0B       		.byte	0xb
 1428 05a9 7201     		.2byte	0x172
 1429 05ab 20050000 		.4byte	0x520
 1430 05af 18       		.byte	0x18
 1431 05b0 08       		.uleb128 0x8
 1432 05b1 72313100 		.ascii	"r11\000"
 1433 05b5 0B       		.byte	0xb
 1434 05b6 7301     		.2byte	0x173
 1435 05b8 20050000 		.4byte	0x520
 1436 05bc 1C       		.byte	0x1c
 1437 05bd 08       		.uleb128 0x8
 1438 05be 6C7200   		.ascii	"lr\000"
 1439 05c1 0B       		.byte	0xb
 1440 05c2 7401     		.2byte	0x174
 1441 05c4 20050000 		.4byte	0x520
 1442 05c8 20       		.byte	0x20
 1443 05c9 00       		.byte	0
 1444 05ca 0A       		.uleb128 0xa
 1445 05cb 04       		.byte	0x4
 1446 05cc 4E050000 		.4byte	0x54e
 1447 05d0 12       		.uleb128 0x12
 1448 05d1 04       		.byte	0x4
 1449 05d2 08       		.byte	0x8
 1450 05d3 D2       		.byte	0xd2
 1451 05d4 33060000 		.4byte	0x633
 1452 05d8 13       		.uleb128 0x13
 1453 05d9 57020000 		.4byte	.LASF82
 1454 05dd 08       		.byte	0x8
 1455 05de D9       		.byte	0xd9
 1456 05df 10010000 		.4byte	0x110
 1457 05e3 13       		.uleb128 0x13
 1458 05e4 CB060000 		.4byte	.LASF83
 1459 05e8 08       		.byte	0x8
 1460 05e9 E0       		.byte	0xe0
 1461 05ea 10010000 		.4byte	0x110
 1462 05ee 13       		.uleb128 0x13
 1463 05ef EF000000 		.4byte	.LASF84
 1464 05f3 08       		.byte	0x8
 1465 05f4 E7       		.byte	0xe7
 1466 05f5 18030000 		.4byte	0x318
 1467 05f9 13       		.uleb128 0x13
 1468 05fa 72060000 		.4byte	.LASF85
 1469 05fe 08       		.byte	0x8
 1470 05ff EE       		.byte	0xee
 1471 0600 33060000 		.4byte	0x633
 1472 0604 13       		.uleb128 0x13
 1473 0605 7F010000 		.4byte	.LASF86
 1474 0609 08       		.byte	0x8
ARM GAS  /tmp/ccj5wzVV.s 			page 57


 1475 060a F3       		.byte	0xf3
 1476 060b 10010000 		.4byte	0x110
 1477 060f 13       		.uleb128 0x13
 1478 0610 ED050000 		.4byte	.LASF87
 1479 0614 08       		.byte	0x8
 1480 0615 FC       		.byte	0xfc
 1481 0616 5E060000 		.4byte	0x65e
 1482 061a 14       		.uleb128 0x14
 1483 061b BE060000 		.4byte	.LASF88
 1484 061f 08       		.byte	0x8
 1485 0620 0501     		.2byte	0x105
 1486 0622 95060000 		.4byte	0x695
 1487 0626 14       		.uleb128 0x14
 1488 0627 1D010000 		.4byte	.LASF89
 1489 062b 08       		.byte	0x8
 1490 062c 0D01     		.2byte	0x10d
 1491 062e 1B010000 		.4byte	0x11b
 1492 0632 00       		.byte	0
 1493 0633 0A       		.uleb128 0xa
 1494 0634 04       		.byte	0x4
 1495 0635 30020000 		.4byte	0x230
 1496 0639 05       		.uleb128 0x5
 1497 063a A8010000 		.4byte	.LASF90
 1498 063e 0C       		.byte	0xc
 1499 063f 0C       		.byte	0xc
 1500 0640 34       		.byte	0x34
 1501 0641 5E060000 		.4byte	0x65e
 1502 0645 06       		.uleb128 0x6
 1503 0646 DF050000 		.4byte	.LASF30
 1504 064a 0C       		.byte	0xc
 1505 064b 35       		.byte	0x35
 1506 064c 65020000 		.4byte	0x265
 1507 0650 00       		.byte	0
 1508 0651 07       		.uleb128 0x7
 1509 0652 636E7400 		.ascii	"cnt\000"
 1510 0656 0C       		.byte	0xc
 1511 0657 37       		.byte	0x37
 1512 0658 31010000 		.4byte	0x131
 1513 065c 08       		.byte	0x8
 1514 065d 00       		.byte	0
 1515 065e 0A       		.uleb128 0xa
 1516 065f 04       		.byte	0x4
 1517 0660 39060000 		.4byte	0x639
 1518 0664 05       		.uleb128 0x5
 1519 0665 6C020000 		.4byte	.LASF91
 1520 0669 10       		.byte	0x10
 1521 066a 0D       		.byte	0xd
 1522 066b 39       		.byte	0x39
 1523 066c 95060000 		.4byte	0x695
 1524 0670 06       		.uleb128 0x6
 1525 0671 DF050000 		.4byte	.LASF30
 1526 0675 0D       		.byte	0xd
 1527 0676 3A       		.byte	0x3a
 1528 0677 65020000 		.4byte	0x265
 1529 067b 00       		.byte	0
 1530 067c 06       		.uleb128 0x6
 1531 067d 0D020000 		.4byte	.LASF92
ARM GAS  /tmp/ccj5wzVV.s 			page 58


 1532 0681 0D       		.byte	0xd
 1533 0682 3C       		.byte	0x3c
 1534 0683 3B020000 		.4byte	0x23b
 1535 0687 08       		.byte	0x8
 1536 0688 06       		.uleb128 0x6
 1537 0689 9B000000 		.4byte	.LASF49
 1538 068d 0D       		.byte	0xd
 1539 068e 3E       		.byte	0x3e
 1540 068f D4060000 		.4byte	0x6d4
 1541 0693 0C       		.byte	0xc
 1542 0694 00       		.byte	0
 1543 0695 0A       		.uleb128 0xa
 1544 0696 04       		.byte	0x4
 1545 0697 64060000 		.4byte	0x664
 1546 069b 0A       		.uleb128 0xa
 1547 069c 04       		.byte	0x4
 1548 069d A1060000 		.4byte	0x6a1
 1549 06a1 15       		.uleb128 0x15
 1550 06a2 A6060000 		.4byte	0x6a6
 1551 06a6 04       		.uleb128 0x4
 1552 06a7 01       		.byte	0x1
 1553 06a8 08       		.byte	0x8
 1554 06a9 B8020000 		.4byte	.LASF93
 1555 06ad 0A       		.uleb128 0xa
 1556 06ae 04       		.byte	0x4
 1557 06af 2B050000 		.4byte	0x52b
 1558 06b3 0A       		.uleb128 0xa
 1559 06b4 04       		.byte	0x4
 1560 06b5 1A030000 		.4byte	0x31a
 1561 06b9 0F       		.uleb128 0xf
 1562 06ba 9B060000 		.4byte	0x69b
 1563 06be 03       		.uleb128 0x3
 1564 06bf CE010000 		.4byte	.LASF94
 1565 06c3 0E       		.byte	0xe
 1566 06c4 40       		.byte	0x40
 1567 06c5 07030000 		.4byte	0x307
 1568 06c9 03       		.uleb128 0x3
 1569 06ca 08060000 		.4byte	.LASF95
 1570 06ce 0D       		.byte	0xd
 1571 06cf 34       		.byte	0x34
 1572 06d0 64060000 		.4byte	0x664
 1573 06d4 0A       		.uleb128 0xa
 1574 06d5 04       		.byte	0x4
 1575 06d6 C9060000 		.4byte	0x6c9
 1576 06da 03       		.uleb128 0x3
 1577 06db 10000000 		.4byte	.LASF96
 1578 06df 0F       		.byte	0xf
 1579 06e0 34       		.byte	0x34
 1580 06e1 E5060000 		.4byte	0x6e5
 1581 06e5 05       		.uleb128 0x5
 1582 06e6 5C030000 		.4byte	.LASF97
 1583 06ea 14       		.byte	0x14
 1584 06eb 0F       		.byte	0xf
 1585 06ec 39       		.byte	0x39
 1586 06ed 2E070000 		.4byte	0x72e
 1587 06f1 06       		.uleb128 0x6
 1588 06f2 9B000000 		.4byte	.LASF49
ARM GAS  /tmp/ccj5wzVV.s 			page 59


 1589 06f6 0F       		.byte	0xf
 1590 06f7 3A       		.byte	0x3a
 1591 06f8 2E070000 		.4byte	0x72e
 1592 06fc 00       		.byte	0
 1593 06fd 06       		.uleb128 0x6
 1594 06fe 4B000000 		.4byte	.LASF98
 1595 0702 0F       		.byte	0xf
 1596 0703 3D       		.byte	0x3d
 1597 0704 3B020000 		.4byte	0x23b
 1598 0708 04       		.byte	0x4
 1599 0709 06       		.uleb128 0x6
 1600 070a E8000000 		.4byte	.LASF99
 1601 070e 0F       		.byte	0xf
 1602 070f 3F       		.byte	0x3f
 1603 0710 1B010000 		.4byte	0x11b
 1604 0714 08       		.byte	0x8
 1605 0715 06       		.uleb128 0x6
 1606 0716 61000000 		.4byte	.LASF37
 1607 071a 0F       		.byte	0xf
 1608 071b 41       		.byte	0x41
 1609 071c 26010000 		.4byte	0x126
 1610 0720 0C       		.byte	0xc
 1611 0721 06       		.uleb128 0x6
 1612 0722 0E050000 		.4byte	.LASF100
 1613 0726 0F       		.byte	0xf
 1614 0727 43       		.byte	0x43
 1615 0728 26010000 		.4byte	0x126
 1616 072c 10       		.byte	0x10
 1617 072d 00       		.byte	0
 1618 072e 0A       		.uleb128 0xa
 1619 072f 04       		.byte	0x4
 1620 0730 DA060000 		.4byte	0x6da
 1621 0734 05       		.uleb128 0x5
 1622 0735 54000000 		.4byte	.LASF101
 1623 0739 04       		.byte	0x4
 1624 073a 0F       		.byte	0xf
 1625 073b 4A       		.byte	0x4a
 1626 073c 4D070000 		.4byte	0x74d
 1627 0740 06       		.uleb128 0x6
 1628 0741 9B000000 		.4byte	.LASF49
 1629 0745 0F       		.byte	0xf
 1630 0746 4B       		.byte	0x4b
 1631 0747 2E070000 		.4byte	0x72e
 1632 074b 00       		.byte	0
 1633 074c 00       		.byte	0
 1634 074d 03       		.uleb128 0x3
 1635 074e ED010000 		.4byte	.LASF102
 1636 0752 0F       		.byte	0xf
 1637 0753 4E       		.byte	0x4e
 1638 0754 34070000 		.4byte	0x734
 1639 0758 04       		.uleb128 0x4
 1640 0759 01       		.byte	0x1
 1641 075a 02       		.byte	0x2
 1642 075b 5E020000 		.4byte	.LASF103
 1643 075f 0A       		.uleb128 0xa
 1644 0760 04       		.byte	0x4
 1645 0761 AD000000 		.4byte	0xad
ARM GAS  /tmp/ccj5wzVV.s 			page 60


 1646 0765 05       		.uleb128 0x5
 1647 0766 AF000000 		.4byte	.LASF104
 1648 076a 10       		.byte	0x10
 1649 076b 10       		.byte	0x10
 1650 076c 46       		.byte	0x46
 1651 076d A2070000 		.4byte	0x7a2
 1652 0771 06       		.uleb128 0x6
 1653 0772 4E030000 		.4byte	.LASF105
 1654 0776 10       		.byte	0x10
 1655 0777 47       		.byte	0x47
 1656 0778 C6070000 		.4byte	0x7c6
 1657 077c 00       		.byte	0
 1658 077d 06       		.uleb128 0x6
 1659 077e 93010000 		.4byte	.LASF106
 1660 0782 10       		.byte	0x10
 1661 0783 47       		.byte	0x47
 1662 0784 E5070000 		.4byte	0x7e5
 1663 0788 04       		.byte	0x4
 1664 0789 07       		.uleb128 0x7
 1665 078a 70757400 		.ascii	"put\000"
 1666 078e 10       		.byte	0x10
 1667 078f 47       		.byte	0x47
 1668 0790 FF070000 		.4byte	0x7ff
 1669 0794 08       		.byte	0x8
 1670 0795 07       		.uleb128 0x7
 1671 0796 67657400 		.ascii	"get\000"
 1672 079a 10       		.byte	0x10
 1673 079b 47       		.byte	0x47
 1674 079c 14080000 		.4byte	0x814
 1675 07a0 0C       		.byte	0xc
 1676 07a1 00       		.byte	0
 1677 07a2 16       		.uleb128 0x16
 1678 07a3 2C000000 		.4byte	0x2c
 1679 07a7 BB070000 		.4byte	0x7bb
 1680 07ab 0D       		.uleb128 0xd
 1681 07ac 18030000 		.4byte	0x318
 1682 07b0 0D       		.uleb128 0xd
 1683 07b1 BB070000 		.4byte	0x7bb
 1684 07b5 0D       		.uleb128 0xd
 1685 07b6 2C000000 		.4byte	0x2c
 1686 07ba 00       		.byte	0
 1687 07bb 0A       		.uleb128 0xa
 1688 07bc 04       		.byte	0x4
 1689 07bd C1070000 		.4byte	0x7c1
 1690 07c1 15       		.uleb128 0x15
 1691 07c2 AD000000 		.4byte	0xad
 1692 07c6 0A       		.uleb128 0xa
 1693 07c7 04       		.byte	0x4
 1694 07c8 A2070000 		.4byte	0x7a2
 1695 07cc 16       		.uleb128 0x16
 1696 07cd 2C000000 		.4byte	0x2c
 1697 07d1 E5070000 		.4byte	0x7e5
 1698 07d5 0D       		.uleb128 0xd
 1699 07d6 18030000 		.4byte	0x318
 1700 07da 0D       		.uleb128 0xd
 1701 07db 5F070000 		.4byte	0x75f
 1702 07df 0D       		.uleb128 0xd
ARM GAS  /tmp/ccj5wzVV.s 			page 61


 1703 07e0 2C000000 		.4byte	0x2c
 1704 07e4 00       		.byte	0
 1705 07e5 0A       		.uleb128 0xa
 1706 07e6 04       		.byte	0x4
 1707 07e7 CC070000 		.4byte	0x7cc
 1708 07eb 16       		.uleb128 0x16
 1709 07ec 10010000 		.4byte	0x110
 1710 07f0 FF070000 		.4byte	0x7ff
 1711 07f4 0D       		.uleb128 0xd
 1712 07f5 18030000 		.4byte	0x318
 1713 07f9 0D       		.uleb128 0xd
 1714 07fa AD000000 		.4byte	0xad
 1715 07fe 00       		.byte	0
 1716 07ff 0A       		.uleb128 0xa
 1717 0800 04       		.byte	0x4
 1718 0801 EB070000 		.4byte	0x7eb
 1719 0805 16       		.uleb128 0x16
 1720 0806 10010000 		.4byte	0x110
 1721 080a 14080000 		.4byte	0x814
 1722 080e 0D       		.uleb128 0xd
 1723 080f 18030000 		.4byte	0x318
 1724 0813 00       		.byte	0
 1725 0814 0A       		.uleb128 0xa
 1726 0815 04       		.byte	0x4
 1727 0816 05080000 		.4byte	0x805
 1728 081a 17       		.uleb128 0x17
 1729 081b 04       		.byte	0x4
 1730 081c 10       		.byte	0x10
 1731 081d 4F       		.byte	0x4f
 1732 081e 2F080000 		.4byte	0x82f
 1733 0822 07       		.uleb128 0x7
 1734 0823 766D7400 		.ascii	"vmt\000"
 1735 0827 10       		.byte	0x10
 1736 0828 51       		.byte	0x51
 1737 0829 2F080000 		.4byte	0x82f
 1738 082d 00       		.byte	0
 1739 082e 00       		.byte	0
 1740 082f 0A       		.uleb128 0xa
 1741 0830 04       		.byte	0x4
 1742 0831 35080000 		.4byte	0x835
 1743 0835 15       		.uleb128 0x15
 1744 0836 65070000 		.4byte	0x765
 1745 083a 03       		.uleb128 0x3
 1746 083b 97020000 		.4byte	.LASF107
 1747 083f 10       		.byte	0x10
 1748 0840 53       		.byte	0x53
 1749 0841 1A080000 		.4byte	0x81a
 1750 0845 16       		.uleb128 0x16
 1751 0846 10010000 		.4byte	0x110
 1752 084a 5E080000 		.4byte	0x85e
 1753 084e 0D       		.uleb128 0xd
 1754 084f 18030000 		.4byte	0x318
 1755 0853 0D       		.uleb128 0xd
 1756 0854 AD000000 		.4byte	0xad
 1757 0858 0D       		.uleb128 0xd
 1758 0859 3C010000 		.4byte	0x13c
 1759 085d 00       		.byte	0
ARM GAS  /tmp/ccj5wzVV.s 			page 62


 1760 085e 0A       		.uleb128 0xa
 1761 085f 04       		.byte	0x4
 1762 0860 45080000 		.4byte	0x845
 1763 0864 16       		.uleb128 0x16
 1764 0865 10010000 		.4byte	0x110
 1765 0869 78080000 		.4byte	0x878
 1766 086d 0D       		.uleb128 0xd
 1767 086e 18030000 		.4byte	0x318
 1768 0872 0D       		.uleb128 0xd
 1769 0873 3C010000 		.4byte	0x13c
 1770 0877 00       		.byte	0
 1771 0878 0A       		.uleb128 0xa
 1772 0879 04       		.byte	0x4
 1773 087a 64080000 		.4byte	0x864
 1774 087e 16       		.uleb128 0x16
 1775 087f 2C000000 		.4byte	0x2c
 1776 0883 9C080000 		.4byte	0x89c
 1777 0887 0D       		.uleb128 0xd
 1778 0888 18030000 		.4byte	0x318
 1779 088c 0D       		.uleb128 0xd
 1780 088d BB070000 		.4byte	0x7bb
 1781 0891 0D       		.uleb128 0xd
 1782 0892 2C000000 		.4byte	0x2c
 1783 0896 0D       		.uleb128 0xd
 1784 0897 3C010000 		.4byte	0x13c
 1785 089b 00       		.byte	0
 1786 089c 0A       		.uleb128 0xa
 1787 089d 04       		.byte	0x4
 1788 089e 7E080000 		.4byte	0x87e
 1789 08a2 16       		.uleb128 0x16
 1790 08a3 2C000000 		.4byte	0x2c
 1791 08a7 C0080000 		.4byte	0x8c0
 1792 08ab 0D       		.uleb128 0xd
 1793 08ac 18030000 		.4byte	0x318
 1794 08b0 0D       		.uleb128 0xd
 1795 08b1 5F070000 		.4byte	0x75f
 1796 08b5 0D       		.uleb128 0xd
 1797 08b6 2C000000 		.4byte	0x2c
 1798 08ba 0D       		.uleb128 0xd
 1799 08bb 3C010000 		.4byte	0x13c
 1800 08bf 00       		.byte	0
 1801 08c0 0A       		.uleb128 0xa
 1802 08c1 04       		.byte	0x4
 1803 08c2 A2080000 		.4byte	0x8a2
 1804 08c6 0F       		.uleb128 0xf
 1805 08c7 2C000000 		.4byte	0x2c
 1806 08cb 03       		.uleb128 0x3
 1807 08cc 7A000000 		.4byte	.LASF108
 1808 08d0 11       		.byte	0x11
 1809 08d1 2A       		.byte	0x2a
 1810 08d2 D6080000 		.4byte	0x8d6
 1811 08d6 05       		.uleb128 0x5
 1812 08d7 8A060000 		.4byte	.LASF109
 1813 08db 24       		.byte	0x24
 1814 08dc 11       		.byte	0x11
 1815 08dd 3B       		.byte	0x3b
 1816 08de 43090000 		.4byte	0x943
ARM GAS  /tmp/ccj5wzVV.s 			page 63


 1817 08e2 06       		.uleb128 0x6
 1818 08e3 75010000 		.4byte	.LASF110
 1819 08e7 11       		.byte	0x11
 1820 08e8 3C       		.byte	0x3c
 1821 08e9 65020000 		.4byte	0x265
 1822 08ed 00       		.byte	0
 1823 08ee 06       		.uleb128 0x6
 1824 08ef 9A050000 		.4byte	.LASF111
 1825 08f3 11       		.byte	0x11
 1826 08f4 3D       		.byte	0x3d
 1827 08f5 C6080000 		.4byte	0x8c6
 1828 08f9 08       		.byte	0x8
 1829 08fa 06       		.uleb128 0x6
 1830 08fb 22030000 		.4byte	.LASF112
 1831 08ff 11       		.byte	0x11
 1832 0900 3E       		.byte	0x3e
 1833 0901 5F070000 		.4byte	0x75f
 1834 0905 0C       		.byte	0xc
 1835 0906 06       		.uleb128 0x6
 1836 0907 A9050000 		.4byte	.LASF113
 1837 090b 11       		.byte	0x11
 1838 090c 3F       		.byte	0x3f
 1839 090d 5F070000 		.4byte	0x75f
 1840 0911 10       		.byte	0x10
 1841 0912 06       		.uleb128 0x6
 1842 0913 E1020000 		.4byte	.LASF114
 1843 0917 11       		.byte	0x11
 1844 0918 41       		.byte	0x41
 1845 0919 5F070000 		.4byte	0x75f
 1846 091d 14       		.byte	0x14
 1847 091e 06       		.uleb128 0x6
 1848 091f C7000000 		.4byte	.LASF115
 1849 0923 11       		.byte	0x11
 1850 0924 42       		.byte	0x42
 1851 0925 5F070000 		.4byte	0x75f
 1852 0929 18       		.byte	0x18
 1853 092a 06       		.uleb128 0x6
 1854 092b 8E020000 		.4byte	.LASF116
 1855 092f 11       		.byte	0x11
 1856 0930 43       		.byte	0x43
 1857 0931 43090000 		.4byte	0x943
 1858 0935 1C       		.byte	0x1c
 1859 0936 06       		.uleb128 0x6
 1860 0937 AC020000 		.4byte	.LASF117
 1861 093b 11       		.byte	0x11
 1862 093c 44       		.byte	0x44
 1863 093d 18030000 		.4byte	0x318
 1864 0941 20       		.byte	0x20
 1865 0942 00       		.byte	0
 1866 0943 03       		.uleb128 0x3
 1867 0944 DE000000 		.4byte	.LASF118
 1868 0948 11       		.byte	0x11
 1869 0949 31       		.byte	0x31
 1870 094a 4E090000 		.4byte	0x94e
 1871 094e 0A       		.uleb128 0xa
 1872 094f 04       		.byte	0x4
 1873 0950 54090000 		.4byte	0x954
ARM GAS  /tmp/ccj5wzVV.s 			page 64


 1874 0954 0C       		.uleb128 0xc
 1875 0955 5F090000 		.4byte	0x95f
 1876 0959 0D       		.uleb128 0xd
 1877 095a 5F090000 		.4byte	0x95f
 1878 095e 00       		.byte	0
 1879 095f 0A       		.uleb128 0xa
 1880 0960 04       		.byte	0x4
 1881 0961 CB080000 		.4byte	0x8cb
 1882 0965 03       		.uleb128 0x3
 1883 0966 63050000 		.4byte	.LASF119
 1884 096a 11       		.byte	0x11
 1885 096b 7A       		.byte	0x7a
 1886 096c CB080000 		.4byte	0x8cb
 1887 0970 03       		.uleb128 0x3
 1888 0971 94030000 		.4byte	.LASF120
 1889 0975 11       		.byte	0x11
 1890 0976 CA       		.byte	0xca
 1891 0977 CB080000 		.4byte	0x8cb
 1892 097b 03       		.uleb128 0x3
 1893 097c 87030000 		.4byte	.LASF121
 1894 0980 12       		.byte	0x12
 1895 0981 92       		.byte	0x92
 1896 0982 CE000000 		.4byte	0xce
 1897 0986 18       		.uleb128 0x18
 1898 0987 01       		.byte	0x1
 1899 0988 13       		.byte	0x13
 1900 0989 58       		.byte	0x58
 1901 098a A1090000 		.4byte	0x9a1
 1902 098e 19       		.uleb128 0x19
 1903 098f 83050000 		.4byte	.LASF122
 1904 0993 00       		.sleb128 0
 1905 0994 19       		.uleb128 0x19
 1906 0995 64020000 		.4byte	.LASF123
 1907 0999 01       		.sleb128 1
 1908 099a 19       		.uleb128 0x19
 1909 099b E4040000 		.4byte	.LASF124
 1910 099f 02       		.sleb128 2
 1911 09a0 00       		.byte	0
 1912 09a1 03       		.uleb128 0x3
 1913 09a2 98010000 		.4byte	.LASF125
 1914 09a6 13       		.byte	0x13
 1915 09a7 5C       		.byte	0x5c
 1916 09a8 86090000 		.4byte	0x986
 1917 09ac 03       		.uleb128 0x3
 1918 09ad 21000000 		.4byte	.LASF126
 1919 09b1 13       		.byte	0x13
 1920 09b2 61       		.byte	0x61
 1921 09b3 B7090000 		.4byte	0x9b7
 1922 09b7 05       		.uleb128 0x5
 1923 09b8 21000000 		.4byte	.LASF126
 1924 09bc 7C       		.byte	0x7c
 1925 09bd 13       		.byte	0x13
 1926 09be 7B       		.byte	0x7b
 1927 09bf 2E0A0000 		.4byte	0xa2e
 1928 09c3 07       		.uleb128 0x7
 1929 09c4 766D7400 		.ascii	"vmt\000"
 1930 09c8 13       		.byte	0x13
ARM GAS  /tmp/ccj5wzVV.s 			page 65


 1931 09c9 7D       		.byte	0x7d
 1932 09ca E50A0000 		.4byte	0xae5
 1933 09ce 00       		.byte	0
 1934 09cf 06       		.uleb128 0x6
 1935 09d0 A2010000 		.4byte	.LASF127
 1936 09d4 13       		.byte	0x13
 1937 09d5 7E       		.byte	0x7e
 1938 09d6 4D070000 		.4byte	0x74d
 1939 09da 04       		.byte	0x4
 1940 09db 06       		.uleb128 0x6
 1941 09dc 58060000 		.4byte	.LASF36
 1942 09e0 13       		.byte	0x13
 1943 09e1 7E       		.byte	0x7e
 1944 09e2 A1090000 		.4byte	0x9a1
 1945 09e6 08       		.byte	0x8
 1946 09e7 06       		.uleb128 0x6
 1947 09e8 65010000 		.4byte	.LASF128
 1948 09ec 13       		.byte	0x13
 1949 09ed 7E       		.byte	0x7e
 1950 09ee 65090000 		.4byte	0x965
 1951 09f2 0C       		.byte	0xc
 1952 09f3 06       		.uleb128 0x6
 1953 09f4 C1040000 		.4byte	.LASF129
 1954 09f8 13       		.byte	0x13
 1955 09f9 7E       		.byte	0x7e
 1956 09fa 70090000 		.4byte	0x970
 1957 09fe 30       		.byte	0x30
 1958 09ff 07       		.uleb128 0x7
 1959 0a00 696200   		.ascii	"ib\000"
 1960 0a03 13       		.byte	0x13
 1961 0a04 7E       		.byte	0x7e
 1962 0a05 F00A0000 		.4byte	0xaf0
 1963 0a09 54       		.byte	0x54
 1964 0a0a 07       		.uleb128 0x7
 1965 0a0b 6F6200   		.ascii	"ob\000"
 1966 0a0e 13       		.byte	0x13
 1967 0a0f 7E       		.byte	0x7e
 1968 0a10 F00A0000 		.4byte	0xaf0
 1969 0a14 64       		.byte	0x64
 1970 0a15 06       		.uleb128 0x6
 1971 0a16 2B030000 		.4byte	.LASF130
 1972 0a1a 13       		.byte	0x13
 1973 0a1b 7E       		.byte	0x7e
 1974 0a1c 000B0000 		.4byte	0xb00
 1975 0a20 74       		.byte	0x74
 1976 0a21 06       		.uleb128 0x6
 1977 0a22 FD040000 		.4byte	.LASF131
 1978 0a26 13       		.byte	0x13
 1979 0a27 7E       		.byte	0x7e
 1980 0a28 AD000000 		.4byte	0xad
 1981 0a2c 78       		.byte	0x78
 1982 0a2d 00       		.byte	0
 1983 0a2e 10       		.uleb128 0x10
 1984 0a2f 0C       		.byte	0xc
 1985 0a30 14       		.byte	0x14
 1986 0a31 0A01     		.2byte	0x10a
 1987 0a33 6C0A0000 		.4byte	0xa6c
ARM GAS  /tmp/ccj5wzVV.s 			page 66


 1988 0a37 09       		.uleb128 0x9
 1989 0a38 43010000 		.4byte	.LASF132
 1990 0a3c 14       		.byte	0x14
 1991 0a3d 0E01     		.2byte	0x10e
 1992 0a3f CE000000 		.4byte	0xce
 1993 0a43 00       		.byte	0
 1994 0a44 08       		.uleb128 0x8
 1995 0a45 63723100 		.ascii	"cr1\000"
 1996 0a49 14       		.byte	0x14
 1997 0a4a 1301     		.2byte	0x113
 1998 0a4c B8000000 		.4byte	0xb8
 1999 0a50 04       		.byte	0x4
 2000 0a51 08       		.uleb128 0x8
 2001 0a52 63723200 		.ascii	"cr2\000"
 2002 0a56 14       		.byte	0x14
 2003 0a57 1701     		.2byte	0x117
 2004 0a59 B8000000 		.4byte	0xb8
 2005 0a5d 06       		.byte	0x6
 2006 0a5e 08       		.uleb128 0x8
 2007 0a5f 63723300 		.ascii	"cr3\000"
 2008 0a63 14       		.byte	0x14
 2009 0a64 1B01     		.2byte	0x11b
 2010 0a66 B8000000 		.4byte	0xb8
 2011 0a6a 08       		.byte	0x8
 2012 0a6b 00       		.byte	0
 2013 0a6c 11       		.uleb128 0x11
 2014 0a6d 76050000 		.4byte	.LASF133
 2015 0a71 14       		.byte	0x14
 2016 0a72 1C01     		.2byte	0x11c
 2017 0a74 2E0A0000 		.4byte	0xa2e
 2018 0a78 05       		.uleb128 0x5
 2019 0a79 ED040000 		.4byte	.LASF134
 2020 0a7d 20       		.byte	0x20
 2021 0a7e 13       		.byte	0x13
 2022 0a7f 70       		.byte	0x70
 2023 0a80 E50A0000 		.4byte	0xae5
 2024 0a84 06       		.uleb128 0x6
 2025 0a85 4E030000 		.4byte	.LASF105
 2026 0a89 13       		.byte	0x13
 2027 0a8a 71       		.byte	0x71
 2028 0a8b C6070000 		.4byte	0x7c6
 2029 0a8f 00       		.byte	0
 2030 0a90 06       		.uleb128 0x6
 2031 0a91 93010000 		.4byte	.LASF106
 2032 0a95 13       		.byte	0x13
 2033 0a96 71       		.byte	0x71
 2034 0a97 E5070000 		.4byte	0x7e5
 2035 0a9b 04       		.byte	0x4
 2036 0a9c 07       		.uleb128 0x7
 2037 0a9d 70757400 		.ascii	"put\000"
 2038 0aa1 13       		.byte	0x13
 2039 0aa2 71       		.byte	0x71
 2040 0aa3 FF070000 		.4byte	0x7ff
 2041 0aa7 08       		.byte	0x8
 2042 0aa8 07       		.uleb128 0x7
 2043 0aa9 67657400 		.ascii	"get\000"
 2044 0aad 13       		.byte	0x13
ARM GAS  /tmp/ccj5wzVV.s 			page 67


 2045 0aae 71       		.byte	0x71
 2046 0aaf 14080000 		.4byte	0x814
 2047 0ab3 0C       		.byte	0xc
 2048 0ab4 06       		.uleb128 0x6
 2049 0ab5 4B020000 		.4byte	.LASF135
 2050 0ab9 13       		.byte	0x13
 2051 0aba 71       		.byte	0x71
 2052 0abb 5E080000 		.4byte	0x85e
 2053 0abf 10       		.byte	0x10
 2054 0ac0 06       		.uleb128 0x6
 2055 0ac1 A4050000 		.4byte	.LASF136
 2056 0ac5 13       		.byte	0x13
 2057 0ac6 71       		.byte	0x71
 2058 0ac7 78080000 		.4byte	0x878
 2059 0acb 14       		.byte	0x14
 2060 0acc 06       		.uleb128 0x6
 2061 0acd 49010000 		.4byte	.LASF137
 2062 0ad1 13       		.byte	0x13
 2063 0ad2 71       		.byte	0x71
 2064 0ad3 9C080000 		.4byte	0x89c
 2065 0ad7 18       		.byte	0x18
 2066 0ad8 06       		.uleb128 0x6
 2067 0ad9 71030000 		.4byte	.LASF138
 2068 0add 13       		.byte	0x13
 2069 0ade 71       		.byte	0x71
 2070 0adf C0080000 		.4byte	0x8c0
 2071 0ae3 1C       		.byte	0x1c
 2072 0ae4 00       		.byte	0
 2073 0ae5 0A       		.uleb128 0xa
 2074 0ae6 04       		.byte	0x4
 2075 0ae7 EB0A0000 		.4byte	0xaeb
 2076 0aeb 15       		.uleb128 0x15
 2077 0aec 780A0000 		.4byte	0xa78
 2078 0af0 1A       		.uleb128 0x1a
 2079 0af1 AD000000 		.4byte	0xad
 2080 0af5 000B0000 		.4byte	0xb00
 2081 0af9 1B       		.uleb128 0x1b
 2082 0afa 34040000 		.4byte	0x434
 2083 0afe 0F       		.byte	0xf
 2084 0aff 00       		.byte	0
 2085 0b00 0A       		.uleb128 0xa
 2086 0b01 04       		.byte	0x4
 2087 0b02 14050000 		.4byte	0x514
 2088 0b06 1C       		.uleb128 0x1c
 2089 0b07 D1040000 		.4byte	.LASF153
 2090 0b0b 02       		.byte	0x2
 2091 0b0c 85       		.byte	0x85
 2092 0b0d 03       		.byte	0x3
 2093 0b0e 1E0B0000 		.4byte	0xb1e
 2094 0b12 1D       		.uleb128 0x1d
 2095 0b13 71050000 		.4byte	.LASF34
 2096 0b17 02       		.byte	0x2
 2097 0b18 85       		.byte	0x85
 2098 0b19 9B060000 		.4byte	0x69b
 2099 0b1d 00       		.byte	0
 2100 0b1e 1E       		.uleb128 0x1e
 2101 0b1f 54030000 		.4byte	.LASF139
ARM GAS  /tmp/ccj5wzVV.s 			page 68


 2102 0b23 01       		.byte	0x1
 2103 0b24 2A       		.byte	0x2a
 2104 0b25 00000000 		.4byte	.LFB220
 2105 0b29 3A000000 		.4byte	.LFE220-.LFB220
 2106 0b2d 01       		.uleb128 0x1
 2107 0b2e 9C       		.byte	0x9c
 2108 0b2f 890B0000 		.4byte	0xb89
 2109 0b33 1F       		.uleb128 0x1f
 2110 0b34 61726700 		.ascii	"arg\000"
 2111 0b38 01       		.byte	0x1
 2112 0b39 2A       		.byte	0x2a
 2113 0b3a 18030000 		.4byte	0x318
 2114 0b3e 00000000 		.4byte	.LLST0
 2115 0b42 20       		.uleb128 0x20
 2116 0b43 060B0000 		.4byte	0xb06
 2117 0b47 02000000 		.4byte	.LBB6
 2118 0b4b 00000000 		.4byte	.Ldebug_ranges0+0
 2119 0b4f 01       		.byte	0x1
 2120 0b50 2E       		.byte	0x2e
 2121 0b51 620B0000 		.4byte	0xb62
 2122 0b55 21       		.uleb128 0x21
 2123 0b56 120B0000 		.4byte	0xb12
 2124 0b5a 06       		.uleb128 0x6
 2125 0b5b 03       		.byte	0x3
 2126 0b5c 00000000 		.4byte	.LC0
 2127 0b60 9F       		.byte	0x9f
 2128 0b61 00       		.byte	0
 2129 0b62 22       		.uleb128 0x22
 2130 0b63 2E000000 		.4byte	.LVL2
 2131 0b67 100D0000 		.4byte	0xd10
 2132 0b6b 770B0000 		.4byte	0xb77
 2133 0b6f 23       		.uleb128 0x23
 2134 0b70 01       		.uleb128 0x1
 2135 0b71 50       		.byte	0x50
 2136 0b72 03       		.uleb128 0x3
 2137 0b73 0A       		.byte	0xa
 2138 0b74 F401     		.2byte	0x1f4
 2139 0b76 00       		.byte	0
 2140 0b77 24       		.uleb128 0x24
 2141 0b78 38000000 		.4byte	.LVL3
 2142 0b7c 100D0000 		.4byte	0xd10
 2143 0b80 23       		.uleb128 0x23
 2144 0b81 01       		.uleb128 0x1
 2145 0b82 50       		.byte	0x50
 2146 0b83 03       		.uleb128 0x3
 2147 0b84 0A       		.byte	0xa
 2148 0b85 F401     		.2byte	0x1f4
 2149 0b87 00       		.byte	0
 2150 0b88 00       		.byte	0
 2151 0b89 1E       		.uleb128 0x1e
 2152 0b8a 5E060000 		.4byte	.LASF140
 2153 0b8e 01       		.byte	0x1
 2154 0b8f 19       		.byte	0x19
 2155 0b90 00000000 		.4byte	.LFB219
 2156 0b94 36000000 		.4byte	.LFE219-.LFB219
 2157 0b98 01       		.uleb128 0x1
 2158 0b99 9C       		.byte	0x9c
ARM GAS  /tmp/ccj5wzVV.s 			page 69


 2159 0b9a F20B0000 		.4byte	0xbf2
 2160 0b9e 1F       		.uleb128 0x1f
 2161 0b9f 61726700 		.ascii	"arg\000"
 2162 0ba3 01       		.byte	0x1
 2163 0ba4 19       		.byte	0x19
 2164 0ba5 18030000 		.4byte	0x318
 2165 0ba9 21000000 		.4byte	.LLST1
 2166 0bad 20       		.uleb128 0x20
 2167 0bae 060B0000 		.4byte	0xb06
 2168 0bb2 02000000 		.4byte	.LBB10
 2169 0bb6 18000000 		.4byte	.Ldebug_ranges0+0x18
 2170 0bba 01       		.byte	0x1
 2171 0bbb 1D       		.byte	0x1d
 2172 0bbc CD0B0000 		.4byte	0xbcd
 2173 0bc0 21       		.uleb128 0x21
 2174 0bc1 120B0000 		.4byte	0xb12
 2175 0bc5 06       		.uleb128 0x6
 2176 0bc6 03       		.byte	0x3
 2177 0bc7 00000000 		.4byte	.LC0
 2178 0bcb 9F       		.byte	0x9f
 2179 0bcc 00       		.byte	0
 2180 0bcd 22       		.uleb128 0x22
 2181 0bce 2C000000 		.4byte	.LVL6
 2182 0bd2 100D0000 		.4byte	0xd10
 2183 0bd6 E10B0000 		.4byte	0xbe1
 2184 0bda 23       		.uleb128 0x23
 2185 0bdb 01       		.uleb128 0x1
 2186 0bdc 50       		.byte	0x50
 2187 0bdd 02       		.uleb128 0x2
 2188 0bde 08       		.byte	0x8
 2189 0bdf FA       		.byte	0xfa
 2190 0be0 00       		.byte	0
 2191 0be1 24       		.uleb128 0x24
 2192 0be2 34000000 		.4byte	.LVL7
 2193 0be6 100D0000 		.4byte	0xd10
 2194 0bea 23       		.uleb128 0x23
 2195 0beb 01       		.uleb128 0x1
 2196 0bec 50       		.byte	0x50
 2197 0bed 02       		.uleb128 0x2
 2198 0bee 08       		.byte	0x8
 2199 0bef FA       		.byte	0xfa
 2200 0bf0 00       		.byte	0
 2201 0bf1 00       		.byte	0
 2202 0bf2 25       		.uleb128 0x25
 2203 0bf3 B1060000 		.4byte	.LASF154
 2204 0bf7 01       		.byte	0x1
 2205 0bf8 3A       		.byte	0x3a
 2206 0bf9 25000000 		.4byte	0x25
 2207 0bfd 00000000 		.4byte	.LFB221
 2208 0c01 7A000000 		.4byte	.LFE221-.LFB221
 2209 0c05 01       		.uleb128 0x1
 2210 0c06 9C       		.byte	0x9c
 2211 0c07 B60C0000 		.4byte	0xcb6
 2212 0c0b 26       		.uleb128 0x26
 2213 0c0c 08000000 		.4byte	.LVL8
 2214 0c10 220D0000 		.4byte	0xd22
 2215 0c14 26       		.uleb128 0x26
ARM GAS  /tmp/ccj5wzVV.s 			page 70


 2216 0c15 0C000000 		.4byte	.LVL9
 2217 0c19 290D0000 		.4byte	0xd29
 2218 0c1d 22       		.uleb128 0x22
 2219 0c1e 1A000000 		.4byte	.LVL10
 2220 0c22 310D0000 		.4byte	0xd31
 2221 0c26 300C0000 		.4byte	0xc30
 2222 0c2a 23       		.uleb128 0x23
 2223 0c2b 01       		.uleb128 0x1
 2224 0c2c 51       		.byte	0x51
 2225 0c2d 01       		.uleb128 0x1
 2226 0c2e 30       		.byte	0x30
 2227 0c2f 00       		.byte	0
 2228 0c30 22       		.uleb128 0x22
 2229 0c31 38000000 		.4byte	.LVL11
 2230 0c35 590D0000 		.4byte	0xd59
 2231 0c39 640C0000 		.4byte	0xc64
 2232 0c3d 23       		.uleb128 0x23
 2233 0c3e 01       		.uleb128 0x1
 2234 0c3f 53       		.byte	0x53
 2235 0c40 05       		.uleb128 0x5
 2236 0c41 03       		.byte	0x3
 2237 0c42 00000000 		.4byte	Thread1
 2238 0c46 23       		.uleb128 0x23
 2239 0c47 01       		.uleb128 0x1
 2240 0c48 52       		.byte	0x52
 2241 0c49 02       		.uleb128 0x2
 2242 0c4a 08       		.byte	0x8
 2243 0c4b 81       		.byte	0x81
 2244 0c4c 23       		.uleb128 0x23
 2245 0c4d 01       		.uleb128 0x1
 2246 0c4e 51       		.byte	0x51
 2247 0c4f 03       		.uleb128 0x3
 2248 0c50 0A       		.byte	0xa
 2249 0c51 4801     		.2byte	0x148
 2250 0c53 23       		.uleb128 0x23
 2251 0c54 01       		.uleb128 0x1
 2252 0c55 50       		.byte	0x50
 2253 0c56 05       		.uleb128 0x5
 2254 0c57 03       		.byte	0x3
 2255 0c58 00000000 		.4byte	.LANCHOR0
 2256 0c5c 23       		.uleb128 0x23
 2257 0c5d 02       		.uleb128 0x2
 2258 0c5e 7D       		.byte	0x7d
 2259 0c5f 00       		.sleb128 0
 2260 0c60 02       		.uleb128 0x2
 2261 0c61 74       		.byte	0x74
 2262 0c62 00       		.sleb128 0
 2263 0c63 00       		.byte	0
 2264 0c64 22       		.uleb128 0x22
 2265 0c65 58000000 		.4byte	.LVL12
 2266 0c69 590D0000 		.4byte	0xd59
 2267 0c6d 970C0000 		.4byte	0xc97
 2268 0c71 23       		.uleb128 0x23
 2269 0c72 01       		.uleb128 0x1
 2270 0c73 53       		.byte	0x53
 2271 0c74 05       		.uleb128 0x5
 2272 0c75 03       		.byte	0x3
ARM GAS  /tmp/ccj5wzVV.s 			page 71


 2273 0c76 00000000 		.4byte	Thread2
 2274 0c7a 23       		.uleb128 0x23
 2275 0c7b 01       		.uleb128 0x1
 2276 0c7c 52       		.byte	0x52
 2277 0c7d 02       		.uleb128 0x2
 2278 0c7e 08       		.byte	0x8
 2279 0c7f 81       		.byte	0x81
 2280 0c80 23       		.uleb128 0x23
 2281 0c81 01       		.uleb128 0x1
 2282 0c82 51       		.byte	0x51
 2283 0c83 03       		.uleb128 0x3
 2284 0c84 0A       		.byte	0xa
 2285 0c85 4801     		.2byte	0x148
 2286 0c87 23       		.uleb128 0x23
 2287 0c88 01       		.uleb128 0x1
 2288 0c89 50       		.byte	0x50
 2289 0c8a 05       		.uleb128 0x5
 2290 0c8b 03       		.byte	0x3
 2291 0c8c 00000000 		.4byte	.LANCHOR1
 2292 0c90 23       		.uleb128 0x23
 2293 0c91 02       		.uleb128 0x2
 2294 0c92 7D       		.byte	0x7d
 2295 0c93 00       		.sleb128 0
 2296 0c94 01       		.uleb128 0x1
 2297 0c95 30       		.byte	0x30
 2298 0c96 00       		.byte	0
 2299 0c97 22       		.uleb128 0x22
 2300 0c98 66000000 		.4byte	.LVL13
 2301 0c9c 100D0000 		.4byte	0xd10
 2302 0ca0 AC0C0000 		.4byte	0xcac
 2303 0ca4 23       		.uleb128 0x23
 2304 0ca5 01       		.uleb128 0x1
 2305 0ca6 50       		.byte	0x50
 2306 0ca7 03       		.uleb128 0x3
 2307 0ca8 0A       		.byte	0xa
 2308 0ca9 F401     		.2byte	0x1f4
 2309 0cab 00       		.byte	0
 2310 0cac 26       		.uleb128 0x26
 2311 0cad 78000000 		.4byte	.LVL14
 2312 0cb1 820D0000 		.4byte	0xd82
 2313 0cb5 00       		.byte	0
 2314 0cb6 1A       		.uleb128 0x1a
 2315 0cb7 2B050000 		.4byte	0x52b
 2316 0cbb C60C0000 		.4byte	0xcc6
 2317 0cbf 1B       		.uleb128 0x1b
 2318 0cc0 34040000 		.4byte	0x434
 2319 0cc4 28       		.byte	0x28
 2320 0cc5 00       		.byte	0
 2321 0cc6 27       		.uleb128 0x27
 2322 0cc7 F4050000 		.4byte	.LASF141
 2323 0ccb 01       		.byte	0x1
 2324 0ccc 18       		.byte	0x18
 2325 0ccd B60C0000 		.4byte	0xcb6
 2326 0cd1 05       		.uleb128 0x5
 2327 0cd2 03       		.byte	0x3
 2328 0cd3 00000000 		.4byte	waThread1
 2329 0cd7 27       		.uleb128 0x27
ARM GAS  /tmp/ccj5wzVV.s 			page 72


 2330 0cd8 FE050000 		.4byte	.LASF142
 2331 0cdc 01       		.byte	0x1
 2332 0cdd 29       		.byte	0x29
 2333 0cde B60C0000 		.4byte	0xcb6
 2334 0ce2 05       		.uleb128 0x5
 2335 0ce3 03       		.byte	0x3
 2336 0ce4 00000000 		.4byte	waThread2
 2337 0ce8 28       		.uleb128 0x28
 2338 0ce9 2A050000 		.4byte	.LASF143
 2339 0ced 18       		.byte	0x18
 2340 0cee 9606     		.2byte	0x696
 2341 0cf0 F40C0000 		.4byte	0xcf4
 2342 0cf4 0F       		.uleb128 0xf
 2343 0cf5 C3000000 		.4byte	0xc3
 2344 0cf9 29       		.uleb128 0x29
 2345 0cfa 636800   		.ascii	"ch\000"
 2346 0cfd 08       		.byte	0x8
 2347 0cfe D201     		.2byte	0x1d2
 2348 0d00 E7030000 		.4byte	0x3e7
 2349 0d04 29       		.uleb128 0x29
 2350 0d05 53443100 		.ascii	"SD1\000"
 2351 0d09 14       		.byte	0x14
 2352 0d0a 4401     		.2byte	0x144
 2353 0d0c AC090000 		.4byte	0x9ac
 2354 0d10 2A       		.uleb128 0x2a
 2355 0d11 4D060000 		.4byte	.LASF146
 2356 0d15 0E       		.byte	0xe
 2357 0d16 0901     		.2byte	0x109
 2358 0d18 220D0000 		.4byte	0xd22
 2359 0d1c 0D       		.uleb128 0xd
 2360 0d1d 3C010000 		.4byte	0x13c
 2361 0d21 00       		.byte	0
 2362 0d22 2B       		.uleb128 0x2b
 2363 0d23 F2020000 		.4byte	.LASF144
 2364 0d27 15       		.byte	0x15
 2365 0d28 E9       		.byte	0xe9
 2366 0d29 2C       		.uleb128 0x2c
 2367 0d2a BD020000 		.4byte	.LASF145
 2368 0d2e 16       		.byte	0x16
 2369 0d2f 3101     		.2byte	0x131
 2370 0d31 2A       		.uleb128 0x2a
 2371 0d32 2E000000 		.4byte	.LASF147
 2372 0d36 13       		.byte	0x13
 2373 0d37 1801     		.2byte	0x118
 2374 0d39 480D0000 		.4byte	0xd48
 2375 0d3d 0D       		.uleb128 0xd
 2376 0d3e 480D0000 		.4byte	0xd48
 2377 0d42 0D       		.uleb128 0xd
 2378 0d43 4E0D0000 		.4byte	0xd4e
 2379 0d47 00       		.byte	0
 2380 0d48 0A       		.uleb128 0xa
 2381 0d49 04       		.byte	0x4
 2382 0d4a AC090000 		.4byte	0x9ac
 2383 0d4e 0A       		.uleb128 0xa
 2384 0d4f 04       		.byte	0x4
 2385 0d50 540D0000 		.4byte	0xd54
 2386 0d54 15       		.uleb128 0x15
ARM GAS  /tmp/ccj5wzVV.s 			page 73


 2387 0d55 6C0A0000 		.4byte	0xa6c
 2388 0d59 2D       		.uleb128 0x2d
 2389 0d5a 5D040000 		.4byte	.LASF148
 2390 0d5e 0E       		.byte	0xe
 2391 0d5f F3       		.byte	0xf3
 2392 0d60 3B020000 		.4byte	0x23b
 2393 0d64 820D0000 		.4byte	0xd82
 2394 0d68 0D       		.uleb128 0xd
 2395 0d69 18030000 		.4byte	0x318
 2396 0d6d 0D       		.uleb128 0xd
 2397 0d6e 2C000000 		.4byte	0x2c
 2398 0d72 0D       		.uleb128 0xd
 2399 0d73 05010000 		.4byte	0x105
 2400 0d77 0D       		.uleb128 0xd
 2401 0d78 BE060000 		.4byte	0x6be
 2402 0d7c 0D       		.uleb128 0xd
 2403 0d7d 18030000 		.4byte	0x318
 2404 0d81 00       		.byte	0
 2405 0d82 2D       		.uleb128 0x2d
 2406 0d83 02030000 		.4byte	.LASF149
 2407 0d87 17       		.byte	0x17
 2408 0d88 B0       		.byte	0xb0
 2409 0d89 10010000 		.4byte	0x110
 2410 0d8d 970D0000 		.4byte	0xd97
 2411 0d91 0D       		.uleb128 0xd
 2412 0d92 970D0000 		.4byte	0xd97
 2413 0d96 00       		.byte	0
 2414 0d97 0A       		.uleb128 0xa
 2415 0d98 04       		.byte	0x4
 2416 0d99 3A080000 		.4byte	0x83a
 2417 0d9d 00       		.byte	0
 2418              		.section	.debug_abbrev,"",%progbits
 2419              	.Ldebug_abbrev0:
 2420 0000 01       		.uleb128 0x1
 2421 0001 11       		.uleb128 0x11
 2422 0002 01       		.byte	0x1
 2423 0003 25       		.uleb128 0x25
 2424 0004 0E       		.uleb128 0xe
 2425 0005 13       		.uleb128 0x13
 2426 0006 0B       		.uleb128 0xb
 2427 0007 03       		.uleb128 0x3
 2428 0008 0E       		.uleb128 0xe
 2429 0009 1B       		.uleb128 0x1b
 2430 000a 0E       		.uleb128 0xe
 2431 000b 55       		.uleb128 0x55
 2432 000c 17       		.uleb128 0x17
 2433 000d 11       		.uleb128 0x11
 2434 000e 01       		.uleb128 0x1
 2435 000f 10       		.uleb128 0x10
 2436 0010 17       		.uleb128 0x17
 2437 0011 00       		.byte	0
 2438 0012 00       		.byte	0
 2439 0013 02       		.uleb128 0x2
 2440 0014 24       		.uleb128 0x24
 2441 0015 00       		.byte	0
 2442 0016 0B       		.uleb128 0xb
 2443 0017 0B       		.uleb128 0xb
ARM GAS  /tmp/ccj5wzVV.s 			page 74


 2444 0018 3E       		.uleb128 0x3e
 2445 0019 0B       		.uleb128 0xb
 2446 001a 03       		.uleb128 0x3
 2447 001b 08       		.uleb128 0x8
 2448 001c 00       		.byte	0
 2449 001d 00       		.byte	0
 2450 001e 03       		.uleb128 0x3
 2451 001f 16       		.uleb128 0x16
 2452 0020 00       		.byte	0
 2453 0021 03       		.uleb128 0x3
 2454 0022 0E       		.uleb128 0xe
 2455 0023 3A       		.uleb128 0x3a
 2456 0024 0B       		.uleb128 0xb
 2457 0025 3B       		.uleb128 0x3b
 2458 0026 0B       		.uleb128 0xb
 2459 0027 49       		.uleb128 0x49
 2460 0028 13       		.uleb128 0x13
 2461 0029 00       		.byte	0
 2462 002a 00       		.byte	0
 2463 002b 04       		.uleb128 0x4
 2464 002c 24       		.uleb128 0x24
 2465 002d 00       		.byte	0
 2466 002e 0B       		.uleb128 0xb
 2467 002f 0B       		.uleb128 0xb
 2468 0030 3E       		.uleb128 0x3e
 2469 0031 0B       		.uleb128 0xb
 2470 0032 03       		.uleb128 0x3
 2471 0033 0E       		.uleb128 0xe
 2472 0034 00       		.byte	0
 2473 0035 00       		.byte	0
 2474 0036 05       		.uleb128 0x5
 2475 0037 13       		.uleb128 0x13
 2476 0038 01       		.byte	0x1
 2477 0039 03       		.uleb128 0x3
 2478 003a 0E       		.uleb128 0xe
 2479 003b 0B       		.uleb128 0xb
 2480 003c 0B       		.uleb128 0xb
 2481 003d 3A       		.uleb128 0x3a
 2482 003e 0B       		.uleb128 0xb
 2483 003f 3B       		.uleb128 0x3b
 2484 0040 0B       		.uleb128 0xb
 2485 0041 01       		.uleb128 0x1
 2486 0042 13       		.uleb128 0x13
 2487 0043 00       		.byte	0
 2488 0044 00       		.byte	0
 2489 0045 06       		.uleb128 0x6
 2490 0046 0D       		.uleb128 0xd
 2491 0047 00       		.byte	0
 2492 0048 03       		.uleb128 0x3
 2493 0049 0E       		.uleb128 0xe
 2494 004a 3A       		.uleb128 0x3a
 2495 004b 0B       		.uleb128 0xb
 2496 004c 3B       		.uleb128 0x3b
 2497 004d 0B       		.uleb128 0xb
 2498 004e 49       		.uleb128 0x49
 2499 004f 13       		.uleb128 0x13
 2500 0050 38       		.uleb128 0x38
ARM GAS  /tmp/ccj5wzVV.s 			page 75


 2501 0051 0B       		.uleb128 0xb
 2502 0052 00       		.byte	0
 2503 0053 00       		.byte	0
 2504 0054 07       		.uleb128 0x7
 2505 0055 0D       		.uleb128 0xd
 2506 0056 00       		.byte	0
 2507 0057 03       		.uleb128 0x3
 2508 0058 08       		.uleb128 0x8
 2509 0059 3A       		.uleb128 0x3a
 2510 005a 0B       		.uleb128 0xb
 2511 005b 3B       		.uleb128 0x3b
 2512 005c 0B       		.uleb128 0xb
 2513 005d 49       		.uleb128 0x49
 2514 005e 13       		.uleb128 0x13
 2515 005f 38       		.uleb128 0x38
 2516 0060 0B       		.uleb128 0xb
 2517 0061 00       		.byte	0
 2518 0062 00       		.byte	0
 2519 0063 08       		.uleb128 0x8
 2520 0064 0D       		.uleb128 0xd
 2521 0065 00       		.byte	0
 2522 0066 03       		.uleb128 0x3
 2523 0067 08       		.uleb128 0x8
 2524 0068 3A       		.uleb128 0x3a
 2525 0069 0B       		.uleb128 0xb
 2526 006a 3B       		.uleb128 0x3b
 2527 006b 05       		.uleb128 0x5
 2528 006c 49       		.uleb128 0x49
 2529 006d 13       		.uleb128 0x13
 2530 006e 38       		.uleb128 0x38
 2531 006f 0B       		.uleb128 0xb
 2532 0070 00       		.byte	0
 2533 0071 00       		.byte	0
 2534 0072 09       		.uleb128 0x9
 2535 0073 0D       		.uleb128 0xd
 2536 0074 00       		.byte	0
 2537 0075 03       		.uleb128 0x3
 2538 0076 0E       		.uleb128 0xe
 2539 0077 3A       		.uleb128 0x3a
 2540 0078 0B       		.uleb128 0xb
 2541 0079 3B       		.uleb128 0x3b
 2542 007a 05       		.uleb128 0x5
 2543 007b 49       		.uleb128 0x49
 2544 007c 13       		.uleb128 0x13
 2545 007d 38       		.uleb128 0x38
 2546 007e 0B       		.uleb128 0xb
 2547 007f 00       		.byte	0
 2548 0080 00       		.byte	0
 2549 0081 0A       		.uleb128 0xa
 2550 0082 0F       		.uleb128 0xf
 2551 0083 00       		.byte	0
 2552 0084 0B       		.uleb128 0xb
 2553 0085 0B       		.uleb128 0xb
 2554 0086 49       		.uleb128 0x49
 2555 0087 13       		.uleb128 0x13
 2556 0088 00       		.byte	0
 2557 0089 00       		.byte	0
ARM GAS  /tmp/ccj5wzVV.s 			page 76


 2558 008a 0B       		.uleb128 0xb
 2559 008b 13       		.uleb128 0x13
 2560 008c 01       		.byte	0x1
 2561 008d 03       		.uleb128 0x3
 2562 008e 0E       		.uleb128 0xe
 2563 008f 0B       		.uleb128 0xb
 2564 0090 0B       		.uleb128 0xb
 2565 0091 3A       		.uleb128 0x3a
 2566 0092 0B       		.uleb128 0xb
 2567 0093 3B       		.uleb128 0x3b
 2568 0094 05       		.uleb128 0x5
 2569 0095 01       		.uleb128 0x1
 2570 0096 13       		.uleb128 0x13
 2571 0097 00       		.byte	0
 2572 0098 00       		.byte	0
 2573 0099 0C       		.uleb128 0xc
 2574 009a 15       		.uleb128 0x15
 2575 009b 01       		.byte	0x1
 2576 009c 27       		.uleb128 0x27
 2577 009d 19       		.uleb128 0x19
 2578 009e 01       		.uleb128 0x1
 2579 009f 13       		.uleb128 0x13
 2580 00a0 00       		.byte	0
 2581 00a1 00       		.byte	0
 2582 00a2 0D       		.uleb128 0xd
 2583 00a3 05       		.uleb128 0x5
 2584 00a4 00       		.byte	0
 2585 00a5 49       		.uleb128 0x49
 2586 00a6 13       		.uleb128 0x13
 2587 00a7 00       		.byte	0
 2588 00a8 00       		.byte	0
 2589 00a9 0E       		.uleb128 0xe
 2590 00aa 0F       		.uleb128 0xf
 2591 00ab 00       		.byte	0
 2592 00ac 0B       		.uleb128 0xb
 2593 00ad 0B       		.uleb128 0xb
 2594 00ae 00       		.byte	0
 2595 00af 00       		.byte	0
 2596 00b0 0F       		.uleb128 0xf
 2597 00b1 35       		.uleb128 0x35
 2598 00b2 00       		.byte	0
 2599 00b3 49       		.uleb128 0x49
 2600 00b4 13       		.uleb128 0x13
 2601 00b5 00       		.byte	0
 2602 00b6 00       		.byte	0
 2603 00b7 10       		.uleb128 0x10
 2604 00b8 13       		.uleb128 0x13
 2605 00b9 01       		.byte	0x1
 2606 00ba 0B       		.uleb128 0xb
 2607 00bb 0B       		.uleb128 0xb
 2608 00bc 3A       		.uleb128 0x3a
 2609 00bd 0B       		.uleb128 0xb
 2610 00be 3B       		.uleb128 0x3b
 2611 00bf 05       		.uleb128 0x5
 2612 00c0 01       		.uleb128 0x1
 2613 00c1 13       		.uleb128 0x13
 2614 00c2 00       		.byte	0
ARM GAS  /tmp/ccj5wzVV.s 			page 77


 2615 00c3 00       		.byte	0
 2616 00c4 11       		.uleb128 0x11
 2617 00c5 16       		.uleb128 0x16
 2618 00c6 00       		.byte	0
 2619 00c7 03       		.uleb128 0x3
 2620 00c8 0E       		.uleb128 0xe
 2621 00c9 3A       		.uleb128 0x3a
 2622 00ca 0B       		.uleb128 0xb
 2623 00cb 3B       		.uleb128 0x3b
 2624 00cc 05       		.uleb128 0x5
 2625 00cd 49       		.uleb128 0x49
 2626 00ce 13       		.uleb128 0x13
 2627 00cf 00       		.byte	0
 2628 00d0 00       		.byte	0
 2629 00d1 12       		.uleb128 0x12
 2630 00d2 17       		.uleb128 0x17
 2631 00d3 01       		.byte	0x1
 2632 00d4 0B       		.uleb128 0xb
 2633 00d5 0B       		.uleb128 0xb
 2634 00d6 3A       		.uleb128 0x3a
 2635 00d7 0B       		.uleb128 0xb
 2636 00d8 3B       		.uleb128 0x3b
 2637 00d9 0B       		.uleb128 0xb
 2638 00da 01       		.uleb128 0x1
 2639 00db 13       		.uleb128 0x13
 2640 00dc 00       		.byte	0
 2641 00dd 00       		.byte	0
 2642 00de 13       		.uleb128 0x13
 2643 00df 0D       		.uleb128 0xd
 2644 00e0 00       		.byte	0
 2645 00e1 03       		.uleb128 0x3
 2646 00e2 0E       		.uleb128 0xe
 2647 00e3 3A       		.uleb128 0x3a
 2648 00e4 0B       		.uleb128 0xb
 2649 00e5 3B       		.uleb128 0x3b
 2650 00e6 0B       		.uleb128 0xb
 2651 00e7 49       		.uleb128 0x49
 2652 00e8 13       		.uleb128 0x13
 2653 00e9 00       		.byte	0
 2654 00ea 00       		.byte	0
 2655 00eb 14       		.uleb128 0x14
 2656 00ec 0D       		.uleb128 0xd
 2657 00ed 00       		.byte	0
 2658 00ee 03       		.uleb128 0x3
 2659 00ef 0E       		.uleb128 0xe
 2660 00f0 3A       		.uleb128 0x3a
 2661 00f1 0B       		.uleb128 0xb
 2662 00f2 3B       		.uleb128 0x3b
 2663 00f3 05       		.uleb128 0x5
 2664 00f4 49       		.uleb128 0x49
 2665 00f5 13       		.uleb128 0x13
 2666 00f6 00       		.byte	0
 2667 00f7 00       		.byte	0
 2668 00f8 15       		.uleb128 0x15
 2669 00f9 26       		.uleb128 0x26
 2670 00fa 00       		.byte	0
 2671 00fb 49       		.uleb128 0x49
ARM GAS  /tmp/ccj5wzVV.s 			page 78


 2672 00fc 13       		.uleb128 0x13
 2673 00fd 00       		.byte	0
 2674 00fe 00       		.byte	0
 2675 00ff 16       		.uleb128 0x16
 2676 0100 15       		.uleb128 0x15
 2677 0101 01       		.byte	0x1
 2678 0102 27       		.uleb128 0x27
 2679 0103 19       		.uleb128 0x19
 2680 0104 49       		.uleb128 0x49
 2681 0105 13       		.uleb128 0x13
 2682 0106 01       		.uleb128 0x1
 2683 0107 13       		.uleb128 0x13
 2684 0108 00       		.byte	0
 2685 0109 00       		.byte	0
 2686 010a 17       		.uleb128 0x17
 2687 010b 13       		.uleb128 0x13
 2688 010c 01       		.byte	0x1
 2689 010d 0B       		.uleb128 0xb
 2690 010e 0B       		.uleb128 0xb
 2691 010f 3A       		.uleb128 0x3a
 2692 0110 0B       		.uleb128 0xb
 2693 0111 3B       		.uleb128 0x3b
 2694 0112 0B       		.uleb128 0xb
 2695 0113 01       		.uleb128 0x1
 2696 0114 13       		.uleb128 0x13
 2697 0115 00       		.byte	0
 2698 0116 00       		.byte	0
 2699 0117 18       		.uleb128 0x18
 2700 0118 04       		.uleb128 0x4
 2701 0119 01       		.byte	0x1
 2702 011a 0B       		.uleb128 0xb
 2703 011b 0B       		.uleb128 0xb
 2704 011c 3A       		.uleb128 0x3a
 2705 011d 0B       		.uleb128 0xb
 2706 011e 3B       		.uleb128 0x3b
 2707 011f 0B       		.uleb128 0xb
 2708 0120 01       		.uleb128 0x1
 2709 0121 13       		.uleb128 0x13
 2710 0122 00       		.byte	0
 2711 0123 00       		.byte	0
 2712 0124 19       		.uleb128 0x19
 2713 0125 28       		.uleb128 0x28
 2714 0126 00       		.byte	0
 2715 0127 03       		.uleb128 0x3
 2716 0128 0E       		.uleb128 0xe
 2717 0129 1C       		.uleb128 0x1c
 2718 012a 0D       		.uleb128 0xd
 2719 012b 00       		.byte	0
 2720 012c 00       		.byte	0
 2721 012d 1A       		.uleb128 0x1a
 2722 012e 01       		.uleb128 0x1
 2723 012f 01       		.byte	0x1
 2724 0130 49       		.uleb128 0x49
 2725 0131 13       		.uleb128 0x13
 2726 0132 01       		.uleb128 0x1
 2727 0133 13       		.uleb128 0x13
 2728 0134 00       		.byte	0
ARM GAS  /tmp/ccj5wzVV.s 			page 79


 2729 0135 00       		.byte	0
 2730 0136 1B       		.uleb128 0x1b
 2731 0137 21       		.uleb128 0x21
 2732 0138 00       		.byte	0
 2733 0139 49       		.uleb128 0x49
 2734 013a 13       		.uleb128 0x13
 2735 013b 2F       		.uleb128 0x2f
 2736 013c 0B       		.uleb128 0xb
 2737 013d 00       		.byte	0
 2738 013e 00       		.byte	0
 2739 013f 1C       		.uleb128 0x1c
 2740 0140 2E       		.uleb128 0x2e
 2741 0141 01       		.byte	0x1
 2742 0142 03       		.uleb128 0x3
 2743 0143 0E       		.uleb128 0xe
 2744 0144 3A       		.uleb128 0x3a
 2745 0145 0B       		.uleb128 0xb
 2746 0146 3B       		.uleb128 0x3b
 2747 0147 0B       		.uleb128 0xb
 2748 0148 27       		.uleb128 0x27
 2749 0149 19       		.uleb128 0x19
 2750 014a 20       		.uleb128 0x20
 2751 014b 0B       		.uleb128 0xb
 2752 014c 01       		.uleb128 0x1
 2753 014d 13       		.uleb128 0x13
 2754 014e 00       		.byte	0
 2755 014f 00       		.byte	0
 2756 0150 1D       		.uleb128 0x1d
 2757 0151 05       		.uleb128 0x5
 2758 0152 00       		.byte	0
 2759 0153 03       		.uleb128 0x3
 2760 0154 0E       		.uleb128 0xe
 2761 0155 3A       		.uleb128 0x3a
 2762 0156 0B       		.uleb128 0xb
 2763 0157 3B       		.uleb128 0x3b
 2764 0158 0B       		.uleb128 0xb
 2765 0159 49       		.uleb128 0x49
 2766 015a 13       		.uleb128 0x13
 2767 015b 00       		.byte	0
 2768 015c 00       		.byte	0
 2769 015d 1E       		.uleb128 0x1e
 2770 015e 2E       		.uleb128 0x2e
 2771 015f 01       		.byte	0x1
 2772 0160 03       		.uleb128 0x3
 2773 0161 0E       		.uleb128 0xe
 2774 0162 3A       		.uleb128 0x3a
 2775 0163 0B       		.uleb128 0xb
 2776 0164 3B       		.uleb128 0x3b
 2777 0165 0B       		.uleb128 0xb
 2778 0166 27       		.uleb128 0x27
 2779 0167 19       		.uleb128 0x19
 2780 0168 11       		.uleb128 0x11
 2781 0169 01       		.uleb128 0x1
 2782 016a 12       		.uleb128 0x12
 2783 016b 06       		.uleb128 0x6
 2784 016c 40       		.uleb128 0x40
 2785 016d 18       		.uleb128 0x18
ARM GAS  /tmp/ccj5wzVV.s 			page 80


 2786 016e 9742     		.uleb128 0x2117
 2787 0170 19       		.uleb128 0x19
 2788 0171 01       		.uleb128 0x1
 2789 0172 13       		.uleb128 0x13
 2790 0173 00       		.byte	0
 2791 0174 00       		.byte	0
 2792 0175 1F       		.uleb128 0x1f
 2793 0176 05       		.uleb128 0x5
 2794 0177 00       		.byte	0
 2795 0178 03       		.uleb128 0x3
 2796 0179 08       		.uleb128 0x8
 2797 017a 3A       		.uleb128 0x3a
 2798 017b 0B       		.uleb128 0xb
 2799 017c 3B       		.uleb128 0x3b
 2800 017d 0B       		.uleb128 0xb
 2801 017e 49       		.uleb128 0x49
 2802 017f 13       		.uleb128 0x13
 2803 0180 02       		.uleb128 0x2
 2804 0181 17       		.uleb128 0x17
 2805 0182 00       		.byte	0
 2806 0183 00       		.byte	0
 2807 0184 20       		.uleb128 0x20
 2808 0185 1D       		.uleb128 0x1d
 2809 0186 01       		.byte	0x1
 2810 0187 31       		.uleb128 0x31
 2811 0188 13       		.uleb128 0x13
 2812 0189 52       		.uleb128 0x52
 2813 018a 01       		.uleb128 0x1
 2814 018b 55       		.uleb128 0x55
 2815 018c 17       		.uleb128 0x17
 2816 018d 58       		.uleb128 0x58
 2817 018e 0B       		.uleb128 0xb
 2818 018f 59       		.uleb128 0x59
 2819 0190 0B       		.uleb128 0xb
 2820 0191 01       		.uleb128 0x1
 2821 0192 13       		.uleb128 0x13
 2822 0193 00       		.byte	0
 2823 0194 00       		.byte	0
 2824 0195 21       		.uleb128 0x21
 2825 0196 05       		.uleb128 0x5
 2826 0197 00       		.byte	0
 2827 0198 31       		.uleb128 0x31
 2828 0199 13       		.uleb128 0x13
 2829 019a 02       		.uleb128 0x2
 2830 019b 18       		.uleb128 0x18
 2831 019c 00       		.byte	0
 2832 019d 00       		.byte	0
 2833 019e 22       		.uleb128 0x22
 2834 019f 898201   		.uleb128 0x4109
 2835 01a2 01       		.byte	0x1
 2836 01a3 11       		.uleb128 0x11
 2837 01a4 01       		.uleb128 0x1
 2838 01a5 31       		.uleb128 0x31
 2839 01a6 13       		.uleb128 0x13
 2840 01a7 01       		.uleb128 0x1
 2841 01a8 13       		.uleb128 0x13
 2842 01a9 00       		.byte	0
ARM GAS  /tmp/ccj5wzVV.s 			page 81


 2843 01aa 00       		.byte	0
 2844 01ab 23       		.uleb128 0x23
 2845 01ac 8A8201   		.uleb128 0x410a
 2846 01af 00       		.byte	0
 2847 01b0 02       		.uleb128 0x2
 2848 01b1 18       		.uleb128 0x18
 2849 01b2 9142     		.uleb128 0x2111
 2850 01b4 18       		.uleb128 0x18
 2851 01b5 00       		.byte	0
 2852 01b6 00       		.byte	0
 2853 01b7 24       		.uleb128 0x24
 2854 01b8 898201   		.uleb128 0x4109
 2855 01bb 01       		.byte	0x1
 2856 01bc 11       		.uleb128 0x11
 2857 01bd 01       		.uleb128 0x1
 2858 01be 31       		.uleb128 0x31
 2859 01bf 13       		.uleb128 0x13
 2860 01c0 00       		.byte	0
 2861 01c1 00       		.byte	0
 2862 01c2 25       		.uleb128 0x25
 2863 01c3 2E       		.uleb128 0x2e
 2864 01c4 01       		.byte	0x1
 2865 01c5 3F       		.uleb128 0x3f
 2866 01c6 19       		.uleb128 0x19
 2867 01c7 03       		.uleb128 0x3
 2868 01c8 0E       		.uleb128 0xe
 2869 01c9 3A       		.uleb128 0x3a
 2870 01ca 0B       		.uleb128 0xb
 2871 01cb 3B       		.uleb128 0x3b
 2872 01cc 0B       		.uleb128 0xb
 2873 01cd 27       		.uleb128 0x27
 2874 01ce 19       		.uleb128 0x19
 2875 01cf 49       		.uleb128 0x49
 2876 01d0 13       		.uleb128 0x13
 2877 01d1 11       		.uleb128 0x11
 2878 01d2 01       		.uleb128 0x1
 2879 01d3 12       		.uleb128 0x12
 2880 01d4 06       		.uleb128 0x6
 2881 01d5 40       		.uleb128 0x40
 2882 01d6 18       		.uleb128 0x18
 2883 01d7 9742     		.uleb128 0x2117
 2884 01d9 19       		.uleb128 0x19
 2885 01da 01       		.uleb128 0x1
 2886 01db 13       		.uleb128 0x13
 2887 01dc 00       		.byte	0
 2888 01dd 00       		.byte	0
 2889 01de 26       		.uleb128 0x26
 2890 01df 898201   		.uleb128 0x4109
 2891 01e2 00       		.byte	0
 2892 01e3 11       		.uleb128 0x11
 2893 01e4 01       		.uleb128 0x1
 2894 01e5 31       		.uleb128 0x31
 2895 01e6 13       		.uleb128 0x13
 2896 01e7 00       		.byte	0
 2897 01e8 00       		.byte	0
 2898 01e9 27       		.uleb128 0x27
 2899 01ea 34       		.uleb128 0x34
ARM GAS  /tmp/ccj5wzVV.s 			page 82


 2900 01eb 00       		.byte	0
 2901 01ec 03       		.uleb128 0x3
 2902 01ed 0E       		.uleb128 0xe
 2903 01ee 3A       		.uleb128 0x3a
 2904 01ef 0B       		.uleb128 0xb
 2905 01f0 3B       		.uleb128 0x3b
 2906 01f1 0B       		.uleb128 0xb
 2907 01f2 49       		.uleb128 0x49
 2908 01f3 13       		.uleb128 0x13
 2909 01f4 02       		.uleb128 0x2
 2910 01f5 18       		.uleb128 0x18
 2911 01f6 00       		.byte	0
 2912 01f7 00       		.byte	0
 2913 01f8 28       		.uleb128 0x28
 2914 01f9 34       		.uleb128 0x34
 2915 01fa 00       		.byte	0
 2916 01fb 03       		.uleb128 0x3
 2917 01fc 0E       		.uleb128 0xe
 2918 01fd 3A       		.uleb128 0x3a
 2919 01fe 0B       		.uleb128 0xb
 2920 01ff 3B       		.uleb128 0x3b
 2921 0200 05       		.uleb128 0x5
 2922 0201 49       		.uleb128 0x49
 2923 0202 13       		.uleb128 0x13
 2924 0203 3F       		.uleb128 0x3f
 2925 0204 19       		.uleb128 0x19
 2926 0205 3C       		.uleb128 0x3c
 2927 0206 19       		.uleb128 0x19
 2928 0207 00       		.byte	0
 2929 0208 00       		.byte	0
 2930 0209 29       		.uleb128 0x29
 2931 020a 34       		.uleb128 0x34
 2932 020b 00       		.byte	0
 2933 020c 03       		.uleb128 0x3
 2934 020d 08       		.uleb128 0x8
 2935 020e 3A       		.uleb128 0x3a
 2936 020f 0B       		.uleb128 0xb
 2937 0210 3B       		.uleb128 0x3b
 2938 0211 05       		.uleb128 0x5
 2939 0212 49       		.uleb128 0x49
 2940 0213 13       		.uleb128 0x13
 2941 0214 3F       		.uleb128 0x3f
 2942 0215 19       		.uleb128 0x19
 2943 0216 3C       		.uleb128 0x3c
 2944 0217 19       		.uleb128 0x19
 2945 0218 00       		.byte	0
 2946 0219 00       		.byte	0
 2947 021a 2A       		.uleb128 0x2a
 2948 021b 2E       		.uleb128 0x2e
 2949 021c 01       		.byte	0x1
 2950 021d 3F       		.uleb128 0x3f
 2951 021e 19       		.uleb128 0x19
 2952 021f 03       		.uleb128 0x3
 2953 0220 0E       		.uleb128 0xe
 2954 0221 3A       		.uleb128 0x3a
 2955 0222 0B       		.uleb128 0xb
 2956 0223 3B       		.uleb128 0x3b
ARM GAS  /tmp/ccj5wzVV.s 			page 83


 2957 0224 05       		.uleb128 0x5
 2958 0225 27       		.uleb128 0x27
 2959 0226 19       		.uleb128 0x19
 2960 0227 3C       		.uleb128 0x3c
 2961 0228 19       		.uleb128 0x19
 2962 0229 01       		.uleb128 0x1
 2963 022a 13       		.uleb128 0x13
 2964 022b 00       		.byte	0
 2965 022c 00       		.byte	0
 2966 022d 2B       		.uleb128 0x2b
 2967 022e 2E       		.uleb128 0x2e
 2968 022f 00       		.byte	0
 2969 0230 3F       		.uleb128 0x3f
 2970 0231 19       		.uleb128 0x19
 2971 0232 03       		.uleb128 0x3
 2972 0233 0E       		.uleb128 0xe
 2973 0234 3A       		.uleb128 0x3a
 2974 0235 0B       		.uleb128 0xb
 2975 0236 3B       		.uleb128 0x3b
 2976 0237 0B       		.uleb128 0xb
 2977 0238 27       		.uleb128 0x27
 2978 0239 19       		.uleb128 0x19
 2979 023a 3C       		.uleb128 0x3c
 2980 023b 19       		.uleb128 0x19
 2981 023c 00       		.byte	0
 2982 023d 00       		.byte	0
 2983 023e 2C       		.uleb128 0x2c
 2984 023f 2E       		.uleb128 0x2e
 2985 0240 00       		.byte	0
 2986 0241 3F       		.uleb128 0x3f
 2987 0242 19       		.uleb128 0x19
 2988 0243 03       		.uleb128 0x3
 2989 0244 0E       		.uleb128 0xe
 2990 0245 3A       		.uleb128 0x3a
 2991 0246 0B       		.uleb128 0xb
 2992 0247 3B       		.uleb128 0x3b
 2993 0248 05       		.uleb128 0x5
 2994 0249 27       		.uleb128 0x27
 2995 024a 19       		.uleb128 0x19
 2996 024b 3C       		.uleb128 0x3c
 2997 024c 19       		.uleb128 0x19
 2998 024d 00       		.byte	0
 2999 024e 00       		.byte	0
 3000 024f 2D       		.uleb128 0x2d
 3001 0250 2E       		.uleb128 0x2e
 3002 0251 01       		.byte	0x1
 3003 0252 3F       		.uleb128 0x3f
 3004 0253 19       		.uleb128 0x19
 3005 0254 03       		.uleb128 0x3
 3006 0255 0E       		.uleb128 0xe
 3007 0256 3A       		.uleb128 0x3a
 3008 0257 0B       		.uleb128 0xb
 3009 0258 3B       		.uleb128 0x3b
 3010 0259 0B       		.uleb128 0xb
 3011 025a 27       		.uleb128 0x27
 3012 025b 19       		.uleb128 0x19
 3013 025c 49       		.uleb128 0x49
ARM GAS  /tmp/ccj5wzVV.s 			page 84


 3014 025d 13       		.uleb128 0x13
 3015 025e 3C       		.uleb128 0x3c
 3016 025f 19       		.uleb128 0x19
 3017 0260 01       		.uleb128 0x1
 3018 0261 13       		.uleb128 0x13
 3019 0262 00       		.byte	0
 3020 0263 00       		.byte	0
 3021 0264 00       		.byte	0
 3022              		.section	.debug_loc,"",%progbits
 3023              	.Ldebug_loc0:
 3024              	.LLST0:
 3025 0000 00000000 		.4byte	.LVL0
 3026 0004 24000000 		.4byte	.LVL1
 3027 0008 0100     		.2byte	0x1
 3028 000a 50       		.byte	0x50
 3029 000b 24000000 		.4byte	.LVL1
 3030 000f 3A000000 		.4byte	.LFE220
 3031 0013 0400     		.2byte	0x4
 3032 0015 F3       		.byte	0xf3
 3033 0016 01       		.uleb128 0x1
 3034 0017 50       		.byte	0x50
 3035 0018 9F       		.byte	0x9f
 3036 0019 00000000 		.4byte	0
 3037 001d 00000000 		.4byte	0
 3038              	.LLST1:
 3039 0021 00000000 		.4byte	.LVL4
 3040 0025 24000000 		.4byte	.LVL5
 3041 0029 0100     		.2byte	0x1
 3042 002b 50       		.byte	0x50
 3043 002c 24000000 		.4byte	.LVL5
 3044 0030 36000000 		.4byte	.LFE219
 3045 0034 0400     		.2byte	0x4
 3046 0036 F3       		.byte	0xf3
 3047 0037 01       		.uleb128 0x1
 3048 0038 50       		.byte	0x50
 3049 0039 9F       		.byte	0x9f
 3050 003a 00000000 		.4byte	0
 3051 003e 00000000 		.4byte	0
 3052              		.section	.debug_aranges,"",%progbits
 3053 0000 2C000000 		.4byte	0x2c
 3054 0004 0200     		.2byte	0x2
 3055 0006 00000000 		.4byte	.Ldebug_info0
 3056 000a 04       		.byte	0x4
 3057 000b 00       		.byte	0
 3058 000c 0000     		.2byte	0
 3059 000e 0000     		.2byte	0
 3060 0010 00000000 		.4byte	.LFB220
 3061 0014 3A000000 		.4byte	.LFE220-.LFB220
 3062 0018 00000000 		.4byte	.LFB219
 3063 001c 36000000 		.4byte	.LFE219-.LFB219
 3064 0020 00000000 		.4byte	.LFB221
 3065 0024 7A000000 		.4byte	.LFE221-.LFB221
 3066 0028 00000000 		.4byte	0
 3067 002c 00000000 		.4byte	0
 3068              		.section	.debug_ranges,"",%progbits
 3069              	.Ldebug_ranges0:
 3070 0000 02000000 		.4byte	.LBB6
ARM GAS  /tmp/ccj5wzVV.s 			page 85


 3071 0004 14000000 		.4byte	.LBE6
 3072 0008 1C000000 		.4byte	.LBB9
 3073 000c 1E000000 		.4byte	.LBE9
 3074 0010 00000000 		.4byte	0
 3075 0014 00000000 		.4byte	0
 3076 0018 02000000 		.4byte	.LBB10
 3077 001c 14000000 		.4byte	.LBE10
 3078 0020 1C000000 		.4byte	.LBB13
 3079 0024 1E000000 		.4byte	.LBE13
 3080 0028 00000000 		.4byte	0
 3081 002c 00000000 		.4byte	0
 3082 0030 00000000 		.4byte	.LFB220
 3083 0034 3A000000 		.4byte	.LFE220
 3084 0038 00000000 		.4byte	.LFB219
 3085 003c 36000000 		.4byte	.LFE219
 3086 0040 00000000 		.4byte	.LFB221
 3087 0044 7A000000 		.4byte	.LFE221
 3088 0048 00000000 		.4byte	0
 3089 004c 00000000 		.4byte	0
 3090              		.section	.debug_line,"",%progbits
 3091              	.Ldebug_line0:
 3092 0000 8B030000 		.section	.debug_str,"MS",%progbits,1
 3092      0200ED02 
 3092      00000201 
 3092      FB0E0D00 
 3092      01010101 
 3093              	.LASF48:
 3094 0000 63685F74 		.ascii	"ch_threads_list\000"
 3094      68726561 
 3094      64735F6C 
 3094      69737400 
 3095              	.LASF96:
 3096 0010 6576656E 		.ascii	"event_listener_t\000"
 3096      745F6C69 
 3096      7374656E 
 3096      65725F74 
 3096      00
 3097              	.LASF126:
 3098 0021 53657269 		.ascii	"SerialDriver\000"
 3098      616C4472 
 3098      69766572 
 3098      00
 3099              	.LASF147:
 3100 002e 73645374 		.ascii	"sdStart\000"
 3100      61727400 
 3101              	.LASF151:
 3102 0036 6D61696E 		.ascii	"main.c\000"
 3102      2E6300
 3103              	.LASF73:
 3104 003d 42535252 		.ascii	"BSRR\000"
 3104      00
 3105              	.LASF78:
 3106 0042 72656761 		.ascii	"regarm_t\000"
 3106      726D5F74 
 3106      00
 3107              	.LASF98:
 3108 004b 6C697374 		.ascii	"listener\000"
ARM GAS  /tmp/ccj5wzVV.s 			page 86


 3108      656E6572 
 3108      00
 3109              	.LASF101:
 3110 0054 6576656E 		.ascii	"event_source\000"
 3110      745F736F 
 3110      75726365 
 3110      00
 3111              	.LASF37:
 3112 0061 666C6167 		.ascii	"flags\000"
 3112      7300
 3113              	.LASF28:
 3114 0067 73797374 		.ascii	"systime_t\000"
 3114      696D655F 
 3114      7400
 3115              	.LASF43:
 3116 0071 7265616C 		.ascii	"realprio\000"
 3116      7072696F 
 3116      00
 3117              	.LASF108:
 3118 007a 696F5F71 		.ascii	"io_queue_t\000"
 3118      75657565 
 3118      5F7400
 3119              	.LASF41:
 3120 0085 6570656E 		.ascii	"epending\000"
 3120      64696E67 
 3120      00
 3121              	.LASF0:
 3122 008e 756E7369 		.ascii	"unsigned int\000"
 3122      676E6564 
 3122      20696E74 
 3122      00
 3123              	.LASF49:
 3124 009b 6E657874 		.ascii	"next\000"
 3124      00
 3125              	.LASF46:
 3126 00a0 74687265 		.ascii	"threads_list_t\000"
 3126      6164735F 
 3126      6C697374 
 3126      5F7400
 3127              	.LASF104:
 3128 00af 42617365 		.ascii	"BaseSequentialStreamVMT\000"
 3128      53657175 
 3128      656E7469 
 3128      616C5374 
 3128      7265616D 
 3129              	.LASF115:
 3130 00c7 715F7264 		.ascii	"q_rdptr\000"
 3130      70747200 
 3131              	.LASF8:
 3132 00cf 5F5F696E 		.ascii	"__int32_t\000"
 3132      7433325F 
 3132      7400
 3133              	.LASF38:
 3134 00d9 72656673 		.ascii	"refs\000"
 3134      00
 3135              	.LASF118:
 3136 00de 716E6F74 		.ascii	"qnotify_t\000"
ARM GAS  /tmp/ccj5wzVV.s 			page 87


 3136      6966795F 
 3136      7400
 3137              	.LASF99:
 3138 00e8 6576656E 		.ascii	"events\000"
 3138      747300
 3139              	.LASF84:
 3140 00ef 77746F62 		.ascii	"wtobjp\000"
 3140      6A7000
 3141              	.LASF70:
 3142 00f6 76746C69 		.ascii	"vtlist\000"
 3142      737400
 3143              	.LASF80:
 3144 00fd 706F7274 		.ascii	"port_context\000"
 3144      5F636F6E 
 3144      74657874 
 3144      00
 3145              	.LASF54:
 3146 010a 63685F72 		.ascii	"ch_ready_list\000"
 3146      65616479 
 3146      5F6C6973 
 3146      7400
 3147              	.LASF60:
 3148 0118 66756E63 		.ascii	"func\000"
 3148      00
 3149              	.LASF89:
 3150 011d 65776D61 		.ascii	"ewmask\000"
 3150      736B00
 3151              	.LASF52:
 3152 0124 70726576 		.ascii	"prev\000"
 3152      00
 3153              	.LASF51:
 3154 0129 63685F74 		.ascii	"ch_threads_queue\000"
 3154      68726561 
 3154      64735F71 
 3154      75657565 
 3154      00
 3155              	.LASF56:
 3156 013a 76746675 		.ascii	"vtfunc_t\000"
 3156      6E635F74 
 3156      00
 3157              	.LASF132:
 3158 0143 73706565 		.ascii	"speed\000"
 3158      6400
 3159              	.LASF137:
 3160 0149 77726974 		.ascii	"writet\000"
 3160      657400
 3161              	.LASF65:
 3162 0150 63685F73 		.ascii	"ch_system_debug\000"
 3162      79737465 
 3162      6D5F6465 
 3162      62756700 
 3163              	.LASF76:
 3164 0160 47545052 		.ascii	"GTPR\000"
 3164      00
 3165              	.LASF128:
 3166 0165 69717565 		.ascii	"iqueue\000"
 3166      756500
ARM GAS  /tmp/ccj5wzVV.s 			page 88


 3167              	.LASF18:
 3168 016c 75696E74 		.ascii	"uint32_t\000"
 3168      33325F74 
 3168      00
 3169              	.LASF110:
 3170 0175 715F7761 		.ascii	"q_waiting\000"
 3170      6974696E 
 3170      6700
 3171              	.LASF86:
 3172 017f 73656E74 		.ascii	"sentmsg\000"
 3172      6D736700 
 3173              	.LASF25:
 3174 0187 6576656E 		.ascii	"eventmask_t\000"
 3174      746D6173 
 3174      6B5F7400 
 3175              	.LASF106:
 3176 0193 72656164 		.ascii	"read\000"
 3176      00
 3177              	.LASF125:
 3178 0198 73647374 		.ascii	"sdstate_t\000"
 3178      6174655F 
 3178      7400
 3179              	.LASF127:
 3180 01a2 6576656E 		.ascii	"event\000"
 3180      7400
 3181              	.LASF90:
 3182 01a8 63685F73 		.ascii	"ch_semaphore\000"
 3182      656D6170 
 3182      686F7265 
 3182      00
 3183              	.LASF23:
 3184 01b5 74707269 		.ascii	"tprio_t\000"
 3184      6F5F7400 
 3185              	.LASF58:
 3186 01bd 63685F76 		.ascii	"ch_virtual_timer\000"
 3186      69727475 
 3186      616C5F74 
 3186      696D6572 
 3186      00
 3187              	.LASF94:
 3188 01ce 7466756E 		.ascii	"tfunc_t\000"
 3188      635F7400 
 3189              	.LASF14:
 3190 01d6 6C6F6E67 		.ascii	"long long unsigned int\000"
 3190      206C6F6E 
 3190      6720756E 
 3190      7369676E 
 3190      65642069 
 3191              	.LASF102:
 3192 01ed 6576656E 		.ascii	"event_source_t\000"
 3192      745F736F 
 3192      75726365 
 3192      5F7400
 3193              	.LASF6:
 3194 01fc 5F5F7569 		.ascii	"__uint16_t\000"
 3194      6E743136 
 3194      5F7400
ARM GAS  /tmp/ccj5wzVV.s 			page 89


 3195              	.LASF27:
 3196 0207 636E745F 		.ascii	"cnt_t\000"
 3196      7400
 3197              	.LASF92:
 3198 020d 6F776E65 		.ascii	"owner\000"
 3198      7200
 3199              	.LASF50:
 3200 0213 74687265 		.ascii	"threads_queue_t\000"
 3200      6164735F 
 3200      71756575 
 3200      655F7400 
 3201              	.LASF42:
 3202 0223 6D74786C 		.ascii	"mtxlist\000"
 3202      69737400 
 3203              	.LASF62:
 3204 022b 63685F76 		.ascii	"ch_virtual_timers_list\000"
 3204      69727475 
 3204      616C5F74 
 3204      696D6572 
 3204      735F6C69 
 3205              	.LASF29:
 3206 0242 74687265 		.ascii	"thread_t\000"
 3206      61645F74 
 3206      00
 3207              	.LASF135:
 3208 024b 70757474 		.ascii	"putt\000"
 3208      00
 3209              	.LASF2:
 3210 0250 73697A65 		.ascii	"size_t\000"
 3210      5F7400
 3211              	.LASF82:
 3212 0257 7264796D 		.ascii	"rdymsg\000"
 3212      736700
 3213              	.LASF103:
 3214 025e 5F426F6F 		.ascii	"_Bool\000"
 3214      6C00
 3215              	.LASF123:
 3216 0264 53445F53 		.ascii	"SD_STOP\000"
 3216      544F5000 
 3217              	.LASF91:
 3218 026c 63685F6D 		.ascii	"ch_mutex\000"
 3218      75746578 
 3218      00
 3219              	.LASF13:
 3220 0275 5F5F7569 		.ascii	"__uint64_t\000"
 3220      6E743634 
 3220      5F7400
 3221              	.LASF77:
 3222 0280 55534152 		.ascii	"USART_TypeDef\000"
 3222      545F5479 
 3222      70654465 
 3222      6600
 3223              	.LASF116:
 3224 028e 715F6E6F 		.ascii	"q_notify\000"
 3224      74696679 
 3224      00
 3225              	.LASF107:
ARM GAS  /tmp/ccj5wzVV.s 			page 90


 3226 0297 42617365 		.ascii	"BaseSequentialStream\000"
 3226      53657175 
 3226      656E7469 
 3226      616C5374 
 3226      7265616D 
 3227              	.LASF117:
 3228 02ac 715F6C69 		.ascii	"q_link\000"
 3228      6E6B00
 3229              	.LASF31:
 3230 02b3 7072696F 		.ascii	"prio\000"
 3230      00
 3231              	.LASF93:
 3232 02b8 63686172 		.ascii	"char\000"
 3232      00
 3233              	.LASF145:
 3234 02bd 63685379 		.ascii	"chSysInit\000"
 3234      73496E69 
 3234      7400
 3235              	.LASF45:
 3236 02c7 74687265 		.ascii	"thread_reference_t\000"
 3236      61645F72 
 3236      65666572 
 3236      656E6365 
 3236      5F7400
 3237              	.LASF35:
 3238 02da 77616261 		.ascii	"wabase\000"
 3238      736500
 3239              	.LASF114:
 3240 02e1 715F7772 		.ascii	"q_wrptr\000"
 3240      70747200 
 3241              	.LASF21:
 3242 02e9 74737461 		.ascii	"tstate_t\000"
 3242      74655F74 
 3242      00
 3243              	.LASF144:
 3244 02f2 68616C49 		.ascii	"halInit\000"
 3244      6E697400 
 3245              	.LASF15:
 3246 02fa 75696E74 		.ascii	"uint8_t\000"
 3246      385F7400 
 3247              	.LASF149:
 3248 0302 74657374 		.ascii	"test_execute\000"
 3248      5F657865 
 3248      63757465 
 3248      00
 3249              	.LASF40:
 3250 030f 6D736771 		.ascii	"msgqueue\000"
 3250      75657565 
 3250      00
 3251              	.LASF47:
 3252 0318 63685F74 		.ascii	"ch_thread\000"
 3252      68726561 
 3252      6400
 3253              	.LASF112:
 3254 0322 715F6275 		.ascii	"q_buffer\000"
 3254      66666572 
 3254      00
ARM GAS  /tmp/ccj5wzVV.s 			page 91


 3255              	.LASF130:
 3256 032b 75736172 		.ascii	"usart\000"
 3256      7400
 3257              	.LASF64:
 3258 0331 73797374 		.ascii	"system_debug_t\000"
 3258      656D5F64 
 3258      65627567 
 3258      5F7400
 3259              	.LASF12:
 3260 0340 6C6F6E67 		.ascii	"long long int\000"
 3260      206C6F6E 
 3260      6720696E 
 3260      7400
 3261              	.LASF105:
 3262 034e 77726974 		.ascii	"write\000"
 3262      6500
 3263              	.LASF139:
 3264 0354 54687265 		.ascii	"Thread2\000"
 3264      61643200 
 3265              	.LASF97:
 3266 035c 6576656E 		.ascii	"event_listener\000"
 3266      745F6C69 
 3266      7374656E 
 3266      657200
 3267              	.LASF24:
 3268 036b 6D73675F 		.ascii	"msg_t\000"
 3268      7400
 3269              	.LASF138:
 3270 0371 72656164 		.ascii	"readt\000"
 3270      7400
 3271              	.LASF57:
 3272 0377 76697274 		.ascii	"virtual_timer_t\000"
 3272      75616C5F 
 3272      74696D65 
 3272      725F7400 
 3273              	.LASF121:
 3274 0387 696F706F 		.ascii	"ioportmask_t\000"
 3274      72746D61 
 3274      736B5F74 
 3274      00
 3275              	.LASF120:
 3276 0394 6F757470 		.ascii	"output_queue_t\000"
 3276      75745F71 
 3276      75657565 
 3276      5F7400
 3277              	.LASF150:
 3278 03a3 474E5520 		.ascii	"GNU C 4.8.2 -mcpu=cortex-m3 -mno-thumb-interwork -m"
 3278      4320342E 
 3278      382E3220 
 3278      2D6D6370 
 3278      753D636F 
 3279 03d6 7468756D 		.ascii	"thumb -ggdb -O2 -fomit-frame-pointer -falign-functi"
 3279      62202D67 
 3279      67646220 
 3279      2D4F3220 
 3279      2D666F6D 
 3280 0409 6F6E733D 		.ascii	"ons=16 -ffunction-sections -fdata-sections -fno-com"
ARM GAS  /tmp/ccj5wzVV.s 			page 92


 3280      3136202D 
 3280      6666756E 
 3280      6374696F 
 3280      6E2D7365 
 3281 043c 6D6F6E20 		.ascii	"mon -flto\000"
 3281      2D666C74 
 3281      6F00
 3282              	.LASF26:
 3283 0446 6576656E 		.ascii	"eventflags_t\000"
 3283      74666C61 
 3283      67735F74 
 3283      00
 3284              	.LASF66:
 3285 0453 70616E69 		.ascii	"panic_msg\000"
 3285      635F6D73 
 3285      6700
 3286              	.LASF148:
 3287 045d 63685468 		.ascii	"chThdCreateStatic\000"
 3287      64437265 
 3287      61746553 
 3287      74617469 
 3287      6300
 3288              	.LASF20:
 3289 046f 746D6F64 		.ascii	"tmode_t\000"
 3289      655F7400 
 3290              	.LASF71:
 3291 0477 6D61696E 		.ascii	"mainthread\000"
 3291      74687265 
 3291      616400
 3292              	.LASF152:
 3293 0482 2F686F6D 		.ascii	"/home/jerson/ChibiOS_17.6.2/demos/STM32/RT-STM32F10"
 3293      652F6A65 
 3293      72736F6E 
 3293      2F436869 
 3293      62694F53 
 3294 04b5 302D4449 		.ascii	"0-DISCOVERY\000"
 3294      53434F56 
 3294      45525900 
 3295              	.LASF129:
 3296 04c1 6F717565 		.ascii	"oqueue\000"
 3296      756500
 3297              	.LASF16:
 3298 04c8 75696E74 		.ascii	"uint16_t\000"
 3298      31365F74 
 3298      00
 3299              	.LASF153:
 3300 04d1 63685265 		.ascii	"chRegSetThreadName\000"
 3300      67536574 
 3300      54687265 
 3300      61644E61 
 3300      6D6500
 3301              	.LASF124:
 3302 04e4 53445F52 		.ascii	"SD_READY\000"
 3302      45414459 
 3302      00
 3303              	.LASF134:
 3304 04ed 53657269 		.ascii	"SerialDriverVMT\000"
ARM GAS  /tmp/ccj5wzVV.s 			page 93


 3304      616C4472 
 3304      69766572 
 3304      564D5400 
 3305              	.LASF131:
 3306 04fd 72786D61 		.ascii	"rxmask\000"
 3306      736B00
 3307              	.LASF5:
 3308 0504 73686F72 		.ascii	"short int\000"
 3308      7420696E 
 3308      7400
 3309              	.LASF100:
 3310 050e 77666C61 		.ascii	"wflags\000"
 3310      677300
 3311              	.LASF9:
 3312 0515 6C6F6E67 		.ascii	"long int\000"
 3312      20696E74 
 3312      00
 3313              	.LASF81:
 3314 051e 706F7274 		.ascii	"port_intctx\000"
 3314      5F696E74 
 3314      63747800 
 3315              	.LASF143:
 3316 052a 49544D5F 		.ascii	"ITM_RxBuffer\000"
 3316      52784275 
 3316      66666572 
 3316      00
 3317              	.LASF68:
 3318 0537 63685F73 		.ascii	"ch_system\000"
 3318      79737465 
 3318      6D00
 3319              	.LASF63:
 3320 0541 6C617374 		.ascii	"lasttime\000"
 3320      74696D65 
 3320      00
 3321              	.LASF19:
 3322 054a 75696E74 		.ascii	"uint64_t\000"
 3322      36345F74 
 3322      00
 3323              	.LASF69:
 3324 0553 726C6973 		.ascii	"rlist\000"
 3324      7400
 3325              	.LASF3:
 3326 0559 5F5F7569 		.ascii	"__uint8_t\000"
 3326      6E74385F 
 3326      7400
 3327              	.LASF119:
 3328 0563 696E7075 		.ascii	"input_queue_t\000"
 3328      745F7175 
 3328      6575655F 
 3328      7400
 3329              	.LASF34:
 3330 0571 6E616D65 		.ascii	"name\000"
 3330      00
 3331              	.LASF133:
 3332 0576 53657269 		.ascii	"SerialConfig\000"
 3332      616C436F 
 3332      6E666967 
ARM GAS  /tmp/ccj5wzVV.s 			page 94


 3332      00
 3333              	.LASF122:
 3334 0583 53445F55 		.ascii	"SD_UNINIT\000"
 3334      4E494E49 
 3334      5400
 3335              	.LASF75:
 3336 058d 4750494F 		.ascii	"GPIO_TypeDef\000"
 3336      5F547970 
 3336      65446566 
 3336      00
 3337              	.LASF111:
 3338 059a 715F636F 		.ascii	"q_counter\000"
 3338      756E7465 
 3338      7200
 3339              	.LASF136:
 3340 05a4 67657474 		.ascii	"gett\000"
 3340      00
 3341              	.LASF113:
 3342 05a9 715F746F 		.ascii	"q_top\000"
 3342      7000
 3343              	.LASF72:
 3344 05af 73697A65 		.ascii	"sizetype\000"
 3344      74797065 
 3344      00
 3345              	.LASF22:
 3346 05b8 74726566 		.ascii	"trefs_t\000"
 3346      735F7400 
 3347              	.LASF11:
 3348 05c0 6C6F6E67 		.ascii	"long unsigned int\000"
 3348      20756E73 
 3348      69676E65 
 3348      6420696E 
 3348      7400
 3349              	.LASF53:
 3350 05d2 72656164 		.ascii	"ready_list_t\000"
 3350      795F6C69 
 3350      73745F74 
 3350      00
 3351              	.LASF30:
 3352 05df 71756575 		.ascii	"queue\000"
 3352      6500
 3353              	.LASF17:
 3354 05e5 696E7433 		.ascii	"int32_t\000"
 3354      325F7400 
 3355              	.LASF87:
 3356 05ed 77747365 		.ascii	"wtsemp\000"
 3356      6D7000
 3357              	.LASF141:
 3358 05f4 77615468 		.ascii	"waThread1\000"
 3358      72656164 
 3358      3100
 3359              	.LASF142:
 3360 05fe 77615468 		.ascii	"waThread2\000"
 3360      72656164 
 3360      3200
 3361              	.LASF95:
 3362 0608 6D757465 		.ascii	"mutex_t\000"
ARM GAS  /tmp/ccj5wzVV.s 			page 95


 3362      785F7400 
 3363              	.LASF32:
 3364 0610 6E657765 		.ascii	"newer\000"
 3364      7200
 3365              	.LASF4:
 3366 0616 756E7369 		.ascii	"unsigned char\000"
 3366      676E6564 
 3366      20636861 
 3366      7200
 3367              	.LASF10:
 3368 0624 5F5F7569 		.ascii	"__uint32_t\000"
 3368      6E743332 
 3368      5F7400
 3369              	.LASF39:
 3370 062f 77616974 		.ascii	"waiting\000"
 3370      696E6700 
 3371              	.LASF61:
 3372 0637 76697274 		.ascii	"virtual_timers_list_t\000"
 3372      75616C5F 
 3372      74696D65 
 3372      72735F6C 
 3372      6973745F 
 3373              	.LASF146:
 3374 064d 63685468 		.ascii	"chThdSleep\000"
 3374      64536C65 
 3374      657000
 3375              	.LASF36:
 3376 0658 73746174 		.ascii	"state\000"
 3376      6500
 3377              	.LASF140:
 3378 065e 54687265 		.ascii	"Thread1\000"
 3378      61643100 
 3379              	.LASF67:
 3380 0666 63685F73 		.ascii	"ch_system_t\000"
 3380      79737465 
 3380      6D5F7400 
 3381              	.LASF85:
 3382 0672 77747472 		.ascii	"wttrp\000"
 3382      7000
 3383              	.LASF1:
 3384 0678 7369676E 		.ascii	"signed char\000"
 3384      65642063 
 3384      68617200 
 3385              	.LASF59:
 3386 0684 64656C74 		.ascii	"delta\000"
 3386      6100
 3387              	.LASF109:
 3388 068a 696F5F71 		.ascii	"io_queue\000"
 3388      75657565 
 3388      00
 3389              	.LASF7:
 3390 0693 73686F72 		.ascii	"short unsigned int\000"
 3390      7420756E 
 3390      7369676E 
 3390      65642069 
 3390      6E7400
 3391              	.LASF79:
ARM GAS  /tmp/ccj5wzVV.s 			page 96


 3392 06a6 73746B61 		.ascii	"stkalign_t\000"
 3392      6C69676E 
 3392      5F7400
 3393              	.LASF154:
 3394 06b1 6D61696E 		.ascii	"main\000"
 3394      00
 3395              	.LASF55:
 3396 06b6 63757272 		.ascii	"current\000"
 3396      656E7400 
 3397              	.LASF88:
 3398 06be 77746D74 		.ascii	"wtmtxp\000"
 3398      787000
 3399              	.LASF33:
 3400 06c5 6F6C6465 		.ascii	"older\000"
 3400      7200
 3401              	.LASF83:
 3402 06cb 65786974 		.ascii	"exitcode\000"
 3402      636F6465 
 3402      00
 3403              	.LASF74:
 3404 06d4 4C434B52 		.ascii	"LCKR\000"
 3404      00
 3405              	.LASF44:
 3406 06d9 6D706F6F 		.ascii	"mpool\000"
 3406      6C00
 3407              		.comm	__gnu_lto_v1,1,1
 3408              		.ident	"GCC: (4.8.2-14ubuntu1+6) 4.8.2"
ARM GAS  /tmp/ccj5wzVV.s 			page 97


DEFINED SYMBOLS
                            *ABS*:0000000000000000 main.c
     /tmp/ccj5wzVV.s:499    .text.Thread2:0000000000000000 $t
     /tmp/ccj5wzVV.s:504    .text.Thread2:0000000000000000 Thread2
     /tmp/ccj5wzVV.s:709    .rodata.str1.4:0000000000000000 .LC0
     /tmp/ccj5wzVV.s:559    .text.Thread1:0000000000000000 $t
     /tmp/ccj5wzVV.s:564    .text.Thread1:0000000000000000 Thread1
     /tmp/ccj5wzVV.s:617    .text.startup.main:0000000000000000 $t
     /tmp/ccj5wzVV.s:623    .text.startup.main:0000000000000000 main
     /tmp/ccj5wzVV.s:695    .bss.waThread1:0000000000000000 .LANCHOR0
     /tmp/ccj5wzVV.s:702    .bss.waThread2:0000000000000000 .LANCHOR1
     /tmp/ccj5wzVV.s:694    .bss.waThread1:0000000000000000 $d
     /tmp/ccj5wzVV.s:698    .bss.waThread1:0000000000000000 waThread1
     /tmp/ccj5wzVV.s:701    .bss.waThread2:0000000000000000 $d
     /tmp/ccj5wzVV.s:705    .bss.waThread2:0000000000000000 waThread2
     /tmp/ccj5wzVV.s:708    .rodata.str1.4:0000000000000000 $d
                            *COM*:0000000000000001 __gnu_lto_v1
                     .debug_frame:0000000000000010 $d

UNDEFINED SYMBOLS
ch
chThdSleep
halInit
chSysInit
SD1
sdStart
chThdCreateStatic
test_execute
