ARM GAS  /tmp/cctHgLr0.s 			page 1


   1              		.syntax unified
   2              		.cpu cortex-m3
   3              		.fpu softvfp
   4              		.eabi_attribute 20, 1
   5              		.eabi_attribute 21, 1
   6              		.eabi_attribute 23, 3
   7              		.eabi_attribute 24, 1
   8              		.eabi_attribute 25, 1
   9              		.eabi_attribute 26, 1
  10              		.eabi_attribute 30, 2
  11              		.eabi_attribute 34, 1
  12              		.eabi_attribute 18, 4
  13              		.thumb
  14              		.file	"nvic.c"
  15              		.text
  16              	.Ltext0:
  17              		.section	.gnu.lto_.jmpfuncs.b6c0761ac9b73c02,"",%progbits
  18 0000 789C6362 		.ascii	"x\234cb`b\300\006\270\2404\013\0033##\02333#\003\000"
  18      6062C006 
  18      B8A0340B 
  18      03332323 
  18      13333323 
  19 0016 01F00021 		.ascii	"\001\360\000!"
  20              		.text
  21              		.section	.gnu.lto_.inline.b6c0761ac9b73c02,"",%progbits
  22 0000 789C6D4C 		.ascii	"x\234mL\313\025\200 \014KK\205\352\305\021\330\300%"
  22      CB158020 
  22      0C4B4B85 
  22      EAC511D8 
  22      C025
  23 0012 5D84911C 		.ascii	"]\204\221\034\305\021LQy\036\354!}\371*\024\177\267"
  23      C5114C51 
  23      791EEC21 
  23      7DF92A14 
  23      7FB7
  24 0024 3FDF8065 		.ascii	"?\337\200e\026\025\011\022`\371\334\220[U\350\261\032"
  24      16150912 
  24      60F9DC90 
  24      5B55E8B1 
  24      1A
  25 0035 C89CAAD3 		.ascii	"\310\234\252\323\363\302TD\222\265zG\350Z\037QL&\322"
  25      F3C25444 
  25      92B57A47 
  25      E85A1F51 
  25      4C26D2
  26 0048 57127B9F 		.ascii	"W\022{\237\201PP\362[\035\346\250\342\002a/\015\002"
  26      815050F2 
  26      5B1DE6A8 
  26      E202612F 
  26      0D02
  27              		.text
  28              		.section	.gnu.lto_.pureconst.b6c0761ac9b73c02,"",%progbits
  29 0000 789C6362 		.ascii	"x\234cb`b\340d\200\000\026\006)F)&)f)\000\002\326\000"
  29      6062E064 
  29      80001606 
  29      29462926 
  29      29662900 
ARM GAS  /tmp/cctHgLr0.s 			page 2


  30 0017 80       		.ascii	"\200"
  31              		.text
  32              		.section	.gnu.lto_nvicEnableVector.b6c0761ac9b73c02,"",%progbits
  33 0000 789C9D91 		.ascii	"x\234\235\221\277K\303@\024\307\337\273k\314\217\242"
  33      BF4BC340 
  33      14C7DFBB 
  33      6BCC8FA2 
  34 0010 AE3A5974 		.ascii	"\256:Yt\021\212\211N\016N\342\344\320\245T\320\261f"
  34      118A894E 
  34      0E4EE2E4 
  34      D0A554D0 
  34      B166
  35 0022 8801DB88 		.ascii	"\210\001\333\210\025q3m\272\351\320\301\305\352`\021"
  35      1571336D 
  35      BAE9D0C1 
  35      C5EA6011 
  36 0032 11C41F7F 		.ascii	"\021\304\037\177\200 \245\233C\0257')\256\202\210\223"
  36      8020A59B 
  36      43153727 
  36      29AE8288 
  36      93
  37 0043 A010DFE5 		.ascii	"\240\020\337\345l\245\"\016\036\311\335\273{\337\367"
  37      6CA5220E 
  37      1EC9DDBB 
  37      7BDFF7
  38 0052 BE9FE318 		.ascii	"\276\237\343\0300\3709\006\351O\323\361\004\255\310"
  38      30F83906 
  38      E94FD3F1 
  38      04ADC8
  39 0061 0159E506 		.ascii	"\001Y\345\006\240\2501D\021\000\302&\303\315\005\024"
  39      A0A83144 
  39      1100C226 
  39      C3CD0514 
  40 0071 521C869A 		.ascii	"R\034\206\232\357WZG\217olw\247^>\360?\302\020\321E"
  40      EF575A47 
  40      8F6F6C77 
  40      A75E3EF0 
  40      3FC210D1 
  41 0086 6A6B22D8 		.ascii	"jk\"\330\010\363\264\301D\264\260X\267\317\005\253\267"
  41      08F3B4C1 
  41      44B4B058 
  41      B7CF05AB 
  41      B7
  42 0097 C270FFB6 		.ascii	"\302p\377\266\3720\200\275\2109Q\344\"\347bRh\213*E"
  42      FA3080BD 
  42      883951E4 
  42      22E76252 
  42      688B2A45 
  43 00ab 310DB258 		.ascii	"1\015\262X#\037\2356`\320\244P\251\002e\262M\200p\240"
  43      231F9D36 
  43      60D0A450 
  43      A90265B2 
  43      4D8070A0 
  44 00bf 91A159B0 		.ascii	"\221\241Y\260\315!\023+oB\351)\010\3371\213\207$w\220"
  44      CD21132B 
  44      6F42E929 
  44      08DF318B 
ARM GAS  /tmp/cctHgLr0.s 			page 3


  44      87247790 
  45 00d3 39488A26 		.ascii	"9H\212&\004g\274}\304\351T@\365\010\250&4feb\014N\375"
  45      0467BC7D 
  45      C4E95440 
  45      F508A826 
  45      34666562 
  46 00ea 72D19FA4 		.ascii	"r\321\237\244D\022ND\330\357\242\272\007U\222jB\257"
  46      44124E44 
  46      D8EFA2BA 
  46      0755926A 
  46      42AF
  47 00fc FB8DC0EF 		.ascii	"\373\215\300\357\213\356\243G\267XDy\033'\002\223\021"
  47      8BEEA347 
  47      B7584479 
  47      1B270293 
  47      11
  48 010d 8FCCCE83 		.ascii	"\217\314\316\203\343\355\321\266\237JyQ\004J\344Wz\016"
  48      E3EDD1B6 
  48      9F4A7951 
  48      044AE457 
  48      7A0E
  49 011f AE3A785A 		.ascii	"\256:xZTK\025\227\035<\335\221v0\004\022<x\355\310\015"
  49      544B1597 
  49      1D3CDD91 
  49      76300412 
  49      3C78EDC8 
  50 0134 915050A8 		.ascii	"\221PP\250\"\364\353\227x\027\374\224\213\3067|\374"
  50      22F4EB97 
  50      7817FC94 
  50      8BC6377C 
  50      FC
  51 0145 6F78FC42 		.ascii	"ox\374BV;\360\206lzOO\372\377\266\354\267\266wPlm\215"
  51      563BF086 
  51      6C7A4F4F 
  51      FAFFB6EC 
  51      B7B67750 
  52 015c C8A6ED91 		.ascii	"\310\246\355\221!\002z2\241O\232\246%?\257`-e\227\255"
  52      21027A32 
  52      A14F9AA6 
  52      253FAF60 
  52      2D6597AD 
  53 0170 156F75AD 		.ascii	"\025ou\255`\331^.\347\345\255\351tj&\265a\345\327]\333"
  53      60D95E2E 
  53      E7E5ADE9 
  53      746A26B5 
  53      61E5D75D 
  54 0185 B481E7CD 		.ascii	"\264\201\347\315\361O\265\353\222\340"
  54      F14FB5EB 
  54      92E0
  55              		.text
  56              		.section	.gnu.lto_nvicDisableVector.b6c0761ac9b73c02,"",%progbits
  57 0000 789C7D50 		.ascii	"x\234}P\277K\303P\020\276\357\245\321VAqt\262\350\""
  57      BF4BC350 
  57      10BEEFA5 
  57      D1564171 
  57      74B2E822 
  58 0014 14133A39 		.ascii	"\024\023:98\211s\027\251\240c\355P\003\266\021+\342"
ARM GAS  /tmp/cctHgLr0.s 			page 4


  58      38897317 
  58      A9A063ED 
  58      5003B611 
  58      2BE2
  59 0026 D6D4D4CD 		.ascii	"\326\324\324\315\241\203\203?\026\213[\251?\300E\020"
  59      A183833F 
  59      168B5BA9 
  59      3FC04510 
  60 0036 A4141C1C 		.ascii	"\244\024\034\034*\370\037\024\027\301AD\227\016B\274"
  60      2AF81F14 
  60      17C14144 
  60      970E42BC 
  61 0046 4B1AA50E 		.ascii	"K\032\245\016\036\311\273{\367}\367\335\335S\244\350"
  61      1EC9BB7B 
  61      F77DF7DD 
  61      DD53A4E8 
  62 0056 AF8DF37F 		.ascii	"\257\215\363\177\017\242${h\004U}$*G\025 \001\201J\012"
  62      0FA2247B 
  62      6804557D 
  62      242A4715 
  62      2001814A 
  63 006b A5150815 		.ascii	"\245\025\010\025\223Ts\234jg\357\245\253\216\016\232"
  63      9354739C 
  63      6A67EFA5 
  63      AB8E0E9A 
  64 007b 9553E7CB 		.ascii	"\225S\347\313\363\000\013,k\200\262\240e\276 \356;\025"
  64      F3000B2C 
  64      6B80B2A0 
  64      65BE20EE 
  64      3B15
  65 008d E9EF73A9 		.ascii	"\351\357s\251\232\035\317k\\_=\3271\026\003\362ReA\323"
  65      9A1DCF6B 
  65      5C5F3DD7 
  65      311603F2 
  65      526541D3 
  66 00a1 28831A2B 		.ascii	"(\203\032+G\370B:\037R\247S\205\033\305I4\331\322|\312"
  66      47F8423A 
  66      1F52A753 
  66      851BC549 
  66      34D9D27C 
  67 00b6 344B50E2 		.ascii	"4KP\342\2656\271\027\356\347\376t\006g\320)\007\225"
  67      B536B917 
  67      EEE7FE74 
  67      0667D029 
  67      0795
  68 00c8 03A427D7 		.ascii	"\003\244'\327\021\265i\367\315\275C\210i\214I\322\275"
  68      11B569F7 
  68      CDBD4388 
  68      698C49D2 
  68      BD
  69 00d9 D5C25484 		.ascii	"\325\302T\204\263>}\302\247\273\347\356\307\017]\027"
  69      B33E7DC2 
  69      A7BBE7EE 
  69      C70F5D17 
  70 00e9 20026109 		.ascii	" \002a\011\326zx\037\016\240\031j8\225\2623gAOP]\302"
  70      D67A781F 
  70      0EA0196A 
ARM GAS  /tmp/cctHgLr0.s 			page 5


  70      3895B233 
  70      67414F50 
  71 00ff 510B0327 		.ascii	"Q\013\003't\314\374A)\212:-\327\031\361w\217\372\033"
  71      74CCFC41 
  71      298A3A2D 
  71      D719F177 
  71      8FFA1B
  72 0112 AF22D89C 		.ascii	"\257\"\330\234\347\2430\322}\321\233\303\327.\372dg"
  72      E7A330D2 
  72      7DD19BC3 
  72      D72EFA64 
  72      67
  73 0123 2DC47E65 		.ascii	"-\304~e\207\376\227EO\254\247\357c1\011\236\250\334"
  73      87FE9745 
  73      4FACA7EF 
  73      6331099E 
  73      A8DC
  74 0135 A94F05C2 		.ascii	"\251O\005\302\241\245\231\306o&#$\014\303\014>\273h"
  74      A1A599C6 
  74      6F262324 
  74      0CC30C3E 
  74      BB68
  75 0147 AE65D6CD 		.ascii	"\256e\326\315\015{s\253hf\355|\336.\230\363\213\251"
  75      0D7B73AB 
  75      6866ED7C 
  75      DE2E98F3 
  75      8BA9
  76 0159 85D48E59 		.ascii	"\205\324\216Y\330\266\262F\226\264\202\221\374\006\256"
  76      D8B6B246 
  76      96B48291 
  76      FC06AE
  77 0168 7676D4   		.ascii	"vv\324"
  78              		.text
  79              		.section	.gnu.lto_nvicSetSystemHandlerPriority.b6c0761ac9b73c02,"",%progbits
  80 0000 789C6362 		.ascii	"x\234cb`b@\007\222@\374\001\210u\201\230\221\231\201"
  80      60624007 
  80      9240FC01 
  80      88758198 
  80      919981
  81 0013 9169C239 		.ascii	"\221i\3029\006\206F\016&FF\020\203\201\221\241\236\211"
  81      0686460E 
  81      26464610 
  81      838191A1 
  81      9E89
  82 0025 B13E9211 		.ascii	"\261>\222\021\254v=\323\201\007\377\377\257\373\322"
  82      AC763DD3 
  82      8107FFFF 
  82      AFFBD2
  83 0034 76EC20E3 		.ascii	"v\354 \3439evF\306\\F\240\211\231\214\014\314 \202\025"
  83      39657646 
  83      C65C46A0 
  83      89998C0C 
  83      CC208215 
  84 0048 C805A963 		.ascii	"\310\005\251cehih\230\240\220\313\010\264,\031\2541"
  84      65686968 
  84      98A090CB 
  84      08B42C19 
ARM GAS  /tmp/cctHgLr0.s 			page 6


  84      AC31
  85 005a 0448824C 		.ascii	"\004H\202L\013\005\012\001i\346\263\014M\257\2337\367"
  85      0B050A01 
  85      69E6B30C 
  85      4DAF9B37 
  85      F7
  86 006b E926322E 		.ascii	"\351&2.ddeHgdJ\007i<\313\320\274\226\031&\304\014\024"
  86      64646548 
  86      67644A07 
  86      693CCBD0 
  86      BC961926 
  87 0082 8D60CC64 		.ascii	"\215`\314ddda\000\311\034\362\204H\3502\254ihil0\007"
  87      64646100 
  87      C91CF284 
  87      48E832AC 
  87      6968696C 
  88 0098 4A6833AC 		.ascii	"Jh3\254\0021y3\031\231f3\314\002*e\006\251gi\270\325"
  88      02317933 
  88      19996633 
  88      CC022A65 
  88      06A96769 
  89 00ae DCC0C700 		.ascii	"\334\300\307\000f\202\335\234\004q:\320HV\006\030\213"
  89      6682DD9C 
  89      04713AD0 
  89      48560618 
  89      8B
  90 00bf 9981E122 		.ascii	"\231\201\341\"C\343\203s\312\020Ca \004\350\012\240"
  90      43E38373 
  90      CA104361 
  90      2004E80A 
  90      A0
  91 00d0 F34061A4 		.ascii	"\363@a\244\255\247\247\017A\371\305\372\031\2119\372"
  91      ADA7A70F 
  91      41F9C5FA 
  91      198939FA 
  92 00e0 05F94525 		.ascii	"\005\371E%\305\372\311\371\271\271\371y\372\216A\276"
  92      C5FAC9F9 
  92      B9B9F979 
  92      FA8E41BE 
  93 00f0 CEBE15FA 		.ascii	"\316\276\025\372ye\231\311z\311\014\000\317\274E\347"
  93      796599C9 
  93      7AC90C00 
  93      CFBC45E7 
  94              		.text
  95              		.section	.gnu.lto_nvicClearPending.b6c0761ac9b73c02,"",%progbits
  96 0000 789C5D50 		.ascii	"x\234]P1H\303P\020\275\367\177\322\352\2428:Yt\021\212"
  96      3148C350 
  96      10BDF77F 
  96      D2EAA238 
  96      3A597411 
  97 0015 09BA3A89 		.ascii	"\011\272:\211\223C\027\251\240c\315P\003\266\021+\342"
  97      934317A9 
  97      A063CD50 
  97      03B6112B 
  97      E2
  98 0026 D65FD359 		.ascii	"\326_\323Y:\270\250\213\305M\252\356v)\335+\272;\024"
  98      3AB8A88B 
ARM GAS  /tmp/cctHgLr0.s 			page 7


  98      C54DAAEE 
  98      7629DD2B 
  98      BA3B14
  99 0039 41280EAE 		.ascii	"A(\016\256.B\274KLA\217\237\177\367\337\275{w9E\212"
  99      2E42BC4B 
  99      4C418F9F 
  99      7FF7DFBD 
  99      7B773945 
 100 004e FEDB2C7F 		.ascii	"\376\333,\177\006D\313\354\241\011\252\365D\324\230"
 100      0644CBEC 
 100      A109AAF5 
 100      44D498
 101 005d 50800404 		.ascii	"P\200\004\004\252+\324w T\314S\333\230\326\360\375\353"
 101      AA2BD477 
 101      2054CC53 
 101      DB98D6F0 
 101      FDEB
 102 006f 595F9CF7 		.ascii	"Y_\234\367\232\327\346;\212\000\037,\353\200<\3206?"
 102      9AD7E63B 
 102      8A001F2C 
 102      EB803CD0 
 102      363F
 103 0081 908B9DB2 		.ascii	"\220\213\235\262\376\366yP\275a\024\275v;o#\314L\002"
 103      FEF67950 
 103      BD6114BD 
 103      763B6F23 
 103      CC4C02
 104 0094 15A9F2A1 		.ascii	"\025\251\362\2415\225\320fe\213\037d\313\225\021\230"
 104      3595D066 
 104      658B1F64 
 104      CB951198 
 105 00a4 2B6C6A72 		.ascii	"+ljr\267\034\2110[\221o\031i\013J\274\036Px\037Fg\213"
 105      B71C8930 
 105      5B916F19 
 105      690B4ABC 
 105      1E50781F 
 106 00bb 25DCC0A6 		.ascii	"%\334\300\2462T\031\220\306\\G4\240\323\317\360\003"
 106      32541990 
 106      C65C4734 
 106      A0D3CFF0 
 106      03
 107 00cc 694E734E 		.ascii	"iNsN\300\260\253S\310b4\246\317\305\364\360n\234\261"
 107      C0B0AB53 
 107      C86234A6 
 107      CFC5F4F0 
 107      6E9CB1
 108 00df 6318C2F9 		.ascii	"c\030\302\371\025z\034\013e8-`\177#A\226\250c\232\015"
 108      157A1C0B 
 108      65382D60 
 108      7F234196 
 108      A8639A0D 
 109 00f3 B3EAC3CA 		.ascii	"\263\352\303\312\323\255\204\323>\354+\272d\211\214"
 109      D3AD84D3 
 109      3EEC2BBA 
 109      64898C
 110 0102 E8644D3F 		.ascii	"\350dM?4S\361F\262\361\036v\221\354\203\007\2464\312"
 110      3453F146 
ARM GAS  /tmp/cctHgLr0.s 			page 8


 110      B2F11E76 
 110      91EC8307 
 110      A634CA
 111 0115 10BD5063 		.ascii	"\020\275Pc8ZHDS+\362\320\374\247\302\313;\216\233\234"
 111      385A4844 
 111      532BF2D0 
 111      FCA7C2CB 
 111      3B8E9B9C 
 112 0129 A0E6EE95 		.ascii	"\240\346\356\225\366\335\203\340\360\250\346zA\245\022"
 112      F6DD83E0 
 112      F0A8E67A 
 112      41A512
 113 0138 54DDB5CD 		.ascii	"T\335\265\315\302z\341\304\255\036\373\236\343\221\256"
 113      C27AE1C4 
 113      AD1EFB9E 
 113      E391AE
 114 0147 3A2B3F72 		.ascii	":+?r\207f\302"
 114      8766C2
 115              		.text
 116              		.section	.gnu.lto_.symbol_nodes.b6c0761ac9b73c02,"",%progbits
 117 0000 789C6362 		.ascii	"x\234cb`b\260c\200\002\246\333\214\365\014\014\023\316"
 117      6062B063 
 117      8002A6DB 
 117      8CF50C0C 
 117      13CE
 118 0012 3130D4D7 		.ascii	"10\324\327\317\353`d\272\303X\317\210\304\275\313X\317"
 118      CFEB6064 
 118      BAC358CF 
 118      88C4BDCB 
 118      58CF
 119 0024 84C4BDC7 		.ascii	"\204\304\275\307X\317\214\3402\000\000q\306\023\317"
 119      58CF8CE0 
 119      32000071 
 119      C613CF
 120              		.text
 121              		.section	.gnu.lto_.refs.b6c0761ac9b73c02,"",%progbits
 122 0000 789C6362 		.ascii	"x\234cb`b`d\200\002\000\000F\000\006"
 122      60626064 
 122      80020000 
 122      460006
 123              		.text
 124              		.section	.gnu.lto_.decls.b6c0761ac9b73c02,"",%progbits
 125 0000 789CAD59 		.ascii	"x\234\255Ykp\024U\026\276\267\247C2\022#X\352\242\205"
 125      6B701455 
 125      16BEB7A7 
 125      43321223 
 125      58EAA285 
 126 0014 45DC5AB6 		.ascii	"E\334Z\266\266|dx\254.\376\261\010\223\260\231*\343"
 126      B67C6478 
 126      AC2EFEB1 
 126      0893B099 
 126      2AE3
 127 0026 A66680B2 		.ascii	"\246f\200\262\344\307\320\016\243IU2\241&\023W\376u"
 127      E4C7D00E 
 127      A3495532 
 127      A1261357 
 127      FE75
ARM GAS  /tmp/cctHgLr0.s 			page 9


 128 0038 0C282216 		.ascii	"\014(\"\026\341\2215\242\306\201\015\"\265\240lD\034"
 128      E19135A2 
 128      C6810D22 
 128      B5A06C44 
 128      1C
 129 0049 28C4119F 		.ascii	"(\304\021\237\250U<d\025\211\253c\211\345\342\226\213"
 129      A8553C64 
 129      1589AB63 
 129      89E5E296 
 129      8B
 130 005a AEC22E16 		.ascii	"\256\302.\0268\236{\272o\317\355\236\276\223n\313\256"
 130      389E7BBA 
 130      6FCFED9E 
 130      BE936ECB 
 130      AE
 131 006b DCD3B7BB 		.ascii	"\334\323\267\273\317\375\356\367\235\373\3503\035\205"
 131      CFFDEEF7 
 131      9DFBE833 
 131      1D85
 132 0079 28640D25 		.ascii	"(d\015%\244\010G\3275\204LW\010\251\"\204\334FJ\207"
 132      A40847D7 
 132      35844C57 
 132      08A92284 
 132      DC464A87 
 133 008d 0A653394 		.ascii	"\012e3\224Q(9(\007H\371\301\236\327\232\276uf\035`I"
 133      51283928 
 133      0748F9C1 
 133      9ED79ABE 
 133      75661D60 
 134 00a2 3531F00E 		.ascii	"51\360\016B9\004\345=(g\241\274\017\345\030\224\000"
 134      423904E5 
 134      3D2867A1 
 134      BC0FE518 
 134      9400
 135 00b4 94AFA17C 		.ascii	"\224\257\241|\016\345\250\331\206a\001\015\362<\224"
 135      0EE5A8D9 
 135      8661010D 
 135      F23C94
 136 00c3 9D8E7E18 		.ascii	"\235\216~\030\207\211\216~x\037\034\223\367\301\373"
 136      87898E7E 
 136      781F1C93 
 136      F7C1FB
 137 00d2 64586366 		.ascii	"dXcf?\324\304`\347=\016\354\234\211C\315\266\347\240"
 137      3FD4C460 
 137      E73D0EEC 
 137      9C8943CD 
 137      B6E7A0
 138 00e5 9C873293 		.ascii	"\234\2072\223\032\367&\232\347\234\311{?\224}PfQ;\016"
 138      1AF7269A 
 138      E79CC97B 
 138      3F947D50 
 138      66513B0E 
 139 00f9 8B4F8D0B 		.ascii	"\213O\215\013G'?j\352\246f\033v\316;8M#\303z\266P\330"
 139      47273F6A 
 139      EAA6661B 
 139      76CE3B38 
 139      4D23C37A 
ARM GAS  /tmp/cctHgLr0.s 			page 10


 140 0110 3AFC2ED5 		.ascii	":\374.\325\327\353\027\212\305\000\271\212\014\352p"
 140      D7EB178A 
 140      C500B98A 
 140      0CEA70
 141 011f 641FD475 		.ascii	"d\037\324u\232\321\350mW\222;\251F\353\202\244\036+"
 141      9AD1E86D 
 141      57923BA9 
 141      46EB82A4 
 141      1E2B
 142 0131 B541EC98 		.ascii	"\265A\354\230\020\215n\241Wa-\200! A\262J\327\037`\015"
 142      108D6EA1 
 142      57612D80 
 142      212041B2 
 142      4AD71F60 
 143 0146 5BDE065E 		.ascii	"[\336\006^n\255\246\223\021]\037(\274\274}\315\215\272"
 143      6EADA693 
 143      115D1F28 
 143      BCBC7DCD 
 143      8DBA
 144 0158 5EA3D111 		.ascii	"^\243\321\021\032\204\266\267Sr=\331\016}\016\350\372"
 144      1A84B6B7 
 144      53723DD9 
 144      0E7D0EE8 
 144      FA
 145 0169 961B1C6A 		.ascii	"\226\033\034j\211?\350\363\017\356\277\025\241\237E"
 145      893FE8F3 
 145      0FEEBF15 
 145      A19F45
 146 0178 E8D59402 		.ascii	"\350\325\224\002\321m\364z\023H\243\325A\021\030\257"
 146      D16DF47A 
 146      1348A3D5 
 146      411118AF 
 147 0188 B90343C3 		.ascii	"\271\003C\303\307f\205M\332\313\210_w3\032\2068\254"
 147      C766854D 
 147      DACB885F 
 147      77331A86 
 147      38AC
 148 019a 2C0C5800 		.ascii	",\014X\000\012\031t0\372\015\371\253\256\257\207\021"
 148      0A197430 
 148      FA0DF9AB 
 148      AEAF8711 
 149 01aa 18B95ACF 		.ascii	"\030\271Z\317*<$\317\240\327f:\315U\253\211m4\325\367"
 149      2A3C24CF 
 149      A0D7663A 
 149      CD55AB89 
 149      6D34D5F7 
 150 01be 265B78B3 		.ascii	"&[x\263g\2754#\344\267d+\033\342G\365\225\223(\2160"
 150      67BD3423 
 150      E4B7642B 
 150      1BE247F5 
 150      9593288E 
 151 01d3 315BD9A4 		.ascii	"1[\331\244\356\240J\371T\311\357~\263v\240\257P,N\363"
 151      EEA04AF9 
 151      54C9EF7E 
 151      B376A0AF 
 151      502C4EF3 
 152 01e7 3E4F5EB0 		.ascii	">O^\260\317\023\203\206#,;]\303\242o\340\3324\372\034"
ARM GAS  /tmp/cctHgLr0.s 			page 11


 152      CF138386 
 152      232C3B5D 
 152      C3A26FE0 
 152      DA34FA1C 
 153 01fb D0D1E8E8 		.ascii	"\320\321\350\350\317\3226\352\324\366\242\253\266\357"
 153      CFD236EA 
 153      D4F6A2AB 
 153      B6EF
 154 0209 B936636E 		.ascii	"\2716cn+\344\025wVB\304?F\217\234\247\201\272X\022\263"
 154      2BE41577 
 154      5642C43F 
 154      468F9CA7 
 154      81BA5812 
 155 021e 0BC58CD3 		.ascii	"\013\305\214\323L\"&\347\024\263\327U\314\276\267,1"
 155      4C2226E7 
 155      14B3D755 
 155      CCBEB72C 
 155      31
 156 022f 2FA09853 		.ascii	"/\240\230S\356b\3269C|\340g\261:\340d\365\212\235\025"
 156      EE62D639 
 156      437CE067 
 156      B13AE064 
 156      F58A9D15 
 157 0243 2EE17EBD 		.ascii	".\341~\275\260U\2372TZ\3025\274\003\266\352\371\356"
 157      B0559F32 
 157      545AC235 
 157      BC03B6EA 
 157      F9EE
 158 0255 70FAA402 		.ascii	"p\372\244\002K\330\\\363\225\032h\3645:\035,\265/J\032"
 158      4BD85CF3 
 158      951A68F4 
 158      353A1D2C 
 158      B52F4A1A 
 159 0269 2C558A94 		.ascii	",U\212\224\315\256\263\016\351\036\260\255\375dx\016"
 159      CDAEB30E 
 159      E91EB0AD 
 159      FD64780E 
 160 0279 EE276FE2 		.ascii	"\356'o\342p_,\333O\250c?\031\207\213\037\337\311d\200"
 160      705F2CDB 
 160      4FA8633F 
 160      19878B1F 
 160      DFC96480 
 161 028d C5B97EA8 		.ascii	"\305\271~\250N\243\007\341\236IS\277\214\363\374\306"
 161      4EA307E1 
 161      9E4953BF 
 161      8CF3FCC6 
 162 029d 0014FD5E 		.ascii	"\000\024\375^\257\340\247\321w\350\344\222~\335\334"
 162      AFE0A7D1 
 162      77E8E492 
 162      7EDDDC
 163 02ac 4FD145B6 		.ascii	"O\321E\266v\3375\365\231\267\255\312\031jS\302\335\310"
 163      76DF35F5 
 163      99B7ADCA 
 163      196A53C2 
 163      DDC8
 164 02be E5641D72 		.ascii	"\345d\035r\021\266\351l\201\362V+\246\226\"\373\364"
 164      11B6E96C 
ARM GAS  /tmp/cctHgLr0.s 			page 12


 164      81F2562B 
 164      A69622FB 
 164      F4
 165 02cf FAC3F331 		.ascii	"\372\303\3631\262\357\321\313!\2629\305\036Y\017@\254"
 165      B2EFD1CB 
 165      21B239C5 
 165      1E590F40 
 165      AC
 166 02e0 E3C3D0D8 		.ascii	"\343\303\320\330h\206\260z\276\370a\255\256\032\367"
 166      6886B07A 
 166      BEF861AD 
 166      AE1AF7
 167 02ef 890DD076 		.ascii	"\211\015\320v\\G\262\372\212\276\374\206M\203T\317\036"
 167      5C47B2FA 
 167      8ABEFC86 
 167      4D8354CF 
 167      1E
 168 0300 A43C826F 		.ascii	"\244<\202o\327\231\323\264\322\233F\243[q\326\215\377"
 168      D799D3B4 
 168      D29B46A3 
 168      5B71D68D 
 168      FF
 169 0311 2AE003A1 		.ascii	"*\340\003\241\360\346\365\266\361b\241\037\021\306\313"
 169      F0E6F5B6 
 169      F162A11F 
 169      11C6CB
 170 0320 E1A6D1E3 		.ascii	"\341\246\321\343\276\207\353\037\222\341\252\266\215"
 170      BE87EB1F 
 170      92E1AAB6 
 170      8D
 171 032d 16F782B0 		.ascii	"\026\367\202\260\037\304\260\263h\271\262\260p8h\235"
 171      1FC4B0B3 
 171      68B9B2B0 
 171      7038689D 
 172 033d 35DD5908 		.ascii	"5\335Y\010!\336\033\357\032\320d\202&\360\366K\314\216"
 172      21DE1BEF 
 172      1AD06482 
 172      26F0F64B 
 172      CC8E
 173 034f 4FF816F4 		.ascii	"O\370\026\364\221D\320\257\010W\360V\231\002[\267\266"
 173      9144D0AF 
 173      0857F056 
 173      99025BB7 
 173      B6
 174 0360 90962B80 		.ascii	"\220\226+\200I\360\027P\240\321c@M!G=\205C\247\362x"
 174      49F01750 
 174      A0D16340 
 174      4D21473D 
 174      8543A7F2 
 175 0375 0C21DA09 		.ascii	"\014!\332\011D\373\300\023\265\254\014\015\270m\022"
 175      44FBC013 
 175      B5AC0C0D 
 175      B86D12
 176 0384 B87DEA8D 		.ascii	"\270}\352\215\233\"\347\366\244\300\355\2247n24\340"
 176      9B22E7F6 
 176      A4C0ED94 
 176      376E3234 
ARM GAS  /tmp/cctHgLr0.s 			page 13


 176      E0
 177 0395 362C70FB 		.ascii	"6,p\373\2177n\0019\267]\002\267\357\274q\223\241\001"
 177      8F376E01 
 177      39B75D02 
 177      B7EFBC71 
 177      93A101
 178 03a8 B75181DB 		.ascii	"\267Q\201\333Eo\334T9\267\335\025\346x\035\007(\360"
 178      456FDC54 
 178      39B7DD15 
 178      E6781D07 
 178      28F0
 179 03ba 4DF62BDF 		.ascii	"M\366+\337\223\374\337\222I\376\007k\222?\020pj\260"
 179      93FCDF92 
 179      49FE076B 
 179      923F1070 
 179      6AB0
 180 03cc F7CB4322 		.ascii	"\367\313C\"\023\001!\331s\327\256%\032=\204!YS\006g"
 180      130121D9 
 180      73D7AE25 
 180      1A3D8421 
 180      59530667 
 181 03e0 7F57F098 		.ascii	"\177W\360\230L\220\307$W!&\233\255}z\340\012S\3427\276"
 181      4C90C724 
 181      5721269B 
 181      AD7D7AE0 
 181      0A53E237 
 182 03f5 83F2AD24 		.ascii	"\203\362\255$(\375UVT\326\226\311p\364\3145U\313\302"
 182      28FD5556 
 182      54D696C9 
 182      70F4CC35 
 182      55CBC2
 183 0408 D29FDF77 		.ascii	"\322\237\337w\262\226M\225\367\361\365\376\270\023\320"
 183      B2964D95 
 183      F7F1F5FE 
 183      B813D0
 184 0417 C68A4765 		.ascii	"\306\212Ge\252\013\232\333!\276\2354z\004_\032G\351"
 184      AA0B9ADB 
 184      21BE9D34 
 184      7A045F1A 
 184      47E9
 185 0429 75603F44 		.ascii	"u`?D;\206\366\237h?E\373\031\332\317\321~\201\366K\264"
 185      3B86F69F 
 185      683F45FB 
 185      19DACFD1 
 185      7E81F64B 
 186 043e A7D17E8D 		.ascii	"\247\321~\215\366\014\332\357\300Z\307D\262\272\364"
 186      F60CDAEF 
 186      C05AC744 
 186      B2BAF4
 187 044d F3C878A1 		.ascii	"\363\310x\241\312\242z\226N\344\255$\351\305\022\336"
 187      CAA27A96 
 187      4EE4AD24 
 187      E9C512DE 
 188 045d A4B6CCEB 		.ascii	"\244\266\314\353u\251\227F\377\347{\200\377/\031`\213"
 188      75A99746 
 188      FFE77B80 
 188      FF2F1960 
ARM GAS  /tmp/cctHgLr0.s 			page 14


 188      8B
 189 046e A0CDCB2D 		.ascii	"\240\315\313-!(X\031\333\232R\312\226\377v\214\326k"
 189      21285819 
 189      DB9A52CA 
 189      96FF768C 
 189      D66B
 190 0480 F43C6615 		.ascii	"\364<f\025\303\201q\263\012\007\010\353\363\2023\251"
 190      C38171B3 
 190      0A0708EB 
 190      F38233A9 
 191 0490 D8308649 		.ascii	"\3300\206I\305\205\361\223\212\215\375\371\307\236\030"
 191      C585F193 
 191      8A8DFDF9 
 191      C79E18
 192 049f BC9A2515 		.ascii	"\274\232%\025V*\221\377\005R\011\205lC)\027*\317M\""
 192      562A91FF 
 192      05520985 
 192      6C432917 
 192      2ACF4D22 
 193 04b3 9FE84363 		.ascii	"\237\350Cc\302D\337\351\033\254\336\006\266I\004\033"
 193      C244DFE9 
 193      1BACDE06 
 193      B649041B 
 194 04c3 F5025623 		.ascii	"\365\002V#g\366\244\010\366\222o0;\263a\021\354e/`\223"
 194      67F6A408 
 194      F6926F30 
 194      3BB36111 
 194      EC652F60 
 195 04d8 E4CC7689 		.ascii	"\344\314v\211`\257\372\006\023\231\301;i1\333\200\317"
 195      60AFFA06 
 195      1399C13B 
 195      6931DB80 
 195      CF
 196 04e9 E106FC86 		.ascii	"\341\006\374\206\023\313\266\236\314\352\0249\261\335"
 196      13CBB69E 
 196      CCEA1439 
 196      B1DD
 197 04f7 22B1435E 		.ascii	"\"\261C^\210\325\313C\266G\004;\354\005\354wrf9\021"
 197      88D5CB43 
 197      B647043B 
 197      EC05EC77 
 197      72663911 
 198 050b ECB86F30 		.ascii	"\354\270o0;\263}\"\330G^\300f\310\231\355\027\301>\361"
 198      3BB37D22 
 198      D8475EC0 
 198      66C899ED 
 198      17C13EF1 
 199 051f 0D666776 		.ascii	"\015fgv@\004;\345\005l\216\234\331\021\021\354\264o"
 199      40043BE5 
 199      056C8E9C 
 199      D91111EC 
 199      B46F
 200 0531 3081D9C6 		.ascii	"0\201\331\306\276\374\261\305\326\2139;\227m\301\305"
 200      BEFCB1C5 
 200      D68B393B 
 200      976DC1C5 
 201 0541 D2AE3DD7 		.ascii	"\322\256=\327\276\200ln#R7\215>\245\370\335\334\207"
ARM GAS  /tmp/cctHgLr0.s 			page 15


 201      BE806C6E 
 201      2352378D 
 201      3EA5F8DD 
 201      DC87
 202 0553 15F7CDDD 		.ascii	"\025\367\315\335\376\263\221{\261\014\322)\333F\302"
 202      FEB3917B 
 202      B10CD229 
 202      DB46C2
 203 0562 ACCE95C4 		.ascii	"\254\316\225\304\020v\335\343F\014\213\030\303\377z"
 203      1076DDE3 
 203      460C8B18 
 203      C3FF7A
 204 0571 89618B1C 		.ascii	"\211a\213\034\354\003\021\354\234o0\373\200\234Xl\317"
 204      EC0311EC 
 204      9C6F30FB 
 204      809C586C 
 204      CF
 205 0582 9484F1D0 		.ascii	"\224\204\361\320\255te\2228 e\011\225\303M\243\317\370"
 205      AD746592 
 205      38206509 
 205      95C34DA3 
 205      CFF8
 206 0594 1E906D92 		.ascii	"\036\220m\222\001)}\204\023\275@\366\017N\331v\026f"
 206      01297D84 
 206      13BD40F6 
 206      0F4ED976 
 206      1666
 207 05a6 B54D16C4 		.ascii	"\265M\026\304\276\374I\271\356\254\005uE%\335N7\215"
 207      BEFC49B9 
 207      EEAC0575 
 207      4525DD4E 
 207      378D
 208 05b8 FECDB7EE 		.ascii	"\376\315\267\356\035\022\335\252M\367\216\222\356\242"
 208      1D12DDAA 
 208      4DF78E92 
 208      EEA2
 209 05c6 53B79D85 		.ascii	"S\267\235\205Y]\"\321\015\311\302\307\213\331\334aL"
 209      595D22D1 
 209      0DC9C2C7 
 209      8BD9DC61 
 209      4C
 210 05d7 357A12BF 		.ascii	"5z\022\277\250\215\007\266L2y`k\370D\334\032V\250\036"
 210      A88D07B6 
 210      4C327960 
 210      6BF844DC 
 210      1A56A81E 
 211 05eb 66E22AB7 		.ascii	"f\342*\267\237\223n\207\230\347h\364\"&\"?br\331\247"
 211      9F936E87 
 211      98E768F4 
 211      2226223F 
 211      6272D9A7 
 212 05ff 30DB8F76 		.ascii	"0\333\217v%\332\207\320>\214\366\021\264\217\242]\213"
 212      25DA87D0 
 212      3E8CF611 
 212      B48FA25D 
 212      8B
 213 0610 761DDA0D 		.ascii	"v\035\332\015h\007\321>\206\366q\264O\240\315\242\335"
ARM GAS  /tmp/cctHgLr0.s 			page 16


 213      6807D13E 
 213      86F671B4 
 213      4FA0CDA2 
 213      DD
 214 0621 827604ED 		.ascii	"\202v\004\355v\264\317\241}^\221\247\263\347+\244\263"
 214      76B4CFA1 
 214      7D5E91A7 
 214      B3E72BA4 
 214      B3
 215 0632 7F57AC6C 		.ascii	"\177W\254l\361\327d\263~\344Ha\345\231!\272\252\240"
 215      F1D764B3 
 215      7EE44861 
 215      E59921BA 
 215      AAA0
 216 0644 0FE83F16 		.ascii	"\017\350?\026\213\264\224\274Z_\374\362\225\277\370"
 216      8BB494BC 
 216      5A5FFCF2 
 216      95BFF8
 217 0653 B1FF4128 		.ascii	"\261\377A(\302\347\301)\356\276\032}Qa\361\332#\314"
 217      C2E7C129 
 217      EEBE1A7D 
 217      5161F1DA 
 217      23CC
 218 0665 2EA3CE6B 		.ascii	".\243\316k\306\207\307\325\252\333\2773\020\240rS\263"
 218      C687C7D5 
 218      AADBBF33 
 218      10A07253 
 218      B3
 219 0676 D37F59D3 		.ascii	"\323\177Y\323\345Z\333Ba\3318s\225\270i4\347{\241\354"
 219      E55ADB42 
 219      61D93873 
 219      95B86934 
 219      E77BA1EC 
 220 068a 952C94A9 		.ascii	"\225,\224\2516\326{K\013e\255\352\370\364\355d\241\220"
 220      36D67B4B 
 220      0B65ADEA 
 220      F8F4ED64 
 220      A190
 221 069c 2195A7D4 		.ascii	"!\225\247\324\227\260\312\015\015\015!\343\257\273'"
 221      97B0CA0D 
 221      0D0D21E3 
 221      AFBB27
 222 06ab D4AE7586 		.ascii	"\324\256u\206\226u\2473=\241DwWWw*\324\030m\015\267"
 222      9675A733 
 222      3DA14477 
 222      5757772A 
 222      D4186D0D 
 223 06c0 DE1F4ADD 		.ascii	"\336\037J\335\327\221hH\220kC\275=\351PG*\321\331\273"
 223      D7916848 
 223      906B43BD 
 223      3DE95047 
 223      2AD1D9BB 
 224 06d4 34194A25 		.ascii	"4\031J%\377\334\331qw\250'\263\264#\225ih'5\275p\236"
 224      FFDCD971 
 224      77A827B3 
 224      B4239569 
 224      682735BD 
ARM GAS  /tmp/cctHgLr0.s 			page 17


 225 06ea 3D2B9E99 		.ascii	"=+\236\231\360\307;\026\326\207\311Mn\336]Z\242\275"
 225      F0C73B16 
 225      D687C94D 
 225      6EDE5D5A 
 225      A2BD
 226 06fc 23950CC5 		.ascii	"#\225\014\305\227&\357\321z;3\361\314\362e\311\036h"
 226      9726EFD1 
 226      7A3B33F1 
 226      CCF265C9 
 226      1E68
 227 070e 7D493CCE 		.ascii	"}I<\316\333Ob\3355\247\264\273;\223\213\222\211Lw\232"
 227      DB4F62DD 
 227      35A7B4BB 
 227      3B938B92 
 227      894C779A 
 228 0722 A6D465E9 		.ascii	"\246\324e\351\216\356\311\354~SGO\351\301Tv'\226\314"
 228      8EEEC9EC 
 228      7E53474F 
 228      E9C15476 
 228      2796CC
 229 0735 C496F764 		.ascii	"\304\226\367d\222]-Zjig2\335\006\256\351\216\314\362"
 229      925D2D5A 
 229      6A696732 
 229      DD06AEE9 
 229      8ECCF2
 230 0748 EA76E31A 		.ascii	"\352v\343\032\341\302\235I-\335\226L\001\327{\253YG"
 230      E1C29D49 
 230      2DDD964C 
 230      01D77BAB 
 230      5947
 231 075a 73E299A0 		.ascii	"s\342\231\240\321%\324f\210A0\245'\357\317\204\302\255"
 231      D125D466 
 231      884130A5 
 231      27EFCF84 
 231      C2AD
 232 076c B148CC92 		.ascii	"\261H\314\222\220\350N'\343\211\256\331\3006x\307\242"
 232      90E84E27 
 232      E389AED9 
 232      C03678C7 
 232      A2
 233 077d 4838BE00 		.ascii	"H8\276\000\270\253\221Xs4\030m\006\273\250\271i\206"
 233      B8AB9158 
 233      7334186D 
 233      06BBA8B9 
 233      6986
 234 078f 1A093747 		.ascii	"\032\0117Gk\242\306\325Lx\330Vz8\013\036\012\227\263"
 234      6BA2C6D5 
 234      4C78D856 
 234      7A380B1E 
 234      0A97B3
 235 07a2 D548E3BC 		.ascii	"\325H\343\274\322\345\357\225H\233uq\263\032[\020\211"
 235      D2E5EF95 
 235      489B7571 
 235      B31A5B10 
 235      89
 236 07b3 D6C4C2F3 		.ascii	"\326\304\302\363\260\223\252p\333\302H\0234\217E\325"
 236      B093AA70 
ARM GAS  /tmp/cctHgLr0.s 			page 18


 236      DBC24813 
 236      348F45D5 
 237 07c3 450BFE14 		.ascii	"E\013\376\024\255j\214D\303\321@\014J"
 237      AD6A8C44 
 237      C3D1400C 
 237      4A
 238 07d0 989D5BDA 		.ascii	"\230\235[\332\252b-\354ax>\230\026f\232\300T\265\266"
 238      AA622DEC 
 238      61783E98 
 238      16669AC0 
 238      54B5B6
 239 07e3 CE6F8CAA 		.ascii	"\316o\214\252\363\230i\204\353@\333\374h\240\011JcS"
 239      F3986984 
 239      EB40DBFC 
 239      68A0094A 
 239      6353
 240 07f5 54856751 		.ascii	"T\205gQ\340\327\030\005\360\306pTM\264k\351\232x\374"
 240      E0D71805 
 240      F0C67054 
 240      4DB46BE9 
 240      9A78FC
 241 0808 9EDE5422 		.ascii	"\236\336T\"\036\277\224W\032n\271y\306\314\237\000\204"
 241      1EBF9457 
 241      1A6EB979 
 241      C6CC9F00 
 241      84
 242 0819 3F5C18   		.ascii	"?\\\030"
 243              		.text
 244              		.section	.gnu.lto_.symtab.b6c0761ac9b73c02,"",%progbits
 245 0000 6E766963 		.ascii	"nvicEnableVector\000\000\000\000\000\000\000\000\000"
 245      456E6162 
 245      6C655665 
 245      63746F72 
 245      00000000 
 246 0019 000000A1 		.ascii	"\000\000\000\241\000\000\000nvicDisableVector\000\000"
 246      0000006E 
 246      76696344 
 246      69736162 
 246      6C655665 
 247 0033 00000000 		.ascii	"\000\000\000\000\000\000\000\000\000\000\262\000\000"
 247      00000000 
 247      0000B200 
 247      00
 248 0040 006E7669 		.ascii	"\000nvicSetSystemHandlerPriority\000\000\000\000\000"
 248      63536574 
 248      53797374 
 248      656D4861 
 248      6E646C65 
 249 0062 00000000 		.ascii	"\000\000\000\000\000\000\000\270\000\000\000nvicCle"
 249      000000B8 
 249      0000006E 
 249      76696343 
 249      6C65
 250 0074 61725065 		.ascii	"arPending\000\000\000\000\000\000\000\000\000\000\000"
 250      6E64696E 
 250      67000000 
 250      00000000 
ARM GAS  /tmp/cctHgLr0.s 			page 19


 250      00000000 
 251 0088 00BE0000 		.ascii	"\000\276\000\000\000"
 251      00
 252              		.text
 253              		.section	.gnu.lto_.opts,"",%progbits
 254 0000 272D6D63 		.ascii	"'-mcpu=cortex-m3' '-mno-thumb-interwork' '-mthumb' "
 254      70753D63 
 254      6F727465 
 254      782D6D33 
 254      2720272D 
 255 0033 272D6767 		.ascii	"'-ggdb' '-O2' '-fomit-frame-pointer' '-falign-funct"
 255      64622720 
 255      272D4F32 
 255      2720272D 
 255      666F6D69 
 256 0066 696F6E73 		.ascii	"ions=16' '-ffunction-sections' '-fdata-sections' '-"
 256      3D313627 
 256      20272D66 
 256      66756E63 
 256      74696F6E 
 257 0099 666E6F2D 		.ascii	"fno-common' '-flto'\000"
 257      636F6D6D 
 257      6F6E2720 
 257      272D666C 
 257      746F2700 
 258              		.text
 259              		.cfi_sections	.debug_frame
 260              		.section	.text.nvicEnableVector,"ax",%progbits
 261              		.align	2
 262              		.p2align 4,,15
 263              		.global	nvicEnableVector
 264              		.thumb
 265              		.thumb_func
 266              		.type	nvicEnableVector, %function
 267              	nvicEnableVector:
 268              	.LFB219:
 269              		.file 1 "../../../os/hal/ports/common/ARMCMx/nvic.c"
 270              		.loc 1 57 0
 271              		.cfi_startproc
 272              		@ args = 0, pretend = 0, frame = 0
 273              		@ frame_needed = 0, uses_anonymous_args = 0
 274              		@ link register save eliminated.
 275              	.LVL0:
 276              		.loc 1 65 0
 277 0000 00F01F03 		and	r3, r0, #31
 278 0004 0122     		movs	r2, #1
 279 0006 02FA03F3 		lsl	r3, r2, r3
 280 000a 4209     		lsrs	r2, r0, #5
 281 000c 9200     		lsls	r2, r2, #2
 282              		.loc 1 63 0
 283 000e 0901     		lsls	r1, r1, #4
 284              	.LVL1:
 285 0010 00F16040 		add	r0, r0, #-536870912
 286              	.LVL2:
 287 0014 02F16042 		add	r2, r2, #-536870912
 288 0018 02F56142 		add	r2, r2, #57600
 289 001c C9B2     		uxtb	r1, r1
ARM GAS  /tmp/cctHgLr0.s 			page 20


 290 001e 00F56140 		add	r0, r0, #57600
 291              	.LVL3:
 292 0022 80F80013 		strb	r1, [r0, #768]
 293              		.loc 1 65 0
 294 0026 C2F88031 		str	r3, [r2, #384]
 295              		.loc 1 66 0
 296 002a 1360     		str	r3, [r2]
 297 002c 7047     		bx	lr
 298              		.cfi_endproc
 299              	.LFE219:
 300              		.size	nvicEnableVector, .-nvicEnableVector
 301 002e 00BF     		.section	.text.nvicDisableVector,"ax",%progbits
 302              		.align	2
 303              		.p2align 4,,15
 304              		.global	nvicDisableVector
 305              		.thumb
 306              		.thumb_func
 307              		.type	nvicDisableVector, %function
 308              	nvicDisableVector:
 309              	.LFB220:
 310              		.loc 1 74 0
 311              		.cfi_startproc
 312              		@ args = 0, pretend = 0, frame = 0
 313              		@ frame_needed = 0, uses_anonymous_args = 0
 314              		@ link register save eliminated.
 315              	.LVL4:
 316 0000 10B4     		push	{r4}
 317              		.cfi_def_cfa_offset 4
 318              		.cfi_offset 4, -4
 319              		.loc 1 76 0
 320 0002 00F01F03 		and	r3, r0, #31
 321 0006 0124     		movs	r4, #1
 322 0008 9C40     		lsls	r4, r4, r3
 323 000a 4FF46143 		mov	r3, #57600
 324 000e 4109     		lsrs	r1, r0, #5
 325 0010 CEF20003 		movt	r3, 57344
 326 0014 2031     		adds	r1, r1, #32
 327              		.loc 1 80 0
 328 0016 1844     		add	r0, r0, r3
 329              	.LVL5:
 330 0018 0022     		movs	r2, #0
 331              		.loc 1 76 0
 332 001a 43F82140 		str	r4, [r3, r1, lsl #2]
 333              		.loc 1 80 0
 334 001e 80F80023 		strb	r2, [r0, #768]
 335              		.loc 1 82 0
 336 0022 5DF8044B 		ldr	r4, [sp], #4
 337 0026 7047     		bx	lr
 338              		.cfi_endproc
 339              	.LFE220:
 340              		.size	nvicDisableVector, .-nvicDisableVector
 341 0028 AFF30080 		.section	.text.nvicSetSystemHandlerPriority,"ax",%progbits
 341      AFF30080 
 342              		.align	2
 343              		.p2align 4,,15
 344              		.global	nvicSetSystemHandlerPriority
 345              		.thumb
ARM GAS  /tmp/cctHgLr0.s 			page 21


 346              		.thumb_func
 347              		.type	nvicSetSystemHandlerPriority, %function
 348              	nvicSetSystemHandlerPriority:
 349              	.LFB221:
 350              		.loc 1 90 0
 351              		.cfi_startproc
 352              		@ args = 0, pretend = 0, frame = 0
 353              		@ frame_needed = 0, uses_anonymous_args = 0
 354              		@ link register save eliminated.
 355              	.LVL6:
 356              		.loc 1 100 0
 357 0000 0901     		lsls	r1, r1, #4
 358              	.LVL7:
 359 0002 00F16040 		add	r0, r0, #-536870912
 360              	.LVL8:
 361 0006 C9B2     		uxtb	r1, r1
 362 0008 00F56D40 		add	r0, r0, #60672
 363              	.LVL9:
 364 000c 0176     		strb	r1, [r0, #24]
 365 000e 7047     		bx	lr
 366              		.cfi_endproc
 367              	.LFE221:
 368              		.size	nvicSetSystemHandlerPriority, .-nvicSetSystemHandlerPriority
 369              		.section	.text.nvicClearPending,"ax",%progbits
 370              		.align	2
 371              		.p2align 4,,15
 372              		.global	nvicClearPending
 373              		.thumb
 374              		.thumb_func
 375              		.type	nvicClearPending, %function
 376              	nvicClearPending:
 377              	.LFB222:
 378              		.loc 1 109 0
 379              		.cfi_startproc
 380              		@ args = 0, pretend = 0, frame = 0
 381              		@ frame_needed = 0, uses_anonymous_args = 0
 382              		@ link register save eliminated.
 383              	.LVL10:
 384              		.loc 1 111 0
 385 0000 00F01F03 		and	r3, r0, #31
 386 0004 0122     		movs	r2, #1
 387 0006 9A40     		lsls	r2, r2, r3
 388 0008 4009     		lsrs	r0, r0, #5
 389              	.LVL11:
 390 000a 4FF46143 		mov	r3, #57600
 391 000e 6030     		adds	r0, r0, #96
 392 0010 CEF20003 		movt	r3, 57344
 393 0014 43F82020 		str	r2, [r3, r0, lsl #2]
 394 0018 7047     		bx	lr
 395              		.cfi_endproc
 396              	.LFE222:
 397              		.size	nvicClearPending, .-nvicClearPending
 398 001a 00BFAFF3 		.text
 398      0080
 399              	.Letext0:
 400              		.file 2 "/usr/include/newlib/machine/_default_types.h"
 401              		.file 3 "/usr/include/newlib/stdint.h"
ARM GAS  /tmp/cctHgLr0.s 			page 22


 402              		.file 4 "../../../os/common/ports/ARMCMx/compilers/GCC/chtypes.h"
 403              		.file 5 "../../../os/rt/include/chsystypes.h"
 404              		.file 6 "../../../os/rt/include/chschd.h"
 405              		.file 7 "../../../os/common/ext/CMSIS/include/core_cm3.h"
 406              		.file 8 "../../../os/common/ports/ARMCMx/chcore.h"
 407              		.file 9 "../../../os/common/ports/ARMCMx/chcore_v7m.h"
 408              		.file 10 "../../../os/rt/include/chsem.h"
 409              		.file 11 "../../../os/rt/include/chmtx.h"
 410              		.section	.debug_info,"",%progbits
 411              	.Ldebug_info0:
 412 0000 89090000 		.4byte	0x989
 413 0004 0400     		.2byte	0x4
 414 0006 00000000 		.4byte	.Ldebug_abbrev0
 415 000a 04       		.byte	0x4
 416 000b 01       		.uleb128 0x1
 417 000c C3020000 		.4byte	.LASF123
 418 0010 01       		.byte	0x1
 419 0011 26000000 		.4byte	.LASF124
 420 0015 88030000 		.4byte	.LASF125
 421 0019 00000000 		.4byte	.Ldebug_ranges0+0
 422 001d 00000000 		.4byte	0
 423 0021 00000000 		.4byte	.Ldebug_line0
 424 0025 02       		.uleb128 0x2
 425 0026 04       		.byte	0x4
 426 0027 05       		.byte	0x5
 427 0028 696E7400 		.ascii	"int\000"
 428 002c 03       		.uleb128 0x3
 429 002d 04       		.byte	0x4
 430 002e 07       		.byte	0x7
 431 002f 73000000 		.4byte	.LASF0
 432 0033 03       		.uleb128 0x3
 433 0034 01       		.byte	0x1
 434 0035 06       		.byte	0x6
 435 0036 44050000 		.4byte	.LASF1
 436 003a 04       		.uleb128 0x4
 437 003b 6C040000 		.4byte	.LASF4
 438 003f 02       		.byte	0x2
 439 0040 1C       		.byte	0x1c
 440 0041 45000000 		.4byte	0x45
 441 0045 03       		.uleb128 0x3
 442 0046 01       		.byte	0x1
 443 0047 08       		.byte	0x8
 444 0048 E4040000 		.4byte	.LASF2
 445 004c 03       		.uleb128 0x3
 446 004d 02       		.byte	0x2
 447 004e 05       		.byte	0x5
 448 004f 1E040000 		.4byte	.LASF3
 449 0053 04       		.uleb128 0x4
 450 0054 A1010000 		.4byte	.LASF5
 451 0058 02       		.byte	0x2
 452 0059 26       		.byte	0x26
 453 005a 5E000000 		.4byte	0x5e
 454 005e 03       		.uleb128 0x3
 455 005f 02       		.byte	0x2
 456 0060 07       		.byte	0x7
 457 0061 56050000 		.4byte	.LASF6
 458 0065 04       		.uleb128 0x4
ARM GAS  /tmp/cctHgLr0.s 			page 23


 459 0066 99000000 		.4byte	.LASF7
 460 006a 02       		.byte	0x2
 461 006b 37       		.byte	0x37
 462 006c 70000000 		.4byte	0x70
 463 0070 03       		.uleb128 0x3
 464 0071 04       		.byte	0x4
 465 0072 05       		.byte	0x5
 466 0073 28040000 		.4byte	.LASF8
 467 0077 04       		.uleb128 0x4
 468 0078 F2040000 		.4byte	.LASF9
 469 007c 02       		.byte	0x2
 470 007d 38       		.byte	0x38
 471 007e 82000000 		.4byte	0x82
 472 0082 03       		.uleb128 0x3
 473 0083 04       		.byte	0x4
 474 0084 07       		.byte	0x7
 475 0085 A9040000 		.4byte	.LASF10
 476 0089 03       		.uleb128 0x3
 477 008a 08       		.byte	0x8
 478 008b 05       		.byte	0x5
 479 008c 94020000 		.4byte	.LASF11
 480 0090 04       		.uleb128 0x4
 481 0091 0C020000 		.4byte	.LASF12
 482 0095 02       		.byte	0x2
 483 0096 4E       		.byte	0x4e
 484 0097 9B000000 		.4byte	0x9b
 485 009b 03       		.uleb128 0x3
 486 009c 08       		.byte	0x8
 487 009d 07       		.byte	0x7
 488 009e 8A010000 		.4byte	.LASF13
 489 00a2 04       		.uleb128 0x4
 490 00a3 6A020000 		.4byte	.LASF14
 491 00a7 03       		.byte	0x3
 492 00a8 2A       		.byte	0x2a
 493 00a9 3A000000 		.4byte	0x3a
 494 00ad 04       		.uleb128 0x4
 495 00ae C7030000 		.4byte	.LASF15
 496 00b2 03       		.byte	0x3
 497 00b3 36       		.byte	0x36
 498 00b4 53000000 		.4byte	0x53
 499 00b8 04       		.uleb128 0x4
 500 00b9 CE040000 		.4byte	.LASF16
 501 00bd 03       		.byte	0x3
 502 00be 41       		.byte	0x41
 503 00bf 65000000 		.4byte	0x65
 504 00c3 04       		.uleb128 0x4
 505 00c4 34010000 		.4byte	.LASF17
 506 00c8 03       		.byte	0x3
 507 00c9 42       		.byte	0x42
 508 00ca 77000000 		.4byte	0x77
 509 00ce 04       		.uleb128 0x4
 510 00cf 5D040000 		.4byte	.LASF18
 511 00d3 03       		.byte	0x3
 512 00d4 4E       		.byte	0x4e
 513 00d5 90000000 		.4byte	0x90
 514 00d9 04       		.uleb128 0x4
 515 00da 75030000 		.4byte	.LASF19
ARM GAS  /tmp/cctHgLr0.s 			page 24


 516 00de 04       		.byte	0x4
 517 00df 3C       		.byte	0x3c
 518 00e0 A2000000 		.4byte	0xa2
 519 00e4 04       		.uleb128 0x4
 520 00e5 5B020000 		.4byte	.LASF20
 521 00e9 04       		.byte	0x4
 522 00ea 3D       		.byte	0x3d
 523 00eb A2000000 		.4byte	0xa2
 524 00ef 04       		.uleb128 0x4
 525 00f0 A1040000 		.4byte	.LASF21
 526 00f4 04       		.byte	0x4
 527 00f5 3E       		.byte	0x3e
 528 00f6 A2000000 		.4byte	0xa2
 529 00fa 04       		.uleb128 0x4
 530 00fb 68010000 		.4byte	.LASF22
 531 00ff 04       		.byte	0x4
 532 0100 40       		.byte	0x40
 533 0101 C3000000 		.4byte	0xc3
 534 0105 04       		.uleb128 0x4
 535 0106 A8020000 		.4byte	.LASF23
 536 010a 04       		.byte	0x4
 537 010b 41       		.byte	0x41
 538 010c B8000000 		.4byte	0xb8
 539 0110 04       		.uleb128 0x4
 540 0111 4A010000 		.4byte	.LASF24
 541 0115 04       		.byte	0x4
 542 0116 43       		.byte	0x43
 543 0117 C3000000 		.4byte	0xc3
 544 011b 04       		.uleb128 0x4
 545 011c AC010000 		.4byte	.LASF25
 546 0120 04       		.byte	0x4
 547 0121 45       		.byte	0x45
 548 0122 B8000000 		.4byte	0xb8
 549 0126 04       		.uleb128 0x4
 550 0127 57000000 		.4byte	.LASF26
 551 012b 05       		.byte	0x5
 552 012c 35       		.byte	0x35
 553 012d AD000000 		.4byte	0xad
 554 0131 04       		.uleb128 0x4
 555 0132 E7010000 		.4byte	.LASF27
 556 0136 05       		.byte	0x5
 557 0137 3F       		.byte	0x3f
 558 0138 3C010000 		.4byte	0x13c
 559 013c 05       		.uleb128 0x5
 560 013d 7B020000 		.4byte	.LASF45
 561 0141 44       		.byte	0x44
 562 0142 06       		.byte	0x6
 563 0143 9A       		.byte	0x9a
 564 0144 1A020000 		.4byte	0x21a
 565 0148 06       		.uleb128 0x6
 566 0149 C8040000 		.4byte	.LASF28
 567 014d 06       		.byte	0x6
 568 014e 9B       		.byte	0x9b
 569 014f 4F020000 		.4byte	0x24f
 570 0153 00       		.byte	0
 571 0154 06       		.uleb128 0x6
 572 0155 32020000 		.4byte	.LASF29
ARM GAS  /tmp/cctHgLr0.s 			page 25


 573 0159 06       		.byte	0x6
 574 015a 9C       		.byte	0x9c
 575 015b FA000000 		.4byte	0xfa
 576 015f 08       		.byte	0x8
 577 0160 07       		.uleb128 0x7
 578 0161 63747800 		.ascii	"ctx\000"
 579 0165 06       		.byte	0x6
 580 0166 9D       		.byte	0x9d
 581 0167 06070000 		.4byte	0x706
 582 016b 0C       		.byte	0xc
 583 016c 06       		.uleb128 0x6
 584 016d DE040000 		.4byte	.LASF30
 585 0171 06       		.byte	0x6
 586 0172 9F       		.byte	0x9f
 587 0173 25020000 		.4byte	0x225
 588 0177 10       		.byte	0x10
 589 0178 06       		.uleb128 0x6
 590 0179 86050000 		.4byte	.LASF31
 591 017d 06       		.byte	0x6
 592 017e A0       		.byte	0xa0
 593 017f 25020000 		.4byte	0x225
 594 0183 14       		.byte	0x14
 595 0184 06       		.uleb128 0x6
 596 0185 89040000 		.4byte	.LASF32
 597 0189 06       		.byte	0x6
 598 018a A7       		.byte	0xa7
 599 018b 6B080000 		.4byte	0x86b
 600 018f 18       		.byte	0x18
 601 0190 06       		.uleb128 0x6
 602 0191 4F020000 		.4byte	.LASF33
 603 0195 06       		.byte	0x6
 604 0196 B0       		.byte	0xb0
 605 0197 7D080000 		.4byte	0x87d
 606 019b 1C       		.byte	0x1c
 607 019c 06       		.uleb128 0x6
 608 019d 20050000 		.4byte	.LASF34
 609 01a1 06       		.byte	0x6
 610 01a2 B5       		.byte	0xb5
 611 01a3 E4000000 		.4byte	0xe4
 612 01a7 20       		.byte	0x20
 613 01a8 06       		.uleb128 0x6
 614 01a9 51000000 		.4byte	.LASF35
 615 01ad 06       		.byte	0x6
 616 01ae B9       		.byte	0xb9
 617 01af D9000000 		.4byte	0xd9
 618 01b3 21       		.byte	0x21
 619 01b4 06       		.uleb128 0x6
 620 01b5 A3000000 		.4byte	.LASF36
 621 01b9 06       		.byte	0x6
 622 01ba BE       		.byte	0xbe
 623 01bb EF000000 		.4byte	0xef
 624 01bf 22       		.byte	0x22
 625 01c0 08       		.uleb128 0x8
 626 01c1 7500     		.ascii	"u\000"
 627 01c3 06       		.byte	0x6
 628 01c4 0F01     		.2byte	0x10f
 629 01c6 A0070000 		.4byte	0x7a0
ARM GAS  /tmp/cctHgLr0.s 			page 26


 630 01ca 24       		.byte	0x24
 631 01cb 09       		.uleb128 0x9
 632 01cc FD040000 		.4byte	.LASF37
 633 01d0 06       		.byte	0x6
 634 01d1 1401     		.2byte	0x114
 635 01d3 2B020000 		.4byte	0x22b
 636 01d7 28       		.byte	0x28
 637 01d8 09       		.uleb128 0x9
 638 01d9 72020000 		.4byte	.LASF38
 639 01dd 06       		.byte	0x6
 640 01de 1A01     		.2byte	0x11a
 641 01e0 4F020000 		.4byte	0x24f
 642 01e4 2C       		.byte	0x2c
 643 01e5 09       		.uleb128 0x9
 644 01e6 6A000000 		.4byte	.LASF39
 645 01ea 06       		.byte	0x6
 646 01eb 2001     		.2byte	0x120
 647 01ed 10010000 		.4byte	0x110
 648 01f1 34       		.byte	0x34
 649 01f2 09       		.uleb128 0x9
 650 01f3 C8010000 		.4byte	.LASF40
 651 01f7 06       		.byte	0x6
 652 01f8 2701     		.2byte	0x127
 653 01fa 65080000 		.4byte	0x865
 654 01fe 38       		.byte	0x38
 655 01ff 09       		.uleb128 0x9
 656 0200 61000000 		.4byte	.LASF41
 657 0204 06       		.byte	0x6
 658 0205 2B01     		.2byte	0x12b
 659 0207 FA000000 		.4byte	0xfa
 660 020b 3C       		.byte	0x3c
 661 020c 09       		.uleb128 0x9
 662 020d 95050000 		.4byte	.LASF42
 663 0211 06       		.byte	0x6
 664 0212 3201     		.2byte	0x132
 665 0214 02030000 		.4byte	0x302
 666 0218 40       		.byte	0x40
 667 0219 00       		.byte	0
 668 021a 04       		.uleb128 0x4
 669 021b 3C020000 		.4byte	.LASF43
 670 021f 05       		.byte	0x5
 671 0220 44       		.byte	0x44
 672 0221 25020000 		.4byte	0x225
 673 0225 0A       		.uleb128 0xa
 674 0226 04       		.byte	0x4
 675 0227 31010000 		.4byte	0x131
 676 022b 04       		.uleb128 0x4
 677 022c 85000000 		.4byte	.LASF44
 678 0230 05       		.byte	0x5
 679 0231 49       		.byte	0x49
 680 0232 36020000 		.4byte	0x236
 681 0236 05       		.uleb128 0x5
 682 0237 00000000 		.4byte	.LASF46
 683 023b 04       		.byte	0x4
 684 023c 06       		.byte	0x6
 685 023d 88       		.byte	0x88
 686 023e 4F020000 		.4byte	0x24f
ARM GAS  /tmp/cctHgLr0.s 			page 27


 687 0242 06       		.uleb128 0x6
 688 0243 80000000 		.4byte	.LASF47
 689 0247 06       		.byte	0x6
 690 0248 89       		.byte	0x89
 691 0249 25020000 		.4byte	0x225
 692 024d 00       		.byte	0
 693 024e 00       		.byte	0
 694 024f 04       		.uleb128 0x4
 695 0250 B8010000 		.4byte	.LASF48
 696 0254 05       		.byte	0x5
 697 0255 50       		.byte	0x50
 698 0256 5A020000 		.4byte	0x25a
 699 025a 05       		.uleb128 0x5
 700 025b 0A010000 		.4byte	.LASF49
 701 025f 08       		.byte	0x8
 702 0260 06       		.byte	0x6
 703 0261 8F       		.byte	0x8f
 704 0262 7F020000 		.4byte	0x27f
 705 0266 06       		.uleb128 0x6
 706 0267 80000000 		.4byte	.LASF47
 707 026b 06       		.byte	0x6
 708 026c 90       		.byte	0x90
 709 026d 25020000 		.4byte	0x225
 710 0271 00       		.byte	0
 711 0272 06       		.uleb128 0x6
 712 0273 05010000 		.4byte	.LASF50
 713 0277 06       		.byte	0x6
 714 0278 91       		.byte	0x91
 715 0279 25020000 		.4byte	0x225
 716 027d 04       		.byte	0x4
 717 027e 00       		.byte	0
 718 027f 04       		.uleb128 0x4
 719 0280 BB040000 		.4byte	.LASF51
 720 0284 05       		.byte	0x5
 721 0285 57       		.byte	0x57
 722 0286 8A020000 		.4byte	0x28a
 723 028a 0B       		.uleb128 0xb
 724 028b CB000000 		.4byte	.LASF52
 725 028f 1C       		.byte	0x1c
 726 0290 06       		.byte	0x6
 727 0291 6A01     		.2byte	0x16a
 728 0293 E6020000 		.4byte	0x2e6
 729 0297 09       		.uleb128 0x9
 730 0298 C8040000 		.4byte	.LASF28
 731 029c 06       		.byte	0x6
 732 029d 6B01     		.2byte	0x16b
 733 029f 4F020000 		.4byte	0x24f
 734 02a3 00       		.byte	0
 735 02a4 09       		.uleb128 0x9
 736 02a5 32020000 		.4byte	.LASF29
 737 02a9 06       		.byte	0x6
 738 02aa 6C01     		.2byte	0x16c
 739 02ac FA000000 		.4byte	0xfa
 740 02b0 08       		.byte	0x8
 741 02b1 08       		.uleb128 0x8
 742 02b2 63747800 		.ascii	"ctx\000"
 743 02b6 06       		.byte	0x6
ARM GAS  /tmp/cctHgLr0.s 			page 28


 744 02b7 6E01     		.2byte	0x16e
 745 02b9 06070000 		.4byte	0x706
 746 02bd 0C       		.byte	0xc
 747 02be 09       		.uleb128 0x9
 748 02bf DE040000 		.4byte	.LASF30
 749 02c3 06       		.byte	0x6
 750 02c4 7101     		.2byte	0x171
 751 02c6 25020000 		.4byte	0x225
 752 02ca 10       		.byte	0x10
 753 02cb 09       		.uleb128 0x9
 754 02cc 86050000 		.4byte	.LASF31
 755 02d0 06       		.byte	0x6
 756 02d1 7201     		.2byte	0x172
 757 02d3 25020000 		.4byte	0x225
 758 02d7 14       		.byte	0x14
 759 02d8 09       		.uleb128 0x9
 760 02d9 74050000 		.4byte	.LASF53
 761 02dd 06       		.byte	0x6
 762 02de 7501     		.2byte	0x175
 763 02e0 25020000 		.4byte	0x225
 764 02e4 18       		.byte	0x18
 765 02e5 00       		.byte	0
 766 02e6 04       		.uleb128 0x4
 767 02e7 1B010000 		.4byte	.LASF54
 768 02eb 05       		.byte	0x5
 769 02ec 5C       		.byte	0x5c
 770 02ed F1020000 		.4byte	0x2f1
 771 02f1 0A       		.uleb128 0xa
 772 02f2 04       		.byte	0x4
 773 02f3 F7020000 		.4byte	0x2f7
 774 02f7 0C       		.uleb128 0xc
 775 02f8 02030000 		.4byte	0x302
 776 02fc 0D       		.uleb128 0xd
 777 02fd 02030000 		.4byte	0x302
 778 0301 00       		.byte	0
 779 0302 0E       		.uleb128 0xe
 780 0303 04       		.byte	0x4
 781 0304 04       		.uleb128 0x4
 782 0305 B3020000 		.4byte	.LASF55
 783 0309 05       		.byte	0x5
 784 030a 61       		.byte	0x61
 785 030b 0F030000 		.4byte	0x30f
 786 030f 0B       		.uleb128 0xb
 787 0310 79010000 		.4byte	.LASF56
 788 0314 14       		.byte	0x14
 789 0315 06       		.byte	0x6
 790 0316 4501     		.2byte	0x145
 791 0318 5E030000 		.4byte	0x35e
 792 031c 09       		.uleb128 0x9
 793 031d 80000000 		.4byte	.LASF47
 794 0321 06       		.byte	0x6
 795 0322 4601     		.2byte	0x146
 796 0324 83080000 		.4byte	0x883
 797 0328 00       		.byte	0
 798 0329 09       		.uleb128 0x9
 799 032a 05010000 		.4byte	.LASF50
 800 032e 06       		.byte	0x6
ARM GAS  /tmp/cctHgLr0.s 			page 29


 801 032f 4701     		.2byte	0x147
 802 0331 83080000 		.4byte	0x883
 803 0335 04       		.byte	0x4
 804 0336 09       		.uleb128 0x9
 805 0337 50050000 		.4byte	.LASF57
 806 033b 06       		.byte	0x6
 807 033c 4801     		.2byte	0x148
 808 033e 26010000 		.4byte	0x126
 809 0342 08       		.byte	0x8
 810 0343 09       		.uleb128 0x9
 811 0344 E7000000 		.4byte	.LASF58
 812 0348 06       		.byte	0x6
 813 0349 4901     		.2byte	0x149
 814 034b E6020000 		.4byte	0x2e6
 815 034f 0C       		.byte	0xc
 816 0350 08       		.uleb128 0x8
 817 0351 70617200 		.ascii	"par\000"
 818 0355 06       		.byte	0x6
 819 0356 4B01     		.2byte	0x14b
 820 0358 02030000 		.4byte	0x302
 821 035c 10       		.byte	0x10
 822 035d 00       		.byte	0
 823 035e 04       		.uleb128 0x4
 824 035f 05050000 		.4byte	.LASF59
 825 0363 05       		.byte	0x5
 826 0364 66       		.byte	0x66
 827 0365 69030000 		.4byte	0x369
 828 0369 0B       		.uleb128 0xb
 829 036a D0010000 		.4byte	.LASF60
 830 036e 0C       		.byte	0xc
 831 036f 06       		.byte	0x6
 832 0370 5501     		.2byte	0x155
 833 0372 AB030000 		.4byte	0x3ab
 834 0376 09       		.uleb128 0x9
 835 0377 80000000 		.4byte	.LASF47
 836 037b 06       		.byte	0x6
 837 037c 5601     		.2byte	0x156
 838 037e 83080000 		.4byte	0x883
 839 0382 00       		.byte	0
 840 0383 09       		.uleb128 0x9
 841 0384 05010000 		.4byte	.LASF50
 842 0388 06       		.byte	0x6
 843 0389 5801     		.2byte	0x158
 844 038b 83080000 		.4byte	0x883
 845 038f 04       		.byte	0x4
 846 0390 09       		.uleb128 0x9
 847 0391 50050000 		.4byte	.LASF57
 848 0395 06       		.byte	0x6
 849 0396 5A01     		.2byte	0x15a
 850 0398 26010000 		.4byte	0x126
 851 039c 08       		.byte	0x8
 852 039d 09       		.uleb128 0x9
 853 039e 54040000 		.4byte	.LASF61
 854 03a2 06       		.byte	0x6
 855 03a3 6201     		.2byte	0x162
 856 03a5 26010000 		.4byte	0x126
 857 03a9 0A       		.byte	0xa
ARM GAS  /tmp/cctHgLr0.s 			page 30


 858 03aa 00       		.byte	0
 859 03ab 04       		.uleb128 0x4
 860 03ac 85020000 		.4byte	.LASF62
 861 03b0 05       		.byte	0x5
 862 03b1 6B       		.byte	0x6b
 863 03b2 B6030000 		.4byte	0x3b6
 864 03b6 0B       		.uleb128 0xb
 865 03b7 24010000 		.4byte	.LASF63
 866 03bb 04       		.byte	0x4
 867 03bc 06       		.byte	0x6
 868 03bd 7C01     		.2byte	0x17c
 869 03bf D1030000 		.4byte	0x3d1
 870 03c3 09       		.uleb128 0x9
 871 03c4 6B030000 		.4byte	.LASF64
 872 03c8 06       		.byte	0x6
 873 03c9 8401     		.2byte	0x184
 874 03cb 89080000 		.4byte	0x889
 875 03cf 00       		.byte	0
 876 03d0 00       		.byte	0
 877 03d1 04       		.uleb128 0x4
 878 03d2 2B050000 		.4byte	.LASF65
 879 03d6 05       		.byte	0x5
 880 03d7 70       		.byte	0x70
 881 03d8 DC030000 		.4byte	0x3dc
 882 03dc 0B       		.uleb128 0xb
 883 03dd 4A040000 		.4byte	.LASF66
 884 03e1 70       		.byte	0x70
 885 03e2 06       		.byte	0x6
 886 03e3 9C01     		.2byte	0x19c
 887 03e5 1E040000 		.4byte	0x41e
 888 03e9 09       		.uleb128 0x9
 889 03ea 66040000 		.4byte	.LASF67
 890 03ee 06       		.byte	0x6
 891 03ef A001     		.2byte	0x1a0
 892 03f1 7F020000 		.4byte	0x27f
 893 03f5 00       		.byte	0
 894 03f6 09       		.uleb128 0x9
 895 03f7 B7000000 		.4byte	.LASF68
 896 03fb 06       		.byte	0x6
 897 03fc A401     		.2byte	0x1a4
 898 03fe 5E030000 		.4byte	0x35e
 899 0402 1C       		.byte	0x1c
 900 0403 08       		.uleb128 0x8
 901 0404 64626700 		.ascii	"dbg\000"
 902 0408 06       		.byte	0x6
 903 0409 A801     		.2byte	0x1a8
 904 040b AB030000 		.4byte	0x3ab
 905 040f 28       		.byte	0x28
 906 0410 09       		.uleb128 0x9
 907 0411 7D030000 		.4byte	.LASF69
 908 0415 06       		.byte	0x6
 909 0416 AC01     		.2byte	0x1ac
 910 0418 31010000 		.4byte	0x131
 911 041c 2C       		.byte	0x2c
 912 041d 00       		.byte	0
 913 041e 0F       		.uleb128 0xf
 914 041f 040E     		.2byte	0xe04
ARM GAS  /tmp/cctHgLr0.s 			page 31


 915 0421 07       		.byte	0x7
 916 0422 7F01     		.2byte	0x17f
 917 0424 DA040000 		.4byte	0x4da
 918 0428 09       		.uleb128 0x9
 919 0429 56010000 		.4byte	.LASF70
 920 042d 07       		.byte	0x7
 921 042e 8101     		.2byte	0x181
 922 0430 F1040000 		.4byte	0x4f1
 923 0434 00       		.byte	0
 924 0435 09       		.uleb128 0x9
 925 0436 EC030000 		.4byte	.LASF71
 926 043a 07       		.byte	0x7
 927 043b 8201     		.2byte	0x182
 928 043d F6040000 		.4byte	0x4f6
 929 0441 20       		.byte	0x20
 930 0442 09       		.uleb128 0x9
 931 0443 1B050000 		.4byte	.LASF72
 932 0447 07       		.byte	0x7
 933 0448 8301     		.2byte	0x183
 934 044a 06050000 		.4byte	0x506
 935 044e 80       		.byte	0x80
 936 044f 09       		.uleb128 0x9
 937 0450 70010000 		.4byte	.LASF73
 938 0454 07       		.byte	0x7
 939 0455 8401     		.2byte	0x184
 940 0457 F6040000 		.4byte	0x4f6
 941 045b A0       		.byte	0xa0
 942 045c 10       		.uleb128 0x10
 943 045d 7C050000 		.4byte	.LASF74
 944 0461 07       		.byte	0x7
 945 0462 8501     		.2byte	0x185
 946 0464 0B050000 		.4byte	0x50b
 947 0468 0001     		.2byte	0x100
 948 046a 10       		.uleb128 0x10
 949 046b F6030000 		.4byte	.LASF75
 950 046f 07       		.byte	0x7
 951 0470 8601     		.2byte	0x186
 952 0472 F6040000 		.4byte	0x4f6
 953 0476 2001     		.2byte	0x120
 954 0478 10       		.uleb128 0x10
 955 0479 66030000 		.4byte	.LASF76
 956 047d 07       		.byte	0x7
 957 047e 8701     		.2byte	0x187
 958 0480 10050000 		.4byte	0x510
 959 0484 8001     		.2byte	0x180
 960 0486 10       		.uleb128 0x10
 961 0487 00040000 		.4byte	.LASF77
 962 048b 07       		.byte	0x7
 963 048c 8801     		.2byte	0x188
 964 048e F6040000 		.4byte	0x4f6
 965 0492 A001     		.2byte	0x1a0
 966 0494 10       		.uleb128 0x10
 967 0495 26050000 		.4byte	.LASF78
 968 0499 07       		.byte	0x7
 969 049a 8901     		.2byte	0x189
 970 049c 15050000 		.4byte	0x515
 971 04a0 0002     		.2byte	0x200
ARM GAS  /tmp/cctHgLr0.s 			page 32


 972 04a2 10       		.uleb128 0x10
 973 04a3 0A040000 		.4byte	.LASF79
 974 04a7 07       		.byte	0x7
 975 04a8 8A01     		.2byte	0x18a
 976 04aa 1A050000 		.4byte	0x51a
 977 04ae 2002     		.2byte	0x220
 978 04b0 11       		.uleb128 0x11
 979 04b1 495000   		.ascii	"IP\000"
 980 04b4 07       		.byte	0x7
 981 04b5 8B01     		.2byte	0x18b
 982 04b7 3A050000 		.4byte	0x53a
 983 04bb 0003     		.2byte	0x300
 984 04bd 10       		.uleb128 0x10
 985 04be 14040000 		.4byte	.LASF80
 986 04c2 07       		.byte	0x7
 987 04c3 8C01     		.2byte	0x18c
 988 04c5 3F050000 		.4byte	0x53f
 989 04c9 F003     		.2byte	0x3f0
 990 04cb 10       		.uleb128 0x10
 991 04cc D0030000 		.4byte	.LASF81
 992 04d0 07       		.byte	0x7
 993 04d1 8D01     		.2byte	0x18d
 994 04d3 50050000 		.4byte	0x550
 995 04d7 000E     		.2byte	0xe00
 996 04d9 00       		.byte	0
 997 04da 12       		.uleb128 0x12
 998 04db C3000000 		.4byte	0xc3
 999 04df EA040000 		.4byte	0x4ea
 1000 04e3 13       		.uleb128 0x13
 1001 04e4 EA040000 		.4byte	0x4ea
 1002 04e8 07       		.byte	0x7
 1003 04e9 00       		.byte	0
 1004 04ea 03       		.uleb128 0x3
 1005 04eb 04       		.byte	0x4
 1006 04ec 07       		.byte	0x7
 1007 04ed 98040000 		.4byte	.LASF82
 1008 04f1 14       		.uleb128 0x14
 1009 04f2 DA040000 		.4byte	0x4da
 1010 04f6 12       		.uleb128 0x12
 1011 04f7 C3000000 		.4byte	0xc3
 1012 04fb 06050000 		.4byte	0x506
 1013 04ff 13       		.uleb128 0x13
 1014 0500 EA040000 		.4byte	0x4ea
 1015 0504 17       		.byte	0x17
 1016 0505 00       		.byte	0
 1017 0506 14       		.uleb128 0x14
 1018 0507 DA040000 		.4byte	0x4da
 1019 050b 14       		.uleb128 0x14
 1020 050c DA040000 		.4byte	0x4da
 1021 0510 14       		.uleb128 0x14
 1022 0511 DA040000 		.4byte	0x4da
 1023 0515 14       		.uleb128 0x14
 1024 0516 DA040000 		.4byte	0x4da
 1025 051a 12       		.uleb128 0x12
 1026 051b C3000000 		.4byte	0xc3
 1027 051f 2A050000 		.4byte	0x52a
 1028 0523 13       		.uleb128 0x13
ARM GAS  /tmp/cctHgLr0.s 			page 33


 1029 0524 EA040000 		.4byte	0x4ea
 1030 0528 37       		.byte	0x37
 1031 0529 00       		.byte	0
 1032 052a 12       		.uleb128 0x12
 1033 052b A2000000 		.4byte	0xa2
 1034 052f 3A050000 		.4byte	0x53a
 1035 0533 13       		.uleb128 0x13
 1036 0534 EA040000 		.4byte	0x4ea
 1037 0538 EF       		.byte	0xef
 1038 0539 00       		.byte	0
 1039 053a 14       		.uleb128 0x14
 1040 053b 2A050000 		.4byte	0x52a
 1041 053f 12       		.uleb128 0x12
 1042 0540 C3000000 		.4byte	0xc3
 1043 0544 50050000 		.4byte	0x550
 1044 0548 15       		.uleb128 0x15
 1045 0549 EA040000 		.4byte	0x4ea
 1046 054d 8302     		.2byte	0x283
 1047 054f 00       		.byte	0
 1048 0550 14       		.uleb128 0x14
 1049 0551 C3000000 		.4byte	0xc3
 1050 0555 16       		.uleb128 0x16
 1051 0556 76040000 		.4byte	.LASF83
 1052 055a 07       		.byte	0x7
 1053 055b 8E01     		.2byte	0x18e
 1054 055d 1E040000 		.4byte	0x41e
 1055 0561 17       		.uleb128 0x17
 1056 0562 8C       		.byte	0x8c
 1057 0563 07       		.byte	0x7
 1058 0564 A101     		.2byte	0x1a1
 1059 0566 7C060000 		.4byte	0x67c
 1060 056a 09       		.uleb128 0x9
 1061 056b F7010000 		.4byte	.LASF84
 1062 056f 07       		.byte	0x7
 1063 0570 A301     		.2byte	0x1a3
 1064 0572 7C060000 		.4byte	0x67c
 1065 0576 00       		.byte	0
 1066 0577 09       		.uleb128 0x9
 1067 0578 56020000 		.4byte	.LASF85
 1068 057c 07       		.byte	0x7
 1069 057d A401     		.2byte	0x1a4
 1070 057f 50050000 		.4byte	0x550
 1071 0583 04       		.byte	0x4
 1072 0584 09       		.uleb128 0x9
 1073 0585 93040000 		.4byte	.LASF86
 1074 0589 07       		.byte	0x7
 1075 058a A501     		.2byte	0x1a5
 1076 058c 50050000 		.4byte	0x550
 1077 0590 08       		.byte	0x8
 1078 0591 09       		.uleb128 0x9
 1079 0592 64020000 		.4byte	.LASF87
 1080 0596 07       		.byte	0x7
 1081 0597 A601     		.2byte	0x1a6
 1082 0599 50050000 		.4byte	0x550
 1083 059d 0C       		.byte	0xc
 1084 059e 08       		.uleb128 0x8
 1085 059f 53435200 		.ascii	"SCR\000"
ARM GAS  /tmp/cctHgLr0.s 			page 34


 1086 05a3 07       		.byte	0x7
 1087 05a4 A701     		.2byte	0x1a7
 1088 05a6 50050000 		.4byte	0x550
 1089 05aa 10       		.byte	0x10
 1090 05ab 08       		.uleb128 0x8
 1091 05ac 43435200 		.ascii	"CCR\000"
 1092 05b0 07       		.byte	0x7
 1093 05b1 A801     		.2byte	0x1a8
 1094 05b3 50050000 		.4byte	0x550
 1095 05b7 14       		.byte	0x14
 1096 05b8 08       		.uleb128 0x8
 1097 05b9 53485000 		.ascii	"SHP\000"
 1098 05bd 07       		.byte	0x7
 1099 05be A901     		.2byte	0x1a9
 1100 05c0 91060000 		.4byte	0x691
 1101 05c4 18       		.byte	0x18
 1102 05c5 09       		.uleb128 0x9
 1103 05c6 A2020000 		.4byte	.LASF88
 1104 05ca 07       		.byte	0x7
 1105 05cb AA01     		.2byte	0x1aa
 1106 05cd 50050000 		.4byte	0x550
 1107 05d1 24       		.byte	0x24
 1108 05d2 09       		.uleb128 0x9
 1109 05d3 AE020000 		.4byte	.LASF89
 1110 05d7 07       		.byte	0x7
 1111 05d8 AB01     		.2byte	0x1ab
 1112 05da 50050000 		.4byte	0x550
 1113 05de 28       		.byte	0x28
 1114 05df 09       		.uleb128 0x9
 1115 05e0 2D020000 		.4byte	.LASF90
 1116 05e4 07       		.byte	0x7
 1117 05e5 AC01     		.2byte	0x1ac
 1118 05e7 50050000 		.4byte	0x550
 1119 05eb 2C       		.byte	0x2c
 1120 05ec 09       		.uleb128 0x9
 1121 05ed 94000000 		.4byte	.LASF91
 1122 05f1 07       		.byte	0x7
 1123 05f2 AD01     		.2byte	0x1ad
 1124 05f4 50050000 		.4byte	0x550
 1125 05f8 30       		.byte	0x30
 1126 05f9 09       		.uleb128 0x9
 1127 05fa E6030000 		.4byte	.LASF92
 1128 05fe 07       		.byte	0x7
 1129 05ff AE01     		.2byte	0x1ae
 1130 0601 50050000 		.4byte	0x550
 1131 0605 34       		.byte	0x34
 1132 0606 09       		.uleb128 0x9
 1133 0607 8E040000 		.4byte	.LASF93
 1134 060b 07       		.byte	0x7
 1135 060c AF01     		.2byte	0x1af
 1136 060e 50050000 		.4byte	0x550
 1137 0612 38       		.byte	0x38
 1138 0613 09       		.uleb128 0x9
 1139 0614 17020000 		.4byte	.LASF94
 1140 0618 07       		.byte	0x7
 1141 0619 B001     		.2byte	0x1b0
 1142 061b 50050000 		.4byte	0x550
ARM GAS  /tmp/cctHgLr0.s 			page 35


 1143 061f 3C       		.byte	0x3c
 1144 0620 08       		.uleb128 0x8
 1145 0621 50465200 		.ascii	"PFR\000"
 1146 0625 07       		.byte	0x7
 1147 0626 B101     		.2byte	0x1b1
 1148 0628 A6060000 		.4byte	0x6a6
 1149 062c 40       		.byte	0x40
 1150 062d 08       		.uleb128 0x8
 1151 062e 44465200 		.ascii	"DFR\000"
 1152 0632 07       		.byte	0x7
 1153 0633 B201     		.2byte	0x1b2
 1154 0635 7C060000 		.4byte	0x67c
 1155 0639 48       		.byte	0x48
 1156 063a 08       		.uleb128 0x8
 1157 063b 41445200 		.ascii	"ADR\000"
 1158 063f 07       		.byte	0x7
 1159 0640 B301     		.2byte	0x1b3
 1160 0642 7C060000 		.4byte	0x67c
 1161 0646 4C       		.byte	0x4c
 1162 0647 09       		.uleb128 0x9
 1163 0648 45010000 		.4byte	.LASF95
 1164 064c 07       		.byte	0x7
 1165 064d B401     		.2byte	0x1b4
 1166 064f C0060000 		.4byte	0x6c0
 1167 0653 50       		.byte	0x50
 1168 0654 09       		.uleb128 0x9
 1169 0655 81050000 		.4byte	.LASF96
 1170 0659 07       		.byte	0x7
 1171 065a B501     		.2byte	0x1b5
 1172 065c DA060000 		.4byte	0x6da
 1173 0660 60       		.byte	0x60
 1174 0661 09       		.uleb128 0x9
 1175 0662 EC030000 		.4byte	.LASF71
 1176 0666 07       		.byte	0x7
 1177 0667 B601     		.2byte	0x1b6
 1178 0669 CA060000 		.4byte	0x6ca
 1179 066d 74       		.byte	0x74
 1180 066e 09       		.uleb128 0x9
 1181 066f 10000000 		.4byte	.LASF97
 1182 0673 07       		.byte	0x7
 1183 0674 B701     		.2byte	0x1b7
 1184 0676 50050000 		.4byte	0x550
 1185 067a 88       		.byte	0x88
 1186 067b 00       		.byte	0
 1187 067c 18       		.uleb128 0x18
 1188 067d 50050000 		.4byte	0x550
 1189 0681 12       		.uleb128 0x12
 1190 0682 A2000000 		.4byte	0xa2
 1191 0686 91060000 		.4byte	0x691
 1192 068a 13       		.uleb128 0x13
 1193 068b EA040000 		.4byte	0x4ea
 1194 068f 0B       		.byte	0xb
 1195 0690 00       		.byte	0
 1196 0691 14       		.uleb128 0x14
 1197 0692 81060000 		.4byte	0x681
 1198 0696 12       		.uleb128 0x12
 1199 0697 C3000000 		.4byte	0xc3
ARM GAS  /tmp/cctHgLr0.s 			page 36


 1200 069b A6060000 		.4byte	0x6a6
 1201 069f 13       		.uleb128 0x13
 1202 06a0 EA040000 		.4byte	0x4ea
 1203 06a4 01       		.byte	0x1
 1204 06a5 00       		.byte	0
 1205 06a6 18       		.uleb128 0x18
 1206 06a7 AB060000 		.4byte	0x6ab
 1207 06ab 14       		.uleb128 0x14
 1208 06ac 96060000 		.4byte	0x696
 1209 06b0 12       		.uleb128 0x12
 1210 06b1 C3000000 		.4byte	0xc3
 1211 06b5 C0060000 		.4byte	0x6c0
 1212 06b9 13       		.uleb128 0x13
 1213 06ba EA040000 		.4byte	0x4ea
 1214 06be 03       		.byte	0x3
 1215 06bf 00       		.byte	0
 1216 06c0 18       		.uleb128 0x18
 1217 06c1 C5060000 		.4byte	0x6c5
 1218 06c5 14       		.uleb128 0x14
 1219 06c6 B0060000 		.4byte	0x6b0
 1220 06ca 12       		.uleb128 0x12
 1221 06cb C3000000 		.4byte	0xc3
 1222 06cf DA060000 		.4byte	0x6da
 1223 06d3 13       		.uleb128 0x13
 1224 06d4 EA040000 		.4byte	0x4ea
 1225 06d8 04       		.byte	0x4
 1226 06d9 00       		.byte	0
 1227 06da 18       		.uleb128 0x18
 1228 06db DF060000 		.4byte	0x6df
 1229 06df 14       		.uleb128 0x14
 1230 06e0 CA060000 		.4byte	0x6ca
 1231 06e4 16       		.uleb128 0x16
 1232 06e5 80040000 		.4byte	.LASF98
 1233 06e9 07       		.byte	0x7
 1234 06ea B801     		.2byte	0x1b8
 1235 06ec 61050000 		.4byte	0x561
 1236 06f0 04       		.uleb128 0x4
 1237 06f1 1D000000 		.4byte	.LASF99
 1238 06f5 08       		.byte	0x8
 1239 06f6 65       		.byte	0x65
 1240 06f7 02030000 		.4byte	0x302
 1241 06fb 04       		.uleb128 0x4
 1242 06fc 69050000 		.4byte	.LASF100
 1243 0700 08       		.byte	0x8
 1244 0701 6D       		.byte	0x6d
 1245 0702 CE000000 		.4byte	0xce
 1246 0706 05       		.uleb128 0x5
 1247 0707 BE000000 		.4byte	.LASF101
 1248 070b 04       		.byte	0x4
 1249 070c 08       		.byte	0x8
 1250 070d 89       		.byte	0x89
 1251 070e 1E070000 		.4byte	0x71e
 1252 0712 07       		.uleb128 0x7
 1253 0713 737000   		.ascii	"sp\000"
 1254 0716 08       		.byte	0x8
 1255 0717 8A       		.byte	0x8a
 1256 0718 9A070000 		.4byte	0x79a
ARM GAS  /tmp/cctHgLr0.s 			page 37


 1257 071c 00       		.byte	0
 1258 071d 00       		.byte	0
 1259 071e 0B       		.uleb128 0xb
 1260 071f 31040000 		.4byte	.LASF102
 1261 0723 24       		.byte	0x24
 1262 0724 09       		.byte	0x9
 1263 0725 5901     		.2byte	0x159
 1264 0727 9A070000 		.4byte	0x79a
 1265 072b 08       		.uleb128 0x8
 1266 072c 723400   		.ascii	"r4\000"
 1267 072f 09       		.byte	0x9
 1268 0730 6C01     		.2byte	0x16c
 1269 0732 F0060000 		.4byte	0x6f0
 1270 0736 00       		.byte	0
 1271 0737 08       		.uleb128 0x8
 1272 0738 723500   		.ascii	"r5\000"
 1273 073b 09       		.byte	0x9
 1274 073c 6D01     		.2byte	0x16d
 1275 073e F0060000 		.4byte	0x6f0
 1276 0742 04       		.byte	0x4
 1277 0743 08       		.uleb128 0x8
 1278 0744 723600   		.ascii	"r6\000"
 1279 0747 09       		.byte	0x9
 1280 0748 6E01     		.2byte	0x16e
 1281 074a F0060000 		.4byte	0x6f0
 1282 074e 08       		.byte	0x8
 1283 074f 08       		.uleb128 0x8
 1284 0750 723700   		.ascii	"r7\000"
 1285 0753 09       		.byte	0x9
 1286 0754 6F01     		.2byte	0x16f
 1287 0756 F0060000 		.4byte	0x6f0
 1288 075a 0C       		.byte	0xc
 1289 075b 08       		.uleb128 0x8
 1290 075c 723800   		.ascii	"r8\000"
 1291 075f 09       		.byte	0x9
 1292 0760 7001     		.2byte	0x170
 1293 0762 F0060000 		.4byte	0x6f0
 1294 0766 10       		.byte	0x10
 1295 0767 08       		.uleb128 0x8
 1296 0768 723900   		.ascii	"r9\000"
 1297 076b 09       		.byte	0x9
 1298 076c 7101     		.2byte	0x171
 1299 076e F0060000 		.4byte	0x6f0
 1300 0772 14       		.byte	0x14
 1301 0773 08       		.uleb128 0x8
 1302 0774 72313000 		.ascii	"r10\000"
 1303 0778 09       		.byte	0x9
 1304 0779 7201     		.2byte	0x172
 1305 077b F0060000 		.4byte	0x6f0
 1306 077f 18       		.byte	0x18
 1307 0780 08       		.uleb128 0x8
 1308 0781 72313100 		.ascii	"r11\000"
 1309 0785 09       		.byte	0x9
 1310 0786 7301     		.2byte	0x173
 1311 0788 F0060000 		.4byte	0x6f0
 1312 078c 1C       		.byte	0x1c
 1313 078d 08       		.uleb128 0x8
ARM GAS  /tmp/cctHgLr0.s 			page 38


 1314 078e 6C7200   		.ascii	"lr\000"
 1315 0791 09       		.byte	0x9
 1316 0792 7401     		.2byte	0x174
 1317 0794 F0060000 		.4byte	0x6f0
 1318 0798 20       		.byte	0x20
 1319 0799 00       		.byte	0
 1320 079a 0A       		.uleb128 0xa
 1321 079b 04       		.byte	0x4
 1322 079c 1E070000 		.4byte	0x71e
 1323 07a0 19       		.uleb128 0x19
 1324 07a1 04       		.byte	0x4
 1325 07a2 06       		.byte	0x6
 1326 07a3 D2       		.byte	0xd2
 1327 07a4 03080000 		.4byte	0x803
 1328 07a8 1A       		.uleb128 0x1a
 1329 07a9 F0010000 		.4byte	.LASF103
 1330 07ad 06       		.byte	0x6
 1331 07ae D9       		.byte	0xd9
 1332 07af 05010000 		.4byte	0x105
 1333 07b3 1A       		.uleb128 0x1a
 1334 07b4 8C050000 		.4byte	.LASF104
 1335 07b8 06       		.byte	0x6
 1336 07b9 E0       		.byte	0xe0
 1337 07ba 05010000 		.4byte	0x105
 1338 07be 1A       		.uleb128 0x1a
 1339 07bf A8000000 		.4byte	.LASF105
 1340 07c3 06       		.byte	0x6
 1341 07c4 E7       		.byte	0xe7
 1342 07c5 02030000 		.4byte	0x302
 1343 07c9 1A       		.uleb128 0x1a
 1344 07ca 3E050000 		.4byte	.LASF106
 1345 07ce 06       		.byte	0x6
 1346 07cf EE       		.byte	0xee
 1347 07d0 03080000 		.4byte	0x803
 1348 07d4 1A       		.uleb128 0x1a
 1349 07d5 3D010000 		.4byte	.LASF107
 1350 07d9 06       		.byte	0x6
 1351 07da F3       		.byte	0xf3
 1352 07db 05010000 		.4byte	0x105
 1353 07df 1A       		.uleb128 0x1a
 1354 07e0 37050000 		.4byte	.LASF108
 1355 07e4 06       		.byte	0x6
 1356 07e5 FC       		.byte	0xfc
 1357 07e6 2E080000 		.4byte	0x82e
 1358 07ea 1B       		.uleb128 0x1b
 1359 07eb 16000000 		.4byte	.LASF109
 1360 07ef 06       		.byte	0x6
 1361 07f0 0501     		.2byte	0x105
 1362 07f2 65080000 		.4byte	0x865
 1363 07f6 1B       		.uleb128 0x1b
 1364 07f7 EC000000 		.4byte	.LASF110
 1365 07fb 06       		.byte	0x6
 1366 07fc 0D01     		.2byte	0x10d
 1367 07fe 10010000 		.4byte	0x110
 1368 0802 00       		.byte	0
 1369 0803 0A       		.uleb128 0xa
 1370 0804 04       		.byte	0x4
ARM GAS  /tmp/cctHgLr0.s 			page 39


 1371 0805 1A020000 		.4byte	0x21a
 1372 0809 05       		.uleb128 0x5
 1373 080a 5B010000 		.4byte	.LASF111
 1374 080e 0C       		.byte	0xc
 1375 080f 0A       		.byte	0xa
 1376 0810 34       		.byte	0x34
 1377 0811 2E080000 		.4byte	0x82e
 1378 0815 06       		.uleb128 0x6
 1379 0816 C8040000 		.4byte	.LASF28
 1380 081a 0A       		.byte	0xa
 1381 081b 35       		.byte	0x35
 1382 081c 4F020000 		.4byte	0x24f
 1383 0820 00       		.byte	0
 1384 0821 07       		.uleb128 0x7
 1385 0822 636E7400 		.ascii	"cnt\000"
 1386 0826 0A       		.byte	0xa
 1387 0827 37       		.byte	0x37
 1388 0828 1B010000 		.4byte	0x11b
 1389 082c 08       		.byte	0x8
 1390 082d 00       		.byte	0
 1391 082e 0A       		.uleb128 0xa
 1392 082f 04       		.byte	0x4
 1393 0830 09080000 		.4byte	0x809
 1394 0834 05       		.uleb128 0x5
 1395 0835 03020000 		.4byte	.LASF112
 1396 0839 10       		.byte	0x10
 1397 083a 0B       		.byte	0xb
 1398 083b 39       		.byte	0x39
 1399 083c 65080000 		.4byte	0x865
 1400 0840 06       		.uleb128 0x6
 1401 0841 C8040000 		.4byte	.LASF28
 1402 0845 0B       		.byte	0xb
 1403 0846 3A       		.byte	0x3a
 1404 0847 4F020000 		.4byte	0x24f
 1405 084b 00       		.byte	0
 1406 084c 06       		.uleb128 0x6
 1407 084d B2010000 		.4byte	.LASF113
 1408 0851 0B       		.byte	0xb
 1409 0852 3C       		.byte	0x3c
 1410 0853 25020000 		.4byte	0x225
 1411 0857 08       		.byte	0x8
 1412 0858 06       		.uleb128 0x6
 1413 0859 80000000 		.4byte	.LASF47
 1414 085d 0B       		.byte	0xb
 1415 085e 3E       		.byte	0x3e
 1416 085f 99080000 		.4byte	0x899
 1417 0863 0C       		.byte	0xc
 1418 0864 00       		.byte	0
 1419 0865 0A       		.uleb128 0xa
 1420 0866 04       		.byte	0x4
 1421 0867 34080000 		.4byte	0x834
 1422 086b 0A       		.uleb128 0xa
 1423 086c 04       		.byte	0x4
 1424 086d 71080000 		.4byte	0x871
 1425 0871 18       		.uleb128 0x18
 1426 0872 76080000 		.4byte	0x876
 1427 0876 03       		.uleb128 0x3
ARM GAS  /tmp/cctHgLr0.s 			page 40


 1428 0877 01       		.byte	0x1
 1429 0878 08       		.byte	0x8
 1430 0879 37020000 		.4byte	.LASF114
 1431 087d 0A       		.uleb128 0xa
 1432 087e 04       		.byte	0x4
 1433 087f FB060000 		.4byte	0x6fb
 1434 0883 0A       		.uleb128 0xa
 1435 0884 04       		.byte	0x4
 1436 0885 04030000 		.4byte	0x304
 1437 0889 14       		.uleb128 0x14
 1438 088a 6B080000 		.4byte	0x86b
 1439 088e 04       		.uleb128 0x4
 1440 088f D6040000 		.4byte	.LASF115
 1441 0893 0B       		.byte	0xb
 1442 0894 34       		.byte	0x34
 1443 0895 34080000 		.4byte	0x834
 1444 0899 0A       		.uleb128 0xa
 1445 089a 04       		.byte	0x4
 1446 089b 8E080000 		.4byte	0x88e
 1447 089f 03       		.uleb128 0x3
 1448 08a0 01       		.byte	0x1
 1449 08a1 02       		.byte	0x2
 1450 08a2 FD010000 		.4byte	.LASF116
 1451 08a6 1C       		.uleb128 0x1c
 1452 08a7 D5030000 		.4byte	.LASF117
 1453 08ab 01       		.byte	0x1
 1454 08ac 39       		.byte	0x39
 1455 08ad 00000000 		.4byte	.LFB219
 1456 08b1 2E000000 		.4byte	.LFE219-.LFB219
 1457 08b5 01       		.uleb128 0x1
 1458 08b6 9C       		.byte	0x9c
 1459 08b7 D8080000 		.4byte	0x8d8
 1460 08bb 1D       		.uleb128 0x1d
 1461 08bc 6E00     		.ascii	"n\000"
 1462 08be 01       		.byte	0x1
 1463 08bf 39       		.byte	0x39
 1464 08c0 C3000000 		.4byte	0xc3
 1465 08c4 00000000 		.4byte	.LLST0
 1466 08c8 1E       		.uleb128 0x1e
 1467 08c9 32020000 		.4byte	.LASF29
 1468 08cd 01       		.byte	0x1
 1469 08ce 39       		.byte	0x39
 1470 08cf C3000000 		.4byte	0xc3
 1471 08d3 35000000 		.4byte	.LLST1
 1472 08d7 00       		.byte	0
 1473 08d8 1C       		.uleb128 0x1c
 1474 08d9 F3000000 		.4byte	.LASF118
 1475 08dd 01       		.byte	0x1
 1476 08de 4A       		.byte	0x4a
 1477 08df 00000000 		.4byte	.LFB220
 1478 08e3 28000000 		.4byte	.LFE220-.LFB220
 1479 08e7 01       		.uleb128 0x1
 1480 08e8 9C       		.byte	0x9c
 1481 08e9 FB080000 		.4byte	0x8fb
 1482 08ed 1D       		.uleb128 0x1d
 1483 08ee 6E00     		.ascii	"n\000"
 1484 08f0 01       		.byte	0x1
ARM GAS  /tmp/cctHgLr0.s 			page 41


 1485 08f1 4A       		.byte	0x4a
 1486 08f2 C3000000 		.4byte	0xc3
 1487 08f6 56000000 		.4byte	.LLST2
 1488 08fa 00       		.byte	0
 1489 08fb 1C       		.uleb128 0x1c
 1490 08fc 9B050000 		.4byte	.LASF119
 1491 0900 01       		.byte	0x1
 1492 0901 5A       		.byte	0x5a
 1493 0902 00000000 		.4byte	.LFB221
 1494 0906 10000000 		.4byte	.LFE221-.LFB221
 1495 090a 01       		.uleb128 0x1
 1496 090b 9C       		.byte	0x9c
 1497 090c 38090000 		.4byte	0x938
 1498 0910 1E       		.uleb128 0x1e
 1499 0911 AF000000 		.4byte	.LASF120
 1500 0915 01       		.byte	0x1
 1501 0916 5A       		.byte	0x5a
 1502 0917 C3000000 		.4byte	0xc3
 1503 091b 77000000 		.4byte	.LLST3
 1504 091f 1E       		.uleb128 0x1e
 1505 0920 32020000 		.4byte	.LASF29
 1506 0924 01       		.byte	0x1
 1507 0925 5A       		.byte	0x5a
 1508 0926 C3000000 		.4byte	0xc3
 1509 092a AC000000 		.4byte	.LLST4
 1510 092e 1F       		.uleb128 0x1f
 1511 092f D9000000 		.4byte	.LASF126
 1512 0933 48090000 		.4byte	0x948
 1513 0937 00       		.byte	0
 1514 0938 12       		.uleb128 0x12
 1515 0939 76080000 		.4byte	0x876
 1516 093d 48090000 		.4byte	0x948
 1517 0941 13       		.uleb128 0x13
 1518 0942 EA040000 		.4byte	0x4ea
 1519 0946 1C       		.byte	0x1c
 1520 0947 00       		.byte	0
 1521 0948 18       		.uleb128 0x18
 1522 0949 38090000 		.4byte	0x938
 1523 094d 1C       		.uleb128 0x1c
 1524 094e 1C020000 		.4byte	.LASF121
 1525 0952 01       		.byte	0x1
 1526 0953 6D       		.byte	0x6d
 1527 0954 00000000 		.4byte	.LFB222
 1528 0958 1A000000 		.4byte	.LFE222-.LFB222
 1529 095c 01       		.uleb128 0x1
 1530 095d 9C       		.byte	0x9c
 1531 095e 70090000 		.4byte	0x970
 1532 0962 1D       		.uleb128 0x1d
 1533 0963 6E00     		.ascii	"n\000"
 1534 0965 01       		.byte	0x1
 1535 0966 6D       		.byte	0x6d
 1536 0967 C3000000 		.4byte	0xc3
 1537 096b CD000000 		.4byte	.LLST5
 1538 096f 00       		.byte	0
 1539 0970 20       		.uleb128 0x20
 1540 0971 3D040000 		.4byte	.LASF122
 1541 0975 07       		.byte	0x7
ARM GAS  /tmp/cctHgLr0.s 			page 42


 1542 0976 9606     		.2byte	0x696
 1543 0978 7C090000 		.4byte	0x97c
 1544 097c 14       		.uleb128 0x14
 1545 097d B8000000 		.4byte	0xb8
 1546 0981 21       		.uleb128 0x21
 1547 0982 636800   		.ascii	"ch\000"
 1548 0985 06       		.byte	0x6
 1549 0986 D201     		.2byte	0x1d2
 1550 0988 D1030000 		.4byte	0x3d1
 1551 098c 00       		.byte	0
 1552              		.section	.debug_abbrev,"",%progbits
 1553              	.Ldebug_abbrev0:
 1554 0000 01       		.uleb128 0x1
 1555 0001 11       		.uleb128 0x11
 1556 0002 01       		.byte	0x1
 1557 0003 25       		.uleb128 0x25
 1558 0004 0E       		.uleb128 0xe
 1559 0005 13       		.uleb128 0x13
 1560 0006 0B       		.uleb128 0xb
 1561 0007 03       		.uleb128 0x3
 1562 0008 0E       		.uleb128 0xe
 1563 0009 1B       		.uleb128 0x1b
 1564 000a 0E       		.uleb128 0xe
 1565 000b 55       		.uleb128 0x55
 1566 000c 17       		.uleb128 0x17
 1567 000d 11       		.uleb128 0x11
 1568 000e 01       		.uleb128 0x1
 1569 000f 10       		.uleb128 0x10
 1570 0010 17       		.uleb128 0x17
 1571 0011 00       		.byte	0
 1572 0012 00       		.byte	0
 1573 0013 02       		.uleb128 0x2
 1574 0014 24       		.uleb128 0x24
 1575 0015 00       		.byte	0
 1576 0016 0B       		.uleb128 0xb
 1577 0017 0B       		.uleb128 0xb
 1578 0018 3E       		.uleb128 0x3e
 1579 0019 0B       		.uleb128 0xb
 1580 001a 03       		.uleb128 0x3
 1581 001b 08       		.uleb128 0x8
 1582 001c 00       		.byte	0
 1583 001d 00       		.byte	0
 1584 001e 03       		.uleb128 0x3
 1585 001f 24       		.uleb128 0x24
 1586 0020 00       		.byte	0
 1587 0021 0B       		.uleb128 0xb
 1588 0022 0B       		.uleb128 0xb
 1589 0023 3E       		.uleb128 0x3e
 1590 0024 0B       		.uleb128 0xb
 1591 0025 03       		.uleb128 0x3
 1592 0026 0E       		.uleb128 0xe
 1593 0027 00       		.byte	0
 1594 0028 00       		.byte	0
 1595 0029 04       		.uleb128 0x4
 1596 002a 16       		.uleb128 0x16
 1597 002b 00       		.byte	0
 1598 002c 03       		.uleb128 0x3
ARM GAS  /tmp/cctHgLr0.s 			page 43


 1599 002d 0E       		.uleb128 0xe
 1600 002e 3A       		.uleb128 0x3a
 1601 002f 0B       		.uleb128 0xb
 1602 0030 3B       		.uleb128 0x3b
 1603 0031 0B       		.uleb128 0xb
 1604 0032 49       		.uleb128 0x49
 1605 0033 13       		.uleb128 0x13
 1606 0034 00       		.byte	0
 1607 0035 00       		.byte	0
 1608 0036 05       		.uleb128 0x5
 1609 0037 13       		.uleb128 0x13
 1610 0038 01       		.byte	0x1
 1611 0039 03       		.uleb128 0x3
 1612 003a 0E       		.uleb128 0xe
 1613 003b 0B       		.uleb128 0xb
 1614 003c 0B       		.uleb128 0xb
 1615 003d 3A       		.uleb128 0x3a
 1616 003e 0B       		.uleb128 0xb
 1617 003f 3B       		.uleb128 0x3b
 1618 0040 0B       		.uleb128 0xb
 1619 0041 01       		.uleb128 0x1
 1620 0042 13       		.uleb128 0x13
 1621 0043 00       		.byte	0
 1622 0044 00       		.byte	0
 1623 0045 06       		.uleb128 0x6
 1624 0046 0D       		.uleb128 0xd
 1625 0047 00       		.byte	0
 1626 0048 03       		.uleb128 0x3
 1627 0049 0E       		.uleb128 0xe
 1628 004a 3A       		.uleb128 0x3a
 1629 004b 0B       		.uleb128 0xb
 1630 004c 3B       		.uleb128 0x3b
 1631 004d 0B       		.uleb128 0xb
 1632 004e 49       		.uleb128 0x49
 1633 004f 13       		.uleb128 0x13
 1634 0050 38       		.uleb128 0x38
 1635 0051 0B       		.uleb128 0xb
 1636 0052 00       		.byte	0
 1637 0053 00       		.byte	0
 1638 0054 07       		.uleb128 0x7
 1639 0055 0D       		.uleb128 0xd
 1640 0056 00       		.byte	0
 1641 0057 03       		.uleb128 0x3
 1642 0058 08       		.uleb128 0x8
 1643 0059 3A       		.uleb128 0x3a
 1644 005a 0B       		.uleb128 0xb
 1645 005b 3B       		.uleb128 0x3b
 1646 005c 0B       		.uleb128 0xb
 1647 005d 49       		.uleb128 0x49
 1648 005e 13       		.uleb128 0x13
 1649 005f 38       		.uleb128 0x38
 1650 0060 0B       		.uleb128 0xb
 1651 0061 00       		.byte	0
 1652 0062 00       		.byte	0
 1653 0063 08       		.uleb128 0x8
 1654 0064 0D       		.uleb128 0xd
 1655 0065 00       		.byte	0
ARM GAS  /tmp/cctHgLr0.s 			page 44


 1656 0066 03       		.uleb128 0x3
 1657 0067 08       		.uleb128 0x8
 1658 0068 3A       		.uleb128 0x3a
 1659 0069 0B       		.uleb128 0xb
 1660 006a 3B       		.uleb128 0x3b
 1661 006b 05       		.uleb128 0x5
 1662 006c 49       		.uleb128 0x49
 1663 006d 13       		.uleb128 0x13
 1664 006e 38       		.uleb128 0x38
 1665 006f 0B       		.uleb128 0xb
 1666 0070 00       		.byte	0
 1667 0071 00       		.byte	0
 1668 0072 09       		.uleb128 0x9
 1669 0073 0D       		.uleb128 0xd
 1670 0074 00       		.byte	0
 1671 0075 03       		.uleb128 0x3
 1672 0076 0E       		.uleb128 0xe
 1673 0077 3A       		.uleb128 0x3a
 1674 0078 0B       		.uleb128 0xb
 1675 0079 3B       		.uleb128 0x3b
 1676 007a 05       		.uleb128 0x5
 1677 007b 49       		.uleb128 0x49
 1678 007c 13       		.uleb128 0x13
 1679 007d 38       		.uleb128 0x38
 1680 007e 0B       		.uleb128 0xb
 1681 007f 00       		.byte	0
 1682 0080 00       		.byte	0
 1683 0081 0A       		.uleb128 0xa
 1684 0082 0F       		.uleb128 0xf
 1685 0083 00       		.byte	0
 1686 0084 0B       		.uleb128 0xb
 1687 0085 0B       		.uleb128 0xb
 1688 0086 49       		.uleb128 0x49
 1689 0087 13       		.uleb128 0x13
 1690 0088 00       		.byte	0
 1691 0089 00       		.byte	0
 1692 008a 0B       		.uleb128 0xb
 1693 008b 13       		.uleb128 0x13
 1694 008c 01       		.byte	0x1
 1695 008d 03       		.uleb128 0x3
 1696 008e 0E       		.uleb128 0xe
 1697 008f 0B       		.uleb128 0xb
 1698 0090 0B       		.uleb128 0xb
 1699 0091 3A       		.uleb128 0x3a
 1700 0092 0B       		.uleb128 0xb
 1701 0093 3B       		.uleb128 0x3b
 1702 0094 05       		.uleb128 0x5
 1703 0095 01       		.uleb128 0x1
 1704 0096 13       		.uleb128 0x13
 1705 0097 00       		.byte	0
 1706 0098 00       		.byte	0
 1707 0099 0C       		.uleb128 0xc
 1708 009a 15       		.uleb128 0x15
 1709 009b 01       		.byte	0x1
 1710 009c 27       		.uleb128 0x27
 1711 009d 19       		.uleb128 0x19
 1712 009e 01       		.uleb128 0x1
ARM GAS  /tmp/cctHgLr0.s 			page 45


 1713 009f 13       		.uleb128 0x13
 1714 00a0 00       		.byte	0
 1715 00a1 00       		.byte	0
 1716 00a2 0D       		.uleb128 0xd
 1717 00a3 05       		.uleb128 0x5
 1718 00a4 00       		.byte	0
 1719 00a5 49       		.uleb128 0x49
 1720 00a6 13       		.uleb128 0x13
 1721 00a7 00       		.byte	0
 1722 00a8 00       		.byte	0
 1723 00a9 0E       		.uleb128 0xe
 1724 00aa 0F       		.uleb128 0xf
 1725 00ab 00       		.byte	0
 1726 00ac 0B       		.uleb128 0xb
 1727 00ad 0B       		.uleb128 0xb
 1728 00ae 00       		.byte	0
 1729 00af 00       		.byte	0
 1730 00b0 0F       		.uleb128 0xf
 1731 00b1 13       		.uleb128 0x13
 1732 00b2 01       		.byte	0x1
 1733 00b3 0B       		.uleb128 0xb
 1734 00b4 05       		.uleb128 0x5
 1735 00b5 3A       		.uleb128 0x3a
 1736 00b6 0B       		.uleb128 0xb
 1737 00b7 3B       		.uleb128 0x3b
 1738 00b8 05       		.uleb128 0x5
 1739 00b9 01       		.uleb128 0x1
 1740 00ba 13       		.uleb128 0x13
 1741 00bb 00       		.byte	0
 1742 00bc 00       		.byte	0
 1743 00bd 10       		.uleb128 0x10
 1744 00be 0D       		.uleb128 0xd
 1745 00bf 00       		.byte	0
 1746 00c0 03       		.uleb128 0x3
 1747 00c1 0E       		.uleb128 0xe
 1748 00c2 3A       		.uleb128 0x3a
 1749 00c3 0B       		.uleb128 0xb
 1750 00c4 3B       		.uleb128 0x3b
 1751 00c5 05       		.uleb128 0x5
 1752 00c6 49       		.uleb128 0x49
 1753 00c7 13       		.uleb128 0x13
 1754 00c8 38       		.uleb128 0x38
 1755 00c9 05       		.uleb128 0x5
 1756 00ca 00       		.byte	0
 1757 00cb 00       		.byte	0
 1758 00cc 11       		.uleb128 0x11
 1759 00cd 0D       		.uleb128 0xd
 1760 00ce 00       		.byte	0
 1761 00cf 03       		.uleb128 0x3
 1762 00d0 08       		.uleb128 0x8
 1763 00d1 3A       		.uleb128 0x3a
 1764 00d2 0B       		.uleb128 0xb
 1765 00d3 3B       		.uleb128 0x3b
 1766 00d4 05       		.uleb128 0x5
 1767 00d5 49       		.uleb128 0x49
 1768 00d6 13       		.uleb128 0x13
 1769 00d7 38       		.uleb128 0x38
ARM GAS  /tmp/cctHgLr0.s 			page 46


 1770 00d8 05       		.uleb128 0x5
 1771 00d9 00       		.byte	0
 1772 00da 00       		.byte	0
 1773 00db 12       		.uleb128 0x12
 1774 00dc 01       		.uleb128 0x1
 1775 00dd 01       		.byte	0x1
 1776 00de 49       		.uleb128 0x49
 1777 00df 13       		.uleb128 0x13
 1778 00e0 01       		.uleb128 0x1
 1779 00e1 13       		.uleb128 0x13
 1780 00e2 00       		.byte	0
 1781 00e3 00       		.byte	0
 1782 00e4 13       		.uleb128 0x13
 1783 00e5 21       		.uleb128 0x21
 1784 00e6 00       		.byte	0
 1785 00e7 49       		.uleb128 0x49
 1786 00e8 13       		.uleb128 0x13
 1787 00e9 2F       		.uleb128 0x2f
 1788 00ea 0B       		.uleb128 0xb
 1789 00eb 00       		.byte	0
 1790 00ec 00       		.byte	0
 1791 00ed 14       		.uleb128 0x14
 1792 00ee 35       		.uleb128 0x35
 1793 00ef 00       		.byte	0
 1794 00f0 49       		.uleb128 0x49
 1795 00f1 13       		.uleb128 0x13
 1796 00f2 00       		.byte	0
 1797 00f3 00       		.byte	0
 1798 00f4 15       		.uleb128 0x15
 1799 00f5 21       		.uleb128 0x21
 1800 00f6 00       		.byte	0
 1801 00f7 49       		.uleb128 0x49
 1802 00f8 13       		.uleb128 0x13
 1803 00f9 2F       		.uleb128 0x2f
 1804 00fa 05       		.uleb128 0x5
 1805 00fb 00       		.byte	0
 1806 00fc 00       		.byte	0
 1807 00fd 16       		.uleb128 0x16
 1808 00fe 16       		.uleb128 0x16
 1809 00ff 00       		.byte	0
 1810 0100 03       		.uleb128 0x3
 1811 0101 0E       		.uleb128 0xe
 1812 0102 3A       		.uleb128 0x3a
 1813 0103 0B       		.uleb128 0xb
 1814 0104 3B       		.uleb128 0x3b
 1815 0105 05       		.uleb128 0x5
 1816 0106 49       		.uleb128 0x49
 1817 0107 13       		.uleb128 0x13
 1818 0108 00       		.byte	0
 1819 0109 00       		.byte	0
 1820 010a 17       		.uleb128 0x17
 1821 010b 13       		.uleb128 0x13
 1822 010c 01       		.byte	0x1
 1823 010d 0B       		.uleb128 0xb
 1824 010e 0B       		.uleb128 0xb
 1825 010f 3A       		.uleb128 0x3a
 1826 0110 0B       		.uleb128 0xb
ARM GAS  /tmp/cctHgLr0.s 			page 47


 1827 0111 3B       		.uleb128 0x3b
 1828 0112 05       		.uleb128 0x5
 1829 0113 01       		.uleb128 0x1
 1830 0114 13       		.uleb128 0x13
 1831 0115 00       		.byte	0
 1832 0116 00       		.byte	0
 1833 0117 18       		.uleb128 0x18
 1834 0118 26       		.uleb128 0x26
 1835 0119 00       		.byte	0
 1836 011a 49       		.uleb128 0x49
 1837 011b 13       		.uleb128 0x13
 1838 011c 00       		.byte	0
 1839 011d 00       		.byte	0
 1840 011e 19       		.uleb128 0x19
 1841 011f 17       		.uleb128 0x17
 1842 0120 01       		.byte	0x1
 1843 0121 0B       		.uleb128 0xb
 1844 0122 0B       		.uleb128 0xb
 1845 0123 3A       		.uleb128 0x3a
 1846 0124 0B       		.uleb128 0xb
 1847 0125 3B       		.uleb128 0x3b
 1848 0126 0B       		.uleb128 0xb
 1849 0127 01       		.uleb128 0x1
 1850 0128 13       		.uleb128 0x13
 1851 0129 00       		.byte	0
 1852 012a 00       		.byte	0
 1853 012b 1A       		.uleb128 0x1a
 1854 012c 0D       		.uleb128 0xd
 1855 012d 00       		.byte	0
 1856 012e 03       		.uleb128 0x3
 1857 012f 0E       		.uleb128 0xe
 1858 0130 3A       		.uleb128 0x3a
 1859 0131 0B       		.uleb128 0xb
 1860 0132 3B       		.uleb128 0x3b
 1861 0133 0B       		.uleb128 0xb
 1862 0134 49       		.uleb128 0x49
 1863 0135 13       		.uleb128 0x13
 1864 0136 00       		.byte	0
 1865 0137 00       		.byte	0
 1866 0138 1B       		.uleb128 0x1b
 1867 0139 0D       		.uleb128 0xd
 1868 013a 00       		.byte	0
 1869 013b 03       		.uleb128 0x3
 1870 013c 0E       		.uleb128 0xe
 1871 013d 3A       		.uleb128 0x3a
 1872 013e 0B       		.uleb128 0xb
 1873 013f 3B       		.uleb128 0x3b
 1874 0140 05       		.uleb128 0x5
 1875 0141 49       		.uleb128 0x49
 1876 0142 13       		.uleb128 0x13
 1877 0143 00       		.byte	0
 1878 0144 00       		.byte	0
 1879 0145 1C       		.uleb128 0x1c
 1880 0146 2E       		.uleb128 0x2e
 1881 0147 01       		.byte	0x1
 1882 0148 3F       		.uleb128 0x3f
 1883 0149 19       		.uleb128 0x19
ARM GAS  /tmp/cctHgLr0.s 			page 48


 1884 014a 03       		.uleb128 0x3
 1885 014b 0E       		.uleb128 0xe
 1886 014c 3A       		.uleb128 0x3a
 1887 014d 0B       		.uleb128 0xb
 1888 014e 3B       		.uleb128 0x3b
 1889 014f 0B       		.uleb128 0xb
 1890 0150 27       		.uleb128 0x27
 1891 0151 19       		.uleb128 0x19
 1892 0152 11       		.uleb128 0x11
 1893 0153 01       		.uleb128 0x1
 1894 0154 12       		.uleb128 0x12
 1895 0155 06       		.uleb128 0x6
 1896 0156 40       		.uleb128 0x40
 1897 0157 18       		.uleb128 0x18
 1898 0158 9742     		.uleb128 0x2117
 1899 015a 19       		.uleb128 0x19
 1900 015b 01       		.uleb128 0x1
 1901 015c 13       		.uleb128 0x13
 1902 015d 00       		.byte	0
 1903 015e 00       		.byte	0
 1904 015f 1D       		.uleb128 0x1d
 1905 0160 05       		.uleb128 0x5
 1906 0161 00       		.byte	0
 1907 0162 03       		.uleb128 0x3
 1908 0163 08       		.uleb128 0x8
 1909 0164 3A       		.uleb128 0x3a
 1910 0165 0B       		.uleb128 0xb
 1911 0166 3B       		.uleb128 0x3b
 1912 0167 0B       		.uleb128 0xb
 1913 0168 49       		.uleb128 0x49
 1914 0169 13       		.uleb128 0x13
 1915 016a 02       		.uleb128 0x2
 1916 016b 17       		.uleb128 0x17
 1917 016c 00       		.byte	0
 1918 016d 00       		.byte	0
 1919 016e 1E       		.uleb128 0x1e
 1920 016f 05       		.uleb128 0x5
 1921 0170 00       		.byte	0
 1922 0171 03       		.uleb128 0x3
 1923 0172 0E       		.uleb128 0xe
 1924 0173 3A       		.uleb128 0x3a
 1925 0174 0B       		.uleb128 0xb
 1926 0175 3B       		.uleb128 0x3b
 1927 0176 0B       		.uleb128 0xb
 1928 0177 49       		.uleb128 0x49
 1929 0178 13       		.uleb128 0x13
 1930 0179 02       		.uleb128 0x2
 1931 017a 17       		.uleb128 0x17
 1932 017b 00       		.byte	0
 1933 017c 00       		.byte	0
 1934 017d 1F       		.uleb128 0x1f
 1935 017e 34       		.uleb128 0x34
 1936 017f 00       		.byte	0
 1937 0180 03       		.uleb128 0x3
 1938 0181 0E       		.uleb128 0xe
 1939 0182 49       		.uleb128 0x49
 1940 0183 13       		.uleb128 0x13
ARM GAS  /tmp/cctHgLr0.s 			page 49


 1941 0184 34       		.uleb128 0x34
 1942 0185 19       		.uleb128 0x19
 1943 0186 00       		.byte	0
 1944 0187 00       		.byte	0
 1945 0188 20       		.uleb128 0x20
 1946 0189 34       		.uleb128 0x34
 1947 018a 00       		.byte	0
 1948 018b 03       		.uleb128 0x3
 1949 018c 0E       		.uleb128 0xe
 1950 018d 3A       		.uleb128 0x3a
 1951 018e 0B       		.uleb128 0xb
 1952 018f 3B       		.uleb128 0x3b
 1953 0190 05       		.uleb128 0x5
 1954 0191 49       		.uleb128 0x49
 1955 0192 13       		.uleb128 0x13
 1956 0193 3F       		.uleb128 0x3f
 1957 0194 19       		.uleb128 0x19
 1958 0195 3C       		.uleb128 0x3c
 1959 0196 19       		.uleb128 0x19
 1960 0197 00       		.byte	0
 1961 0198 00       		.byte	0
 1962 0199 21       		.uleb128 0x21
 1963 019a 34       		.uleb128 0x34
 1964 019b 00       		.byte	0
 1965 019c 03       		.uleb128 0x3
 1966 019d 08       		.uleb128 0x8
 1967 019e 3A       		.uleb128 0x3a
 1968 019f 0B       		.uleb128 0xb
 1969 01a0 3B       		.uleb128 0x3b
 1970 01a1 05       		.uleb128 0x5
 1971 01a2 49       		.uleb128 0x49
 1972 01a3 13       		.uleb128 0x13
 1973 01a4 3F       		.uleb128 0x3f
 1974 01a5 19       		.uleb128 0x19
 1975 01a6 3C       		.uleb128 0x3c
 1976 01a7 19       		.uleb128 0x19
 1977 01a8 00       		.byte	0
 1978 01a9 00       		.byte	0
 1979 01aa 00       		.byte	0
 1980              		.section	.debug_loc,"",%progbits
 1981              	.Ldebug_loc0:
 1982              	.LLST0:
 1983 0000 00000000 		.4byte	.LVL0
 1984 0004 14000000 		.4byte	.LVL2
 1985 0008 0100     		.2byte	0x1
 1986 000a 50       		.byte	0x50
 1987 000b 14000000 		.4byte	.LVL2
 1988 000f 22000000 		.4byte	.LVL3
 1989 0013 0700     		.2byte	0x7
 1990 0015 70       		.byte	0x70
 1991 0016 80808080 		.sleb128 536870912
 1991      02
 1992 001b 9F       		.byte	0x9f
 1993 001c 22000000 		.4byte	.LVL3
 1994 0020 2E000000 		.4byte	.LFE219
 1995 0024 0700     		.2byte	0x7
 1996 0026 70       		.byte	0x70
ARM GAS  /tmp/cctHgLr0.s 			page 50


 1997 0027 80BEFCFF 		.sleb128 536813312
 1997      01
 1998 002c 9F       		.byte	0x9f
 1999 002d 00000000 		.4byte	0
 2000 0031 00000000 		.4byte	0
 2001              	.LLST1:
 2002 0035 00000000 		.4byte	.LVL0
 2003 0039 10000000 		.4byte	.LVL1
 2004 003d 0100     		.2byte	0x1
 2005 003f 51       		.byte	0x51
 2006 0040 10000000 		.4byte	.LVL1
 2007 0044 2E000000 		.4byte	.LFE219
 2008 0048 0400     		.2byte	0x4
 2009 004a F3       		.byte	0xf3
 2010 004b 01       		.uleb128 0x1
 2011 004c 51       		.byte	0x51
 2012 004d 9F       		.byte	0x9f
 2013 004e 00000000 		.4byte	0
 2014 0052 00000000 		.4byte	0
 2015              	.LLST2:
 2016 0056 00000000 		.4byte	.LVL4
 2017 005a 18000000 		.4byte	.LVL5
 2018 005e 0100     		.2byte	0x1
 2019 0060 50       		.byte	0x50
 2020 0061 18000000 		.4byte	.LVL5
 2021 0065 28000000 		.4byte	.LFE220
 2022 0069 0400     		.2byte	0x4
 2023 006b F3       		.byte	0xf3
 2024 006c 01       		.uleb128 0x1
 2025 006d 50       		.byte	0x50
 2026 006e 9F       		.byte	0x9f
 2027 006f 00000000 		.4byte	0
 2028 0073 00000000 		.4byte	0
 2029              	.LLST3:
 2030 0077 00000000 		.4byte	.LVL6
 2031 007b 06000000 		.4byte	.LVL8
 2032 007f 0100     		.2byte	0x1
 2033 0081 50       		.byte	0x50
 2034 0082 06000000 		.4byte	.LVL8
 2035 0086 0C000000 		.4byte	.LVL9
 2036 008a 0700     		.2byte	0x7
 2037 008c 70       		.byte	0x70
 2038 008d 80808080 		.sleb128 536870912
 2038      02
 2039 0092 9F       		.byte	0x9f
 2040 0093 0C000000 		.4byte	.LVL9
 2041 0097 10000000 		.4byte	.LFE221
 2042 009b 0700     		.2byte	0x7
 2043 009d 70       		.byte	0x70
 2044 009e 80A6FCFF 		.sleb128 536810240
 2044      01
 2045 00a3 9F       		.byte	0x9f
 2046 00a4 00000000 		.4byte	0
 2047 00a8 00000000 		.4byte	0
 2048              	.LLST4:
 2049 00ac 00000000 		.4byte	.LVL6
 2050 00b0 02000000 		.4byte	.LVL7
ARM GAS  /tmp/cctHgLr0.s 			page 51


 2051 00b4 0100     		.2byte	0x1
 2052 00b6 51       		.byte	0x51
 2053 00b7 02000000 		.4byte	.LVL7
 2054 00bb 10000000 		.4byte	.LFE221
 2055 00bf 0400     		.2byte	0x4
 2056 00c1 F3       		.byte	0xf3
 2057 00c2 01       		.uleb128 0x1
 2058 00c3 51       		.byte	0x51
 2059 00c4 9F       		.byte	0x9f
 2060 00c5 00000000 		.4byte	0
 2061 00c9 00000000 		.4byte	0
 2062              	.LLST5:
 2063 00cd 00000000 		.4byte	.LVL10
 2064 00d1 0A000000 		.4byte	.LVL11
 2065 00d5 0100     		.2byte	0x1
 2066 00d7 50       		.byte	0x50
 2067 00d8 0A000000 		.4byte	.LVL11
 2068 00dc 1A000000 		.4byte	.LFE222
 2069 00e0 0400     		.2byte	0x4
 2070 00e2 F3       		.byte	0xf3
 2071 00e3 01       		.uleb128 0x1
 2072 00e4 50       		.byte	0x50
 2073 00e5 9F       		.byte	0x9f
 2074 00e6 00000000 		.4byte	0
 2075 00ea 00000000 		.4byte	0
 2076              		.section	.debug_aranges,"",%progbits
 2077 0000 34000000 		.4byte	0x34
 2078 0004 0200     		.2byte	0x2
 2079 0006 00000000 		.4byte	.Ldebug_info0
 2080 000a 04       		.byte	0x4
 2081 000b 00       		.byte	0
 2082 000c 0000     		.2byte	0
 2083 000e 0000     		.2byte	0
 2084 0010 00000000 		.4byte	.LFB219
 2085 0014 2E000000 		.4byte	.LFE219-.LFB219
 2086 0018 00000000 		.4byte	.LFB220
 2087 001c 28000000 		.4byte	.LFE220-.LFB220
 2088 0020 00000000 		.4byte	.LFB221
 2089 0024 10000000 		.4byte	.LFE221-.LFB221
 2090 0028 00000000 		.4byte	.LFB222
 2091 002c 1A000000 		.4byte	.LFE222-.LFB222
 2092 0030 00000000 		.4byte	0
 2093 0034 00000000 		.4byte	0
 2094              		.section	.debug_ranges,"",%progbits
 2095              	.Ldebug_ranges0:
 2096 0000 00000000 		.4byte	.LFB219
 2097 0004 2E000000 		.4byte	.LFE219
 2098 0008 00000000 		.4byte	.LFB220
 2099 000c 28000000 		.4byte	.LFE220
 2100 0010 00000000 		.4byte	.LFB221
 2101 0014 10000000 		.4byte	.LFE221
 2102 0018 00000000 		.4byte	.LFB222
 2103 001c 1A000000 		.4byte	.LFE222
 2104 0020 00000000 		.4byte	0
 2105 0024 00000000 		.4byte	0
 2106              		.section	.debug_line,"",%progbits
 2107              	.Ldebug_line0:
ARM GAS  /tmp/cctHgLr0.s 			page 52


 2108 0000 D6010000 		.section	.debug_str,"MS",%progbits,1
 2108      02008401 
 2108      00000201 
 2108      FB0E0D00 
 2108      01010101 
 2109              	.LASF46:
 2110 0000 63685F74 		.ascii	"ch_threads_list\000"
 2110      68726561 
 2110      64735F6C 
 2110      69737400 
 2111              	.LASF97:
 2112 0010 43504143 		.ascii	"CPACR\000"
 2112      5200
 2113              	.LASF109:
 2114 0016 77746D74 		.ascii	"wtmtxp\000"
 2114      787000
 2115              	.LASF99:
 2116 001d 72656761 		.ascii	"regarm_t\000"
 2116      726D5F74 
 2116      00
 2117              	.LASF124:
 2118 0026 2E2E2F2E 		.ascii	"../../../os/hal/ports/common/ARMCMx/nvic.c\000"
 2118      2E2F2E2E 
 2118      2F6F732F 
 2118      68616C2F 
 2118      706F7274 
 2119              	.LASF35:
 2120 0051 666C6167 		.ascii	"flags\000"
 2120      7300
 2121              	.LASF26:
 2122 0057 73797374 		.ascii	"systime_t\000"
 2122      696D655F 
 2122      7400
 2123              	.LASF41:
 2124 0061 7265616C 		.ascii	"realprio\000"
 2124      7072696F 
 2124      00
 2125              	.LASF39:
 2126 006a 6570656E 		.ascii	"epending\000"
 2126      64696E67 
 2126      00
 2127              	.LASF0:
 2128 0073 756E7369 		.ascii	"unsigned int\000"
 2128      676E6564 
 2128      20696E74 
 2128      00
 2129              	.LASF47:
 2130 0080 6E657874 		.ascii	"next\000"
 2130      00
 2131              	.LASF44:
 2132 0085 74687265 		.ascii	"threads_list_t\000"
 2132      6164735F 
 2132      6C697374 
 2132      5F7400
 2133              	.LASF91:
 2134 0094 44465352 		.ascii	"DFSR\000"
 2134      00
ARM GAS  /tmp/cctHgLr0.s 			page 53


 2135              	.LASF7:
 2136 0099 5F5F696E 		.ascii	"__int32_t\000"
 2136      7433325F 
 2136      7400
 2137              	.LASF36:
 2138 00a3 72656673 		.ascii	"refs\000"
 2138      00
 2139              	.LASF105:
 2140 00a8 77746F62 		.ascii	"wtobjp\000"
 2140      6A7000
 2141              	.LASF120:
 2142 00af 68616E64 		.ascii	"handler\000"
 2142      6C657200 
 2143              	.LASF68:
 2144 00b7 76746C69 		.ascii	"vtlist\000"
 2144      737400
 2145              	.LASF101:
 2146 00be 706F7274 		.ascii	"port_context\000"
 2146      5F636F6E 
 2146      74657874 
 2146      00
 2147              	.LASF52:
 2148 00cb 63685F72 		.ascii	"ch_ready_list\000"
 2148      65616479 
 2148      5F6C6973 
 2148      7400
 2149              	.LASF126:
 2150 00d9 5F5F6675 		.ascii	"__func__.6501\000"
 2150      6E635F5F 
 2150      2E363530 
 2150      3100
 2151              	.LASF58:
 2152 00e7 66756E63 		.ascii	"func\000"
 2152      00
 2153              	.LASF110:
 2154 00ec 65776D61 		.ascii	"ewmask\000"
 2154      736B00
 2155              	.LASF118:
 2156 00f3 6E766963 		.ascii	"nvicDisableVector\000"
 2156      44697361 
 2156      626C6556 
 2156      6563746F 
 2156      7200
 2157              	.LASF50:
 2158 0105 70726576 		.ascii	"prev\000"
 2158      00
 2159              	.LASF49:
 2160 010a 63685F74 		.ascii	"ch_threads_queue\000"
 2160      68726561 
 2160      64735F71 
 2160      75657565 
 2160      00
 2161              	.LASF54:
 2162 011b 76746675 		.ascii	"vtfunc_t\000"
 2162      6E635F74 
 2162      00
 2163              	.LASF63:
ARM GAS  /tmp/cctHgLr0.s 			page 54


 2164 0124 63685F73 		.ascii	"ch_system_debug\000"
 2164      79737465 
 2164      6D5F6465 
 2164      62756700 
 2165              	.LASF17:
 2166 0134 75696E74 		.ascii	"uint32_t\000"
 2166      33325F74 
 2166      00
 2167              	.LASF107:
 2168 013d 73656E74 		.ascii	"sentmsg\000"
 2168      6D736700 
 2169              	.LASF95:
 2170 0145 4D4D4652 		.ascii	"MMFR\000"
 2170      00
 2171              	.LASF24:
 2172 014a 6576656E 		.ascii	"eventmask_t\000"
 2172      746D6173 
 2172      6B5F7400 
 2173              	.LASF70:
 2174 0156 49534552 		.ascii	"ISER\000"
 2174      00
 2175              	.LASF111:
 2176 015b 63685F73 		.ascii	"ch_semaphore\000"
 2176      656D6170 
 2176      686F7265 
 2176      00
 2177              	.LASF22:
 2178 0168 74707269 		.ascii	"tprio_t\000"
 2178      6F5F7400 
 2179              	.LASF73:
 2180 0170 52534552 		.ascii	"RSERVED1\000"
 2180      56454431 
 2180      00
 2181              	.LASF56:
 2182 0179 63685F76 		.ascii	"ch_virtual_timer\000"
 2182      69727475 
 2182      616C5F74 
 2182      696D6572 
 2182      00
 2183              	.LASF13:
 2184 018a 6C6F6E67 		.ascii	"long long unsigned int\000"
 2184      206C6F6E 
 2184      6720756E 
 2184      7369676E 
 2184      65642069 
 2185              	.LASF5:
 2186 01a1 5F5F7569 		.ascii	"__uint16_t\000"
 2186      6E743136 
 2186      5F7400
 2187              	.LASF25:
 2188 01ac 636E745F 		.ascii	"cnt_t\000"
 2188      7400
 2189              	.LASF113:
 2190 01b2 6F776E65 		.ascii	"owner\000"
 2190      7200
 2191              	.LASF48:
 2192 01b8 74687265 		.ascii	"threads_queue_t\000"
ARM GAS  /tmp/cctHgLr0.s 			page 55


 2192      6164735F 
 2192      71756575 
 2192      655F7400 
 2193              	.LASF40:
 2194 01c8 6D74786C 		.ascii	"mtxlist\000"
 2194      69737400 
 2195              	.LASF60:
 2196 01d0 63685F76 		.ascii	"ch_virtual_timers_list\000"
 2196      69727475 
 2196      616C5F74 
 2196      696D6572 
 2196      735F6C69 
 2197              	.LASF27:
 2198 01e7 74687265 		.ascii	"thread_t\000"
 2198      61645F74 
 2198      00
 2199              	.LASF103:
 2200 01f0 7264796D 		.ascii	"rdymsg\000"
 2200      736700
 2201              	.LASF84:
 2202 01f7 43505549 		.ascii	"CPUID\000"
 2202      4400
 2203              	.LASF116:
 2204 01fd 5F426F6F 		.ascii	"_Bool\000"
 2204      6C00
 2205              	.LASF112:
 2206 0203 63685F6D 		.ascii	"ch_mutex\000"
 2206      75746578 
 2206      00
 2207              	.LASF12:
 2208 020c 5F5F7569 		.ascii	"__uint64_t\000"
 2208      6E743634 
 2208      5F7400
 2209              	.LASF94:
 2210 0217 41465352 		.ascii	"AFSR\000"
 2210      00
 2211              	.LASF121:
 2212 021c 6E766963 		.ascii	"nvicClearPending\000"
 2212      436C6561 
 2212      7250656E 
 2212      64696E67 
 2212      00
 2213              	.LASF90:
 2214 022d 48465352 		.ascii	"HFSR\000"
 2214      00
 2215              	.LASF29:
 2216 0232 7072696F 		.ascii	"prio\000"
 2216      00
 2217              	.LASF114:
 2218 0237 63686172 		.ascii	"char\000"
 2218      00
 2219              	.LASF43:
 2220 023c 74687265 		.ascii	"thread_reference_t\000"
 2220      61645F72 
 2220      65666572 
 2220      656E6365 
 2220      5F7400
ARM GAS  /tmp/cctHgLr0.s 			page 56


 2221              	.LASF33:
 2222 024f 77616261 		.ascii	"wabase\000"
 2222      736500
 2223              	.LASF85:
 2224 0256 49435352 		.ascii	"ICSR\000"
 2224      00
 2225              	.LASF20:
 2226 025b 74737461 		.ascii	"tstate_t\000"
 2226      74655F74 
 2226      00
 2227              	.LASF87:
 2228 0264 41495243 		.ascii	"AIRCR\000"
 2228      5200
 2229              	.LASF14:
 2230 026a 75696E74 		.ascii	"uint8_t\000"
 2230      385F7400 
 2231              	.LASF38:
 2232 0272 6D736771 		.ascii	"msgqueue\000"
 2232      75657565 
 2232      00
 2233              	.LASF45:
 2234 027b 63685F74 		.ascii	"ch_thread\000"
 2234      68726561 
 2234      6400
 2235              	.LASF62:
 2236 0285 73797374 		.ascii	"system_debug_t\000"
 2236      656D5F64 
 2236      65627567 
 2236      5F7400
 2237              	.LASF11:
 2238 0294 6C6F6E67 		.ascii	"long long int\000"
 2238      206C6F6E 
 2238      6720696E 
 2238      7400
 2239              	.LASF88:
 2240 02a2 53484353 		.ascii	"SHCSR\000"
 2240      5200
 2241              	.LASF23:
 2242 02a8 6D73675F 		.ascii	"msg_t\000"
 2242      7400
 2243              	.LASF89:
 2244 02ae 43465352 		.ascii	"CFSR\000"
 2244      00
 2245              	.LASF55:
 2246 02b3 76697274 		.ascii	"virtual_timer_t\000"
 2246      75616C5F 
 2246      74696D65 
 2246      725F7400 
 2247              	.LASF123:
 2248 02c3 474E5520 		.ascii	"GNU C 4.8.2 -mcpu=cortex-m3 -mno-thumb-interwork -m"
 2248      4320342E 
 2248      382E3220 
 2248      2D6D6370 
 2248      753D636F 
 2249 02f6 7468756D 		.ascii	"thumb -ggdb -O2 -fomit-frame-pointer -falign-functi"
 2249      62202D67 
 2249      67646220 
ARM GAS  /tmp/cctHgLr0.s 			page 57


 2249      2D4F3220 
 2249      2D666F6D 
 2250 0329 6F6E733D 		.ascii	"ons=16 -ffunction-sections -fdata-sections -fno-com"
 2250      3136202D 
 2250      6666756E 
 2250      6374696F 
 2250      6E2D7365 
 2251 035c 6D6F6E20 		.ascii	"mon -flto\000"
 2251      2D666C74 
 2251      6F00
 2252              	.LASF76:
 2253 0366 49435052 		.ascii	"ICPR\000"
 2253      00
 2254              	.LASF64:
 2255 036b 70616E69 		.ascii	"panic_msg\000"
 2255      635F6D73 
 2255      6700
 2256              	.LASF19:
 2257 0375 746D6F64 		.ascii	"tmode_t\000"
 2257      655F7400 
 2258              	.LASF69:
 2259 037d 6D61696E 		.ascii	"mainthread\000"
 2259      74687265 
 2259      616400
 2260              	.LASF125:
 2261 0388 2F686F6D 		.ascii	"/home/jerson/ChibiOS_17.6.2/demos/STM32/RT-STM32F10"
 2261      652F6A65 
 2261      72736F6E 
 2261      2F436869 
 2261      62694F53 
 2262 03bb 302D4449 		.ascii	"0-DISCOVERY\000"
 2262      53434F56 
 2262      45525900 
 2263              	.LASF15:
 2264 03c7 75696E74 		.ascii	"uint16_t\000"
 2264      31365F74 
 2264      00
 2265              	.LASF81:
 2266 03d0 53544952 		.ascii	"STIR\000"
 2266      00
 2267              	.LASF117:
 2268 03d5 6E766963 		.ascii	"nvicEnableVector\000"
 2268      456E6162 
 2268      6C655665 
 2268      63746F72 
 2268      00
 2269              	.LASF92:
 2270 03e6 4D4D4641 		.ascii	"MMFAR\000"
 2270      5200
 2271              	.LASF71:
 2272 03ec 52455345 		.ascii	"RESERVED0\000"
 2272      52564544 
 2272      3000
 2273              	.LASF75:
 2274 03f6 52455345 		.ascii	"RESERVED2\000"
 2274      52564544 
 2274      3200
ARM GAS  /tmp/cctHgLr0.s 			page 58


 2275              	.LASF77:
 2276 0400 52455345 		.ascii	"RESERVED3\000"
 2276      52564544 
 2276      3300
 2277              	.LASF79:
 2278 040a 52455345 		.ascii	"RESERVED4\000"
 2278      52564544 
 2278      3400
 2279              	.LASF80:
 2280 0414 52455345 		.ascii	"RESERVED5\000"
 2280      52564544 
 2280      3500
 2281              	.LASF3:
 2282 041e 73686F72 		.ascii	"short int\000"
 2282      7420696E 
 2282      7400
 2283              	.LASF8:
 2284 0428 6C6F6E67 		.ascii	"long int\000"
 2284      20696E74 
 2284      00
 2285              	.LASF102:
 2286 0431 706F7274 		.ascii	"port_intctx\000"
 2286      5F696E74 
 2286      63747800 
 2287              	.LASF122:
 2288 043d 49544D5F 		.ascii	"ITM_RxBuffer\000"
 2288      52784275 
 2288      66666572 
 2288      00
 2289              	.LASF66:
 2290 044a 63685F73 		.ascii	"ch_system\000"
 2290      79737465 
 2290      6D00
 2291              	.LASF61:
 2292 0454 6C617374 		.ascii	"lasttime\000"
 2292      74696D65 
 2292      00
 2293              	.LASF18:
 2294 045d 75696E74 		.ascii	"uint64_t\000"
 2294      36345F74 
 2294      00
 2295              	.LASF67:
 2296 0466 726C6973 		.ascii	"rlist\000"
 2296      7400
 2297              	.LASF4:
 2298 046c 5F5F7569 		.ascii	"__uint8_t\000"
 2298      6E74385F 
 2298      7400
 2299              	.LASF83:
 2300 0476 4E564943 		.ascii	"NVIC_Type\000"
 2300      5F547970 
 2300      6500
 2301              	.LASF98:
 2302 0480 5343425F 		.ascii	"SCB_Type\000"
 2302      54797065 
 2302      00
 2303              	.LASF32:
ARM GAS  /tmp/cctHgLr0.s 			page 59


 2304 0489 6E616D65 		.ascii	"name\000"
 2304      00
 2305              	.LASF93:
 2306 048e 42464152 		.ascii	"BFAR\000"
 2306      00
 2307              	.LASF86:
 2308 0493 56544F52 		.ascii	"VTOR\000"
 2308      00
 2309              	.LASF82:
 2310 0498 73697A65 		.ascii	"sizetype\000"
 2310      74797065 
 2310      00
 2311              	.LASF21:
 2312 04a1 74726566 		.ascii	"trefs_t\000"
 2312      735F7400 
 2313              	.LASF10:
 2314 04a9 6C6F6E67 		.ascii	"long unsigned int\000"
 2314      20756E73 
 2314      69676E65 
 2314      6420696E 
 2314      7400
 2315              	.LASF51:
 2316 04bb 72656164 		.ascii	"ready_list_t\000"
 2316      795F6C69 
 2316      73745F74 
 2316      00
 2317              	.LASF28:
 2318 04c8 71756575 		.ascii	"queue\000"
 2318      6500
 2319              	.LASF16:
 2320 04ce 696E7433 		.ascii	"int32_t\000"
 2320      325F7400 
 2321              	.LASF115:
 2322 04d6 6D757465 		.ascii	"mutex_t\000"
 2322      785F7400 
 2323              	.LASF30:
 2324 04de 6E657765 		.ascii	"newer\000"
 2324      7200
 2325              	.LASF2:
 2326 04e4 756E7369 		.ascii	"unsigned char\000"
 2326      676E6564 
 2326      20636861 
 2326      7200
 2327              	.LASF9:
 2328 04f2 5F5F7569 		.ascii	"__uint32_t\000"
 2328      6E743332 
 2328      5F7400
 2329              	.LASF37:
 2330 04fd 77616974 		.ascii	"waiting\000"
 2330      696E6700 
 2331              	.LASF59:
 2332 0505 76697274 		.ascii	"virtual_timers_list_t\000"
 2332      75616C5F 
 2332      74696D65 
 2332      72735F6C 
 2332      6973745F 
 2333              	.LASF72:
ARM GAS  /tmp/cctHgLr0.s 			page 60


 2334 051b 49434552 		.ascii	"ICER\000"
 2334      00
 2335              	.LASF34:
 2336 0520 73746174 		.ascii	"state\000"
 2336      6500
 2337              	.LASF78:
 2338 0526 49414252 		.ascii	"IABR\000"
 2338      00
 2339              	.LASF65:
 2340 052b 63685F73 		.ascii	"ch_system_t\000"
 2340      79737465 
 2340      6D5F7400 
 2341              	.LASF108:
 2342 0537 77747365 		.ascii	"wtsemp\000"
 2342      6D7000
 2343              	.LASF106:
 2344 053e 77747472 		.ascii	"wttrp\000"
 2344      7000
 2345              	.LASF1:
 2346 0544 7369676E 		.ascii	"signed char\000"
 2346      65642063 
 2346      68617200 
 2347              	.LASF57:
 2348 0550 64656C74 		.ascii	"delta\000"
 2348      6100
 2349              	.LASF6:
 2350 0556 73686F72 		.ascii	"short unsigned int\000"
 2350      7420756E 
 2350      7369676E 
 2350      65642069 
 2350      6E7400
 2351              	.LASF100:
 2352 0569 73746B61 		.ascii	"stkalign_t\000"
 2352      6C69676E 
 2352      5F7400
 2353              	.LASF53:
 2354 0574 63757272 		.ascii	"current\000"
 2354      656E7400 
 2355              	.LASF74:
 2356 057c 49535052 		.ascii	"ISPR\000"
 2356      00
 2357              	.LASF96:
 2358 0581 49534152 		.ascii	"ISAR\000"
 2358      00
 2359              	.LASF31:
 2360 0586 6F6C6465 		.ascii	"older\000"
 2360      7200
 2361              	.LASF104:
 2362 058c 65786974 		.ascii	"exitcode\000"
 2362      636F6465 
 2362      00
 2363              	.LASF42:
 2364 0595 6D706F6F 		.ascii	"mpool\000"
 2364      6C00
 2365              	.LASF119:
 2366 059b 6E766963 		.ascii	"nvicSetSystemHandlerPriority\000"
 2366      53657453 
ARM GAS  /tmp/cctHgLr0.s 			page 61


 2366      79737465 
 2366      6D48616E 
 2366      646C6572 
 2367              		.comm	__gnu_lto_v1,1,1
 2368              		.ident	"GCC: (4.8.2-14ubuntu1+6) 4.8.2"
ARM GAS  /tmp/cctHgLr0.s 			page 62


DEFINED SYMBOLS
                            *ABS*:0000000000000000 nvic.c
     /tmp/cctHgLr0.s:261    .text.nvicEnableVector:0000000000000000 $t
     /tmp/cctHgLr0.s:267    .text.nvicEnableVector:0000000000000000 nvicEnableVector
     /tmp/cctHgLr0.s:302    .text.nvicDisableVector:0000000000000000 $t
     /tmp/cctHgLr0.s:308    .text.nvicDisableVector:0000000000000000 nvicDisableVector
     /tmp/cctHgLr0.s:342    .text.nvicSetSystemHandlerPriority:0000000000000000 $t
     /tmp/cctHgLr0.s:348    .text.nvicSetSystemHandlerPriority:0000000000000000 nvicSetSystemHandlerPriority
     /tmp/cctHgLr0.s:370    .text.nvicClearPending:0000000000000000 $t
     /tmp/cctHgLr0.s:376    .text.nvicClearPending:0000000000000000 nvicClearPending
                            *COM*:0000000000000001 __gnu_lto_v1
                     .debug_frame:0000000000000010 $d

NO UNDEFINED SYMBOLS
