ARM GAS  /tmp/cctHgLr0.s 			page 1


   1              		.syntax unified
   2              		.cpu cortex-m3
   3              		.fpu softvfp
   4              		.eabi_attribute 20, 1
   5              		.eabi_attribute 21, 1
   6              		.eabi_attribute 23, 3
   7              		.eabi_attribute 24, 1
   8              		.eabi_attribute 25, 1
   9              		.eabi_attribute 26, 1
  10              		.eabi_attribute 30, 2
  11              		.eabi_attribute 34, 1
  12              		.eabi_attribute 18, 4
  13              		.thumb
  14              		.file	"nvic.c"
  15              		.text
  16              	.Ltext0:
  17              		.section	.gnu.lto_.jmpfuncs.b6c0761ac9b73c02,"",%progbits
  18 0000 789C6362 		.ascii	"x\234cb`b\300\006\270\2404\013\0033##\02333#\003\000"
  18      6062C006 
  18      B8A0340B 
  18      03332323 
  18      13333323 
  19 0016 01F00021 		.ascii	"\001\360\000!"
  20              		.text
  21              		.section	.gnu.lto_.inline.b6c0761ac9b73c02,"",%progbits
  22 0000 789C6D4C 		.ascii	"x\234mL\313\025\200 \014KK\205\352\305\021\330\300%"
  22      CB158020 
  22      0C4B4B85 
  22      EAC511D8 
  22      C025
  23 0012 5D84911C 		.ascii	"]\204\221\034\305\021LQy\036\354!}\371*\024\177\267"
  23      C5114C51 
  23      791EEC21 
  23      7DF92A14 
  23      7FB7
  24 0024 3FDF8065 		.ascii	"?\337\200e\026\025\011\022`\371\334\220[U\350\261\032"
  24      16150912 
  24      60F9DC90 
  24      5B55E8B1 
  24      1A
  25 0035 C89CAAD3 		.ascii	"\310\234\252\323\363\302TD\222\265zG\350Z\037QL&\322"
  25      F3C25444 
  25      92B57A47 
  25      E85A1F51 
  25      4C26D2
  26 0048 57127B9F 		.ascii	"W\022{\237\201PP\362[\035\346\250\342\002a/\015\002"
  26      815050F2 
  26      5B1DE6A8 
  26      E202612F 
  26      0D02
  27              		.text
  28              		.section	.gnu.lto_.pureconst.b6c0761ac9b73c02,"",%progbits
  29 0000 789C6362 		.ascii	"x\234cb`b\340d\200\000\026\006)F)&)f)\000\002\326\000"
  29      6062E064 
  29      80001606 
  29      29462926 
  29      29662900 
ARM GAS  /tmp/cctHgLr0.s 			page 2


  30 0017 80       		.ascii	"\200"
  31              		.text
  32              		.section	.gnu.lto_nvicEnableVector.b6c0761ac9b73c02,"",%progbits
  33 0000 789C9D91 		.ascii	"x\234\235\221\277K\303@\024\307\337\273k\314\217\242"
  33      BF4BC340 
  33      14C7DFBB 
  33      6BCC8FA2 
  34 0010 AE3A5974 		.ascii	"\256:Yt\021\212\211N\016N\342\344\320\245T\320\261f"
  34      118A894E 
  34      0E4EE2E4 
  34      D0A554D0 
  34      B166
  35 0022 8801DB88 		.ascii	"\210\001\333\210\025q3m\272\351\320\301\305\352`\021"
  35      1571336D 
  35      BAE9D0C1 
  35      C5EA6011 
  36 0032 11C41F7F 		.ascii	"\021\304\037\177\200 \245\233C\0257')\256\202\210\223"
  36      8020A59B 
  36      43153727 
  36      29AE8288 
  36      93
  37 0043 A010DFE5 		.ascii	"\240\020\337\345l\245\"\016\036\311\335\273{\337\367"
  37      6CA5220E 
  37      1EC9DDBB 
  37      7BDFF7
  38 0052 BE9FE318 		.ascii	"\276\237\343\0300\3709\006\351O\323\361\004\255\310"
  38      30F83906 
  38      E94FD3F1 
  38      04ADC8
  39 0061 0159E506 		.ascii	"\001Y\345\006\240\2501D\021\000\302&\303\315\005\024"
  39      A0A83144 
  39      1100C226 
  39      C3CD0514 
  40 0071 521C869A 		.ascii	"R\034\206\232\357WZG\217olw\247^>\360?\302\020\321E"
  40      EF575A47 
  40      8F6F6C77 
  40      A75E3EF0 
  40      3FC210D1 
  41 0086 6A6B22D8 		.ascii	"jk\"\330\010\363\264\301D\264\260X\267\317\005\253\267"
  41      08F3B4C1 
  41      44B4B058 
  41      B7CF05AB 
  41      B7
  42 0097 C270FFB6 		.ascii	"\302p\377\266\3720\200\275\2109Q\344\"\347bRh\213*E"
  42      FA3080BD 
  42      883951E4 
  42      22E76252 
  42      688B2A45 
  43 00ab 310DB258 		.ascii	"1\015\262X#\037\2356`\320\244P\251\002e\262M\200p\240"
  43      231F9D36 
  43      60D0A450 
  43      A90265B2 
  43      4D8070A0 
  44 00bf 91A159B0 		.ascii	"\221\241Y\260\315!\023+oB\351)\010\3371\213\207$w\220"
  44      CD21132B 
  44      6F42E929 
  44      08DF318B 
ARM GAS  /tmp/cctHgLr0.s 			page 3


  44      87247790 
  45 00d3 39488A26 		.ascii	"9H\212&\004g\274}\304\351T@\365\010\250&4feb\014N\375"
  45      0467BC7D 
  45      C4E95440 
  45      F508A826 
  45      34666562 
  46 00ea 72D19FA4 		.ascii	"r\321\237\244D\022ND\330\357\242\272\007U\222jB\257"
  46      44124E44 
  46      D8EFA2BA 
  46      0755926A 
  46      42AF
  47 00fc FB8DC0EF 		.ascii	"\373\215\300\357\213\356\243G\267XDy\033'\002\223\021"
  47      8BEEA347 
  47      B7584479 
  47      1B270293 
  47      11
  48 010d 8FCCCE83 		.ascii	"\217\314\316\203\343\355\321\266\237JyQ\004J\344Wz\016"
  48      E3EDD1B6 
  48      9F4A7951 
  48      044AE457 
  48      7A0E
  49 011f AE3A785A 		.ascii	"\256:xZTK\025\227\035<\335\221v0\004\022<x\355\310\015"
  49      544B1597 
  49      1D3CDD91 
  49      76300412 
  49      3C78EDC8 
  50 0134 915050A8 		.ascii	"\221PP\250\"\364\353\227x\027\374\224\213\3067|\374"
  50      22F4EB97 
  50      7817FC94 
  50      8BC6377C 
  50      FC
  51 0145 6F78FC42 		.ascii	"ox\374BV;\360\206lzOO\372\377\266\354\267\266wPlm\215"
  51      563BF086 
  51      6C7A4F4F 
  51      FAFFB6EC 
  51      B7B67750 
  52 015c C8A6ED91 		.ascii	"\310\246\355\221!\002z2\241O\232\246%?\257`-e\227\255"
  52      21027A32 
  52      A14F9AA6 
  52      253FAF60 
  52      2D6597AD 
  53 0170 156F75AD 		.ascii	"\025ou\255`\331^.\347\345\255\351tj&\265a\345\327]\333"
  53      60D95E2E 
  53      E7E5ADE9 
  53      746A26B5 
  53      61E5D75D 
  54 0185 B481E7CD 		.ascii	"\264\201\347\315\361O\265\353\222\340"
  54      F14FB5EB 
  54      92E0
  55              		.text
  56              		.section	.gnu.lto_nvicDisableVector.b6c0761ac9b73c02,"",%progbits
  57 0000 789C7D50 		.ascii	"x\234}P\277K\303P\020\276\357\245\321VAqt\262\350\""
  57      BF4BC350 
  57      10BEEFA5 
  57      D1564171 
  57      74B2E822 
  58 0014 14133A39 		.ascii	"\024\023:98\211s\027\251\240c\355P\003\266\021+\342"
ARM GAS  /tmp/cctHgLr0.s 			page 4


  58      38897317 
  58      A9A063ED 
  58      5003B611 
  58      2BE2
  59 0026 D6D4D4CD 		.ascii	"\326\324\324\315\241\203\203?\026\213[\251?\300E\020"
  59      A183833F 
  59      168B5BA9 
  59      3FC04510 
  60 0036 A4141C1C 		.ascii	"\244\024\034\034*\370\037\024\027\301AD\227\016B\274"
  60      2AF81F14 
  60      17C14144 
  60      970E42BC 
  61 0046 4B1AA50E 		.ascii	"K\032\245\016\036\311\273{\367}\367\335\335S\244\350"
  61      1EC9BB7B 
  61      F77DF7DD 
  61      DD53A4E8 
  62 0056 AF8DF37F 		.ascii	"\257\215\363\177\017\242${h\004U}$*G\025 \001\201J\012"
  62      0FA2247B 
  62      6804557D 
  62      242A4715 
  62      2001814A 
  63 006b A5150815 		.ascii	"\245\025\010\025\223Ts\234jg\357\245\253\216\016\232"
  63      9354739C 
  63      6A67EFA5 
  63      AB8E0E9A 
  64 007b 9553E7CB 		.ascii	"\225S\347\313\363\000\013,k\200\262\240e\276 \356;\025"
  64      F3000B2C 
  64      6B80B2A0 
  64      65BE20EE 
  64      3B15
  65 008d E9EF73A9 		.ascii	"\351\357s\251\232\035\317k\\_=\3271\026\003\362ReA\323"
  65      9A1DCF6B 
  65      5C5F3DD7 
  65      311603F2 
  65      526541D3 
  66 00a1 28831A2B 		.ascii	"(\203\032+G\370B:\037R\247S\205\033\305I4\331\322|\312"
  66      47F8423A 
  66      1F52A753 
  66      851BC549 
  66      34D9D27C 
  67 00b6 344B50E2 		.ascii	"4KP\342\2656\271\027\356\347\376t\006g\320)\007\225"
  67      B536B917 
  67      EEE7FE74 
  67      0667D029 
  67      0795
  68 00c8 03A427D7 		.ascii	"\003\244'\327\021\265i\367\315\275C\210i\214I\322\275"
  68      11B569F7 
  68      CDBD4388 
  68      698C49D2 
  68      BD
  69 00d9 D5C25484 		.ascii	"\325\302T\204\263>}\302\247\273\347\356\307\017]\027"
  69      B33E7DC2 
  69      A7BBE7EE 
  69      C70F5D17 
  70 00e9 20026109 		.ascii	" \002a\011\326zx\037\016\240\031j8\225\2623gAOP]\302"
  70      D67A781F 
  70      0EA0196A 
ARM GAS  /tmp/cctHgLr0.s 			page 5


  70      3895B233 
  70      67414F50 
  71 00ff 510B0327 		.ascii	"Q\013\003't\314\374A)\212:-\327\031\361w\217\372\033"
  71      74CCFC41 
  71      298A3A2D 
  71      D719F177 
  71      8FFA1B
  72 0112 AF22D89C 		.ascii	"\257\"\330\234\347\2430\322}\321\233\303\327.\372dg"
  72      E7A330D2 
  72      7DD19BC3 
  72      D72EFA64 
  72      67
  73 0123 2DC47E65 		.ascii	"-\304~e\207\376\227EO\254\247\357c1\011\236\250\334"
  73      87FE9745 
  73      4FACA7EF 
  73      6331099E 
  73      A8DC
  74 0135 A94F05C2 		.ascii	"\251O\005\302\241\245\231\306o&#$\014\303\014>\273h"
  74      A1A599C6 
  74      6F262324 
  74      0CC30C3E 
  74      BB68
  75 0147 AE65D6CD 		.ascii	"\256e\326\315\015{s\253hf\355|\336.\230\363\213\251"
  75      0D7B73AB 
  75      6866ED7C 
  75      DE2E98F3 
  75      8BA9
  76 0159 85D48E59 		.ascii	"\205\324\216Y\330\266\262F\226\264\202\221\374\006\256"
  76      D8B6B246 
  76      96B48291 
  76      FC06AE
  77 0168 7676D4   		.ascii	"vv\324"
  78              		.text
  79              		.section	.gnu.lto_nvicSetSystemHandlerPriority.b6c0761ac9b73c02,"",%progbits
  80 0000 789C6362 		.ascii	"x\234cb`b@\007\222@\374\001\210u\201\230\221\231\201"
  80      60624007 
  80      9240FC01 
  80      88758198 
  80      919981
  81 0013 9169C239 		.ascii	"\221i\3029\006\206F\016&FF\020\203\201\221\241\236\211"
  81      0686460E 
  81      26464610 
  81      838191A1 
  81      9E89
  82 0025 B13E9211 		.ascii	"\261>\222\021\254v=\323\201\007\377\377\257\373\322"
  82      AC763DD3 
  82      8107FFFF 
  82      AFFBD2
  83 0034 76EC20E3 		.ascii	"v\354 \3439evF\306\\F\240\211\231\214\014\314 \202\025"
  83      39657646 
  83      C65C46A0 
  83      89998C0C 
  83      CC208215 
  84 0048 C805A963 		.ascii	"\310\005\251cehih\230\240\220\313\010\264,\031\2541"
  84      65686968 
  84      98A090CB 
  84      08B42C19 
ARM GAS  /tmp/cctHgLr0.s 			page 6


  84      AC31
  85 005a 0448824C 		.ascii	"\004H\202L\013\005\012\001i\346\263\014M\257\2337\367"
  85      0B050A01 
  85      69E6B30C 
  85      4DAF9B37 
  85      F7
  86 006b E926322E 		.ascii	"\351&2.ddeHgdJ\007i<\313\320\274\226\031&\304\014\024"
  86      64646548 
  86      67644A07 
  86      693CCBD0 
  86      BC961926 
  87 0082 8D60CC64 		.ascii	"\215`\314ddda\000\311\034\362\204H\3502\254ihil0\007"
  87      64646100 
  87      C91CF284 
  87      48E832AC 
  87      6968696C 
  88 0098 4A6833AC 		.ascii	"Jh3\254\0021y3\031\231f3\314\002*e\006\251gi\270\325"
  88      02317933 
  88      19996633 
  88      CC022A65 
  88      06A96769 
  89 00ae DCC0C700 		.ascii	"\334\300\307\000f\202\335\234\004q:\320HV\006\030\213"
  89      6682DD9C 
  89      04713AD0 
  89      48560618 
  89      8B
  90 00bf 9981E122 		.ascii	"\231\201\341\"C\343\203s\312\020Ca \004\350\012\240"
  90      43E38373 
  90      CA104361 
  90      2004E80A 
  90      A0
  91 00d0 F34061A4 		.ascii	"\363@a\244\255\247\247\017A\371\305\372\031\2119\372"
  91      ADA7A70F 
  91      41F9C5FA 
  91      198939FA 
  92 00e0 05F94525 		.ascii	"\005\371E%\305\372\311\371\271\271\371y\372\216A\276"
  92      C5FAC9F9 
  92      B9B9F979 
  92      FA8E41BE 
  93 00f0 CEBE15FA 		.ascii	"\316\276\025\372ye\231\311z\311\014\000\317\274E\347"
  93      796599C9 
  93      7AC90C00 
  93      CFBC45E7 
  94              		.text
  95              		.section	.gnu.lto_nvicClearPending.b6c0761ac9b73c02,"",%progbits
  96 0000 789C5D50 		.ascii	"x\234]P1H\303P\020\275\367\177\322\352\2428:Yt\021\212"
  96      3148C350 
  96      10BDF77F 
  96      D2EAA238 
  96      3A597411 
  97 0015 09BA3A89 		.ascii	"\011\272:\211\223C\027\251\240c\315P\003\266\021+\342"
  97      934317A9 
  97      A063CD50 
  97      03B6112B 
  97      E2
  98 0026 D65FD359 		.ascii	"\326_\323Y:\270\250\213\305M\252\356v)\335+\272;\024"
  98      3AB8A88B 
ARM GAS  /tmp/cctHgLr0.s 			page 7


  98      C54DAAEE 
  98      7629DD2B 
  98      BA3B14
  99 0039 41280EAE 		.ascii	"A(\016\256.B\274KLA\217\237\177\367\337\275{w9E\212"
  99      2E42BC4B 
  99      4C418F9F 
  99      7FF7DFBD 
  99      7B773945 
 100 004e FEDB2C7F 		.ascii	"\376\333,\177\006D\313\354\241\011\252\365D\324\230"
 100      0644CBEC 
 100      A109AAF5 
 100      44D498
 101 005d 50800404 		.ascii	"P\200\004\004\252+\324w T\314S\333\230\326\360\375\353"
 101      AA2BD477 
 101      2054CC53 
 101      DB98D6F0 
 101      FDEB
 102 006f 595F9CF7 		.ascii	"Y_\234\367\232\327\346;\212\000\037,\353\200<\3206?"
 102      9AD7E63B 
 102      8A001F2C 
 102      EB803CD0 
 102      363F
 103 0081 908B9DB2 		.ascii	"\220\213\235\262\376\366yP\275a\024\275v;o#\314L\002"
 103      FEF67950 
 103      BD6114BD 
 103      763B6F23 
 103      CC4C02
 104 0094 15A9F2A1 		.ascii	"\025\251\362\2415\225\320fe\213\037d\313\225\021\230"
 104      3595D066 
 104      658B1F64 
 104      CB951198 
 105 00a4 2B6C6A72 		.ascii	"+ljr\267\034\2110[\221o\031i\013J\274\036Px\037Fg\213"
 105      B71C8930 
 105      5B916F19 
 105      690B4ABC 
 105      1E50781F 
 106 00bb 25DCC0A6 		.ascii	"%\334\300\2462T\031\220\306\\G4\240\323\317\360\003"
 106      32541990 
 106      C65C4734 
 106      A0D3CFF0 
 106      03
 107 00cc 694E734E 		.ascii	"iNsN\300\260\253S\310b4\246\317\305\364\360n\234\261"
 107      C0B0AB53 
 107      C86234A6 
 107      CFC5F4F0 
 107      6E9CB1
 108 00df 6318C2F9 		.ascii	"c\030\302\371\025z\034\013e8-`\177#A\226\250c\232\015"
 108      157A1C0B 
 108      65382D60 
 108      7F234196 
 108      A8639A0D 
 109 00f3 B3EAC3CA 		.ascii	"\263\352\303\312\323\255\204\323>\354+\272d\211\214"
 109      D3AD84D3 
 109      3EEC2BBA 
 109      64898C
 110 0102 E8644D3F 		.ascii	"\350dM?4S\361F\262\361\036v\221\354\203\007\2464\312"
 110      3453F146 
ARM GAS  /tmp/cctHgLr0.s 			page 8


 110      B2F11E76 
 110      91EC8307 
 110      A634CA
 111 0115 10BD5063 		.ascii	"\020\275Pc8ZHDS+\362\320\374\247\302\313;\216\233\234"
 111      385A4844 
 111      532BF2D0 
 111      FCA7C2CB 
 111      3B8E9B9C 
 112 0129 A0E6EE95 		.ascii	"\240\346\356\225\366\335\203\340\360\250\346zA\245\022"
 112      F6DD83E0 
 112      F0A8E67A 
 112      41A512
 113 0138 54DDB5CD 		.ascii	"T\335\265\315\302z\341\304\255\036\373\236\343\221\256"
 113      C27AE1C4 
 113      AD1EFB9E 
 113      E391AE
 114 0147 3A2B3F72 		.ascii	":+?r\207f\302"
 114      8766C2
 115              		.text
 116              		.section	.gnu.lto_.symbol_nodes.b6c0761ac9b73c02,"",%progbits
 117 0000 789C6362 		.ascii	"x\234cb`b\260c\200\002\246\333\214\365\014\014\023\316"
 117      6062B063 
 117      8002A6DB 
 117      8CF50C0C 
 117      13CE
 118 0012 3130D4D7 		.ascii	"10\324\327\317\353`d\272\303X\317\210\304\275\313X\317"
 118      CFEB6064 
 118      BAC358CF 
 118      88C4BDCB 
 118      58CF
 119 0024 84C4BDC7 		.ascii	"\204\304\275\307X\317\214\3402\000\000q\306\023\317"
 119      58CF8CE0 
 119      32000071 
 119      C613CF
 120              		.text
 121              		.section	.gnu.lto_.refs.b6c0761ac9b73c02,"",%progbits
 122 0000 789C6362 		.ascii	"x\234cb`b`d\200\002\000\000F\000\006"
 122      60626064 
 122      80020000 
 122      460006
 123              		.text
 124              		.section	.gnu.lto_.decls.b6c0761ac9b73c02,"",%progbits
 125 0000 789CAD59 		.ascii	"x\234\255Ykp\024U\026\276\267\247C2\022#X\352\242\205"
 125      6B701455 
 125      16BEB7A7 
 125      43321223 
 125      58EAA285 
 126 0014 45DC5AB6 		.ascii	"E\334Z\266\266|dx\254.\376\261\010\223\260\231*\343"
 126      B67C6478 
 126      AC2EFEB1 
 126      0893B099 
 126      2AE3
 127 0026 A66680B2 		.ascii	"\246f\200\262\344\307\320\016\243IU2\241&\023W\376u"
 127      E4C7D00E 
 127      A3495532 
 127      A1261357 
 127      FE75
ARM GAS  /tmp/cctHgLr0.s 			page 9


 128 0038 0C282216 		.ascii	"\014(\"\026\341\2215\242\306\201\015\"\265\240lD\034"
 128      E19135A2 
 128      C6810D22 
 128      B5A06C44 
 128      1C
 129 0049 28C4119F 		.ascii	"(\304\021\237\250U<d\025\211\253c\211\345\342\226\213"
 129      A8553C64 
 129      1589AB63 
 129      89E5E296 
 129      8B
 130 005a AEC22E16 		.ascii	"\256\302.\0268\236{\272o\317\355\236\276\223n\313\256"
 130      389E7BBA 
 130      6FCFED9E 
 130      BE936ECB 
 130      AE
 131 006b DCD3B7BB 		.ascii	"\334\323\267\273\317\375\356\367\235\373\3503\035\205"
 131      CFFDEEF7 
 131      9DFBE833 
 131      1D85
 132 0079 28640D25 		.ascii	"(d\015%\244\010G\3275\204LW\010\251\"\204\334FJ\207"
 132      A40847D7 
 132      35844C57 
 132      08A92284 
 132      DC464A87 
 133 008d 0A653394 		.ascii	"\012e3\224Q(9(\007H\371\301\236\327\232\276uf\035`I"
 133      51283928 
 133      0748F9C1 
 133      9ED79ABE 
 133      75661D60 
 134 00a2 3531F00E 		.ascii	"51\360\016B9\004\345=(g\241\274\017\345\030\224\000"
 134      423904E5 
 134      3D2867A1 
 134      BC0FE518 
 134      9400
 135 00b4 94AFA17C 		.ascii	"\224\257\241|\016\345\250\331\206a\001\015\362<\224"
 135      0EE5A8D9 
 135      8661010D 
 135      F23C94
 136 00c3 9D8E7E18 		.ascii	"\235\216~\030\207\211\216~x\037\034\223\367\301\373"
 136      87898E7E 
 136      781F1C93 
 136      F7C1FB
 137 00d2 64586366 		.ascii	"dXcf?\324\304`\347=\016\354\234\211C\315\266\347\240"
 137      3FD4C460 
 137      E73D0EEC 
 137      9C8943CD 
 137      B6E7A0
 138 00e5 9C873293 		.ascii	"\234\2072\223\032\367&\232\347\234\311{?\224}PfQ;\016"
 138      1AF7269A 
 138      E79CC97B 
 138      3F947D50 
 138      66513B0E 
 139 00f9 8B4F8D0B 		.ascii	"\213O\215\013G'?j\352\246f\033v\316;8M#\303z\266P\330"
 139      47273F6A 
 139      EAA6661B 
 139      76CE3B38 
 139      4D23C37A 
ARM GAS  /tmp/cctHgLr0.s 			page 10


 140 0110 3AFC2ED5 		.ascii	":\374.\325\327\353\027\212\305\000\271\212\014\352p"
 140      D7EB178A 
 140      C500B98A 
 140      0CEA70
 141 011f 641FD475 		.ascii	"d\037\324u\232\321\350mW\222;\251F\353\202\244\036+"
 141      9AD1E86D 
 141      57923BA9 
 141      46EB82A4 
 141      1E2B
 142 0131 B541EC98 		.ascii	"\265A\354\230\020\215n\241Wa-\200! A\262J\327\037`\015"
 142      108D6EA1 
 142      57612D80 
 142      212041B2 
 142      4AD71F60 
 143 0146 5BDE065E 		.ascii	"[\336\006^n\255\246\223\021]\037(\274\274}\315\215\272"
 143      6EADA693 
 143      115D1F28 
 143      BCBC7DCD 
 143      8DBA
 144 0158 5EA3D111 		.ascii	"^\243\321\021\032\204\266\267Sr=\331\016}\016\350\372"
 144      1A84B6B7 
 144      53723DD9 
 144      0E7D0EE8 
 144      FA
 145 0169 961B1C6A 		.ascii	"\226\033\034j\211?\350\363\017\356\277\025\241\237E"
 145      893FE8F3 
 145      0FEEBF15 
 145      A19F45
 146 0178 E8D59402 		.ascii	"\350\325\224\002\321m\364z\023H\243\325A\021\030\257"
 146      D16DF47A 
 146      1348A3D5 
 146      411118AF 
 147 0188 B90343C3 		.ascii	"\271\003C\303\307f\205M\332\313\210_w3\032\2068\254"
 147      C766854D 
 147      DACB885F 
 147      77331A86 
 147      38AC
 148 019a 2C0C5800 		.ascii	",\014X\000\012\031t0\372\015\371\253\256\257\207\021"
 148      0A197430 
 148      FA0DF9AB 
 148      AEAF8711 
 149 01aa 18B95ACF 		.ascii	"\030\271Z\317*<$\317\240\327f:\315U\253\211m4\325\367"
 149      2A3C24CF 
 149      A0D7663A 
 149      CD55AB89 
 149      6D34D5F7 
 150 01be 265B78B3 		.ascii	"&[x\263g\2754#\344\267d+\033\342G\365\225\223(\2160"
 150      67BD3423 
 150      E4B7642B 
 150      1BE247F5 
 150      9593288E 
 151 01d3 315BD9A4 		.ascii	"1[\331\244\356\240J\371T\311\357~\263v\240\257P,N\363"
 151      EEA04AF9 
 151      54C9EF7E 
 151      B376A0AF 
 151      502C4EF3 
 152 01e7 3E4F5EB0 		.ascii	">O^\260\317\023\203\206#,;]\303\242o\340\3324\372\034"
ARM GAS  /tmp/cctHgLr0.s 			page 11


 152      CF138386 
 152      232C3B5D 
 152      C3A26FE0 
 152      DA34FA1C 
 153 01fb D0D1E8E8 		.ascii	"\320\321\350\350\317\3226\352\324\366\242\253\266\357"
 153      CFD236EA 
 153      D4F6A2AB 
 153      B6EF
 154 0209 B936636E 		.ascii	"\2716cn+\344\025wVB\304?F\217\234\247\201\272X\022\263"
 154      2BE41577 
 154      5642C43F 
 154      468F9CA7 
 154      81BA5812 
 155 021e 0BC58CD3 		.ascii	"\013\305\214\323L\"&\347\024\263\327U\314\276\267,1"
 155      4C2226E7 
 155      14B3D755 
 155      CCBEB72C 
 155      31
 156 022f 2FA09853 		.ascii	"/\240\230S\356b\3269C|\340g\261:\340d\365\212\235\025"
 156      EE62D639 
 156      437CE067 
 156      B13AE064 
 156      F58A9D15 
 157 0243 2EE17EBD 		.ascii	".\341~\275\260U\2372TZ\3025\274\003\266\352\371\356"
 157      B0559F32 
 157      545AC235 
 157      BC03B6EA 
 157      F9EE
 158 0255 70FAA402 		.ascii	"p\372\244\002K\330\\\363\225\032h\3645:\035,\265/J\032"
 158      4BD85CF3 
 158      951A68F4 
 158      353A1D2C 
 158      B52F4A1A 
 159 0269 2C558A94 		.ascii	",U\212\224\315\256\263\016\351\036\260\255\375dx\016"
 159      CDAEB30E 
 159      E91EB0AD 
 159      FD64780E 
 160 0279 EE276FE2 		.ascii	"\356'o\342p_,\333O\250c?\031\207\213\037\337\311d\200"
 160      705F2CDB 
 160      4FA8633F 
 160      19878B1F 
 160      DFC96480 
 161 028d C5B97EA8 		.ascii	"\305\271~\250N\243\007\341\236IS\277\214\363\374\306"
 161      4EA307E1 
 161      9E4953BF 
 161      8CF3FCC6 
 162 029d 0014FD5E 		.ascii	"\000\024\375^\257\340\247\321w\350\344\222~\335\334"
 162      AFE0A7D1 
 162      77E8E492 
 162      7EDDDC
 163 02ac 4FD145B6 		.ascii	"O\321E\266v\3375\365\231\267\255\312\031jS\302\335\310"
 163      76DF35F5 
 163      99B7ADCA 
 163      196A53C2 
 163      DDC8
 164 02be E5641D72 		.ascii	"\345d\035r\021\266\351l\201\362V+\246\226\"\373\364"
 164      11B6E96C 
ARM GAS  /tmp/cctHgLr0.s 			page 12


 164      81F2562B 
 164      A69622FB 
 164      F4
 165 02cf FAC3F331 		.ascii	"\372\303\3631\262\357\321\313!\2629\305\036Y\017@\254"
 165      B2EFD1CB 
 165      21B239C5 
 165      1E590F40 
 165      AC
 166 02e0 E3C3D0D8 		.ascii	"\343\303\320\330h\206\260z\276\370a\255\256\032\367"
 166      6886B07A 
 166      BEF861AD 
 166      AE1AF7
 167 02ef 890DD076 		.ascii	"\211\015\320v\\G\262\372\212\276\374\206M\203T\317\036"
 167      5C47B2FA 
 167      8ABEFC86 
 167      4D8354CF 
 167      1E
 168 0300 A43C826F 		.ascii	"\244<\202o\327\231\323\264\322\233F\243[q\326\215\377"
 168      D799D3B4 
 168      D29B46A3 
 168      5B71D68D 
 168      FF
 169 0311 2AE003A1 		.ascii	"*\340\003\241\360\346\365\266\361b\241\037\021\306\313"
 169      F0E6F5B6 
 169      F162A11F 
 169      11C6CB
 170 0320 E1A6D1E3 		.ascii	"\341\246\321\343\276\207\353\037\222\341\252\266\215"
 170      BE87EB1F 
 170      92E1AAB6 
 170      8D
 171 032d 16F782B0 		.ascii	"\026\367\202\260\037\304\260\263h\271\262\260p8h\235"
 171      1FC4B0B3 
 171      68B9B2B0 
 171      7038689D 
 172 033d 35DD5908 		.ascii	"5\335Y\010!\336\033\357\032\320d\202&\360\366K\314\216"
 172      21DE1BEF 
 172      1AD06482 
 172      26F0F64B 
 172      CC8E
 173 034f 4FF816F4 		.ascii	"O\370\026\364\221D\320\257\010W\360V\231\002[\267\266"
 173      9144D0AF 
 173      0857F056 
 173      99025BB7 
 173      B6
 174 0360 90962B80 		.ascii	"\220\226+\200I\360\027P\240\321c@M!G=\205C\247\362x"
 174      49F01750 
 174      A0D16340 
 174      4D21473D 
 174      8543A7F2 
 175 0375 0C21DA09 		.ascii	"\014!\332\011D\373\300\023\265\254\014\015\270m\022"
 175      44FBC013 
 175      B5AC0C0D 
 175      B86D12
 176 0384 B87DEA8D 		.ascii	"\270}\352\215\233\"\347\366\244\300\355\2247n24\340"
 176      9B22E7F6 
 176      A4C0ED94 
 176      376E3234 
ARM GAS  /tmp/cctHgLr0.s 			page 13


 176      E0
 177 0395 362C70FB 		.ascii	"6,p\373\2177n\0019\267]\002\267\357\274q\223\241\001"
 177      8F376E01 
 177      39B75D02 
 177      B7EFBC71 
 177      93A101
 178 03a8 B75181DB 		.ascii	"\267Q\201\333Eo\334T9\267\335\025\346x\035\007(\360"
 178      456FDC54 
 178      39B7DD15 
 178      E6781D07 
 178      28F0
 179 03ba 4DF62BDF 		.ascii	"M\366+\337\223\374\337\222I\376\007k\222?\020pj\260"
 179      93FCDF92 
 179      49FE076B 
 179      923F1070 
 179      6AB0
 180 03cc F7CB4322 		.ascii	"\367\313C\"\023\001!\331s\327\256%\032=\204!YS\006g"
 180      130121D9 
 180      73D7AE25 
 180      1A3D8421 
 180      59530667 
 181 03e0 7F57F098 		.ascii	"\177W\360\230L\220\307$W!&\233\255}z\340\012S\3427\276"
 181      4C90C724 
 181      5721269B 
 181      AD7D7AE0 
 181      0A53E237 
 182 03f5 83F2AD24 		.ascii	"\203\362\255$(\375UVT\326\226\311p\364\3145U\313\302"
 182      28FD5556 
 182      54D696C9 
 182      70F4CC35 
 182      55CBC2
 183 0408 D29FDF77 		.ascii	"\322\237\337w\262\226M\225\367\361\365\376\270\023\320"
 183      B2964D95 
 183      F7F1F5FE 
 183      B813D0
 184 0417 C68A4765 		.ascii	"\306\212Ge\252\013\232\333!\276\2354z\004_\032G\351"
 184      AA0B9ADB 
 184      21BE9D34 
 184      7A045F1A 
 184      47E9
 185 0429 75603F44 		.ascii	"u`?D;\206\366\237h?E\373\031\332\317\321~\201\366K\264"
 185      3B86F69F 
 185      683F45FB 
 185      19DACFD1 
 185      7E81F64B 
 186 043e A7D17E8D 		.ascii	"\247\321~\215\366\014\332\357\300Z\307D\262\272\364"
 186      F60CDAEF 
 186      C05AC744 
 186      B2BAF4
 187 044d F3C878A1 		.ascii	"\363\310x\241\312\242z\226N\344\255$\351\305\022\336"
 187      CAA27A96 
 187      4EE4AD24 
 187      E9C512DE 
 188 045d A4B6CCEB 		.ascii	"\244\266\314\353u\251\227F\377\347{\200\377/\031`\213"
 188      75A99746 
 188      FFE77B80 
 188      FF2F1960 
ARM GAS  /tmp/cctHgLr0.s 			page 14


 188      8B
 189 046e A0CDCB2D 		.ascii	"\240\315\313-!(X\031\333\232R\312\226\377v\214\326k"
 189      21285819 
 189      DB9A52CA 
 189      96FF768C 
 189      D66B
 190 0480 F43C6615 		.ascii	"\364<f\025\303\201q\263\012\007\010\353\363\2023\251"
 190      C38171B3 
 190      0A0708EB 
 190      F38233A9 
 191 0490 D8308649 		.ascii	"\3300\206I\305\205\361\223\212\215\375\371\307\236\030"
 191      C585F193 
 191      8A8DFDF9 
 191      C79E18
 192 049f BC9A2515 		.ascii	"\274\232%\025V*\221\377\005R\011\205lC)\027*\317M\""
 192      562A91FF 
 192      05520985 
 192      6C432917 
 192      2ACF4D22 
 193 04b3 9FE84363 		.ascii	"\237\350Cc\302D\337\351\033\254\336\006\266I\004\033"
 193      C244DFE9 
 193      1BACDE06 
 193      B649041B 
 194 04c3 F5025623 		.ascii	"\365\002V#g\366\244\010\366\222o0;\263a\021\354e/`\223"
 194      67F6A408 
 194      F6926F30 
 194      3BB36111 
 194      EC652F60 
 195 04d8 E4CC7689 		.ascii	"\344\314v\211`\257\372\006\023\231\301;i1\333\200\317"
 195      60AFFA06 
 195      1399C13B 
 195      6931DB80 
 195      CF
 196 04e9 E106FC86 		.ascii	"\341\006\374\206\023\313\266\236\314\352\0249\261\335"
 196      13CBB69E 
 196      CCEA1439 
 196      B1DD
 197 04f7 22B1435E 		.ascii	"\"\261C^\210\325\313C\266G\004;\354\005\354wrf9\021"
 197      88D5CB43 
 197      B647043B 
 197      EC05EC77 
 197      72663911 
 198 050b ECB86F30 		.ascii	"\354\270o0;\263}\"\330G^\300f\310\231\355\027\301>\361"
 198      3BB37D22 
 198      D8475EC0 
 198      66C899ED 
 198      17C13EF1 
 199 051f 0D666776 		.ascii	"\015fgv@\004;\345\005l\216\234\331\021\021\354\264o"
 199      40043BE5 
 199      056C8E9C 
 199      D91111EC 
 199      B46F
 200 0531 3081D9C6 		.ascii	"0\201\331\306\276\374\261\305\326\2139;\227m\301\305"
 200      BEFCB1C5 
 200      D68B393B 
 200      976DC1C5 
 201 0541 D2AE3DD7 		.ascii	"\322\256=\327\276\200ln#R7\215>\245\370\335\334\207"
ARM GAS  /tmp/cctHgLr0.s 			page 15


 201      BE806C6E 
 201      2352378D 
 201      3EA5F8DD 
 201      DC87
 202 0553 15F7CDDD 		.ascii	"\025\367\315\335\376\263\221{\261\014\322)\333F\302"
 202      FEB3917B 
 202      B10CD229 
 202      DB46C2
 203 0562 ACCE95C4 		.ascii	"\254\316\225\304\020v\335\343F\014\213\030\303\377z"
 203      1076DDE3 
 203      460C8B18 
 203      C3FF7A
 204 0571 89618B1C 		.ascii	"\211a\213\034\354\003\021\354\234o0\373\200\234Xl\317"
 204      EC0311EC 
 204      9C6F30FB 
 204      809C586C 
 204      CF
 205 0582 9484F1D0 		.ascii	"\224\204\361\320\255te\2228 e\011\225\303M\243\317\370"
 205      AD746592 
 205      38206509 
 205      95C34DA3 
 205      CFF8
 206 0594 1E906D92 		.ascii	"\036\220m\222\001)}\204\023\275@\366\017N\331v\026f"
 206      01297D84 
 206      13BD40F6 
 206      0F4ED976 
 206      1666
 207 05a6 B54D16C4 		.ascii	"\265M\026\304\276\374I\271\356\254\005uE%\335N7\215"
 207      BEFC49B9 
 207      EEAC0575 
 207      4525DD4E 
 207      378D
 208 05b8 FECDB7EE 		.ascii	"\376\315\267\356\035\022\335\252M\367\216\222\356\242"
 208      1D12DDAA 
 208      4DF78E92 
 208      EEA2
 209 05c6 53B79D85 		.ascii	"S\267\235\205Y]\"\321\015\311\302\307\213\331\334aL"
 209      595D22D1 
 209      0DC9C2C7 
 209      8BD9DC61 
 209      4C
 210 05d7 357A12BF 		.ascii	"5z\022\277\250\215\007\266L2y`k\370D\334\032V\250\036"
 210      A88D07B6 
 210      4C327960 
 210      6BF844DC 
 210      1A56A81E 
 211 05eb 66E22AB7 		.ascii	"f\342*\267\237\223n\207\230\347h\364\"&\"?br\331\247"
 211      9F936E87 
 211      98E768F4 
 211      2226223F 
 211      6272D9A7 
 212 05ff 30DB8F76 		.ascii	"0\333\217v%\332\207\320>\214\366\021\264\217\242]\213"
 212      25DA87D0 
 212      3E8CF611 
 212      B48FA25D 
 212      8B
 213 0610 761DDA0D 		.ascii	"v\035\332\015h\007\321>\206\366q\264O\240\315\242\335"
ARM GAS  /tmp/cctHgLr0.s 			page 16


 213      6807D13E 
 213      86F671B4 
 213      4FA0CDA2 
 213      DD
 214 0621 827604ED 		.ascii	"\202v\004\355v\264\317\241}^\221\247\263\347+\244\263"
 214      76B4CFA1 
 214      7D5E91A7 
 214      B3E72BA4 
 214      B3
 215 0632 7F57AC6C 		.ascii	"\177W\254l\361\327d\263~\344Ha\345\231!\272\252\240"
 215      F1D764B3 
 215      7EE44861 
 215      E59921BA 
 215      AAA0
 216 0644 0FE83F16 		.ascii	"\017\350?\026\213\264\224\274Z_\374\362\225\277\370"
 216      8BB494BC 
 216      5A5FFCF2 
 216      95BFF8
 217 0653 B1FF4128 		.ascii	"\261\377A(\302\347\301)\356\276\032}Qa\361\332#\314"
 217      C2E7C129 
 217      EEBE1A7D 
 217      5161F1DA 
 217      23CC
 218 0665 2EA3CE6B 		.ascii	".\243\316k\306\207\307\325\252\333\2773\020\240rS\263"
 218      C687C7D5 
 218      AADBBF33 
 218      10A07253 
 218      B3
 219 0676 D37F59D3 		.ascii	"\323\177Y\323\345Z\333Ba\3318s\225\270i4\347{\241\354"
 219      E55ADB42 
 219      61D93873 
 219      95B86934 
 219      E77BA1EC 
 220 068a 952C94A9 		.ascii	"\225,\224\2516\326{K\013e\255\352\370\364\355d\241\220"
 220      36D67B4B 
 220      0B65ADEA 
 220      F8F4ED64 
 220      A190
 221 069c 2195A7D4 		.ascii	"!\225\247\324\227\260\312\015\015\015!\343\257\273'"
 221      97B0CA0D 
 221      0D0D21E3 
 221      AFBB27
 222 06ab D4AE7586 		.ascii	"\324\256u\206\226u\2473=\241DwWWw*\324\030m\015\267"
 222      9675A733 
 222      3DA14477 
 222      5757772A 
 222      D4186D0D 
 223 06c0 DE1F4ADD 		.ascii	"\336\037J\335\327\221hH\220kC\275=\351PG*\321\331\273"
 223      D7916848 
 223      906B43BD 
 223      3DE95047 
 223      2AD1D9BB 
 224 06d4 34194A25 		.ascii	"4\031J%\377\334\331qw\250'\263\264#\225ih'5\275p\236"
 224      FFDCD971 
 224      77A827B3 
 224      B4239569 
 224      682735BD 
ARM GAS  /tmp/cctHgLr0.s 			page 17


 225 06ea 3D2B9E99 		.ascii	"=+\236\231\360\307;\026\326\207\311Mn\336]Z\242\275"
 225      F0C73B16 
 225      D687C94D 
 225      6EDE5D5A 
 225      A2BD
 226 06fc 23950CC5 		.ascii	"#\225\014\305\227&\357\321z;3\361\314\362e\311\036h"
 226      9726EFD1 
 226      7A3B33F1 
 226      CCF265C9 
 226      1E68
 227 070e 7D493CCE 		.ascii	"}I<\316\333Ob\3355\247\264\273;\223\213\222\211Lw\232"
 227      DB4F62DD 
 227      35A7B4BB 
 227      3B938B92 
 227      894C779A 
 228 0722 A6D465E9 		.ascii	"\246\324e\351\216\356\311\354~SGO\351\301Tv'\226\314"
 228      8EEEC9EC 
 228      7E53474F 
 228      E9C15476 
 228      2796CC
 229 0735 C496F764 		.ascii	"\304\226\367d\222]-Zjig2\335\006\256\351\216\314\362"
 229      925D2D5A 
 229      6A696732 
 229      DD06AEE9 
 229      8ECCF2
 230 0748 EA76E31A 		.ascii	"\352v\343\032\341\302\235I-\335\226L\001\327{\253YG"
 230      E1C29D49 
 230      2DDD964C 
 230      01D77BAB 
 230      5947
 231 075a 73E299A0 		.ascii	"s\342\231\240\321%\324f\210A0\245'\357\317\204\302\255"
 231      D125D466 
 231      884130A5 
 231      27EFCF84 
 231      C2AD
 232 076c B148CC92 		.ascii	"\261H\314\222\220\350N'\343\211\256\331\3006x\307\242"
 232      90E84E27 
 232      E389AED9 
 232      C03678C7 
 232      A2
 233 077d 4838BE00 		.ascii	"H8\276\000\270\253\221Xs4\030m\006\273\250\271i\206"
 233      B8AB9158 
 233      7334186D 
 233      06BBA8B9 
 233      6986
 234 078f 1A093747 		.ascii	"\032\0117Gk\242\306\325Lx\330Vz8\013\036\012\227\263"
 234      6BA2C6D5 
 234      4C78D856 
 234      7A380B1E 
 234      0A97B3
 235 07a2 D548E3BC 		.ascii	"\325H\343\274\322\345\357\225H\233uq\263\032[\020\211"
 235      D2E5EF95 
 235      489B7571 
 235      B31A5B10 
 235      89
 236 07b3 D6C4C2F3 		.ascii	"\326\304\302\363\260\223\252p\333\302H\0234\217E\325"
 236      B093AA70 
ARM GAS  /tmp/cctHgLr0.s 			page 18


 236      DBC24813 
 236      348F45D5 
 237 07c3 450BFE14 		.ascii	"E\013\376\024\255j\214D\303\321@\014J"
 237      AD6A8C44 
 237      C3D1400C 
 237      4A
 238 07d0 989D5BDA 		.ascii	"\230\235[\332\252b-\354ax>\230\026f\232\300T\265\266"
 238      AA622DEC 
 238      61783E98 
 238      16669AC0 
 238      54B5B6
 239 07e3 CE6F8CAA 		.ascii	"\316o\214\252\363\230i\204\353@\333\374h\240\011JcS"
 239      F3986984 
 239      EB40DBFC 
 239      68A0094A 
 239      6353
 240 07f5 54856751 		.ascii	"T\205gQ\340\327\030\005\360\306pTM\264k\351\232x\374"
 240      E0D71805 
 240      F0C67054 
 240      4DB46BE9 
 240      9A78FC
 241 0808 9EDE5422 		.ascii	"\236\336T\"\036\277\224W\032n\271y\306\314\237\000\204"
 241      1EBF9457 
 241      1A6EB979 
 241      C6CC9F00 
 241      84
 242 0819 3F5C18   		.ascii	"?\\\030"
 243              		.text
 244              		.section	.gnu.lto_.symtab.b6c0761ac9b73c02,"",%progbits
 245 0000 6E766963 		.ascii	"nvicEnableVector\000\000\000\000\000\000\000\000\000"
 245      456E6162 
 245      6C655665 
 245      63746F72 
 245      00000000 
 246 0019 000000A1 		.ascii	"\000\000\000\241\000\000\000nvicDisableVector\000\000"
 246      0000006E 
 246      76696344 
 246      69736162 
 246      6C655665 
 247 0033 00000000 		.ascii	"\000\000\000\000\000\000\000\000\000\000\262\000\000"
 247      00000000 
 247      0000B200 
 247      00
 248 0040 006E7669 		.ascii	"\000nvicSetSystemHandlerPriority\000\000\000\000\000"
 248      63536574 
 248      53797374 
 248      656D4861 
 248      6E646C65 
 249 0062 00000000 		.ascii	"\000\000\000\000\000\000\000\270\000\000\000nvicCle"
 249      000000B8 
 249      0000006E 
 249      76696343 
 249      6C65
 250 0074 61725065 		.ascii	"arPending\000\000\000\000\000\000\000\000\000\000\000"
 250      6E64696E 
 250      67000000 
 250      00000000 
ARM GAS  /tmp/cctHgLr0.s 			page 19


 250      00000000 
 251 0088 00BE0000 		.ascii	"\000\276\000\000\000"
 251      00
 252              		.text
 253              		.section	.gnu.lto_.opts,"",%progbits
 254 0000 272D6D63 		.ascii	"'-mcpu=cortex-m3' '-mno-thumb-interwork' '-mthumb' "
 254      70753D63 
 254      6F727465 
 254      782D6D33 
 254      2720272D 
 255 0033 272D6767 		.ascii	"'-ggdb' '-O2' '-fomit-frame-pointer' '-falign-funct"
 255      64622720 
 255      272D4F32 
 255      2720272D 
 255      666F6D69 
 256 0066 696F6E73 		.ascii	"ions=16' '-ffunction-sections' '-fdata-sections' '-"
 256      3D313627 
 256      20272D66 
 256      66756E63 
 256      74696F6E 
 257 0099 666E6F2D 		.ascii	"fno-common' '-flto'\000"
 257      636F6D6D 
 257      6F6E2720 
 257      272D666C 
 257      746F2700 
 258              		.text
 259              		.cfi_sections	.debug_frame
 260              		.section	.text.nvicEnableVector,"ax",%progbits
 261              		.align	2
 262              		.p2align 4,,15
 263              		.global	nvicEnableVector
 264              		.thumb
 265              		.thumb_func
 266              		.type	nvicEnableVector, %function
 267              	nvicEnableVector:
 268              	.LFB219:
 269              		.file 1 "../../../os/hal/ports/common/ARMCMx/nvic.c"
 270              		.loc 1 57 0
 271              		.cfi_startproc
 272              		@ args = 0, pretend = 0, frame = 0
 273              		@ frame_needed = 0, uses_anonymous_args = 0
 274              		@ link register save eliminated.
 275              	.LVL0:
 276              		.loc 1 65 0
 277 0000 00F01F03 		and	r3, r0, #31
 278 0004 0122     		movs	r2, #1
 279 0006 02FA03F3 		lsl	r3, r2, r3
 280 000a 4209     		lsrs	r2, r0, #5
 281 000c 9200     		lsls	r2, r2, #2
 282              		.loc 1 63 0
 283 000e 0901     		lsls	r1, r1, #4
 284              	.LVL1:
 285 0010 00F16040 		add	r0, r0, #-536870912
 286              	.LVL2:
 287 0014 02F16042 		add	r2, r2, #-536870912
 288 0018 02F56142 		add	r2, r2, #57600
 289 001c C9B2     		uxtb	r1, r1
ARM GAS  /tmp/cctHgLr0.s 			page 20


 290 001e 00F56140 		add	r0, r0, #57600
 291              	.LVL3:
 292 0022 80F80013 		strb	r1, [r0, #768]
 293              		.loc 1 65 0
 294 0026 C2F88031 		str	r3, [r2, #384]
 295              		.loc 1 66 0
 296 002a 1360     		str	r3, [r2]
 297 002c 7047     		bx	lr
 298              		.cfi_endproc
 299              	.LFE219:
 300              		.size	nvicEnableVector, .-nvicEnableVector
 301 002e 00BF     		.section	.text.nvicDisableVector,"ax",%progbits
 302              		.align	2
 303              		.p2align 4,,15
 304              		.global	nvicDisableVector
 305              		.thumb
 306              		.thumb_func
 307              		.type	nvicDisableVector, %function
 308              	nvicDisableVector:
 309              	.LFB220:
 310              		.loc 1 74 0
 311              		.cfi_startproc
 312              		@ args = 0, pretend = 0, frame = 0
 313              		@ frame_needed = 0, uses_anonymous_args = 0
 314              		@ link register save eliminated.
 315              	.LVL4:
 316 0000 10B4     		push	{r4}
 317              		.cfi_def_cfa_offset 4
 318              		.cfi_offset 4, -4
 319              		.loc 1 76 0
 320 0002 00F01F03 		and	r3, r0, #31
 321 0006 0124     		movs	r4, #1
 322 0008 9C40     		lsls	r4, r4, r3
 323 000a 4FF46143 		mov	r3, #57600
 324 000e 4109     		lsrs	r1, r0, #5
 325 0010 CEF20003 		movt	r3, 57344
 326 0014 2031     		adds	r1, r1, #32
 327              		.loc 1 80 0
 328 0016 1844     		add	r0, r0, r3
 329              	.LVL5:
 330 0018 0022     		movs	r2, #0
 331              		.loc 1 76 0
 332 001a 43F82140 		str	r4, [r3, r1, lsl #2]
 333              		.loc 1 80 0
 334 001e 80F80023 		strb	r2, [r0, #768]
 335              		.loc 1 82 0
 336 0022 5DF8044B 		ldr	r4, [sp], #4
 337 0026 7047     		bx	lr
 338              		.cfi_endproc
 339              	.LFE220:
 340              		.size	nvicDisableVector, .-nvicDisableVector
 341 0028 AFF30080 		.section	.text.nvicSetSystemHandlerPriority,"ax",%progbits
 341      AFF30080 
 342              		.align	2
 343              		.p2align 4,,15
 344              		.global	nvicSetSystemHandlerPriority
 345              		.thumb
ARM GAS  /tmp/cctHgLr0.s 			page 21


 346              		.thumb_func
 347              		.type	nvicSetSystemHandlerPriority, %function
 348              	nvicSetSystemHandlerPriority:
 349              	.LFB221:
 350              		.loc 1 90 0
 351              		.cfi_startproc
 352              		@ args = 0, pretend = 0, frame = 0
 353              		@ frame_needed = 0, uses_anonymous_args = 0
 354              		@ link register save eliminated.
 355              	.LVL6:
 356              		.loc 1 100 0
 357 0000 0901     		lsls	r1, r1, #4
 358              	.LVL7:
 359 0002 00F16040 		add	r0, r0, #-536870912
 360              	.LVL8:
 361 0006 C9B2     		uxtb	r1, r1
 362 0008 00F56D40 		add	r0, r0, #60672
 363              	.LVL9:
 364 000c 0176     		strb	r1, [r0, #24]
 365 000e 7047     		bx	lr
 366              		.cfi_endproc
 367              	.LFE221:
 368              		.size	nvicSetSystemHandlerPriority, .-nvicSetSystemHandlerPriority
 369              		.section	.text.nvicClearPending,"ax",%progbits
 370              		.align	2
 371              		.p2align 4,,15
 372              		.global	nvicClearPending
 373              		.thumb
 374              		.thumb_func
 375              		.type	nvicClearPending, %function
 376              	nvicClearPending:
 377              	.LFB222:
 378              		.loc 1 109 0
 379              		.cfi_startproc
 380              		@ args = 0, pretend = 0, frame = 0
 381              		@ frame_needed = 0, uses_anonymous_args = 0
 382              		@ link register save eliminated.
 383              	.LVL10:
 384              		.loc 1 111 0
 385 0000 00F01F03 		and	r3, r0, #31
 386 0004 0122     		movs	r2, #1
 387 0006 9A40     		lsls	r2, r2, r3
 388 0008 4009     		lsrs	r0, r0, #5
 389              	.LVL11:
 390 000a 4FF46143 		mov	r3, #57600
 391 000e 6030     		adds	r0, r0, #96
 392 0010 CEF20003 		movt	r3, 57344
 393 0014 43F82020 		str	r2, [r3, r0, lsl #2]
 394 0018 7047     		bx	lr
 395              		.cfi_endproc
 396              	.LFE222:
 397              		.size	nvicClearPending, .-nvicClearPending
 398 001a 00BFAFF3 		.text
 398      0080
 399              	.Letext0:
 400              		.file 2 "/usr/include/newlib/machine/_default_types.h"
 401              		.file 3 "/usr/include/newlib/stdint.h"
ARM GAS  /tmp/cctHgLr0.s 			page 22


 402              		.file 4 "../../../os/common/ports/ARMCMx/compilers/GCC/chtypes.h"
 403              		.file 5 "../../../os/rt/include/chsystypes.h"
 404              		.file 6 "../../../os/rt/include/chschd.h"
 405              		.file 7 "../../../os/common/ext/CMSIS/include/core_cm3.h"
 406              		.file 8 "../../../os/common/ports/ARMCMx/chcore.h"
 407              		.file 9 "../../../os/common/ports/ARMCMx/chcore_v7m.h"
 408              		.file 10 "../../../os/rt/include/chsem.h"
 409              		.file 11 "../../../os/rt/include/chmtx.h"