ARM GAS  /tmp/ccbtJCRQ.s 			page 1


   1              		.syntax unified
   2              		.cpu cortex-m3
   3              		.fpu softvfp
   4              		.eabi_attribute 20, 1
   5              		.eabi_attribute 21, 1
   6              		.eabi_attribute 23, 3
   7              		.eabi_attribute 24, 1
   8              		.eabi_attribute 25, 1
   9              		.eabi_attribute 26, 1
  10              		.eabi_attribute 30, 2
  11              		.eabi_attribute 34, 1
  12              		.eabi_attribute 18, 4
  13              		.thumb
  14              		.file	"test_sequence_007.c"
  15              		.text
  16              	.Ltext0:
  17              		.section	.gnu.lto_.jmpfuncs.53d92863ee8fd734,"",%progbits
  18 0000 789C6362 		.ascii	"x\234cb`b\300\006\326\000\261\004\020\003e\231\230\252"
  18      6062C006 
  18      D600B104 
  18      10036599 
  18      98AA
  19 0012 197E35CC 		.ascii	"\031~5\314h\020\310dd\220c`\234\3330\303!\223\221\021"
  19      6810C864 
  19      64906360 
  19      9CDB30C3 
  19      21939111 
  20 0026 AC0A21C3 		.ascii	"\254\012!\303$\307\300\016\221a\206\030\300\310\000"
  20      24C7C00E 
  20      91618618 
  20      C0C800
  21 0035 359915C8 		.ascii	"5\231\025\310\210`\314dd9\301\004\327\322\001\322\302"
  21      8860CC64 
  21      6439C104 
  21      D7D201D2 
  21      C2
  22 0046 9ACC08B5 		.ascii	"\232\314\010\265\214\205\221\011\244\253\014\252\222"
  22      8C859109 
  22      A4AB0CAA 
  22      92
  23 0053 CD05C840 		.ascii	"\315\005\310@\021pF\027pB\027p\004\331\344\350\344\354"
  23      11704617 
  23      70421770 
  23      04D9E4E8 
  23      E4EC
  24 0065 C2209899 		.ascii	"\302 \230\231W\226\230\223\231\242P\234ZX\232\232\227"
  24      57969893 
  24      99A2509C 
  24      5A589A9A 
  24      97
  25 0076 9CCA0000 		.ascii	"\234\312\000\000\333\023 \013"
  25      DB13200B 
  26              		.text
  27              		.section	.gnu.lto_.inline.53d92863ee8fd734,"",%progbits
  28 0000 789C6362 		.ascii	"x\234cb`b\300\006\312\2414PV\341$##\003\223\330\205"
  28      6062C006 
  28      CAA13450 
ARM GAS  /tmp/ccbtJCRQ.s 			page 2


  28      56E12423 
  28      230393D8 
  29 0015 366606B6 		.ascii	"6f\006\266\005\362`\345\314<`\031F.\220\012nF\006\306"
  29      05F260E5 
  29      CC3C6019 
  29      462E900A 
  29      6E4606C6 
  30 0029 097ECC3C 		.ascii	"\011~\314<@E\023\374&\370\201\370\014\354\002\014\014"
  30      404513FC 
  30      26F881F8 
  30      0CEC020C 
  30      0C
  31 003a AC13FC18 		.ascii	"\254\023\374\030\300\210\205\201\337\210\021l\017\212"
  31      C0888581 
  31      DF88116C 
  31      0F8A
  32 0048 7EA01C2E 		.ascii	"~\240\034.\232\001\000ot\016\007"
  32      9A01006F 
  32      740E07
  33              		.text
  34              		.section	.gnu.lto_.pureconst.53d92863ee8fd734,"",%progbits
  35 0000 789C6362 		.ascii	"x\234cb`b`e\200\000&\006I\026\011\000\001\007\000A"
  35      60626065 
  35      80002606 
  35      49160900 
  35      01070041 
  36              		.text
  37              		.section	.gnu.lto_test_007_001_execute.53d92863ee8fd734,"",%progbits
  38 0000 789C9554 		.ascii	"x\234\225T[kSY\024^k\237s\3224M\215\321V\353\255\255"
  38      5B6B5359 
  38      145E6B9F 
  38      73D2344D 
  38      8DD156EB 
  39 0016 B7979149 		.ascii	"\267\227\221I\024\004)\210x\373\011\012\372$\3614\244"
  39      14042988 
  39      78FB090A 
  39      FA24F134 
  39      A4
  40 0027 079A3A36 		.ascii	"\007\232:6\351\274\314\203\273M\035}\360\022\364\245"
  40      E9BCCC83 
  40      BB4D1D7D 
  40      F012F4A5 
  41 0037 2AE2A554 		.ascii	"*\342\245TA\304\013\202\212x\211\024$\245j\355\203\240"
  41      41C40B82 
  41      8A788914 
  41      24A56AED 
  41      83A0
  42 0049 224C1807 		.ascii	"\"L\030\007\025\005\025_\2523\203\235\265\366>\373L"
  42      1505155F 
  42      AA33839D 
  42      B5F63EFB 
  42      4C
  43 005a B5E38887 		.ascii	"\265\343\210\207d\237u\326Z\337\267\327e\257-@\300\227"
  43      649F75D6 
  43      5ADFB7D7 
  43      65AF2D40 
  43      C097
ARM GAS  /tmp/ccbtJCRQ.s 			page 3


  44 006c CF4AFA4F 		.ascii	"\317J\372O\013\001\364\321\033C\200\242x\037\240;,\320"
  44      0B01F4D1 
  44      1B4380A2 
  44      781FA03B 
  44      2CD0
  45 007e D682A585 		.ascii	"\326\202\245\205\333a[X\245U #\316\203\030\310\250\203"
  45      DB615B58 
  45      A5552023 
  45      CE8318C8 
  45      A883
  46 0090 C86A40D8 		.ascii	"\310j@\330!,\333\301\035\233\221\331\304\0028!\345\201"
  46      212CDBC1 
  46      1D9B91D9 
  46      C4023821 
  46      E581
  47 00a2 CAC08B97 		.ascii	"\312\300\213\227xH\226z\217\313\277\307\307\021=\244"
  47      7848967A 
  47      8FCBBFC7 
  47      C7113DA4 
  48 00b2 9D9723B8 		.ascii	"\235\227#\270\010\233\350\003\233\325K\330\237\207\242"
  48      089BE803 
  48      9BD54BD8 
  48      9F87A2
  49 00c1 B1A5B15F 		.ascii	"\261\245\261_\367\317\222\307{\212\362\023A=\264\004"
  49      F7CF92C7 
  49      7B8AF213 
  49      413DB404 
  50 00d1 ACF816F2 		.ascii	"\254\370\026\362\274(U\306\307\357^\252\374~\037\343"
  50      BC2855C6 
  50      C7EF5EAA 
  50      FC7E1FE3 
  51 00e1 331052D8 		.ascii	"3\020R\330\217\013\300\001\017\355\020-N\230\026\210"
  51      8F0BC001 
  51      0FED102D 
  51      4E981688 
  52 00f1 92FA04A9 		.ascii	"\222\372\004\251k\351#\024\243\245*\356;\326\261\271"
  52      6BE92314 
  52      A3A52AEE 
  52      3BD6B1B9 
  53 0101 9E963071 		.ascii	"\236\2260q9\320+e\261Y\373\252\220\212\245\033w\366"
  53      39D02B65 
  53      B159FBAA 
  53      908AA51B 
  53      77F6
  54 0113 4C0CA95A 		.ascii	"L\014\251Z@\313\267B\002\266\323\263\201V\252\330F\024"
  54      40CBB742 
  54      02B6D3B3 
  54      8156AAD8 
  54      4614
  55 0125 F4B2EE41 		.ascii	"\364\262\356A\317\325\253\257\032R8\200\016\034\201"
  55      CFD5ABAF 
  55      1A523880 
  55      0E1C81
  56 0134 C3DD524E 		.ascii	"\303\335RN\245\024\177\201?\345n\226\"Y\005b\302\010"
  56      A5147F81 
  56      3FE56E96 
  56      22590562 
ARM GAS  /tmp/ccbtJCRQ.s 			page 4


  56      C208
  57 0146 18C9621D 		.ascii	"\030\311b\035!\237~x\365\310\326\320\014:?\302YF\324"
  57      219F7E78 
  57      F5C8D6D0 
  57      0C3A3FC2 
  57      5946D4
  58 0159 304B91A5 		.ascii	"0K\221\245(\263\364\261T\233E\364\261\265\001\313\224"
  58      28B3F4B1 
  58      549B45F4 
  58      B1B501CB 
  58      94
  59 016a 09A111D9 		.ascii	"\011\241\021\331\223\353\307~[\356\347j\222\226oO%\203"
  59      93EBC77E 
  59      5BEEE76A 
  59      92966F4F 
  59      2583
  60 017c 0218A134 		.ascii	"\002\030\2414\374p4NtzcW1\323K\235\244\014\326-\201"
  60      FC70344E 
  60      747A6357 
  60      31D34B9D 
  60      A40CD62D 
  61 0191 3352CACA 		.ascii	"3R\312\312_\037\007~\240\"\352/\331\342a,\310nj\220"
  61      5F1F077E 
  61      A022EA2F 
  61      D9E2612C 
  61      C86E6A90 
  62 01a5 5D3CAB60 		.ascii	"]<\253`\034M\\\305\261\225\311Rx\216\210I\306@\326\021"
  62      1C4D5CC5 
  62      B195C952 
  62      788E8849 
  62      C640D611 
  63 01b9 7EB83C3B 		.ascii	"~\270<;\205\347U\266\365>q\216z\024\020O\243\355\231"
  63      85E755B6 
  63      F53E718E 
  63      7A14104F 
  63      A3ED99
  64 01cc 0B7C2EC1 		.ascii	"\013|.\301\370\013\006_\330=8\374\360b\265\251W\210"
  64      F80B065F 
  64      D83D38FC 
  64      F062B5A9 
  64      5788
  65 01de 48D8D961 		.ascii	"H\330\331a\367\021h0\372p\020\335t\027-\320Y9\252\354"
  65      F7116830 
  65      FA7010DD 
  65      74172DD0 
  65      5939AAEC 
  66 01f2 65C138B6 		.ascii	"e\3018\266\207=\254s\321\257=g\355a\275\212q\250\030"
  66      873DAC73 
  66      D1AF3D67 
  66      ED61BD8A 
  66      71A818
  67 0205 D14AEE86 		.ascii	"\321J\356\206N\374\337\266\316\010\250gf\0255\263\316"
  67      4EFCDFB6 
  67      CE08A867 
  67      661535B3 
  67      CE
  68 0216 FC8F8664 		.ascii	"\374\217\206d\370\340\251\243\361\346{\217\006\327s"
ARM GAS  /tmp/ccbtJCRQ.s 			page 5


  68      F8E0A9A3 
  68      F1E67B8F 
  68      06D773
  69 0225 087A2A37 		.ascii	"\010z*7\012U\301\301\345#m\372\245\004V(o\263\341F\022"
  69      0A55C1C1 
  69      E5236DFA 
  69      A5045628 
  69      6FB3E146 
  70 023a 4BABAC11 		.ascii	"K\253\254\021(Tn\016\206RxS\225\"\032\354\325\340j("
  70      28546E0E 
  70      86527853 
  70      95221AEC 
  70      D5E06A28 
  71 024e 8DC42CE6 		.ascii	"\215\304,\346\027\332E\317\0049\252h\257\355\034\333"
  71      17DA45CF 
  71      0439AA68 
  71      AFED1CDB 
  72 025e 338F83AF 		.ascii	"3\217\203\257\245hy*\310\240\332\261Ho\302a\335z\346"
  72      A568792A 
  72      C8A0DAB1 
  72      486FC261 
  72      DD7AE6
  73 0271 B367D156 		.ascii	"\263g\321V8R\206\315\244W\016\356\372c\024\017\024d"
  73      385286CD 
  73      A4570EEE 
  73      FA63140F 
  73      1464
  74 0283 59F69668 		.ascii	"Y\366\226h\260\232<\236\334\223\324\307\377\037-\342"
  74      B09A3C9E 
  74      DC93D4C7 
  74      FF1F2DE2 
  75 0293 5244EFDE 		.ascii	"RD\357\336_i7\201\235R9sgwV\312\317\"Z\015\020d4\333"
  75      5F693781 
  75      9D523973 
  75      677756CA 
  75      CF225A0D 
  76 02ab A5CB4DD7 		.ascii	"\245\313M\327:J\021{8G\345\360\272pz_\302\344\037\313"
  76      3A4A117B 
  76      3847E5F0 
  76      BA707A5F 
  76      C2E41FCB 
  77 02bf F0B88C80 		.ascii	"\360\270\214\200=\011=\327\305*\037\035\363p\236>^\205"
  77      3D093DD7 
  77      C52A1F1D 
  77      F3709E3E 
  77      5E85
  78 02d1 B1BD2D06 		.ascii	"\261\275-\006\032\317 \006\243:\241^\375\252^qSu\033"
  78      1ACF2006 
  78      A33AA15E 
  78      FDAA5E71 
  78      53751B
  79 02e4 E8D2B474 		.ascii	"\350\322\264t\015\214\221\020e\350}\336]c\2704Q\320"
  79      0D8C9110 
  79      65E87DDE 
  79      5D63B834 
  79      51D0
  80 02f6 2B780CE8 		.ascii	"+x\014\3507O\224-\"\263\372\252\230\313\341\373\204"
ARM GAS  /tmp/ccbtJCRQ.s 			page 6


  80      374F942D 
  80      22B3FAAA 
  80      98CBE1FB 
  80      84
  81 0307 3B383C58 		.ascii	";8<X3)\340FW\335e\334\300&]\224\273\3758\311\253\331"
  81      3329E046 
  81      57DD65DC 
  81      C0265D94 
  81      BBFD38C9 
  82 031d C56AE5C5 		.ascii	"\305j\345\305\232\006\017\3477B7\036\225}\253=\212\314"
  82      9A060FE7 
  82      3742371E 
  82      957DAB3D 
  82      8ACC
  83 032f F7F64D0B 		.ascii	"\367\366M\013\033a\227oZdL\036.\006\030\205\200W?\033"
  83      1B61976F 
  83      5A644C1E 
  83      2E061885 
  83      80573F1B 
  84 0343 28A30731 		.ascii	"(\243\0071>\227\313\022\211\244\376\345\323\271|\262"
  84      3E97CB12 
  84      89A4FEE5 
  84      D3B97CB2 
  85 0353 339FCC6D 		.ascii	"3\237\314m\353\352t\323\372\223\227-\271\364\366\256"
  85      EBEA74D3 
  85      FA93972D 
  85      B9F4F6AE 
  86 0363 74879BDE 		.ascii	"t\207\233\336\262t\351\212\204\013\"\377\023zV6\227"
  86      B274E98A 
  86      840B22FF 
  86      137A5636 
  86      97
  87 0374 591840B7 		.ascii	"Y\030@\267\345\030\350u\270\355]\255\351\244\333\226"
  87      E518E875 
  87      B8ED5DAD 
  87      E9A4DB96 
  88 0384 6FEB4CA7 		.ascii	"o\353L\247Zs\2116h\372\252\017\021\220\335Y\263v\335"
  88      5A738936 
  88      68FAAA0F 
  88      1190DD59 
  88      B376DD
  89 0397 7A887B1D 		.ascii	"z\210{\035?\247\332\275\326f\263\025\374\003\271r\232"
  89      3FA7DABD 
  89      D666B315 
  89      FC03B972 
  89      9A
  90 03a8 36       		.ascii	"6"
  91              		.text
  92              		.section	.gnu.lto_msg_thread1.53d92863ee8fd734,"",%progbits
  93 0000 789C6362 		.ascii	"x\234cb`b@\007\222@,\304\310\300`\014\244\031\231\031"
  93      60624007 
  93      92402CC4 
  93      C8C0600C 
  93      A4199919 
  94 0014 1899269C 		.ascii	"\030\231&\234c`h\344`bd\0041\030\030\031\352\231\030"
  94      636068E4 
  94      60626404 
ARM GAS  /tmp/ccbtJCRQ.s 			page 7


  94      31181819 
  94      EA9918
  95 0027 EB2319C1 		.ascii	"\353#\031\301j\3273\035x\360\377\377\272+[\037U0\262"
  95      6AD7331D 
  95      78F0FFFF 
  95      BA2B5B1F 
  95      5530B2
  96 003a 3331E682 		.ascii	"31\346\202EY\031Z\032\032&(00$\203\271!@\022\2443\224"
  96      4559195A 
  96      1A1A2628 
  96      30302483 
  96      B9214012 
  97 0051 91094433 		.ascii	"\221\011D3\237gh}\360\306\"\221q!#+P\266\232\341WCG"
  97      9F67687D 
  97      F0C62291 
  97      7121232B 
  97      50B69AE1 
  98 0068 83402623 		.ascii	"\203@&#P5\304\314tF\246\010\306LFFG\206L\240\016\006"
  98      5035C4CC 
  98      7446A608 
  98      C64C4646 
  98      47864CA0 
  99 007e A0F205B9 		.ascii	"\240\362\005\271\204U;!T\347\021V\355\214P\235OX\265"
  99      84553B21 
  99      54E71156 
  99      ED8C509D 
  99      4F58B5
 100 0091 0B44F545 		.ascii	"\013D\365E\206\306\007?\230`\312! \004\250\024\350)"
 100      86C6073F 
 100      9860CA21 
 100      2004A814 
 100      E829
 101 00a3 50281AEA 		.ascii	"P(\032\352\351\351CPIjq\211~Q\211~q~iQr*\204\013\"\342"
 101      E9E94350 
 101      496A7189 
 101      7E51897E 
 101      717E6951 
 102 00bd 8B530B4B 		.ascii	"\213S\013KS\363\222S\343\015\014\314\365\222\031\000"
 102      53F39253 
 102      E30D0CCC 
 102      F5921900 
 103 00cd 7CCE4F65 		.ascii	"|\316Oe"
 104              		.text
 105              		.section	.gnu.lto_.symbol_nodes.53d92863ee8fd734,"",%progbits
 106 0000 789C4DCA 		.ascii	"x\234M\312\311\015\3020\024\204\341\031/\020\326\026"
 106      C90DC230 
 106      1484E119 
 106      2F10D616 
 107 0010 A88D4678 		.ascii	"\250\215Fx\221\220@\300\205\002\270\271\224\334i\200"
 107      919040C0 
 107      8502B8B9 
 107      94DC6980 
 108 0020 2DC16193 		.ascii	"-\301a\223(\001!l\021a|\371\374\353\215\202\302\013"
 108      2801216C 
 108      11617CF9 
 108      FCEB8D82 
 108      C20B
ARM GAS  /tmp/ccbtJCRQ.s 			page 8


 109 0032 CD537B0A 		.ascii	"\315S{\012\261\336\002\"\233\305\330\236\030~\260%\031"
 109      B1DE0222 
 109      9BC5D89E 
 109      187EB025 
 109      19
 110 0043 795005D4 		.ascii	"yP\005\324\216\202\277\315\231:\036\21746p\2405\242"
 110      8E82BFCD 
 110      993A1E8F 
 110      343670A0 
 110      35A2
 111 0055 79A3A8EF 		.ascii	"y\243\250\357&\317\311+E\247\272PL\252\232bSyJ+UEi\247"
 111      26CFC92B 
 111      45A7BA50 
 111      4CAA9A62 
 111      53794A2B 
 112 006d BA53B25F 		.ascii	"\272S\262_i\014\340\252w\260\0177\253'\032=\370y\264"
 112      690CE0AA 
 112      77B00F37 
 112      AB271A3D 
 112      F879B4
 113 0080 0BB78C76 		.ascii	"\013\267\214vP\254\236#\215\014>j\206\230\226a\037t"
 113      50AC9E23 
 113      8D0C3E6A 
 113      86989661 
 113      1F74
 114 0092 8D45A30F 		.ascii	"\215E\243\017\342\003\201\272L%"
 114      E20381BA 
 114      4C25
 115              		.text
 116              		.section	.gnu.lto_.refs.53d92863ee8fd734,"",%progbits
 117 0000 789C6362 		.ascii	"x\234cb`b\020g\200\0006\006FF \227\231\211\205\221\225"
 117      60621067 
 117      80003606 
 117      46462097 
 117      99898591 
 118 0015 9191918D 		.ascii	"\221\221\221\215\211\235\221\235\211\201\001\000\005"
 118      899D919D 
 118      89810100 
 118      05
 119 0022 C70051   		.ascii	"\307\000Q"
 120              		.text
 121              		.section	.gnu.lto_.decls.53d92863ee8fd734,"",%progbits
 122 0000 789CBD5B 		.ascii	"x\234\275[{t\024U\232\277U\335\235\356&\341\245\342"
 122      7B741455 
 122      9ABF55DD 
 122      9DEE26E1 
 122      A5E2
 123 0012 817350E3 		.ascii	"\201sP\343\256\263\243\356J\300q\224\231sF\231e\317"
 123      AEB3A3EE 
 123      4AC07194 
 123      99734699 
 123      65CF
 124 0024 71FF61CF 		.ascii	"q\377a\317\236q\347\254\347\314\331\323St\212$k\322"
 124      9E71E7AC 
 124      E7CCD9D3 
 124      53748A24 
 124      6BD2
ARM GAS  /tmp/ccbtJCRQ.s 			page 9


 125 0036 DD535DE1 		.ascii	"\335S]\341\261\373\207E\300\200\217\325<xCb# !(\210"
 125      B1FB8745 
 125      C0808FD5 
 125      3C784362 
 125      23202128 
 126 004b 0F22C3C3 		.ascii	"\017\"\303\303\006\307\020yC\200 \321\020F\221\327\014"
 126      06C71079 
 126      438020D1 
 126      104691D7 
 126      0C
 127 005c C24096A7 		.ascii	"\302@\226\247d\277\373\335\252\352\252\352\252\356\252"
 127      64BFFBDD 
 127      AAEAAAEA 
 127      AAEEAA
 128 006b 306E9FDC 		.ascii	"0n\237\334\233\352\252\373\375\356\367\335\357q\277"
 128      9BEAAAFB 
 128      FDEEF7DD 
 128      EF71BF
 129 007a 7B6F354F 		.ascii	"{o5Ox\362!GH?|v\374\202\220\366\002B|\204\220\247\241"
 129      78F22147 
 129      483F7C76 
 129      FC8290F6 
 129      02427C84 
 130 0091 04A12C87 		.ascii	"\004\241,\207\362\026\224\325PZ\240\004\240\264BYG\330"
 130      F21694D5 
 130      505AA004 
 130      A0B44259 
 130      47D8
 131 00a3 270CA50D 		.ascii	"'\014\245\015\312\026(i(\273\241\354\205r\020\312\213"
 131      CA162869 
 131      28BBA1EC 
 131      857210CA 
 131      8B
 132 00b4 805B03A5 		.ascii	"\200[\003\245\016\012\300\222\371\360\177!\224eP\316"
 132      0E0AC092 
 132      F9F07F21 
 132      946550CE 
 133 00c4 40390FC5 		.ascii	"@9\017\305\307\023\323\207\342\374\035\224\303P\206"
 133      C713D387 
 133      E2FC1D94 
 133      C35086
 134 00d3 402952FB 		.ascii	"@)R\373|F\345\207\342\254\200rF\345\241\010\350\027"
 134      7C46E587 
 134      E2AC8072 
 134      46E5A108 
 134      E817
 135 00e5 03CE2228 		.ascii	"\003\316\"(\203\341\332\017\367V\302u\023\224!\360\375"
 135      83E1DA0F 
 135      F756C275 
 135      139421F0 
 135      FD
 136 00f6 087C1FCA 		.ascii	"\010|\037\3123\236g\301\275\263P\206\301\367\341P\024"
 136      339E67C1 
 136      BDB35086 
 136      C1F7E150 
 136      14
 137 0107 B8BE0BFE 		.ascii	"\270\276\013\376\037\202gw\303\377}\360\277\017\356"
ARM GAS  /tmp/ccbtJCRQ.s 			page 10


 137      1F826777 
 137      C3FF7DF0 
 137      BF0FEE
 138 0116 6D85FFF7 		.ascii	"m\205\377\367\360\331\262o'llV@\233\365PN\303\365 \225"
 138      F0D9B26F 
 138      276C6C56 
 138      409BF550 
 138      4EC3F520 
 139 012b E711D07E 		.ascii	"\347\021\320~\024\317\344mSe?\250\216\305nul\0026c0"
 139      14CFE46D 
 139      53653FA8 
 139      8EC56E75 
 139      6C023663 
 140 0140 DA227F9B 		.ascii	"\332\"\177\233\332\307}<\223\257\236c\367y\365\031\035"
 140      DAC77D3C 
 140      93AF9E63 
 140      F779F519 
 140      1D
 141 0151 4B7A6B93 		.ascii	"Kzk\223\231\214\024\222W\024\245FI\325*\377\3341d8\251"
 141      998C1492 
 141      5714A546 
 141      49D52AFF 
 141      DC316438 
 142 0166 53E053BC 		.ascii	"S\340S\274hH\230\314\245\267{W)#G\022\362<'pp+\204\027"
 142      684898CC 
 142      A5B77B57 
 142      29234712 
 142      F23C2770 
 143 017e 456104FA 		.ascii	"Ea\004\372\021Y\011M\241=/p+\2700t\304s\304\366\303"
 143      1159094D 
 143      A13D2F70 
 143      2BB83074 
 143      C473C4F6 
 144 0193 9ED30F25 		.ascii	"\236\323\017%g\327\332U?\247\243?\254\241\007T\252\267"
 144      67D7DA55 
 144      3FA7A33F 
 144      ACA10754 
 144      AAB7
 145 01a5 B8E1AAA9 		.ascii	"\270\341\252\251\314\245\\1\026\261\205JQ\254Q\370U"
 145      CCA55C31 
 145      16B1854A 
 145      51AC51F8 
 145      55
 146 01b6 8AB70DFD 		.ascii	"\212\267\015\375\024\2053\027~\225\023'\272\345\\a\236"
 146      14853317 
 146      7E951327 
 146      BAE55C61 
 146      9E
 147 01c7 F160DCAA 		.ascii	"\361`\334\252\364s9\015`\270\012\320\342\231\3255\016"
 147      F473390D 
 147      60B80AD0 
 147      E299D535 
 147      0E
 148 01d8 AC0ECBC3 		.ascii	"\254\016\313\303\352j\007V\357%\363\325\236\025N\026"
 148      EA6A0756 
 148      EF25F3D5 
 148      9E154E16 
ARM GAS  /tmp/ccbtJCRQ.s 			page 11


 149 01e8 B8A74738 		.ascii	"\270\247G8\"\254\345\356\305+\037\332\006\334x\246\020"
 149      22ACE5EE 
 149      C52B1FDA 
 149      06DC78A6 
 149      10
 150 01f9 AA5FFB74 		.ascii	"\252_\373t}9\021\266B\327\217\2225L\353\177\264Q\266"
 150      7D3911B6 
 150      42D78F92 
 150      354CEB7F 
 150      B451B6
 151 020c 497A7B1C 		.ascii	"Iz{\034\264\232\272\336\255+_\373\205\242\204\004n\035"
 151      B49ABADE 
 151      AD2B5FFB 
 151      85A28404 
 151      6E1D
 152 021e 5ACEB31C 		.ascii	"Z\316\263\034\300\277\313=\352\025'\265\271}\204\342"
 152      C0BFCB3D 
 152      EA1527B5 
 152      B97D84E2 
 153 022e 17B80D88 		.ascii	"\027\270\015\210\362\302\000Qz\273v\266\215Gn>D\234"
 153      F2C20051 
 153      7ABB76B6 
 153      8D476E3E 
 153      449C
 154 0240 E59C1948 		.ascii	"\345\234\031H\340\012\302f{\206\357Z\003\212\006_iO"
 154      E00AC266 
 154      7B86EF5A 
 154      038A065F 
 154      694F
 155 0252 D7682CE4 		.ascii	"\327h,\344^T\357\320/A\362\377N\367\000iV\322\027{\333"
 155      5E54EFD0 
 155      2F41F2FF 
 155      4EF70069 
 155      56D2177B 
 156 0267 5EFD68E4 		.ascii	"^\375h\344b%=[\351\357\177Q\3259O\276\262\010\366\020"
 156      62253D5B 
 156      E9EF7F51 
 156      D5394FBE 
 156      B208F610 
 157 027b 59A1280D 		.ascii	"Y\241(\015\312\373\212\022F+\340!\312\321\026m\334\003"
 157      CAFB8A12 
 157      462BE021 
 157      CAD1166D 
 157      DC03
 158 028d B6C3858D 		.ascii	"\266\303\205\215\010\215\263\253h\377J\213\342CK#*\215"
 158      088DB3AB 
 158      68FF4A8B 
 158      E2434B23 
 158      2A8D
 159 029f 89E78F39 		.ascii	"\211\347\2179S\204b|\2457\265\277>JI\325\244\373\373"
 159      5384627C 
 159      A537B5BF 
 159      3E4A49D5 
 159      A4FBFB
 160 02b2 9F21EE4D 		.ascii	"\237!\356Mv\253j\262\0313\345a\0220\013c\317\326\026"
 160      76AB6AB2 
 160      1933E561 
ARM GAS  /tmp/ccbtJCRQ.s 			page 12


 160      12300B63 
 160      CFD616
 161 02c5 2B5BDBB2 		.ascii	"+[\333\262\331\352\255\353\255?t\272\206\253\237\225"
 161      D9EAADEB 
 161      AD3F74BA 
 161      86AB9F95 
 162 02d5 EA502EF6 		.ascii	"\352P.\366\367\0175s\026\"s0\024\276\244\314\344~\227"
 162      F70F3573 
 162      16227330 
 162      14BEA4CC 
 162      E47E97
 163 02e8 3F16EEE0 		.ascii	"?\026\356\340B\300]\223s0\244\015\210\252Iv\255]q\316"
 163      42C05D93 
 163      7330A40D 
 163      88AA4976 
 163      AD5D71CE 
 164 02fc BEB7DDEC 		.ascii	"\276\267\335\354\264&\3277\305\246,\312\366L\300\260"
 164      B426D737 
 164      C5A62CCA 
 164      F64CC0B0 
 165 030c 23D6037D 		.ascii	"#\326\003}z\344\242!\366\322\011\334J\356Gn\243xV\377"
 165      7AE4A221 
 165      F6D209DC 
 165      4AEE476E 
 165      A37856FF 
 166 0320 1D99FE4D 		.ascii	"\035\231\376M\032D%\256\340\255Jd\215v\331j\351r\347"
 166      1A4425AE 
 166      E0AD4A64 
 166      8D76D96A 
 166      E972E7
 167 0333 37C26265 		.ascii	"7\302be\207f\324[\321\250\277v\200\330c\257\350\206"
 167      8766D45B 
 167      D1A8BF76 
 167      80D863AF 
 167      E886
 168 0345 EF1C159D 		.ascii	"\357\034\025\235\323\004\367Y\243&\225\333\"M\237\003"
 168      D304F759 
 168      A32695DB 
 168      224D9F03 
 169 0355 2B076C59 		.ascii	"+\007lYY\262\344\223Q\312r\257\256p(\207!\334E\352q"
 169      59B2E493 
 169      51CA72AF 
 169      AE702887 
 169      21DC45EA 
 170 036a BA3284BB 		.ascii	"\2722\204\273\224_\003\370'\242\307\273\245\335\237"
 170      945F03F8 
 170      27A2C7BB 
 170      A5DD9F
 171 0379 FC1CE3DD 		.ascii	"\374\034\343\335\021\356.\200\331\3453\263\235\027\206"
 171      11EE2E80 
 171      D9E533B3 
 171      9D1786
 172 0388 279D4872 		.ascii	"'\235Hr\014\310\031!s\200\336\233\315_\325p3A\006\366"
 172      0CC81921 
 172      7380DE9B 
 172      CD5FD570 
 172      334106F6 
ARM GAS  /tmp/ccbtJCRQ.s 			page 13


 173 039c 8CD88C86 		.ascii	"\214\330\214\206\372y\220\244\200 }u\3272NI\355\340"
 173      FA7990A4 
 173      80207D75 
 173      D7324E49 
 173      EDE0
 174 03ae 6CBA9CA0 		.ascii	"l\272\234\240\365\03020\276\364p=7\033\361\277D\326"
 174      F5183230 
 174      BEF4703D 
 174      371BF1BF 
 174      44D6
 175 03c0 6FDBB39E 		.ascii	"o\333\263\236\232\340\004\304\223\327\375\224\344D\026"
 175      9AE004C4 
 175      93D7FD94 
 175      E44416
 176 03cf EB3DFB35 		.ascii	"\353=\3735\326O\270`\275&}\360\225\246Q\224u\201;\314"
 176      D64FB860 
 176      BD267DF0 
 176      95A65194 
 176      75813BCC 
 177 03e3 D1D0F9A6 		.ascii	"\321\320\371\246\216k\247:}\232'Dg\314\214whWQ\235\240"
 177      8E6BA73A 
 177      7D9A2744 
 177      67CC8C77 
 177      6857519D 
 178 03f8 81ADF40C 		.ascii	"\201\255\364\014Vl\307\252f\200\031i\005\356$\372\362"
 178      566CC7AA 
 178      66801969 
 178      05EE24FA 
 178      F2
 179 0409 1FB907A1 		.ascii	"\037\271\007\241\376\006j\375\303\2235~M\253vC\227_"
 179      FE066AFD 
 179      C393357E 
 179      4DAB7643 
 179      975F
 180 041b 84EBBB96 		.ascii	"\204\353\273\226\341\220\2501\305M\036\220R\363\200"
 180      E190A831 
 180      C54D1E90 
 180      52F380
 181 042a 3338F3AE 		.ascii	"38\363\256\367\333L\341\256\2006\327~\266\235\253A\365"
 181      F7DB4CE1 
 181      AE8036D7 
 181      7EB69DAB 
 181      41F5
 182 043c 9D47A8B6 		.ascii	"\235G\250\266\001Cu\315\331\3623\344\351\002\002\245"
 182      014375CD 
 182      D9F233E4 
 182      E90202A5 
 183 044c FDD66C20 		.ascii	"\375\326l h\311\006\202\346\3319\030\316\\\320Iy(\371"
 183      68C90682 
 183      E6D93918 
 183      CE5CD049 
 183      7928F9
 184 045f 819BF364 		.ascii	"\201\233\363d\267Uqv\346\222\231u,\212Szo\364\364\360"
 184      B7557176 
 184      E6929975 
 184      2C8A537A 
 184      6FF4F4F0 
ARM GAS  /tmp/ccbtJCRQ.s 			page 14


 185 0473 345BF069 		.ascii	"4[\360i\376S\3404F<9\200}]\316\362\237o;\036Y\244(\303"
 185      FE53E034 
 185      463C3980 
 185      7D5DCEF2 
 185      9F6F3B1E 
 186 048b D8A3FCEE 		.ascii	"\330\243\374\356\363\321\256\205h+y\003\030\257u\377"
 186      F3D1AE85 
 186      682B7903 
 186      18AF75FF 
 187 049b 10763F27 		.ascii	"\020v?'@\273\277f\355\276\353\\\307oX\367\327\\u\277"
 187      40BBBF66 
 187      EDBEEB5C 
 187      C76F58F7 
 187      D75C75BF 
 188 04af A96B5E76 		.ascii	"\251k^v\367\216\201W\265\214\233\337\236\031\375&vr"
 188      F78E8157 
 188      B58C9BDF 
 188      9E19FD26 
 188      7672
 189 04c1 0BBD747B 		.ascii	"\013\275t{\300j\032\317\030\347:-\265\326\033@\250\325"
 189      C06A1ACF 
 189      18E73A2D 
 189      B5D61B40 
 189      A8D5
 190 04d3 B91F5090 		.ascii	"\271\037P\220\0001\317\374\307\032\310\327^.\320x\330"
 190      0031CFFC 
 190      C71AC8D7 
 190      5E2ED078 
 190      D8
 191 04e4 EB19B1D8 		.ascii	"\353\031\261\3304\020[\2720\3540\260\003n\300\034\355"
 191      34105BBA 
 191      30EC30B0 
 191      036EC01C 
 191      ED
 192 04f5 A826BDCD 		.ascii	"\250&\275\315\010\326\351\031\314\314\331\001#\330Q"
 192      08D6E919 
 192      CCCCD901 
 192      23D851
 193 0504 3760C39C 		.ascii	"7`\303\2349;d\004\373\3023\230\231\263\303F\260/\335"
 193      393B6404 
 193      FBC23398 
 193      99B3C346 
 193      B02FDD
 194 0517 808D74E6 		.ascii	"\200\215t\346\354\250\021\254\3273\230\231\263cF\260"
 194      ECA811AC 
 194      D7339899 
 194      B36346B0 
 195 0527 6FDC8015 		.ascii	"o\334\200\025\333p\246\177\234\222\220\253\231\234\216"
 195      DB70A67F 
 195      9C9290AB 
 195      999C8E
 196 0536 27A7035A 		.ascii	"'\247\003Z@\360h\323$\203q.\3405\200\231\344\206\331"
 196      40F068D3 
 196      2483712E 
 196      E0358099 
 196      E486D9
 197 0549 FBC45B5C 		.ascii	"\373\304[\\\343,\245c\2546\203^p\203\230\303`\352v\033"
ARM GAS  /tmp/ccbtJCRQ.s 			page 15


 197      E32CA563 
 197      AC36835E 
 197      708398C3 
 197      60EA761B 
 198 055d A6E32B9E 		.ascii	"\246\343+\236\301\314jif`\035\010v\303\015X\016\203"
 198      C1CC6A69 
 198      66601D08 
 198      76C30D58 
 198      0E83
 199 056f 3940C1EC 		.ascii	"9@\301\354r\370t\2552\227\233\271at\316\024\012b\330"
 199      72F874AD 
 199      32979BB9 
 199      6174CE14 
 199      0A62D8
 200 0582 7DAD18C3 		.ascii	"}\255\030\303\226\360tz\353\017\330\316\223\256\260"
 200      96F0747A 
 200      EB0FD8CE 
 200      93AEB0
 201 0591 36D7EED7 		.ascii	"6\327\356\327&\335&\004{\245`\300`\251\256\235\243\351"
 201      26DD2604 
 201      7BA560C0 
 201      60A9AE9D 
 201      A3E9
 202 05a3 523E8540 		.ascii	"R>\205@\215\005\326\310\032\266L\272a\363\264\030\016"
 202      8D05D6C8 
 202      1AB64CBA 
 202      61F3B418 
 202      0E
 203 05b4 672EFAB5 		.ascii	"g.\372\265\217y\011\366\203\3228y\312b\336\340)\315"
 203      8F7909F6 
 203      83D23879 
 203      CA62DEE0 
 203      29CD
 204 05c6 055E356F 		.ascii	"\005^5o\266\362\033=\377\313/T\3223}\206\3359\247E\233"
 204      B6F21B3D 
 204      FFCB2F54 
 204      D2337D86 
 204      DD39A745 
 205 05db 96605D39 		.ascii	"\226`]9\357\303df\025\216\353*{\005\271\000\332\\\373"
 205      EFC36466 
 205      158EEB2A 
 205      7B05B900 
 205      DA5CFB
 206 05ee EEDF2350 		.ascii	"\356\337#P\013\002\255\0330P\327\234f\266\331\262\026"
 206      0B02AD1B 
 206      3050D79C 
 206      66B6D9B2 
 206      16
 207 05ff 81366669 		.ascii	"\2016fi\232\263h\2323k@_x\252\353\316\037\252-d~Vu\231"
 207      9AB3689A 
 207      336B405F 
 207      78AAEBCE 
 207      1FAA2D64 
 208 0617 C4C9113F 		.ascii	"\304\311\021?\365\240t\253\201\273\\\243,\032\353A_"
 208      F5A074AB 
 208      81BB5CA3 
 208      2C1AEB41 
ARM GAS  /tmp/ccbtJCRQ.s 			page 16


 208      5F
 209 0628 17557DBD 		.ascii	"\027U}\275\207\243\323\2365:t\370\275\211\261\317\263"
 209      87A3D39E 
 209      353A74F8 
 209      BD89B1CF 
 209      B3
 210 0639 1821B318 		.ascii	"\030!\263\030\315\375\336\305\270\246\212\361\021\212"
 210      CDFDDEC5 
 210      B8A68AF1 
 210      118A
 211 0647 71F8AF20 		.ascii	"q\370\257 \306\227\236\305\030f\020\003\027x\363\330"
 211      C6979EC5 
 211      18661003 
 211      1778F3D8 
 212 0657 14713769 		.ascii	"\024q7i\310\235\344R~~\317\337m\3120\323G\366q\305\354"
 212      C89DE452 
 212      7E7ECFDF 
 212      6DCA30D3 
 212      47F671C5 
 213 066c 76FE65ED 		.ascii	"v\376e\355\345}\313\324\265!\333\337<\211\274S\332\201"
 213      E57DCBD4 
 213      B521DBDF 
 213      3C89BC53 
 213      DA81
 214 067e A47D4ABA 		.ascii	"\244}J\272n?\316\037\014\354\314\035\201\325\244\337"
 214      6E3FCE1F 
 214      0CECCC1D 
 214      81D5A4DF 
 215 068e 7C435BB8 		.ascii	"|C[\270\342\226\337\245;\204\333\262\337:\035Yr\352"
 215      E296DFA5 
 215      3B84DBB2 
 215      DF3A1D59 
 215      72EA
 216 06a0 230EF14E 		.ascii	"#\016\361N_\323\267k\223\310\037x\312\320\265,c9\314"
 216      5FD3B76B 
 216      93C81F78 
 216      CAD0B52C 
 216      6339CC
 217 06b3 59D26A7A 		.ascii	"Y\322jz\303\320\304I\207\237\032\203\357\253\301;\322"
 217      C3D0C449 
 217      879F1A83 
 217      EFABC13B 
 217      D2
 218 06c4 01D84F5F 		.ascii	"\001\330O_\243\226b0E\324\337\021\",\227UE\344[\002"
 218      A3966230 
 218      45D4DF11 
 218      222C9755 
 218      45E45B02 
 219 06d8 FD56C32A 		.ascii	"\375V\303*BA\026c\267{x\313\012\250\351fo\255:\216\364"
 219      42411663 
 219      B77B78CB 
 219      0AA8E966 
 219      6FAD3A8E 
 220 06ed 597E23ED 		.ascii	"Y~#\355>\025V\032\212\330N\212\300}\313\361*\252\335"
 220      3E15561A 
 220      8AD84E8A 
 220      C07DCBF1 
ARM GAS  /tmp/ccbtJCRQ.s 			page 17


 220      2AAADD
 221 0700 1C9DDF44 		.ascii	"\034\235\337D{\304\216\261\036\366\377?T\327\375\007"
 221      7BC48EB1 
 221      1EF6FF3F 
 221      54D7FD07 
 222 0710 59980B5A 		.ascii	"Y\230\013ZU\276\301:\013x\330\002\347\311\036}\210\334"
 222      55BEC13A 
 222      0B78D802 
 222      E7C91E7D 
 222      88DC
 223 0722 A693D68F 		.ascii	"\246\223\326\217\223I\3556\232\324\201;3\0000\251\366"
 223      9349ED36 
 223      9AD4813B 
 223      330030A9 
 223      F6
 224 0733 95CCA4F2 		.ascii	"\225\314\244\362\231\200\242\2378\015\303\236\273\260"
 224      9980A29F 
 224      380DC39E 
 224      BBB0
 225 0741 E763561B 		.ascii	"\347cV\033\250\357\357\230\243\355\277\271\262\201>"
 225      A8EFEF98 
 225      A3EDBFB9 
 225      B2813E
 226 0750 1B1B3836 		.ascii	"\033\03386@\033\000\203>\3739\207p,kVB\234\031\316\343"
 226      401B0083 
 226      3EFB3987 
 226      702C6B56 
 226      429C19CE 
 227 0765 6AF296E8 		.ascii	"j\362\226\350u`\230u\245\2778ECu/Ow\010kCV\323b#c0\255"
 227      75609875 
 227      A5BF3845 
 227      43752F4F 
 227      77086B43 
 228 0780 CC300ADC 		.ascii	"\3140\012\334q\236\356\216u\363tw\354K\254{x\303\036"
 228      719EEE8E 
 228      75F37477 
 228      EC4BAC7B 
 228      78C31E
 229 0793 9993599C 		.ascii	"\231\223Y\234\310\230\205\300}m\035F\267\213\231\274"
 229      C89885C0 
 229      7D6D1D46 
 229      B78B99BC 
 230 07a3 DD7419AD 		.ascii	"\335t\031\255\357\365\320\235Y\337\215\236}~\334\364"
 230      EFF5D09D 
 230      59DF8D9E 
 230      7D7EDCF4 
 231 07b3 F1B05DF7 		.ascii	"\361\260]\367\216\352\266\247\320m\347g\215\355y\253"
 231      8EEAB6A7 
 231      D06DE767 
 231      8DED79AB 
 232 07c3 DBBAD9BD 		.ascii	"\333\272\331\275Z>PA\364\017OZB"
 232      5A3E5041 
 232      F40F4F5A 
 232      42
 233 07d0 2E52EB62 		.ascii	".R\353b\2331\327\242{\363Q5;\310\273\005\246o\242\357"
 233      9B31D7A2 
 233      7BF35135 
ARM GAS  /tmp/ccbtJCRQ.s 			page 18


 233      3BC8BB05 
 233      A66FA2EF 
 234 07e4 99A9EE45 		.ascii	"\231\251\356E\237GKk\265\214\206\213\275\264MHr\301"
 234      9F474B6B 
 234      B58C868B 
 234      BDB44D48 
 234      72C1
 235 07f6 EAC6379B 		.ascii	"\352\3067\233\367h{\321\027\\\270qM\372\003\323^\264"
 235      F7687BD1 
 235      175CB871 
 235      4DFA03D3 
 235      5EB4
 236 0808 66811772 		.ascii	"f\201\027r[`\316\0215)\361\202\301A.\242\203\\2:\005"
 236      5B60CE11 
 236      3529F182 
 236      C1412EA2 
 236      835C323A 
 237 081d 4F3E7733 		.ascii	"O>w3\372\017;\231\"\204\241C\354\030@\333\326?h\305"
 237      FA0F3B99 
 237      2284A143 
 237      EC1840DB 
 237      D63F68C5 
 238 0831 B30B4426 		.ascii	"\263\013D&<\2436a\361\336\211\371\022\263\322\343n\230"
 238      3CA33661 
 238      F1DE89F9 
 238      12B3D2E3 
 238      6E98
 239 0843 1BEB0CF6 		.ascii	"\033\353\014\366f\2436\270]\230\237|\355\006o\274\223"
 239      66A336B8 
 239      5D989F7C 
 239      ED066FBC 
 239      93
 240 0854 B035E9B6 		.ascii	"\2605\351\266N-9d\233\336\347=\343\231\371;\322h\312"
 240      4E2D3964 
 240      9BDEE73D 
 240      E399F93B 
 240      D268CA
 241 0867 E7AEB881 		.ascii	"\347\256\270\201\233\340Z\367\2313\036\010\216xt\320"
 241      9BE05AF7 
 241      99331E08 
 241      8E7874D0 
 242 0877 8D4707A7 		.ascii	"\215G\007\247\261\376\013\326\015\030(\347a\275\000"
 242      B1FE0BD6 
 242      0D1828E7 
 242      61BD00
 243 0886 EB4558AF 		.ascii	"\353EX\257\304z=\326\037b\275\011\353sX_\306\272\017"
 243      C47A3DD6 
 243      1F62BD09 
 243      EB73585F 
 243      C6BA0F
 244 0899 EBAB585F 		.ascii	"\353\253X_\307\372\246\233\200k\311\000\365S\271u,\000"
 244      C7FAA69B 
 244      806BC900 
 244      F553B975 
 244      2C00
 245 08ab 590EE66E 		.ascii	"Y\016\346nX\\S\023\3566ow0\267\364\370\266\373\365c"
 245      585C5313 
ARM GAS  /tmp/ccbtJCRQ.s 			page 19


 245      EE366F77 
 245      30B7F4F8 
 245      B6FBF563 
 246 08bf 46CBC91C 		.ascii	"F\313\311\034\355\327\211'\305\227}J='l\337\363L\237"
 246      EDD78927 
 246      C5977D4A 
 246      3D276CDF 
 246      F34C9F
 247 08d2 5DCF9DAD 		.ascii	"]\317\235\255_<\335\364\2762\373e\345v\377\213\234\207"
 247      5F3CDDF4 
 247      BE32FB65 
 247      E576FF8B 
 247      9C87
 248 08e4 AE67F9B2 		.ascii	"\256g\371\262\337\351P\257\335G\367\356\265'\177\276"
 248      DFE950AF 
 248      DD47F7EE 
 248      B5277FBE 
 249 08f4 1EB7866A 		.ascii	"\036\267\206j}\270\320\010[\303{\300\022\335\003\346"
 249      7DB8D008 
 249      5BC37BC0 
 249      12DD03E6 
 250 0904 E81E0867 		.ascii	"\350\036\010g.2G\031:Og\230n\354\217\260\351\033\012"
 250      2E324719 
 250      3A4F6798 
 250      6EEC8FB0 
 250      E91B0A
 251 0917 3978EB6C 		.ascii	"9x\353l\335>\262\005y{\325G\255\374\273,\336Z\255\213"
 251      DD3EB205 
 251      797BD547 
 251      ADFCBB2C 
 251      DE5AAD8B 
 252 092b 8456B389 		.ascii	"\204V\263\211XF'\333H\256:\250\352\015[U-]\262m\224"
 252      584627DB 
 252      48AE3AA8 
 252      EA0D5B55 
 252      2D5DB26D 
 253 0940 9391ACCB 		.ascii	"\223\221\254\313q\034_o\325\024Uk\036\363}y\220=g\363"
 253      711C5F6F 
 253      D514556B 
 253      1EF37D79 
 253      903D67F3 
 254 0954 CC9CFD0D 		.ascii	"\314\234\375\015Y\256\244\032z\353\033N4p\015\364\210"
 254      59AEA41A 
 254      7AEB1B4E 
 254      34700DF4 
 254      88
 255 0965 5B494372 		.ascii	"[ICr\374\000\252\203'\215:\210\023k\0132p\024\352=z"
 255      FC00AA83 
 255      278D3A88 
 255      136B0B32 
 255      7014EA3D 
 256 097a E0DE3393 		.ascii	"\340\3363\223kTt(\355}(\303\032/\235\353\334$\373\010"
 256      6B547428 
 256      ED7D28C3 
 256      1A2F9DEB 
 256      DC24FB08 
 257 098e 446D95D2 		.ascii	"Dm\225\322\323\266{\360v\006\030\011\034Z\011\334\022"
ARM GAS  /tmp/ccbtJCRQ.s 			page 20


 257      D3B67BF0 
 257      76061809 
 257      1C5A09DC 
 257      12
 258 099f 9FF6C6D5 		.ascii	"\237\366\306\325\333\306L\303\360\225'MVA\263a\226\232"
 258      DBC64CC3 
 258      F095274D 
 258      5641B361 
 258      969A
 259 09b1 250575DE 		.ascii	"%\005u\336l>\262\223k\310Hj\227j\0065\230\0041\254^"
 259      6C3EB293 
 259      6BC8486A 
 259      976A0635 
 259      980431AC 
 260 09c6 AF2CE766 		.ascii	"\257,\347f\261-P\037\235\272R\203l\263\000g \236\274"
 260      B12D501F 
 260      9DBA5283 
 260      6CB30067 
 260      209EBC
 261 09d9 8324295F 		.ascii	"\203$)_V\026\320S\253f\001\364Y\376d\276\276\333\361"
 261      5616D053 
 261      AB6601F4 
 261      59FE64BE 
 261      BEDBF1
 262 09ec 30BD571F 		.ascii	"0\275W\037\202\321\006\336\273\273N\252\274\257D\336"
 262      82D106DE 
 262      BBBB4EAA 
 262      BCAF44DE 
 263 09fc 37E6E7DD 		.ascii	"7\346\347\335\014\304\223O\221du6\357\177~I\345}\265"
 263      0CC4934F 
 263      91647536 
 263      EF7F7E49 
 263      E57DB5
 264 0a0f 2BDEDBBA 		.ascii	"+\336\333\272\214\031\200\266\024\241\264\003[\212|"
 264      8C1980B6 
 264      14A1B403 
 264      5B8A7C
 265 0a1e CC0E42CE 		.ascii	"\314\016B\316\340\266\322%+\230\247\205\210\242\235"
 265      E0B6D225 
 265      2B98A785 
 265      88A29D
 266 0a2d 91B133CF 		.ascii	"\221\2613\317z\336+X\261\211\263\316\205\346\\\255\321"
 266      7ADE2B58 
 266      B189B3CE 
 266      85E65CAD 
 266      D1
 267 0a3e 0D5E8E83 		.ascii	"\015^\216\203\012\3650\212\201\315\367\014ff\356x\227"
 267      0AF5308A 
 267      81CDF70C 
 267      6666EE78 
 267      97
 268 0a4f E1D4E3A0 		.ascii	"\341\324\343\240\256\333\034`v\007\025v\037\243\221"
 268      AEDB1C60 
 268      76071576 
 268      1FA391
 269 0a5e 08DC1A1F 		.ascii	"\010\334\032\037\315$Z}t\276_\213\365;X\277\213\365"
 269      CD245A7D 
ARM GAS  /tmp/ccbtJCRQ.s 			page 21


 269      74BE5F8B 
 269      F53B58BF 
 269      8BF5
 270 0a70 3AACD7FB 		.ascii	":\254\327\373L9\346\027\272\227\330\232b>\223P\322\213"
 270      4C39E617 
 270      BA97D89A 
 270      623E9350 
 270      D28B
 271 0a82 9DDDC3B4 		.ascii	"\235\335\303\264\303\242{\366\351\231\334Kh\302\037"
 271      C3A27BF6 
 271      E999DC4B 
 271      68C21F
 272 0a91 A0779CC8 		.ascii	"\240w\234\310\357\035\226\235\232>\244\330\230\345\034"
 272      EF1D969D 
 272      9A3EA4D8 
 272      98E51C
 273 0aa0 3D4735E7 		.ascii	"=G5\347\330\350\3029j\322_-p\267Qd\016t\272\227\177"
 273      D8E8C239 
 273      6AD25F2D 
 273      70B75164 
 273      0E74BA97 
 274 0ab5 A3BD33B3 		.ascii	"\243\2753\263\031\345x\2550\377\353>& \236,C\222m\331"
 274      19E578AD 
 274      30FFEB3E 
 274      26209E2C 
 274      43926DD9 
 275 0ac9 82B46B82 		.ascii	"\202\264k\202ls%H\323\002\315\366\177\357\313\254S\266"
 275      6C732548 
 275      D302CDF6 
 275      7FEFCBAC 
 275      53B6
 276 0adb E5B63047 		.ascii	"\345\2660G\225\326\244\233\217\242\2712\260S\236\301"
 276      95D6A49B 
 276      8FA2B932 
 276      B0539EC1 
 277 0aeb CCB6BFE1 		.ascii	"\314\266\277\341\350\262\221Jj\273\366\366\212R\253"
 277      E8B2914A 
 277      6ABBF6F6 
 277      8A52AB
 278 0afa 3CDC9219 		.ascii	"<\334\222\031\222a\032\002o\034\332\215\217\342r\370"
 278      92611A02 
 278      6F1CDA8D 
 278      8FE272F8 
 279 0b0a 0F982FBD 		.ascii	"\017\230/\275k\031X\367@\233k\333\376\001\201v\"P\333"
 279      6B1958F7 
 279      409B6BDB 
 279      FE018176 
 279      2250DB
 280 0b1d 8081BAE6 		.ascii	"\200\201\272\346\254f\357\256\354B\240t\2415K\362Y2"
 280      AC66EFAE 
 280      EC42A074 
 280      A1354BF2 
 280      5932
 281 0b2f 389F3983 		.ascii	"8\2379\203\363\2053\027\375\375>\362\0036\346\311n\335"
 281      F3853317 
 281      FDFD3EF2 
 281      0336E6C9 
ARM GAS  /tmp/ccbtJCRQ.s 			page 22


 281      6EDD
 282 0b41 AAEC24CA 		.ascii	"\252\354$\312\027\226\351\006\306\236\000n`xK%\227."
 282      1796E906 
 282      C69E006E 
 282      60784B25 
 282      972E
 283 0b53 85A4866D 		.ascii	"\205\244\206m\224\356\307\\\362`\326(\345\313%aQi\345"
 283      94EEC75C 
 283      F260D628 
 283      E5CB2561 
 283      5169E5
 284 0b66 DDDB2C00 		.ascii	"\335\333,\000\256\263w\225\266\233\214\313\266\023n"
 284      AEB37795 
 284      B69B8CCB 
 284      B6136E
 285 0b75 00EDA601 		.ascii	"\000\355\246\001\273\217\321W\005.\215\301v;\006\325"
 285      BB8FD157 
 285      052E8DC1 
 285      763B06D5 
 286 0b85 1D587F8A 		.ascii	"\035X\177\212\365>\254;}.\226[\324\303tl\346\265\033"
 286      F53EAC3B 
 286      7D2E965B 
 286      D4C3746C 
 286      E6B51B
 287 0b98 07ECB517 		.ascii	"\007\354\265\027\263\275\326\013\230i \323}\252\327"
 287      B3BDD60B 
 287      986920D3 
 287      7DAAD7
 288 0ba7 322714B8 		.ascii	"2'\024\270\275>\013\2367\243J\317[Xt\340\267\232G\177"
 288      BD3E0B9E 
 288      37A34ACF 
 288      5B5874E0 
 288      B79A477F 
 289 0bbb 5DC87904 		.ascii	"]\310y\004\323^\337\267U\312F\203R>F\245lB\025\034\301"
 289      D35EDFB7 
 289      55CA4683 
 289      523E46A5 
 289      6C42151C 
 290 0bd0 FA28D65D 		.ascii	"\372(\326]\346Y\357O\205\226Y\3174\305\330\315\301\306"
 290      E659EF4F 
 290      859659CF 
 290      34C5D8CD 
 290      C1C6
 291 0be2 E151D2EF 		.ascii	"\341Q\322\357u\303X\273\337\322\372\263\266\245\325"
 291      75C358BB 
 291      DFD2FAB3 
 291      B6A5D5
 292 0bf1 8D53C565 		.ascii	"\215S\305e\373\251\"\327\226VM\021%\351\311N\010okS"
 292      FBA922D7 
 292      96564D11 
 292      25E9C94E 
 292      086F6B53 
 293 0c05 454FFEA9 		.ascii	"EO\376\251b\366\254\364\342%og\346\274Y\272o\177\236"
 293      62F6ACF4 
 293      E2256F67 
 293      E6BC59BA 
 293      6F7F9E
ARM GAS  /tmp/ccbtJCRQ.s 			page 23


 294 0c18 6369D561 		.ascii	"ci\325a|+\245A\347\303\243\221\332\253\256\307\240\272"
 294      7C2BA541 
 294      E7C3A391 
 294      DAABAEC7 
 294      A0BA
 295 0c2a 5E54DD49 		.ascii	"^T\335I\263\242\226\025Y\024\345q\013lS\267\226\000"
 295      B3A29615 
 295      5914E571 
 295      0B6C53B7 
 295      9600
 296 0c3c B3977253 		.ascii	"\263\227rSV<\363+\270v\200\305\271\004H\031\004x\013"
 296      563CF32B 
 296      B87680C5 
 296      B9044819 
 296      04780B
 297 0c4f 055881F6 		.ascii	"\005X\201\366\366>\326\307\261>e\026im\221e!e^\270P"
 297      F63ED6C7 
 297      B13E6516 
 297      696D9165 
 297      21655EB8 
 298 0c64 D4D3E685 		.ascii	"\324\323\346\205T\012\226\214\215=\313\215\013)\343"
 298      540A968C 
 298      8D3DCB8D 
 298      0B29E3
 299 0c73 CACEB083 		.ascii	"\312\316\260\203\221\275&;\233\275\264\343\311:+\013"
 299      91BD263B 
 299      9BBDB4E3 
 299      C93A2B0B 
 300 0c83 D974E72C 		.ascii	"\331t\347,\253\326to\333\253W\227\303\252U\261\260@"
 300      ABD6746F 
 300      DBAB5797 
 300      C3AA55B1 
 300      B040
 301 0c95 5F0A362D 		.ascii	"_\0126-[5k\006\253\314s\242\000k\352\317\306\301\274"
 301      5B356B06 
 301      ABCC73A2 
 301      006BEACF 
 301      C6C1BC
 302 0ca8 9AF70042 		.ascii	"\232\367\000B\340\276\203\261\315\333\2146\274dq\221"
 302      E0BE83B1 
 302      CDDB8C36 
 302      BC647191 
 303 0cb8 F44DB198 		.ascii	"\364M\261\230\335\315\237G}\377}\007;h\351\300yi!f\375"
 303      DDCD9F47 
 303      7DFF7D07 
 303      3B68E9C0 
 303      79692166 
 304 0ccd 97061C90 		.ascii	"\227\006\034\220\373\317\"\234e\032\335\3520\215R\366"
 304      FBCF229C 
 304      651ADDEA 
 304      308D52F6 
 305 0cdd FA7C96F9 		.ascii	"\372|\226\371p#*\312\013\013\305&\026\352\332qN\350"
 305      70232ACA 
 305      0B0BC526 
 305      16EADA71 
 305      4EE8
 306 0cef C309798B 		.ascii	"\303\011y\213\033\260\0341\274\301\010\366\231g\260"
ARM GAS  /tmp/ccbtJCRQ.s 			page 24


 306      1BB01C31 
 306      BCC108F6 
 306      9967B0
 307 0cfe E22CE761 		.ascii	"\342,\347an\363\027t\233\313\350*W\260\276\212\365u"
 307      6EF31774 
 307      9BCBE82A 
 307      57B0BE8A 
 307      F575
 308 0d10 B3DBEC2D 		.ascii	"\263\333\354-\262\246\023L\251\006\274\214\356I~D{\035"
 308      B2A6134C 
 308      A906BC8C 
 308      EE497E44 
 308      7B1D
 309 0d22 589475C1 		.ascii	"X\224u\301A>\212\177\313g\312f2\220\023\314\342\033"
 309      413E8A7F 
 309      CB67CA66 
 309      329013CC 
 309      E21B
 310 0d34 FC8411D9 		.ascii	"\374\204\021\3317\023\270\357}^\177\355v\333g\377k7"
 310      3713B8EF 
 310      7D5E7FED 
 310      76DB67FF 
 310      6B37
 311 0d46 E33B3999 		.ascii	"\343;9\231V0\210\307\254\216\237\305D?\370\375\375\344"
 311      563088C7 
 311      AC8E9FC5 
 311      443FF8FD 
 311      FDE4
 312 0d58 5C5193C2 		.ascii	"\\Q\223\302\356<A>P\346\246\301\205\376\004\334\351"
 312      EE3C413E 
 312      50E6A6C1 
 312      85FE04DC 
 312      E9
 313 0d69 66F1DFE4 		.ascii	"f\361\337\344\206\262H\351m\333}u\034\223\211\306\210"
 313      86B248E9 
 313      6DDB7D75 
 313      1C9389C6 
 313      88
 314 0d7a 0307D21B 		.ascii	"\003\007\322\033v\322p\013Y\340m\210\020l\370x2{\260"
 314      76D2700B 
 314      59E06D88 
 314      106CF878 
 314      327BB0
 315 0d8d 35E06579 		.ascii	"5\340ey\355l?o\350m\002\243d*d]\245?\330\311\271\371"
 315      ED6C3F6F 
 315      E86D02A3 
 315      642A645D 
 315      A53FD8C9 
 316 0da3 0D618B0E 		.ascii	"\015a\213\016=B\205\236\353\367:\252/\373\355G\365\236"
 316      3D42859E 
 316      EBF73AAA 
 316      2FFBED47 
 316      F59E
 317 0db5 9C962370 		.ascii	"\234\226#ps\374\272A\334O\352\0077)\213&d\272g\226H"
 317      73FCBA41 
 317      DC4FEA07 
 317      37298B26 
ARM GAS  /tmp/ccbtJCRQ.s 			page 25


 317      64BA6796 
 318 0dca 29FAD06E 		.ascii	")\372\320n\230M\032\277_W\205\235\253\244?\016j\261"
 318      984D1ABF 
 318      5F57859D 
 318      ABA43F0E 
 318      6AB1
 319 0ddc C0F8432B 		.ascii	"\300\370C+\265_&\241f}\026\203\0158\213\365\232\337"
 319      B55F26A1 
 319      667D1683 
 319      0D388BF5 
 319      9ADF
 320 0dee FE278E02 		.ascii	"\376'\216\002\267(\243\332,\252\377q\244j\312\341\033"
 320      B728A3DA 
 320      2CAAFF71 
 320      A46ACAE1 
 320      1B
 321 0dff AF3B52D1 		.ascii	"\257;R\321-u'\2527\034\251\316\346\340\260\316\221J"
 321      2D7527AA 
 321      371CA9CE 
 321      E6E0B0CE 
 321      914A
 322 0e11 C9D157BD 		.ascii	"\311\321W\275#\325\241\034\001\272\301\221j_\016\252"
 322      23D5A11C 
 322      01BAC191 
 322      6A5F0EAA 
 323 0e21 4647AAED 		.ascii	"FG\252\3559\250\346e\250\324_\037v\266~>i=}M\235\236"
 323      39A8E665 
 323      A8D45F1F 
 323      76B67E3E 
 323      693D7D4D 
 324 0e37 63CC9CFD 		.ascii	"c\314\234\375K\313\376\370\231\034I\334\002\177\366"
 324      4BCBFEF8 
 324      991C49DC 
 324      027FF6
 325 0e46 21CAEAC1 		.ascii	"!\312\352\301\346\210\252\376\324\257Fy\277\205\376"
 325      E688AAFE 
 325      D4AF4679 
 325      BF85FE
 326 0e55 72919D2B 		.ascii	"r\221\235+\010\334|\277\375\317\026U\274\205~\273\037"
 326      08DC7CBF 
 326      FDCF1655 
 326      BC857EBB 
 326      1F
 327 0e66 245E3FB4 		.ascii	"$^?\264L\375A\342'\312\203!\246\012\236l\312\335#{!"
 327      4CFD41E2 
 327      27CA8321 
 327      A60A9E6C 
 327      CADD237B 
 328 0e7b 49E016E7 		.ascii	"I\340\026\347\356q\211\271\307\037\223\267i*\334\266"
 328      EE7189B9 
 328      C71F93B7 
 328      692ADCB6 
 329 0e8b FBD6F0C5 		.ascii	"\373\326\360\305u\241\254\327\232\262\306\274>\207U"
 329      75A1ACD7 
 329      9AB2C6BC 
 329      3E8755
 330 0e9a 3465C69C 		.ascii	"4e\306\234\370\243\345\202T\360\354\277\374\272x\"\031"
ARM GAS  /tmp/ccbtJCRQ.s 			page 26


 330      F8A3E582 
 330      54F0ECBF 
 330      FCBA7822 
 330      19
 331 0eab 3F664C09 		.ascii	"?fL\011\373\213'K\242\361\252\252x\254$\021\227\344"
 331      FB8B274B 
 331      A2F1AAAA 
 331      78AC2411 
 331      97E4
 332 0ebd 64C92F7F 		.ascii	"d\311/\1775i\342\244\351\364^\242\242R\224\222%\317"
 332      3569E2A4 
 332      E9F45EA2 
 332      A2529492 
 332      25CF
 333 0ecf 4E9C5812 		.ascii	"N\234X\022-\227g$\304\344\230r\022\250J\226E\344\373"
 333      2D976724 
 333      C4E49872 
 333      12A84A96 
 333      45E4FB
 334 0ee2 4AAA9352 		.ascii	"J\252\223RIE,ZY]*\226\304\304i\225\025\223K\222riEL"
 334      49452C5A 
 334      595D2A96 
 334      C4C46995 
 334      15934B92 
 335 0efa 863641F8 		.ascii	"\2066A\370\367\223\307#\362cv\255\252\204hyEL,\211\224"
 335      F793C723 
 335      F26376AD 
 335      AA846879 
 335      454C2C89 
 336 0f0f 8A5384EA 		.ascii	"\212S\204\352J9\242!\207#\021\225n\234\316\234,&\345"
 336      4A39A221 
 336      87231195 
 336      6E9CCE9C 
 336      2C26E5
 337 0f22 12492E49 		.ascii	"\022I.I\306\253\245\250\310\276\322*\222\024\177W-\306"
 337      C6ABA5A8 
 337      C8BED22A 
 337      92147F57 
 337      2DC6
 338 0f34 A26264EC 		.ascii	"\242bd\354\330\247\306DI!rU.\211B\3518.q\0176\201'P"
 338      D8A7C644 
 338      49217255 
 338      2E8942E9 
 338      382E710F 
 339 0f4c C645C4E9 		.ascii	"\306E\304\351b\264Z\026G\233A)+\321\362\010\275\246"
 339      62B45A16 
 339      479B4129 
 339      2BD1F208 
 339      BDA6
 340 0f5e 5245FE31 		.ascii	"RE\3761\036\257\034\201_#B2)J\231.\036\311\317\215\024"
 340      1EAF1C81 
 340      5F234232 
 340      294A992E 
 340      1EC9CF8D 
 341 0f73 8F5394E1 		.ascii	"\217S\224\341\370e\232P!\253\274$\207\342\035\261\212"
 341      F8659A50 
 341      21ABBC24 
ARM GAS  /tmp/ccbtJCRQ.s 			page 27


 341      87E21DB1 
 341      8A
 342 0f84 DE89BF20 		.ascii	"\336\211\277 \306\0360\016; ic\023-\007\001\000\341"
 342      C61E300E 
 342      3B206963 
 342      132D0701 
 342      00E1
 343 0f96 21C7E7C9 		.ascii	"!\307\347\311\031Im\240B\014"
 343      19496DA0 
 343      420C
 344 0fa0 3C2287A9 		.ascii	"<\"\207\251\000x]\354L\027-/\005\232\241*C\021\220\251"
 344      00785DEC 
 344      4C172D2F 
 344      059AA12A 
 344      431190A9 
 345 0fb4 5A8CC8C3 		.ascii	"Z\214\310\303tR\365\226?&N\227\375\011I\234\032\300"
 345      7452F596 
 345      3F264E97 
 345      FD09499C 
 345      1AC0
 346 0fc6 EF413921 		.ascii	"\357A9!U\304#r\250ZU\312\240HD\273\364\323GE\324\\\""
 346      55C42372 
 346      A85A55CA 
 346      A04844BB 
 346      F4D34745 
 347 0fdd D1784C06 		.ascii	"\321xL\006\302G\362\232Sy4.\211\300H!\222\001PT\236"
 347      C247F29A 
 347      5379342E 
 347      89C04821 
 347      92015054 
 348 0ff2 FE983BAA 		.ascii	"\376\230;\252\310\324\247\252\250\330\222X&H"
 348      C8D4A7AA 
 348      A8D89258 
 348      2648
 349 1000 55119997 		.ascii	"U\021\231\227\236\340\245\237\362\322\223\274\364\024"
 349      9EE0A59F 
 349      F2D293BC 
 349      F414
 350 100e 2F8DE7A5 		.ascii	"/\215\347\245\237\371\244qc\241\214\343+%>\231\360\001"
 350      9FF9A471 
 350      63A18CE3 
 350      2B253E99 
 350      F001
 351 1020 7400AC4D 		.ascii	"t\000\254M\224\002\361\312RQ\362\307\204*qPR~A\250\254"
 351      9402F1CA 
 351      5251F2C7 
 351      842A7150 
 351      527E41A8 
 352 1035 288BA922 		.ascii	"(\213\251\"=\371\204.\022\275,\230&L\026\222bHN\312"
 352      3DF9842E 
 352      12BD2C98 
 352      264C1692 
 352      62484ECA 
 353 1049 820CE313 		.ascii	"\202\014\343\023\244\017\306\303\020\263&p\025\300'"
 353      A40FC6C3 
 353      10B32670 
 353      15C027
ARM GAS  /tmp/ccbtJCRQ.s 			page 28


 354 1058 41B92A5E 		.ascii	"A\271*^\012\317\003S*\205\262dP\226\304)I\030\020\372"
 354      0ACF0353 
 354      2A85B264 
 354      5096C429 
 354      491810FA 
 355 106c AF402A9D 		.ascii	"\257@*\235\001Z\014\211\323+\344(4*\230&\307'\377g\342"
 355      015A0C89 
 355      D32BE428 
 355      342A9826 
 355      C727FF67 
 356 1081 2E555BD0 		.ascii	".U[\320D\224\320d\345\3004Y\226\022\301\244\030\223"
 356      4494D064 
 356      E5C03459 
 356      9612C1A4 
 356      1893
 357 1093 81A00854 		.ascii	"\201\240\010T\221\024\253\204D9\310\352l \320\204\032"
 357      9114AB84 
 357      4439C8EA 
 357      6C20D084 
 357      1A
 358 10a4 6A3406A6 		.ascii	"j4\006\246\344\203\032\340\341V\"\004\324U`\336\323"
 358      E4831AE0 
 358      E1562204 
 358      D45560DE 
 358      D3
 359 10b5 7398963C 		.ascii	"s\230\226<\235R\306\247\305D)\210m\251\2742\334N\024"
 359      9D52C6A7 
 359      C5442988 
 359      6DA9BC32 
 359      DC4E14
 360 10c8 8A532913 		.ascii	"\212S)\023B\362\005\270%N\243\027\\\365\020\3150*+\300"
 360      42F205B8 
 360      254EA317 
 360      5CF510CD 
 360      302A2BC0 
 361 10dc 78E5A106 		.ascii	"x\345\241\006S\241w\202\324\300+be!\340\035M%$&\304"
 361      53A17782 
 361      D4C02B62 
 361      6521E01D 
 361      4D252426 
 362 10f1 18B87E59 		.ascii	"\030\270~Y\020 i\013\320\224PIm$P\225\000\267\002\001"
 362      1020690B 
 362      D0945049 
 362      6D245095 
 362      00B70201 
 363 1105 2725CB7E 		.ascii	"'%\313~%V\2120\302a\374\362\357\000\361\267\216\014"
 363      25568A30 
 363      C261FCF2 
 363      EF00F1B7 
 363      8E0C
 364 1117 ABBD01D3 		.ascii	"\253\275\001\323\217c\004\241\276Z\026\215\226\200\366"
 364      8F6304A1 
 364      BE5A168D 
 364      9680F6
 365 1126 1F8BC563 		.ascii	"\037\213\305c\342c\2420\271\242\344\2111\343\307<\256"
 365      E263A230 
 365      B9A2E489 
ARM GAS  /tmp/ccbtJCRQ.s 			page 29


 365      31E3C73C 
 365      AE
 366 1137 5341F081 		.ascii	"SA\360\201\200\002$\005\311\212\377\242\012\224\247"
 366      80022405 
 366      C98AFFA2 
 366      0A94A7
 367 1146 54C7A211 		.ascii	"T\307\242\021yx\264\374\337\312K'\002\240,>\007\032"
 367      7978B4FC 
 367      DFCA4B27 
 367      02A02C3E 
 367      071A
 368 1158 AC88320E 		.ascii	"\254\2102\016\236\003\226\303,\224\310b\202\237&\024"
 368      9E0396C3 
 368      2C94C862 
 368      829F2614 
 369 1168 52358093 		.ascii	"R5\200\223\211U\314\261\330u\021\345d\206:\022\203\341"
 369      8955CCB1 
 369      D87511E5 
 369      64863A12 
 369      83E1
 370 117a 76E67B30 		.ascii	"v\346{0Z-\201B\345\200D\277\215\230Z!\311\325BeD\256"
 370      5A2D8142 
 370      E58044BF 
 370      8D985A21 
 370      C9D54265 
 371 1190 A882A8A9 		.ascii	"\250\202\250\251R\334\013\0246\017\206\232\3561o4\335"
 371      52DC0B14 
 371      360F869A 
 371      EE316F34 
 371      DD
 372 11a1 0AD3DEE1 		.ascii	"\012\323\336\341B5\326qO\352\306J/\003\245b\245,\204"
 372      4235D671 
 372      4FEAC64A 
 372      2F03A562 
 372      A52C84
 373 11b4 A6AA22FA 		.ascii	"\246\252\"\372\351?_B\220B\225BR\246d\005Se\332\315"
 373      E93F5F42 
 373      90429542 
 373      52A66405 
 373      5365DACD 
 374 11c8 10559E52 		.ascii	"\020U\236Rqru\031S\244\361N8!\304*\242\021P\243\257"
 374      71727519 
 374      53A4F14E 
 374      3821C42A 
 374      A21150A3 
 375 11dd 7472D9A0 		.ascii	"tr\331\240*\001\340q\344\371hyP\325A )\312\325\211\220"
 375      2A01E071 
 375      E4F96879 
 375      50D54120 
 375      29CAD589 
 376 11f2 2C0A5229 		.ascii	",\012R)\030PP\015\246\203\350\310EA\2350\300Y\361x\324"
 376      1850500D 
 376      A683E8C8 
 376      45419D30 
 376      C059F178 
 377 1207 18295E2A 		.ascii	"\030)^*\310\302\230\254'E\306\300<b\222\230L\012eb\262"
 377      C8C298AC 
ARM GAS  /tmp/ccbtJCRQ.s 			page 30


 377      2745C6C0 
 377      3C629298 
 377      4C0A6562 
 378 121c F839519A 		.ascii	"\3709Q\232*J\305\225\361x\2020}=+\312\377\012\366#U"
 378      2A4AC595 
 378      F1788230 
 378      7D3D2BCA 
 378      FF0AF623 
 379 1231 C8339E1F 		.ascii	"\3103\236\037\254\335yN\254\234\362\374\377\001\251"
 379      ACDD794E 
 379      AC9CF2FC 
 379      FF01A9
 380 1240 F2FC7C   		.ascii	"\362\374|"
 381              		.text
 382              		.section	.gnu.lto_.symtab.53d92863ee8fd734,"",%progbits
 383 0000 74657374 		.ascii	"test_sequence_007\000\000\000\000\000\000\000\000\000"
 383      5F736571 
 383      75656E63 
 383      655F3030 
 383      37000000 
 384 001a 000000EB 		.ascii	"\000\000\000\353\001\000\000test_step\000\000\002\000"
 384      01000074 
 384      6573745F 
 384      73746570 
 384      00000200 
 385 002e 00000000 		.ascii	"\000\000\000\000\000\000\000\000\225\001\000\000wa\000"
 385      00000000 
 385      95010000 
 385      776100
 386 003d 00020000 		.ascii	"\000\002\000\000\000\000\000\000\000\000\000\227\001"
 386      00000000 
 386      00000097 
 386      01
 387 004a 00006368 		.ascii	"\000\000ch\000\000\002\000\000\000\000\000\000\000\000"
 387      00000200 
 387      00000000 
 387      000000
 388 0059 009C0100 		.ascii	"\000\234\001\000\000threads\000\000\002\000\000\000"
 388      00746872 
 388      65616473 
 388      00000200 
 388      0000
 389 006b 00000000 		.ascii	"\000\000\000\000\000\000\350\001\000\000_test_asser"
 389      0000E801 
 389      00005F74 
 389      6573745F 
 389      61737365 
 390 0080 745F7365 		.ascii	"t_sequence\000\000\002\000\000\000\000\000\000\000\000"
 390      7175656E 
 390      63650000 
 390      02000000 
 390      00000000 
 391 0095 00C00000 		.ascii	"\000\300\000\000\000test_wait_threads\000\000\002\000"
 391      00746573 
 391      745F7761 
 391      69745F74 
 391      68726561 
ARM GAS  /tmp/ccbtJCRQ.s 			page 31


 392 00af 00000000 		.ascii	"\000\000\000\000\000\000\000\000\313\000\000\000tes"
 392      00000000 
 392      CB000000 
 392      746573
 393 00be 745F656D 		.ascii	"t_emit_token\000\000\002\000\000\000\000\000\000\000"
 393      69745F74 
 393      6F6B656E 
 393      00000200 
 393      00000000 
 394 00d4 0000CD00 		.ascii	"\000\000\315\000\000\000chMsgRelease\000\000\002\000"
 394      00006368 
 394      4D736752 
 394      656C6561 
 394      73650000 
 395 00ea 00000000 		.ascii	"\000\000\000\000\000\000\000\000\321\000\000\000chM"
 395      00000000 
 395      D1000000 
 395      63684D
 396 00f9 73675761 		.ascii	"sgWait\000\000\002\000\000\000\000\000\000\000\000\000"
 396      69740000 
 396      02000000 
 396      00000000 
 396      0000
 397 010b 7F010000 		.ascii	"\177\001\000\000chThdCreateStatic\000\000\002\000\000"
 397      63685468 
 397      64437265 
 397      61746553 
 397      74617469 
 398 0125 00000000 		.ascii	"\000\000\000\000\000\000\000\202\001\000\000chMsgSe"
 398      00000082 
 398      01000063 
 398      684D7367 
 398      5365
 399 0137 6E640000 		.ascii	"nd\000\000\002\000\000\000\000\000\000\000\000\000\220"
 399      02000000 
 399      00000000 
 399      000090
 400 0146 010000   		.ascii	"\001\000\000"
 401              		.text
 402              		.section	.gnu.lto_.opts,"",%progbits
 403 0000 272D6D63 		.ascii	"'-mcpu=cortex-m3' '-mno-thumb-interwork' '-mthumb' "
 403      70753D63 
 403      6F727465 
 403      782D6D33 
 403      2720272D 
 404 0033 272D6767 		.ascii	"'-ggdb' '-O2' '-fomit-frame-pointer' '-falign-funct"
 404      64622720 
 404      272D4F32 
 404      2720272D 
 404      666F6D69 
 405 0066 696F6E73 		.ascii	"ions=16' '-ffunction-sections' '-fdata-sections' '-"
 405      3D313627 
 405      20272D66 
 405      66756E63 
 405      74696F6E 
 406 0099 666E6F2D 		.ascii	"fno-common' '-flto'\000"
 406      636F6D6D 
ARM GAS  /tmp/ccbtJCRQ.s 			page 32


 406      6F6E2720 
 406      272D666C 
 406      746F2700 
 407              		.text
 408              		.cfi_sections	.debug_frame
 409              		.section	.text.test_007_001_execute,"ax",%progbits
 410              		.align	2
 411              		.p2align 4,,15
 412              		.thumb
 413              		.thumb_func
 414              		.type	test_007_001_execute, %function
 415              	test_007_001_execute:
 416              	.LFB220:
 417              		.file 1 "../../../test/rt/source/test/test_sequence_007.c"
 418              		.loc 1 76 0
 419              		.cfi_startproc
 420              		@ args = 0, pretend = 0, frame = 0
 421              		@ frame_needed = 0, uses_anonymous_args = 0
 422 0000 30B5     		push	{r4, r5, lr}
 423              		.cfi_def_cfa_offset 12
 424              		.cfi_offset 4, -12
 425              		.cfi_offset 5, -8
 426              		.cfi_offset 14, -4
 427              	.LBB13:
 428              	.LBB14:
 429              	.LBB15:
 430              	.LBB16:
 431              		.file 2 "../../../os/rt/include/chthreads.h"
 432              		.loc 2 286 0
 433 0002 40F20003 		movw	r3, #:lower16:ch
 434 0006 C0F20003 		movt	r3, #:upper16:ch
 435 000a 9969     		ldr	r1, [r3, #24]
 436              	.LBE16:
 437              	.LBE15:
 438              	.LBE14:
 439              	.LBE13:
 440              		.loc 1 83 0
 441 000c 40F20003 		movw	r3, #:lower16:wa
 442 0010 8A68     		ldr	r2, [r1, #8]
 443 0012 C0F20003 		movt	r3, #:upper16:wa
 444              		.loc 1 81 0
 445 0016 40F20004 		movw	r4, #:lower16:test_step
 446 001a C0F20004 		movt	r4, #:upper16:test_step
 447              		.loc 1 76 0
 448 001e 83B0     		sub	sp, sp, #12
 449              		.cfi_def_cfa_offset 24
 450              		.loc 1 83 0
 451 0020 1868     		ldr	r0, [r3]
 452              		.loc 1 81 0
 453 0022 0125     		movs	r5, #1
 454              		.loc 1 83 0
 455 0024 40F20003 		movw	r3, #:lower16:msg_thread1
 456 0028 0091     		str	r1, [sp]
 457 002a 0132     		adds	r2, r2, #1
 458 002c C0F20003 		movt	r3, #:upper16:msg_thread1
 459              		.loc 1 81 0
 460 0030 2560     		str	r5, [r4]
ARM GAS  /tmp/ccbtJCRQ.s 			page 33


 461              		.loc 1 83 0
 462 0032 4FF4A471 		mov	r1, #328
 463 0036 FFF7FEFF 		bl	chThdCreateStatic
 464              	.LVL0:
 465 003a 40F20003 		movw	r3, #:lower16:threads
 466 003e C0F20003 		movt	r3, #:upper16:threads
 467              		.loc 1 89 0
 468 0042 0222     		movs	r2, #2
 469 0044 2260     		str	r2, [r4]
 470              	.LVL1:
 471              		.loc 1 83 0
 472 0046 1860     		str	r0, [r3]
 473              		.loc 1 89 0
 474 0048 0424     		movs	r4, #4
 475              	.LVL2:
 476              	.L3:
 477              	.LBB17:
 478              		.loc 1 94 0 discriminator 2
 479 004a FFF7FEFF 		bl	chMsgWait
 480              	.LVL3:
 481              	.LBE17:
 482              		.loc 1 77 0 discriminator 2
 483 004e 456A     		ldr	r5, [r0, #36]
 484              	.LVL4:
 485              	.LBB18:
 486              		.loc 1 96 0 discriminator 2
 487 0050 2946     		mov	r1, r5
 488 0052 FFF7FEFF 		bl	chMsgRelease
 489              	.LVL5:
 490              		.loc 1 97 0 discriminator 2
 491 0056 E8B2     		uxtb	r0, r5
 492 0058 FFF7FEFF 		bl	test_emit_token
 493              	.LVL6:
 494              		.loc 1 93 0 discriminator 2
 495 005c 013C     		subs	r4, r4, #1
 496              	.LVL7:
 497 005e F4D1     		bne	.L3
 498              		.loc 1 99 0
 499 0060 FFF7FEFF 		bl	test_wait_threads
 500              	.LVL8:
 501              		.loc 1 100 0
 502 0064 40F20000 		movw	r0, #:lower16:.LC0
 503 0068 40F20001 		movw	r1, #:lower16:.LC1
 504 006c C0F20000 		movt	r0, #:upper16:.LC0
 505 0070 C0F20001 		movt	r1, #:upper16:.LC1
 506              	.LBE18:
 507              		.loc 1 102 0
 508 0074 03B0     		add	sp, sp, #12
 509              		@ sp needed
 510 0076 BDE83040 		pop	{r4, r5, lr}
 511              	.LVL9:
 512              	.LBB19:
 513              		.loc 1 100 0
 514 007a FFF7FEBF 		b	_test_assert_sequence
 515              	.LVL10:
 516              	.LBE19:
 517              		.cfi_endproc
ARM GAS  /tmp/ccbtJCRQ.s 			page 34


 518              	.LFE220:
 519              		.size	test_007_001_execute, .-test_007_001_execute
 520 007e 00BF     		.section	.text.msg_thread1,"ax",%progbits
 521              		.align	2
 522              		.p2align 4,,15
 523              		.thumb
 524              		.thumb_func
 525              		.type	msg_thread1, %function
 526              	msg_thread1:
 527              	.LFB219:
 528              		.loc 1 50 0
 529              		.cfi_startproc
 530              		@ args = 0, pretend = 0, frame = 0
 531              		@ frame_needed = 0, uses_anonymous_args = 0
 532              	.LVL11:
 533 0000 10B5     		push	{r4, lr}
 534              		.cfi_def_cfa_offset 8
 535              		.cfi_offset 4, -8
 536              		.cfi_offset 14, -4
 537              		.loc 1 52 0
 538 0002 4121     		movs	r1, #65
 539              		.loc 1 50 0
 540 0004 0446     		mov	r4, r0
 541              		.loc 1 52 0
 542 0006 FFF7FEFF 		bl	chMsgSend
 543              	.LVL12:
 544              		.loc 1 53 0
 545 000a 2046     		mov	r0, r4
 546 000c 4221     		movs	r1, #66
 547 000e FFF7FEFF 		bl	chMsgSend
 548              	.LVL13:
 549              		.loc 1 54 0
 550 0012 2046     		mov	r0, r4
 551 0014 4321     		movs	r1, #67
 552 0016 FFF7FEFF 		bl	chMsgSend
 553              	.LVL14:
 554              		.loc 1 55 0
 555 001a 2046     		mov	r0, r4
 556 001c 4421     		movs	r1, #68
 557              		.loc 1 56 0
 558 001e BDE81040 		pop	{r4, lr}
 559              	.LVL15:
 560              		.loc 1 55 0
 561 0022 FFF7FEBF 		b	chMsgSend
 562              	.LVL16:
 563              		.cfi_endproc
 564              	.LFE219:
 565              		.size	msg_thread1, .-msg_thread1
 566              		.global	test_sequence_007
 567 0026 00BFAFF3 		.section	.rodata.test_007_001,"a",%progbits
 567      0080AFF3 
 567      0080
 568              		.align	2
 569              		.type	test_007_001, %object
 570              		.size	test_007_001, 16
 571              	test_007_001:
 572 0000 1C000000 		.word	.LC2
ARM GAS  /tmp/ccbtJCRQ.s 			page 35


 573 0004 00000000 		.word	0
 574 0008 00000000 		.word	0
 575 000c 00000000 		.word	test_007_001_execute
 576              		.section	.rodata.test_sequence_007,"a",%progbits
 577              		.align	2
 578              		.type	test_sequence_007, %object
 579              		.size	test_sequence_007, 8
 580              	test_sequence_007:
 581 0000 00000000 		.word	test_007_001
 582 0004 00000000 		.word	0
 583              		.section	.rodata.str1.4,"aMS",%progbits,1
 584              		.align	2
 585              	.LC0:
 586 0000 41424344 		.ascii	"ABCD\000"
 586      00
 587 0005 000000   		.space	3
 588              	.LC1:
 589 0008 696E7661 		.ascii	"invalid sequence\000"
 589      6C696420 
 589      73657175 
 589      656E6365 
 589      00
 590 0019 000000   		.space	3
 591              	.LC2:
 592 001c 4D657373 		.ascii	"Messages Server loop\000"
 592      61676573 
 592      20536572 
 592      76657220 
 592      6C6F6F70 
 593 0031 000000   		.text
 594              	.Letext0:
 595              		.file 3 "/usr/lib/gcc/arm-none-eabi/4.8.2/include/stddef.h"
 596              		.file 4 "/usr/include/newlib/machine/_default_types.h"
 597              		.file 5 "/usr/include/newlib/stdint.h"
 598              		.file 6 "../../../os/common/ports/ARMCMx/compilers/GCC/chtypes.h"
 599              		.file 7 "../../../os/rt/include/chsystypes.h"
 600              		.file 8 "../../../os/rt/include/chschd.h"
 601              		.file 9 "../../../os/common/ports/ARMCMx/chcore.h"
 602              		.file 10 "../../../os/common/ports/ARMCMx/chcore_v7m.h"
 603              		.file 11 "../../../os/rt/include/chsem.h"
 604              		.file 12 "../../../os/rt/include/chmtx.h"
 605              		.file 13 "../../../test/lib/ch_test.h"
 606              		.file 14 "../../../os/common/ext/CMSIS/include/core_cm3.h"
 607              		.file 15 "../../../test/rt/source/test/test_root.h"
 608              		.file 16 "../../../os/rt/include/chmsg.h"
 609              		.section	.debug_info,"",%progbits
 610              	.Ldebug_info0:
 611 0000 2D090000 		.4byte	0x92d
 612 0004 0400     		.2byte	0x4
 613 0006 00000000 		.4byte	.Ldebug_abbrev0
 614 000a 04       		.byte	0x4
 615 000b 01       		.uleb128 0x1
 616 000c D8020000 		.4byte	.LASF110
 617 0010 01       		.byte	0x1
 618 0011 61040000 		.4byte	.LASF111
 619 0015 AA030000 		.4byte	.LASF112
 620 0019 20000000 		.4byte	.Ldebug_ranges0+0x20
ARM GAS  /tmp/ccbtJCRQ.s 			page 36


 621 001d 00000000 		.4byte	0
 622 0021 00000000 		.4byte	.Ldebug_line0
 623 0025 02       		.uleb128 0x2
 624 0026 04       		.byte	0x4
 625 0027 05       		.byte	0x5
 626 0028 696E7400 		.ascii	"int\000"
 627 002c 03       		.uleb128 0x3
 628 002d E9010000 		.4byte	.LASF2
 629 0031 03       		.byte	0x3
 630 0032 D4       		.byte	0xd4
 631 0033 37000000 		.4byte	0x37
 632 0037 04       		.uleb128 0x4
 633 0038 04       		.byte	0x4
 634 0039 07       		.byte	0x7
 635 003a 5F000000 		.4byte	.LASF0
 636 003e 04       		.uleb128 0x4
 637 003f 01       		.byte	0x1
 638 0040 06       		.byte	0x6
 639 0041 6A050000 		.4byte	.LASF1
 640 0045 03       		.uleb128 0x3
 641 0046 52040000 		.4byte	.LASF3
 642 004a 04       		.byte	0x4
 643 004b 1C       		.byte	0x1c
 644 004c 50000000 		.4byte	0x50
 645 0050 04       		.uleb128 0x4
 646 0051 01       		.byte	0x1
 647 0052 08       		.byte	0x8
 648 0053 15050000 		.4byte	.LASF4
 649 0057 04       		.uleb128 0x4
 650 0058 02       		.byte	0x2
 651 0059 05       		.byte	0x5
 652 005a F2030000 		.4byte	.LASF5
 653 005e 03       		.uleb128 0x3
 654 005f 9A010000 		.4byte	.LASF6
 655 0063 04       		.byte	0x4
 656 0064 26       		.byte	0x26
 657 0065 69000000 		.4byte	0x69
 658 0069 04       		.uleb128 0x4
 659 006a 02       		.byte	0x2
 660 006b 07       		.byte	0x7
 661 006c 7C050000 		.4byte	.LASF7
 662 0070 03       		.uleb128 0x3
 663 0071 90000000 		.4byte	.LASF8
 664 0075 04       		.byte	0x4
 665 0076 37       		.byte	0x37
 666 0077 7B000000 		.4byte	0x7b
 667 007b 04       		.uleb128 0x4
 668 007c 04       		.byte	0x4
 669 007d 05       		.byte	0x5
 670 007e FC030000 		.4byte	.LASF9
 671 0082 03       		.uleb128 0x3
 672 0083 29050000 		.4byte	.LASF10
 673 0087 04       		.byte	0x4
 674 0088 38       		.byte	0x38
 675 0089 8D000000 		.4byte	0x8d
 676 008d 04       		.uleb128 0x4
 677 008e 04       		.byte	0x4
ARM GAS  /tmp/ccbtJCRQ.s 			page 37


 678 008f 07       		.byte	0x7
 679 0090 B5040000 		.4byte	.LASF11
 680 0094 04       		.uleb128 0x4
 681 0095 08       		.byte	0x8
 682 0096 05       		.byte	0x5
 683 0097 87020000 		.4byte	.LASF12
 684 009b 03       		.uleb128 0x3
 685 009c 10020000 		.4byte	.LASF13
 686 00a0 04       		.byte	0x4
 687 00a1 4E       		.byte	0x4e
 688 00a2 A6000000 		.4byte	0xa6
 689 00a6 04       		.uleb128 0x4
 690 00a7 08       		.byte	0x8
 691 00a8 07       		.byte	0x7
 692 00a9 7A010000 		.4byte	.LASF14
 693 00ad 03       		.uleb128 0x3
 694 00ae 55020000 		.4byte	.LASF15
 695 00b2 05       		.byte	0x5
 696 00b3 2A       		.byte	0x2a
 697 00b4 45000000 		.4byte	0x45
 698 00b8 03       		.uleb128 0x3
 699 00b9 E9030000 		.4byte	.LASF16
 700 00bd 05       		.byte	0x5
 701 00be 36       		.byte	0x36
 702 00bf 5E000000 		.4byte	0x5e
 703 00c3 03       		.uleb128 0x3
 704 00c4 F8040000 		.4byte	.LASF17
 705 00c8 05       		.byte	0x5
 706 00c9 41       		.byte	0x41
 707 00ca 70000000 		.4byte	0x70
 708 00ce 03       		.uleb128 0x3
 709 00cf 2F010000 		.4byte	.LASF18
 710 00d3 05       		.byte	0x5
 711 00d4 42       		.byte	0x42
 712 00d5 82000000 		.4byte	0x82
 713 00d9 03       		.uleb128 0x3
 714 00da 43040000 		.4byte	.LASF19
 715 00de 05       		.byte	0x5
 716 00df 4E       		.byte	0x4e
 717 00e0 9B000000 		.4byte	0x9b
 718 00e4 03       		.uleb128 0x3
 719 00e5 97030000 		.4byte	.LASF20
 720 00e9 06       		.byte	0x6
 721 00ea 3C       		.byte	0x3c
 722 00eb AD000000 		.4byte	0xad
 723 00ef 03       		.uleb128 0x3
 724 00f0 4C020000 		.4byte	.LASF21
 725 00f4 06       		.byte	0x6
 726 00f5 3D       		.byte	0x3d
 727 00f6 AD000000 		.4byte	0xad
 728 00fa 03       		.uleb128 0x3
 729 00fb AD040000 		.4byte	.LASF22
 730 00ff 06       		.byte	0x6
 731 0100 3E       		.byte	0x3e
 732 0101 AD000000 		.4byte	0xad
 733 0105 03       		.uleb128 0x3
 734 0106 59010000 		.4byte	.LASF23
ARM GAS  /tmp/ccbtJCRQ.s 			page 38


 735 010a 06       		.byte	0x6
 736 010b 40       		.byte	0x40
 737 010c CE000000 		.4byte	0xce
 738 0110 03       		.uleb128 0x3
 739 0111 95020000 		.4byte	.LASF24
 740 0115 06       		.byte	0x6
 741 0116 41       		.byte	0x41
 742 0117 C3000000 		.4byte	0xc3
 743 011b 03       		.uleb128 0x3
 744 011c 40010000 		.4byte	.LASF25
 745 0120 06       		.byte	0x6
 746 0121 43       		.byte	0x43
 747 0122 CE000000 		.4byte	0xce
 748 0126 03       		.uleb128 0x3
 749 0127 A5010000 		.4byte	.LASF26
 750 012b 06       		.byte	0x6
 751 012c 45       		.byte	0x45
 752 012d C3000000 		.4byte	0xc3
 753 0131 03       		.uleb128 0x3
 754 0132 38000000 		.4byte	.LASF27
 755 0136 07       		.byte	0x7
 756 0137 35       		.byte	0x35
 757 0138 B8000000 		.4byte	0xb8
 758 013c 03       		.uleb128 0x3
 759 013d E0010000 		.4byte	.LASF28
 760 0141 07       		.byte	0x7
 761 0142 3F       		.byte	0x3f
 762 0143 47010000 		.4byte	0x147
 763 0147 05       		.uleb128 0x5
 764 0148 66020000 		.4byte	.LASF46
 765 014c 44       		.byte	0x44
 766 014d 08       		.byte	0x8
 767 014e 9A       		.byte	0x9a
 768 014f 25020000 		.4byte	0x225
 769 0153 06       		.uleb128 0x6
 770 0154 DC040000 		.4byte	.LASF29
 771 0158 08       		.byte	0x8
 772 0159 9B       		.byte	0x9b
 773 015a 5A020000 		.4byte	0x25a
 774 015e 00       		.byte	0
 775 015f 06       		.uleb128 0x6
 776 0160 28020000 		.4byte	.LASF30
 777 0164 08       		.byte	0x8
 778 0165 9C       		.byte	0x9c
 779 0166 05010000 		.4byte	0x105
 780 016a 08       		.byte	0x8
 781 016b 07       		.uleb128 0x7
 782 016c 63747800 		.ascii	"ctx\000"
 783 0170 08       		.byte	0x8
 784 0171 9D       		.byte	0x9d
 785 0172 46040000 		.4byte	0x446
 786 0176 0C       		.byte	0xc
 787 0177 06       		.uleb128 0x6
 788 0178 0F050000 		.4byte	.LASF31
 789 017c 08       		.byte	0x8
 790 017d 9F       		.byte	0x9f
 791 017e 30020000 		.4byte	0x230
ARM GAS  /tmp/ccbtJCRQ.s 			page 39


 792 0182 10       		.byte	0x10
 793 0183 06       		.uleb128 0x6
 794 0184 B0050000 		.4byte	.LASF32
 795 0188 08       		.byte	0x8
 796 0189 A0       		.byte	0xa0
 797 018a 30020000 		.4byte	0x230
 798 018e 14       		.byte	0x14
 799 018f 06       		.uleb128 0x6
 800 0190 5C040000 		.4byte	.LASF33
 801 0194 08       		.byte	0x8
 802 0195 A7       		.byte	0xa7
 803 0196 AB050000 		.4byte	0x5ab
 804 019a 18       		.byte	0x18
 805 019b 06       		.uleb128 0x6
 806 019c 45020000 		.4byte	.LASF34
 807 01a0 08       		.byte	0x8
 808 01a1 B0       		.byte	0xb0
 809 01a2 BD050000 		.4byte	0x5bd
 810 01a6 1C       		.byte	0x1c
 811 01a7 06       		.uleb128 0x6
 812 01a8 52050000 		.4byte	.LASF35
 813 01ac 08       		.byte	0x8
 814 01ad B5       		.byte	0xb5
 815 01ae EF000000 		.4byte	0xef
 816 01b2 20       		.byte	0x20
 817 01b3 06       		.uleb128 0x6
 818 01b4 32000000 		.4byte	.LASF36
 819 01b8 08       		.byte	0x8
 820 01b9 B9       		.byte	0xb9
 821 01ba E4000000 		.4byte	0xe4
 822 01be 21       		.byte	0x21
 823 01bf 06       		.uleb128 0x6
 824 01c0 9A000000 		.4byte	.LASF37
 825 01c4 08       		.byte	0x8
 826 01c5 BE       		.byte	0xbe
 827 01c6 FA000000 		.4byte	0xfa
 828 01ca 22       		.byte	0x22
 829 01cb 08       		.uleb128 0x8
 830 01cc 7500     		.ascii	"u\000"
 831 01ce 08       		.byte	0x8
 832 01cf 0F01     		.2byte	0x10f
 833 01d1 E0040000 		.4byte	0x4e0
 834 01d5 24       		.byte	0x24
 835 01d6 09       		.uleb128 0x9
 836 01d7 34050000 		.4byte	.LASF38
 837 01db 08       		.byte	0x8
 838 01dc 1401     		.2byte	0x114
 839 01de 36020000 		.4byte	0x236
 840 01e2 28       		.byte	0x28
 841 01e3 09       		.uleb128 0x9
 842 01e4 5D020000 		.4byte	.LASF39
 843 01e8 08       		.byte	0x8
 844 01e9 1A01     		.2byte	0x11a
 845 01eb 5A020000 		.4byte	0x25a
 846 01ef 2C       		.byte	0x2c
 847 01f0 09       		.uleb128 0x9
 848 01f1 56000000 		.4byte	.LASF40
ARM GAS  /tmp/ccbtJCRQ.s 			page 40


 849 01f5 08       		.byte	0x8
 850 01f6 2001     		.2byte	0x120
 851 01f8 1B010000 		.4byte	0x11b
 852 01fc 34       		.byte	0x34
 853 01fd 09       		.uleb128 0x9
 854 01fe C1010000 		.4byte	.LASF41
 855 0202 08       		.byte	0x8
 856 0203 2701     		.2byte	0x127
 857 0205 A5050000 		.4byte	0x5a5
 858 0209 38       		.byte	0x38
 859 020a 09       		.uleb128 0x9
 860 020b 42000000 		.4byte	.LASF42
 861 020f 08       		.byte	0x8
 862 0210 2B01     		.2byte	0x12b
 863 0212 05010000 		.4byte	0x105
 864 0216 3C       		.byte	0x3c
 865 0217 09       		.uleb128 0x9
 866 0218 BF050000 		.4byte	.LASF43
 867 021c 08       		.byte	0x8
 868 021d 3201     		.2byte	0x132
 869 021f 0D030000 		.4byte	0x30d
 870 0223 40       		.byte	0x40
 871 0224 00       		.byte	0
 872 0225 03       		.uleb128 0x3
 873 0226 32020000 		.4byte	.LASF44
 874 022a 07       		.byte	0x7
 875 022b 44       		.byte	0x44
 876 022c 30020000 		.4byte	0x230
 877 0230 0A       		.uleb128 0xa
 878 0231 04       		.byte	0x4
 879 0232 3C010000 		.4byte	0x13c
 880 0236 03       		.uleb128 0x3
 881 0237 81000000 		.4byte	.LASF45
 882 023b 07       		.byte	0x7
 883 023c 49       		.byte	0x49
 884 023d 41020000 		.4byte	0x241
 885 0241 05       		.uleb128 0x5
 886 0242 00000000 		.4byte	.LASF47
 887 0246 04       		.byte	0x4
 888 0247 08       		.byte	0x8
 889 0248 88       		.byte	0x88
 890 0249 5A020000 		.4byte	0x25a
 891 024d 06       		.uleb128 0x6
 892 024e 6C000000 		.4byte	.LASF48
 893 0252 08       		.byte	0x8
 894 0253 89       		.byte	0x89
 895 0254 30020000 		.4byte	0x230
 896 0258 00       		.byte	0
 897 0259 00       		.byte	0
 898 025a 03       		.uleb128 0x3
 899 025b B1010000 		.4byte	.LASF49
 900 025f 07       		.byte	0x7
 901 0260 50       		.byte	0x50
 902 0261 65020000 		.4byte	0x265
 903 0265 05       		.uleb128 0x5
 904 0266 E3000000 		.4byte	.LASF50
 905 026a 08       		.byte	0x8
ARM GAS  /tmp/ccbtJCRQ.s 			page 41


 906 026b 08       		.byte	0x8
 907 026c 8F       		.byte	0x8f
 908 026d 8A020000 		.4byte	0x28a
 909 0271 06       		.uleb128 0x6
 910 0272 6C000000 		.4byte	.LASF48
 911 0276 08       		.byte	0x8
 912 0277 90       		.byte	0x90
 913 0278 30020000 		.4byte	0x230
 914 027c 00       		.byte	0
 915 027d 06       		.uleb128 0x6
 916 027e DE000000 		.4byte	.LASF51
 917 0282 08       		.byte	0x8
 918 0283 91       		.byte	0x91
 919 0284 30020000 		.4byte	0x230
 920 0288 04       		.byte	0x4
 921 0289 00       		.byte	0
 922 028a 03       		.uleb128 0x3
 923 028b C7040000 		.4byte	.LASF52
 924 028f 07       		.byte	0x7
 925 0290 57       		.byte	0x57
 926 0291 95020000 		.4byte	0x295
 927 0295 0B       		.uleb128 0xb
 928 0296 C4000000 		.4byte	.LASF53
 929 029a 1C       		.byte	0x1c
 930 029b 08       		.byte	0x8
 931 029c 6A01     		.2byte	0x16a
 932 029e F1020000 		.4byte	0x2f1
 933 02a2 09       		.uleb128 0x9
 934 02a3 DC040000 		.4byte	.LASF29
 935 02a7 08       		.byte	0x8
 936 02a8 6B01     		.2byte	0x16b
 937 02aa 5A020000 		.4byte	0x25a
 938 02ae 00       		.byte	0
 939 02af 09       		.uleb128 0x9
 940 02b0 28020000 		.4byte	.LASF30
 941 02b4 08       		.byte	0x8
 942 02b5 6C01     		.2byte	0x16c
 943 02b7 05010000 		.4byte	0x105
 944 02bb 08       		.byte	0x8
 945 02bc 08       		.uleb128 0x8
 946 02bd 63747800 		.ascii	"ctx\000"
 947 02c1 08       		.byte	0x8
 948 02c2 6E01     		.2byte	0x16e
 949 02c4 46040000 		.4byte	0x446
 950 02c8 0C       		.byte	0xc
 951 02c9 09       		.uleb128 0x9
 952 02ca 0F050000 		.4byte	.LASF31
 953 02ce 08       		.byte	0x8
 954 02cf 7101     		.2byte	0x171
 955 02d1 30020000 		.4byte	0x230
 956 02d5 10       		.byte	0x10
 957 02d6 09       		.uleb128 0x9
 958 02d7 B0050000 		.4byte	.LASF32
 959 02db 08       		.byte	0x8
 960 02dc 7201     		.2byte	0x172
 961 02de 30020000 		.4byte	0x230
 962 02e2 14       		.byte	0x14
ARM GAS  /tmp/ccbtJCRQ.s 			page 42


 963 02e3 09       		.uleb128 0x9
 964 02e4 9A050000 		.4byte	.LASF54
 965 02e8 08       		.byte	0x8
 966 02e9 7501     		.2byte	0x175
 967 02eb 30020000 		.4byte	0x230
 968 02ef 18       		.byte	0x18
 969 02f0 00       		.byte	0
 970 02f1 03       		.uleb128 0x3
 971 02f2 F4000000 		.4byte	.LASF55
 972 02f6 07       		.byte	0x7
 973 02f7 5C       		.byte	0x5c
 974 02f8 FC020000 		.4byte	0x2fc
 975 02fc 0A       		.uleb128 0xa
 976 02fd 04       		.byte	0x4
 977 02fe 02030000 		.4byte	0x302
 978 0302 0C       		.uleb128 0xc
 979 0303 0D030000 		.4byte	0x30d
 980 0307 0D       		.uleb128 0xd
 981 0308 0D030000 		.4byte	0x30d
 982 030c 00       		.byte	0
 983 030d 0E       		.uleb128 0xe
 984 030e 04       		.byte	0x4
 985 030f 03       		.uleb128 0x3
 986 0310 AE020000 		.4byte	.LASF56
 987 0314 07       		.byte	0x7
 988 0315 61       		.byte	0x61
 989 0316 1A030000 		.4byte	0x31a
 990 031a 0B       		.uleb128 0xb
 991 031b 61010000 		.4byte	.LASF57
 992 031f 14       		.byte	0x14
 993 0320 08       		.byte	0x8
 994 0321 4501     		.2byte	0x145
 995 0323 69030000 		.4byte	0x369
 996 0327 09       		.uleb128 0x9
 997 0328 6C000000 		.4byte	.LASF48
 998 032c 08       		.byte	0x8
 999 032d 4601     		.2byte	0x146
 1000 032f C3050000 		.4byte	0x5c3
 1001 0333 00       		.byte	0
 1002 0334 09       		.uleb128 0x9
 1003 0335 DE000000 		.4byte	.LASF51
 1004 0339 08       		.byte	0x8
 1005 033a 4701     		.2byte	0x147
 1006 033c C3050000 		.4byte	0x5c3
 1007 0340 04       		.byte	0x4
 1008 0341 09       		.uleb128 0x9
 1009 0342 76050000 		.4byte	.LASF58
 1010 0346 08       		.byte	0x8
 1011 0347 4801     		.2byte	0x148
 1012 0349 31010000 		.4byte	0x131
 1013 034d 08       		.byte	0x8
 1014 034e 09       		.uleb128 0x9
 1015 034f D2000000 		.4byte	.LASF59
 1016 0353 08       		.byte	0x8
 1017 0354 4901     		.2byte	0x149
 1018 0356 F1020000 		.4byte	0x2f1
 1019 035a 0C       		.byte	0xc
ARM GAS  /tmp/ccbtJCRQ.s 			page 43


 1020 035b 08       		.uleb128 0x8
 1021 035c 70617200 		.ascii	"par\000"
 1022 0360 08       		.byte	0x8
 1023 0361 4B01     		.2byte	0x14b
 1024 0363 0D030000 		.4byte	0x30d
 1025 0367 10       		.byte	0x10
 1026 0368 00       		.byte	0
 1027 0369 03       		.uleb128 0x3
 1028 036a 3C050000 		.4byte	.LASF60
 1029 036e 07       		.byte	0x7
 1030 036f 66       		.byte	0x66
 1031 0370 74030000 		.4byte	0x374
 1032 0374 0B       		.uleb128 0xb
 1033 0375 C9010000 		.4byte	.LASF61
 1034 0379 0C       		.byte	0xc
 1035 037a 08       		.byte	0x8
 1036 037b 5501     		.2byte	0x155
 1037 037d B6030000 		.4byte	0x3b6
 1038 0381 09       		.uleb128 0x9
 1039 0382 6C000000 		.4byte	.LASF48
 1040 0386 08       		.byte	0x8
 1041 0387 5601     		.2byte	0x156
 1042 0389 C3050000 		.4byte	0x5c3
 1043 038d 00       		.byte	0
 1044 038e 09       		.uleb128 0x9
 1045 038f DE000000 		.4byte	.LASF51
 1046 0393 08       		.byte	0x8
 1047 0394 5801     		.2byte	0x158
 1048 0396 C3050000 		.4byte	0x5c3
 1049 039a 04       		.byte	0x4
 1050 039b 09       		.uleb128 0x9
 1051 039c 76050000 		.4byte	.LASF58
 1052 03a0 08       		.byte	0x8
 1053 03a1 5A01     		.2byte	0x15a
 1054 03a3 31010000 		.4byte	0x131
 1055 03a7 08       		.byte	0x8
 1056 03a8 09       		.uleb128 0x9
 1057 03a9 3A040000 		.4byte	.LASF62
 1058 03ad 08       		.byte	0x8
 1059 03ae 6201     		.2byte	0x162
 1060 03b0 31010000 		.4byte	0x131
 1061 03b4 0A       		.byte	0xa
 1062 03b5 00       		.byte	0
 1063 03b6 03       		.uleb128 0x3
 1064 03b7 78020000 		.4byte	.LASF63
 1065 03bb 07       		.byte	0x7
 1066 03bc 6B       		.byte	0x6b
 1067 03bd C1030000 		.4byte	0x3c1
 1068 03c1 0B       		.uleb128 0xb
 1069 03c2 12010000 		.4byte	.LASF64
 1070 03c6 04       		.byte	0x4
 1071 03c7 08       		.byte	0x8
 1072 03c8 7C01     		.2byte	0x17c
 1073 03ca DC030000 		.4byte	0x3dc
 1074 03ce 09       		.uleb128 0x9
 1075 03cf 7B030000 		.4byte	.LASF65
 1076 03d3 08       		.byte	0x8
ARM GAS  /tmp/ccbtJCRQ.s 			page 44


 1077 03d4 8401     		.2byte	0x184
 1078 03d6 C9050000 		.4byte	0x5c9
 1079 03da 00       		.byte	0
 1080 03db 00       		.byte	0
 1081 03dc 03       		.uleb128 0x3
 1082 03dd 58050000 		.4byte	.LASF66
 1083 03e1 07       		.byte	0x7
 1084 03e2 70       		.byte	0x70
 1085 03e3 E7030000 		.4byte	0x3e7
 1086 03e7 0B       		.uleb128 0xb
 1087 03e8 30040000 		.4byte	.LASF67
 1088 03ec 70       		.byte	0x70
 1089 03ed 08       		.byte	0x8
 1090 03ee 9C01     		.2byte	0x19c
 1091 03f0 29040000 		.4byte	0x429
 1092 03f4 09       		.uleb128 0x9
 1093 03f5 4C040000 		.4byte	.LASF68
 1094 03f9 08       		.byte	0x8
 1095 03fa A001     		.2byte	0x1a0
 1096 03fc 8A020000 		.4byte	0x28a
 1097 0400 00       		.byte	0
 1098 0401 09       		.uleb128 0x9
 1099 0402 B0000000 		.4byte	.LASF69
 1100 0406 08       		.byte	0x8
 1101 0407 A401     		.2byte	0x1a4
 1102 0409 69030000 		.4byte	0x369
 1103 040d 1C       		.byte	0x1c
 1104 040e 08       		.uleb128 0x8
 1105 040f 64626700 		.ascii	"dbg\000"
 1106 0413 08       		.byte	0x8
 1107 0414 A801     		.2byte	0x1a8
 1108 0416 B6030000 		.4byte	0x3b6
 1109 041a 28       		.byte	0x28
 1110 041b 09       		.uleb128 0x9
 1111 041c 9F030000 		.4byte	.LASF70
 1112 0420 08       		.byte	0x8
 1113 0421 AC01     		.2byte	0x1ac
 1114 0423 3C010000 		.4byte	0x13c
 1115 0427 2C       		.byte	0x2c
 1116 0428 00       		.byte	0
 1117 0429 04       		.uleb128 0x4
 1118 042a 04       		.byte	0x4
 1119 042b 07       		.byte	0x7
 1120 042c A4040000 		.4byte	.LASF71
 1121 0430 03       		.uleb128 0x3
 1122 0431 29000000 		.4byte	.LASF72
 1123 0435 09       		.byte	0x9
 1124 0436 65       		.byte	0x65
 1125 0437 0D030000 		.4byte	0x30d
 1126 043b 03       		.uleb128 0x3
 1127 043c 8F050000 		.4byte	.LASF73
 1128 0440 09       		.byte	0x9
 1129 0441 6D       		.byte	0x6d
 1130 0442 D9000000 		.4byte	0xd9
 1131 0446 05       		.uleb128 0x5
 1132 0447 B7000000 		.4byte	.LASF74
 1133 044b 04       		.byte	0x4
ARM GAS  /tmp/ccbtJCRQ.s 			page 45


 1134 044c 09       		.byte	0x9
 1135 044d 89       		.byte	0x89
 1136 044e 5E040000 		.4byte	0x45e
 1137 0452 07       		.uleb128 0x7
 1138 0453 737000   		.ascii	"sp\000"
 1139 0456 09       		.byte	0x9
 1140 0457 8A       		.byte	0x8a
 1141 0458 DA040000 		.4byte	0x4da
 1142 045c 00       		.byte	0
 1143 045d 00       		.byte	0
 1144 045e 0B       		.uleb128 0xb
 1145 045f 05040000 		.4byte	.LASF75
 1146 0463 24       		.byte	0x24
 1147 0464 0A       		.byte	0xa
 1148 0465 5901     		.2byte	0x159
 1149 0467 DA040000 		.4byte	0x4da
 1150 046b 08       		.uleb128 0x8
 1151 046c 723400   		.ascii	"r4\000"
 1152 046f 0A       		.byte	0xa
 1153 0470 6C01     		.2byte	0x16c
 1154 0472 30040000 		.4byte	0x430
 1155 0476 00       		.byte	0
 1156 0477 08       		.uleb128 0x8
 1157 0478 723500   		.ascii	"r5\000"
 1158 047b 0A       		.byte	0xa
 1159 047c 6D01     		.2byte	0x16d
 1160 047e 30040000 		.4byte	0x430
 1161 0482 04       		.byte	0x4
 1162 0483 08       		.uleb128 0x8
 1163 0484 723600   		.ascii	"r6\000"
 1164 0487 0A       		.byte	0xa
 1165 0488 6E01     		.2byte	0x16e
 1166 048a 30040000 		.4byte	0x430
 1167 048e 08       		.byte	0x8
 1168 048f 08       		.uleb128 0x8
 1169 0490 723700   		.ascii	"r7\000"
 1170 0493 0A       		.byte	0xa
 1171 0494 6F01     		.2byte	0x16f
 1172 0496 30040000 		.4byte	0x430
 1173 049a 0C       		.byte	0xc
 1174 049b 08       		.uleb128 0x8
 1175 049c 723800   		.ascii	"r8\000"
 1176 049f 0A       		.byte	0xa
 1177 04a0 7001     		.2byte	0x170
 1178 04a2 30040000 		.4byte	0x430
 1179 04a6 10       		.byte	0x10
 1180 04a7 08       		.uleb128 0x8
 1181 04a8 723900   		.ascii	"r9\000"
 1182 04ab 0A       		.byte	0xa
 1183 04ac 7101     		.2byte	0x171
 1184 04ae 30040000 		.4byte	0x430
 1185 04b2 14       		.byte	0x14
 1186 04b3 08       		.uleb128 0x8
 1187 04b4 72313000 		.ascii	"r10\000"
 1188 04b8 0A       		.byte	0xa
 1189 04b9 7201     		.2byte	0x172
 1190 04bb 30040000 		.4byte	0x430
ARM GAS  /tmp/ccbtJCRQ.s 			page 46


 1191 04bf 18       		.byte	0x18
 1192 04c0 08       		.uleb128 0x8
 1193 04c1 72313100 		.ascii	"r11\000"
 1194 04c5 0A       		.byte	0xa
 1195 04c6 7301     		.2byte	0x173
 1196 04c8 30040000 		.4byte	0x430
 1197 04cc 1C       		.byte	0x1c
 1198 04cd 08       		.uleb128 0x8
 1199 04ce 6C7200   		.ascii	"lr\000"
 1200 04d1 0A       		.byte	0xa
 1201 04d2 7401     		.2byte	0x174
 1202 04d4 30040000 		.4byte	0x430
 1203 04d8 20       		.byte	0x20
 1204 04d9 00       		.byte	0
 1205 04da 0A       		.uleb128 0xa
 1206 04db 04       		.byte	0x4
 1207 04dc 5E040000 		.4byte	0x45e
 1208 04e0 0F       		.uleb128 0xf
 1209 04e1 04       		.byte	0x4
 1210 04e2 08       		.byte	0x8
 1211 04e3 D2       		.byte	0xd2
 1212 04e4 43050000 		.4byte	0x543
 1213 04e8 10       		.uleb128 0x10
 1214 04e9 F0010000 		.4byte	.LASF76
 1215 04ed 08       		.byte	0x8
 1216 04ee D9       		.byte	0xd9
 1217 04ef 10010000 		.4byte	0x110
 1218 04f3 10       		.uleb128 0x10
 1219 04f4 B6050000 		.4byte	.LASF77
 1220 04f8 08       		.byte	0x8
 1221 04f9 E0       		.byte	0xe0
 1222 04fa 10010000 		.4byte	0x110
 1223 04fe 10       		.uleb128 0x10
 1224 04ff A9000000 		.4byte	.LASF78
 1225 0503 08       		.byte	0x8
 1226 0504 E7       		.byte	0xe7
 1227 0505 0D030000 		.4byte	0x30d
 1228 0509 10       		.uleb128 0x10
 1229 050a 64050000 		.4byte	.LASF79
 1230 050e 08       		.byte	0x8
 1231 050f EE       		.byte	0xee
 1232 0510 43050000 		.4byte	0x543
 1233 0514 10       		.uleb128 0x10
 1234 0515 38010000 		.4byte	.LASF80
 1235 0519 08       		.byte	0x8
 1236 051a F3       		.byte	0xf3
 1237 051b 10010000 		.4byte	0x110
 1238 051f 10       		.uleb128 0x10
 1239 0520 00050000 		.4byte	.LASF81
 1240 0524 08       		.byte	0x8
 1241 0525 FC       		.byte	0xfc
 1242 0526 6E050000 		.4byte	0x56e
 1243 052a 11       		.uleb128 0x11
 1244 052b 22000000 		.4byte	.LASF82
 1245 052f 08       		.byte	0x8
 1246 0530 0501     		.2byte	0x105
 1247 0532 A5050000 		.4byte	0x5a5
ARM GAS  /tmp/ccbtJCRQ.s 			page 47


 1248 0536 11       		.uleb128 0x11
 1249 0537 D7000000 		.4byte	.LASF83
 1250 053b 08       		.byte	0x8
 1251 053c 0D01     		.2byte	0x10d
 1252 053e 1B010000 		.4byte	0x11b
 1253 0542 00       		.byte	0
 1254 0543 0A       		.uleb128 0xa
 1255 0544 04       		.byte	0x4
 1256 0545 25020000 		.4byte	0x225
 1257 0549 05       		.uleb128 0x5
 1258 054a 4C010000 		.4byte	.LASF84
 1259 054e 0C       		.byte	0xc
 1260 054f 0B       		.byte	0xb
 1261 0550 34       		.byte	0x34
 1262 0551 6E050000 		.4byte	0x56e
 1263 0555 06       		.uleb128 0x6
 1264 0556 DC040000 		.4byte	.LASF29
 1265 055a 0B       		.byte	0xb
 1266 055b 35       		.byte	0x35
 1267 055c 5A020000 		.4byte	0x25a
 1268 0560 00       		.byte	0
 1269 0561 07       		.uleb128 0x7
 1270 0562 636E7400 		.ascii	"cnt\000"
 1271 0566 0B       		.byte	0xb
 1272 0567 37       		.byte	0x37
 1273 0568 26010000 		.4byte	0x126
 1274 056c 08       		.byte	0x8
 1275 056d 00       		.byte	0
 1276 056e 0A       		.uleb128 0xa
 1277 056f 04       		.byte	0x4
 1278 0570 49050000 		.4byte	0x549
 1279 0574 05       		.uleb128 0x5
 1280 0575 07020000 		.4byte	.LASF85
 1281 0579 10       		.byte	0x10
 1282 057a 0C       		.byte	0xc
 1283 057b 39       		.byte	0x39
 1284 057c A5050000 		.4byte	0x5a5
 1285 0580 06       		.uleb128 0x6
 1286 0581 DC040000 		.4byte	.LASF29
 1287 0585 0C       		.byte	0xc
 1288 0586 3A       		.byte	0x3a
 1289 0587 5A020000 		.4byte	0x25a
 1290 058b 00       		.byte	0
 1291 058c 06       		.uleb128 0x6
 1292 058d AB010000 		.4byte	.LASF86
 1293 0591 0C       		.byte	0xc
 1294 0592 3C       		.byte	0x3c
 1295 0593 30020000 		.4byte	0x230
 1296 0597 08       		.byte	0x8
 1297 0598 06       		.uleb128 0x6
 1298 0599 6C000000 		.4byte	.LASF48
 1299 059d 0C       		.byte	0xc
 1300 059e 3E       		.byte	0x3e
 1301 059f E4050000 		.4byte	0x5e4
 1302 05a3 0C       		.byte	0xc
 1303 05a4 00       		.byte	0
 1304 05a5 0A       		.uleb128 0xa
ARM GAS  /tmp/ccbtJCRQ.s 			page 48


 1305 05a6 04       		.byte	0x4
 1306 05a7 74050000 		.4byte	0x574
 1307 05ab 0A       		.uleb128 0xa
 1308 05ac 04       		.byte	0x4
 1309 05ad B1050000 		.4byte	0x5b1
 1310 05b1 12       		.uleb128 0x12
 1311 05b2 B6050000 		.4byte	0x5b6
 1312 05b6 04       		.uleb128 0x4
 1313 05b7 01       		.byte	0x1
 1314 05b8 08       		.byte	0x8
 1315 05b9 2D020000 		.4byte	.LASF87
 1316 05bd 0A       		.uleb128 0xa
 1317 05be 04       		.byte	0x4
 1318 05bf 3B040000 		.4byte	0x43b
 1319 05c3 0A       		.uleb128 0xa
 1320 05c4 04       		.byte	0x4
 1321 05c5 0F030000 		.4byte	0x30f
 1322 05c9 13       		.uleb128 0x13
 1323 05ca AB050000 		.4byte	0x5ab
 1324 05ce 03       		.uleb128 0x3
 1325 05cf 72010000 		.4byte	.LASF88
 1326 05d3 02       		.byte	0x2
 1327 05d4 40       		.byte	0x40
 1328 05d5 FC020000 		.4byte	0x2fc
 1329 05d9 03       		.uleb128 0x3
 1330 05da 07050000 		.4byte	.LASF89
 1331 05de 0C       		.byte	0xc
 1332 05df 34       		.byte	0x34
 1333 05e0 74050000 		.4byte	0x574
 1334 05e4 0A       		.uleb128 0xa
 1335 05e5 04       		.byte	0x4
 1336 05e6 D9050000 		.4byte	0x5d9
 1337 05ea 04       		.uleb128 0x4
 1338 05eb 01       		.byte	0x1
 1339 05ec 02       		.byte	0x2
 1340 05ed F7010000 		.4byte	.LASF90
 1341 05f1 0A       		.uleb128 0xa
 1342 05f2 04       		.byte	0x4
 1343 05f3 F7050000 		.4byte	0x5f7
 1344 05f7 14       		.uleb128 0x14
 1345 05f8 15       		.uleb128 0x15
 1346 05f9 10       		.byte	0x10
 1347 05fa 0D       		.byte	0xd
 1348 05fb 3D       		.byte	0x3d
 1349 05fc 31060000 		.4byte	0x631
 1350 0600 06       		.uleb128 0x6
 1351 0601 5C040000 		.4byte	.LASF33
 1352 0605 0D       		.byte	0xd
 1353 0606 3E       		.byte	0x3e
 1354 0607 AB050000 		.4byte	0x5ab
 1355 060b 00       		.byte	0
 1356 060c 06       		.uleb128 0x6
 1357 060d 23050000 		.4byte	.LASF91
 1358 0611 0D       		.byte	0xd
 1359 0612 3F       		.byte	0x3f
 1360 0613 F1050000 		.4byte	0x5f1
 1361 0617 04       		.byte	0x4
ARM GAS  /tmp/ccbtJCRQ.s 			page 49


 1362 0618 06       		.uleb128 0x6
 1363 0619 A5020000 		.4byte	.LASF92
 1364 061d 0D       		.byte	0xd
 1365 061e 40       		.byte	0x40
 1366 061f F1050000 		.4byte	0x5f1
 1367 0623 08       		.byte	0x8
 1368 0624 06       		.uleb128 0x6
 1369 0625 70020000 		.4byte	.LASF93
 1370 0629 0D       		.byte	0xd
 1371 062a 41       		.byte	0x41
 1372 062b F1050000 		.4byte	0x5f1
 1373 062f 0C       		.byte	0xc
 1374 0630 00       		.byte	0
 1375 0631 03       		.uleb128 0x3
 1376 0632 4B000000 		.4byte	.LASF94
 1377 0636 0D       		.byte	0xd
 1378 0637 42       		.byte	0x42
 1379 0638 F8050000 		.4byte	0x5f8
 1380 063c 16       		.uleb128 0x16
 1381 063d A2050000 		.4byte	.LASF95
 1382 0641 02       		.byte	0x2
 1383 0642 1C01     		.2byte	0x11c
 1384 0644 30020000 		.4byte	0x230
 1385 0648 03       		.byte	0x3
 1386 0649 17       		.uleb128 0x17
 1387 064a 91010000 		.4byte	.LASF113
 1388 064e 10       		.byte	0x10
 1389 064f 60       		.byte	0x60
 1390 0650 10010000 		.4byte	0x110
 1391 0654 03       		.byte	0x3
 1392 0655 71060000 		.4byte	0x671
 1393 0659 18       		.uleb128 0x18
 1394 065a 747000   		.ascii	"tp\000"
 1395 065d 10       		.byte	0x10
 1396 065e 60       		.byte	0x60
 1397 065f 30020000 		.4byte	0x230
 1398 0663 19       		.uleb128 0x19
 1399 0664 BE020000 		.4byte	.LASF97
 1400 0668 81060000 		.4byte	0x681
 1401 066c 91010000 		.4byte	.LASF113
 1402 0670 00       		.byte	0
 1403 0671 1A       		.uleb128 0x1a
 1404 0672 B6050000 		.4byte	0x5b6
 1405 0676 81060000 		.4byte	0x681
 1406 067a 1B       		.uleb128 0x1b
 1407 067b 29040000 		.4byte	0x429
 1408 067f 08       		.byte	0x8
 1409 0680 00       		.byte	0
 1410 0681 12       		.uleb128 0x12
 1411 0682 71060000 		.4byte	0x671
 1412 0686 16       		.uleb128 0x16
 1413 0687 1E040000 		.4byte	.LASF96
 1414 068b 02       		.byte	0x2
 1415 068c 2901     		.2byte	0x129
 1416 068e 05010000 		.4byte	0x105
 1417 0692 03       		.byte	0x3
 1418 0693 1C       		.uleb128 0x1c
ARM GAS  /tmp/ccbtJCRQ.s 			page 50


 1419 0694 FD000000 		.4byte	.LASF98
 1420 0698 01       		.byte	0x1
 1421 0699 4C       		.byte	0x4c
 1422 069a 00000000 		.4byte	.LFB220
 1423 069e 7E000000 		.4byte	.LFE220-.LFB220
 1424 06a2 01       		.uleb128 0x1
 1425 06a3 9C       		.byte	0x9c
 1426 06a4 6D070000 		.4byte	0x76d
 1427 06a8 1D       		.uleb128 0x1d
 1428 06a9 747000   		.ascii	"tp\000"
 1429 06ac 01       		.byte	0x1
 1430 06ad 4D       		.byte	0x4d
 1431 06ae 30020000 		.4byte	0x230
 1432 06b2 00000000 		.4byte	.LLST0
 1433 06b6 1E       		.uleb128 0x1e
 1434 06b7 6D736700 		.ascii	"msg\000"
 1435 06bb 01       		.byte	0x1
 1436 06bc 4E       		.byte	0x4e
 1437 06bd 10010000 		.4byte	0x110
 1438 06c1 1F       		.uleb128 0x1f
 1439 06c2 86060000 		.4byte	0x686
 1440 06c6 02000000 		.4byte	.LBB13
 1441 06ca 0A000000 		.4byte	.LBE13-.LBB13
 1442 06ce 01       		.byte	0x1
 1443 06cf 53       		.byte	0x53
 1444 06d0 E5060000 		.4byte	0x6e5
 1445 06d4 20       		.uleb128 0x20
 1446 06d5 3C060000 		.4byte	0x63c
 1447 06d9 02000000 		.4byte	.LBB15
 1448 06dd 0A000000 		.4byte	.LBE15-.LBB15
 1449 06e1 02       		.byte	0x2
 1450 06e2 2B01     		.2byte	0x12b
 1451 06e4 00       		.byte	0
 1452 06e5 21       		.uleb128 0x21
 1453 06e6 00000000 		.4byte	.Ldebug_ranges0+0
 1454 06ea 52070000 		.4byte	0x752
 1455 06ee 1D       		.uleb128 0x1d
 1456 06ef 6900     		.ascii	"i\000"
 1457 06f1 01       		.byte	0x1
 1458 06f2 5B       		.byte	0x5b
 1459 06f3 37000000 		.4byte	0x37
 1460 06f7 13000000 		.4byte	.LLST1
 1461 06fb 22       		.uleb128 0x22
 1462 06fc 4E000000 		.4byte	.LVL3
 1463 0700 98080000 		.4byte	0x898
 1464 0704 23       		.uleb128 0x23
 1465 0705 56000000 		.4byte	.LVL5
 1466 0709 A3080000 		.4byte	0x8a3
 1467 070d 18070000 		.4byte	0x718
 1468 0711 24       		.uleb128 0x24
 1469 0712 01       		.uleb128 0x1
 1470 0713 51       		.byte	0x51
 1471 0714 02       		.uleb128 0x2
 1472 0715 75       		.byte	0x75
 1473 0716 00       		.sleb128 0
 1474 0717 00       		.byte	0
 1475 0718 23       		.uleb128 0x23
ARM GAS  /tmp/ccbtJCRQ.s 			page 51


 1476 0719 5C000000 		.4byte	.LVL6
 1477 071d B9080000 		.4byte	0x8b9
 1478 0721 2C070000 		.4byte	0x72c
 1479 0725 24       		.uleb128 0x24
 1480 0726 01       		.uleb128 0x1
 1481 0727 50       		.byte	0x50
 1482 0728 02       		.uleb128 0x2
 1483 0729 75       		.byte	0x75
 1484 072a 00       		.sleb128 0
 1485 072b 00       		.byte	0
 1486 072c 22       		.uleb128 0x22
 1487 072d 64000000 		.4byte	.LVL8
 1488 0731 CA080000 		.4byte	0x8ca
 1489 0735 25       		.uleb128 0x25
 1490 0736 7E000000 		.4byte	.LVL10
 1491 073a D1080000 		.4byte	0x8d1
 1492 073e 24       		.uleb128 0x24
 1493 073f 01       		.uleb128 0x1
 1494 0740 51       		.byte	0x51
 1495 0741 05       		.uleb128 0x5
 1496 0742 03       		.byte	0x3
 1497 0743 08000000 		.4byte	.LC1
 1498 0747 24       		.uleb128 0x24
 1499 0748 01       		.uleb128 0x1
 1500 0749 50       		.byte	0x50
 1501 074a 05       		.uleb128 0x5
 1502 074b 03       		.byte	0x3
 1503 074c 00000000 		.4byte	.LC0
 1504 0750 00       		.byte	0
 1505 0751 00       		.byte	0
 1506 0752 26       		.uleb128 0x26
 1507 0753 3A000000 		.4byte	.LVL0
 1508 0757 F1080000 		.4byte	0x8f1
 1509 075b 24       		.uleb128 0x24
 1510 075c 01       		.uleb128 0x1
 1511 075d 53       		.byte	0x53
 1512 075e 05       		.uleb128 0x5
 1513 075f 03       		.byte	0x3
 1514 0760 00000000 		.4byte	msg_thread1
 1515 0764 24       		.uleb128 0x24
 1516 0765 01       		.uleb128 0x1
 1517 0766 51       		.byte	0x51
 1518 0767 03       		.uleb128 0x3
 1519 0768 0A       		.byte	0xa
 1520 0769 4801     		.2byte	0x148
 1521 076b 00       		.byte	0
 1522 076c 00       		.byte	0
 1523 076d 1C       		.uleb128 0x1c
 1524 076e CC020000 		.4byte	.LASF99
 1525 0772 01       		.byte	0x1
 1526 0773 32       		.byte	0x32
 1527 0774 00000000 		.4byte	.LFB219
 1528 0778 26000000 		.4byte	.LFE219-.LFB219
 1529 077c 01       		.uleb128 0x1
 1530 077d 9C       		.byte	0x9c
 1531 077e F5070000 		.4byte	0x7f5
 1532 0782 27       		.uleb128 0x27
ARM GAS  /tmp/ccbtJCRQ.s 			page 52


 1533 0783 7000     		.ascii	"p\000"
 1534 0785 01       		.byte	0x1
 1535 0786 32       		.byte	0x32
 1536 0787 0D030000 		.4byte	0x30d
 1537 078b 54000000 		.4byte	.LLST2
 1538 078f 23       		.uleb128 0x23
 1539 0790 0A000000 		.4byte	.LVL12
 1540 0794 1A090000 		.4byte	0x91a
 1541 0798 A9070000 		.4byte	0x7a9
 1542 079c 24       		.uleb128 0x24
 1543 079d 01       		.uleb128 0x1
 1544 079e 51       		.byte	0x51
 1545 079f 02       		.uleb128 0x2
 1546 07a0 08       		.byte	0x8
 1547 07a1 41       		.byte	0x41
 1548 07a2 24       		.uleb128 0x24
 1549 07a3 01       		.uleb128 0x1
 1550 07a4 50       		.byte	0x50
 1551 07a5 02       		.uleb128 0x2
 1552 07a6 74       		.byte	0x74
 1553 07a7 00       		.sleb128 0
 1554 07a8 00       		.byte	0
 1555 07a9 23       		.uleb128 0x23
 1556 07aa 12000000 		.4byte	.LVL13
 1557 07ae 1A090000 		.4byte	0x91a
 1558 07b2 C3070000 		.4byte	0x7c3
 1559 07b6 24       		.uleb128 0x24
 1560 07b7 01       		.uleb128 0x1
 1561 07b8 51       		.byte	0x51
 1562 07b9 02       		.uleb128 0x2
 1563 07ba 08       		.byte	0x8
 1564 07bb 42       		.byte	0x42
 1565 07bc 24       		.uleb128 0x24
 1566 07bd 01       		.uleb128 0x1
 1567 07be 50       		.byte	0x50
 1568 07bf 02       		.uleb128 0x2
 1569 07c0 74       		.byte	0x74
 1570 07c1 00       		.sleb128 0
 1571 07c2 00       		.byte	0
 1572 07c3 23       		.uleb128 0x23
 1573 07c4 1A000000 		.4byte	.LVL14
 1574 07c8 1A090000 		.4byte	0x91a
 1575 07cc DD070000 		.4byte	0x7dd
 1576 07d0 24       		.uleb128 0x24
 1577 07d1 01       		.uleb128 0x1
 1578 07d2 51       		.byte	0x51
 1579 07d3 02       		.uleb128 0x2
 1580 07d4 08       		.byte	0x8
 1581 07d5 43       		.byte	0x43
 1582 07d6 24       		.uleb128 0x24
 1583 07d7 01       		.uleb128 0x1
 1584 07d8 50       		.byte	0x50
 1585 07d9 02       		.uleb128 0x2
 1586 07da 74       		.byte	0x74
 1587 07db 00       		.sleb128 0
 1588 07dc 00       		.byte	0
 1589 07dd 25       		.uleb128 0x25
ARM GAS  /tmp/ccbtJCRQ.s 			page 53


 1590 07de 26000000 		.4byte	.LVL16
 1591 07e2 1A090000 		.4byte	0x91a
 1592 07e6 24       		.uleb128 0x24
 1593 07e7 01       		.uleb128 0x1
 1594 07e8 51       		.byte	0x51
 1595 07e9 02       		.uleb128 0x2
 1596 07ea 08       		.byte	0x8
 1597 07eb 44       		.byte	0x44
 1598 07ec 24       		.uleb128 0x24
 1599 07ed 01       		.uleb128 0x1
 1600 07ee 50       		.byte	0x50
 1601 07ef 03       		.uleb128 0x3
 1602 07f0 F3       		.byte	0xf3
 1603 07f1 01       		.uleb128 0x1
 1604 07f2 50       		.byte	0x50
 1605 07f3 00       		.byte	0
 1606 07f4 00       		.byte	0
 1607 07f5 28       		.uleb128 0x28
 1608 07f6 22010000 		.4byte	.LASF100
 1609 07fa 01       		.byte	0x1
 1610 07fb 68       		.byte	0x68
 1611 07fc 06080000 		.4byte	0x806
 1612 0800 05       		.uleb128 0x5
 1613 0801 03       		.byte	0x3
 1614 0802 00000000 		.4byte	test_007_001
 1615 0806 12       		.uleb128 0x12
 1616 0807 31060000 		.4byte	0x631
 1617 080b 29       		.uleb128 0x29
 1618 080c 11040000 		.4byte	.LASF101
 1619 0810 0E       		.byte	0xe
 1620 0811 9606     		.2byte	0x696
 1621 0813 17080000 		.4byte	0x817
 1622 0817 13       		.uleb128 0x13
 1623 0818 C3000000 		.4byte	0xc3
 1624 081c 2A       		.uleb128 0x2a
 1625 081d 636800   		.ascii	"ch\000"
 1626 0820 08       		.byte	0x8
 1627 0821 D201     		.2byte	0x1d2
 1628 0823 DC030000 		.4byte	0x3dc
 1629 0827 2B       		.uleb128 0x2b
 1630 0828 FD010000 		.4byte	.LASF102
 1631 082c 0D       		.byte	0xd
 1632 082d 9E       		.byte	0x9e
 1633 082e 37000000 		.4byte	0x37
 1634 0832 1A       		.uleb128 0x1a
 1635 0833 42080000 		.4byte	0x842
 1636 0837 42080000 		.4byte	0x842
 1637 083b 1B       		.uleb128 0x1b
 1638 083c 29040000 		.4byte	0x429
 1639 0840 01       		.byte	0x1
 1640 0841 00       		.byte	0
 1641 0842 0A       		.uleb128 0xa
 1642 0843 04       		.byte	0x4
 1643 0844 06080000 		.4byte	0x806
 1644 0848 2C       		.uleb128 0x2c
 1645 0849 92040000 		.4byte	.LASF103
 1646 084d 01       		.byte	0x1
ARM GAS  /tmp/ccbtJCRQ.s 			page 54


 1647 084e 76       		.byte	0x76
 1648 084f 59080000 		.4byte	0x859
 1649 0853 05       		.uleb128 0x5
 1650 0854 03       		.byte	0x3
 1651 0855 00000000 		.4byte	test_sequence_007
 1652 0859 12       		.uleb128 0x12
 1653 085a 32080000 		.4byte	0x832
 1654 085e 1A       		.uleb128 0x1a
 1655 085f 30020000 		.4byte	0x230
 1656 0863 6E080000 		.4byte	0x86e
 1657 0867 1B       		.uleb128 0x1b
 1658 0868 29040000 		.4byte	0x429
 1659 086c 04       		.byte	0x4
 1660 086d 00       		.byte	0
 1661 086e 2B       		.uleb128 0x2b
 1662 086f D4040000 		.4byte	.LASF104
 1663 0873 0F       		.byte	0xf
 1664 0874 5C       		.byte	0x5c
 1665 0875 5E080000 		.4byte	0x85e
 1666 0879 1A       		.uleb128 0x1a
 1667 087a 0D030000 		.4byte	0x30d
 1668 087e 89080000 		.4byte	0x889
 1669 0882 1B       		.uleb128 0x1b
 1670 0883 29040000 		.4byte	0x429
 1671 0887 04       		.byte	0x4
 1672 0888 00       		.byte	0
 1673 0889 2D       		.uleb128 0x2d
 1674 088a 776100   		.ascii	"wa\000"
 1675 088d 0F       		.byte	0xf
 1676 088e 5D       		.byte	0x5d
 1677 088f 93080000 		.4byte	0x893
 1678 0893 12       		.uleb128 0x12
 1679 0894 79080000 		.4byte	0x879
 1680 0898 2E       		.uleb128 0x2e
 1681 0899 9B020000 		.4byte	.LASF114
 1682 089d 10       		.byte	0x10
 1683 089e 3D       		.byte	0x3d
 1684 089f 30020000 		.4byte	0x230
 1685 08a3 2F       		.uleb128 0x2f
 1686 08a4 1B020000 		.4byte	.LASF105
 1687 08a8 10       		.byte	0x10
 1688 08a9 3E       		.byte	0x3e
 1689 08aa B9080000 		.4byte	0x8b9
 1690 08ae 0D       		.uleb128 0xd
 1691 08af 30020000 		.4byte	0x230
 1692 08b3 0D       		.uleb128 0xd
 1693 08b4 10010000 		.4byte	0x110
 1694 08b8 00       		.byte	0
 1695 08b9 2F       		.uleb128 0x2f
 1696 08ba 71000000 		.4byte	.LASF106
 1697 08be 0D       		.byte	0xd
 1698 08bf AE       		.byte	0xae
 1699 08c0 CA080000 		.4byte	0x8ca
 1700 08c4 0D       		.uleb128 0xd
 1701 08c5 B6050000 		.4byte	0x5b6
 1702 08c9 00       		.byte	0
 1703 08ca 30       		.uleb128 0x30
ARM GAS  /tmp/ccbtJCRQ.s 			page 55


 1704 08cb 10000000 		.4byte	.LASF115
 1705 08cf 0F       		.byte	0xf
 1706 08d0 61       		.byte	0x61
 1707 08d1 31       		.uleb128 0x31
 1708 08d2 E2040000 		.4byte	.LASF107
 1709 08d6 0D       		.byte	0xd
 1710 08d7 A7       		.byte	0xa7
 1711 08d8 EA050000 		.4byte	0x5ea
 1712 08dc EB080000 		.4byte	0x8eb
 1713 08e0 0D       		.uleb128 0xd
 1714 08e1 EB080000 		.4byte	0x8eb
 1715 08e5 0D       		.uleb128 0xd
 1716 08e6 AB050000 		.4byte	0x5ab
 1717 08ea 00       		.byte	0
 1718 08eb 0A       		.uleb128 0xa
 1719 08ec 04       		.byte	0x4
 1720 08ed B6050000 		.4byte	0x5b6
 1721 08f1 31       		.uleb128 0x31
 1722 08f2 85030000 		.4byte	.LASF108
 1723 08f6 02       		.byte	0x2
 1724 08f7 F3       		.byte	0xf3
 1725 08f8 30020000 		.4byte	0x230
 1726 08fc 1A090000 		.4byte	0x91a
 1727 0900 0D       		.uleb128 0xd
 1728 0901 0D030000 		.4byte	0x30d
 1729 0905 0D       		.uleb128 0xd
 1730 0906 2C000000 		.4byte	0x2c
 1731 090a 0D       		.uleb128 0xd
 1732 090b 05010000 		.4byte	0x105
 1733 090f 0D       		.uleb128 0xd
 1734 0910 CE050000 		.4byte	0x5ce
 1735 0914 0D       		.uleb128 0xd
 1736 0915 0D030000 		.4byte	0x30d
 1737 0919 00       		.byte	0
 1738 091a 32       		.uleb128 0x32
 1739 091b 9F000000 		.4byte	.LASF109
 1740 091f 10       		.byte	0x10
 1741 0920 3C       		.byte	0x3c
 1742 0921 10010000 		.4byte	0x110
 1743 0925 0D       		.uleb128 0xd
 1744 0926 30020000 		.4byte	0x230
 1745 092a 0D       		.uleb128 0xd
 1746 092b 10010000 		.4byte	0x110
 1747 092f 00       		.byte	0
 1748 0930 00       		.byte	0
 1749              		.section	.debug_abbrev,"",%progbits
 1750              	.Ldebug_abbrev0:
 1751 0000 01       		.uleb128 0x1
 1752 0001 11       		.uleb128 0x11
 1753 0002 01       		.byte	0x1
 1754 0003 25       		.uleb128 0x25
 1755 0004 0E       		.uleb128 0xe
 1756 0005 13       		.uleb128 0x13
 1757 0006 0B       		.uleb128 0xb
 1758 0007 03       		.uleb128 0x3
 1759 0008 0E       		.uleb128 0xe
 1760 0009 1B       		.uleb128 0x1b
ARM GAS  /tmp/ccbtJCRQ.s 			page 56


 1761 000a 0E       		.uleb128 0xe
 1762 000b 55       		.uleb128 0x55
 1763 000c 17       		.uleb128 0x17
 1764 000d 11       		.uleb128 0x11
 1765 000e 01       		.uleb128 0x1
 1766 000f 10       		.uleb128 0x10
 1767 0010 17       		.uleb128 0x17
 1768 0011 00       		.byte	0
 1769 0012 00       		.byte	0
 1770 0013 02       		.uleb128 0x2
 1771 0014 24       		.uleb128 0x24
 1772 0015 00       		.byte	0
 1773 0016 0B       		.uleb128 0xb
 1774 0017 0B       		.uleb128 0xb
 1775 0018 3E       		.uleb128 0x3e
 1776 0019 0B       		.uleb128 0xb
 1777 001a 03       		.uleb128 0x3
 1778 001b 08       		.uleb128 0x8
 1779 001c 00       		.byte	0
 1780 001d 00       		.byte	0
 1781 001e 03       		.uleb128 0x3
 1782 001f 16       		.uleb128 0x16
 1783 0020 00       		.byte	0
 1784 0021 03       		.uleb128 0x3
 1785 0022 0E       		.uleb128 0xe
 1786 0023 3A       		.uleb128 0x3a
 1787 0024 0B       		.uleb128 0xb
 1788 0025 3B       		.uleb128 0x3b
 1789 0026 0B       		.uleb128 0xb
 1790 0027 49       		.uleb128 0x49
 1791 0028 13       		.uleb128 0x13
 1792 0029 00       		.byte	0
 1793 002a 00       		.byte	0
 1794 002b 04       		.uleb128 0x4
 1795 002c 24       		.uleb128 0x24
 1796 002d 00       		.byte	0
 1797 002e 0B       		.uleb128 0xb
 1798 002f 0B       		.uleb128 0xb
 1799 0030 3E       		.uleb128 0x3e
 1800 0031 0B       		.uleb128 0xb
 1801 0032 03       		.uleb128 0x3
 1802 0033 0E       		.uleb128 0xe
 1803 0034 00       		.byte	0
 1804 0035 00       		.byte	0
 1805 0036 05       		.uleb128 0x5
 1806 0037 13       		.uleb128 0x13
 1807 0038 01       		.byte	0x1
 1808 0039 03       		.uleb128 0x3
 1809 003a 0E       		.uleb128 0xe
 1810 003b 0B       		.uleb128 0xb
 1811 003c 0B       		.uleb128 0xb
 1812 003d 3A       		.uleb128 0x3a
 1813 003e 0B       		.uleb128 0xb
 1814 003f 3B       		.uleb128 0x3b
 1815 0040 0B       		.uleb128 0xb
 1816 0041 01       		.uleb128 0x1
 1817 0042 13       		.uleb128 0x13
ARM GAS  /tmp/ccbtJCRQ.s 			page 57


 1818 0043 00       		.byte	0
 1819 0044 00       		.byte	0
 1820 0045 06       		.uleb128 0x6
 1821 0046 0D       		.uleb128 0xd
 1822 0047 00       		.byte	0
 1823 0048 03       		.uleb128 0x3
 1824 0049 0E       		.uleb128 0xe
 1825 004a 3A       		.uleb128 0x3a
 1826 004b 0B       		.uleb128 0xb
 1827 004c 3B       		.uleb128 0x3b
 1828 004d 0B       		.uleb128 0xb
 1829 004e 49       		.uleb128 0x49
 1830 004f 13       		.uleb128 0x13
 1831 0050 38       		.uleb128 0x38
 1832 0051 0B       		.uleb128 0xb
 1833 0052 00       		.byte	0
 1834 0053 00       		.byte	0
 1835 0054 07       		.uleb128 0x7
 1836 0055 0D       		.uleb128 0xd
 1837 0056 00       		.byte	0
 1838 0057 03       		.uleb128 0x3
 1839 0058 08       		.uleb128 0x8
 1840 0059 3A       		.uleb128 0x3a
 1841 005a 0B       		.uleb128 0xb
 1842 005b 3B       		.uleb128 0x3b
 1843 005c 0B       		.uleb128 0xb
 1844 005d 49       		.uleb128 0x49
 1845 005e 13       		.uleb128 0x13
 1846 005f 38       		.uleb128 0x38
 1847 0060 0B       		.uleb128 0xb
 1848 0061 00       		.byte	0
 1849 0062 00       		.byte	0
 1850 0063 08       		.uleb128 0x8
 1851 0064 0D       		.uleb128 0xd
 1852 0065 00       		.byte	0
 1853 0066 03       		.uleb128 0x3
 1854 0067 08       		.uleb128 0x8
 1855 0068 3A       		.uleb128 0x3a
 1856 0069 0B       		.uleb128 0xb
 1857 006a 3B       		.uleb128 0x3b
 1858 006b 05       		.uleb128 0x5
 1859 006c 49       		.uleb128 0x49
 1860 006d 13       		.uleb128 0x13
 1861 006e 38       		.uleb128 0x38
 1862 006f 0B       		.uleb128 0xb
 1863 0070 00       		.byte	0
 1864 0071 00       		.byte	0
 1865 0072 09       		.uleb128 0x9
 1866 0073 0D       		.uleb128 0xd
 1867 0074 00       		.byte	0
 1868 0075 03       		.uleb128 0x3
 1869 0076 0E       		.uleb128 0xe
 1870 0077 3A       		.uleb128 0x3a
 1871 0078 0B       		.uleb128 0xb
 1872 0079 3B       		.uleb128 0x3b
 1873 007a 05       		.uleb128 0x5
 1874 007b 49       		.uleb128 0x49
ARM GAS  /tmp/ccbtJCRQ.s 			page 58


 1875 007c 13       		.uleb128 0x13
 1876 007d 38       		.uleb128 0x38
 1877 007e 0B       		.uleb128 0xb
 1878 007f 00       		.byte	0
 1879 0080 00       		.byte	0
 1880 0081 0A       		.uleb128 0xa
 1881 0082 0F       		.uleb128 0xf
 1882 0083 00       		.byte	0
 1883 0084 0B       		.uleb128 0xb
 1884 0085 0B       		.uleb128 0xb
 1885 0086 49       		.uleb128 0x49
 1886 0087 13       		.uleb128 0x13
 1887 0088 00       		.byte	0
 1888 0089 00       		.byte	0
 1889 008a 0B       		.uleb128 0xb
 1890 008b 13       		.uleb128 0x13
 1891 008c 01       		.byte	0x1
 1892 008d 03       		.uleb128 0x3
 1893 008e 0E       		.uleb128 0xe
 1894 008f 0B       		.uleb128 0xb
 1895 0090 0B       		.uleb128 0xb
 1896 0091 3A       		.uleb128 0x3a
 1897 0092 0B       		.uleb128 0xb
 1898 0093 3B       		.uleb128 0x3b
 1899 0094 05       		.uleb128 0x5
 1900 0095 01       		.uleb128 0x1
 1901 0096 13       		.uleb128 0x13
 1902 0097 00       		.byte	0
 1903 0098 00       		.byte	0
 1904 0099 0C       		.uleb128 0xc
 1905 009a 15       		.uleb128 0x15
 1906 009b 01       		.byte	0x1
 1907 009c 27       		.uleb128 0x27
 1908 009d 19       		.uleb128 0x19
 1909 009e 01       		.uleb128 0x1
 1910 009f 13       		.uleb128 0x13
 1911 00a0 00       		.byte	0
 1912 00a1 00       		.byte	0
 1913 00a2 0D       		.uleb128 0xd
 1914 00a3 05       		.uleb128 0x5
 1915 00a4 00       		.byte	0
 1916 00a5 49       		.uleb128 0x49
 1917 00a6 13       		.uleb128 0x13
 1918 00a7 00       		.byte	0
 1919 00a8 00       		.byte	0
 1920 00a9 0E       		.uleb128 0xe
 1921 00aa 0F       		.uleb128 0xf
 1922 00ab 00       		.byte	0
 1923 00ac 0B       		.uleb128 0xb
 1924 00ad 0B       		.uleb128 0xb
 1925 00ae 00       		.byte	0
 1926 00af 00       		.byte	0
 1927 00b0 0F       		.uleb128 0xf
 1928 00b1 17       		.uleb128 0x17
 1929 00b2 01       		.byte	0x1
 1930 00b3 0B       		.uleb128 0xb
 1931 00b4 0B       		.uleb128 0xb
ARM GAS  /tmp/ccbtJCRQ.s 			page 59


 1932 00b5 3A       		.uleb128 0x3a
 1933 00b6 0B       		.uleb128 0xb
 1934 00b7 3B       		.uleb128 0x3b
 1935 00b8 0B       		.uleb128 0xb
 1936 00b9 01       		.uleb128 0x1
 1937 00ba 13       		.uleb128 0x13
 1938 00bb 00       		.byte	0
 1939 00bc 00       		.byte	0
 1940 00bd 10       		.uleb128 0x10
 1941 00be 0D       		.uleb128 0xd
 1942 00bf 00       		.byte	0
 1943 00c0 03       		.uleb128 0x3
 1944 00c1 0E       		.uleb128 0xe
 1945 00c2 3A       		.uleb128 0x3a
 1946 00c3 0B       		.uleb128 0xb
 1947 00c4 3B       		.uleb128 0x3b
 1948 00c5 0B       		.uleb128 0xb
 1949 00c6 49       		.uleb128 0x49
 1950 00c7 13       		.uleb128 0x13
 1951 00c8 00       		.byte	0
 1952 00c9 00       		.byte	0
 1953 00ca 11       		.uleb128 0x11
 1954 00cb 0D       		.uleb128 0xd
 1955 00cc 00       		.byte	0
 1956 00cd 03       		.uleb128 0x3
 1957 00ce 0E       		.uleb128 0xe
 1958 00cf 3A       		.uleb128 0x3a
 1959 00d0 0B       		.uleb128 0xb
 1960 00d1 3B       		.uleb128 0x3b
 1961 00d2 05       		.uleb128 0x5
 1962 00d3 49       		.uleb128 0x49
 1963 00d4 13       		.uleb128 0x13
 1964 00d5 00       		.byte	0
 1965 00d6 00       		.byte	0
 1966 00d7 12       		.uleb128 0x12
 1967 00d8 26       		.uleb128 0x26
 1968 00d9 00       		.byte	0
 1969 00da 49       		.uleb128 0x49
 1970 00db 13       		.uleb128 0x13
 1971 00dc 00       		.byte	0
 1972 00dd 00       		.byte	0
 1973 00de 13       		.uleb128 0x13
 1974 00df 35       		.uleb128 0x35
 1975 00e0 00       		.byte	0
 1976 00e1 49       		.uleb128 0x49
 1977 00e2 13       		.uleb128 0x13
 1978 00e3 00       		.byte	0
 1979 00e4 00       		.byte	0
 1980 00e5 14       		.uleb128 0x14
 1981 00e6 15       		.uleb128 0x15
 1982 00e7 00       		.byte	0
 1983 00e8 27       		.uleb128 0x27
 1984 00e9 19       		.uleb128 0x19
 1985 00ea 00       		.byte	0
 1986 00eb 00       		.byte	0
 1987 00ec 15       		.uleb128 0x15
 1988 00ed 13       		.uleb128 0x13
ARM GAS  /tmp/ccbtJCRQ.s 			page 60


 1989 00ee 01       		.byte	0x1
 1990 00ef 0B       		.uleb128 0xb
 1991 00f0 0B       		.uleb128 0xb
 1992 00f1 3A       		.uleb128 0x3a
 1993 00f2 0B       		.uleb128 0xb
 1994 00f3 3B       		.uleb128 0x3b
 1995 00f4 0B       		.uleb128 0xb
 1996 00f5 01       		.uleb128 0x1
 1997 00f6 13       		.uleb128 0x13
 1998 00f7 00       		.byte	0
 1999 00f8 00       		.byte	0
 2000 00f9 16       		.uleb128 0x16
 2001 00fa 2E       		.uleb128 0x2e
 2002 00fb 00       		.byte	0
 2003 00fc 03       		.uleb128 0x3
 2004 00fd 0E       		.uleb128 0xe
 2005 00fe 3A       		.uleb128 0x3a
 2006 00ff 0B       		.uleb128 0xb
 2007 0100 3B       		.uleb128 0x3b
 2008 0101 05       		.uleb128 0x5
 2009 0102 27       		.uleb128 0x27
 2010 0103 19       		.uleb128 0x19
 2011 0104 49       		.uleb128 0x49
 2012 0105 13       		.uleb128 0x13
 2013 0106 20       		.uleb128 0x20
 2014 0107 0B       		.uleb128 0xb
 2015 0108 00       		.byte	0
 2016 0109 00       		.byte	0
 2017 010a 17       		.uleb128 0x17
 2018 010b 2E       		.uleb128 0x2e
 2019 010c 01       		.byte	0x1
 2020 010d 03       		.uleb128 0x3
 2021 010e 0E       		.uleb128 0xe
 2022 010f 3A       		.uleb128 0x3a
 2023 0110 0B       		.uleb128 0xb
 2024 0111 3B       		.uleb128 0x3b
 2025 0112 0B       		.uleb128 0xb
 2026 0113 27       		.uleb128 0x27
 2027 0114 19       		.uleb128 0x19
 2028 0115 49       		.uleb128 0x49
 2029 0116 13       		.uleb128 0x13
 2030 0117 20       		.uleb128 0x20
 2031 0118 0B       		.uleb128 0xb
 2032 0119 01       		.uleb128 0x1
 2033 011a 13       		.uleb128 0x13
 2034 011b 00       		.byte	0
 2035 011c 00       		.byte	0
 2036 011d 18       		.uleb128 0x18
 2037 011e 05       		.uleb128 0x5
 2038 011f 00       		.byte	0
 2039 0120 03       		.uleb128 0x3
 2040 0121 08       		.uleb128 0x8
 2041 0122 3A       		.uleb128 0x3a
 2042 0123 0B       		.uleb128 0xb
 2043 0124 3B       		.uleb128 0x3b
 2044 0125 0B       		.uleb128 0xb
 2045 0126 49       		.uleb128 0x49
ARM GAS  /tmp/ccbtJCRQ.s 			page 61


 2046 0127 13       		.uleb128 0x13
 2047 0128 00       		.byte	0
 2048 0129 00       		.byte	0
 2049 012a 19       		.uleb128 0x19
 2050 012b 34       		.uleb128 0x34
 2051 012c 00       		.byte	0
 2052 012d 03       		.uleb128 0x3
 2053 012e 0E       		.uleb128 0xe
 2054 012f 49       		.uleb128 0x49
 2055 0130 13       		.uleb128 0x13
 2056 0131 34       		.uleb128 0x34
 2057 0132 19       		.uleb128 0x19
 2058 0133 1C       		.uleb128 0x1c
 2059 0134 0E       		.uleb128 0xe
 2060 0135 00       		.byte	0
 2061 0136 00       		.byte	0
 2062 0137 1A       		.uleb128 0x1a
 2063 0138 01       		.uleb128 0x1
 2064 0139 01       		.byte	0x1
 2065 013a 49       		.uleb128 0x49
 2066 013b 13       		.uleb128 0x13
 2067 013c 01       		.uleb128 0x1
 2068 013d 13       		.uleb128 0x13
 2069 013e 00       		.byte	0
 2070 013f 00       		.byte	0
 2071 0140 1B       		.uleb128 0x1b
 2072 0141 21       		.uleb128 0x21
 2073 0142 00       		.byte	0
 2074 0143 49       		.uleb128 0x49
 2075 0144 13       		.uleb128 0x13
 2076 0145 2F       		.uleb128 0x2f
 2077 0146 0B       		.uleb128 0xb
 2078 0147 00       		.byte	0
 2079 0148 00       		.byte	0
 2080 0149 1C       		.uleb128 0x1c
 2081 014a 2E       		.uleb128 0x2e
 2082 014b 01       		.byte	0x1
 2083 014c 03       		.uleb128 0x3
 2084 014d 0E       		.uleb128 0xe
 2085 014e 3A       		.uleb128 0x3a
 2086 014f 0B       		.uleb128 0xb
 2087 0150 3B       		.uleb128 0x3b
 2088 0151 0B       		.uleb128 0xb
 2089 0152 27       		.uleb128 0x27
 2090 0153 19       		.uleb128 0x19
 2091 0154 11       		.uleb128 0x11
 2092 0155 01       		.uleb128 0x1
 2093 0156 12       		.uleb128 0x12
 2094 0157 06       		.uleb128 0x6
 2095 0158 40       		.uleb128 0x40
 2096 0159 18       		.uleb128 0x18
 2097 015a 9742     		.uleb128 0x2117
 2098 015c 19       		.uleb128 0x19
 2099 015d 01       		.uleb128 0x1
 2100 015e 13       		.uleb128 0x13
 2101 015f 00       		.byte	0
 2102 0160 00       		.byte	0
ARM GAS  /tmp/ccbtJCRQ.s 			page 62


 2103 0161 1D       		.uleb128 0x1d
 2104 0162 34       		.uleb128 0x34
 2105 0163 00       		.byte	0
 2106 0164 03       		.uleb128 0x3
 2107 0165 08       		.uleb128 0x8
 2108 0166 3A       		.uleb128 0x3a
 2109 0167 0B       		.uleb128 0xb
 2110 0168 3B       		.uleb128 0x3b
 2111 0169 0B       		.uleb128 0xb
 2112 016a 49       		.uleb128 0x49
 2113 016b 13       		.uleb128 0x13
 2114 016c 02       		.uleb128 0x2
 2115 016d 17       		.uleb128 0x17
 2116 016e 00       		.byte	0
 2117 016f 00       		.byte	0
 2118 0170 1E       		.uleb128 0x1e
 2119 0171 34       		.uleb128 0x34
 2120 0172 00       		.byte	0
 2121 0173 03       		.uleb128 0x3
 2122 0174 08       		.uleb128 0x8
 2123 0175 3A       		.uleb128 0x3a
 2124 0176 0B       		.uleb128 0xb
 2125 0177 3B       		.uleb128 0x3b
 2126 0178 0B       		.uleb128 0xb
 2127 0179 49       		.uleb128 0x49
 2128 017a 13       		.uleb128 0x13
 2129 017b 00       		.byte	0
 2130 017c 00       		.byte	0
 2131 017d 1F       		.uleb128 0x1f
 2132 017e 1D       		.uleb128 0x1d
 2133 017f 01       		.byte	0x1
 2134 0180 31       		.uleb128 0x31
 2135 0181 13       		.uleb128 0x13
 2136 0182 11       		.uleb128 0x11
 2137 0183 01       		.uleb128 0x1
 2138 0184 12       		.uleb128 0x12
 2139 0185 06       		.uleb128 0x6
 2140 0186 58       		.uleb128 0x58
 2141 0187 0B       		.uleb128 0xb
 2142 0188 59       		.uleb128 0x59
 2143 0189 0B       		.uleb128 0xb
 2144 018a 01       		.uleb128 0x1
 2145 018b 13       		.uleb128 0x13
 2146 018c 00       		.byte	0
 2147 018d 00       		.byte	0
 2148 018e 20       		.uleb128 0x20
 2149 018f 1D       		.uleb128 0x1d
 2150 0190 00       		.byte	0
 2151 0191 31       		.uleb128 0x31
 2152 0192 13       		.uleb128 0x13
 2153 0193 11       		.uleb128 0x11
 2154 0194 01       		.uleb128 0x1
 2155 0195 12       		.uleb128 0x12
 2156 0196 06       		.uleb128 0x6
 2157 0197 58       		.uleb128 0x58
 2158 0198 0B       		.uleb128 0xb
 2159 0199 59       		.uleb128 0x59
ARM GAS  /tmp/ccbtJCRQ.s 			page 63


 2160 019a 05       		.uleb128 0x5
 2161 019b 00       		.byte	0
 2162 019c 00       		.byte	0
 2163 019d 21       		.uleb128 0x21
 2164 019e 0B       		.uleb128 0xb
 2165 019f 01       		.byte	0x1
 2166 01a0 55       		.uleb128 0x55
 2167 01a1 17       		.uleb128 0x17
 2168 01a2 01       		.uleb128 0x1
 2169 01a3 13       		.uleb128 0x13
 2170 01a4 00       		.byte	0
 2171 01a5 00       		.byte	0
 2172 01a6 22       		.uleb128 0x22
 2173 01a7 898201   		.uleb128 0x4109
 2174 01aa 00       		.byte	0
 2175 01ab 11       		.uleb128 0x11
 2176 01ac 01       		.uleb128 0x1
 2177 01ad 31       		.uleb128 0x31
 2178 01ae 13       		.uleb128 0x13
 2179 01af 00       		.byte	0
 2180 01b0 00       		.byte	0
 2181 01b1 23       		.uleb128 0x23
 2182 01b2 898201   		.uleb128 0x4109
 2183 01b5 01       		.byte	0x1
 2184 01b6 11       		.uleb128 0x11
 2185 01b7 01       		.uleb128 0x1
 2186 01b8 31       		.uleb128 0x31
 2187 01b9 13       		.uleb128 0x13
 2188 01ba 01       		.uleb128 0x1
 2189 01bb 13       		.uleb128 0x13
 2190 01bc 00       		.byte	0
 2191 01bd 00       		.byte	0
 2192 01be 24       		.uleb128 0x24
 2193 01bf 8A8201   		.uleb128 0x410a
 2194 01c2 00       		.byte	0
 2195 01c3 02       		.uleb128 0x2
 2196 01c4 18       		.uleb128 0x18
 2197 01c5 9142     		.uleb128 0x2111
 2198 01c7 18       		.uleb128 0x18
 2199 01c8 00       		.byte	0
 2200 01c9 00       		.byte	0
 2201 01ca 25       		.uleb128 0x25
 2202 01cb 898201   		.uleb128 0x4109
 2203 01ce 01       		.byte	0x1
 2204 01cf 11       		.uleb128 0x11
 2205 01d0 01       		.uleb128 0x1
 2206 01d1 9542     		.uleb128 0x2115
 2207 01d3 19       		.uleb128 0x19
 2208 01d4 31       		.uleb128 0x31
 2209 01d5 13       		.uleb128 0x13
 2210 01d6 00       		.byte	0
 2211 01d7 00       		.byte	0
 2212 01d8 26       		.uleb128 0x26
 2213 01d9 898201   		.uleb128 0x4109
 2214 01dc 01       		.byte	0x1
 2215 01dd 11       		.uleb128 0x11
 2216 01de 01       		.uleb128 0x1
ARM GAS  /tmp/ccbtJCRQ.s 			page 64


 2217 01df 31       		.uleb128 0x31
 2218 01e0 13       		.uleb128 0x13
 2219 01e1 00       		.byte	0
 2220 01e2 00       		.byte	0
 2221 01e3 27       		.uleb128 0x27
 2222 01e4 05       		.uleb128 0x5
 2223 01e5 00       		.byte	0
 2224 01e6 03       		.uleb128 0x3
 2225 01e7 08       		.uleb128 0x8
 2226 01e8 3A       		.uleb128 0x3a
 2227 01e9 0B       		.uleb128 0xb
 2228 01ea 3B       		.uleb128 0x3b
 2229 01eb 0B       		.uleb128 0xb
 2230 01ec 49       		.uleb128 0x49
 2231 01ed 13       		.uleb128 0x13
 2232 01ee 02       		.uleb128 0x2
 2233 01ef 17       		.uleb128 0x17
 2234 01f0 00       		.byte	0
 2235 01f1 00       		.byte	0
 2236 01f2 28       		.uleb128 0x28
 2237 01f3 34       		.uleb128 0x34
 2238 01f4 00       		.byte	0
 2239 01f5 03       		.uleb128 0x3
 2240 01f6 0E       		.uleb128 0xe
 2241 01f7 3A       		.uleb128 0x3a
 2242 01f8 0B       		.uleb128 0xb
 2243 01f9 3B       		.uleb128 0x3b
 2244 01fa 0B       		.uleb128 0xb
 2245 01fb 49       		.uleb128 0x49
 2246 01fc 13       		.uleb128 0x13
 2247 01fd 02       		.uleb128 0x2
 2248 01fe 18       		.uleb128 0x18
 2249 01ff 00       		.byte	0
 2250 0200 00       		.byte	0
 2251 0201 29       		.uleb128 0x29
 2252 0202 34       		.uleb128 0x34
 2253 0203 00       		.byte	0
 2254 0204 03       		.uleb128 0x3
 2255 0205 0E       		.uleb128 0xe
 2256 0206 3A       		.uleb128 0x3a
 2257 0207 0B       		.uleb128 0xb
 2258 0208 3B       		.uleb128 0x3b
 2259 0209 05       		.uleb128 0x5
 2260 020a 49       		.uleb128 0x49
 2261 020b 13       		.uleb128 0x13
 2262 020c 3F       		.uleb128 0x3f
 2263 020d 19       		.uleb128 0x19
 2264 020e 3C       		.uleb128 0x3c
 2265 020f 19       		.uleb128 0x19
 2266 0210 00       		.byte	0
 2267 0211 00       		.byte	0
 2268 0212 2A       		.uleb128 0x2a
 2269 0213 34       		.uleb128 0x34
 2270 0214 00       		.byte	0
 2271 0215 03       		.uleb128 0x3
 2272 0216 08       		.uleb128 0x8
 2273 0217 3A       		.uleb128 0x3a
ARM GAS  /tmp/ccbtJCRQ.s 			page 65


 2274 0218 0B       		.uleb128 0xb
 2275 0219 3B       		.uleb128 0x3b
 2276 021a 05       		.uleb128 0x5
 2277 021b 49       		.uleb128 0x49
 2278 021c 13       		.uleb128 0x13
 2279 021d 3F       		.uleb128 0x3f
 2280 021e 19       		.uleb128 0x19
 2281 021f 3C       		.uleb128 0x3c
 2282 0220 19       		.uleb128 0x19
 2283 0221 00       		.byte	0
 2284 0222 00       		.byte	0
 2285 0223 2B       		.uleb128 0x2b
 2286 0224 34       		.uleb128 0x34
 2287 0225 00       		.byte	0
 2288 0226 03       		.uleb128 0x3
 2289 0227 0E       		.uleb128 0xe
 2290 0228 3A       		.uleb128 0x3a
 2291 0229 0B       		.uleb128 0xb
 2292 022a 3B       		.uleb128 0x3b
 2293 022b 0B       		.uleb128 0xb
 2294 022c 49       		.uleb128 0x49
 2295 022d 13       		.uleb128 0x13
 2296 022e 3F       		.uleb128 0x3f
 2297 022f 19       		.uleb128 0x19
 2298 0230 3C       		.uleb128 0x3c
 2299 0231 19       		.uleb128 0x19
 2300 0232 00       		.byte	0
 2301 0233 00       		.byte	0
 2302 0234 2C       		.uleb128 0x2c
 2303 0235 34       		.uleb128 0x34
 2304 0236 00       		.byte	0
 2305 0237 03       		.uleb128 0x3
 2306 0238 0E       		.uleb128 0xe
 2307 0239 3A       		.uleb128 0x3a
 2308 023a 0B       		.uleb128 0xb
 2309 023b 3B       		.uleb128 0x3b
 2310 023c 0B       		.uleb128 0xb
 2311 023d 49       		.uleb128 0x49
 2312 023e 13       		.uleb128 0x13
 2313 023f 3F       		.uleb128 0x3f
 2314 0240 19       		.uleb128 0x19
 2315 0241 02       		.uleb128 0x2
 2316 0242 18       		.uleb128 0x18
 2317 0243 00       		.byte	0
 2318 0244 00       		.byte	0
 2319 0245 2D       		.uleb128 0x2d
 2320 0246 34       		.uleb128 0x34
 2321 0247 00       		.byte	0
 2322 0248 03       		.uleb128 0x3
 2323 0249 08       		.uleb128 0x8
 2324 024a 3A       		.uleb128 0x3a
 2325 024b 0B       		.uleb128 0xb
 2326 024c 3B       		.uleb128 0x3b
 2327 024d 0B       		.uleb128 0xb
 2328 024e 49       		.uleb128 0x49
 2329 024f 13       		.uleb128 0x13
 2330 0250 3F       		.uleb128 0x3f
ARM GAS  /tmp/ccbtJCRQ.s 			page 66


 2331 0251 19       		.uleb128 0x19
 2332 0252 3C       		.uleb128 0x3c
 2333 0253 19       		.uleb128 0x19
 2334 0254 00       		.byte	0
 2335 0255 00       		.byte	0
 2336 0256 2E       		.uleb128 0x2e
 2337 0257 2E       		.uleb128 0x2e
 2338 0258 00       		.byte	0
 2339 0259 3F       		.uleb128 0x3f
 2340 025a 19       		.uleb128 0x19
 2341 025b 03       		.uleb128 0x3
 2342 025c 0E       		.uleb128 0xe
 2343 025d 3A       		.uleb128 0x3a
 2344 025e 0B       		.uleb128 0xb
 2345 025f 3B       		.uleb128 0x3b
 2346 0260 0B       		.uleb128 0xb
 2347 0261 27       		.uleb128 0x27
 2348 0262 19       		.uleb128 0x19
 2349 0263 49       		.uleb128 0x49
 2350 0264 13       		.uleb128 0x13
 2351 0265 3C       		.uleb128 0x3c
 2352 0266 19       		.uleb128 0x19
 2353 0267 00       		.byte	0
 2354 0268 00       		.byte	0
 2355 0269 2F       		.uleb128 0x2f
 2356 026a 2E       		.uleb128 0x2e
 2357 026b 01       		.byte	0x1
 2358 026c 3F       		.uleb128 0x3f
 2359 026d 19       		.uleb128 0x19
 2360 026e 03       		.uleb128 0x3
 2361 026f 0E       		.uleb128 0xe
 2362 0270 3A       		.uleb128 0x3a
 2363 0271 0B       		.uleb128 0xb
 2364 0272 3B       		.uleb128 0x3b
 2365 0273 0B       		.uleb128 0xb
 2366 0274 27       		.uleb128 0x27
 2367 0275 19       		.uleb128 0x19
 2368 0276 3C       		.uleb128 0x3c
 2369 0277 19       		.uleb128 0x19
 2370 0278 01       		.uleb128 0x1
 2371 0279 13       		.uleb128 0x13
 2372 027a 00       		.byte	0
 2373 027b 00       		.byte	0
 2374 027c 30       		.uleb128 0x30
 2375 027d 2E       		.uleb128 0x2e
 2376 027e 00       		.byte	0
 2377 027f 3F       		.uleb128 0x3f
 2378 0280 19       		.uleb128 0x19
 2379 0281 03       		.uleb128 0x3
 2380 0282 0E       		.uleb128 0xe
 2381 0283 3A       		.uleb128 0x3a
 2382 0284 0B       		.uleb128 0xb
 2383 0285 3B       		.uleb128 0x3b
 2384 0286 0B       		.uleb128 0xb
 2385 0287 27       		.uleb128 0x27
 2386 0288 19       		.uleb128 0x19
 2387 0289 3C       		.uleb128 0x3c
ARM GAS  /tmp/ccbtJCRQ.s 			page 67


 2388 028a 19       		.uleb128 0x19
 2389 028b 00       		.byte	0
 2390 028c 00       		.byte	0
 2391 028d 31       		.uleb128 0x31
 2392 028e 2E       		.uleb128 0x2e
 2393 028f 01       		.byte	0x1
 2394 0290 3F       		.uleb128 0x3f
 2395 0291 19       		.uleb128 0x19
 2396 0292 03       		.uleb128 0x3
 2397 0293 0E       		.uleb128 0xe
 2398 0294 3A       		.uleb128 0x3a
 2399 0295 0B       		.uleb128 0xb
 2400 0296 3B       		.uleb128 0x3b
 2401 0297 0B       		.uleb128 0xb
 2402 0298 27       		.uleb128 0x27
 2403 0299 19       		.uleb128 0x19
 2404 029a 49       		.uleb128 0x49
 2405 029b 13       		.uleb128 0x13
 2406 029c 3C       		.uleb128 0x3c
 2407 029d 19       		.uleb128 0x19
 2408 029e 01       		.uleb128 0x1
 2409 029f 13       		.uleb128 0x13
 2410 02a0 00       		.byte	0
 2411 02a1 00       		.byte	0
 2412 02a2 32       		.uleb128 0x32
 2413 02a3 2E       		.uleb128 0x2e
 2414 02a4 01       		.byte	0x1
 2415 02a5 3F       		.uleb128 0x3f
 2416 02a6 19       		.uleb128 0x19
 2417 02a7 03       		.uleb128 0x3
 2418 02a8 0E       		.uleb128 0xe
 2419 02a9 3A       		.uleb128 0x3a
 2420 02aa 0B       		.uleb128 0xb
 2421 02ab 3B       		.uleb128 0x3b
 2422 02ac 0B       		.uleb128 0xb
 2423 02ad 27       		.uleb128 0x27
 2424 02ae 19       		.uleb128 0x19
 2425 02af 49       		.uleb128 0x49
 2426 02b0 13       		.uleb128 0x13
 2427 02b1 3C       		.uleb128 0x3c
 2428 02b2 19       		.uleb128 0x19
 2429 02b3 00       		.byte	0
 2430 02b4 00       		.byte	0
 2431 02b5 00       		.byte	0
 2432              		.section	.debug_loc,"",%progbits
 2433              	.Ldebug_loc0:
 2434              	.LLST0:
 2435 0000 4E000000 		.4byte	.LVL3
 2436 0004 55000000 		.4byte	.LVL5-1
 2437 0008 0100     		.2byte	0x1
 2438 000a 50       		.byte	0x50
 2439 000b 00000000 		.4byte	0
 2440 000f 00000000 		.4byte	0
 2441              	.LLST1:
 2442 0013 46000000 		.4byte	.LVL1
 2443 0017 4A000000 		.4byte	.LVL2
 2444 001b 0200     		.2byte	0x2
ARM GAS  /tmp/ccbtJCRQ.s 			page 68


 2445 001d 30       		.byte	0x30
 2446 001e 9F       		.byte	0x9f
 2447 001f 4A000000 		.4byte	.LVL2
 2448 0023 5C000000 		.4byte	.LVL6
 2449 0027 0500     		.2byte	0x5
 2450 0029 34       		.byte	0x34
 2451 002a 74       		.byte	0x74
 2452 002b 00       		.sleb128 0
 2453 002c 1C       		.byte	0x1c
 2454 002d 9F       		.byte	0x9f
 2455 002e 5C000000 		.4byte	.LVL6
 2456 0032 5E000000 		.4byte	.LVL7
 2457 0036 0500     		.2byte	0x5
 2458 0038 35       		.byte	0x35
 2459 0039 74       		.byte	0x74
 2460 003a 00       		.sleb128 0
 2461 003b 1C       		.byte	0x1c
 2462 003c 9F       		.byte	0x9f
 2463 003d 5E000000 		.4byte	.LVL7
 2464 0041 7A000000 		.4byte	.LVL9
 2465 0045 0500     		.2byte	0x5
 2466 0047 34       		.byte	0x34
 2467 0048 74       		.byte	0x74
 2468 0049 00       		.sleb128 0
 2469 004a 1C       		.byte	0x1c
 2470 004b 9F       		.byte	0x9f
 2471 004c 00000000 		.4byte	0
 2472 0050 00000000 		.4byte	0
 2473              	.LLST2:
 2474 0054 00000000 		.4byte	.LVL11
 2475 0058 09000000 		.4byte	.LVL12-1
 2476 005c 0100     		.2byte	0x1
 2477 005e 50       		.byte	0x50
 2478 005f 09000000 		.4byte	.LVL12-1
 2479 0063 22000000 		.4byte	.LVL15
 2480 0067 0100     		.2byte	0x1
 2481 0069 54       		.byte	0x54
 2482 006a 22000000 		.4byte	.LVL15
 2483 006e 25000000 		.4byte	.LVL16-1
 2484 0072 0100     		.2byte	0x1
 2485 0074 50       		.byte	0x50
 2486 0075 25000000 		.4byte	.LVL16-1
 2487 0079 26000000 		.4byte	.LFE219
 2488 007d 0400     		.2byte	0x4
 2489 007f F3       		.byte	0xf3
 2490 0080 01       		.uleb128 0x1
 2491 0081 50       		.byte	0x50
 2492 0082 9F       		.byte	0x9f
 2493 0083 00000000 		.4byte	0
 2494 0087 00000000 		.4byte	0
 2495              		.section	.debug_aranges,"",%progbits
 2496 0000 24000000 		.4byte	0x24
 2497 0004 0200     		.2byte	0x2
 2498 0006 00000000 		.4byte	.Ldebug_info0
 2499 000a 04       		.byte	0x4
 2500 000b 00       		.byte	0
 2501 000c 0000     		.2byte	0
ARM GAS  /tmp/ccbtJCRQ.s 			page 69


 2502 000e 0000     		.2byte	0
 2503 0010 00000000 		.4byte	.LFB220
 2504 0014 7E000000 		.4byte	.LFE220-.LFB220
 2505 0018 00000000 		.4byte	.LFB219
 2506 001c 26000000 		.4byte	.LFE219-.LFB219
 2507 0020 00000000 		.4byte	0
 2508 0024 00000000 		.4byte	0
 2509              		.section	.debug_ranges,"",%progbits
 2510              	.Ldebug_ranges0:
 2511 0000 4A000000 		.4byte	.LBB17
 2512 0004 4E000000 		.4byte	.LBE17
 2513 0008 50000000 		.4byte	.LBB18
 2514 000c 74000000 		.4byte	.LBE18
 2515 0010 7A000000 		.4byte	.LBB19
 2516 0014 7E000000 		.4byte	.LBE19
 2517 0018 00000000 		.4byte	0
 2518 001c 00000000 		.4byte	0
 2519 0020 00000000 		.4byte	.LFB220
 2520 0024 7E000000 		.4byte	.LFE220
 2521 0028 00000000 		.4byte	.LFB219
 2522 002c 26000000 		.4byte	.LFE219
 2523 0030 00000000 		.4byte	0
 2524 0034 00000000 		.4byte	0
 2525              		.section	.debug_line,"",%progbits
 2526              	.Ldebug_line0:
 2527 0000 6D020000 		.section	.debug_str,"MS",%progbits,1
 2527      02000702 
 2527      00000201 
 2527      FB0E0D00 
 2527      01010101 
 2528              	.LASF47:
 2529 0000 63685F74 		.ascii	"ch_threads_list\000"
 2529      68726561 
 2529      64735F6C 
 2529      69737400 
 2530              	.LASF115:
 2531 0010 74657374 		.ascii	"test_wait_threads\000"
 2531      5F776169 
 2531      745F7468 
 2531      72656164 
 2531      7300
 2532              	.LASF82:
 2533 0022 77746D74 		.ascii	"wtmtxp\000"
 2533      787000
 2534              	.LASF72:
 2535 0029 72656761 		.ascii	"regarm_t\000"
 2535      726D5F74 
 2535      00
 2536              	.LASF36:
 2537 0032 666C6167 		.ascii	"flags\000"
 2537      7300
 2538              	.LASF27:
 2539 0038 73797374 		.ascii	"systime_t\000"
 2539      696D655F 
 2539      7400
 2540              	.LASF42:
 2541 0042 7265616C 		.ascii	"realprio\000"
ARM GAS  /tmp/ccbtJCRQ.s 			page 70


 2541      7072696F 
 2541      00
 2542              	.LASF94:
 2543 004b 74657374 		.ascii	"testcase_t\000"
 2543      63617365 
 2543      5F7400
 2544              	.LASF40:
 2545 0056 6570656E 		.ascii	"epending\000"
 2545      64696E67 
 2545      00
 2546              	.LASF0:
 2547 005f 756E7369 		.ascii	"unsigned int\000"
 2547      676E6564 
 2547      20696E74 
 2547      00
 2548              	.LASF48:
 2549 006c 6E657874 		.ascii	"next\000"
 2549      00
 2550              	.LASF106:
 2551 0071 74657374 		.ascii	"test_emit_token\000"
 2551      5F656D69 
 2551      745F746F 
 2551      6B656E00 
 2552              	.LASF45:
 2553 0081 74687265 		.ascii	"threads_list_t\000"
 2553      6164735F 
 2553      6C697374 
 2553      5F7400
 2554              	.LASF8:
 2555 0090 5F5F696E 		.ascii	"__int32_t\000"
 2555      7433325F 
 2555      7400
 2556              	.LASF37:
 2557 009a 72656673 		.ascii	"refs\000"
 2557      00
 2558              	.LASF109:
 2559 009f 63684D73 		.ascii	"chMsgSend\000"
 2559      6753656E 
 2559      6400
 2560              	.LASF78:
 2561 00a9 77746F62 		.ascii	"wtobjp\000"
 2561      6A7000
 2562              	.LASF69:
 2563 00b0 76746C69 		.ascii	"vtlist\000"
 2563      737400
 2564              	.LASF74:
 2565 00b7 706F7274 		.ascii	"port_context\000"
 2565      5F636F6E 
 2565      74657874 
 2565      00
 2566              	.LASF53:
 2567 00c4 63685F72 		.ascii	"ch_ready_list\000"
 2567      65616479 
 2567      5F6C6973 
 2567      7400
 2568              	.LASF59:
 2569 00d2 66756E63 		.ascii	"func\000"
ARM GAS  /tmp/ccbtJCRQ.s 			page 71


 2569      00
 2570              	.LASF83:
 2571 00d7 65776D61 		.ascii	"ewmask\000"
 2571      736B00
 2572              	.LASF51:
 2573 00de 70726576 		.ascii	"prev\000"
 2573      00
 2574              	.LASF50:
 2575 00e3 63685F74 		.ascii	"ch_threads_queue\000"
 2575      68726561 
 2575      64735F71 
 2575      75657565 
 2575      00
 2576              	.LASF55:
 2577 00f4 76746675 		.ascii	"vtfunc_t\000"
 2577      6E635F74 
 2577      00
 2578              	.LASF98:
 2579 00fd 74657374 		.ascii	"test_007_001_execute\000"
 2579      5F303037 
 2579      5F303031 
 2579      5F657865 
 2579      63757465 
 2580              	.LASF64:
 2581 0112 63685F73 		.ascii	"ch_system_debug\000"
 2581      79737465 
 2581      6D5F6465 
 2581      62756700 
 2582              	.LASF100:
 2583 0122 74657374 		.ascii	"test_007_001\000"
 2583      5F303037 
 2583      5F303031 
 2583      00
 2584              	.LASF18:
 2585 012f 75696E74 		.ascii	"uint32_t\000"
 2585      33325F74 
 2585      00
 2586              	.LASF80:
 2587 0138 73656E74 		.ascii	"sentmsg\000"
 2587      6D736700 
 2588              	.LASF25:
 2589 0140 6576656E 		.ascii	"eventmask_t\000"
 2589      746D6173 
 2589      6B5F7400 
 2590              	.LASF84:
 2591 014c 63685F73 		.ascii	"ch_semaphore\000"
 2591      656D6170 
 2591      686F7265 
 2591      00
 2592              	.LASF23:
 2593 0159 74707269 		.ascii	"tprio_t\000"
 2593      6F5F7400 
 2594              	.LASF57:
 2595 0161 63685F76 		.ascii	"ch_virtual_timer\000"
 2595      69727475 
 2595      616C5F74 
 2595      696D6572 
ARM GAS  /tmp/ccbtJCRQ.s 			page 72


 2595      00
 2596              	.LASF88:
 2597 0172 7466756E 		.ascii	"tfunc_t\000"
 2597      635F7400 
 2598              	.LASF14:
 2599 017a 6C6F6E67 		.ascii	"long long unsigned int\000"
 2599      206C6F6E 
 2599      6720756E 
 2599      7369676E 
 2599      65642069 
 2600              	.LASF113:
 2601 0191 63684D73 		.ascii	"chMsgGet\000"
 2601      67476574 
 2601      00
 2602              	.LASF6:
 2603 019a 5F5F7569 		.ascii	"__uint16_t\000"
 2603      6E743136 
 2603      5F7400
 2604              	.LASF26:
 2605 01a5 636E745F 		.ascii	"cnt_t\000"
 2605      7400
 2606              	.LASF86:
 2607 01ab 6F776E65 		.ascii	"owner\000"
 2607      7200
 2608              	.LASF49:
 2609 01b1 74687265 		.ascii	"threads_queue_t\000"
 2609      6164735F 
 2609      71756575 
 2609      655F7400 
 2610              	.LASF41:
 2611 01c1 6D74786C 		.ascii	"mtxlist\000"
 2611      69737400 
 2612              	.LASF61:
 2613 01c9 63685F76 		.ascii	"ch_virtual_timers_list\000"
 2613      69727475 
 2613      616C5F74 
 2613      696D6572 
 2613      735F6C69 
 2614              	.LASF28:
 2615 01e0 74687265 		.ascii	"thread_t\000"
 2615      61645F74 
 2615      00
 2616              	.LASF2:
 2617 01e9 73697A65 		.ascii	"size_t\000"
 2617      5F7400
 2618              	.LASF76:
 2619 01f0 7264796D 		.ascii	"rdymsg\000"
 2619      736700
 2620              	.LASF90:
 2621 01f7 5F426F6F 		.ascii	"_Bool\000"
 2621      6C00
 2622              	.LASF102:
 2623 01fd 74657374 		.ascii	"test_step\000"
 2623      5F737465 
 2623      7000
 2624              	.LASF85:
 2625 0207 63685F6D 		.ascii	"ch_mutex\000"
ARM GAS  /tmp/ccbtJCRQ.s 			page 73


 2625      75746578 
 2625      00
 2626              	.LASF13:
 2627 0210 5F5F7569 		.ascii	"__uint64_t\000"
 2627      6E743634 
 2627      5F7400
 2628              	.LASF105:
 2629 021b 63684D73 		.ascii	"chMsgRelease\000"
 2629      6752656C 
 2629      65617365 
 2629      00
 2630              	.LASF30:
 2631 0228 7072696F 		.ascii	"prio\000"
 2631      00
 2632              	.LASF87:
 2633 022d 63686172 		.ascii	"char\000"
 2633      00
 2634              	.LASF44:
 2635 0232 74687265 		.ascii	"thread_reference_t\000"
 2635      61645F72 
 2635      65666572 
 2635      656E6365 
 2635      5F7400
 2636              	.LASF34:
 2637 0245 77616261 		.ascii	"wabase\000"
 2637      736500
 2638              	.LASF21:
 2639 024c 74737461 		.ascii	"tstate_t\000"
 2639      74655F74 
 2639      00
 2640              	.LASF15:
 2641 0255 75696E74 		.ascii	"uint8_t\000"
 2641      385F7400 
 2642              	.LASF39:
 2643 025d 6D736771 		.ascii	"msgqueue\000"
 2643      75657565 
 2643      00
 2644              	.LASF46:
 2645 0266 63685F74 		.ascii	"ch_thread\000"
 2645      68726561 
 2645      6400
 2646              	.LASF93:
 2647 0270 65786563 		.ascii	"execute\000"
 2647      75746500 
 2648              	.LASF63:
 2649 0278 73797374 		.ascii	"system_debug_t\000"
 2649      656D5F64 
 2649      65627567 
 2649      5F7400
 2650              	.LASF12:
 2651 0287 6C6F6E67 		.ascii	"long long int\000"
 2651      206C6F6E 
 2651      6720696E 
 2651      7400
 2652              	.LASF24:
 2653 0295 6D73675F 		.ascii	"msg_t\000"
 2653      7400
ARM GAS  /tmp/ccbtJCRQ.s 			page 74


 2654              	.LASF114:
 2655 029b 63684D73 		.ascii	"chMsgWait\000"
 2655      67576169 
 2655      7400
 2656              	.LASF92:
 2657 02a5 74656172 		.ascii	"teardown\000"
 2657      646F776E 
 2657      00
 2658              	.LASF56:
 2659 02ae 76697274 		.ascii	"virtual_timer_t\000"
 2659      75616C5F 
 2659      74696D65 
 2659      725F7400 
 2660              	.LASF97:
 2661 02be 5F5F6675 		.ascii	"__func__.5697\000"
 2661      6E635F5F 
 2661      2E353639 
 2661      3700
 2662              	.LASF99:
 2663 02cc 6D73675F 		.ascii	"msg_thread1\000"
 2663      74687265 
 2663      61643100 
 2664              	.LASF110:
 2665 02d8 474E5520 		.ascii	"GNU C 4.8.2 -mcpu=cortex-m3 -mno-thumb-interwork -m"
 2665      4320342E 
 2665      382E3220 
 2665      2D6D6370 
 2665      753D636F 
 2666 030b 7468756D 		.ascii	"thumb -ggdb -O2 -fomit-frame-pointer -falign-functi"
 2666      62202D67 
 2666      67646220 
 2666      2D4F3220 
 2666      2D666F6D 
 2667 033e 6F6E733D 		.ascii	"ons=16 -ffunction-sections -fdata-sections -fno-com"
 2667      3136202D 
 2667      6666756E 
 2667      6374696F 
 2667      6E2D7365 
 2668 0371 6D6F6E20 		.ascii	"mon -flto\000"
 2668      2D666C74 
 2668      6F00
 2669              	.LASF65:
 2670 037b 70616E69 		.ascii	"panic_msg\000"
 2670      635F6D73 
 2670      6700
 2671              	.LASF108:
 2672 0385 63685468 		.ascii	"chThdCreateStatic\000"
 2672      64437265 
 2672      61746553 
 2672      74617469 
 2672      6300
 2673              	.LASF20:
 2674 0397 746D6F64 		.ascii	"tmode_t\000"
 2674      655F7400 
 2675              	.LASF70:
 2676 039f 6D61696E 		.ascii	"mainthread\000"
 2676      74687265 
ARM GAS  /tmp/ccbtJCRQ.s 			page 75


 2676      616400
 2677              	.LASF112:
 2678 03aa 2F686F6D 		.ascii	"/home/jerson/ChibiOS_17.6.2/demos/STM32/RT-STM32F10"
 2678      652F6A65 
 2678      72736F6E 
 2678      2F436869 
 2678      62694F53 
 2679 03dd 302D4449 		.ascii	"0-DISCOVERY\000"
 2679      53434F56 
 2679      45525900 
 2680              	.LASF16:
 2681 03e9 75696E74 		.ascii	"uint16_t\000"
 2681      31365F74 
 2681      00
 2682              	.LASF5:
 2683 03f2 73686F72 		.ascii	"short int\000"
 2683      7420696E 
 2683      7400
 2684              	.LASF9:
 2685 03fc 6C6F6E67 		.ascii	"long int\000"
 2685      20696E74 
 2685      00
 2686              	.LASF75:
 2687 0405 706F7274 		.ascii	"port_intctx\000"
 2687      5F696E74 
 2687      63747800 
 2688              	.LASF101:
 2689 0411 49544D5F 		.ascii	"ITM_RxBuffer\000"
 2689      52784275 
 2689      66666572 
 2689      00
 2690              	.LASF96:
 2691 041e 63685468 		.ascii	"chThdGetPriorityX\000"
 2691      64476574 
 2691      5072696F 
 2691      72697479 
 2691      5800
 2692              	.LASF67:
 2693 0430 63685F73 		.ascii	"ch_system\000"
 2693      79737465 
 2693      6D00
 2694              	.LASF62:
 2695 043a 6C617374 		.ascii	"lasttime\000"
 2695      74696D65 
 2695      00
 2696              	.LASF19:
 2697 0443 75696E74 		.ascii	"uint64_t\000"
 2697      36345F74 
 2697      00
 2698              	.LASF68:
 2699 044c 726C6973 		.ascii	"rlist\000"
 2699      7400
 2700              	.LASF3:
 2701 0452 5F5F7569 		.ascii	"__uint8_t\000"
 2701      6E74385F 
 2701      7400
 2702              	.LASF33:
ARM GAS  /tmp/ccbtJCRQ.s 			page 76


 2703 045c 6E616D65 		.ascii	"name\000"
 2703      00
 2704              	.LASF111:
 2705 0461 2E2E2F2E 		.ascii	"../../../test/rt/source/test/test_sequence_007.c\000"
 2705      2E2F2E2E 
 2705      2F746573 
 2705      742F7274 
 2705      2F736F75 
 2706              	.LASF103:
 2707 0492 74657374 		.ascii	"test_sequence_007\000"
 2707      5F736571 
 2707      75656E63 
 2707      655F3030 
 2707      3700
 2708              	.LASF71:
 2709 04a4 73697A65 		.ascii	"sizetype\000"
 2709      74797065 
 2709      00
 2710              	.LASF22:
 2711 04ad 74726566 		.ascii	"trefs_t\000"
 2711      735F7400 
 2712              	.LASF11:
 2713 04b5 6C6F6E67 		.ascii	"long unsigned int\000"
 2713      20756E73 
 2713      69676E65 
 2713      6420696E 
 2713      7400
 2714              	.LASF52:
 2715 04c7 72656164 		.ascii	"ready_list_t\000"
 2715      795F6C69 
 2715      73745F74 
 2715      00
 2716              	.LASF104:
 2717 04d4 74687265 		.ascii	"threads\000"
 2717      61647300 
 2718              	.LASF29:
 2719 04dc 71756575 		.ascii	"queue\000"
 2719      6500
 2720              	.LASF107:
 2721 04e2 5F746573 		.ascii	"_test_assert_sequence\000"
 2721      745F6173 
 2721      73657274 
 2721      5F736571 
 2721      75656E63 
 2722              	.LASF17:
 2723 04f8 696E7433 		.ascii	"int32_t\000"
 2723      325F7400 
 2724              	.LASF81:
 2725 0500 77747365 		.ascii	"wtsemp\000"
 2725      6D7000
 2726              	.LASF89:
 2727 0507 6D757465 		.ascii	"mutex_t\000"
 2727      785F7400 
 2728              	.LASF31:
 2729 050f 6E657765 		.ascii	"newer\000"
 2729      7200
 2730              	.LASF4:
ARM GAS  /tmp/ccbtJCRQ.s 			page 77


 2731 0515 756E7369 		.ascii	"unsigned char\000"
 2731      676E6564 
 2731      20636861 
 2731      7200
 2732              	.LASF91:
 2733 0523 73657475 		.ascii	"setup\000"
 2733      7000
 2734              	.LASF10:
 2735 0529 5F5F7569 		.ascii	"__uint32_t\000"
 2735      6E743332 
 2735      5F7400
 2736              	.LASF38:
 2737 0534 77616974 		.ascii	"waiting\000"
 2737      696E6700 
 2738              	.LASF60:
 2739 053c 76697274 		.ascii	"virtual_timers_list_t\000"
 2739      75616C5F 
 2739      74696D65 
 2739      72735F6C 
 2739      6973745F 
 2740              	.LASF35:
 2741 0552 73746174 		.ascii	"state\000"
 2741      6500
 2742              	.LASF66:
 2743 0558 63685F73 		.ascii	"ch_system_t\000"
 2743      79737465 
 2743      6D5F7400 
 2744              	.LASF79:
 2745 0564 77747472 		.ascii	"wttrp\000"
 2745      7000
 2746              	.LASF1:
 2747 056a 7369676E 		.ascii	"signed char\000"
 2747      65642063 
 2747      68617200 
 2748              	.LASF58:
 2749 0576 64656C74 		.ascii	"delta\000"
 2749      6100
 2750              	.LASF7:
 2751 057c 73686F72 		.ascii	"short unsigned int\000"
 2751      7420756E 
 2751      7369676E 
 2751      65642069 
 2751      6E7400
 2752              	.LASF73:
 2753 058f 73746B61 		.ascii	"stkalign_t\000"
 2753      6C69676E 
 2753      5F7400
 2754              	.LASF54:
 2755 059a 63757272 		.ascii	"current\000"
 2755      656E7400 
 2756              	.LASF95:
 2757 05a2 63685468 		.ascii	"chThdGetSelfX\000"
 2757      64476574 
 2757      53656C66 
 2757      5800
 2758              	.LASF32:
 2759 05b0 6F6C6465 		.ascii	"older\000"
ARM GAS  /tmp/ccbtJCRQ.s 			page 78


 2759      7200
 2760              	.LASF77:
 2761 05b6 65786974 		.ascii	"exitcode\000"
 2761      636F6465 
 2761      00
 2762              	.LASF43:
 2763 05bf 6D706F6F 		.ascii	"mpool\000"
 2763      6C00
 2764              		.comm	__gnu_lto_v1,1,1
 2765              		.ident	"GCC: (4.8.2-14ubuntu1+6) 4.8.2"
ARM GAS  /tmp/ccbtJCRQ.s 			page 79


DEFINED SYMBOLS
                            *ABS*:0000000000000000 test_sequence_007.c
     /tmp/ccbtJCRQ.s:410    .text.test_007_001_execute:0000000000000000 $t
     /tmp/ccbtJCRQ.s:415    .text.test_007_001_execute:0000000000000000 test_007_001_execute
     /tmp/ccbtJCRQ.s:526    .text.msg_thread1:0000000000000000 msg_thread1
     /tmp/ccbtJCRQ.s:585    .rodata.str1.4:0000000000000000 .LC0
     /tmp/ccbtJCRQ.s:588    .rodata.str1.4:0000000000000008 .LC1
     /tmp/ccbtJCRQ.s:521    .text.msg_thread1:0000000000000000 $t
     /tmp/ccbtJCRQ.s:580    .rodata.test_sequence_007:0000000000000000 test_sequence_007
     /tmp/ccbtJCRQ.s:568    .rodata.test_007_001:0000000000000000 $d
     /tmp/ccbtJCRQ.s:571    .rodata.test_007_001:0000000000000000 test_007_001
     /tmp/ccbtJCRQ.s:577    .rodata.test_sequence_007:0000000000000000 $d
     /tmp/ccbtJCRQ.s:584    .rodata.str1.4:0000000000000000 $d
                            *COM*:0000000000000001 __gnu_lto_v1
                     .debug_frame:0000000000000010 $d

UNDEFINED SYMBOLS
ch
wa
test_step
chThdCreateStatic
threads
chMsgWait
chMsgRelease
test_emit_token
test_wait_threads
_test_assert_sequence
chMsgSend
