ARM GAS  /tmp/ccJOLCOT.s 			page 1


   1              		.syntax unified
   2              		.cpu cortex-m3
   3              		.fpu softvfp
   4              		.eabi_attribute 20, 1
   5              		.eabi_attribute 21, 1
   6              		.eabi_attribute 23, 3
   7              		.eabi_attribute 24, 1
   8              		.eabi_attribute 25, 1
   9              		.eabi_attribute 26, 1
  10              		.eabi_attribute 30, 2
  11              		.eabi_attribute 34, 1
  12              		.eabi_attribute 18, 4
  13              		.thumb
  14              		.file	"test_root.c"
  15              		.text
  16              	.Ltext0:
  17              		.section	.gnu.lto_.jmpfuncs.824f6f37b882e2f,"",%progbits
  18 0000 789C6362 		.ascii	"x\234cb`b\300\006>\001q+\020\2630002U3\374j\230\321"
  18      6062C006 
  18      3E01712B 
  18      10B33030 
  18      30325533 
  19 0018 2090C9C8 		.ascii	" \220\311\310 \307\3008\267a\206C&##X\025\222\024\223"
  19      20C7C038 
  19      B7618643 
  19      26232358 
  19      15921493 
  20 002c 1C833844 		.ascii	"\034\2038D\212\031]\212E\216A\033\"\305\212E\227\031"
  20      8A195D8A 
  20      458E411B 
  20      22C58A45 
  20      9719
  21 003e 0E5D6C72 		.ascii	"\016]lr\014^\020)v,\272\202q\333\225\216\333\256\"\024"
  21      0C5E1029 
  21      762CBA82 
  21      71DB958E 
  21      DBAE2214 
  22 0052 5D40C8C0 		.ascii	"]@\310\300\014\"X\200\312\"\0303\0319@\276\022uL)K\314"
  22      0C225880 
  22      CA221833 
  22      193940BE 
  22      12754C29 
  23 0068 4B4E4D51 		.ascii	"KNMQ\310N-\312K\315Q\310\315OIe\020\326\322\322R\010"
  23      C84E2DCA 
  23      4BCD51C8 
  23      CD4F4965 
  23      10D6D2D2 
  24 007e C82F2A51 		.ascii	"\310/*Q\360\314K\313\267R\000\002\006.g ?\265B\327\327"
  24      F0CC4BCB 
  24      B7520002 
  24      062E6720 
  24      3FB542D7 
  25 0093 18220DE4 		.ascii	"\030\"\015\344\246*\204%\026e&\346\225X)0p8\006\371"
  25      A62A8425 
  25      166526E6 
  25      95582930 
  25      703806F9 
ARM GAS  /tmp/ccJOLCOT.s 			page 2


  26 00a7 9699EBFA 		.ascii	"\226\231\353\372B$\035\213\22232KR\223KJ\213R\201\222"
  26      42241D8B 
  26      9233324B 
  26      52934B4A 
  26      8B528192 
  27 00bb 5CEECECE 		.ascii	"\\\356\316\316\012&z\026zF0\275\271\005\2319\251E`\223"
  27      0A267A16 
  27      7A4630BD 
  27      B9059939 
  27      A9456093 
  28 00cf 151800EE 		.ascii	"\025\030\000\356\023Xj"
  28      13586A
  29              		.text
  30              		.section	.gnu.lto_.inline.824f6f37b882e2f,"",%progbits
  31 0000 789C6362 		.ascii	"x\234cb`b\300\006\246Ai\026\006\006\341[\014\214`Ul"
  31      6062C006 
  31      A6416916 
  31      0606E15B 
  31      0C8C6055 
  32 0015 0BE4C18A 		.ascii	"\013\344\301\212\231\270\031@\"D\223\214\014\334'@\034"
  32      99B81940 
  32      2244938C 
  32      0CDC2740 
  32      1C
  33 0026 9E179F99 		.ascii	"\236\027\237\231\221\014\001JL\360cf\3409\003\222\343"
  33      910C014A 
  33      4CF06366 
  33      E0390392 
  33      E3
  34 0037 5BB38A05 		.ascii	"[\263\212\005]\216\205\201C\000(\305\366A\017\315j\006"
  34      5D8E8581 
  34      430028C5 
  34      F6410FCD 
  34      6A06
  35 0049 0080DD0D 		.ascii	"\000\200\335\015M"
  35      4D
  36              		.text
  37              		.section	.gnu.lto_.pureconst.824f6f37b882e2f,"",%progbits
  38 0000 789C6362 		.ascii	"x\234cb`b\340d\200\000\026\006\011F\011f\011\026+\000"
  38      6062E064 
  38      80001606 
  38      09460966 
  38      09162B00 
  39 0014 02DE009C 		.ascii	"\002\336\000\234"
  40              		.text
  41              		.section	.gnu.lto_test_print_port_info.824f6f37b882e2f,"",%progbits
  42 0000 789C6362 		.ascii	"x\234cb`b@\007\222@\\\000\024\336\000\244\031\231\031"
  42      60624007 
  42      92405C00 
  42      14DE00A4 
  42      199919
  43 0013 1899269C 		.ascii	"\030\231&\234c`h\344`bd\0041\030\030\031\352\231\030"
  43      636068E4 
  43      60626404 
  43      31181819 
  43      EA9918
  44 0026 EB2319C1 		.ascii	"\353#\031\301j\3273\035x\360\377\377\272\177\307\226"
ARM GAS  /tmp/ccJOLCOT.s 			page 3


  44      6AD7331D 
  44      78F0FFFF 
  44      BA7FC796 
  45 0036 FC619CCB 		.ascii	"\374a\234\313\304\005\024aehih\230\240\300\300\220\014"
  45      C4051461 
  45      65686968 
  45      98A0C0C0 
  45      900C
  46 0048 56110224 		.ascii	"V\021\002$A\332B\031\231@4\363y\206\226\007\247\026"
  46      41DA4219 
  46      994034F3 
  46      79869607 
  46      A716
  47 005a B327322E 		.ascii	"\263'2.dd\005JW3\374j\350h\020\310d\004*\207\230\010"
  47      6464054A 
  47      5733FC6A 
  47      E86810C8 
  47      64042A87 
  48 0070 1299D1D0 		.ascii	"\022\231\321\320`\233\311\310(\307\2403\267a\206C&P"
  48      609BC9C8 
  48      28C7A033 
  48      B7618643 
  48      2650
  49 0082 2B547D26 		.ascii	"+T}&\320=\014 #N?\306j\004\023\262\021\201\231\214,"
  49      D03D0C20 
  49      234E3FC6 
  49      6A0413B2 
  49      1181998C 
  50 0097 720C0E10 		.ascii	"r\014\016\020#X1\2148K\264+\274q\271\342\034q\256`\223"
  50      2358318C 
  50      384BB42B 
  50      BC71B9E2 
  50      1C71AE60 
  51 00ac 63888718 		.ascii	"c\210\207\030\301\216a\304\015\242]\221\201\313\025"
  51      C18E61C4 
  51      0DA25D91 
  51      81CB15
  52 00bb 37890E8B 		.ascii	"7\211\016\213\032\\aq\207hW\2643\342r\306]\342\234\301"
  52      1A5C6171 
  52      876857B4 
  52      33E272C6 
  52      5DE29CC1 
  53 00cf 21C7301B 		.ascii	"!\3070\033j\006'\212\031\027\031\032\037\334W\206\031"
  53      6A06278A 
  53      1917191A 
  53      1FDC5786 
  53      19
  54 00e0 01012140 		.ascii	"\001\001!@'\000S\015\310\014M==}\010*I-.\321/*\321/"
  54      2700530D 
  54      C80C4D3D 
  54      3D7D082A 
  54      492D2ED1 
  55 00f8 CE2F2D4A 		.ascii	"\316/-JN\205pAD|Q~~\211^2\203\260\226\226\226\202s~"
  55      4E857041 
  55      447C517E 
  55      7E895E32 
  55      83B09696 
ARM GAS  /tmp/ccJOLCOT.s 			page 4


  56 0110 6E41664E 		.ascii	"nAfNj\221\225\002\0100p\271;;+\230\350Y\350\031A\244"
  56      6A919502 
  56      083070B9 
  56      3B3B2B98 
  56      E859E819 
  57 0126 1D8B9233 		.ascii	"\035\213\22232KR\223KJ\213R\255\024\0308\034\203|\313"
  57      324B5293 
  57      4B4A8B52 
  57      AD141838 
  57      1C837CCB 
  58 013a CC757D61 		.ascii	"\314u}az\213R\025\302\022\2132\023\363J\200\222\\@~"
  58      7A8B5215 
  58      C2128B32 
  58      13F34A80 
  58      925C407E 
  59 014e 496A85AE 		.ascii	"Ij\205\256\2571D:\000\310U\360\314K\313\007\233\315"
  59      AF31443A 
  59      00C855F0 
  59      CC4BCB07 
  59      9BCD
  60 0160 20EA9852 		.ascii	" \352\230R\226\230\227\234\232\242\220\235Z\224\227"
  60      9698979C 
  60      9AA2909D 
  60      5A9497
  61 016f 9AA3909B 		.ascii	"\232\243\220\233\237\222\312\000\0002\236\327*"
  61      9F92CA00 
  61      00329ED7 
  61      2A
  62              		.text
  63              		.section	.gnu.lto_test_terminate_threads.824f6f37b882e2f,"",%progbits
  64 0000 789C5D92 		.ascii	"x\234]\222\277k\024A\024\307\277\337\231\235\33551 "
  64      BF6B1441 
  64      14C7BFDF 
  64      999DDD35 
  64      3120
  65 0012 36B62190 		.ascii	"6\266!\220B\310\335a\343\377`\237\023\255BX\302\261"
  65      42C8DD61 
  65      E3FF609F 
  65      13AD4258 
  65      C2B1
  66 0024 851C5CCE 		.ascii	"\205\034\\\316*Efs'\244\021\202Xh4\220 \011\026\202"
  66      2A456673 
  66      27A41182 
  66      58683490 
  66      20091682 
  67 0038 7F804DAE 		.ascii	"\177\200M\256\220\344\212\030R\012\026\253\205\215\376"
  67      90E48A18 
  67      520A16AB 
  67      858DFE
  68 0047 01211C5C 		.ascii	"\001!\034\\\336\354\354\336E\207\335y\363f\336\373\274"
  68      DEECECDE 
  68      4587DD79 
  68      F366DEFB 
  68      BC
  69 0058 1F330A0A 		.ascii	"\0373\012\012\377\217\307\362\217\010\324D2\006\325"
  69      FF8FC7F2 
  69      8F08D444 
ARM GAS  /tmp/ccJOLCOT.s 			page 5


  69      3206D5
  70 0067 CE37208B 		.ascii	"\3167 \213\025C\277\320*8y\010;c\206\367`o\0074~\333"
  70      1543BFD0 
  70      2A387908 
  70      3B6386F7 
  70      606F0734 
  71 007d F8F3411C 		.ascii	"\370\363A\034*\375r\0001\210zsb\020\221n\037\304\246"
  71      2AFD7200 
  71      31887A73 
  71      6210916E 
  71      1FC4A6
  72 0090 D2810923 		.ascii	"\322\201\011#n>\245\213\303\005\034X\373*\177q\364\223"
  72      6E3EA58B 
  72      C3051C58 
  72      FB2A7F71 
  72      F493
  73 00a2 6FED717F 		.ascii	"o\355q\177\337\216\306c2\245\344\264D$\304\023Q8_\010"
  73      DF8EC663 
  73      32A5E4B4 
  73      4424C413 
  73      51385F08 
  74 00b6 15FC9BE4 		.ascii	"\025\374\233\344gu\234\217\307\243\213O\277\366x7&V"
  74      67759C8F 
  74      C7A38B4F 
  74      BFF67837 
  74      2656
  75 00c8 79203C83 		.ascii	"y <\203\224:*\025\031\006}kw\346+=)\342.\313,\2315\251"
  75      943A2A15 
  75      19067D6B 
  75      77E62B3D 
  75      29E22ECB 
  76 00e0 44E821B6 		.ascii	"D\350!\266\362\335\257\341*?\320\224\216.\336$P\223"
  76      F2DDAFE1 
  76      2A3FD094 
  76      8E2EDE24 
  76      5093
  77 00f2 1A528E3E 		.ascii	"\032R\216>\303\326\217\313\243\201\362\206-\232\032"
  77      C3D68FCB 
  77      A381F286 
  77      2D9A1A
  78 0101 9624D83B 		.ascii	"\226$\330;\354f\326\336I\031l\340\312n\273\225yVx;\212"
  78      EC66D6DE 
  78      49196CE0 
  78      CA6EBB95 
  78      7956783B 
  79 0116 29102D4E 		.ascii	")\020-Nq\247\350\377\315\036L \316H\337\254\253\311"
  79      71A7E8FF 
  79      CD1E4C20 
  79      CE48DFAC 
  79      ABC9
  80 0128 005F6AFA 		.ascii	"\000_j\372\034\375\374\375\341\254\267\003&\3540)Y\342"
  80      1CFDFCFD 
  80      E1ACB703 
  80      26EC3029 
  80      59E2
  81 013a 9B32AA7C 		.ascii	"\2332\252|L\231bo\273\367\347\365\243\212\036I\340\242"
  81      4C99626F 
ARM GAS  /tmp/ccJOLCOT.s 			page 6


  81      BBF7E7F5 
  81      A38A1E49 
  81      E0A2
  82 014c 16E73284 		.ascii	"\026\3472\204\272Yck\352\034B\356\307\365!\306\344\220"
  82      BA59636B 
  82      EA1C42EE 
  82      C7F521C6 
  82      E490
  83 015e 45A6BFB3 		.ascii	"E\246\277\263\250by\320\364\022\276\203e\233\324G-0"
  83      A86279D0 
  83      F412BE83 
  83      659BD447 
  83      2D30
  84 0170 F3E69663 		.ascii	"\363\346\226cE\256\245\027\310\362\275\305*w?\226\005"
  84      45AEA517 
  84      C8F2BDC5 
  84      2A773F96 
  84      05
  85 0181 D99B738F 		.ascii	"\331\233s\217\355~\275\336\360_wm\275\333\350t\033\353"
  85      ED7EBDDE 
  85      F05F776D 
  85      BDDBE874 
  85      1BEB
  86 0193 EDE79D64 		.ascii	"\355\347\235d\315\253nZ\351\264\333\335z\002\246\327"
  86      CDAB6E5A 
  86      E9B4DBDD 
  86      7A02A6D7 
  87 01a3 62768594 		.ascii	"bv\205\224"
  88              		.text
  89              		.section	.gnu.lto_test_wait_threads.824f6f37b882e2f,"",%progbits
  90 0000 789C9552 		.ascii	"x\234\225R\277k\024A\024\376\276\231\235\335M0 6\266"
  90      BF6B1441 
  90      14FEBE99 
  90      9DDD4D30 
  90      2036B6
  91 0013 41B01072 		.ascii	"A\260\020rw\330\330\371\007\010\226\271`\252\020\226"
  91      77D8D8F9 
  91      070896B9 
  91      60AA1096 
  92 0023 10B69083 		.ascii	"\020\266\220\203\313\245J\221\331\334\011i\204 \010"
  92      CBA54A91 
  92      D9DC0969 
  92      842008
  93 0032 519B8434 		.ascii	"Q\233\2044b\022S*\261\311\025\242W\250\244\020\024,"
  93      6212532A 
  93      B1C915A2 
  93      57A8A410 
  93      142C
  94 0044 364552F9 		.ascii	"6ER\371\007\210\010\347\233\235\335Kb\347cwf\336\257"
  94      078808E7 
  94      9B9DDD4B 
  94      62E76377 
  94      66DEAF
  95 0057 EF7DEFCD 		.ascii	"\357}\357\315((\374+3\362\337\027sMv\306\240\332\370"
  95      2828FC2B 
  95      33F2DF17 
  95      734D76C6 
ARM GAS  /tmp/ccJOLCOT.s 			page 7


  95      A0DAF8
  96 006a 0C64B162 		.ascii	"\014d\261b\350\017Z\005\037\356\300\216\233\301u\330"
  96      E80F5A05 
  96      1FEEC08E 
  96      9BC175D8 
  97 007a 2B018D37 		.ascii	"+\001\2157\033\357\357\307\241\322\217\373\220\200\250"
  97      1BEFEFC7 
  97      A1D28FFB 
  97      9080A8
  98 0089 3B210111 		.ascii	";!\001\021\351\354 V\225\016L\030qu\226\256\016o`\333"
  98      E9EC2056 
  98      950E4C18 
  98      717596AE 
  98      0E6F60DB 
  99 009d DA27F9E9 		.ascii	"\332'\371\351\253\023>\263G\275-\373g8$S\012\247)\""
  99      AB133EB3 
  99      47BD2DFB 
  99      67382453 
  99      0AA72922 
 100 00b1 211E88C2 		.ascii	"!\036\210\302\311bS\301e\222\007\352(\037\016\367\276"
 100      C96253C1 
 100      659207EA 
 100      281F0EF7 
 100      BE
 101 00c2 FE3A39E4 		.ascii	"\376:9\344\2651b\236\333\202g\220R\307\245\"b\320\263"
 101      B531629E 
 101      DB826790 
 101      52C7A522 
 101      62D0B3
 102 00d5 7663B2D2 		.ascii	"vc\262\322\223\242\356\264\254\302\254I%\233\036`-\337"
 102      93A2EEB4 
 102      ACC2AC49 
 102      259B1E60 
 102      2DDF
 103 00e7 7F1FCE73 		.ascii	"\177\037\316s\207\246Lt\365F\205\232\324\220v\364'\254"
 103      87A64C74 
 103      F546859A 
 103      D49076F4 
 103      27AC
 104 00f9 FDF8B6DB 		.ascii	"\375\370\266\333W>p\221\246\206))\366\002\3173k\257"
 104      573E7091 
 104      A6862929 
 104      F602CF33 
 104      6BAF
 105 010b A60C56F0 		.ascii	"\246\014V\360\333\256\273\223yXd;\024S@,\362\034\356"
 105      DBAEBB93 
 105      7958643B 
 105      1453402C 
 105      F21CEE
 106 011e 237A3FB3 		.ascii	"#z?\263\333#\020\027\244/\366\325d\200w5\375\005\275"
 106      DB231017 
 106      A42FF6D5 
 106      64807735 
 106      FD05BD
 107 0131 FCE0D1B8 		.ascii	"\374\340\321\270\217\003F\330aRbIn\312\010\020Zo7_\037"
 107      8F0346D8 
 107      61526249 
ARM GAS  /tmp/ccJOLCOT.s 			page 8


 107      6ECA0810 
 107      5A6F375F 
 108 0146 97B46AD8 		.ascii	"\227\264j\330\263\"w\377\233\330%\036Mq\373\226\273"
 108      B32277FF 
 108      9BD8251E 
 108      4D71FB96 
 108      BB
 109 0157 EBDD374F 		.ascii	"\353\3357O\357Ulc\211/f\343\262\006P\027g&\336*9\204"
 109      EF556C63 
 109      892F66E3 
 109      B2065017 
 109      6726DE2A 
 110 016d DCB79BAB 		.ascii	"\334\267\233\253X*'\213\316\317\262\250\302\362@\347"
 110      582A278B 
 110      CECFB2A8 
 110      C2F240E7 
 111 017d 97FA1D2C 		.ascii	"\227\372\035,\307\256^j\0013\233c\016+rWt\214,?\274"
 111      C7AE5E6A 
 111      01339B63 
 111      0E2B7257 
 111      748C2C3F 
 112 0192 59CDC2CB 		.ascii	"Y\315\302\313\264@v'\334\343\275U\2577\374\327YX\352"
 112      B4407627 
 112      DCE3BD55 
 112      AF37FCD7 
 112      5958EA
 113 01a5 34DA9DC6 		.ascii	"4\332\235\306Rk\271\235,x\325-s\355V\253SO\300\364/"
 113      526BB99D 
 113      2C78D52D 
 113      73ED56AB 
 113      534FC0F4 
 114 01ba 44D69701 		.ascii	"D\326\227\001"
 115              		.text
 116              		.section	.gnu.lto_test_wait_tick.824f6f37b882e2f,"",%progbits
 117 0000 789C8D53 		.ascii	"x\234\215SOH\024a\024\177of\326]5\303c\377X\027!(\252"
 117      4F481461 
 117      147F6F66 
 117      D65D35C3 
 117      63FF5817 
 118 0017 9DD443D7 		.ascii	"\235\324C\327\302.\202{q\015\254\3132\216\303\356\300"
 118      C22E827B 
 118      710DACCB 
 118      328EC3EE 
 118      C0
 119 0028 8E2333E3 		.ascii	"\216#3\343\242tpV\367\020\005!\013Q$R\226\011k\241T"
 119      A2747056 
 119      F7100521 
 119      0B512452 
 119      96096BA1 
 120 003d 0405125B 		.ascii	"\004\005\022['=\270b7\365\262\027\021\205\302\350\322"
 120      273DB862 
 120      37F5B217 
 120      1185C2E8 
 120      D2
 121 004e 1F707BDF 		.ascii	"\037p{\337\214\215\353f\3410\3377\3377\357}\277\367"
 121      8C8DEB66 
 121      E130DF37 
ARM GAS  /tmp/ccJOLCOT.s 			page 9


 121      DF37EF7D 
 121      BFF7
 122 0060 FBBDDF0C 		.ascii	"\373\275\337\014\007\034T^\307iH<@\027\002 \017\310"
 122      071C545E 
 122      C769483C 
 122      40170220 
 122      0FC8
 123 0072 8D1600D2 		.ascii	"\215\026\000\322\001\016\221-\000a\210\303\241\353\350"
 123      010E912D 
 123      006188C3 
 123      A1EBE8
 124 0081 E4CE72F9 		.ascii	"\344\316r\371b\2514\263s{r\016_p\001\001T\004\037M,"
 124      62A934B3 
 124      737B720E 
 124      5F700101 
 124      54041F4D 
 125 0096 EA838C6D 		.ascii	"\352\203\214m\217\206\000d'\267\223f\006p\0159\366\344"
 125      8F860064 
 125      27B79366 
 125      06700D39 
 125      F6E4
 126 00a8 9720535C 		.ascii	"\227 S\\x\346\227p\002}\024\276\011?\355[v\275\212\234"
 126      78E69770 
 126      027D14BE 
 126      093FED5B 
 126      76BD8A9C 
 127 00bc 8C2E7617 		.ascii	"\214.v\027\022\016\022\030qY\200\341\000@#L\330v\266"
 127      120E1218 
 127      715980E1 
 127      0040234C 
 127      D876B6
 128 00cf F82EB7F8 		.ascii	"\370.\267\370\001\263#\366\274\235\311\227J\330\240"
 128      01B323F6 
 128      BC9DC997 
 128      4AD8A0
 129 00de A2C0C10D 		.ascii	"\242\300\301\015du\330\031_\310yT\011\373e\261w\002"
 129      6475D819 
 129      5FC87954 
 129      09FB65B1 
 129      7702
 130 00f0 B181020C 		.ascii	"\261\201\002\014\177\235\037\231:\341\361s\027\371o"
 130      7F9D1F99 
 130      3AE1F173 
 130      17F96F
 131 00ff 9FC6F833 		.ascii	"\237\306\3703\022>\305F\217|\376\371\275\357\265\247"
 131      123EC546 
 131      8F7CFEF9 
 131      BDEFB5A7 
 132 010f BC5DEEFE 		.ascii	"\274]\356\376\373:O\227K&\377c\365\3561\373qz\324\336"
 132      FB3A4F97 
 132      4B26FF63 
 132      F5EE31FB 
 132      717AD4DE 
 133 0123 212A4498 		.ascii	"!*D\230\203e\334\243R\357R\371\253\311\273\200w\326"
 133      8365DCA3 
 133      52EF52F9 
 133      ABC9BB80 
ARM GAS  /tmp/ccJOLCOT.s 			page 10


 133      77D6
 134 0135 9BA9D74E 		.ascii	"\233\251\327N\007dt\222dR+\243@\2035\205\232\215\260"
 134      07647492 
 134      64522BA3 
 134      40833585 
 134      9A8DB0
 135 0148 42AF28C6 		.ascii	"B\257(\306\273V\005a\013\307\355\007\227U\364\357S\265"
 135      BB560561 
 135      0BC7ED07 
 135      9755F4EF 
 135      53B5
 136 015a 17FFBC1B 		.ascii	"\027\377\274\033\017\270\245\026\341\343\352\334\257"
 136      0FB8A516 
 136      E1E3EADC 
 136      AF
 137 0167 CD5C162B 		.ascii	"\315\\\026+\005oL\255\361|\231\270qO\234]zs\222\021"
 137      056F4CAD 
 137      F17C99B8 
 137      714F9C5D 
 137      7A739211 
 138 017b CB39C4AA 		.ascii	"\3139\304\252h\370i8\200q\024\316\301\264\235I\027\327"
 138      68F86938 
 138      807114CE 
 138      C1B49D49 
 138      17D7
 139 018d 960A5914 		.ascii	"\226\012Y\024T\254\036\203\207\244\237\254\253aljm\272"
 139      54AC1E83 
 139      87A49FAC 
 139      AB616C6A 
 139      6DBA
 140 019f 048758AD 		.ascii	"\004\207X\255C\240\233\331)\341kW\321\"\014\177\031"
 140      43A09BD9 
 140      29E16B57 
 140      D1220C7F 
 140      19
 141 01b0 392AE12B 		.ascii	"9*\341+\332\306\321Gp\216\273\333[\353\263k\350V\224"
 141      DAC6D147 
 141      708EBBDB 
 141      5BEBB36B 
 141      E85694
 142 01c3 70DAF1A0 		.ascii	"p\332\361\240\322\366\315B\245\355\022NR\333\016\341"
 142      D2F6CD42 
 142      A5ED124E 
 142      52DB0EE1 
 143 01d3 3BFCCFF7 		.ascii	";\374\317\367\255q\346\373\333\375\276?\252\013\226"
 143      AD71E6FB 
 143      DBFDBE3F 
 143      AA0B96
 144 01e2 7DC25E8F 		.ascii	"}\302^\217\346\353\366\372R\355\032Vs\200Y\022\316\320"
 144      E6EBF6FA 
 144      52ED1A56 
 144      73805912 
 144      CED0
 145 01f4 C22BFDC7 		.ascii	"\302+\375\307\034\011_b\320\245\265\014\351\355'+G\\"
 145      1C095F62 
 145      D0A5B50C 
 145      E9ED272B 
ARM GAS  /tmp/ccJOLCOT.s 			page 11


 145      475C
 146 0206 F3E32E00 		.ascii	"\363\343.\000\373I\220\375\034,\371l8,\272\267\245\230"
 146      FB4990FD 
 146      1C2CF96C 
 146      382CBAB7 
 146      A598
 147 0218 966858A2 		.ascii	"\226hX\242\251\367\033\262\342n\331\0243t\335\012\313"
 147      A9F71BB2 
 147      E26ED914 
 147      3374DD0A 
 147      CB
 148 0229 70C1CBD4 		.ascii	"p\301\313\324MQ\3265M\357\025\373t\3032\305+\035\221"
 148      4D51D635 
 148      4DEF15FB 
 148      74C332C5 
 148      2B1D91
 149 023c D6C88028 		.ascii	"\326\310\200('d\335Pb\251KZ8\001\276\224\224\354W\232"
 149      2764DD50 
 149      62A94B5A 
 149      3801BE94 
 149      94EC579A 
 150 0250 0E38A30C 		.ascii	"\0168\243\014Xbk$\332\026\025\325^9\331\337\243\210"
 150      58626B24 
 150      DA1615D5 
 150      5E39D9DF 
 150      A388
 151 0262 B266AA66 		.ascii	"\262f\252f,.\313t\256\241\374\004\261\361r\022\346\240"
 151      2C2ECB74 
 151      AEA1FC04 
 151      B1F17212 
 151      E6A0
 152 0274 49F1E03F 		.ascii	"I\361\340?\343)\213\302~\312\262TM\251\217D;B\335\222"
 152      E3298BC2 
 152      7ECAB254 
 152      4DA98F44 
 152      3B42DD92 
 153 0288 A9F419EA 		.ascii	"\251\364\031\352\371\320\351\213\300\031\340\327\024"
 153      F9D0E98B 
 153      C019E0D7 
 153      14
 154 0295 4D3706A1 		.ascii	"M7\006\241\245\034\"!%wUD;#-\315b{\373U\261\263-\222"
 154      A51C2221 
 154      25775544 
 154      3B232DCD 
 154      627BFB55 
 155 02ad 6A629118 		.ascii	"jb\221\030\251O&{\010W<\244xV\333\240\374\337\347\001"
 155      A94F267B 
 155      08573CA4 
 155      7856DBA0 
 155      FCDFE701 
 156 02c1 4241     		.ascii	"BA"
 157              		.text
 158              		.section	.gnu.lto_.symbol_nodes.824f6f37b882e2f,"",%progbits
 159 0000 789C4DCD 		.ascii	"x\234M\315IR\002A\020@\321\374U]\315$\342F\206sy\240"
 159      49520241 
 159      1040D1FC 
 159      555DCD24 
ARM GAS  /tmp/ccJOLCOT.s 			page 12


 159      E2468673 
 160 0016 24828D4B 		.ascii	"$\202\215KO\340\306\215\367`\317\005\034\240i\006Q\300"
 160      4FE0C68D 
 160      F760CF05 
 160      1CA06906 
 160      51C0
 161 0028 31581A76 		.ascii	"1X\032v\322\0256\265y\361#3\262\2348\271B\312\347\036"
 161      D21536B5 
 161      79F12333 
 161      B29C38B9 
 161      42CAE71E 
 162 003c 51919B89 		.ascii	"Q\221\233\211\210\352\3555n\206RexF\202\212\313Pw\262"
 162      88EAED35 
 162      6E865265 
 162      7846828A 
 162      CB5077B2 
 163 0050 3447FDC9 		.ascii	"4G\375\311\322\024\212\245\360\2043\036\360FN\"\005"
 163      D2148AA5 
 163      F084331E 
 163      F0464E22 
 163      05
 164 0061 0B82B124 		.ascii	"\013\202\261$5V\324\2145u\343\205\206\261\241i\274\322"
 164      3556D48C 
 164      3575E385 
 164      86B1A169 
 164      BCD2
 165 0073 32DE3833 		.ascii	"2\33683\266\264\215\035\347\306\236\216\361\316E\001"
 165      B6B48D1D 
 165      E7C69E8E 
 165      F1CE4501 
 166 0083 9F68527E 		.ascii	"\237hR~?\034\302\007\032\252\372B\323\252\276\321ZU"
 166      3F1CC207 
 166      1AAAFA42 
 166      D3AABED1 
 166      5A55
 167 0095 3F68FDBF 		.ascii	"?h\375\277\274te4\373-\274\224\273\243]\031\307\316"
 167      BC746534 
 167      FB2DBC94 
 167      BBA35D19 
 167      C7CE
 168 00a7 638FB238 		.ascii	"c\217\2628\317\342<vn\322\223\374\376\220z\337/M\006"
 168      CFE23C76 
 168      6ED293FC 
 168      FE907ADF 
 168      2F4D06
 169 00ba C77BF207 		.ascii	"\307{\362\007\246E_\201"
 169      A6455F81 
 170              		.text
 171              		.section	.gnu.lto_.refs.824f6f37b882e2f,"",%progbits
 172 0000 789C35C1 		.ascii	"x\2345\301\307\021\2000\014\0000[\\\350\201P6a\377\335"
 172      C7118030 
 172      0C00305B 
 172      5CE88150 
 172      3661FFDD 
 173 0014 78704842 		.ascii	"xpHB<\361\311\014\272\220J\321\377\353`4\231-V\325f"
 173      3CF1C90C 
 173      BA904AD1 
ARM GAS  /tmp/ccJOLCOT.s 			page 13


 173      FFEB6034 
 173      992D56D5 
 174 0029 D71C4E97 		.ascii	"\327\034N\227;^\"\266\001\\"
 174      3B5E22B6 
 174      015C
 175              		.text
 176              		.section	.gnu.lto_.decls.824f6f37b882e2f,"",%progbits
 177 0000 789CBD5B 		.ascii	"x\234\275[ip\024G\226\256\243[\255F\342\306\016\034"
 177      69701447 
 177      96AEA35B 
 177      AD46E2C6 
 177      0E1C
 178 0012 8B0779D6 		.ascii	"\213\007y\326\336\031;\306H\002\214!bw\300\026\204\355"
 178      DE193BC6 
 178      48028C21 
 178      6277C016 
 178      84ED
 179 0024 08334B08 		.ascii	"\0103K\010\274\353\010\307nO\271U \015\255nmw\211#\366"
 179      BCEB08C7 
 179      6E4FB955 
 179      200DAD6E 
 179      6D778923 
 180 0039 874BC220 		.ascii	"\207K\302 \033\314\"$\003\022\346\020\2301\207\301\022"
 180      1BCC2224 
 180      0312E610 
 180      983187C1 
 180      12
 181 004a 080F8731 		.ascii	"\010\017\2071*\304%$\214\2711b\006z\315pi\014\306`N"
 181      2AC42524 
 181      8CB93162 
 181      067ACD70 
 181      690CC660 
 182 005f 197A5F66 		.ascii	"\031z_fUu\035\235\325]%\306[\241LUU\347\373\336\313"
 182      55751D9D 
 182      D55D25C6 
 182      5BA14C55 
 182      55E7FBDE 
 183 0074 F75EBE7C 		.ascii	"\367^\276|\225Y\305P\0145\200\241\250\030\034\375^\246"
 183      9559C550 
 183      0C3580A1 
 183      A8181CFD 
 183      5EA6
 184 0086 A83F74A3 		.ascii	"\250?t\243(7EQ\277\205\342\205\262\002\312J(\253\241"
 184      28374551 
 184      BF85E285 
 184      B202CA4A 
 184      28ABA1
 185 0099 AC81B20E 		.ascii	"\254\201\262\016\312\247P6@\371\014J\003%\037\250\355"
 185      CAA75036 
 185      40F90C4A 
 185      03251FA8 
 185      ED
 186 00aa 76283BA1 		.ascii	"v(;\241\354\202\262\007J\013\224CP\016C\231ES\324l("
 186      EC82B207 
 186      4A0B9443 
 186      500E4399 
 186      4553D46C 
ARM GAS  /tmp/ccJOLCOT.s 			page 14


 187 00bf BDE1FC7F 		.ascii	"\275\341\374\177\340\177\025\224%P\326B\331\003e?\224"
 187      E07F1594 
 187      2550D642 
 187      D903653F 
 187      94
 188 00d0 56285F41 		.ascii	"V(_A9\014\345\030\224\223PNC\3713\224sP\276\205r\001"
 188      390CE518 
 188      9493504E 
 188      43F93394 
 188      7350BE85 
 189 00e6 CA659A32 		.ascii	"\312e\2322\034\210/\210Mu\320\232\234\007\010\262\252"
 189      1C882F88 
 189      4D75D09A 
 189      9C0708B2 
 189      AA
 190 00f7 7D4107AB 		.ascii	"}A\007\253\320\035R\3444\037\250\037\351\224\254\213"
 190      D01D52E4 
 190      341FA81F 
 190      E994AC8B 
 191 0107 1E5032A1 		.ascii	"\036P2\241\034\2032\017x\374\015\312wP\216(m\031\245"
 191      1C83320F 
 191      78FC0DCA 
 191      77508E28 
 191      6D19A5
 192 011a 3DEA27AD 		.ascii	"=\352'\255\364O\177\354J\201u\025J\005\255a\355R\364"
 192      F44F7FEC 
 192      4A817515 
 192      4A05AD61 
 192      ED52F4
 193 012d 45C2DAA3 		.ascii	"E\302\332\243\320{\024\335_\203\337\347@\351\320a\177"
 193      D07B14DD 
 193      5F83DFE7 
 193      40E9D061 
 193      7F
 194 013e 0FD73F40 		.ascii	"\017\327?@\271\011\345G(\377\304\310X\031\360?C\301"
 194      B909E547 
 194      28FFC4C8 
 194      5819F03F 
 194      43C1
 195 0150 40B6F815 		.ascii	"@\266\370\025\\?\007\345y(9PF@\371g(#\241\274\014e\014"
 195      5C3F07E5 
 195      79283950 
 195      4640F967 
 195      2823A1BC 
 196 0167 93A8970C 		.ascii	"\223\250\227\014j\266(\226\213u\263\304W[z\364\246*"
 196      6AB62896 
 196      8B75B3C4 
 196      575B7AF4 
 196      A62A
 197 0179 4538B26A 		.ascii	"E8\262jzx\251\367\320\355\350\037\305\376\375)\352M"
 197      7A78A9F7 
 197      D0EDE81F 
 197      C5FEFD29 
 197      EA4D
 198 018b 9AA3E156 		.ascii	"\232\243\341V:>\311\364b\346\317P\253\240)\264g8\372"
 198      3A3EC9F4 
 198      62E6CF50 
ARM GAS  /tmp/ccJOLCOT.s 			page 15


 198      ABA029B4 
 198      6738FA
 199 019e 63DA0B1D 		.ascii	"c\332\013\035e\350Dxt\310\277\243\003\221\313\347\352"
 199      65E84478 
 199      74C8BFA3 
 199      0391CBE7 
 199      EA
 200 01af 598C8EA3 		.ascii	"Y\214\216\243\257\241U\370\307\024\262\225to|\206\205"
 200      AFA155F8 
 200      C714B295 
 200      746F7C86 
 200      85
 201 01c0 11151971 		.ascii	"\021\025\031q\013\205$K\245p)\024\237\350\030ez\265"
 201      0B85244B 
 201      A5702914 
 201      9FE81865 
 201      7AB5
 202 01d2 937E8A28 		.ascii	"\223~\212(Vt+\350\214\024\012\221\305U\350k\342\242"
 202      56742BE8 
 202      8C140A91 
 202      C555E86B 
 202      E2A2
 203 01e4 F65500D6 		.ascii	"\366U\000\3268\026u\255\205\250}R\210\272\332\231\250"
 203      381675AD 
 203      85A87D52 
 203      88BADA99 
 203      A8
 204 01f5 E354FA6E 		.ascii	"\343T\372n\012\375\247\216%]o!\2517\205\244\353\222"
 204      0AFDA78E 
 204      255D6F21 
 204      A93785A4 
 204      EB92
 205 0207 4B5A37CA 		.ascii	"KZ7\312$\352(\025 ]\001\370\314\261\250\365\026\242"
 205      24EA2815 
 205      205D01F8 
 205      CCB1A8F5 
 205      16A2
 206 0219 7A5288BA 		.ascii	"zR\210\272A\023U\361|q\226\370\3535=\342\024\275T\012"
 206      411355F1 
 206      7C7196F8 
 206      EB353DE2 
 206      14BD540A 
 207 022d 3484B0EB 		.ascii	"4\204\260\353WF\353?zLtqt\003v\376\337\320\324s\324"
 207      5746EB3F 
 207      7A4C7471 
 207      740376FE 
 207      DFD0D473 
 208 0242 5A794434 		.ascii	"ZyD4\377C\302\030p\202\333\271\355<#\212\351\034\275"
 208      FF43C218 
 208      7082DBB9 
 208      ED3C238A 
 208      E91CBD
 209 0255 1923BF45 		.ascii	"\031#\277E\203\200\215\364s\216qj+V\217\3008[0N\025"
 209      83808DF4 
 209      738E716A 
 209      2B568FC0 
 209      385B304E 
ARM GAS  /tmp/ccJOLCOT.s 			page 16


 210 026a 6D04E268 		.ascii	"m\004\342h\326\253\027\020_\253\015\020\032\353\325"
 210      D6AB1710 
 210      5FAB0D10 
 210      1AEBD5
 211 0279 4E623196 		.ascii	"Nb1\226\372\031\033\017\244\226\211u\321hg\3539\256"
 211      FA191B0F 
 211      A4968975 
 211      D16867EB 
 211      39AE
 212 028b 5694DE15 		.ascii	"V\224\336\025c\261w\250\307\251\005\212\325EZ\340\350"
 212      63B177A8 
 212      C7A9058A 
 212      D5455AE0 
 212      E8
 213 029c DF3E6669 		.ascii	"\337>fi\275/\350\307\225\2637\024\306\014\314?\306\336"
 213      BD2FE8C7 
 213      95B33714 
 213      C60CCC3F 
 213      C6DE
 214 02ae 42D4A4FE 		.ascii	"B\324\244\376\210\360\3045\"\213\321P\373\355\364@\243"
 214      88F0C435 
 214      228BD150 
 214      FBEDF440 
 214      A3
 215 02bf A03B6843 		.ascii	"\240;hC\214\224\345\222\226\265fV\226Ec\261\2012/\006"
 215      8C94E592 
 215      96B56656 
 215      964563B1 
 215      81322F06 
 216 02d3 66303BE8 		.ascii	"f0;\350;\315\350MD\364\343f\364\233\266\320w\231\321"
 216      3BCDE84D 
 216      44F4E366 
 216      F49BB6D0 
 216      7799D1
 217 02e6 9B89E8B1 		.ascii	"\233\211\350\261\326\271O\210u\345R,6\322\254\322\006"
 217      D6B94F88 
 217      75E5522C 
 217      36D2ACD2 
 217      06
 218 02f7 DA7A24ED 		.ascii	"\332z$\355%\350t&C\224\253\\lX#\272e8D\260\007\004#"
 218      25E87426 
 218      4394AB5C 
 218      6C5823BA 
 218      653844B0 
 219 030e B9A582B7 		.ascii	"\271\245\202\267/Q\314he\364\364\321k\345\364\374\031"
 219      2F51CC68 
 219      65F4F4D1 
 219      6BE5F4FC 
 219      19
 220 031f 752DE2F5 		.ascii	"u-\342\365X\254\247\003\343\037P\004ee\036\206H\023"
 220      58ACA703 
 220      E31F5004 
 220      65651E86 
 220      4813
 221 0331 9FC5A4FE 		.ascii	"\237\305\244\3765\332X1Lc\034\275\212~\306\356\024\225"
 221      35DA5831 
 221      4C631CBD 
ARM GAS  /tmp/ccJOLCOT.s 			page 17


 221      8A7EC6EE 
 221      1495
 222 0343 C0BC4D8B 		.ascii	"\300\274M\213\033\232\242\260\2566&\350Jn\364\025\251"
 222      1B9AA2B0 
 222      AE3626E8 
 222      4A6EF415 
 222      A9
 223 0354 F7D2D6B6 		.ascii	"\367\322\326\266\017DZu\202\003\330\011vZ\000|MT\337"
 223      0F445A75 
 223      8203D809 
 223      765A007C 
 223      4D54DF
 224 0367 A6857B5C 		.ascii	"\246\205{\\\265b\263\323\221s$\211\362\372P\363\361"
 224      B562B3D3 
 224      91732489 
 224      F2FA50F3 
 224      F1
 225 0378 84D2A269 		.ascii	"\204\322\242i\256\316\245\002\214\246\342a\346\373\345"
 225      AECEA502 
 225      8CA6E261 
 225      E6FBE5
 226 0387 4FA23078 		.ascii	"O\2420x\234\356\003 WMR\247\004a\250\333\230\344\024"
 226      9CEE0320 
 226      574D52A7 
 226      0461A8DB 
 226      98E414
 227 039a 90CB8472 		.ascii	"\220\313\204rb\021\235\277\370/\345t\031\364@\376\215"
 227      62119DBF 
 227      F82FE574 
 227      19F440FE 
 227      8D
 228 03ab 22284339 		.ascii	"\"(C9\236\242\352\200@\272\323\272\204\026\353\232i"
 228      9EA2EA80 
 228      40BAD3BA 
 228      8416EB9A 
 228      69
 229 03bc 024BC3CC 		.ascii	"\002K\303\314\242\210=\257\243\305\205\243\343\031,"
 229      A2883DAF 
 229      A3C585A3 
 229      E3192C
 230 03cb F80A9628 		.ascii	"\370\012\226(x\335(+\03001&9\233 x\373\327\252\340g"
 230      78DD282B 
 230      18303126 
 230      399B2078 
 230      FBD7AAE0 
 231 03e0 6D085E2E 		.ascii	"m\010^.\035\231\275\364\011$8G\037\003wb\250\3468.\311"
 231      1D99BDF4 
 231      09243847 
 231      1F037762 
 231      A8E6382E 
 232 03f5 6CF1A94D 		.ascii	"l\361\251M\365\326\036^\023\336Q\210'\234\012\266\337"
 232      F5D61E5E 
 232      13DE5188 
 232      279C0AB6 
 232      DF
 233 0406 31581649 		.ascii	"1X\026IT\325\373\264\336rt\024\017\234\377\245\237\202"
 233      54D5FBB4 
ARM GAS  /tmp/ccJOLCOT.s 			page 18


 233      DE727414 
 233      0F9CFFA5 
 233      9F82
 234 0418 FA3CD4F1 		.ascii	"\372<\324\361\203\241\016\262\252MI\252K\335\205{\255"
 234      83A10EB2 
 234      AA4D49AA 
 234      4BDD857B 
 234      AD
 235 0429 4BB04A94 		.ascii	"K\260J\224\001,;$y\030*\346<\261l\317\021z\006\326\372"
 235      012C3B24 
 235      79182AE6 
 235      3CB16CCF 
 235      117A06D6 
 236 043e 253CDDCD 		.ascii	"%<\335\315q\021\347M\033P\235k?\370\015\366\214\016"
 236      7111E74D 
 236      1B509D6B 
 236      3FF80DF6 
 236      8C0E
 237 0450 0C54DD65 		.ascii	"\014T\335e\240\332\212\035\362\004|\025\003-q\231'`"
 237      A0DA8A1D 
 237      F2047C15 
 237      032D7199 
 237      2760
 238 0462 8F6902F6 		.ascii	"\217i\002\366\030\247I\217W;A\317s=\251\237\2719C\255"
 238      18A7498F 
 238      573B41CF 
 238      733DA99F 
 238      B93943AD 
 239 0476 76990C47 		.ascii	"v\231\014Gr\227t+\303A$j?\313\240\031\234U\307O\232"
 239      7297742B 
 239      C341246A 
 239      3FCBA019 
 239      9C55C74F 
 240 048b 958E186A 		.ascii	"\225\216\030j=\346u\303<~n\236oy\266F\024{\311?\245"
 240      3DE675C3 
 240      3C7E6E9E 
 240      6F79B646 
 240      147BC93F 
 241 04a0 1E3E9FB7 		.ascii	"\036>\237\267.\302\276\2222x1*\373\2471\373\363\230"
 241      2EC2BE92 
 241      3278312A 
 241      FBA731FB 
 241      F398
 242 04b2 FD1D33FB 		.ascii	"\375\0353\373\246K-o\311\354\357\330b\277\355\324\207"
 242      A64B2D6F 
 242      C9ECEFD8 
 242      62BFEDD4 
 242      87
 243 04c3 89EC2D83 		.ascii	"\211\354-\203\256\342\0317\317_\036\260\0343\351\304"
 243      AEE21937 
 243      CF5F1EB0 
 243      1C33E9C4 
 244 04d3 A374A9DB 		.ascii	"\243t\251\333\354\032#3\364\274\360\265\256\001C}\342"
 244      EC1A2333 
 244      F4BCF0B5 
 244      AE01437D 
 244      E2
ARM GAS  /tmp/ccJOLCOT.s 			page 19


 245 04e4 56A5EF52 		.ascii	"V\245\357R\220\200n^\376\217\265\233D\361\3754U\206"
 245      90806E5E 
 245      FE8FB59B 
 245      44F1FD34 
 245      5586
 246 04f6 B58E11B3 		.ascii	"\265\216\021\263\014\212\330q\012\207\035\031l\275\035"
 246      0C8AD871 
 246      0A871D19 
 246      6CBD1D
 247 0505 304B3F2A 		.ascii	"0K?*\227v\352\301\352\035\203\031%;\254\007\333d\007"
 247      9776EAC1 
 247      EA1D8319 
 247      253BAC07 
 247      DB6407
 248 0518 AC97B564 		.ascii	"\254\227\265dG\365`\237;\0063Jv\\\017\266\325\016X\177"
 248      47F5609F 
 248      3B06334A 
 248      765C0FB6 
 248      D50E587F 
 249 052c 6BC94EEA 		.ascii	"k\311N\352\301v8\0063J\366\215\036L\262\003\226E\220"
 249      C1763806 
 249      334AF68D 
 249      1E4CB203 
 249      964590
 250 053f 2C7E5825 		.ascii	",~X% \267\265\004\212\241v\273\325\200\340\320\247)"
 250      20B7B504 
 250      8AA176BB 
 250      D580E0D0 
 250      A729
 251 0551 0D639FDB 		.ascii	"\015c\237\333i\0003\364\033f\357s+\351\352\031bK\216"
 251      690033F4 
 251      1B66EF73 
 251      2BE9EA19 
 251      624B8E
 252 0564 3A83B6DA 		.ascii	":\203\266\332AL\3420\225m\272\351\370\260c0\243Y\226"
 252      414CE230 
 252      956DBAE9 
 252      F8B06330 
 252      A35996
 253 0577 C9606D18 		.ascii	"\311`m\030\354\244\035\260$\016s\030\201\221\022fi\226"
 253      ECA41DB0 
 253      240E7318 
 253      81911266 
 253      6996
 254 0589 F81E5DB6 		.ascii	"\370\036]\266q@\322\004\012b\330\223\353p\014\253e\320"
 254      7140D204 
 254      0A62D893 
 254      EB700CAB 
 254      65D0
 255 059b F476C64D 		.ascii	"\364v\306M\234'mau\336S\246\334%\030\352b\327\241\352"
 255      9C276D61 
 255      75DE53A6 
 255      DC2518EA 
 255      62D7A1EA 
 256 05af 6AF70F40 		.ascii	"j\367\017@\351\350r\014\364}B\\\365\232\246\\\257qR"
 256      E9E8720C 
 256      F47D425C 
ARM GAS  /tmp/ccJOLCOT.s 			page 20


 256      F59AA65C 
 256      AF7152
 257 05c2 F47AB593 		.ascii	"\364z\265\223\230z\030\327\265~V\032\253qR\303\350\306"
 257      987A18D7 
 257      B57E561A 
 257      AB7152C3 
 257      E8C6
 258 05d4 C97DC776 		.ascii	"\311}\307v7\372xe\373mf\221(\225\261\272U>\253\347#"
 258      37FA7865 
 258      FB6D6691 
 258      2895B1BA 
 258      553EABE7 
 259 05e9 35BD3ABB 		.ascii	"5\275:\273\363_\260\201Va\275\226\245\021\015d\003\250"
 259      F35FB081 
 259      5661BD96 
 259      A5110D64 
 259      03A8
 260 05fb F34ABBBC 		.ascii	"\363J\273\274\270\261\032\003\315\3562Pm\305\262\341"
 260      B8B11A03 
 260      CDEE3250 
 260      6DC5B2E1 
 261 060b 18681D06 		.ascii	"\030h\035\006\252J3[\2326Y\2326Z \376\214\247<\342\375"
 261      AA4A335B 
 261      9A36599A 
 261      365A20FE 
 261      8CA73CE2 
 262 0620 5C6D21EF 		.ascii	"\\m!\357K3\231\313\320\235$\3213\036\222~\252\242o\226"
 262      4B3399CB 
 262      D09D24D1 
 262      331E927E 
 262      AAA26F96 
 263 0634 8B35390E 		.ascii	"\21359\016\354\265L\261W=\326\316\312\004\355 \365;"
 263      ECB54CB1 
 263      573DD6CE 
 263      CA04ED20 
 263      F53B
 264 0646 EBC63AC7 		.ascii	"\353\306:\307\335H7vcq\254\013\335h\222\273\261\031"
 264      DD483776 
 264      6371AC0B 
 264      DD6892BB 
 264      B119
 265 0658 77A3E1EF 		.ascii	"w\243\341\357\320\215\255\216\273\321K\327\015\374x"
 265      D08DAD8E 
 265      BBD14BD7 
 265      0DFC78
 266 0667 F7A13C41 		.ascii	"\367\241<A\364\245\252\222\247\270H\236mL_C~)\2358D"
 266      F4A5AA92 
 266      A7B8489E 
 266      6D4C5F43 
 266      7E299D38 
 267 067c 67C9B753 		.ascii	"g\311\267S?\322\336<\244{\014\022m=\006\235\215?\006"
 267      3FD2DE3C 
 267      A47B0C12 
 267      6D3D069D 
 267      8D3F06
 268 068f EDC02AFB 		.ascii	"\355\300*\373\2224\300\354@\325un@\2026a\224\335]E\211"
 268      9234C0EC 
ARM GAS  /tmp/ccJOLCOT.s 			page 21


 268      40D5756E 
 268      40823661 
 268      94DD5D45 
 269 06a4 D6EEDF22 		.ascii	"\326\356\337\"\017\323f\014\324\226`\3014\223\001\323"
 269      0FD3660C 
 269      D49660C1 
 269      349301D3 
 270 06b4 8C06844B 		.ascii	"\214\006\204K\304\351.\216\217\357(w\320\205\207\372"
 270      C4E92E8E 
 270      8FEF2877 
 270      D08587FA 
 271 06c4 7FA763A8 		.ascii	"\177\247c\250\023X|d\274\256d\335hQ\343\257\325jv!\333"
 271      13587C64 
 271      BCAE64DD 
 271      6851E3AF 
 271      D56A7621 
 272 06d9 E7CF8F84 		.ascii	"\347\317\217\204X.-\237\247.\036\214D)\301\205G\204"
 272      582E2D9F 
 272      A72E1E8C 
 272      4429C185 
 272      4784
 273 06eb DBF1B539 		.ascii	"\333\361\2659%0=\327\034\267\230u\324U\225\363Q9\274"
 273      25303DD7 
 273      1CB79875 
 273      D45595F3 
 273      5139BC
 274 06fe 1F649038 		.ascii	"\037d\2208\337%\230\373\030mz\260A7tM\254\306Q\233~"
 274      DF2598FB 
 274      186D7AB0 
 274      4137744D 
 274      ACC6519B 
 275 0713 028C3DAA 		.ascii	"\002\214=\252\031\332o\231\3140\323\363hz\273\247\230"
 275      19DA6F99 
 275      CC30D3F3 
 275      687ABBA7 
 275      98
 276 0724 21D543E8 		.ascii	"!\325C\350\357U\254L\334\221\271\230\355q\306\364\014"
 276      EF55AC4C 
 276      DC91B998 
 276      ED71C6F4 
 276      0C
 277 0735 7AEB7E74 		.ascii	"z\353~t\026]\216G1\372-u\2408s\301+Ve\312kY\034}\201"
 277      165D8E47 
 277      31FA2D75 
 277      A03873C1 
 277      2B5665CA 
 278 074e 66145452 		.ascii	"f\024TR\236\224R=\322Y\276%\307I\310\331\247\206\234"
 278      9E94523D 
 278      D259BE25 
 278      C749C8D9 
 278      A7869C
 279 0761 D35897DB 		.ascii	"\323X\227\333=f\2437\231\243\264\243A'\305\225d7\245"
 279      3D66A337 
 279      99A3B4A3 
 279      4127C595 
 279      6437A5
 280 0774 371F564E 		.ascii	"7\037VNuL\357T{\036\315\005\300\251\366\255\222\235"
ARM GAS  /tmp/ccJOLCOT.s 			page 22


 280      754CEF54 
 280      7B1ECD05 
 280      C0A9F6AD 
 280      929D
 281 0786 2A951388 		.ascii	"*\225\023\210\361\355\303^\230s\033\346\0345{\301\351"
 281      F1EDC35E 
 281      98731BE6 
 281      1C357BC1 
 281      E9
 282 0797 872D15CA 		.ascii	"\207-\025\312Bb\324\226\027\334\"xA\264\213^\000.}\345"
 282      4262D496 
 282      17DC2278 
 282      41B48B5E 
 282      002E7DE5 
 283 07ab 008DE1E4 		.ascii	"\000\215\341\344'\227\037\343B:\264\202\002\367\023"
 283      27971FE3 
 283      423AB482 
 283      02F713
 284 07ba EF5431B2 		.ascii	"\357T1\262\177I\247/\240y\3502\203Vi\357'\270\226\254"
 284      7F49A72F 
 284      A079E832 
 284      835669EF 
 284      27B896AC 
 285 07ce 199D     		.ascii	"\031\235"
 286 07d0 6B696AE4 		.ascii	"kij\344\350o\031\264By\236A+\224\177\305\365EF\267N"
 286      E86F19B4 
 286      42799E41 
 286      2B947FC5 
 286      F54546B7 
 287 07e5 69E51697 		.ascii	"i\345\026\227\030\335\252\376\267f5\332}\240L\311\346"
 287      18DDAAFE 
 287      B76635DA 
 287      7DA04CC9 
 287      E6
 288 07f6 9CDEFBCA 		.ascii	"\234\336\373\312\323\037\315\373*\333\017\271\360\302"
 288      D31FCDFB 
 288      2ADB0FB9 
 288      F0C2
 289 0804 9B8325D3 		.ascii	"\233\203%\323\263{\325\201{\025\017\334\367\323\315"
 289      B37BD581 
 289      7B150FDC 
 289      F7D3CD
 290 0813 DAED3027 		.ascii	"\332\3550'\321v\326\020\027t\265+\361\003r\346t\033"
 290      D176D610 
 290      1774B52B 
 290      F10372E6 
 290      741B
 291 0825 8F385904 		.ascii	"\2178Y\004\255\307'\332\223J\226\226r!R\335\315\275"
 291      ADC727DA 
 291      934A9696 
 291      722152DD 
 291      CDBD
 292 0837 28C9FB01 		.ascii	"(\311\373\0017\261\247-3\351\302\306z\346\006Lr\333"
 292      37B1A72D 
 292      33E9C2C6 
 292      7AE6064C 
 292      72DB
ARM GAS  /tmp/ccJOLCOT.s 			page 23


 293 0849 3C8CE72F 		.ascii	"<\214\347/>\250\356\007\334\2661\214\313\245F\303~\200"
 293      3EA8EE07 
 293      DCB6318C 
 293      CBA546C3 
 293      7E80
 294 085b EA81B793 		.ascii	"\352\201\267\223{`R}\032Lx[7@\356\342\001rO?( e\264"
 294      7B60527D 
 294      1A4C785B 
 294      3740EEE2 
 294      01724F3F 
 295 0873 A3FB5F5B 		.ascii	"\243\373_[\271\"\204\241\243\362F\214\272\265\262\327"
 295      B92284A1 
 295      A3F2468C 
 295      BAB5B2D7 
 296 0883 8C470A44 		.ascii	"\214G\012D\006<\275-\313\245\312cx\315C\366\321Cv\204"
 296      063CBD2D 
 296      CBA5CA63 
 296      78CD43F6 
 296      D1437684 
 297 0897 CBB1065B 		.ascii	"\313\261\006[^\255*\367\034\316PN\331\301\033n\325\331"
 297      5EAD2AF7 
 297      1CCE504E 
 297      D9C11B6E 
 297      D5D9
 298 08a9 7269CBB1 		.ascii	"ri\313\261%\012\236\274\355p\3161\236Q\276\023\325\206"
 298      250A9EBC 
 298      ED70CE31 
 298      9E51BE13 
 298      D586
 299 08bb 7CEEB21D 		.ascii	"|\356\262\035\270Q\266m\257\355\262\301d\215\267o\332"
 299      B851B66D 
 299      AFEDB2C1 
 299      648DB76F 
 299      DA
 300 08cc F1F6CD45 		.ascii	"\361\366\315E\\\377\200\353\3718PV\343z\001\256\027"
 300      5CFF80EB 
 300      F9385056 
 300      E37A01AE 
 300      17
 301 08dd E1FA635C 		.ascii	"\341\372c\\\177\206\353F\\o\305\365\015\\w\342\372\001"
 301      7F86EB46 
 301      5C6FC5F5 
 301      0D5C77E2 
 301      FA01
 302 08ef AE63B82E 		.ascii	"\256c\270.cQ=\203\265\021pM9\240i+\365\232i(\252\215"
 302      63513D83 
 302      B511704D 
 302      39A0692B 
 302      F59A6928 
 303 0905 66B2A49D 		.ascii	"f\262\244\235\320\306\223\017\253\2557\222Q\266g%E\005"
 303      D0C6930F 
 303      ABAD3792 
 303      51B66725 
 303      4505
 304 0917 6BD80C55 		.ascii	"k\330\014U\3052\310\362\300B\226\367I\262H\215U\037"
 304      C532C8F2 
 304      C04296F7 
ARM GAS  /tmp/ccJOLCOT.s 			page 24


 304      49B2488D 
 304      551F
 305 0929 3C21AE20 		.ascii	"<!\256 \356\275'\331\224\235c\226\243\001?\324\032\344"
 305      EEBD27D9 
 305      949D6396 
 305      A3013FD4 
 305      1AE4
 306 093b A8F092E5 		.ascii	"\250\360\222\345\230k\224\343\227\324\0121z8\332\331"
 306      986B94E3 
 306      97D40A31 
 306      7A38DAD9 
 307 094b FAD3461A 		.ascii	"\372\323F\032\342W\013\214N\310\260\006\252\357\012"
 307      E2570B8C 
 307      4EC8B006 
 307      AAEF0A
 308 095a A1841E75 		.ascii	"\241\204\036uR\221\244.>\375\366S\340\346\261N\337\300"
 308      5291A42E 
 308      3EFDF653 
 308      E0E6B14E 
 308      DFC0
 309 096c A964C96F 		.ascii	"\251d\311o\340\270\342\242W\305E\267d;_\353\005\352"
 309      E0B8E2A2 
 309      57C545B7 
 309      643B5FEB 
 309      05EA
 310 097e 4183243D 		.ascii	"A\203$=\330\377!\304\024H\211\037\202\374\232\370\361"
 310      D8FF21C4 
 310      1448891F 
 310      82FC9AF8 
 310      F1
 311 098f 84424AB6 		.ascii	"\204BJ\266\351\222\270\177b\301Y\257\227\221I\324\262"
 311      E992B87F 
 311      62C159AF 
 311      979149D4 
 311      B2
 312 09a0 40518BD6 		.ascii	"@Q\213\326]\363%C-N\335\315\205J7\207R\215\342{\322"
 312      5DF32543 
 312      2D4EDDCD 
 312      854A3787 
 312      528DE27B 
 313 09b5 38187480 		.ascii	"8\030t\200\033\037\306\377M\335\027A\353\245\226oy\255"
 313      1B1FC6FF 
 313      4DDD1741 
 313      EBA5966F 
 313      79AD
 314 09c7 D67C599A 		.ascii	"\326|Y\232\250b_\316T\300\027;6\335G\026\246\273\224"
 314      A8625FCE 
 314      54C0173B 
 314      36DD4716 
 314      A6BB94
 315 09da 4919B496 		.ascii	"I\031\264\226@X\313\306\023\031\331\341\244\323\025"
 315      4058CBC6 
 315      1319D9E1 
 315      A4D315
 316 09e9 F57465DD 		.ascii	"\365te\335\0070\373\3417\032\220,\014\265\324\254\021"
 316      0730FBE1 
 316      371A902C 
ARM GAS  /tmp/ccJOLCOT.s 			page 25


 316      0CB5D4AC 
 316      11
 317 09fa 83D4D8DB 		.ascii	"\203\324\330\333\031j-4R\034\037\375\346\216\257\"a"
 317      196A2D34 
 317      521C1FFD 
 317      E68EAF22 
 317      61
 318 0a0b 4E4B0DEE 		.ascii	"NK\015\356\255\300\320\324hj7\250J\212U\374\012\333"
 318      ADC0D0D4 
 318      686A37A8 
 318      4A8A55FC 
 318      0ADB
 319 0a1d 4DD59C2C 		.ascii	"M\325\234,\031G/a\177\251\353W\013\243\243eT\332\371"
 319      19472F61 
 319      7FA9EB57 
 319      0BA3A365 
 319      54DAF9
 320 0a30 B3EDD056 		.ascii	"\263\355\320V\272u\264\254J[m\213\366\033\217\216\326"
 320      BA75B4AC 
 320      4A5B6D8B 
 320      F61B8F8E 
 320      D6
 321 0a41 A5D22EB0 		.ascii	"\245\322.\260E[\327MSo\235$\335\272\012\211\276\210"
 321      455BD74D 
 321      536F9D24 
 321      DDBA0A89 
 321      BE88
 322 0a53 031C612C 		.ascii	"\003\034a,\030\236\332%-\323\206\371\205N\221lGOW\355"
 322      189EDA25 
 322      2DD386F9 
 322      854E916C 
 322      474F57ED 
 323 0a67 CD852C28 		.ascii	"\315\205,(en\016\023\001\373\014\351\355\016c3\034\275"
 323      656E0E13 
 323      01FB0CE9 
 323      ED0E6333 
 323      1CBD
 324 0a79 58634224 		.ascii	"XcB$u\362Y\362\335\324\251\320\203\007-\3623H\033\016"
 324      75F259F2 
 324      DDD4A9D0 
 324      83072DF2 
 324      33481B0E 
 325 0a8d C50B1946 		.ascii	"\305\013\031F\001\354R\222,\305\256`8\323\222\006z\351"
 325      01EC5292 
 325      2CC5AE60 
 325      38D39206 
 325      7AE9
 326 0a9f CACAB537 		.ascii	"\312\312\2657\263\246}\327\215\330\211\235\210\220e"
 326      B3A67DD7 
 326      8DD8899D 
 326      889065
 327 0aae 10A1721F 		.ascii	"\020\241r\037Nf\020.Cm\261\003\226\344\231\252J\017"
 327      4E66102E 
 327      436DB103 
 327      96E499AA 
 327      4A0F
 328 0ac0 263906CB 		.ascii	"&9\006\3132)]\315\0146\262(3\330\204\347\357F\\\377"
ARM GAS  /tmp/ccJOLCOT.s 			page 26


 328      32295DCD 
 328      0C36B228 
 328      33D884E7 
 328      EF465CFF 
 329 0ad4 09D75B59 		.ascii	"\011\327[YC\236\330b\232\203T\243\352\3604\333S\251"
 329      439ED862 
 329      9A8354A3 
 329      EAF034DB 
 329      53A9
 330 0ae6 11C93630 		.ascii	"\021\31160\031k\203E\377\360{\200\254am\311\022\222"
 330      196B8345 
 330      FFF07B80 
 330      AC616DC9 
 330      1292
 331 0af8 A33FD55A 		.ascii	"\243?\325Z\252\261\2105&g\034\275\316q\000\335a\021"
 331      AAB18835 
 331      26671CBD 
 331      CE7100DD 
 331      6111
 332 0b0a 40BBC755 		.ascii	"@\273\307Uv,!\004&\260\375\022B\334/\250\263\336\245"
 332      762C2104 
 332      26B0FD12 
 332      42DC2FA8 
 332      B3DEA5
 333 0b1d A26C2B79 		.ascii	"\242l+yr\210\262\262@\206\331\241F\204\231\375K\226"
 333      7288B2B2 
 333      4086D9A1 
 333      468499FD 
 333      4B96
 334 0b2f 38412051 		.ascii	"8A Q\327\353\364\241\277\257\327\023G\357V\372\231x"
 334      D7EBF4A1 
 334      BFAFD713 
 334      47EF56FA 
 334      9978
 335 0b41 58F57397 		.ascii	"X\365s\2271\336_\257\2146\325\037\250\246?\024\353\324"
 335      31DE5FAF 
 335      8C36D51F 
 335      A8A63F14 
 335      EBD4
 336 0b53 0483A39B 		.ascii	"\004\203\243\233q\310_\321\315\234\246p\364^r\014W;"
 336      71C85FD1 
 336      CD9CA670 
 336      F45E720C 
 336      573B
 337 0b65 347B272B 		.ascii	"4{'+sP\240O5\222\241/\020\240[H\320\214\246+\023\364"
 337      7350A04F 
 337      3592A12F 
 337      10A05B48 
 337      D08CA62B 
 338 0b7b B92D64E8 		.ascii	"\271-d\350\265\031\211\320m$hV\223\272\311\010}\347"
 338      B51989D0 
 338      6D246856 
 338      93BAC908 
 338      7DE7
 339 0b8d 0B32F455 		.ascii	"\0132\364U\002\364!\022\264K\203\336\223k\200\2165\221"
 339      02F42112 
 339      B44B83DE 
ARM GAS  /tmp/ccJOLCOT.s 			page 27


 339      936B808E 
 339      3591
 340 0b9f A1376626 		.ascii	"\2417f&B\037!A\2735\205\3545B/\272H\206\276E\200>N\202"
 340      421F2141 
 340      BB3585EC 
 340      35422FBA 
 340      4886BE45 
 341 0bb7 4ED3A4DE 		.ascii	"N\323\244\336o\204^\336A\206\336\326=\021\372\024\011"
 341      6F845EDE 
 341      4186DED6 
 341      3D11FA14 
 341      09
 342 0bc8 DAA3497D 		.ascii	"\332\243I}\320\010\275\345\032\031\372\001\001\272\235"
 342      D008BDE5 
 342      1A19FA01 
 342      01BA9D
 343 0bd7 049DAE49 		.ascii	"\004\235\256I}\310\010\335t\203\014\275\253G\"\364_"
 343      7DC808DD 
 343      74830CBD 
 343      AB4722F4 
 343      5F
 344 0be8 48D05E4D 		.ascii	"H\320^M\352\257\215\320\247n\223\241g\366L\204\216\222"
 344      EAAF8DD0 
 344      A76E93A1 
 344      67F64C84 
 344      8E92
 345 0bfa A0BB6952 		.ascii	"\240\273iR\2370B\237\273O\206>@\200>O\202\316\320\244"
 345      9F30429F 
 345      BB4F863E 
 345      40803E4F 
 345      82CED0A4 
 346 0c0e 3E6984BE 		.ascii	">i\204\276\363\220\014=\267W\"\364E\022t\246\006}\312"
 346      F3900C3D 
 346      B75722F4 
 346      451274A6 
 346      067DCA
 347 0c21 E4D72B5B 		.ascii	"\344\327+[\211\320G\010\320WH\320\335\361\211\032\332"
 347      89D04708 
 347      D05748D0 
 347      DDF1891A 
 347      DA
 348 0c32 4DF3C681 		.ascii	"M\363\306\201$\223|\007K\376PA~\376\261\242\372\233"
 348      24937C07 
 348      4BFE5041 
 348      7EFEB1A2 
 348      FA9B
 349 0c44 25D59124 		.ascii	"%\325\221$\274\276\263\244B\217\237VTW-\251\346$\241"
 349      BCBEB3A4 
 349      428F9F56 
 349      54572DA9 
 349      E624A1
 350 0c57 BAA65159 		.ascii	"\272\246QY}sazA\233\243\277w<\353]\267\230\365h#k\363"
 350      7D73617A 
 350      419BA3BF 
 350      773CEB5D 
 350      B798F568 
 351 0c6e 8729C3D5 		.ascii	"\207)\303\325v\036\005\347\007\307\234oXpNS8c\244\031"
ARM GAS  /tmp/ccJOLCOT.s 			page 28


 351      761E05E7 
 351      07C79C6F 
 351      58704E53 
 351      3863A419 
 352 0c82 499742C1 		.ascii	"I\227B\301\214x\031$\365\272&)\327MS\241~O\3053\350"
 352      8C781924 
 352      F5BA2629 
 352      D74D53A1 
 352      7E4FC533 
 353 0c97 45AB6F04 		.ascii	"E\253o\004\345E\325\037Y\264\372\265\260w\3127\242\215"
 353      E545D51F 
 353      59B4FAB5 
 353      B077CA37 
 353      A28D
 354 0ca9 3848A83B 		.ascii	"8H\250;\346\234\271\372L&z\253\345N\352\254\371\335"
 354      E69CB9FA 
 354      4C267AAB 
 354      E54EEAAC 
 354      F9DD
 355 0cbb 19D28233 		.ascii	"\031\322\2023\352\232\324M\026\357\376c\021\356t-m\006"
 355      EA9AD44D 
 355      16EFFE63 
 355      11EE742D 
 355      6D06
 356 0ccd BC856770 		.ascii	"\274\205gp\232)\203}\342\030,\313\000V\243\007[g\007"
 356      9A29837D 
 356      E2182CCB 
 356      0056A307 
 356      5B6707
 357 0ce0 CC2A0106 		.ascii	"\314*\001\006\260\305z\260z\307`F\311\226\350\3016\333"
 357      B0C57AB0 
 357      7AC76046 
 357      C996E8C1 
 357      36DB
 358 0cf2 01B37AEB 		.ascii	"\001\263z\353\013\300\226\351\301\2668\0063J\326\240"
 358      0BC096E9 
 358      C1B63806 
 358      334AD6A0 
 359 0d02 07FBC20E 		.ascii	"\007\373\302\016\230\325[_\000\266I\017\266\3131\230"
 359      98D55B5F 
 359      00B6490F 
 359      B6CB3198 
 360 0d12 51B2CD7A 		.ascii	"Q\262\315z\260\375v\300\262\254%\373\223\036\354\240"
 360      B0FD76C0 
 360      B2AC25FB 
 360      931EECA0 
 361 0d22 6330A364 		.ascii	"c0\243d[\365`\207\355\200Y-i\003\330v=\330q\307`F\311"
 361      5BF56087 
 361      ED80592D 
 361      6903D876 
 361      3DD871C7 
 362 0d39 76E8C1BE 		.ascii	"v\350\301\276\261\003\226c%Y\231\264\363\255JN\237\333"
 362      B1039663 
 362      255999B4 
 362      F3AD4A4E 
 362      9FDB
 363 0d4b 235435AC 		.ascii	"#T5\254\230\036\305\365\315:h\313f\034\275\300\3454"
ARM GAS  /tmp/ccJOLCOT.s 			page 29


 363      981EC5F5 
 363      CD3A68CB 
 363      661CBDC0 
 363      E534
 364 0d5d 122F7491 		.ascii	"\022/t\221#\261\376;0\255\025z\355\301\334m\243\024"
 364      23B1FE3B 
 364      30AD157A 
 364      EDC1DC6D 
 364      A314
 365 0d6f A47E1B95 		.ascii	"\244~\033\225xX\257\304\250\035%\216\262\006;\252\007"
 365      7858AFC4 
 365      A81D258E 
 365      B2063BAA 
 365      07
 366 0d80 BB6007EC 		.ascii	"\273`\007\354Uk_9\256\007\273\342\030\314(\331I=\330"
 366      556B5F39 
 366      AE07BBE2 
 366      18CC28D9 
 366      493DD8
 367 0d93 353B60E3 		.ascii	"5;`\343\254%\373F\017\366\203c0\275deR\273\346x\350"
 367      AC25FB46 
 367      0FF68363 
 367      30BD6465 
 367      52BBE678 
 368 0da8 231983E7 		.ascii	"#\031\203\347\2152F[C3\235\347\231\232q\364*\227\272"
 368      8D32465B 
 368      43339DE7 
 368      999A71F4 
 368      2A97BA
 369 0dbb AE7ADDB8 		.ascii	"\256z\335\270\256z][W\275c\226\333\200\242\234\276I"
 369      AE7A5D5B 
 369      57BD6396 
 369      DB80A29C 
 369      BE49
 370 0dcd 5002E9D0 		.ascii	"P\002\351\320\317\264\034}\027\257{\334\303+\023\235"
 370      CFB41C7D 
 370      17AF7BDC 
 370      C32B139D 
 371 0ddd B87E80EB 		.ascii	"\270~\200\353\030\256\313\\x?\003\3273q]\201\353\367"
 371      18AECB5C 
 371      783F03D7 
 371      33715D81 
 371      EBF7
 372 0def 713D07D7 		.ascii	"q=\007\327sq=\017\327\363q]\215\353\032\\/\306\365\022"
 372      73713D0F 
 372      D7F3715D 
 372      8DEB1A5C 
 372      2FC6F512 
 373 0e03 5C2FC375 		.ascii	"\\/\303u\035\256W\272t\253 \246\374\356\307$\353\035"
 373      1DAE57BA 
 373      74AB20A6 
 373      FCEEC724 
 373      EB1D
 374 0e15 9FB8E2F9 		.ascii	"\237\270\342\371\035\332p\220\256G\357\326\267OV?\240"
 374      1DDA7090 
 374      AE47EFD6 
 374      B74F563F 
ARM GAS  /tmp/ccJOLCOT.s 			page 30


 374      A0
 375 0e26 7C4AFE88 		.ascii	"|J\376\210\217\241>\352cN\240\211\237\355\255v%\375"
 375      8FA13EEA 
 375      634EA089 
 375      9FEDAD76 
 375      25FD
 376 0e38 6C6F8D2B 		.ascii	"lo\215+a\207\003\030~\321x\343?\327\243\317\010\304"
 376      61870318 
 376      7ED178E3 
 376      3FD7A3CF 
 376      08C4
 377 0e4a 87B177CA 		.ascii	"\207\261w\312\336\245\325O\030\277\"\363\024\215\237"
 377      DEA5D54F 
 377      18BF22F3 
 377      148D9F
 378 0e59 30AE7399 		.ascii	"0\256s\231>a\374\224\310d\347\245\303\213\351\3713D"
 378      3E61FC94 
 378      C864E7A5 
 378      C38BE9F9 
 378      3344
 379 0e6b 794BA72E 		.ascii	"yK\247.]er\312\026\223\015f&\237\021\231To\271\361\352"
 379      5D6572CA 
 379      16930D66 
 379      269F1199 
 379      546FB9F1 
 380 0e80 3DAD274F 		.ascii	"=\255'O\331\337\257\331\3502\355\327t$\356\327T\367"
 380      D9DFAFD9 
 380      E832EDD7 
 380      7424EED7 
 380      54F7
 381 0e92 D58BAAAC 		.ascii	"\325\213\252\254u\257\350\253\344\310OS\037\213b\225"
 381      75AFE8AB 
 381      E4C84F53 
 381      1F8B6295 
 382 0ea2 78645F66 		.ascii	"xd_f%\255~vT\217)\0324\243\230\362Vek^\351\361\315\262"
 382      25AD7E76 
 382      548F291A 
 382      34A398F2 
 382      56656B5E 
 383 0eba 71FDE33D 		.ascii	"q\375\343=n0\367\270\221\330\343{\365\315E\333\014\266"
 383      6E30F7B8 
 383      91D8E37B 
 383      F5CD45DB 
 383      0CB6
 384 0ecc 93FDE5F3 		.ascii	"\223\375\345\363\276\266\374e[r\177\331N\344\331\260"
 384      BEB6FC65 
 384      5B727FD9 
 384      4EE4D9B0 
 385 0edc B3F5C904 		.ascii	"\263\365\311\004\007\275k\217\341\216\344\014\277$2"
 385      07BD6B8F 
 385      E18EE40C 
 385      BF2432
 386 0eeb DCFA6DFB 		.ascii	"\334\372m\373\263\011\014\245~\266\0306%g(Y\214\210"
 386      B3090CA5 
 386      7EB61836 
 386      25672859 
 386      8C88
ARM GAS  /tmp/ccJOLCOT.s 			page 31


 387 0efd A385A411 		.ascii	"\243\205\244\021q\214\314\323\344\254\315f\323\355\266"
 387      718CCCD3 
 387      E4ACCD66 
 387      D3EDB6
 388 0f0c 1A114B49 		.ascii	"\032\021KI#\342\234-&{\315L\366\031\231P.\177!\027~"
 388      23E29C2D 
 388      267BCD4C 
 388      F6199950 
 388      2E7F2117 
 389 0f21 7AD0A06C 		.ascii	"z\320\240l\371/\024\311\016\013\331EA\177\240\264\200"
 389      F92F14C9 
 389      0E0BD945 
 389      417FA0B4 
 389      80
 390 0f32 CFF61746 		.ascii	"\317\366\027F\246G\204\351%|dP!\345E\347E\305\274OH"
 390      A64784E9 
 390      257C6450 
 390      21E545E7 
 390      45C5BC4F 
 391 0f47 7BE5776F 		.ascii	"{\345wod\345QOf\227F\302\361\266A~j\240\350\355\354"
 391      64E5514F 
 391      669746C2 
 391      F1B6417E 
 391      6AA0E8ED 
 392 0f5c 88505014 		.ascii	"\210PP\024\024\240yz)\374\317\035\346\023\236'5+\346"
 392      14A0797A 
 392      29FCCF1D 
 392      E6139E27 
 392      352BE6
 393 0f6f FC854541 		.ascii	"\374\205EA>\333W\300O\344J\003\202O\345\322\315\347"
 393      3EDB57C0 
 393      4FE44A03 
 393      824FE5D2 
 393      CDE7
 394 0f81 53099F8D 		.ascii	"S\011\237\215K%\360\021\001\311\025\011\225\206\375"
 394      4B25F011 
 394      01C91509 
 394      9586FD
 395 0f90 BC7C892A 		.ascii	"\274|\211*_8\024\022\006\371\251~\370\242$\014"
 395      5F381412 
 395      06F9A97E 
 395      F8A2240C 
 396 0fa0 84BE9250 		.ascii	"\204\276\222PX\360\025\005'\206\036\3077\005>\\\\\024"
 396      58F01505 
 396      27861EC7 
 396      37053E5C 
 396      5C14
 397 0fb2 E40410BB 		.ascii	"\344\004\020\2730\314s\005\221\336\370\366T\256HP\357"
 397      30CC7305 
 397      91DEF8F6 
 397      54AE4850 
 397      EF
 398 0fc3 F4D0DD29 		.ascii	"\364\320\335)\362O\036`d\213\244\365\027\372\3209\210"
 398      F24F1E60 
 398      648BA4F5 
 398      17FAD039 
 398      88
ARM GAS  /tmp/ccJOLCOT.s 			page 32


 399 0fd4 97A9710A 		.ascii	"\227\251q\012\004\273i\027\377h\251A\205\011\322\210"
 399      04BB6917 
 399      FF68A941 
 399      8509D288 
 400 0fe4 7CEA13BC 		.ascii	"|\352\023\274\010\017\237gY+\336_X\0004=\025r\337\177"
 400      080F9F67 
 400      592BDE5F 
 400      5800343D 
 400      1572DF7F 
 401 0ff8 95F2A5D0 		.ascii	"\225\362\245\320\207^qR"
 401      875E7152 
 402 1000 E5962BC8 		.ascii	"\345\226+\310O\023\\%a~\212\033_\017\327#\372C\305\305"
 402      4F135C25 
 402      617E8A1B 
 402      5F0FD723 
 402      FA43C5C5 
 403 1014 A1603652 		.ascii	"\241`6RI$\373\245\374\261yc\247\241{%E\001>\034\311"
 403      4924FBA5 
 403      FCB17963 
 403      A7A17B25 
 403      45013E1C 
 404 1029 7E252F0F 		.ascii	"~%/\017\311\247(\336#@GB>\001\333m\310`\237\240X\002"
 404      C9A728DE 
 404      23404742 
 404      3E01DB6D 
 404      C8609FA0 
 405 103f 9DBAD04F 		.ascii	"\235\272\320O\231X\263\376PP\000\216\317\246dS\350\017"
 405      9958B3FE 
 405      5050008E 
 405      CFA66453 
 405      E80F
 406 1051 8579C0CD 		.ascii	"\205y\300\315P\014\"\370\205i\317\333\243\362My\261"
 406      500C22F8 
 406      8569CFDB 
 406      A3F24D79 
 406      B1
 407 1062 18E92BCC 		.ascii	"\030\351+\314O\342\302\305>\201\011\017e\302/0\341a"
 407      4FE2C2C5 
 407      3E81090F 
 407      65C22F30 
 407      E161
 408 1074 4CF84526 		.ascii	"L\370E&<\234\011\217`\303\2719Pr\231@\230\211\224\260"
 408      3C9C098F 
 408      60C3B939 
 408      50729940 
 408      988994B0 
 409 1088 00ED06C7 		.ascii	"\000\355\006\307\342\303\356P\240\200\017\273\202\\"
 409      E2C3EE50 
 409      A0800FBB 
 409      825C
 410 1096 31DF2D22 		.ascii	"1\337-\"L\346\002E\223\202J\227\206\015\215w\011\235"
 410      4CE60245 
 410      93824A97 
 410      860D8D77 
 410      099D
 411 10a8 A64DE5DE 		.ascii	"\246M\345\336\346\"|\272\020\021\260sx\320\017\303\301"
 411      E6227CBA 
ARM GAS  /tmp/ccJOLCOT.s 			page 33


 411      1011B073 
 411      78D00FC3 
 411      C1
 412 10b9 36721338 		.ascii	"6r\0238s\343_<Bq\250\000~wO\014p\223\"\036!\314O\214"
 412      73E35F3C 
 412      4271A800 
 412      7E774F0C 
 412      7093221E 
 413 10d1 8042D03F 		.ascii	"\200B\320?wqd\022\020*:\002B\345,-\\0\035~J\347\247"
 413      77716412 
 413      102A3A02 
 413      42E52C2D 
 413      5C301D7E 
 414 10e8 15097E20 		.ascii	"\025\011~ N\233*\204\336\376CI\037\305\374@\312\207"
 414      4E9B2A84 
 414      DEFE4349 
 414      1FC5FC40 
 414      CA87
 415 10fa F9A01F81 		.ascii	"\371\240\037\201N\025\204p\211'\302\007\005 \310\004"
 415      4E158470 
 415      8927C207 
 415      0520C804 
 416 110a DB46F862 		.ascii	"\333F\370b\256\244\020t0\320\3323x\244\034\267\037|"
 416      AEA41074 
 416      30D0DA33 
 416      78A41CB7 
 416      1F7C
 417 111c 5D60A106 		.ascii	"]`\241\006x\270U\222\016\324\305\245`\033k\312ba\032"
 417      78B85592 
 417      0ED4C5A5 
 417      601B6BCA 
 417      62611A
 418 112f A20C4D0D 		.ascii	"\242\014M\015\362a\017n\213\364 \300\355\222\014~\012"
 418      F2610F6E 
 418      8BF420C0 
 418      ED920C7E 
 418      0A
 419 1140 12828B4C 		.ascii	"\022\202\213L\206[\374TtB\227\366P=-P\204FRO\235\357"
 419      865BFC54 
 419      744297F6 
 419      503D2D50 
 419      8446524F 
 420 1156 A13B1E34 		.ascii	"\241;\0364d\212\202\223\322Av\354{\351|\011\037\204"
 420      648A8293 
 420      D24176EC 
 420      7BE97C09 
 420      1F84
 421 1168 E13FC903 		.ascii	"\341?\311\003\220\250\005X\220\013 \337q\027\227\204"
 421      90A80558 
 421      900B20DF 
 421      71179784 
 422 1178 42811EFE 		.ascii	"B\201\036\376\302\011\205\005\023\324\021\351\305\227"
 422      C2098505 
 422      13D411E9 
 422      C597
 423 1186 FF0E20DD 		.ascii	"\377\016 \335\360\331\370\000\317\227x\024\016\314T"
 423      F0D9F800 
ARM GAS  /tmp/ccJOLCOT.s 			page 34


 423      CF977814 
 423      0ECC54
 424 1195 2E030FAF 		.ascii	".\003\017\257\267K'\202\276<\330\224|\201;\302\013\245"
 424      B74B2782 
 424      BE3CD894 
 424      7C813BC2 
 424      0BA5
 425 11a7 25E902CF 		.ascii	"%\351\002\317\205\013\240\037\036~\032\357\207\216\340"
 425      850BA01F 
 425      1E7E1AEF 
 425      878EE0
 426 11b6 91E8077B 		.ascii	"\221\350\007{\202\2151U\244\264H\340{\015*\340\004n"
 426      828D3155 
 426      A4B448E0 
 426      7B0D2AE0 
 426      046E
 427 11c8 90762337 		.ascii	"\220v#7uD\211\360\320\025d\234\234\234\\PV\357\204\233"
 427      754489F0 
 427      D015649C 
 427      9C9C5C50 
 427      56EF849B 
 428 11dc CE300693 		.ascii	"\3160\006\2230\006;\303\030B\302\030\342\014c(\011c"
 428      30063BC3 
 428      1842C218 
 428      E20C6328 
 428      0963
 429 11ee A8338C17 		.ascii	"\2503\214\027H\030/8\303\030F\302\030\346\014\343E\022"
 429      48182F38 
 429      C31846C2 
 429      18E60CE3 
 429      4512
 430 1200 C68BCE30 		.ascii	"\306\213\3160\206\2230\206;\303\030A\302\030\341\010"
 430      86933086 
 430      3BC31841 
 430      C218E108 
 431 1210 23378780 		.ascii	"#7\207\200\221\233\343\014\203\344\247\271\316\3744"
 431      919BE30C 
 431      83E4A7B9 
 431      CEFC34
 432 121f 97E4A7B9 		.ascii	"\227\344\247\271\316\3744\227\344\247\271C\006\353\303"
 432      CEFC3497 
 432      E4A7B943 
 432      06EBC3
 433 122e 51211750 		.ascii	"Q!\027P\002\376\370\011c\207\014\316~\375\365\321\331"
 433      02FEF809 
 433      63870CCE 
 433      7EFDF5D1 
 433      D9
 434 123f 135E1B3B 		.ascii	"\023^\033;%\027\362\206b\024;\213Pl\313\210_@\204\313"
 434      2517F286 
 434      62143B8B 
 434      506CCB88 
 434      5F4084CB 
 435 1253 CBCF8532 		.ascii	"\313\317\2052\3305~l^\276k\364kc\362\231\361\371\354"
 435      D8357E6C 
 435      5EBE6BF4 
 435      6B63F299 
ARM GAS  /tmp/ccJOLCOT.s 			page 35


 435      F1F9EC
 436 1266 9857F2DD 		.ascii	"\230W\362\335yyc\363sq=\330\225\2277&\237\315\373\335"
 436      797963F3 
 436      73713DD8 
 436      95973726 
 436      9FCDFBDD 
 437 127a 0476DCF8 		.ascii	"\004v\334\370<\366\245\374|6?\017\256\201\340\345\321"
 437      3CF6A5FC 
 437      7C363F0F 
 437      AE81E0E5 
 437      D1
 438 128b 13F2D9D1 		.ascii	"\023\362\331\321\210r\354K\371\314\277\312TC\240\375"
 438      8872EC4B 
 438      F9CCBFCA 
 438      5443A0FD 
 439 129b 9BF9BFB0 		.ascii	"\233\371\277\260\214\223S\320L\337\333_\370o\023^\341"
 439      8C9353D0 
 439      4CDFDB5F 
 439      F86F135E 
 439      E1
 440 12ac 85F190F5 		.ascii	"\205\361\220\365\360\305\023 \361I\022\222\247\343\004"
 440      F0C51320 
 440      F1491292 
 440      A7E304
 441 12bb C95F088D 		.ascii	"\311_\010\215_\017\371'{\361\234\027\200\263\\=\215"
 441      5F0FF927 
 441      7BF19C17 
 441      80B35C3D 
 441      8D
 442 12cc 32E3C1F4 		.ascii	"2\343\301\364\231\2357v\374k\3435\204\342HQ\3047\311"
 442      999D3776 
 442      FC6BE335 
 442      84E24851 
 442      C437C9
 443 12df EF0794EE 		.ascii	"\357\007\224\356>P\237\340{\371\245\361c\306\345\277"
 443      3E509FE0 
 443      7BF9A5F1 
 443      63C6E5BF 
 444 12ef D69D0B4C 		.ascii	"\326\235\013L\345\246G`j\011@\272\344\236\302\005J\371"
 444      E5A64760 
 444      6A0940BA 
 444      E49EC205 
 444      4AF9
 445 1301 3E0992BD 		.ascii	">\011\222\275\231msbE\371[\030\230\364\305\002\342+"
 445      996D7362 
 445      45F95B18 
 445      98F4C502 
 445      E22B
 446 1313 DF245E3E 		.ascii	"\337$^>\033b\317P\360\213\017L\034\010\240\364\244\217"
 446      1B62CF50 
 446      F08B0F4C 
 446      1C08A0F4 
 446      A48F
 447 1325 7C8631FC 		.ascii	"|\2061\374\241RH\015\302\031X\013o\004Q\357\345\271"
 447      A152480D 
 447      C219580B 
 447      6F0451EF 
ARM GAS  /tmp/ccJOLCOT.s 			page 36


 447      E5B9
 448 1337 BF149FFF 		.ascii	"\277\024\237\377\037\302\204s\251"
 448      1FC28473 
 448      A9
 449              		.text
 450              		.section	.gnu.lto_.symtab.824f6f37b882e2f,"",%progbits
 451 0000 74657374 		.ascii	"test_print_port_info\000\000\000\000\000\000\000\000"
 451      5F707269 
 451      6E745F70 
 451      6F72745F 
 451      696E666F 
 452 001c 00000000 		.ascii	"\000\000\000\000\272\000\000\000test_terminate_thre"
 452      BA000000 
 452      74657374 
 452      5F746572 
 452      6D696E61 
 453 0037 61647300 		.ascii	"ads\000\000\000\000\000\000\000\000\000\000\000\000"
 453      00000000 
 453      00000000 
 453      000000
 454 0046 BE000000 		.ascii	"\276\000\000\000threads\000\000\000\000\000\000\000"
 454      74687265 
 454      61647300 
 454      00000000 
 454      0000
 455 0058 00000000 		.ascii	"\000\000\000\000\000\216\001\000\000test_wait_threa"
 455      008E0100 
 455      00746573 
 455      745F7761 
 455      69745F74 
 456 0070 64730000 		.ascii	"ds\000\000\000\000\000\000\000\000\000\000\000\000\301"
 456      00000000 
 456      00000000 
 456      0000C1
 457 007f 00000074 		.ascii	"\000\000\000test_wait_tick\000\000\000\000\000\000\000"
 457      6573745F 
 457      77616974 
 457      5F746963 
 457      6B000000 
 458 0097 00000000 		.ascii	"\000\000\000\000\000\304\000\000\000wa\000\000\000\000"
 458      00C40000 
 458      00776100 
 458      000000
 459 00a6 00000000 		.ascii	"\000\000\000\000\000\000\000\000\222\001\000\000tes"
 459      00000000 
 459      92010000 
 459      746573
 460 00b5 745F6275 		.ascii	"t_buffer\000\000\000\000\000\000\000\000\000\000\000"
 460      66666572 
 460      00000000 
 460      00000000 
 460      000000
 461 00c8 009C0100 		.ascii	"\000\234\001\000\000test_suite\000\000\000\000\000\000"
 461      00746573 
 461      745F7375 
 461      69746500 
 461      00000000 
ARM GAS  /tmp/ccJOLCOT.s 			page 37


 462 00dd 00000000 		.ascii	"\000\000\000\000\000\000\251\001\000\000test_sequen"
 462      0000A901 
 462      00007465 
 462      73745F73 
 462      65717565 
 463 00f2 63655F30 		.ascii	"ce_001\000\000\002\000\000\000\000\000\000\000\000\000"
 463      30310000 
 463      02000000 
 463      00000000 
 463      0000
 464 0104 C4010000 		.ascii	"\304\001\000\000test_sequence_002\000\000\002\000\000"
 464      74657374 
 464      5F736571 
 464      75656E63 
 464      655F3030 
 465 011e 00000000 		.ascii	"\000\000\000\000\000\000\000\307\001\000\000test_se"
 465      000000C7 
 465      01000074 
 465      6573745F 
 465      7365
 466 0130 7175656E 		.ascii	"quence_003\000\000\002\000\000\000\000\000\000\000\000"
 466      63655F30 
 466      30330000 
 466      02000000 
 466      00000000 
 467 0145 00CA0100 		.ascii	"\000\312\001\000\000test_sequence_004\000\000\002\000"
 467      00746573 
 467      745F7365 
 467      7175656E 
 467      63655F30 
 468 015f 00000000 		.ascii	"\000\000\000\000\000\000\000\000\315\001\000\000tes"
 468      00000000 
 468      CD010000 
 468      746573
 469 016e 745F7365 		.ascii	"t_sequence_005\000\000\002\000\000\000\000\000\000\000"
 469      7175656E 
 469      63655F30 
 469      30350000 
 469      02000000 
 470 0186 0000D001 		.ascii	"\000\000\320\001\000\000test_sequence_006\000\000\002"
 470      00007465 
 470      73745F73 
 470      65717565 
 470      6E63655F 
 471 01a0 00000000 		.ascii	"\000\000\000\000\000\000\000\000\000\323\001\000\000"
 471      00000000 
 471      00D30100 
 471      00
 472 01ad 74657374 		.ascii	"test_sequence_007\000\000\002\000\000\000\000\000\000"
 472      5F736571 
 472      75656E63 
 472      655F3030 
 472      37000002 
 473 01c7 000000D6 		.ascii	"\000\000\000\326\001\000\000test_sequence_008\000\000"
 473      01000074 
 473      6573745F 
 473      73657175 
ARM GAS  /tmp/ccJOLCOT.s 			page 38


 473      656E6365 
 474 01e1 02000000 		.ascii	"\002\000\000\000\000\000\000\000\000\000\331\001\000"
 474      00000000 
 474      0000D901 
 474      00
 475 01ee 00746573 		.ascii	"\000test_sequence_009\000\000\002\000\000\000\000\000"
 475      745F7365 
 475      7175656E 
 475      63655F30 
 475      30390000 
 476 0208 00000000 		.ascii	"\000\000\000\000\334\001\000\000test_sequence_010\000"
 476      DC010000 
 476      74657374 
 476      5F736571 
 476      75656E63 
 477 0222 00020000 		.ascii	"\000\002\000\000\000\000\000\000\000\000\000\337\001"
 477      00000000 
 477      000000DF 
 477      01
 478 022f 00007465 		.ascii	"\000\000test_sequence_011\000\000\002\000\000\000\000"
 478      73745F73 
 478      65717565 
 478      6E63655F 
 478      30313100 
 479 0249 00000000 		.ascii	"\000\000\000\000\000\342\001\000\000test_sequence_0"
 479      00E20100 
 479      00746573 
 479      745F7365 
 479      7175656E 
 480 0261 31320000 		.ascii	"12\000\000\002\000\000\000\000\000\000\000\000\000\345"
 480      02000000 
 480      00000000 
 480      0000E5
 481 0270 01000074 		.ascii	"\001\000\000test_sequence_013\000\000\002\000\000\000"
 481      6573745F 
 481      73657175 
 481      656E6365 
 481      5F303133 
 482 028a 00000000 		.ascii	"\000\000\000\000\000\000\350\001\000\000test_printl"
 482      0000E801 
 482      00007465 
 482      73745F70 
 482      72696E74 
 483 029f 6E000002 		.ascii	"n\000\000\002\000\000\000\000\000\000\000\000\000\310"
 483      00000000 
 483      00000000 
 483      00C8
 484 02ad 00000074 		.ascii	"\000\000\000test_print\000\000\002\000\000\000\000\000"
 484      6573745F 
 484      7072696E 
 484      74000002 
 484      00000000 
 485 02c2 00000000 		.ascii	"\000\000\000\000\316\000\000\000chThdTerminate\000\000"
 485      CE000000 
 485      63685468 
 485      64546572 
 485      6D696E61 
ARM GAS  /tmp/ccJOLCOT.s 			page 39


 486 02da 02000000 		.ascii	"\002\000\000\000\000\000\000\000\000\000\320\000\000"
 486      00000000 
 486      0000D000 
 486      00
 487 02e7 00636854 		.ascii	"\000chThdWait\000\000\002\000\000\000\000\000\000\000"
 487      68645761 
 487      69740000 
 487      02000000 
 487      00000000 
 488 02fb 00008601 		.ascii	"\000\000\206\001\000\000chThdSleep\000\000\002\000\000"
 488      00006368 
 488      54686453 
 488      6C656570 
 488      00000200 
 489 0310 00000000 		.ascii	"\000\000\000\000\000\000\000\212\001\000\000"
 489      0000008A 
 489      010000
 490              		.text
 491              		.section	.gnu.lto_.opts,"",%progbits
 492 0000 272D6D63 		.ascii	"'-mcpu=cortex-m3' '-mno-thumb-interwork' '-mthumb' "
 492      70753D63 
 492      6F727465 
 492      782D6D33 
 492      2720272D 
 493 0033 272D6767 		.ascii	"'-ggdb' '-O2' '-fomit-frame-pointer' '-falign-funct"
 493      64622720 
 493      272D4F32 
 493      2720272D 
 493      666F6D69 
 494 0066 696F6E73 		.ascii	"ions=16' '-ffunction-sections' '-fdata-sections' '-"
 494      3D313627 
 494      20272D66 
 494      66756E63 
 494      74696F6E 
 495 0099 666E6F2D 		.ascii	"fno-common' '-flto'\000"
 495      636F6D6D 
 495      6F6E2720 
 495      272D666C 
 495      746F2700 
 496              		.text
 497              		.cfi_sections	.debug_frame
 498              		.section	.text.test_print_port_info,"ax",%progbits
 499              		.align	2
 500              		.p2align 4,,15
 501              		.global	test_print_port_info
 502              		.thumb
 503              		.thumb_func
 504              		.type	test_print_port_info, %function
 505              	test_print_port_info:
 506              	.LFB219:
 507              		.file 1 "../../../test/rt/source/test/test_root.c"
 508              		.loc 1 95 0
 509              		.cfi_startproc
 510              		@ args = 0, pretend = 0, frame = 0
 511              		@ frame_needed = 0, uses_anonymous_args = 0
 512              		.loc 1 98 0
 513 0000 40F20000 		movw	r0, #:lower16:.LC0
ARM GAS  /tmp/ccJOLCOT.s 			page 40


 514              		.loc 1 95 0
 515 0004 08B5     		push	{r3, lr}
 516              		.cfi_def_cfa_offset 8
 517              		.cfi_offset 3, -8
 518              		.cfi_offset 14, -4
 519              		.loc 1 98 0
 520 0006 C0F20000 		movt	r0, #:upper16:.LC0
 521 000a FFF7FEFF 		bl	test_print
 522              	.LVL0:
 523              		.loc 1 99 0
 524 000e 40F20000 		movw	r0, #:lower16:.LC1
 525 0012 C0F20000 		movt	r0, #:upper16:.LC1
 526 0016 FFF7FEFF 		bl	test_println
 527              	.LVL1:
 528              		.loc 1 101 0
 529 001a 40F20000 		movw	r0, #:lower16:.LC2
 530 001e C0F20000 		movt	r0, #:upper16:.LC2
 531 0022 FFF7FEFF 		bl	test_print
 532              	.LVL2:
 533              		.loc 1 102 0
 534 0026 40F20000 		movw	r0, #:lower16:.LC3
 535 002a C0F20000 		movt	r0, #:upper16:.LC3
 536 002e FFF7FEFF 		bl	test_println
 537              	.LVL3:
 538              		.loc 1 104 0
 539 0032 40F20000 		movw	r0, #:lower16:.LC4
 540 0036 C0F20000 		movt	r0, #:upper16:.LC4
 541 003a FFF7FEFF 		bl	test_print
 542              	.LVL4:
 543              		.loc 1 105 0
 544 003e 40F20000 		movw	r0, #:lower16:.LC5
 545 0042 C0F20000 		movt	r0, #:upper16:.LC5
 546 0046 FFF7FEFF 		bl	test_println
 547              	.LVL5:
 548              		.loc 1 108 0
 549 004a 40F20000 		movw	r0, #:lower16:.LC6
 550 004e C0F20000 		movt	r0, #:upper16:.LC6
 551 0052 FFF7FEFF 		bl	test_print
 552              	.LVL6:
 553              		.loc 1 111 0
 554 0056 BDE80840 		pop	{r3, lr}
 555              		.loc 1 109 0
 556 005a 40F20000 		movw	r0, #:lower16:.LC7
 557 005e C0F20000 		movt	r0, #:upper16:.LC7
 558 0062 FFF7FEBF 		b	test_println
 559              	.LVL7:
 560              		.cfi_endproc
 561              	.LFE219:
 562              		.size	test_print_port_info, .-test_print_port_info
 563 0066 00BFAFF3 		.section	.text.test_terminate_threads,"ax",%progbits
 563      0080AFF3 
 563      0080
 564              		.align	2
 565              		.p2align 4,,15
 566              		.global	test_terminate_threads
 567              		.thumb
 568              		.thumb_func
ARM GAS  /tmp/ccJOLCOT.s 			page 41


 569              		.type	test_terminate_threads, %function
 570              	test_terminate_threads:
 571              	.LFB220:
 572              		.loc 1 135 0
 573              		.cfi_startproc
 574              		@ args = 0, pretend = 0, frame = 0
 575              		@ frame_needed = 0, uses_anonymous_args = 0
 576              	.LVL8:
 577 0000 38B5     		push	{r3, r4, r5, lr}
 578              		.cfi_def_cfa_offset 16
 579              		.cfi_offset 3, -16
 580              		.cfi_offset 4, -12
 581              		.cfi_offset 5, -8
 582              		.cfi_offset 14, -4
 583 0002 064C     		ldr	r4, .L10
 584 0004 04F11405 		add	r5, r4, #20
 585              	.LVL9:
 586              	.L5:
 587              		.loc 1 139 0
 588 0008 54F8043F 		ldr	r3, [r4, #4]!
 589              		.loc 1 140 0
 590 000c 1846     		mov	r0, r3
 591              		.loc 1 139 0
 592 000e 0BB1     		cbz	r3, .L3
 593              		.loc 1 140 0
 594 0010 FFF7FEFF 		bl	chThdTerminate
 595              	.LVL10:
 596              	.L3:
 597              		.loc 1 138 0
 598 0014 AC42     		cmp	r4, r5
 599 0016 F7D1     		bne	.L5
 600              		.loc 1 141 0
 601 0018 38BD     		pop	{r3, r4, r5, pc}
 602              	.L11:
 603 001a 00BF     		.align	2
 604              	.L10:
 605 001c FCFFFFFF 		.word	.LANCHOR0-4
 606              		.cfi_endproc
 607              	.LFE220:
 608              		.size	test_terminate_threads, .-test_terminate_threads
 609              		.section	.text.test_wait_threads,"ax",%progbits
 610              		.align	2
 611              		.p2align 4,,15
 612              		.global	test_wait_threads
 613              		.thumb
 614              		.thumb_func
 615              		.type	test_wait_threads, %function
 616              	test_wait_threads:
 617              	.LFB221:
 618              		.loc 1 146 0
 619              		.cfi_startproc
 620              		@ args = 0, pretend = 0, frame = 0
 621              		@ frame_needed = 0, uses_anonymous_args = 0
 622              	.LVL11:
 623 0000 70B5     		push	{r4, r5, r6, lr}
 624              		.cfi_def_cfa_offset 16
 625              		.cfi_offset 4, -16
ARM GAS  /tmp/ccJOLCOT.s 			page 42


 626              		.cfi_offset 5, -12
 627              		.cfi_offset 6, -8
 628              		.cfi_offset 14, -4
 629 0002 40F20004 		movw	r4, #:lower16:.LANCHOR0
 630 0006 C0F20004 		movt	r4, #:upper16:.LANCHOR0
 631 000a 04F11405 		add	r5, r4, #20
 632              		.loc 1 152 0
 633 000e 0026     		movs	r6, #0
 634              	.LVL12:
 635              	.L15:
 636              		.loc 1 150 0
 637 0010 54F8043B 		ldr	r3, [r4], #4
 638              		.loc 1 151 0
 639 0014 1846     		mov	r0, r3
 640              		.loc 1 150 0
 641 0016 1BB1     		cbz	r3, .L13
 642              		.loc 1 151 0
 643 0018 FFF7FEFF 		bl	chThdWait
 644              	.LVL13:
 645              		.loc 1 152 0
 646 001c 44F8046C 		str	r6, [r4, #-4]
 647              	.L13:
 648              		.loc 1 149 0
 649 0020 AC42     		cmp	r4, r5
 650 0022 F5D1     		bne	.L15
 651              		.loc 1 154 0
 652 0024 70BD     		pop	{r4, r5, r6, pc}
 653              		.cfi_endproc
 654              	.LFE221:
 655              		.size	test_wait_threads, .-test_wait_threads
 656 0026 00BFAFF3 		.section	.text.test_wait_tick,"ax",%progbits
 656      0080AFF3 
 656      0080
 657              		.align	2
 658              		.p2align 4,,15
 659              		.global	test_wait_tick
 660              		.thumb
 661              		.thumb_func
 662              		.type	test_wait_tick, %function
 663              	test_wait_tick:
 664              	.LFB222:
 665              		.loc 1 159 0
 666              		.cfi_startproc
 667              		@ args = 0, pretend = 0, frame = 0
 668              		@ frame_needed = 0, uses_anonymous_args = 0
 669 0000 08B5     		push	{r3, lr}
 670              		.cfi_def_cfa_offset 8
 671              		.cfi_offset 3, -8
 672              		.cfi_offset 14, -4
 673              		.loc 1 161 0
 674 0002 0120     		movs	r0, #1
 675 0004 FFF7FEFF 		bl	chThdSleep
 676              	.LVL14:
 677              	.LBB50:
 678              	.LBB51:
 679              	.LBB52:
 680              	.LBB53:
ARM GAS  /tmp/ccJOLCOT.s 			page 43


 681              	.LBB54:
 682              	.LBB55:
 683              		.file 2 "../../../os/common/ext/CMSIS/include/cmsis_gcc.h"
 684              		.loc 2 264 0
 685 0008 2023     		movs	r3, #32
 686              	@ 264 "../../../os/common/ext/CMSIS/include/cmsis_gcc.h" 1
 687 000a 83F31188 		MSR basepri, r3
 688              	@ 0 "" 2
 689              		.thumb
 690              	.LBE55:
 691              	.LBE54:
 692              	.LBE53:
 693              	.LBE52:
 694              	.LBB56:
 695              	.LBB57:
 696              	.LBB58:
 697              	.LBB59:
 698              		.file 3 "../../../os/hal/ports/STM32/LLD/TIMv1/hal_st_lld.h"
 699              		.loc 3 141 0
 700 000e 4FF08043 		mov	r3, #1073741824
 701 0012 586A     		ldr	r0, [r3, #36]
 702              	.LVL15:
 703              	.LBE59:
 704              	.LBE58:
 705              	.LBE57:
 706              	.LBE56:
 707              	.LBB60:
 708              	.LBB61:
 709              	.LBB62:
 710              	.LBB63:
 711              	.LBB64:
 712              		.loc 2 264 0
 713 0014 0023     		movs	r3, #0
 714              	@ 264 "../../../os/common/ext/CMSIS/include/cmsis_gcc.h" 1
 715 0016 83F31188 		MSR basepri, r3
 716              	@ 0 "" 2
 717              		.thumb
 718              	.LBE64:
 719              	.LBE63:
 720              	.LBE62:
 721              	.LBE61:
 722              	.LBE60:
 723              	.LBE51:
 724              	.LBE50:
 725              		.loc 1 163 0
 726 001a 80B2     		uxth	r0, r0
 727 001c 08BD     		pop	{r3, pc}
 728              		.cfi_endproc
 729              	.LFE222:
 730              		.size	test_wait_tick, .-test_wait_tick
 731              		.global	wa
 732              		.global	threads
 733              		.global	test_buffer
 734              		.global	test_suite
 735 001e 00BF     		.section	.bss.test_buffer,"aw",%nobits
 736              		.align	3
 737              		.type	test_buffer, %object
ARM GAS  /tmp/ccJOLCOT.s 			page 44


 738              		.size	test_buffer, 1640
 739              	test_buffer:
 740 0000 00000000 		.space	1640
 740      00000000 
 740      00000000 
 740      00000000 
 740      00000000 
 741              		.section	.data.test_suite,"aw",%progbits
 742              		.align	2
 743              		.type	test_suite, %object
 744              		.size	test_suite, 56
 745              	test_suite:
 746 0000 00000000 		.word	test_sequence_001
 747 0004 00000000 		.word	test_sequence_002
 748 0008 00000000 		.word	test_sequence_003
 749 000c 00000000 		.word	test_sequence_004
 750 0010 00000000 		.word	test_sequence_005
 751 0014 00000000 		.word	test_sequence_006
 752 0018 00000000 		.word	test_sequence_007
 753 001c 00000000 		.word	test_sequence_008
 754 0020 00000000 		.word	test_sequence_009
 755 0024 00000000 		.word	test_sequence_010
 756 0028 00000000 		.word	test_sequence_011
 757 002c 00000000 		.word	test_sequence_012
 758 0030 00000000 		.word	test_sequence_013
 759 0034 00000000 		.word	0
 760              		.section	.rodata.wa,"a",%progbits
 761              		.align	2
 762              		.type	wa, %object
 763              		.size	wa, 20
 764              	wa:
 765 0000 00000000 		.word	test_buffer
 766 0004 48010000 		.word	test_buffer+328
 767 0008 90020000 		.word	test_buffer+656
 768 000c D8030000 		.word	test_buffer+984
 769 0010 20050000 		.word	test_buffer+1312
 770              		.section	.rodata.str1.4,"aMS",%progbits,1
 771              		.align	2
 772              	.LC0:
 773 0000 2A2A2A20 		.ascii	"*** Compiler:     \000"
 773      436F6D70 
 773      696C6572 
 773      3A202020 
 773      202000
 774 0013 00       		.space	1
 775              	.LC1:
 776 0014 47434320 		.ascii	"GCC 4.8.2\000"
 776      342E382E 
 776      3200
 777 001e 0000     		.space	2
 778              	.LC2:
 779 0020 2A2A2A20 		.ascii	"*** Architecture: \000"
 779      41726368 
 779      69746563 
 779      74757265 
 779      3A2000
 780 0033 00       		.space	1
ARM GAS  /tmp/ccJOLCOT.s 			page 45


 781              	.LC3:
 782 0034 41524D76 		.ascii	"ARMv7-M\000"
 782      372D4D00 
 783              	.LC4:
 784 003c 2A2A2A20 		.ascii	"*** Core Variant: \000"
 784      436F7265 
 784      20566172 
 784      69616E74 
 784      3A2000
 785 004f 00       		.space	1
 786              	.LC5:
 787 0050 436F7274 		.ascii	"Cortex-M3\000"
 787      65782D4D 
 787      3300
 788 005a 0000     		.space	2
 789              	.LC6:
 790 005c 2A2A2A20 		.ascii	"*** Port Info:    \000"
 790      506F7274 
 790      20496E66 
 790      6F3A2020 
 790      202000
 791 006f 00       		.space	1
 792              	.LC7:
 793 0070 41647661 		.ascii	"Advanced kernel mode\000"
 793      6E636564 
 793      206B6572 
 793      6E656C20 
 793      6D6F6465 
 794 0085 000000   		.section	.bss.threads,"aw",%nobits
 795              		.align	2
 796              		.set	.LANCHOR0,. + 0
 797              		.type	threads, %object
 798              		.size	threads, 20
 799              	threads:
 800 0000 00000000 		.space	20
 800      00000000 
 800      00000000 
 800      00000000 
 800      00000000 
 801              		.text
 802              	.Letext0:
 803              		.file 4 "/usr/lib/gcc/arm-none-eabi/4.8.2/include/stddef.h"
 804              		.file 5 "/usr/include/newlib/machine/_default_types.h"
 805              		.file 6 "/usr/include/newlib/stdint.h"
 806              		.file 7 "../../../os/common/ports/ARMCMx/compilers/GCC/chtypes.h"
 807              		.file 8 "../../../os/rt/include/chsystypes.h"
 808              		.file 9 "../../../os/rt/include/chschd.h"
 809              		.file 10 "../../../os/common/ports/ARMCMx/chcore.h"
 810              		.file 11 "../../../os/common/ports/ARMCMx/chcore_v7m.h"
 811              		.file 12 "../../../os/hal/ports/STM32/LLD/TIMv1/stm32_tim.h"
 812              		.file 13 "../../../os/rt/include/chsem.h"
 813              		.file 14 "../../../os/rt/include/chmtx.h"
 814              		.file 15 "../../../test/lib/ch_test.h"
 815              		.file 16 "../../../os/common/ports/ARMCMx/chcore_timer.h"
 816              		.file 17 "../../../os/rt/include/chsys.h"
 817              		.file 18 "../../../os/rt/include/chvt.h"
 818              		.file 19 "../../../os/common/ext/CMSIS/include/core_cm3.h"
ARM GAS  /tmp/ccJOLCOT.s 			page 46


 819              		.file 20 "../../../test/rt/source/test/test_sequence_001.h"
 820              		.file 21 "../../../test/rt/source/test/test_sequence_002.h"
 821              		.file 22 "../../../test/rt/source/test/test_sequence_003.h"
 822              		.file 23 "../../../test/rt/source/test/test_sequence_004.h"
 823              		.file 24 "../../../test/rt/source/test/test_sequence_005.h"
 824              		.file 25 "../../../test/rt/source/test/test_sequence_006.h"
 825              		.file 26 "../../../test/rt/source/test/test_sequence_007.h"
 826              		.file 27 "../../../test/rt/source/test/test_sequence_008.h"
 827              		.file 28 "../../../test/rt/source/test/test_sequence_009.h"
 828              		.file 29 "../../../test/rt/source/test/test_sequence_010.h"
 829              		.file 30 "../../../test/rt/source/test/test_sequence_011.h"
 830              		.file 31 "../../../test/rt/source/test/test_sequence_012.h"
 831              		.file 32 "../../../test/rt/source/test/test_sequence_013.h"
 832              		.file 33 "../../../os/rt/include/chthreads.h"
 833              		.section	.debug_info,"",%progbits
 834              	.Ldebug_info0:
 835 0000 320C0000 		.4byte	0xc32
 836 0004 0400     		.2byte	0x4
 837 0006 00000000 		.4byte	.Ldebug_abbrev0
 838 000a 04       		.byte	0x4
 839 000b 01       		.uleb128 0x1
 840 000c 94050000 		.4byte	.LASF137
 841 0010 01       		.byte	0x1
 842 0011 37060000 		.4byte	.LASF138
 843 0015 BB020000 		.4byte	.LASF139
 844 0019 00000000 		.4byte	.Ldebug_ranges0+0
 845 001d 00000000 		.4byte	0
 846 0021 00000000 		.4byte	.Ldebug_line0
 847 0025 02       		.uleb128 0x2
 848 0026 04       		.byte	0x4
 849 0027 05       		.byte	0x5
 850 0028 696E7400 		.ascii	"int\000"
 851 002c 03       		.uleb128 0x3
 852 002d 12000000 		.4byte	.LASF2
 853 0031 04       		.byte	0x4
 854 0032 D4       		.byte	0xd4
 855 0033 37000000 		.4byte	0x37
 856 0037 04       		.uleb128 0x4
 857 0038 04       		.byte	0x4
 858 0039 07       		.byte	0x7
 859 003a FB010000 		.4byte	.LASF0
 860 003e 04       		.uleb128 0x4
 861 003f 01       		.byte	0x1
 862 0040 06       		.byte	0x6
 863 0041 25010000 		.4byte	.LASF1
 864 0045 03       		.uleb128 0x3
 865 0046 73000000 		.4byte	.LASF3
 866 004a 05       		.byte	0x5
 867 004b 1C       		.byte	0x1c
 868 004c 50000000 		.4byte	0x50
 869 0050 04       		.uleb128 0x4
 870 0051 01       		.byte	0x1
 871 0052 08       		.byte	0x8
 872 0053 E9030000 		.4byte	.LASF4
 873 0057 04       		.uleb128 0x4
 874 0058 02       		.byte	0x2
 875 0059 05       		.byte	0x5
ARM GAS  /tmp/ccJOLCOT.s 			page 47


 876 005a FF030000 		.4byte	.LASF5
 877 005e 03       		.uleb128 0x3
 878 005f BA040000 		.4byte	.LASF6
 879 0063 05       		.byte	0x5
 880 0064 26       		.byte	0x26
 881 0065 69000000 		.4byte	0x69
 882 0069 04       		.uleb128 0x4
 883 006a 02       		.byte	0x2
 884 006b 07       		.byte	0x7
 885 006c 09050000 		.4byte	.LASF7
 886 0070 03       		.uleb128 0x3
 887 0071 87020000 		.4byte	.LASF8
 888 0075 05       		.byte	0x5
 889 0076 37       		.byte	0x37
 890 0077 7B000000 		.4byte	0x7b
 891 007b 04       		.uleb128 0x4
 892 007c 04       		.byte	0x4
 893 007d 05       		.byte	0x5
 894 007e 60010000 		.4byte	.LASF9
 895 0082 03       		.uleb128 0x3
 896 0083 A8010000 		.4byte	.LASF10
 897 0087 05       		.byte	0x5
 898 0088 38       		.byte	0x38
 899 0089 8D000000 		.4byte	0x8d
 900 008d 04       		.uleb128 0x4
 901 008e 04       		.byte	0x4
 902 008f 07       		.byte	0x7
 903 0090 9C040000 		.4byte	.LASF11
 904 0094 04       		.uleb128 0x4
 905 0095 08       		.byte	0x8
 906 0096 05       		.byte	0x5
 907 0097 7C010000 		.4byte	.LASF12
 908 009b 03       		.uleb128 0x3
 909 009c 86030000 		.4byte	.LASF13
 910 00a0 05       		.byte	0x5
 911 00a1 4E       		.byte	0x4e
 912 00a2 A6000000 		.4byte	0xa6
 913 00a6 04       		.uleb128 0x4
 914 00a7 08       		.byte	0x8
 915 00a8 07       		.byte	0x7
 916 00a9 A7000000 		.4byte	.LASF14
 917 00ad 03       		.uleb128 0x3
 918 00ae 86050000 		.4byte	.LASF15
 919 00b2 06       		.byte	0x6
 920 00b3 2A       		.byte	0x2a
 921 00b4 45000000 		.4byte	0x45
 922 00b8 03       		.uleb128 0x3
 923 00b9 8A010000 		.4byte	.LASF16
 924 00bd 06       		.byte	0x6
 925 00be 36       		.byte	0x36
 926 00bf 5E000000 		.4byte	0x5e
 927 00c3 03       		.uleb128 0x3
 928 00c4 E1030000 		.4byte	.LASF17
 929 00c8 06       		.byte	0x6
 930 00c9 41       		.byte	0x41
 931 00ca 70000000 		.4byte	0x70
 932 00ce 03       		.uleb128 0x3
ARM GAS  /tmp/ccJOLCOT.s 			page 48


 933 00cf 76040000 		.4byte	.LASF18
 934 00d3 06       		.byte	0x6
 935 00d4 42       		.byte	0x42
 936 00d5 82000000 		.4byte	0x82
 937 00d9 03       		.uleb128 0x3
 938 00da 39030000 		.4byte	.LASF19
 939 00de 06       		.byte	0x6
 940 00df 4E       		.byte	0x4e
 941 00e0 9B000000 		.4byte	0x9b
 942 00e4 03       		.uleb128 0x3
 943 00e5 06070000 		.4byte	.LASF20
 944 00e9 07       		.byte	0x7
 945 00ea 3C       		.byte	0x3c
 946 00eb AD000000 		.4byte	0xad
 947 00ef 03       		.uleb128 0x3
 948 00f0 69010000 		.4byte	.LASF21
 949 00f4 07       		.byte	0x7
 950 00f5 3D       		.byte	0x3d
 951 00f6 AD000000 		.4byte	0xad
 952 00fa 03       		.uleb128 0x3
 953 00fb 91030000 		.4byte	.LASF22
 954 00ff 07       		.byte	0x7
 955 0100 3E       		.byte	0x3e
 956 0101 AD000000 		.4byte	0xad
 957 0105 03       		.uleb128 0x3
 958 0106 C5030000 		.4byte	.LASF23
 959 010a 07       		.byte	0x7
 960 010b 40       		.byte	0x40
 961 010c CE000000 		.4byte	0xce
 962 0110 03       		.uleb128 0x3
 963 0111 3E020000 		.4byte	.LASF24
 964 0115 07       		.byte	0x7
 965 0116 41       		.byte	0x41
 966 0117 C3000000 		.4byte	0xc3
 967 011b 03       		.uleb128 0x3
 968 011c 7B020000 		.4byte	.LASF25
 969 0120 07       		.byte	0x7
 970 0121 43       		.byte	0x43
 971 0122 CE000000 		.4byte	0xce
 972 0126 03       		.uleb128 0x3
 973 0127 E2010000 		.4byte	.LASF26
 974 012b 07       		.byte	0x7
 975 012c 45       		.byte	0x45
 976 012d C3000000 		.4byte	0xc3
 977 0131 03       		.uleb128 0x3
 978 0132 DE040000 		.4byte	.LASF27
 979 0136 08       		.byte	0x8
 980 0137 35       		.byte	0x35
 981 0138 B8000000 		.4byte	0xb8
 982 013c 03       		.uleb128 0x3
 983 013d CA040000 		.4byte	.LASF28
 984 0141 08       		.byte	0x8
 985 0142 3F       		.byte	0x3f
 986 0143 47010000 		.4byte	0x147
 987 0147 05       		.uleb128 0x5
 988 0148 34020000 		.4byte	.LASF46
 989 014c 44       		.byte	0x44
ARM GAS  /tmp/ccJOLCOT.s 			page 49


 990 014d 09       		.byte	0x9
 991 014e 9A       		.byte	0x9a
 992 014f 25020000 		.4byte	0x225
 993 0153 06       		.uleb128 0x6
 994 0154 23020000 		.4byte	.LASF29
 995 0158 09       		.byte	0x9
 996 0159 9B       		.byte	0x9b
 997 015a 5A020000 		.4byte	0x25a
 998 015e 00       		.byte	0
 999 015f 06       		.uleb128 0x6
 1000 0160 79030000 		.4byte	.LASF30
 1001 0164 09       		.byte	0x9
 1002 0165 9C       		.byte	0x9c
 1003 0166 05010000 		.4byte	0x105
 1004 016a 08       		.byte	0x8
 1005 016b 07       		.uleb128 0x7
 1006 016c 63747800 		.ascii	"ctx\000"
 1007 0170 09       		.byte	0x9
 1008 0171 9D       		.byte	0x9d
 1009 0172 6B040000 		.4byte	0x46b
 1010 0176 0C       		.byte	0xc
 1011 0177 06       		.uleb128 0x6
 1012 0178 30050000 		.4byte	.LASF31
 1013 017c 09       		.byte	0x9
 1014 017d 9F       		.byte	0x9f
 1015 017e 30020000 		.4byte	0x230
 1016 0182 10       		.byte	0x10
 1017 0183 06       		.uleb128 0x6
 1018 0184 A2010000 		.4byte	.LASF32
 1019 0188 09       		.byte	0x9
 1020 0189 A0       		.byte	0xa0
 1021 018a 30020000 		.4byte	0x230
 1022 018e 14       		.byte	0x14
 1023 018f 06       		.uleb128 0x6
 1024 0190 1E020000 		.4byte	.LASF33
 1025 0194 09       		.byte	0x9
 1026 0195 A7       		.byte	0xa7
 1027 0196 F2060000 		.4byte	0x6f2
 1028 019a 18       		.byte	0x18
 1029 019b 06       		.uleb128 0x6
 1030 019c AE040000 		.4byte	.LASF34
 1031 01a0 09       		.byte	0x9
 1032 01a1 B0       		.byte	0xb0
 1033 01a2 04070000 		.4byte	0x704
 1034 01a6 1C       		.byte	0x1c
 1035 01a7 06       		.uleb128 0x6
 1036 01a8 5A010000 		.4byte	.LASF35
 1037 01ac 09       		.byte	0x9
 1038 01ad B5       		.byte	0xb5
 1039 01ae EF000000 		.4byte	0xef
 1040 01b2 20       		.byte	0x20
 1041 01b3 06       		.uleb128 0x6
 1042 01b4 8E050000 		.4byte	.LASF36
 1043 01b8 09       		.byte	0x9
 1044 01b9 B9       		.byte	0xb9
 1045 01ba E4000000 		.4byte	0xe4
 1046 01be 21       		.byte	0x21
ARM GAS  /tmp/ccJOLCOT.s 			page 50


 1047 01bf 06       		.uleb128 0x6
 1048 01c0 B0030000 		.4byte	.LASF37
 1049 01c4 09       		.byte	0x9
 1050 01c5 BE       		.byte	0xbe
 1051 01c6 FA000000 		.4byte	0xfa
 1052 01ca 22       		.byte	0x22
 1053 01cb 08       		.uleb128 0x8
 1054 01cc 7500     		.ascii	"u\000"
 1055 01ce 09       		.byte	0x9
 1056 01cf 0F01     		.2byte	0x10f
 1057 01d1 27060000 		.4byte	0x627
 1058 01d5 24       		.byte	0x24
 1059 01d6 09       		.uleb128 0x9
 1060 01d7 CC010000 		.4byte	.LASF38
 1061 01db 09       		.byte	0x9
 1062 01dc 1401     		.2byte	0x114
 1063 01de 36020000 		.4byte	0x236
 1064 01e2 28       		.byte	0x28
 1065 01e3 09       		.uleb128 0x9
 1066 01e4 51010000 		.4byte	.LASF39
 1067 01e8 09       		.byte	0x9
 1068 01e9 1A01     		.2byte	0x11a
 1069 01eb 5A020000 		.4byte	0x25a
 1070 01ef 2C       		.byte	0x2c
 1071 01f0 09       		.uleb128 0x9
 1072 01f1 44020000 		.4byte	.LASF40
 1073 01f5 09       		.byte	0x9
 1074 01f6 2001     		.2byte	0x120
 1075 01f8 1B010000 		.4byte	0x11b
 1076 01fc 34       		.byte	0x34
 1077 01fd 09       		.uleb128 0x9
 1078 01fe 1A070000 		.4byte	.LASF41
 1079 0202 09       		.byte	0x9
 1080 0203 2701     		.2byte	0x127
 1081 0205 EC060000 		.4byte	0x6ec
 1082 0209 38       		.byte	0x38
 1083 020a 09       		.uleb128 0x9
 1084 020b B2020000 		.4byte	.LASF42
 1085 020f 09       		.byte	0x9
 1086 0210 2B01     		.2byte	0x12b
 1087 0212 05010000 		.4byte	0x105
 1088 0216 3C       		.byte	0x3c
 1089 0217 09       		.uleb128 0x9
 1090 0218 29020000 		.4byte	.LASF43
 1091 021c 09       		.byte	0x9
 1092 021d 3201     		.2byte	0x132
 1093 021f 0D030000 		.4byte	0x30d
 1094 0223 40       		.byte	0x40
 1095 0224 00       		.byte	0
 1096 0225 03       		.uleb128 0x3
 1097 0226 03030000 		.4byte	.LASF44
 1098 022a 08       		.byte	0x8
 1099 022b 44       		.byte	0x44
 1100 022c 30020000 		.4byte	0x230
 1101 0230 0A       		.uleb128 0xa
 1102 0231 04       		.byte	0x4
 1103 0232 3C010000 		.4byte	0x13c
ARM GAS  /tmp/ccJOLCOT.s 			page 51


 1104 0236 03       		.uleb128 0x3
 1105 0237 F7060000 		.4byte	.LASF45
 1106 023b 08       		.byte	0x8
 1107 023c 49       		.byte	0x49
 1108 023d 41020000 		.4byte	0x241
 1109 0241 05       		.uleb128 0x5
 1110 0242 86040000 		.4byte	.LASF47
 1111 0246 04       		.byte	0x4
 1112 0247 09       		.byte	0x9
 1113 0248 88       		.byte	0x88
 1114 0249 5A020000 		.4byte	0x25a
 1115 024d 06       		.uleb128 0x6
 1116 024e 19000000 		.4byte	.LASF48
 1117 0252 09       		.byte	0x9
 1118 0253 89       		.byte	0x89
 1119 0254 30020000 		.4byte	0x230
 1120 0258 00       		.byte	0
 1121 0259 00       		.byte	0
 1122 025a 03       		.uleb128 0x3
 1123 025b 55050000 		.4byte	.LASF49
 1124 025f 08       		.byte	0x8
 1125 0260 50       		.byte	0x50
 1126 0261 65020000 		.4byte	0x265
 1127 0265 05       		.uleb128 0x5
 1128 0266 02010000 		.4byte	.LASF50
 1129 026a 08       		.byte	0x8
 1130 026b 09       		.byte	0x9
 1131 026c 8F       		.byte	0x8f
 1132 026d 8A020000 		.4byte	0x28a
 1133 0271 06       		.uleb128 0x6
 1134 0272 19000000 		.4byte	.LASF48
 1135 0276 09       		.byte	0x9
 1136 0277 90       		.byte	0x90
 1137 0278 30020000 		.4byte	0x230
 1138 027c 00       		.byte	0
 1139 027d 06       		.uleb128 0x6
 1140 027e 7D000000 		.4byte	.LASF51
 1141 0282 09       		.byte	0x9
 1142 0283 91       		.byte	0x91
 1143 0284 30020000 		.4byte	0x230
 1144 0288 04       		.byte	0x4
 1145 0289 00       		.byte	0
 1146 028a 03       		.uleb128 0x3
 1147 028b 00000000 		.4byte	.LASF52
 1148 028f 08       		.byte	0x8
 1149 0290 57       		.byte	0x57
 1150 0291 95020000 		.4byte	0x295
 1151 0295 0B       		.uleb128 0xb
 1152 0296 6D020000 		.4byte	.LASF53
 1153 029a 1C       		.byte	0x1c
 1154 029b 09       		.byte	0x9
 1155 029c 6A01     		.2byte	0x16a
 1156 029e F1020000 		.4byte	0x2f1
 1157 02a2 09       		.uleb128 0x9
 1158 02a3 23020000 		.4byte	.LASF29
 1159 02a7 09       		.byte	0x9
 1160 02a8 6B01     		.2byte	0x16b
ARM GAS  /tmp/ccJOLCOT.s 			page 52


 1161 02aa 5A020000 		.4byte	0x25a
 1162 02ae 00       		.byte	0
 1163 02af 09       		.uleb128 0x9
 1164 02b0 79030000 		.4byte	.LASF30
 1165 02b4 09       		.byte	0x9
 1166 02b5 6C01     		.2byte	0x16c
 1167 02b7 05010000 		.4byte	0x105
 1168 02bb 08       		.byte	0x8
 1169 02bc 08       		.uleb128 0x8
 1170 02bd 63747800 		.ascii	"ctx\000"
 1171 02c1 09       		.byte	0x9
 1172 02c2 6E01     		.2byte	0x16e
 1173 02c4 6B040000 		.4byte	0x46b
 1174 02c8 0C       		.byte	0xc
 1175 02c9 09       		.uleb128 0x9
 1176 02ca 30050000 		.4byte	.LASF31
 1177 02ce 09       		.byte	0x9
 1178 02cf 7101     		.2byte	0x171
 1179 02d1 30020000 		.4byte	0x230
 1180 02d5 10       		.byte	0x10
 1181 02d6 09       		.uleb128 0x9
 1182 02d7 A2010000 		.4byte	.LASF32
 1183 02db 09       		.byte	0x9
 1184 02dc 7201     		.2byte	0x172
 1185 02de 30020000 		.4byte	0x230
 1186 02e2 14       		.byte	0x14
 1187 02e3 09       		.uleb128 0x9
 1188 02e4 7E030000 		.4byte	.LASF54
 1189 02e8 09       		.byte	0x9
 1190 02e9 7501     		.2byte	0x175
 1191 02eb 30020000 		.4byte	0x230
 1192 02ef 18       		.byte	0x18
 1193 02f0 00       		.byte	0
 1194 02f1 03       		.uleb128 0x3
 1195 02f2 E8040000 		.4byte	.LASF55
 1196 02f6 08       		.byte	0x8
 1197 02f7 5C       		.byte	0x5c
 1198 02f8 FC020000 		.4byte	0x2fc
 1199 02fc 0A       		.uleb128 0xa
 1200 02fd 04       		.byte	0x4
 1201 02fe 02030000 		.4byte	0x302
 1202 0302 0C       		.uleb128 0xc
 1203 0303 0D030000 		.4byte	0x30d
 1204 0307 0D       		.uleb128 0xd
 1205 0308 0D030000 		.4byte	0x30d
 1206 030c 00       		.byte	0
 1207 030d 0E       		.uleb128 0xe
 1208 030e 04       		.byte	0x4
 1209 030f 03       		.uleb128 0x3
 1210 0310 B5030000 		.4byte	.LASF56
 1211 0314 08       		.byte	0x8
 1212 0315 61       		.byte	0x61
 1213 0316 1A030000 		.4byte	0x31a
 1214 031a 0B       		.uleb128 0xb
 1215 031b 35040000 		.4byte	.LASF57
 1216 031f 14       		.byte	0x14
 1217 0320 09       		.byte	0x9
ARM GAS  /tmp/ccJOLCOT.s 			page 53


 1218 0321 4501     		.2byte	0x145
 1219 0323 69030000 		.4byte	0x369
 1220 0327 09       		.uleb128 0x9
 1221 0328 19000000 		.4byte	.LASF48
 1222 032c 09       		.byte	0x9
 1223 032d 4601     		.2byte	0x146
 1224 032f 0A070000 		.4byte	0x70a
 1225 0333 00       		.byte	0
 1226 0334 09       		.uleb128 0x9
 1227 0335 7D000000 		.4byte	.LASF51
 1228 0339 09       		.byte	0x9
 1229 033a 4701     		.2byte	0x147
 1230 033c 0A070000 		.4byte	0x70a
 1231 0340 04       		.byte	0x4
 1232 0341 09       		.uleb128 0x9
 1233 0342 1E000000 		.4byte	.LASF58
 1234 0346 09       		.byte	0x9
 1235 0347 4801     		.2byte	0x148
 1236 0349 31010000 		.4byte	0x131
 1237 034d 08       		.byte	0x8
 1238 034e 09       		.uleb128 0x9
 1239 034f 72010000 		.4byte	.LASF59
 1240 0353 09       		.byte	0x9
 1241 0354 4901     		.2byte	0x149
 1242 0356 F1020000 		.4byte	0x2f1
 1243 035a 0C       		.byte	0xc
 1244 035b 08       		.uleb128 0x8
 1245 035c 70617200 		.ascii	"par\000"
 1246 0360 09       		.byte	0x9
 1247 0361 4B01     		.2byte	0x14b
 1248 0363 0D030000 		.4byte	0x30d
 1249 0367 10       		.byte	0x10
 1250 0368 00       		.byte	0
 1251 0369 03       		.uleb128 0x3
 1252 036a DA000000 		.4byte	.LASF60
 1253 036e 08       		.byte	0x8
 1254 036f 66       		.byte	0x66
 1255 0370 74030000 		.4byte	0x374
 1256 0374 0B       		.uleb128 0xb
 1257 0375 16030000 		.4byte	.LASF61
 1258 0379 0C       		.byte	0xc
 1259 037a 09       		.byte	0x9
 1260 037b 5501     		.2byte	0x155
 1261 037d B6030000 		.4byte	0x3b6
 1262 0381 09       		.uleb128 0x9
 1263 0382 19000000 		.4byte	.LASF48
 1264 0386 09       		.byte	0x9
 1265 0387 5601     		.2byte	0x156
 1266 0389 0A070000 		.4byte	0x70a
 1267 038d 00       		.byte	0
 1268 038e 09       		.uleb128 0x9
 1269 038f 7D000000 		.4byte	.LASF51
 1270 0393 09       		.byte	0x9
 1271 0394 5801     		.2byte	0x158
 1272 0396 0A070000 		.4byte	0x70a
 1273 039a 04       		.byte	0x4
 1274 039b 09       		.uleb128 0x9
ARM GAS  /tmp/ccJOLCOT.s 			page 54


 1275 039c 1E000000 		.4byte	.LASF58
 1276 03a0 09       		.byte	0x9
 1277 03a1 5A01     		.2byte	0x15a
 1278 03a3 31010000 		.4byte	0x131
 1279 03a7 08       		.byte	0x8
 1280 03a8 09       		.uleb128 0x9
 1281 03a9 09040000 		.4byte	.LASF62
 1282 03ad 09       		.byte	0x9
 1283 03ae 6201     		.2byte	0x162
 1284 03b0 31010000 		.4byte	0x131
 1285 03b4 0A       		.byte	0xa
 1286 03b5 00       		.byte	0
 1287 03b6 03       		.uleb128 0x3
 1288 03b7 8E000000 		.4byte	.LASF63
 1289 03bb 08       		.byte	0x8
 1290 03bc 6B       		.byte	0x6b
 1291 03bd C1030000 		.4byte	0x3c1
 1292 03c1 0B       		.uleb128 0xb
 1293 03c2 BC010000 		.4byte	.LASF64
 1294 03c6 04       		.byte	0x4
 1295 03c7 09       		.byte	0x9
 1296 03c8 7C01     		.2byte	0x17c
 1297 03ca DC030000 		.4byte	0x3dc
 1298 03ce 09       		.uleb128 0x9
 1299 03cf FF040000 		.4byte	.LASF65
 1300 03d3 09       		.byte	0x9
 1301 03d4 8401     		.2byte	0x184
 1302 03d6 10070000 		.4byte	0x710
 1303 03da 00       		.byte	0
 1304 03db 00       		.byte	0
 1305 03dc 03       		.uleb128 0x3
 1306 03dd 4D020000 		.4byte	.LASF66
 1307 03e1 08       		.byte	0x8
 1308 03e2 70       		.byte	0x70
 1309 03e3 E7030000 		.4byte	0x3e7
 1310 03e7 0B       		.uleb128 0xb
 1311 03e8 21040000 		.4byte	.LASF67
 1312 03ec 70       		.byte	0x70
 1313 03ed 09       		.byte	0x9
 1314 03ee 9C01     		.2byte	0x19c
 1315 03f0 29040000 		.4byte	0x429
 1316 03f4 09       		.uleb128 0x9
 1317 03f5 80050000 		.4byte	.LASF68
 1318 03f9 09       		.byte	0x9
 1319 03fa A001     		.2byte	0x1a0
 1320 03fc 8A020000 		.4byte	0x28a
 1321 0400 00       		.byte	0
 1322 0401 09       		.uleb128 0x9
 1323 0402 3E010000 		.4byte	.LASF69
 1324 0406 09       		.byte	0x9
 1325 0407 A401     		.2byte	0x1a4
 1326 0409 69030000 		.4byte	0x369
 1327 040d 1C       		.byte	0x1c
 1328 040e 08       		.uleb128 0x8
 1329 040f 64626700 		.ascii	"dbg\000"
 1330 0413 09       		.byte	0x9
 1331 0414 A801     		.2byte	0x1a8
ARM GAS  /tmp/ccJOLCOT.s 			page 55


 1332 0416 B6030000 		.4byte	0x3b6
 1333 041a 28       		.byte	0x28
 1334 041b 09       		.uleb128 0x9
 1335 041c C7000000 		.4byte	.LASF70
 1336 0420 09       		.byte	0x9
 1337 0421 AC01     		.2byte	0x1ac
 1338 0423 3C010000 		.4byte	0x13c
 1339 0427 2C       		.byte	0x2c
 1340 0428 00       		.byte	0
 1341 0429 04       		.uleb128 0x4
 1342 042a 04       		.byte	0x4
 1343 042b 07       		.byte	0x7
 1344 042c FA020000 		.4byte	.LASF71
 1345 0430 0F       		.uleb128 0xf
 1346 0431 CE000000 		.4byte	0xce
 1347 0435 10       		.uleb128 0x10
 1348 0436 CE000000 		.4byte	0xce
 1349 043a 45040000 		.4byte	0x445
 1350 043e 11       		.uleb128 0x11
 1351 043f 29040000 		.4byte	0x429
 1352 0443 01       		.byte	0x1
 1353 0444 00       		.byte	0
 1354 0445 10       		.uleb128 0x10
 1355 0446 CE000000 		.4byte	0xce
 1356 044a 55040000 		.4byte	0x455
 1357 044e 11       		.uleb128 0x11
 1358 044f 29040000 		.4byte	0x429
 1359 0453 03       		.byte	0x3
 1360 0454 00       		.byte	0
 1361 0455 03       		.uleb128 0x3
 1362 0456 B3010000 		.4byte	.LASF72
 1363 045a 0A       		.byte	0xa
 1364 045b 65       		.byte	0x65
 1365 045c 0D030000 		.4byte	0x30d
 1366 0460 03       		.uleb128 0x3
 1367 0461 91020000 		.4byte	.LASF73
 1368 0465 0A       		.byte	0xa
 1369 0466 6D       		.byte	0x6d
 1370 0467 D9000000 		.4byte	0xd9
 1371 046b 05       		.uleb128 0x5
 1372 046c 54030000 		.4byte	.LASF74
 1373 0470 04       		.byte	0x4
 1374 0471 0A       		.byte	0xa
 1375 0472 89       		.byte	0x89
 1376 0473 83040000 		.4byte	0x483
 1377 0477 07       		.uleb128 0x7
 1378 0478 737000   		.ascii	"sp\000"
 1379 047b 0A       		.byte	0xa
 1380 047c 8A       		.byte	0x8a
 1381 047d FF040000 		.4byte	0x4ff
 1382 0481 00       		.byte	0
 1383 0482 00       		.byte	0
 1384 0483 0B       		.uleb128 0xb
 1385 0484 82000000 		.4byte	.LASF75
 1386 0488 24       		.byte	0x24
 1387 0489 0B       		.byte	0xb
 1388 048a 5901     		.2byte	0x159
ARM GAS  /tmp/ccJOLCOT.s 			page 56


 1389 048c FF040000 		.4byte	0x4ff
 1390 0490 08       		.uleb128 0x8
 1391 0491 723400   		.ascii	"r4\000"
 1392 0494 0B       		.byte	0xb
 1393 0495 6C01     		.2byte	0x16c
 1394 0497 55040000 		.4byte	0x455
 1395 049b 00       		.byte	0
 1396 049c 08       		.uleb128 0x8
 1397 049d 723500   		.ascii	"r5\000"
 1398 04a0 0B       		.byte	0xb
 1399 04a1 6D01     		.2byte	0x16d
 1400 04a3 55040000 		.4byte	0x455
 1401 04a7 04       		.byte	0x4
 1402 04a8 08       		.uleb128 0x8
 1403 04a9 723600   		.ascii	"r6\000"
 1404 04ac 0B       		.byte	0xb
 1405 04ad 6E01     		.2byte	0x16e
 1406 04af 55040000 		.4byte	0x455
 1407 04b3 08       		.byte	0x8
 1408 04b4 08       		.uleb128 0x8
 1409 04b5 723700   		.ascii	"r7\000"
 1410 04b8 0B       		.byte	0xb
 1411 04b9 6F01     		.2byte	0x16f
 1412 04bb 55040000 		.4byte	0x455
 1413 04bf 0C       		.byte	0xc
 1414 04c0 08       		.uleb128 0x8
 1415 04c1 723800   		.ascii	"r8\000"
 1416 04c4 0B       		.byte	0xb
 1417 04c5 7001     		.2byte	0x170
 1418 04c7 55040000 		.4byte	0x455
 1419 04cb 10       		.byte	0x10
 1420 04cc 08       		.uleb128 0x8
 1421 04cd 723900   		.ascii	"r9\000"
 1422 04d0 0B       		.byte	0xb
 1423 04d1 7101     		.2byte	0x171
 1424 04d3 55040000 		.4byte	0x455
 1425 04d7 14       		.byte	0x14
 1426 04d8 08       		.uleb128 0x8
 1427 04d9 72313000 		.ascii	"r10\000"
 1428 04dd 0B       		.byte	0xb
 1429 04de 7201     		.2byte	0x172
 1430 04e0 55040000 		.4byte	0x455
 1431 04e4 18       		.byte	0x18
 1432 04e5 08       		.uleb128 0x8
 1433 04e6 72313100 		.ascii	"r11\000"
 1434 04ea 0B       		.byte	0xb
 1435 04eb 7301     		.2byte	0x173
 1436 04ed 55040000 		.4byte	0x455
 1437 04f1 1C       		.byte	0x1c
 1438 04f2 08       		.uleb128 0x8
 1439 04f3 6C7200   		.ascii	"lr\000"
 1440 04f6 0B       		.byte	0xb
 1441 04f7 7401     		.2byte	0x174
 1442 04f9 55040000 		.4byte	0x455
 1443 04fd 20       		.byte	0x20
 1444 04fe 00       		.byte	0
 1445 04ff 0A       		.uleb128 0xa
ARM GAS  /tmp/ccJOLCOT.s 			page 57


 1446 0500 04       		.byte	0x4
 1447 0501 83040000 		.4byte	0x483
 1448 0505 12       		.uleb128 0x12
 1449 0506 60       		.byte	0x60
 1450 0507 0C       		.byte	0xc
 1451 0508 A101     		.2byte	0x1a1
 1452 050a 11060000 		.4byte	0x611
 1453 050e 08       		.uleb128 0x8
 1454 050f 43523100 		.ascii	"CR1\000"
 1455 0513 0C       		.byte	0xc
 1456 0514 A201     		.2byte	0x1a2
 1457 0516 30040000 		.4byte	0x430
 1458 051a 00       		.byte	0
 1459 051b 08       		.uleb128 0x8
 1460 051c 43523200 		.ascii	"CR2\000"
 1461 0520 0C       		.byte	0xc
 1462 0521 A301     		.2byte	0x1a3
 1463 0523 30040000 		.4byte	0x430
 1464 0527 04       		.byte	0x4
 1465 0528 09       		.uleb128 0x9
 1466 0529 2F020000 		.4byte	.LASF76
 1467 052d 0C       		.byte	0xc
 1468 052e A401     		.2byte	0x1a4
 1469 0530 30040000 		.4byte	0x430
 1470 0534 08       		.byte	0x8
 1471 0535 09       		.uleb128 0x9
 1472 0536 0D000000 		.4byte	.LASF77
 1473 053a 0C       		.byte	0xc
 1474 053b A501     		.2byte	0x1a5
 1475 053d 30040000 		.4byte	0x430
 1476 0541 0C       		.byte	0xc
 1477 0542 08       		.uleb128 0x8
 1478 0543 535200   		.ascii	"SR\000"
 1479 0546 0C       		.byte	0xc
 1480 0547 A601     		.2byte	0x1a6
 1481 0549 30040000 		.4byte	0x430
 1482 054d 10       		.byte	0x10
 1483 054e 08       		.uleb128 0x8
 1484 054f 45475200 		.ascii	"EGR\000"
 1485 0553 0C       		.byte	0xc
 1486 0554 A701     		.2byte	0x1a7
 1487 0556 30040000 		.4byte	0x430
 1488 055a 14       		.byte	0x14
 1489 055b 09       		.uleb128 0x9
 1490 055c 13010000 		.4byte	.LASF78
 1491 0560 0C       		.byte	0xc
 1492 0561 A801     		.2byte	0x1a8
 1493 0563 30040000 		.4byte	0x430
 1494 0567 18       		.byte	0x18
 1495 0568 09       		.uleb128 0x9
 1496 0569 19010000 		.4byte	.LASF79
 1497 056d 0C       		.byte	0xc
 1498 056e A901     		.2byte	0x1a9
 1499 0570 30040000 		.4byte	0x430
 1500 0574 1C       		.byte	0x1c
 1501 0575 09       		.uleb128 0x9
 1502 0576 77010000 		.4byte	.LASF80
ARM GAS  /tmp/ccJOLCOT.s 			page 58


 1503 057a 0C       		.byte	0xc
 1504 057b AA01     		.2byte	0x1aa
 1505 057d 30040000 		.4byte	0x430
 1506 0581 20       		.byte	0x20
 1507 0582 08       		.uleb128 0x8
 1508 0583 434E5400 		.ascii	"CNT\000"
 1509 0587 0C       		.byte	0xc
 1510 0588 AB01     		.2byte	0x1ab
 1511 058a 30040000 		.4byte	0x430
 1512 058e 24       		.byte	0x24
 1513 058f 08       		.uleb128 0x8
 1514 0590 50534300 		.ascii	"PSC\000"
 1515 0594 0C       		.byte	0xc
 1516 0595 AC01     		.2byte	0x1ac
 1517 0597 30040000 		.4byte	0x430
 1518 059b 28       		.byte	0x28
 1519 059c 08       		.uleb128 0x8
 1520 059d 41525200 		.ascii	"ARR\000"
 1521 05a1 0C       		.byte	0xc
 1522 05a2 AD01     		.2byte	0x1ad
 1523 05a4 30040000 		.4byte	0x430
 1524 05a8 2C       		.byte	0x2c
 1525 05a9 08       		.uleb128 0x8
 1526 05aa 52435200 		.ascii	"RCR\000"
 1527 05ae 0C       		.byte	0xc
 1528 05af AE01     		.2byte	0x1ae
 1529 05b1 30040000 		.4byte	0x430
 1530 05b5 30       		.byte	0x30
 1531 05b6 08       		.uleb128 0x8
 1532 05b7 43435200 		.ascii	"CCR\000"
 1533 05bb 0C       		.byte	0xc
 1534 05bc AF01     		.2byte	0x1af
 1535 05be 11060000 		.4byte	0x611
 1536 05c2 34       		.byte	0x34
 1537 05c3 09       		.uleb128 0x9
 1538 05c4 FD000000 		.4byte	.LASF81
 1539 05c8 0C       		.byte	0xc
 1540 05c9 B001     		.2byte	0x1b0
 1541 05cb 30040000 		.4byte	0x430
 1542 05cf 44       		.byte	0x44
 1543 05d0 08       		.uleb128 0x8
 1544 05d1 44435200 		.ascii	"DCR\000"
 1545 05d5 0C       		.byte	0xc
 1546 05d6 B101     		.2byte	0x1b1
 1547 05d8 30040000 		.4byte	0x430
 1548 05dc 48       		.byte	0x48
 1549 05dd 09       		.uleb128 0x9
 1550 05de C5040000 		.4byte	.LASF82
 1551 05e2 0C       		.byte	0xc
 1552 05e3 B201     		.2byte	0x1b2
 1553 05e5 30040000 		.4byte	0x430
 1554 05e9 4C       		.byte	0x4c
 1555 05ea 08       		.uleb128 0x8
 1556 05eb 4F5200   		.ascii	"OR\000"
 1557 05ee 0C       		.byte	0xc
 1558 05ef B301     		.2byte	0x1b3
 1559 05f1 30040000 		.4byte	0x430
ARM GAS  /tmp/ccJOLCOT.s 			page 59


 1560 05f5 50       		.byte	0x50
 1561 05f6 09       		.uleb128 0x9
 1562 05f7 1F010000 		.4byte	.LASF83
 1563 05fb 0C       		.byte	0xc
 1564 05fc B401     		.2byte	0x1b4
 1565 05fe 30040000 		.4byte	0x430
 1566 0602 54       		.byte	0x54
 1567 0603 09       		.uleb128 0x9
 1568 0604 53040000 		.4byte	.LASF84
 1569 0608 0C       		.byte	0xc
 1570 0609 B501     		.2byte	0x1b5
 1571 060b 16060000 		.4byte	0x616
 1572 060f 58       		.byte	0x58
 1573 0610 00       		.byte	0
 1574 0611 0F       		.uleb128 0xf
 1575 0612 45040000 		.4byte	0x445
 1576 0616 0F       		.uleb128 0xf
 1577 0617 35040000 		.4byte	0x435
 1578 061b 13       		.uleb128 0x13
 1579 061c 59020000 		.4byte	.LASF85
 1580 0620 0C       		.byte	0xc
 1581 0621 B601     		.2byte	0x1b6
 1582 0623 05050000 		.4byte	0x505
 1583 0627 14       		.uleb128 0x14
 1584 0628 04       		.byte	0x4
 1585 0629 09       		.byte	0x9
 1586 062a D2       		.byte	0xd2
 1587 062b 8A060000 		.4byte	0x68a
 1588 062f 15       		.uleb128 0x15
 1589 0630 24000000 		.4byte	.LASF86
 1590 0634 09       		.byte	0x9
 1591 0635 D9       		.byte	0xd9
 1592 0636 10010000 		.4byte	0x110
 1593 063a 15       		.uleb128 0x15
 1594 063b BE000000 		.4byte	.LASF87
 1595 063f 09       		.byte	0x9
 1596 0640 E0       		.byte	0xe0
 1597 0641 10010000 		.4byte	0x110
 1598 0645 15       		.uleb128 0x15
 1599 0646 F0060000 		.4byte	.LASF88
 1600 064a 09       		.byte	0x9
 1601 064b E7       		.byte	0xe7
 1602 064c 0D030000 		.4byte	0x30d
 1603 0650 15       		.uleb128 0x15
 1604 0651 0F020000 		.4byte	.LASF89
 1605 0655 09       		.byte	0x9
 1606 0656 EE       		.byte	0xee
 1607 0657 8A060000 		.4byte	0x68a
 1608 065b 15       		.uleb128 0x15
 1609 065c D2000000 		.4byte	.LASF90
 1610 0660 09       		.byte	0x9
 1611 0661 F3       		.byte	0xf3
 1612 0662 10010000 		.4byte	0x110
 1613 0666 15       		.uleb128 0x15
 1614 0667 08020000 		.4byte	.LASF91
 1615 066b 09       		.byte	0x9
 1616 066c FC       		.byte	0xfc
ARM GAS  /tmp/ccJOLCOT.s 			page 60


 1617 066d B5060000 		.4byte	0x6b5
 1618 0671 16       		.uleb128 0x16
 1619 0672 7F040000 		.4byte	.LASF92
 1620 0676 09       		.byte	0x9
 1621 0677 0501     		.2byte	0x105
 1622 0679 EC060000 		.4byte	0x6ec
 1623 067d 16       		.uleb128 0x16
 1624 067e 1A040000 		.4byte	.LASF93
 1625 0682 09       		.byte	0x9
 1626 0683 0D01     		.2byte	0x10d
 1627 0685 1B010000 		.4byte	0x11b
 1628 0689 00       		.byte	0
 1629 068a 0A       		.uleb128 0xa
 1630 068b 04       		.byte	0x4
 1631 068c 25020000 		.4byte	0x225
 1632 0690 05       		.uleb128 0x5
 1633 0691 46040000 		.4byte	.LASF94
 1634 0695 0C       		.byte	0xc
 1635 0696 0D       		.byte	0xd
 1636 0697 34       		.byte	0x34
 1637 0698 B5060000 		.4byte	0x6b5
 1638 069c 06       		.uleb128 0x6
 1639 069d 23020000 		.4byte	.LASF29
 1640 06a1 0D       		.byte	0xd
 1641 06a2 35       		.byte	0x35
 1642 06a3 5A020000 		.4byte	0x25a
 1643 06a7 00       		.byte	0
 1644 06a8 07       		.uleb128 0x7
 1645 06a9 636E7400 		.ascii	"cnt\000"
 1646 06ad 0D       		.byte	0xd
 1647 06ae 37       		.byte	0x37
 1648 06af 26010000 		.4byte	0x126
 1649 06b3 08       		.byte	0x8
 1650 06b4 00       		.byte	0
 1651 06b5 0A       		.uleb128 0xa
 1652 06b6 04       		.byte	0x4
 1653 06b7 90060000 		.4byte	0x690
 1654 06bb 05       		.uleb128 0x5
 1655 06bc 65050000 		.4byte	.LASF95
 1656 06c0 10       		.byte	0x10
 1657 06c1 0E       		.byte	0xe
 1658 06c2 39       		.byte	0x39
 1659 06c3 EC060000 		.4byte	0x6ec
 1660 06c7 06       		.uleb128 0x6
 1661 06c8 23020000 		.4byte	.LASF29
 1662 06cc 0E       		.byte	0xe
 1663 06cd 3A       		.byte	0x3a
 1664 06ce 5A020000 		.4byte	0x25a
 1665 06d2 00       		.byte	0
 1666 06d3 06       		.uleb128 0x6
 1667 06d4 96040000 		.4byte	.LASF96
 1668 06d8 0E       		.byte	0xe
 1669 06d9 3C       		.byte	0x3c
 1670 06da 30020000 		.4byte	0x230
 1671 06de 08       		.byte	0x8
 1672 06df 06       		.uleb128 0x6
 1673 06e0 19000000 		.4byte	.LASF48
ARM GAS  /tmp/ccJOLCOT.s 			page 61


 1674 06e4 0E       		.byte	0xe
 1675 06e5 3E       		.byte	0x3e
 1676 06e6 20070000 		.4byte	0x720
 1677 06ea 0C       		.byte	0xc
 1678 06eb 00       		.byte	0
 1679 06ec 0A       		.uleb128 0xa
 1680 06ed 04       		.byte	0x4
 1681 06ee BB060000 		.4byte	0x6bb
 1682 06f2 0A       		.uleb128 0xa
 1683 06f3 04       		.byte	0x4
 1684 06f4 F8060000 		.4byte	0x6f8
 1685 06f8 17       		.uleb128 0x17
 1686 06f9 FD060000 		.4byte	0x6fd
 1687 06fd 04       		.uleb128 0x4
 1688 06fe 01       		.byte	0x1
 1689 06ff 08       		.byte	0x8
 1690 0700 B5040000 		.4byte	.LASF97
 1691 0704 0A       		.uleb128 0xa
 1692 0705 04       		.byte	0x4
 1693 0706 60040000 		.4byte	0x460
 1694 070a 0A       		.uleb128 0xa
 1695 070b 04       		.byte	0x4
 1696 070c 0F030000 		.4byte	0x30f
 1697 0710 0F       		.uleb128 0xf
 1698 0711 F2060000 		.4byte	0x6f2
 1699 0715 03       		.uleb128 0x3
 1700 0716 D4010000 		.4byte	.LASF98
 1701 071a 0E       		.byte	0xe
 1702 071b 34       		.byte	0x34
 1703 071c BB060000 		.4byte	0x6bb
 1704 0720 0A       		.uleb128 0xa
 1705 0721 04       		.byte	0x4
 1706 0722 15070000 		.4byte	0x715
 1707 0726 04       		.uleb128 0x4
 1708 0727 01       		.byte	0x1
 1709 0728 02       		.byte	0x2
 1710 0729 DB030000 		.4byte	.LASF99
 1711 072d 0A       		.uleb128 0xa
 1712 072e 04       		.byte	0x4
 1713 072f 33070000 		.4byte	0x733
 1714 0733 18       		.uleb128 0x18
 1715 0734 19       		.uleb128 0x19
 1716 0735 10       		.byte	0x10
 1717 0736 0F       		.byte	0xf
 1718 0737 3D       		.byte	0x3d
 1719 0738 6D070000 		.4byte	0x76d
 1720 073c 06       		.uleb128 0x6
 1721 073d 1E020000 		.4byte	.LASF33
 1722 0741 0F       		.byte	0xf
 1723 0742 3E       		.byte	0x3e
 1724 0743 F2060000 		.4byte	0x6f2
 1725 0747 00       		.byte	0
 1726 0748 06       		.uleb128 0x6
 1727 0749 61030000 		.4byte	.LASF100
 1728 074d 0F       		.byte	0xf
 1729 074e 3F       		.byte	0x3f
 1730 074f 2D070000 		.4byte	0x72d
ARM GAS  /tmp/ccJOLCOT.s 			page 62


 1731 0753 04       		.byte	0x4
 1732 0754 06       		.uleb128 0x6
 1733 0755 15020000 		.4byte	.LASF101
 1734 0759 0F       		.byte	0xf
 1735 075a 40       		.byte	0x40
 1736 075b 2D070000 		.4byte	0x72d
 1737 075f 08       		.byte	0x8
 1738 0760 06       		.uleb128 0x6
 1739 0761 F7030000 		.4byte	.LASF102
 1740 0765 0F       		.byte	0xf
 1741 0766 41       		.byte	0x41
 1742 0767 2D070000 		.4byte	0x72d
 1743 076b 0C       		.byte	0xc
 1744 076c 00       		.byte	0
 1745 076d 03       		.uleb128 0x3
 1746 076e 9C020000 		.4byte	.LASF103
 1747 0772 0F       		.byte	0xf
 1748 0773 42       		.byte	0x42
 1749 0774 34070000 		.4byte	0x734
 1750 0778 1A       		.uleb128 0x1a
 1751 0779 F1040000 		.4byte	.LASF110
 1752 077d 02       		.byte	0x2
 1753 077e 0601     		.2byte	0x106
 1754 0780 03       		.byte	0x3
 1755 0781 92070000 		.4byte	0x792
 1756 0785 1B       		.uleb128 0x1b
 1757 0786 DC010000 		.4byte	.LASF140
 1758 078a 02       		.byte	0x2
 1759 078b 0601     		.2byte	0x106
 1760 078d CE000000 		.4byte	0xce
 1761 0791 00       		.byte	0
 1762 0792 1C       		.uleb128 0x1c
 1763 0793 63040000 		.4byte	.LASF106
 1764 0797 03       		.byte	0x3
 1765 0798 8B       		.byte	0x8b
 1766 0799 31010000 		.4byte	0x131
 1767 079d 03       		.byte	0x3
 1768 079e 1D       		.uleb128 0x1d
 1769 079f 9D000000 		.4byte	.LASF104
 1770 07a3 0B       		.byte	0xb
 1771 07a4 5202     		.2byte	0x252
 1772 07a6 03       		.byte	0x3
 1773 07a7 1D       		.uleb128 0x1d
 1774 07a8 45010000 		.4byte	.LASF105
 1775 07ac 0B       		.byte	0xb
 1776 07ad 6A02     		.2byte	0x26a
 1777 07af 03       		.byte	0x3
 1778 07b0 1C       		.uleb128 0x1c
 1779 07b1 1C050000 		.4byte	.LASF107
 1780 07b5 10       		.byte	0x10
 1781 07b6 69       		.byte	0x69
 1782 07b7 31010000 		.4byte	0x131
 1783 07bb 03       		.byte	0x3
 1784 07bc 1D       		.uleb128 0x1d
 1785 07bd 2B040000 		.4byte	.LASF108
 1786 07c1 11       		.byte	0x11
 1787 07c2 7601     		.2byte	0x176
ARM GAS  /tmp/ccJOLCOT.s 			page 63


 1788 07c4 03       		.byte	0x3
 1789 07c5 1E       		.uleb128 0x1e
 1790 07c6 E8010000 		.4byte	.LASF109
 1791 07ca 12       		.byte	0x12
 1792 07cb 8801     		.2byte	0x188
 1793 07cd 31010000 		.4byte	0x131
 1794 07d1 03       		.byte	0x3
 1795 07d2 1A       		.uleb128 0x1a
 1796 07d3 0E070000 		.4byte	.LASF111
 1797 07d7 11       		.byte	0x11
 1798 07d8 8201     		.2byte	0x182
 1799 07da 03       		.byte	0x3
 1800 07db ED070000 		.4byte	0x7ed
 1801 07df 1F       		.uleb128 0x1f
 1802 07e0 CD030000 		.4byte	.LASF112
 1803 07e4 FD070000 		.4byte	0x7fd
 1804 07e8 0E070000 		.4byte	.LASF111
 1805 07ec 00       		.byte	0
 1806 07ed 10       		.uleb128 0x10
 1807 07ee FD060000 		.4byte	0x6fd
 1808 07f2 FD070000 		.4byte	0x7fd
 1809 07f6 11       		.uleb128 0x11
 1810 07f7 29040000 		.4byte	0x429
 1811 07fb 0B       		.byte	0xb
 1812 07fc 00       		.byte	0
 1813 07fd 17       		.uleb128 0x17
 1814 07fe ED070000 		.4byte	0x7ed
 1815 0802 20       		.uleb128 0x20
 1816 0803 67030000 		.4byte	.LASF141
 1817 0807 12       		.byte	0x12
 1818 0808 9B01     		.2byte	0x19b
 1819 080a 31010000 		.4byte	0x131
 1820 080e 03       		.byte	0x3
 1821 080f 20080000 		.4byte	0x820
 1822 0813 21       		.uleb128 0x21
 1823 0814 65020000 		.4byte	.LASF113
 1824 0818 12       		.byte	0x12
 1825 0819 9C01     		.2byte	0x19c
 1826 081b 31010000 		.4byte	0x131
 1827 081f 00       		.byte	0
 1828 0820 22       		.uleb128 0x22
 1829 0821 36050000 		.4byte	.LASF114
 1830 0825 01       		.byte	0x1
 1831 0826 5F       		.byte	0x5f
 1832 0827 00000000 		.4byte	.LFB219
 1833 082b 66000000 		.4byte	.LFE219-.LFB219
 1834 082f 01       		.uleb128 0x1
 1835 0830 9C       		.byte	0x9c
 1836 0831 EA080000 		.4byte	0x8ea
 1837 0835 23       		.uleb128 0x23
 1838 0836 0E000000 		.4byte	.LVL0
 1839 083a DE0B0000 		.4byte	0xbde
 1840 083e 4C080000 		.4byte	0x84c
 1841 0842 24       		.uleb128 0x24
 1842 0843 01       		.uleb128 0x1
 1843 0844 50       		.byte	0x50
 1844 0845 05       		.uleb128 0x5
ARM GAS  /tmp/ccJOLCOT.s 			page 64


 1845 0846 03       		.byte	0x3
 1846 0847 00000000 		.4byte	.LC0
 1847 084b 00       		.byte	0
 1848 084c 23       		.uleb128 0x23
 1849 084d 1A000000 		.4byte	.LVL1
 1850 0851 EF0B0000 		.4byte	0xbef
 1851 0855 63080000 		.4byte	0x863
 1852 0859 24       		.uleb128 0x24
 1853 085a 01       		.uleb128 0x1
 1854 085b 50       		.byte	0x50
 1855 085c 05       		.uleb128 0x5
 1856 085d 03       		.byte	0x3
 1857 085e 14000000 		.4byte	.LC1
 1858 0862 00       		.byte	0
 1859 0863 23       		.uleb128 0x23
 1860 0864 26000000 		.4byte	.LVL2
 1861 0868 DE0B0000 		.4byte	0xbde
 1862 086c 7A080000 		.4byte	0x87a
 1863 0870 24       		.uleb128 0x24
 1864 0871 01       		.uleb128 0x1
 1865 0872 50       		.byte	0x50
 1866 0873 05       		.uleb128 0x5
 1867 0874 03       		.byte	0x3
 1868 0875 20000000 		.4byte	.LC2
 1869 0879 00       		.byte	0
 1870 087a 23       		.uleb128 0x23
 1871 087b 32000000 		.4byte	.LVL3
 1872 087f EF0B0000 		.4byte	0xbef
 1873 0883 91080000 		.4byte	0x891
 1874 0887 24       		.uleb128 0x24
 1875 0888 01       		.uleb128 0x1
 1876 0889 50       		.byte	0x50
 1877 088a 05       		.uleb128 0x5
 1878 088b 03       		.byte	0x3
 1879 088c 34000000 		.4byte	.LC3
 1880 0890 00       		.byte	0
 1881 0891 23       		.uleb128 0x23
 1882 0892 3E000000 		.4byte	.LVL4
 1883 0896 DE0B0000 		.4byte	0xbde
 1884 089a A8080000 		.4byte	0x8a8
 1885 089e 24       		.uleb128 0x24
 1886 089f 01       		.uleb128 0x1
 1887 08a0 50       		.byte	0x50
 1888 08a1 05       		.uleb128 0x5
 1889 08a2 03       		.byte	0x3
 1890 08a3 3C000000 		.4byte	.LC4
 1891 08a7 00       		.byte	0
 1892 08a8 23       		.uleb128 0x23
 1893 08a9 4A000000 		.4byte	.LVL5
 1894 08ad EF0B0000 		.4byte	0xbef
 1895 08b1 BF080000 		.4byte	0x8bf
 1896 08b5 24       		.uleb128 0x24
 1897 08b6 01       		.uleb128 0x1
 1898 08b7 50       		.byte	0x50
 1899 08b8 05       		.uleb128 0x5
 1900 08b9 03       		.byte	0x3
 1901 08ba 50000000 		.4byte	.LC5
ARM GAS  /tmp/ccJOLCOT.s 			page 65


 1902 08be 00       		.byte	0
 1903 08bf 23       		.uleb128 0x23
 1904 08c0 56000000 		.4byte	.LVL6
 1905 08c4 DE0B0000 		.4byte	0xbde
 1906 08c8 D6080000 		.4byte	0x8d6
 1907 08cc 24       		.uleb128 0x24
 1908 08cd 01       		.uleb128 0x1
 1909 08ce 50       		.byte	0x50
 1910 08cf 05       		.uleb128 0x5
 1911 08d0 03       		.byte	0x3
 1912 08d1 5C000000 		.4byte	.LC6
 1913 08d5 00       		.byte	0
 1914 08d6 25       		.uleb128 0x25
 1915 08d7 66000000 		.4byte	.LVL7
 1916 08db EF0B0000 		.4byte	0xbef
 1917 08df 24       		.uleb128 0x24
 1918 08e0 01       		.uleb128 0x1
 1919 08e1 50       		.byte	0x50
 1920 08e2 05       		.uleb128 0x5
 1921 08e3 03       		.byte	0x3
 1922 08e4 70000000 		.4byte	.LC7
 1923 08e8 00       		.byte	0
 1924 08e9 00       		.byte	0
 1925 08ea 22       		.uleb128 0x22
 1926 08eb 99030000 		.4byte	.LASF115
 1927 08ef 01       		.byte	0x1
 1928 08f0 87       		.byte	0x87
 1929 08f1 00000000 		.4byte	.LFB220
 1930 08f5 20000000 		.4byte	.LFE220-.LFB220
 1931 08f9 01       		.uleb128 0x1
 1932 08fa 9C       		.byte	0x9c
 1933 08fb 16090000 		.4byte	0x916
 1934 08ff 26       		.uleb128 0x26
 1935 0900 6900     		.ascii	"i\000"
 1936 0902 01       		.byte	0x1
 1937 0903 88       		.byte	0x88
 1938 0904 37000000 		.4byte	0x37
 1939 0908 00000000 		.4byte	.LLST0
 1940 090c 27       		.uleb128 0x27
 1941 090d 14000000 		.4byte	.LVL10
 1942 0911 000C0000 		.4byte	0xc00
 1943 0915 00       		.byte	0
 1944 0916 22       		.uleb128 0x22
 1945 0917 42030000 		.4byte	.LASF116
 1946 091b 01       		.byte	0x1
 1947 091c 92       		.byte	0x92
 1948 091d 00000000 		.4byte	.LFB221
 1949 0921 26000000 		.4byte	.LFE221-.LFB221
 1950 0925 01       		.uleb128 0x1
 1951 0926 9C       		.byte	0x9c
 1952 0927 42090000 		.4byte	0x942
 1953 092b 26       		.uleb128 0x26
 1954 092c 6900     		.ascii	"i\000"
 1955 092e 01       		.byte	0x1
 1956 092f 93       		.byte	0x93
 1957 0930 37000000 		.4byte	0x37
 1958 0934 14000000 		.4byte	.LLST1
ARM GAS  /tmp/ccJOLCOT.s 			page 66


 1959 0938 27       		.uleb128 0x27
 1960 0939 1C000000 		.4byte	.LVL13
 1961 093d 120C0000 		.4byte	0xc12
 1962 0941 00       		.byte	0
 1963 0942 28       		.uleb128 0x28
 1964 0943 22070000 		.4byte	.LASF142
 1965 0947 01       		.byte	0x1
 1966 0948 9F       		.byte	0x9f
 1967 0949 31010000 		.4byte	0x131
 1968 094d 00000000 		.4byte	.LFB222
 1969 0951 1E000000 		.4byte	.LFE222-.LFB222
 1970 0955 01       		.uleb128 0x1
 1971 0956 9C       		.byte	0x9c
 1972 0957 480A0000 		.4byte	0xa48
 1973 095b 29       		.uleb128 0x29
 1974 095c 02080000 		.4byte	0x802
 1975 0960 08000000 		.4byte	.LBB50
 1976 0964 12000000 		.4byte	.LBE50-.LBB50
 1977 0968 01       		.byte	0x1
 1978 0969 A2       		.byte	0xa2
 1979 096a 380A0000 		.4byte	0xa38
 1980 096e 2A       		.uleb128 0x2a
 1981 096f 08000000 		.4byte	.LBB51
 1982 0973 12000000 		.4byte	.LBE51-.LBB51
 1983 0977 2B       		.uleb128 0x2b
 1984 0978 13080000 		.4byte	0x813
 1985 097c 2C       		.uleb128 0x2c
 1986 097d BC070000 		.4byte	0x7bc
 1987 0981 08000000 		.4byte	.LBB52
 1988 0985 06000000 		.4byte	.LBE52-.LBB52
 1989 0989 12       		.byte	0x12
 1990 098a 9E01     		.2byte	0x19e
 1991 098c B9090000 		.4byte	0x9b9
 1992 0990 2D       		.uleb128 0x2d
 1993 0991 9E070000 		.4byte	0x79e
 1994 0995 08000000 		.4byte	.LBB53
 1995 0999 06000000 		.4byte	.LBE53-.LBB53
 1996 099d 11       		.byte	0x11
 1997 099e 7801     		.2byte	0x178
 1998 09a0 2D       		.uleb128 0x2d
 1999 09a1 78070000 		.4byte	0x778
 2000 09a5 08000000 		.4byte	.LBB54
 2001 09a9 06000000 		.4byte	.LBE54-.LBB54
 2002 09ad 0B       		.byte	0xb
 2003 09ae 5A02     		.2byte	0x25a
 2004 09b0 2E       		.uleb128 0x2e
 2005 09b1 85070000 		.4byte	0x785
 2006 09b5 20       		.byte	0x20
 2007 09b6 00       		.byte	0
 2008 09b7 00       		.byte	0
 2009 09b8 00       		.byte	0
 2010 09b9 2C       		.uleb128 0x2c
 2011 09ba C5070000 		.4byte	0x7c5
 2012 09be 0E000000 		.4byte	.LBB56
 2013 09c2 06000000 		.4byte	.LBE56-.LBB56
 2014 09c6 12       		.byte	0x12
 2015 09c7 9F01     		.2byte	0x19f
ARM GAS  /tmp/ccJOLCOT.s 			page 67


 2016 09c9 EE090000 		.4byte	0x9ee
 2017 09cd 2D       		.uleb128 0x2d
 2018 09ce B0070000 		.4byte	0x7b0
 2019 09d2 0E000000 		.4byte	.LBB57
 2020 09d6 06000000 		.4byte	.LBE57-.LBB57
 2021 09da 12       		.byte	0x12
 2022 09db 8D01     		.2byte	0x18d
 2023 09dd 2F       		.uleb128 0x2f
 2024 09de 92070000 		.4byte	0x792
 2025 09e2 0E000000 		.4byte	.LBB58
 2026 09e6 06000000 		.4byte	.LBE58-.LBB58
 2027 09ea 10       		.byte	0x10
 2028 09eb 6B       		.byte	0x6b
 2029 09ec 00       		.byte	0
 2030 09ed 00       		.byte	0
 2031 09ee 2D       		.uleb128 0x2d
 2032 09ef D2070000 		.4byte	0x7d2
 2033 09f3 14000000 		.4byte	.LBB60
 2034 09f7 06000000 		.4byte	.LBE60-.LBB60
 2035 09fb 12       		.byte	0x12
 2036 09fc A001     		.2byte	0x1a0
 2037 09fe 2A       		.uleb128 0x2a
 2038 09ff 14000000 		.4byte	.LBB61
 2039 0a03 06000000 		.4byte	.LBE61-.LBB61
 2040 0a07 2B       		.uleb128 0x2b
 2041 0a08 DF070000 		.4byte	0x7df
 2042 0a0c 2D       		.uleb128 0x2d
 2043 0a0d A7070000 		.4byte	0x7a7
 2044 0a11 14000000 		.4byte	.LBB62
 2045 0a15 06000000 		.4byte	.LBE62-.LBB62
 2046 0a19 11       		.byte	0x11
 2047 0a1a 8F01     		.2byte	0x18f
 2048 0a1c 2D       		.uleb128 0x2d
 2049 0a1d 78070000 		.4byte	0x778
 2050 0a21 14000000 		.4byte	.LBB63
 2051 0a25 06000000 		.4byte	.LBE63-.LBB63
 2052 0a29 0B       		.byte	0xb
 2053 0a2a 6D02     		.2byte	0x26d
 2054 0a2c 2E       		.uleb128 0x2e
 2055 0a2d 85070000 		.4byte	0x785
 2056 0a31 00       		.byte	0
 2057 0a32 00       		.byte	0
 2058 0a33 00       		.byte	0
 2059 0a34 00       		.byte	0
 2060 0a35 00       		.byte	0
 2061 0a36 00       		.byte	0
 2062 0a37 00       		.byte	0
 2063 0a38 30       		.uleb128 0x30
 2064 0a39 08000000 		.4byte	.LVL14
 2065 0a3d 270C0000 		.4byte	0xc27
 2066 0a41 24       		.uleb128 0x24
 2067 0a42 01       		.uleb128 0x1
 2068 0a43 50       		.byte	0x50
 2069 0a44 01       		.uleb128 0x1
 2070 0a45 31       		.byte	0x31
 2071 0a46 00       		.byte	0
 2072 0a47 00       		.byte	0
ARM GAS  /tmp/ccJOLCOT.s 			page 68


 2073 0a48 31       		.uleb128 0x31
 2074 0a49 F0000000 		.4byte	.LASF117
 2075 0a4d 13       		.byte	0x13
 2076 0a4e 9606     		.2byte	0x696
 2077 0a50 540A0000 		.4byte	0xa54
 2078 0a54 0F       		.uleb128 0xf
 2079 0a55 C3000000 		.4byte	0xc3
 2080 0a59 32       		.uleb128 0x32
 2081 0a5a 636800   		.ascii	"ch\000"
 2082 0a5d 09       		.byte	0x9
 2083 0a5e D201     		.2byte	0x1d2
 2084 0a60 DC030000 		.4byte	0x3dc
 2085 0a64 10       		.uleb128 0x10
 2086 0a65 6F0A0000 		.4byte	0xa6f
 2087 0a69 6F0A0000 		.4byte	0xa6f
 2088 0a6d 33       		.uleb128 0x33
 2089 0a6e 00       		.byte	0
 2090 0a6f 0A       		.uleb128 0xa
 2091 0a70 04       		.byte	0x4
 2092 0a71 750A0000 		.4byte	0xa75
 2093 0a75 17       		.uleb128 0x17
 2094 0a76 6D070000 		.4byte	0x76d
 2095 0a7a 34       		.uleb128 0x34
 2096 0a7b 6E050000 		.4byte	.LASF118
 2097 0a7f 14       		.byte	0x14
 2098 0a80 19       		.byte	0x19
 2099 0a81 850A0000 		.4byte	0xa85
 2100 0a85 17       		.uleb128 0x17
 2101 0a86 640A0000 		.4byte	0xa64
 2102 0a8a 34       		.uleb128 0x34
 2103 0a8b 60060000 		.4byte	.LASF119
 2104 0a8f 15       		.byte	0x15
 2105 0a90 19       		.byte	0x19
 2106 0a91 950A0000 		.4byte	0xa95
 2107 0a95 17       		.uleb128 0x17
 2108 0a96 640A0000 		.4byte	0xa64
 2109 0a9a 34       		.uleb128 0x34
 2110 0a9b 72060000 		.4byte	.LASF120
 2111 0a9f 16       		.byte	0x16
 2112 0aa0 19       		.byte	0x19
 2113 0aa1 A50A0000 		.4byte	0xaa5
 2114 0aa5 17       		.uleb128 0x17
 2115 0aa6 640A0000 		.4byte	0xa64
 2116 0aaa 34       		.uleb128 0x34
 2117 0aab 84060000 		.4byte	.LASF121
 2118 0aaf 17       		.byte	0x17
 2119 0ab0 19       		.byte	0x19
 2120 0ab1 B50A0000 		.4byte	0xab5
 2121 0ab5 17       		.uleb128 0x17
 2122 0ab6 640A0000 		.4byte	0xa64
 2123 0aba 34       		.uleb128 0x34
 2124 0abb 96060000 		.4byte	.LASF122
 2125 0abf 18       		.byte	0x18
 2126 0ac0 19       		.byte	0x19
 2127 0ac1 C50A0000 		.4byte	0xac5
 2128 0ac5 17       		.uleb128 0x17
 2129 0ac6 640A0000 		.4byte	0xa64
ARM GAS  /tmp/ccJOLCOT.s 			page 69


 2130 0aca 34       		.uleb128 0x34
 2131 0acb A8060000 		.4byte	.LASF123
 2132 0acf 19       		.byte	0x19
 2133 0ad0 19       		.byte	0x19
 2134 0ad1 D50A0000 		.4byte	0xad5
 2135 0ad5 17       		.uleb128 0x17
 2136 0ad6 640A0000 		.4byte	0xa64
 2137 0ada 34       		.uleb128 0x34
 2138 0adb BA060000 		.4byte	.LASF124
 2139 0adf 1A       		.byte	0x1a
 2140 0ae0 19       		.byte	0x19
 2141 0ae1 E50A0000 		.4byte	0xae5
 2142 0ae5 17       		.uleb128 0x17
 2143 0ae6 640A0000 		.4byte	0xa64
 2144 0aea 34       		.uleb128 0x34
 2145 0aeb CC060000 		.4byte	.LASF125
 2146 0aef 1B       		.byte	0x1b
 2147 0af0 19       		.byte	0x19
 2148 0af1 F50A0000 		.4byte	0xaf5
 2149 0af5 17       		.uleb128 0x17
 2150 0af6 640A0000 		.4byte	0xa64
 2151 0afa 34       		.uleb128 0x34
 2152 0afb DE060000 		.4byte	.LASF126
 2153 0aff 1C       		.byte	0x1c
 2154 0b00 19       		.byte	0x19
 2155 0b01 050B0000 		.4byte	0xb05
 2156 0b05 17       		.uleb128 0x17
 2157 0b06 640A0000 		.4byte	0xa64
 2158 0b0a 34       		.uleb128 0x34
 2159 0b0b 2B000000 		.4byte	.LASF127
 2160 0b0f 1D       		.byte	0x1d
 2161 0b10 19       		.byte	0x19
 2162 0b11 150B0000 		.4byte	0xb15
 2163 0b15 17       		.uleb128 0x17
 2164 0b16 640A0000 		.4byte	0xa64
 2165 0b1a 34       		.uleb128 0x34
 2166 0b1b 3D000000 		.4byte	.LASF128
 2167 0b1f 1E       		.byte	0x1e
 2168 0b20 19       		.byte	0x19
 2169 0b21 250B0000 		.4byte	0xb25
 2170 0b25 17       		.uleb128 0x17
 2171 0b26 640A0000 		.4byte	0xa64
 2172 0b2a 34       		.uleb128 0x34
 2173 0b2b 4F000000 		.4byte	.LASF129
 2174 0b2f 1F       		.byte	0x1f
 2175 0b30 19       		.byte	0x19
 2176 0b31 350B0000 		.4byte	0xb35
 2177 0b35 17       		.uleb128 0x17
 2178 0b36 640A0000 		.4byte	0xa64
 2179 0b3a 34       		.uleb128 0x34
 2180 0b3b 61000000 		.4byte	.LASF130
 2181 0b3f 20       		.byte	0x20
 2182 0b40 19       		.byte	0x19
 2183 0b41 450B0000 		.4byte	0xb45
 2184 0b45 17       		.uleb128 0x17
 2185 0b46 640A0000 		.4byte	0xa64
 2186 0b4a 10       		.uleb128 0x10
ARM GAS  /tmp/ccJOLCOT.s 			page 70


 2187 0b4b 5A0B0000 		.4byte	0xb5a
 2188 0b4f 5A0B0000 		.4byte	0xb5a
 2189 0b53 11       		.uleb128 0x11
 2190 0b54 29040000 		.4byte	0x429
 2191 0b58 0D       		.byte	0xd
 2192 0b59 00       		.byte	0
 2193 0b5a 0A       		.uleb128 0xa
 2194 0b5b 04       		.byte	0x4
 2195 0b5c 600B0000 		.4byte	0xb60
 2196 0b60 17       		.uleb128 0x17
 2197 0b61 6F0A0000 		.4byte	0xa6f
 2198 0b65 35       		.uleb128 0x35
 2199 0b66 D3040000 		.4byte	.LASF131
 2200 0b6a 01       		.byte	0x1
 2201 0b6b 3A       		.byte	0x3a
 2202 0b6c 4A0B0000 		.4byte	0xb4a
 2203 0b70 05       		.uleb128 0x5
 2204 0b71 03       		.byte	0x3
 2205 0b72 00000000 		.4byte	test_suite
 2206 0b76 10       		.uleb128 0x10
 2207 0b77 AD000000 		.4byte	0xad
 2208 0b7b 870B0000 		.4byte	0xb87
 2209 0b7f 36       		.uleb128 0x36
 2210 0b80 29040000 		.4byte	0x429
 2211 0b84 6706     		.2byte	0x667
 2212 0b86 00       		.byte	0
 2213 0b87 35       		.uleb128 0x35
 2214 0b88 2D030000 		.4byte	.LASF132
 2215 0b8c 01       		.byte	0x1
 2216 0b8d 74       		.byte	0x74
 2217 0b8e 760B0000 		.4byte	0xb76
 2218 0b92 05       		.uleb128 0x5
 2219 0b93 03       		.byte	0x3
 2220 0b94 00000000 		.4byte	test_buffer
 2221 0b98 10       		.uleb128 0x10
 2222 0b99 30020000 		.4byte	0x230
 2223 0b9d A80B0000 		.4byte	0xba8
 2224 0ba1 11       		.uleb128 0x11
 2225 0ba2 29040000 		.4byte	0x429
 2226 0ba6 04       		.byte	0x4
 2227 0ba7 00       		.byte	0
 2228 0ba8 35       		.uleb128 0x35
 2229 0ba9 12040000 		.4byte	.LASF133
 2230 0bad 01       		.byte	0x1
 2231 0bae 79       		.byte	0x79
 2232 0baf 980B0000 		.4byte	0xb98
 2233 0bb3 05       		.uleb128 0x5
 2234 0bb4 03       		.byte	0x3
 2235 0bb5 00000000 		.4byte	threads
 2236 0bb9 10       		.uleb128 0x10
 2237 0bba 0D030000 		.4byte	0x30d
 2238 0bbe C90B0000 		.4byte	0xbc9
 2239 0bc2 11       		.uleb128 0x11
 2240 0bc3 29040000 		.4byte	0x429
 2241 0bc7 04       		.byte	0x4
 2242 0bc8 00       		.byte	0
 2243 0bc9 37       		.uleb128 0x37
ARM GAS  /tmp/ccJOLCOT.s 			page 71


 2244 0bca 776100   		.ascii	"wa\000"
 2245 0bcd 01       		.byte	0x1
 2246 0bce 7E       		.byte	0x7e
 2247 0bcf D90B0000 		.4byte	0xbd9
 2248 0bd3 05       		.uleb128 0x5
 2249 0bd4 03       		.byte	0x3
 2250 0bd5 00000000 		.4byte	wa
 2251 0bd9 17       		.uleb128 0x17
 2252 0bda B90B0000 		.4byte	0xbb9
 2253 0bde 38       		.uleb128 0x38
 2254 0bdf A7020000 		.4byte	.LASF134
 2255 0be3 0F       		.byte	0xf
 2256 0be4 AC       		.byte	0xac
 2257 0be5 EF0B0000 		.4byte	0xbef
 2258 0be9 0D       		.uleb128 0xd
 2259 0bea F2060000 		.4byte	0x6f2
 2260 0bee 00       		.byte	0
 2261 0bef 38       		.uleb128 0x38
 2262 0bf0 31010000 		.4byte	.LASF135
 2263 0bf4 0F       		.byte	0xf
 2264 0bf5 AD       		.byte	0xad
 2265 0bf6 000C0000 		.4byte	0xc00
 2266 0bfa 0D       		.uleb128 0xd
 2267 0bfb F2060000 		.4byte	0x6f2
 2268 0bff 00       		.byte	0
 2269 0c00 39       		.uleb128 0x39
 2270 0c01 93010000 		.4byte	.LASF136
 2271 0c05 21       		.byte	0x21
 2272 0c06 0001     		.2byte	0x100
 2273 0c08 120C0000 		.4byte	0xc12
 2274 0c0c 0D       		.uleb128 0xd
 2275 0c0d 30020000 		.4byte	0x230
 2276 0c11 00       		.byte	0
 2277 0c12 3A       		.uleb128 0x3a
 2278 0c13 4B050000 		.4byte	.LASF143
 2279 0c17 21       		.byte	0x21
 2280 0c18 FD       		.byte	0xfd
 2281 0c19 10010000 		.4byte	0x110
 2282 0c1d 270C0000 		.4byte	0xc27
 2283 0c21 0D       		.uleb128 0xd
 2284 0c22 30020000 		.4byte	0x230
 2285 0c26 00       		.byte	0
 2286 0c27 3B       		.uleb128 0x3b
 2287 0c28 58040000 		.4byte	.LASF144
 2288 0c2c 21       		.byte	0x21
 2289 0c2d 0901     		.2byte	0x109
 2290 0c2f 0D       		.uleb128 0xd
 2291 0c30 31010000 		.4byte	0x131
 2292 0c34 00       		.byte	0
 2293 0c35 00       		.byte	0
 2294              		.section	.debug_abbrev,"",%progbits
 2295              	.Ldebug_abbrev0:
 2296 0000 01       		.uleb128 0x1
 2297 0001 11       		.uleb128 0x11
 2298 0002 01       		.byte	0x1
 2299 0003 25       		.uleb128 0x25
 2300 0004 0E       		.uleb128 0xe
ARM GAS  /tmp/ccJOLCOT.s 			page 72


 2301 0005 13       		.uleb128 0x13
 2302 0006 0B       		.uleb128 0xb
 2303 0007 03       		.uleb128 0x3
 2304 0008 0E       		.uleb128 0xe
 2305 0009 1B       		.uleb128 0x1b
 2306 000a 0E       		.uleb128 0xe
 2307 000b 55       		.uleb128 0x55
 2308 000c 17       		.uleb128 0x17
 2309 000d 11       		.uleb128 0x11
 2310 000e 01       		.uleb128 0x1
 2311 000f 10       		.uleb128 0x10
 2312 0010 17       		.uleb128 0x17
 2313 0011 00       		.byte	0
 2314 0012 00       		.byte	0
 2315 0013 02       		.uleb128 0x2
 2316 0014 24       		.uleb128 0x24
 2317 0015 00       		.byte	0
 2318 0016 0B       		.uleb128 0xb
 2319 0017 0B       		.uleb128 0xb
 2320 0018 3E       		.uleb128 0x3e
 2321 0019 0B       		.uleb128 0xb
 2322 001a 03       		.uleb128 0x3
 2323 001b 08       		.uleb128 0x8
 2324 001c 00       		.byte	0
 2325 001d 00       		.byte	0
 2326 001e 03       		.uleb128 0x3
 2327 001f 16       		.uleb128 0x16
 2328 0020 00       		.byte	0
 2329 0021 03       		.uleb128 0x3
 2330 0022 0E       		.uleb128 0xe
 2331 0023 3A       		.uleb128 0x3a
 2332 0024 0B       		.uleb128 0xb
 2333 0025 3B       		.uleb128 0x3b
 2334 0026 0B       		.uleb128 0xb
 2335 0027 49       		.uleb128 0x49
 2336 0028 13       		.uleb128 0x13
 2337 0029 00       		.byte	0
 2338 002a 00       		.byte	0
 2339 002b 04       		.uleb128 0x4
 2340 002c 24       		.uleb128 0x24
 2341 002d 00       		.byte	0
 2342 002e 0B       		.uleb128 0xb
 2343 002f 0B       		.uleb128 0xb
 2344 0030 3E       		.uleb128 0x3e
 2345 0031 0B       		.uleb128 0xb
 2346 0032 03       		.uleb128 0x3
 2347 0033 0E       		.uleb128 0xe
 2348 0034 00       		.byte	0
 2349 0035 00       		.byte	0
 2350 0036 05       		.uleb128 0x5
 2351 0037 13       		.uleb128 0x13
 2352 0038 01       		.byte	0x1
 2353 0039 03       		.uleb128 0x3
 2354 003a 0E       		.uleb128 0xe
 2355 003b 0B       		.uleb128 0xb
 2356 003c 0B       		.uleb128 0xb
 2357 003d 3A       		.uleb128 0x3a
ARM GAS  /tmp/ccJOLCOT.s 			page 73


 2358 003e 0B       		.uleb128 0xb
 2359 003f 3B       		.uleb128 0x3b
 2360 0040 0B       		.uleb128 0xb
 2361 0041 01       		.uleb128 0x1
 2362 0042 13       		.uleb128 0x13
 2363 0043 00       		.byte	0
 2364 0044 00       		.byte	0
 2365 0045 06       		.uleb128 0x6
 2366 0046 0D       		.uleb128 0xd
 2367 0047 00       		.byte	0
 2368 0048 03       		.uleb128 0x3
 2369 0049 0E       		.uleb128 0xe
 2370 004a 3A       		.uleb128 0x3a
 2371 004b 0B       		.uleb128 0xb
 2372 004c 3B       		.uleb128 0x3b
 2373 004d 0B       		.uleb128 0xb
 2374 004e 49       		.uleb128 0x49
 2375 004f 13       		.uleb128 0x13
 2376 0050 38       		.uleb128 0x38
 2377 0051 0B       		.uleb128 0xb
 2378 0052 00       		.byte	0
 2379 0053 00       		.byte	0
 2380 0054 07       		.uleb128 0x7
 2381 0055 0D       		.uleb128 0xd
 2382 0056 00       		.byte	0
 2383 0057 03       		.uleb128 0x3
 2384 0058 08       		.uleb128 0x8
 2385 0059 3A       		.uleb128 0x3a
 2386 005a 0B       		.uleb128 0xb
 2387 005b 3B       		.uleb128 0x3b
 2388 005c 0B       		.uleb128 0xb
 2389 005d 49       		.uleb128 0x49
 2390 005e 13       		.uleb128 0x13
 2391 005f 38       		.uleb128 0x38
 2392 0060 0B       		.uleb128 0xb
 2393 0061 00       		.byte	0
 2394 0062 00       		.byte	0
 2395 0063 08       		.uleb128 0x8
 2396 0064 0D       		.uleb128 0xd
 2397 0065 00       		.byte	0
 2398 0066 03       		.uleb128 0x3
 2399 0067 08       		.uleb128 0x8
 2400 0068 3A       		.uleb128 0x3a
 2401 0069 0B       		.uleb128 0xb
 2402 006a 3B       		.uleb128 0x3b
 2403 006b 05       		.uleb128 0x5
 2404 006c 49       		.uleb128 0x49
 2405 006d 13       		.uleb128 0x13
 2406 006e 38       		.uleb128 0x38
 2407 006f 0B       		.uleb128 0xb
 2408 0070 00       		.byte	0
 2409 0071 00       		.byte	0
 2410 0072 09       		.uleb128 0x9
 2411 0073 0D       		.uleb128 0xd
 2412 0074 00       		.byte	0
 2413 0075 03       		.uleb128 0x3
 2414 0076 0E       		.uleb128 0xe
ARM GAS  /tmp/ccJOLCOT.s 			page 74


 2415 0077 3A       		.uleb128 0x3a
 2416 0078 0B       		.uleb128 0xb
 2417 0079 3B       		.uleb128 0x3b
 2418 007a 05       		.uleb128 0x5
 2419 007b 49       		.uleb128 0x49
 2420 007c 13       		.uleb128 0x13
 2421 007d 38       		.uleb128 0x38
 2422 007e 0B       		.uleb128 0xb
 2423 007f 00       		.byte	0
 2424 0080 00       		.byte	0
 2425 0081 0A       		.uleb128 0xa
 2426 0082 0F       		.uleb128 0xf
 2427 0083 00       		.byte	0
 2428 0084 0B       		.uleb128 0xb
 2429 0085 0B       		.uleb128 0xb
 2430 0086 49       		.uleb128 0x49
 2431 0087 13       		.uleb128 0x13
 2432 0088 00       		.byte	0
 2433 0089 00       		.byte	0
 2434 008a 0B       		.uleb128 0xb
 2435 008b 13       		.uleb128 0x13
 2436 008c 01       		.byte	0x1
 2437 008d 03       		.uleb128 0x3
 2438 008e 0E       		.uleb128 0xe
 2439 008f 0B       		.uleb128 0xb
 2440 0090 0B       		.uleb128 0xb
 2441 0091 3A       		.uleb128 0x3a
 2442 0092 0B       		.uleb128 0xb
 2443 0093 3B       		.uleb128 0x3b
 2444 0094 05       		.uleb128 0x5
 2445 0095 01       		.uleb128 0x1
 2446 0096 13       		.uleb128 0x13
 2447 0097 00       		.byte	0
 2448 0098 00       		.byte	0
 2449 0099 0C       		.uleb128 0xc
 2450 009a 15       		.uleb128 0x15
 2451 009b 01       		.byte	0x1
 2452 009c 27       		.uleb128 0x27
 2453 009d 19       		.uleb128 0x19
 2454 009e 01       		.uleb128 0x1
 2455 009f 13       		.uleb128 0x13
 2456 00a0 00       		.byte	0
 2457 00a1 00       		.byte	0
 2458 00a2 0D       		.uleb128 0xd
 2459 00a3 05       		.uleb128 0x5
 2460 00a4 00       		.byte	0
 2461 00a5 49       		.uleb128 0x49
 2462 00a6 13       		.uleb128 0x13
 2463 00a7 00       		.byte	0
 2464 00a8 00       		.byte	0
 2465 00a9 0E       		.uleb128 0xe
 2466 00aa 0F       		.uleb128 0xf
 2467 00ab 00       		.byte	0
 2468 00ac 0B       		.uleb128 0xb
 2469 00ad 0B       		.uleb128 0xb
 2470 00ae 00       		.byte	0
 2471 00af 00       		.byte	0
ARM GAS  /tmp/ccJOLCOT.s 			page 75


 2472 00b0 0F       		.uleb128 0xf
 2473 00b1 35       		.uleb128 0x35
 2474 00b2 00       		.byte	0
 2475 00b3 49       		.uleb128 0x49
 2476 00b4 13       		.uleb128 0x13
 2477 00b5 00       		.byte	0
 2478 00b6 00       		.byte	0
 2479 00b7 10       		.uleb128 0x10
 2480 00b8 01       		.uleb128 0x1
 2481 00b9 01       		.byte	0x1
 2482 00ba 49       		.uleb128 0x49
 2483 00bb 13       		.uleb128 0x13
 2484 00bc 01       		.uleb128 0x1
 2485 00bd 13       		.uleb128 0x13
 2486 00be 00       		.byte	0
 2487 00bf 00       		.byte	0
 2488 00c0 11       		.uleb128 0x11
 2489 00c1 21       		.uleb128 0x21
 2490 00c2 00       		.byte	0
 2491 00c3 49       		.uleb128 0x49
 2492 00c4 13       		.uleb128 0x13
 2493 00c5 2F       		.uleb128 0x2f
 2494 00c6 0B       		.uleb128 0xb
 2495 00c7 00       		.byte	0
 2496 00c8 00       		.byte	0
 2497 00c9 12       		.uleb128 0x12
 2498 00ca 13       		.uleb128 0x13
 2499 00cb 01       		.byte	0x1
 2500 00cc 0B       		.uleb128 0xb
 2501 00cd 0B       		.uleb128 0xb
 2502 00ce 3A       		.uleb128 0x3a
 2503 00cf 0B       		.uleb128 0xb
 2504 00d0 3B       		.uleb128 0x3b
 2505 00d1 05       		.uleb128 0x5
 2506 00d2 01       		.uleb128 0x1
 2507 00d3 13       		.uleb128 0x13
 2508 00d4 00       		.byte	0
 2509 00d5 00       		.byte	0
 2510 00d6 13       		.uleb128 0x13
 2511 00d7 16       		.uleb128 0x16
 2512 00d8 00       		.byte	0
 2513 00d9 03       		.uleb128 0x3
 2514 00da 0E       		.uleb128 0xe
 2515 00db 3A       		.uleb128 0x3a
 2516 00dc 0B       		.uleb128 0xb
 2517 00dd 3B       		.uleb128 0x3b
 2518 00de 05       		.uleb128 0x5
 2519 00df 49       		.uleb128 0x49
 2520 00e0 13       		.uleb128 0x13
 2521 00e1 00       		.byte	0
 2522 00e2 00       		.byte	0
 2523 00e3 14       		.uleb128 0x14
 2524 00e4 17       		.uleb128 0x17
 2525 00e5 01       		.byte	0x1
 2526 00e6 0B       		.uleb128 0xb
 2527 00e7 0B       		.uleb128 0xb
 2528 00e8 3A       		.uleb128 0x3a
ARM GAS  /tmp/ccJOLCOT.s 			page 76


 2529 00e9 0B       		.uleb128 0xb
 2530 00ea 3B       		.uleb128 0x3b
 2531 00eb 0B       		.uleb128 0xb
 2532 00ec 01       		.uleb128 0x1
 2533 00ed 13       		.uleb128 0x13
 2534 00ee 00       		.byte	0
 2535 00ef 00       		.byte	0
 2536 00f0 15       		.uleb128 0x15
 2537 00f1 0D       		.uleb128 0xd
 2538 00f2 00       		.byte	0
 2539 00f3 03       		.uleb128 0x3
 2540 00f4 0E       		.uleb128 0xe
 2541 00f5 3A       		.uleb128 0x3a
 2542 00f6 0B       		.uleb128 0xb
 2543 00f7 3B       		.uleb128 0x3b
 2544 00f8 0B       		.uleb128 0xb
 2545 00f9 49       		.uleb128 0x49
 2546 00fa 13       		.uleb128 0x13
 2547 00fb 00       		.byte	0
 2548 00fc 00       		.byte	0
 2549 00fd 16       		.uleb128 0x16
 2550 00fe 0D       		.uleb128 0xd
 2551 00ff 00       		.byte	0
 2552 0100 03       		.uleb128 0x3
 2553 0101 0E       		.uleb128 0xe
 2554 0102 3A       		.uleb128 0x3a
 2555 0103 0B       		.uleb128 0xb
 2556 0104 3B       		.uleb128 0x3b
 2557 0105 05       		.uleb128 0x5
 2558 0106 49       		.uleb128 0x49
 2559 0107 13       		.uleb128 0x13
 2560 0108 00       		.byte	0
 2561 0109 00       		.byte	0
 2562 010a 17       		.uleb128 0x17
 2563 010b 26       		.uleb128 0x26
 2564 010c 00       		.byte	0
 2565 010d 49       		.uleb128 0x49
 2566 010e 13       		.uleb128 0x13
 2567 010f 00       		.byte	0
 2568 0110 00       		.byte	0
 2569 0111 18       		.uleb128 0x18
 2570 0112 15       		.uleb128 0x15
 2571 0113 00       		.byte	0
 2572 0114 27       		.uleb128 0x27
 2573 0115 19       		.uleb128 0x19
 2574 0116 00       		.byte	0
 2575 0117 00       		.byte	0
 2576 0118 19       		.uleb128 0x19
 2577 0119 13       		.uleb128 0x13
 2578 011a 01       		.byte	0x1
 2579 011b 0B       		.uleb128 0xb
 2580 011c 0B       		.uleb128 0xb
 2581 011d 3A       		.uleb128 0x3a
 2582 011e 0B       		.uleb128 0xb
 2583 011f 3B       		.uleb128 0x3b
 2584 0120 0B       		.uleb128 0xb
 2585 0121 01       		.uleb128 0x1
ARM GAS  /tmp/ccJOLCOT.s 			page 77


 2586 0122 13       		.uleb128 0x13
 2587 0123 00       		.byte	0
 2588 0124 00       		.byte	0
 2589 0125 1A       		.uleb128 0x1a
 2590 0126 2E       		.uleb128 0x2e
 2591 0127 01       		.byte	0x1
 2592 0128 03       		.uleb128 0x3
 2593 0129 0E       		.uleb128 0xe
 2594 012a 3A       		.uleb128 0x3a
 2595 012b 0B       		.uleb128 0xb
 2596 012c 3B       		.uleb128 0x3b
 2597 012d 05       		.uleb128 0x5
 2598 012e 27       		.uleb128 0x27
 2599 012f 19       		.uleb128 0x19
 2600 0130 20       		.uleb128 0x20
 2601 0131 0B       		.uleb128 0xb
 2602 0132 01       		.uleb128 0x1
 2603 0133 13       		.uleb128 0x13
 2604 0134 00       		.byte	0
 2605 0135 00       		.byte	0
 2606 0136 1B       		.uleb128 0x1b
 2607 0137 05       		.uleb128 0x5
 2608 0138 00       		.byte	0
 2609 0139 03       		.uleb128 0x3
 2610 013a 0E       		.uleb128 0xe
 2611 013b 3A       		.uleb128 0x3a
 2612 013c 0B       		.uleb128 0xb
 2613 013d 3B       		.uleb128 0x3b
 2614 013e 05       		.uleb128 0x5
 2615 013f 49       		.uleb128 0x49
 2616 0140 13       		.uleb128 0x13
 2617 0141 00       		.byte	0
 2618 0142 00       		.byte	0
 2619 0143 1C       		.uleb128 0x1c
 2620 0144 2E       		.uleb128 0x2e
 2621 0145 00       		.byte	0
 2622 0146 03       		.uleb128 0x3
 2623 0147 0E       		.uleb128 0xe
 2624 0148 3A       		.uleb128 0x3a
 2625 0149 0B       		.uleb128 0xb
 2626 014a 3B       		.uleb128 0x3b
 2627 014b 0B       		.uleb128 0xb
 2628 014c 27       		.uleb128 0x27
 2629 014d 19       		.uleb128 0x19
 2630 014e 49       		.uleb128 0x49
 2631 014f 13       		.uleb128 0x13
 2632 0150 20       		.uleb128 0x20
 2633 0151 0B       		.uleb128 0xb
 2634 0152 00       		.byte	0
 2635 0153 00       		.byte	0
 2636 0154 1D       		.uleb128 0x1d
 2637 0155 2E       		.uleb128 0x2e
 2638 0156 00       		.byte	0
 2639 0157 03       		.uleb128 0x3
 2640 0158 0E       		.uleb128 0xe
 2641 0159 3A       		.uleb128 0x3a
 2642 015a 0B       		.uleb128 0xb
ARM GAS  /tmp/ccJOLCOT.s 			page 78


 2643 015b 3B       		.uleb128 0x3b
 2644 015c 05       		.uleb128 0x5
 2645 015d 27       		.uleb128 0x27
 2646 015e 19       		.uleb128 0x19
 2647 015f 20       		.uleb128 0x20
 2648 0160 0B       		.uleb128 0xb
 2649 0161 00       		.byte	0
 2650 0162 00       		.byte	0
 2651 0163 1E       		.uleb128 0x1e
 2652 0164 2E       		.uleb128 0x2e
 2653 0165 00       		.byte	0
 2654 0166 03       		.uleb128 0x3
 2655 0167 0E       		.uleb128 0xe
 2656 0168 3A       		.uleb128 0x3a
 2657 0169 0B       		.uleb128 0xb
 2658 016a 3B       		.uleb128 0x3b
 2659 016b 05       		.uleb128 0x5
 2660 016c 27       		.uleb128 0x27
 2661 016d 19       		.uleb128 0x19
 2662 016e 49       		.uleb128 0x49
 2663 016f 13       		.uleb128 0x13
 2664 0170 20       		.uleb128 0x20
 2665 0171 0B       		.uleb128 0xb
 2666 0172 00       		.byte	0
 2667 0173 00       		.byte	0
 2668 0174 1F       		.uleb128 0x1f
 2669 0175 34       		.uleb128 0x34
 2670 0176 00       		.byte	0
 2671 0177 03       		.uleb128 0x3
 2672 0178 0E       		.uleb128 0xe
 2673 0179 49       		.uleb128 0x49
 2674 017a 13       		.uleb128 0x13
 2675 017b 34       		.uleb128 0x34
 2676 017c 19       		.uleb128 0x19
 2677 017d 1C       		.uleb128 0x1c
 2678 017e 0E       		.uleb128 0xe
 2679 017f 00       		.byte	0
 2680 0180 00       		.byte	0
 2681 0181 20       		.uleb128 0x20
 2682 0182 2E       		.uleb128 0x2e
 2683 0183 01       		.byte	0x1
 2684 0184 03       		.uleb128 0x3
 2685 0185 0E       		.uleb128 0xe
 2686 0186 3A       		.uleb128 0x3a
 2687 0187 0B       		.uleb128 0xb
 2688 0188 3B       		.uleb128 0x3b
 2689 0189 05       		.uleb128 0x5
 2690 018a 27       		.uleb128 0x27
 2691 018b 19       		.uleb128 0x19
 2692 018c 49       		.uleb128 0x49
 2693 018d 13       		.uleb128 0x13
 2694 018e 20       		.uleb128 0x20
 2695 018f 0B       		.uleb128 0xb
 2696 0190 01       		.uleb128 0x1
 2697 0191 13       		.uleb128 0x13
 2698 0192 00       		.byte	0
 2699 0193 00       		.byte	0
ARM GAS  /tmp/ccJOLCOT.s 			page 79


 2700 0194 21       		.uleb128 0x21
 2701 0195 34       		.uleb128 0x34
 2702 0196 00       		.byte	0
 2703 0197 03       		.uleb128 0x3
 2704 0198 0E       		.uleb128 0xe
 2705 0199 3A       		.uleb128 0x3a
 2706 019a 0B       		.uleb128 0xb
 2707 019b 3B       		.uleb128 0x3b
 2708 019c 05       		.uleb128 0x5
 2709 019d 49       		.uleb128 0x49
 2710 019e 13       		.uleb128 0x13
 2711 019f 00       		.byte	0
 2712 01a0 00       		.byte	0
 2713 01a1 22       		.uleb128 0x22
 2714 01a2 2E       		.uleb128 0x2e
 2715 01a3 01       		.byte	0x1
 2716 01a4 3F       		.uleb128 0x3f
 2717 01a5 19       		.uleb128 0x19
 2718 01a6 03       		.uleb128 0x3
 2719 01a7 0E       		.uleb128 0xe
 2720 01a8 3A       		.uleb128 0x3a
 2721 01a9 0B       		.uleb128 0xb
 2722 01aa 3B       		.uleb128 0x3b
 2723 01ab 0B       		.uleb128 0xb
 2724 01ac 27       		.uleb128 0x27
 2725 01ad 19       		.uleb128 0x19
 2726 01ae 11       		.uleb128 0x11
 2727 01af 01       		.uleb128 0x1
 2728 01b0 12       		.uleb128 0x12
 2729 01b1 06       		.uleb128 0x6
 2730 01b2 40       		.uleb128 0x40
 2731 01b3 18       		.uleb128 0x18
 2732 01b4 9742     		.uleb128 0x2117
 2733 01b6 19       		.uleb128 0x19
 2734 01b7 01       		.uleb128 0x1
 2735 01b8 13       		.uleb128 0x13
 2736 01b9 00       		.byte	0
 2737 01ba 00       		.byte	0
 2738 01bb 23       		.uleb128 0x23
 2739 01bc 898201   		.uleb128 0x4109
 2740 01bf 01       		.byte	0x1
 2741 01c0 11       		.uleb128 0x11
 2742 01c1 01       		.uleb128 0x1
 2743 01c2 31       		.uleb128 0x31
 2744 01c3 13       		.uleb128 0x13
 2745 01c4 01       		.uleb128 0x1
 2746 01c5 13       		.uleb128 0x13
 2747 01c6 00       		.byte	0
 2748 01c7 00       		.byte	0
 2749 01c8 24       		.uleb128 0x24
 2750 01c9 8A8201   		.uleb128 0x410a
 2751 01cc 00       		.byte	0
 2752 01cd 02       		.uleb128 0x2
 2753 01ce 18       		.uleb128 0x18
 2754 01cf 9142     		.uleb128 0x2111
 2755 01d1 18       		.uleb128 0x18
 2756 01d2 00       		.byte	0
ARM GAS  /tmp/ccJOLCOT.s 			page 80


 2757 01d3 00       		.byte	0
 2758 01d4 25       		.uleb128 0x25
 2759 01d5 898201   		.uleb128 0x4109
 2760 01d8 01       		.byte	0x1
 2761 01d9 11       		.uleb128 0x11
 2762 01da 01       		.uleb128 0x1
 2763 01db 9542     		.uleb128 0x2115
 2764 01dd 19       		.uleb128 0x19
 2765 01de 31       		.uleb128 0x31
 2766 01df 13       		.uleb128 0x13
 2767 01e0 00       		.byte	0
 2768 01e1 00       		.byte	0
 2769 01e2 26       		.uleb128 0x26
 2770 01e3 34       		.uleb128 0x34
 2771 01e4 00       		.byte	0
 2772 01e5 03       		.uleb128 0x3
 2773 01e6 08       		.uleb128 0x8
 2774 01e7 3A       		.uleb128 0x3a
 2775 01e8 0B       		.uleb128 0xb
 2776 01e9 3B       		.uleb128 0x3b
 2777 01ea 0B       		.uleb128 0xb
 2778 01eb 49       		.uleb128 0x49
 2779 01ec 13       		.uleb128 0x13
 2780 01ed 02       		.uleb128 0x2
 2781 01ee 17       		.uleb128 0x17
 2782 01ef 00       		.byte	0
 2783 01f0 00       		.byte	0
 2784 01f1 27       		.uleb128 0x27
 2785 01f2 898201   		.uleb128 0x4109
 2786 01f5 00       		.byte	0
 2787 01f6 11       		.uleb128 0x11
 2788 01f7 01       		.uleb128 0x1
 2789 01f8 31       		.uleb128 0x31
 2790 01f9 13       		.uleb128 0x13
 2791 01fa 00       		.byte	0
 2792 01fb 00       		.byte	0
 2793 01fc 28       		.uleb128 0x28
 2794 01fd 2E       		.uleb128 0x2e
 2795 01fe 01       		.byte	0x1
 2796 01ff 3F       		.uleb128 0x3f
 2797 0200 19       		.uleb128 0x19
 2798 0201 03       		.uleb128 0x3
 2799 0202 0E       		.uleb128 0xe
 2800 0203 3A       		.uleb128 0x3a
 2801 0204 0B       		.uleb128 0xb
 2802 0205 3B       		.uleb128 0x3b
 2803 0206 0B       		.uleb128 0xb
 2804 0207 27       		.uleb128 0x27
 2805 0208 19       		.uleb128 0x19
 2806 0209 49       		.uleb128 0x49
 2807 020a 13       		.uleb128 0x13
 2808 020b 11       		.uleb128 0x11
 2809 020c 01       		.uleb128 0x1
 2810 020d 12       		.uleb128 0x12
 2811 020e 06       		.uleb128 0x6
 2812 020f 40       		.uleb128 0x40
 2813 0210 18       		.uleb128 0x18
ARM GAS  /tmp/ccJOLCOT.s 			page 81


 2814 0211 9742     		.uleb128 0x2117
 2815 0213 19       		.uleb128 0x19
 2816 0214 01       		.uleb128 0x1
 2817 0215 13       		.uleb128 0x13
 2818 0216 00       		.byte	0
 2819 0217 00       		.byte	0
 2820 0218 29       		.uleb128 0x29
 2821 0219 1D       		.uleb128 0x1d
 2822 021a 01       		.byte	0x1
 2823 021b 31       		.uleb128 0x31
 2824 021c 13       		.uleb128 0x13
 2825 021d 11       		.uleb128 0x11
 2826 021e 01       		.uleb128 0x1
 2827 021f 12       		.uleb128 0x12
 2828 0220 06       		.uleb128 0x6
 2829 0221 58       		.uleb128 0x58
 2830 0222 0B       		.uleb128 0xb
 2831 0223 59       		.uleb128 0x59
 2832 0224 0B       		.uleb128 0xb
 2833 0225 01       		.uleb128 0x1
 2834 0226 13       		.uleb128 0x13
 2835 0227 00       		.byte	0
 2836 0228 00       		.byte	0
 2837 0229 2A       		.uleb128 0x2a
 2838 022a 0B       		.uleb128 0xb
 2839 022b 01       		.byte	0x1
 2840 022c 11       		.uleb128 0x11
 2841 022d 01       		.uleb128 0x1
 2842 022e 12       		.uleb128 0x12
 2843 022f 06       		.uleb128 0x6
 2844 0230 00       		.byte	0
 2845 0231 00       		.byte	0
 2846 0232 2B       		.uleb128 0x2b
 2847 0233 34       		.uleb128 0x34
 2848 0234 00       		.byte	0
 2849 0235 31       		.uleb128 0x31
 2850 0236 13       		.uleb128 0x13
 2851 0237 00       		.byte	0
 2852 0238 00       		.byte	0
 2853 0239 2C       		.uleb128 0x2c
 2854 023a 1D       		.uleb128 0x1d
 2855 023b 01       		.byte	0x1
 2856 023c 31       		.uleb128 0x31
 2857 023d 13       		.uleb128 0x13
 2858 023e 11       		.uleb128 0x11
 2859 023f 01       		.uleb128 0x1
 2860 0240 12       		.uleb128 0x12
 2861 0241 06       		.uleb128 0x6
 2862 0242 58       		.uleb128 0x58
 2863 0243 0B       		.uleb128 0xb
 2864 0244 59       		.uleb128 0x59
 2865 0245 05       		.uleb128 0x5
 2866 0246 01       		.uleb128 0x1
 2867 0247 13       		.uleb128 0x13
 2868 0248 00       		.byte	0
 2869 0249 00       		.byte	0
 2870 024a 2D       		.uleb128 0x2d
ARM GAS  /tmp/ccJOLCOT.s 			page 82


 2871 024b 1D       		.uleb128 0x1d
 2872 024c 01       		.byte	0x1
 2873 024d 31       		.uleb128 0x31
 2874 024e 13       		.uleb128 0x13
 2875 024f 11       		.uleb128 0x11
 2876 0250 01       		.uleb128 0x1
 2877 0251 12       		.uleb128 0x12
 2878 0252 06       		.uleb128 0x6
 2879 0253 58       		.uleb128 0x58
 2880 0254 0B       		.uleb128 0xb
 2881 0255 59       		.uleb128 0x59
 2882 0256 05       		.uleb128 0x5
 2883 0257 00       		.byte	0
 2884 0258 00       		.byte	0
 2885 0259 2E       		.uleb128 0x2e
 2886 025a 05       		.uleb128 0x5
 2887 025b 00       		.byte	0
 2888 025c 31       		.uleb128 0x31
 2889 025d 13       		.uleb128 0x13
 2890 025e 1C       		.uleb128 0x1c
 2891 025f 0B       		.uleb128 0xb
 2892 0260 00       		.byte	0
 2893 0261 00       		.byte	0
 2894 0262 2F       		.uleb128 0x2f
 2895 0263 1D       		.uleb128 0x1d
 2896 0264 00       		.byte	0
 2897 0265 31       		.uleb128 0x31
 2898 0266 13       		.uleb128 0x13
 2899 0267 11       		.uleb128 0x11
 2900 0268 01       		.uleb128 0x1
 2901 0269 12       		.uleb128 0x12
 2902 026a 06       		.uleb128 0x6
 2903 026b 58       		.uleb128 0x58
 2904 026c 0B       		.uleb128 0xb
 2905 026d 59       		.uleb128 0x59
 2906 026e 0B       		.uleb128 0xb
 2907 026f 00       		.byte	0
 2908 0270 00       		.byte	0
 2909 0271 30       		.uleb128 0x30
 2910 0272 898201   		.uleb128 0x4109
 2911 0275 01       		.byte	0x1
 2912 0276 11       		.uleb128 0x11
 2913 0277 01       		.uleb128 0x1
 2914 0278 31       		.uleb128 0x31
 2915 0279 13       		.uleb128 0x13
 2916 027a 00       		.byte	0
 2917 027b 00       		.byte	0
 2918 027c 31       		.uleb128 0x31
 2919 027d 34       		.uleb128 0x34
 2920 027e 00       		.byte	0
 2921 027f 03       		.uleb128 0x3
 2922 0280 0E       		.uleb128 0xe
 2923 0281 3A       		.uleb128 0x3a
 2924 0282 0B       		.uleb128 0xb
 2925 0283 3B       		.uleb128 0x3b
 2926 0284 05       		.uleb128 0x5
 2927 0285 49       		.uleb128 0x49
ARM GAS  /tmp/ccJOLCOT.s 			page 83


 2928 0286 13       		.uleb128 0x13
 2929 0287 3F       		.uleb128 0x3f
 2930 0288 19       		.uleb128 0x19
 2931 0289 3C       		.uleb128 0x3c
 2932 028a 19       		.uleb128 0x19
 2933 028b 00       		.byte	0
 2934 028c 00       		.byte	0
 2935 028d 32       		.uleb128 0x32
 2936 028e 34       		.uleb128 0x34
 2937 028f 00       		.byte	0
 2938 0290 03       		.uleb128 0x3
 2939 0291 08       		.uleb128 0x8
 2940 0292 3A       		.uleb128 0x3a
 2941 0293 0B       		.uleb128 0xb
 2942 0294 3B       		.uleb128 0x3b
 2943 0295 05       		.uleb128 0x5
 2944 0296 49       		.uleb128 0x49
 2945 0297 13       		.uleb128 0x13
 2946 0298 3F       		.uleb128 0x3f
 2947 0299 19       		.uleb128 0x19
 2948 029a 3C       		.uleb128 0x3c
 2949 029b 19       		.uleb128 0x19
 2950 029c 00       		.byte	0
 2951 029d 00       		.byte	0
 2952 029e 33       		.uleb128 0x33
 2953 029f 21       		.uleb128 0x21
 2954 02a0 00       		.byte	0
 2955 02a1 00       		.byte	0
 2956 02a2 00       		.byte	0
 2957 02a3 34       		.uleb128 0x34
 2958 02a4 34       		.uleb128 0x34
 2959 02a5 00       		.byte	0
 2960 02a6 03       		.uleb128 0x3
 2961 02a7 0E       		.uleb128 0xe
 2962 02a8 3A       		.uleb128 0x3a
 2963 02a9 0B       		.uleb128 0xb
 2964 02aa 3B       		.uleb128 0x3b
 2965 02ab 0B       		.uleb128 0xb
 2966 02ac 49       		.uleb128 0x49
 2967 02ad 13       		.uleb128 0x13
 2968 02ae 3F       		.uleb128 0x3f
 2969 02af 19       		.uleb128 0x19
 2970 02b0 3C       		.uleb128 0x3c
 2971 02b1 19       		.uleb128 0x19
 2972 02b2 00       		.byte	0
 2973 02b3 00       		.byte	0
 2974 02b4 35       		.uleb128 0x35
 2975 02b5 34       		.uleb128 0x34
 2976 02b6 00       		.byte	0
 2977 02b7 03       		.uleb128 0x3
 2978 02b8 0E       		.uleb128 0xe
 2979 02b9 3A       		.uleb128 0x3a
 2980 02ba 0B       		.uleb128 0xb
 2981 02bb 3B       		.uleb128 0x3b
 2982 02bc 0B       		.uleb128 0xb
 2983 02bd 49       		.uleb128 0x49
 2984 02be 13       		.uleb128 0x13
ARM GAS  /tmp/ccJOLCOT.s 			page 84


 2985 02bf 3F       		.uleb128 0x3f
 2986 02c0 19       		.uleb128 0x19
 2987 02c1 02       		.uleb128 0x2
 2988 02c2 18       		.uleb128 0x18
 2989 02c3 00       		.byte	0
 2990 02c4 00       		.byte	0
 2991 02c5 36       		.uleb128 0x36
 2992 02c6 21       		.uleb128 0x21
 2993 02c7 00       		.byte	0
 2994 02c8 49       		.uleb128 0x49
 2995 02c9 13       		.uleb128 0x13
 2996 02ca 2F       		.uleb128 0x2f
 2997 02cb 05       		.uleb128 0x5
 2998 02cc 00       		.byte	0
 2999 02cd 00       		.byte	0
 3000 02ce 37       		.uleb128 0x37
 3001 02cf 34       		.uleb128 0x34
 3002 02d0 00       		.byte	0
 3003 02d1 03       		.uleb128 0x3
 3004 02d2 08       		.uleb128 0x8
 3005 02d3 3A       		.uleb128 0x3a
 3006 02d4 0B       		.uleb128 0xb
 3007 02d5 3B       		.uleb128 0x3b
 3008 02d6 0B       		.uleb128 0xb
 3009 02d7 49       		.uleb128 0x49
 3010 02d8 13       		.uleb128 0x13
 3011 02d9 3F       		.uleb128 0x3f
 3012 02da 19       		.uleb128 0x19
 3013 02db 02       		.uleb128 0x2
 3014 02dc 18       		.uleb128 0x18
 3015 02dd 00       		.byte	0
 3016 02de 00       		.byte	0
 3017 02df 38       		.uleb128 0x38
 3018 02e0 2E       		.uleb128 0x2e
 3019 02e1 01       		.byte	0x1
 3020 02e2 3F       		.uleb128 0x3f
 3021 02e3 19       		.uleb128 0x19
 3022 02e4 03       		.uleb128 0x3
 3023 02e5 0E       		.uleb128 0xe
 3024 02e6 3A       		.uleb128 0x3a
 3025 02e7 0B       		.uleb128 0xb
 3026 02e8 3B       		.uleb128 0x3b
 3027 02e9 0B       		.uleb128 0xb
 3028 02ea 27       		.uleb128 0x27
 3029 02eb 19       		.uleb128 0x19
 3030 02ec 3C       		.uleb128 0x3c
 3031 02ed 19       		.uleb128 0x19
 3032 02ee 01       		.uleb128 0x1
 3033 02ef 13       		.uleb128 0x13
 3034 02f0 00       		.byte	0
 3035 02f1 00       		.byte	0
 3036 02f2 39       		.uleb128 0x39
 3037 02f3 2E       		.uleb128 0x2e
 3038 02f4 01       		.byte	0x1
 3039 02f5 3F       		.uleb128 0x3f
 3040 02f6 19       		.uleb128 0x19
 3041 02f7 03       		.uleb128 0x3
ARM GAS  /tmp/ccJOLCOT.s 			page 85


 3042 02f8 0E       		.uleb128 0xe
 3043 02f9 3A       		.uleb128 0x3a
 3044 02fa 0B       		.uleb128 0xb
 3045 02fb 3B       		.uleb128 0x3b
 3046 02fc 05       		.uleb128 0x5
 3047 02fd 27       		.uleb128 0x27
 3048 02fe 19       		.uleb128 0x19
 3049 02ff 3C       		.uleb128 0x3c
 3050 0300 19       		.uleb128 0x19
 3051 0301 01       		.uleb128 0x1
 3052 0302 13       		.uleb128 0x13
 3053 0303 00       		.byte	0
 3054 0304 00       		.byte	0
 3055 0305 3A       		.uleb128 0x3a
 3056 0306 2E       		.uleb128 0x2e
 3057 0307 01       		.byte	0x1
 3058 0308 3F       		.uleb128 0x3f
 3059 0309 19       		.uleb128 0x19
 3060 030a 03       		.uleb128 0x3
 3061 030b 0E       		.uleb128 0xe
 3062 030c 3A       		.uleb128 0x3a
 3063 030d 0B       		.uleb128 0xb
 3064 030e 3B       		.uleb128 0x3b
 3065 030f 0B       		.uleb128 0xb
 3066 0310 27       		.uleb128 0x27
 3067 0311 19       		.uleb128 0x19
 3068 0312 49       		.uleb128 0x49
 3069 0313 13       		.uleb128 0x13
 3070 0314 3C       		.uleb128 0x3c
 3071 0315 19       		.uleb128 0x19
 3072 0316 01       		.uleb128 0x1
 3073 0317 13       		.uleb128 0x13
 3074 0318 00       		.byte	0
 3075 0319 00       		.byte	0
 3076 031a 3B       		.uleb128 0x3b
 3077 031b 2E       		.uleb128 0x2e
 3078 031c 01       		.byte	0x1
 3079 031d 3F       		.uleb128 0x3f
 3080 031e 19       		.uleb128 0x19
 3081 031f 03       		.uleb128 0x3
 3082 0320 0E       		.uleb128 0xe
 3083 0321 3A       		.uleb128 0x3a
 3084 0322 0B       		.uleb128 0xb
 3085 0323 3B       		.uleb128 0x3b
 3086 0324 05       		.uleb128 0x5
 3087 0325 27       		.uleb128 0x27
 3088 0326 19       		.uleb128 0x19
 3089 0327 3C       		.uleb128 0x3c
 3090 0328 19       		.uleb128 0x19
 3091 0329 00       		.byte	0
 3092 032a 00       		.byte	0
 3093 032b 00       		.byte	0
 3094              		.section	.debug_loc,"",%progbits
 3095              	.Ldebug_loc0:
 3096              	.LLST0:
 3097 0000 00000000 		.4byte	.LVL8
 3098 0004 08000000 		.4byte	.LVL9
ARM GAS  /tmp/ccJOLCOT.s 			page 86


 3099 0008 0200     		.2byte	0x2
 3100 000a 30       		.byte	0x30
 3101 000b 9F       		.byte	0x9f
 3102 000c 00000000 		.4byte	0
 3103 0010 00000000 		.4byte	0
 3104              	.LLST1:
 3105 0014 00000000 		.4byte	.LVL11
 3106 0018 10000000 		.4byte	.LVL12
 3107 001c 0200     		.2byte	0x2
 3108 001e 30       		.byte	0x30
 3109 001f 9F       		.byte	0x9f
 3110 0020 00000000 		.4byte	0
 3111 0024 00000000 		.4byte	0
 3112              		.section	.debug_aranges,"",%progbits
 3113 0000 34000000 		.4byte	0x34
 3114 0004 0200     		.2byte	0x2
 3115 0006 00000000 		.4byte	.Ldebug_info0
 3116 000a 04       		.byte	0x4
 3117 000b 00       		.byte	0
 3118 000c 0000     		.2byte	0
 3119 000e 0000     		.2byte	0
 3120 0010 00000000 		.4byte	.LFB219
 3121 0014 66000000 		.4byte	.LFE219-.LFB219
 3122 0018 00000000 		.4byte	.LFB220
 3123 001c 20000000 		.4byte	.LFE220-.LFB220
 3124 0020 00000000 		.4byte	.LFB221
 3125 0024 26000000 		.4byte	.LFE221-.LFB221
 3126 0028 00000000 		.4byte	.LFB222
 3127 002c 1E000000 		.4byte	.LFE222-.LFB222
 3128 0030 00000000 		.4byte	0
 3129 0034 00000000 		.4byte	0
 3130              		.section	.debug_ranges,"",%progbits
 3131              	.Ldebug_ranges0:
 3132 0000 00000000 		.4byte	.LFB219
 3133 0004 66000000 		.4byte	.LFE219
 3134 0008 00000000 		.4byte	.LFB220
 3135 000c 20000000 		.4byte	.LFE220
 3136 0010 00000000 		.4byte	.LFB221
 3137 0014 26000000 		.4byte	.LFE221
 3138 0018 00000000 		.4byte	.LFB222
 3139 001c 1E000000 		.4byte	.LFE222
 3140 0020 00000000 		.4byte	0
 3141 0024 00000000 		.4byte	0
 3142              		.section	.debug_line,"",%progbits
 3143              	.Ldebug_line0:
 3144 0000 03040000 		.section	.debug_str,"MS",%progbits,1
 3144      02008B03 
 3144      00000201 
 3144      FB0E0D00 
 3144      01010101 
 3145              	.LASF52:
 3146 0000 72656164 		.ascii	"ready_list_t\000"
 3146      795F6C69 
 3146      73745F74 
 3146      00
 3147              	.LASF77:
 3148 000d 44494552 		.ascii	"DIER\000"
ARM GAS  /tmp/ccJOLCOT.s 			page 87


 3148      00
 3149              	.LASF2:
 3150 0012 73697A65 		.ascii	"size_t\000"
 3150      5F7400
 3151              	.LASF48:
 3152 0019 6E657874 		.ascii	"next\000"
 3152      00
 3153              	.LASF58:
 3154 001e 64656C74 		.ascii	"delta\000"
 3154      6100
 3155              	.LASF86:
 3156 0024 7264796D 		.ascii	"rdymsg\000"
 3156      736700
 3157              	.LASF127:
 3158 002b 74657374 		.ascii	"test_sequence_010\000"
 3158      5F736571 
 3158      75656E63 
 3158      655F3031 
 3158      3000
 3159              	.LASF128:
 3160 003d 74657374 		.ascii	"test_sequence_011\000"
 3160      5F736571 
 3160      75656E63 
 3160      655F3031 
 3160      3100
 3161              	.LASF129:
 3162 004f 74657374 		.ascii	"test_sequence_012\000"
 3162      5F736571 
 3162      75656E63 
 3162      655F3031 
 3162      3200
 3163              	.LASF130:
 3164 0061 74657374 		.ascii	"test_sequence_013\000"
 3164      5F736571 
 3164      75656E63 
 3164      655F3031 
 3164      3300
 3165              	.LASF3:
 3166 0073 5F5F7569 		.ascii	"__uint8_t\000"
 3166      6E74385F 
 3166      7400
 3167              	.LASF51:
 3168 007d 70726576 		.ascii	"prev\000"
 3168      00
 3169              	.LASF75:
 3170 0082 706F7274 		.ascii	"port_intctx\000"
 3170      5F696E74 
 3170      63747800 
 3171              	.LASF63:
 3172 008e 73797374 		.ascii	"system_debug_t\000"
 3172      656D5F64 
 3172      65627567 
 3172      5F7400
 3173              	.LASF104:
 3174 009d 706F7274 		.ascii	"port_lock\000"
 3174      5F6C6F63 
 3174      6B00
ARM GAS  /tmp/ccJOLCOT.s 			page 88


 3175              	.LASF14:
 3176 00a7 6C6F6E67 		.ascii	"long long unsigned int\000"
 3176      206C6F6E 
 3176      6720756E 
 3176      7369676E 
 3176      65642069 
 3177              	.LASF87:
 3178 00be 65786974 		.ascii	"exitcode\000"
 3178      636F6465 
 3178      00
 3179              	.LASF70:
 3180 00c7 6D61696E 		.ascii	"mainthread\000"
 3180      74687265 
 3180      616400
 3181              	.LASF90:
 3182 00d2 73656E74 		.ascii	"sentmsg\000"
 3182      6D736700 
 3183              	.LASF60:
 3184 00da 76697274 		.ascii	"virtual_timers_list_t\000"
 3184      75616C5F 
 3184      74696D65 
 3184      72735F6C 
 3184      6973745F 
 3185              	.LASF117:
 3186 00f0 49544D5F 		.ascii	"ITM_RxBuffer\000"
 3186      52784275 
 3186      66666572 
 3186      00
 3187              	.LASF81:
 3188 00fd 42445452 		.ascii	"BDTR\000"
 3188      00
 3189              	.LASF50:
 3190 0102 63685F74 		.ascii	"ch_threads_queue\000"
 3190      68726561 
 3190      64735F71 
 3190      75657565 
 3190      00
 3191              	.LASF78:
 3192 0113 43434D52 		.ascii	"CCMR1\000"
 3192      3100
 3193              	.LASF79:
 3194 0119 43434D52 		.ascii	"CCMR2\000"
 3194      3200
 3195              	.LASF83:
 3196 011f 43434D52 		.ascii	"CCMR3\000"
 3196      3300
 3197              	.LASF1:
 3198 0125 7369676E 		.ascii	"signed char\000"
 3198      65642063 
 3198      68617200 
 3199              	.LASF135:
 3200 0131 74657374 		.ascii	"test_println\000"
 3200      5F707269 
 3200      6E746C6E 
 3200      00
 3201              	.LASF69:
 3202 013e 76746C69 		.ascii	"vtlist\000"
ARM GAS  /tmp/ccJOLCOT.s 			page 89


 3202      737400
 3203              	.LASF105:
 3204 0145 706F7274 		.ascii	"port_unlock\000"
 3204      5F756E6C 
 3204      6F636B00 
 3205              	.LASF39:
 3206 0151 6D736771 		.ascii	"msgqueue\000"
 3206      75657565 
 3206      00
 3207              	.LASF35:
 3208 015a 73746174 		.ascii	"state\000"
 3208      6500
 3209              	.LASF9:
 3210 0160 6C6F6E67 		.ascii	"long int\000"
 3210      20696E74 
 3210      00
 3211              	.LASF21:
 3212 0169 74737461 		.ascii	"tstate_t\000"
 3212      74655F74 
 3212      00
 3213              	.LASF59:
 3214 0172 66756E63 		.ascii	"func\000"
 3214      00
 3215              	.LASF80:
 3216 0177 43434552 		.ascii	"CCER\000"
 3216      00
 3217              	.LASF12:
 3218 017c 6C6F6E67 		.ascii	"long long int\000"
 3218      206C6F6E 
 3218      6720696E 
 3218      7400
 3219              	.LASF16:
 3220 018a 75696E74 		.ascii	"uint16_t\000"
 3220      31365F74 
 3220      00
 3221              	.LASF136:
 3222 0193 63685468 		.ascii	"chThdTerminate\000"
 3222      64546572 
 3222      6D696E61 
 3222      746500
 3223              	.LASF32:
 3224 01a2 6F6C6465 		.ascii	"older\000"
 3224      7200
 3225              	.LASF10:
 3226 01a8 5F5F7569 		.ascii	"__uint32_t\000"
 3226      6E743332 
 3226      5F7400
 3227              	.LASF72:
 3228 01b3 72656761 		.ascii	"regarm_t\000"
 3228      726D5F74 
 3228      00
 3229              	.LASF64:
 3230 01bc 63685F73 		.ascii	"ch_system_debug\000"
 3230      79737465 
 3230      6D5F6465 
 3230      62756700 
 3231              	.LASF38:
ARM GAS  /tmp/ccJOLCOT.s 			page 90


 3232 01cc 77616974 		.ascii	"waiting\000"
 3232      696E6700 
 3233              	.LASF98:
 3234 01d4 6D757465 		.ascii	"mutex_t\000"
 3234      785F7400 
 3235              	.LASF140:
 3236 01dc 76616C75 		.ascii	"value\000"
 3236      6500
 3237              	.LASF26:
 3238 01e2 636E745F 		.ascii	"cnt_t\000"
 3238      7400
 3239              	.LASF109:
 3240 01e8 63685654 		.ascii	"chVTGetSystemTimeX\000"
 3240      47657453 
 3240      79737465 
 3240      6D54696D 
 3240      655800
 3241              	.LASF0:
 3242 01fb 756E7369 		.ascii	"unsigned int\000"
 3242      676E6564 
 3242      20696E74 
 3242      00
 3243              	.LASF91:
 3244 0208 77747365 		.ascii	"wtsemp\000"
 3244      6D7000
 3245              	.LASF89:
 3246 020f 77747472 		.ascii	"wttrp\000"
 3246      7000
 3247              	.LASF101:
 3248 0215 74656172 		.ascii	"teardown\000"
 3248      646F776E 
 3248      00
 3249              	.LASF33:
 3250 021e 6E616D65 		.ascii	"name\000"
 3250      00
 3251              	.LASF29:
 3252 0223 71756575 		.ascii	"queue\000"
 3252      6500
 3253              	.LASF43:
 3254 0229 6D706F6F 		.ascii	"mpool\000"
 3254      6C00
 3255              	.LASF76:
 3256 022f 534D4352 		.ascii	"SMCR\000"
 3256      00
 3257              	.LASF46:
 3258 0234 63685F74 		.ascii	"ch_thread\000"
 3258      68726561 
 3258      6400
 3259              	.LASF24:
 3260 023e 6D73675F 		.ascii	"msg_t\000"
 3260      7400
 3261              	.LASF40:
 3262 0244 6570656E 		.ascii	"epending\000"
 3262      64696E67 
 3262      00
 3263              	.LASF66:
 3264 024d 63685F73 		.ascii	"ch_system_t\000"
ARM GAS  /tmp/ccJOLCOT.s 			page 91


 3264      79737465 
 3264      6D5F7400 
 3265              	.LASF85:
 3266 0259 73746D33 		.ascii	"stm32_tim_t\000"
 3266      325F7469 
 3266      6D5F7400 
 3267              	.LASF113:
 3268 0265 73797374 		.ascii	"systime\000"
 3268      696D6500 
 3269              	.LASF53:
 3270 026d 63685F72 		.ascii	"ch_ready_list\000"
 3270      65616479 
 3270      5F6C6973 
 3270      7400
 3271              	.LASF25:
 3272 027b 6576656E 		.ascii	"eventmask_t\000"
 3272      746D6173 
 3272      6B5F7400 
 3273              	.LASF8:
 3274 0287 5F5F696E 		.ascii	"__int32_t\000"
 3274      7433325F 
 3274      7400
 3275              	.LASF73:
 3276 0291 73746B61 		.ascii	"stkalign_t\000"
 3276      6C69676E 
 3276      5F7400
 3277              	.LASF103:
 3278 029c 74657374 		.ascii	"testcase_t\000"
 3278      63617365 
 3278      5F7400
 3279              	.LASF134:
 3280 02a7 74657374 		.ascii	"test_print\000"
 3280      5F707269 
 3280      6E7400
 3281              	.LASF42:
 3282 02b2 7265616C 		.ascii	"realprio\000"
 3282      7072696F 
 3282      00
 3283              	.LASF139:
 3284 02bb 2F686F6D 		.ascii	"/home/jerson/ChibiOS_17.6.2/demos/STM32/RT-STM32F10"
 3284      652F6A65 
 3284      72736F6E 
 3284      2F436869 
 3284      62694F53 
 3285 02ee 302D4449 		.ascii	"0-DISCOVERY\000"
 3285      53434F56 
 3285      45525900 
 3286              	.LASF71:
 3287 02fa 73697A65 		.ascii	"sizetype\000"
 3287      74797065 
 3287      00
 3288              	.LASF44:
 3289 0303 74687265 		.ascii	"thread_reference_t\000"
 3289      61645F72 
 3289      65666572 
 3289      656E6365 
 3289      5F7400
ARM GAS  /tmp/ccJOLCOT.s 			page 92


 3290              	.LASF61:
 3291 0316 63685F76 		.ascii	"ch_virtual_timers_list\000"
 3291      69727475 
 3291      616C5F74 
 3291      696D6572 
 3291      735F6C69 
 3292              	.LASF132:
 3293 032d 74657374 		.ascii	"test_buffer\000"
 3293      5F627566 
 3293      66657200 
 3294              	.LASF19:
 3295 0339 75696E74 		.ascii	"uint64_t\000"
 3295      36345F74 
 3295      00
 3296              	.LASF116:
 3297 0342 74657374 		.ascii	"test_wait_threads\000"
 3297      5F776169 
 3297      745F7468 
 3297      72656164 
 3297      7300
 3298              	.LASF74:
 3299 0354 706F7274 		.ascii	"port_context\000"
 3299      5F636F6E 
 3299      74657874 
 3299      00
 3300              	.LASF100:
 3301 0361 73657475 		.ascii	"setup\000"
 3301      7000
 3302              	.LASF141:
 3303 0367 63685654 		.ascii	"chVTGetSystemTime\000"
 3303      47657453 
 3303      79737465 
 3303      6D54696D 
 3303      6500
 3304              	.LASF30:
 3305 0379 7072696F 		.ascii	"prio\000"
 3305      00
 3306              	.LASF54:
 3307 037e 63757272 		.ascii	"current\000"
 3307      656E7400 
 3308              	.LASF13:
 3309 0386 5F5F7569 		.ascii	"__uint64_t\000"
 3309      6E743634 
 3309      5F7400
 3310              	.LASF22:
 3311 0391 74726566 		.ascii	"trefs_t\000"
 3311      735F7400 
 3312              	.LASF115:
 3313 0399 74657374 		.ascii	"test_terminate_threads\000"
 3313      5F746572 
 3313      6D696E61 
 3313      74655F74 
 3313      68726561 
 3314              	.LASF37:
 3315 03b0 72656673 		.ascii	"refs\000"
 3315      00
 3316              	.LASF56:
ARM GAS  /tmp/ccJOLCOT.s 			page 93


 3317 03b5 76697274 		.ascii	"virtual_timer_t\000"
 3317      75616C5F 
 3317      74696D65 
 3317      725F7400 
 3318              	.LASF23:
 3319 03c5 74707269 		.ascii	"tprio_t\000"
 3319      6F5F7400 
 3320              	.LASF112:
 3321 03cd 5F5F6675 		.ascii	"__func__.5198\000"
 3321      6E635F5F 
 3321      2E353139 
 3321      3800
 3322              	.LASF99:
 3323 03db 5F426F6F 		.ascii	"_Bool\000"
 3323      6C00
 3324              	.LASF17:
 3325 03e1 696E7433 		.ascii	"int32_t\000"
 3325      325F7400 
 3326              	.LASF4:
 3327 03e9 756E7369 		.ascii	"unsigned char\000"
 3327      676E6564 
 3327      20636861 
 3327      7200
 3328              	.LASF102:
 3329 03f7 65786563 		.ascii	"execute\000"
 3329      75746500 
 3330              	.LASF5:
 3331 03ff 73686F72 		.ascii	"short int\000"
 3331      7420696E 
 3331      7400
 3332              	.LASF62:
 3333 0409 6C617374 		.ascii	"lasttime\000"
 3333      74696D65 
 3333      00
 3334              	.LASF133:
 3335 0412 74687265 		.ascii	"threads\000"
 3335      61647300 
 3336              	.LASF93:
 3337 041a 65776D61 		.ascii	"ewmask\000"
 3337      736B00
 3338              	.LASF67:
 3339 0421 63685F73 		.ascii	"ch_system\000"
 3339      79737465 
 3339      6D00
 3340              	.LASF108:
 3341 042b 63685379 		.ascii	"chSysLock\000"
 3341      734C6F63 
 3341      6B00
 3342              	.LASF57:
 3343 0435 63685F76 		.ascii	"ch_virtual_timer\000"
 3343      69727475 
 3343      616C5F74 
 3343      696D6572 
 3343      00
 3344              	.LASF94:
 3345 0446 63685F73 		.ascii	"ch_semaphore\000"
 3345      656D6170 
ARM GAS  /tmp/ccJOLCOT.s 			page 94


 3345      686F7265 
 3345      00
 3346              	.LASF84:
 3347 0453 43435852 		.ascii	"CCXR\000"
 3347      00
 3348              	.LASF144:
 3349 0458 63685468 		.ascii	"chThdSleep\000"
 3349      64536C65 
 3349      657000
 3350              	.LASF106:
 3351 0463 73745F6C 		.ascii	"st_lld_get_counter\000"
 3351      6C645F67 
 3351      65745F63 
 3351      6F756E74 
 3351      657200
 3352              	.LASF18:
 3353 0476 75696E74 		.ascii	"uint32_t\000"
 3353      33325F74 
 3353      00
 3354              	.LASF92:
 3355 047f 77746D74 		.ascii	"wtmtxp\000"
 3355      787000
 3356              	.LASF47:
 3357 0486 63685F74 		.ascii	"ch_threads_list\000"
 3357      68726561 
 3357      64735F6C 
 3357      69737400 
 3358              	.LASF96:
 3359 0496 6F776E65 		.ascii	"owner\000"
 3359      7200
 3360              	.LASF11:
 3361 049c 6C6F6E67 		.ascii	"long unsigned int\000"
 3361      20756E73 
 3361      69676E65 
 3361      6420696E 
 3361      7400
 3362              	.LASF34:
 3363 04ae 77616261 		.ascii	"wabase\000"
 3363      736500
 3364              	.LASF97:
 3365 04b5 63686172 		.ascii	"char\000"
 3365      00
 3366              	.LASF6:
 3367 04ba 5F5F7569 		.ascii	"__uint16_t\000"
 3367      6E743136 
 3367      5F7400
 3368              	.LASF82:
 3369 04c5 444D4152 		.ascii	"DMAR\000"
 3369      00
 3370              	.LASF28:
 3371 04ca 74687265 		.ascii	"thread_t\000"
 3371      61645F74 
 3371      00
 3372              	.LASF131:
 3373 04d3 74657374 		.ascii	"test_suite\000"
 3373      5F737569 
 3373      746500
ARM GAS  /tmp/ccJOLCOT.s 			page 95


 3374              	.LASF27:
 3375 04de 73797374 		.ascii	"systime_t\000"
 3375      696D655F 
 3375      7400
 3376              	.LASF55:
 3377 04e8 76746675 		.ascii	"vtfunc_t\000"
 3377      6E635F74 
 3377      00
 3378              	.LASF110:
 3379 04f1 5F5F7365 		.ascii	"__set_BASEPRI\000"
 3379      745F4241 
 3379      53455052 
 3379      4900
 3380              	.LASF65:
 3381 04ff 70616E69 		.ascii	"panic_msg\000"
 3381      635F6D73 
 3381      6700
 3382              	.LASF7:
 3383 0509 73686F72 		.ascii	"short unsigned int\000"
 3383      7420756E 
 3383      7369676E 
 3383      65642069 
 3383      6E7400
 3384              	.LASF107:
 3385 051c 706F7274 		.ascii	"port_timer_get_time\000"
 3385      5F74696D 
 3385      65725F67 
 3385      65745F74 
 3385      696D6500 
 3386              	.LASF31:
 3387 0530 6E657765 		.ascii	"newer\000"
 3387      7200
 3388              	.LASF114:
 3389 0536 74657374 		.ascii	"test_print_port_info\000"
 3389      5F707269 
 3389      6E745F70 
 3389      6F72745F 
 3389      696E666F 
 3390              	.LASF143:
 3391 054b 63685468 		.ascii	"chThdWait\000"
 3391      64576169 
 3391      7400
 3392              	.LASF49:
 3393 0555 74687265 		.ascii	"threads_queue_t\000"
 3393      6164735F 
 3393      71756575 
 3393      655F7400 
 3394              	.LASF95:
 3395 0565 63685F6D 		.ascii	"ch_mutex\000"
 3395      75746578 
 3395      00
 3396              	.LASF118:
 3397 056e 74657374 		.ascii	"test_sequence_001\000"
 3397      5F736571 
 3397      75656E63 
 3397      655F3030 
 3397      3100
ARM GAS  /tmp/ccJOLCOT.s 			page 96


 3398              	.LASF68:
 3399 0580 726C6973 		.ascii	"rlist\000"
 3399      7400
 3400              	.LASF15:
 3401 0586 75696E74 		.ascii	"uint8_t\000"
 3401      385F7400 
 3402              	.LASF36:
 3403 058e 666C6167 		.ascii	"flags\000"
 3403      7300
 3404              	.LASF137:
 3405 0594 474E5520 		.ascii	"GNU C 4.8.2 -mcpu=cortex-m3 -mno-thumb-interwork -m"
 3405      4320342E 
 3405      382E3220 
 3405      2D6D6370 
 3405      753D636F 
 3406 05c7 7468756D 		.ascii	"thumb -ggdb -O2 -fomit-frame-pointer -falign-functi"
 3406      62202D67 
 3406      67646220 
 3406      2D4F3220 
 3406      2D666F6D 
 3407 05fa 6F6E733D 		.ascii	"ons=16 -ffunction-sections -fdata-sections -fno-com"
 3407      3136202D 
 3407      6666756E 
 3407      6374696F 
 3407      6E2D7365 
 3408 062d 6D6F6E20 		.ascii	"mon -flto\000"
 3408      2D666C74 
 3408      6F00
 3409              	.LASF138:
 3410 0637 2E2E2F2E 		.ascii	"../../../test/rt/source/test/test_root.c\000"
 3410      2E2F2E2E 
 3410      2F746573 
 3410      742F7274 
 3410      2F736F75 
 3411              	.LASF119:
 3412 0660 74657374 		.ascii	"test_sequence_002\000"
 3412      5F736571 
 3412      75656E63 
 3412      655F3030 
 3412      3200
 3413              	.LASF120:
 3414 0672 74657374 		.ascii	"test_sequence_003\000"
 3414      5F736571 
 3414      75656E63 
 3414      655F3030 
 3414      3300
 3415              	.LASF121:
 3416 0684 74657374 		.ascii	"test_sequence_004\000"
 3416      5F736571 
 3416      75656E63 
 3416      655F3030 
 3416      3400
 3417              	.LASF122:
 3418 0696 74657374 		.ascii	"test_sequence_005\000"
 3418      5F736571 
 3418      75656E63 
 3418      655F3030 
ARM GAS  /tmp/ccJOLCOT.s 			page 97


 3418      3500
 3419              	.LASF123:
 3420 06a8 74657374 		.ascii	"test_sequence_006\000"
 3420      5F736571 
 3420      75656E63 
 3420      655F3030 
 3420      3600
 3421              	.LASF124:
 3422 06ba 74657374 		.ascii	"test_sequence_007\000"
 3422      5F736571 
 3422      75656E63 
 3422      655F3030 
 3422      3700
 3423              	.LASF125:
 3424 06cc 74657374 		.ascii	"test_sequence_008\000"
 3424      5F736571 
 3424      75656E63 
 3424      655F3030 
 3424      3800
 3425              	.LASF126:
 3426 06de 74657374 		.ascii	"test_sequence_009\000"
 3426      5F736571 
 3426      75656E63 
 3426      655F3030 
 3426      3900
 3427              	.LASF88:
 3428 06f0 77746F62 		.ascii	"wtobjp\000"
 3428      6A7000
 3429              	.LASF45:
 3430 06f7 74687265 		.ascii	"threads_list_t\000"
 3430      6164735F 
 3430      6C697374 
 3430      5F7400
 3431              	.LASF20:
 3432 0706 746D6F64 		.ascii	"tmode_t\000"
 3432      655F7400 
 3433              	.LASF111:
 3434 070e 63685379 		.ascii	"chSysUnlock\000"
 3434      73556E6C 
 3434      6F636B00 
 3435              	.LASF41:
 3436 071a 6D74786C 		.ascii	"mtxlist\000"
 3436      69737400 
 3437              	.LASF142:
 3438 0722 74657374 		.ascii	"test_wait_tick\000"
 3438      5F776169 
 3438      745F7469 
 3438      636B00
 3439              		.comm	__gnu_lto_v1,1,1
 3440              		.ident	"GCC: (4.8.2-14ubuntu1+6) 4.8.2"
ARM GAS  /tmp/ccJOLCOT.s 			page 98


DEFINED SYMBOLS
                            *ABS*:0000000000000000 test_root.c
     /tmp/ccJOLCOT.s:499    .text.test_print_port_info:0000000000000000 $t
     /tmp/ccJOLCOT.s:505    .text.test_print_port_info:0000000000000000 test_print_port_info
     /tmp/ccJOLCOT.s:772    .rodata.str1.4:0000000000000000 .LC0
     /tmp/ccJOLCOT.s:775    .rodata.str1.4:0000000000000014 .LC1
     /tmp/ccJOLCOT.s:778    .rodata.str1.4:0000000000000020 .LC2
     /tmp/ccJOLCOT.s:781    .rodata.str1.4:0000000000000034 .LC3
     /tmp/ccJOLCOT.s:783    .rodata.str1.4:000000000000003c .LC4
     /tmp/ccJOLCOT.s:786    .rodata.str1.4:0000000000000050 .LC5
     /tmp/ccJOLCOT.s:789    .rodata.str1.4:000000000000005c .LC6
     /tmp/ccJOLCOT.s:792    .rodata.str1.4:0000000000000070 .LC7
     /tmp/ccJOLCOT.s:564    .text.test_terminate_threads:0000000000000000 $t
     /tmp/ccJOLCOT.s:570    .text.test_terminate_threads:0000000000000000 test_terminate_threads
     /tmp/ccJOLCOT.s:605    .text.test_terminate_threads:000000000000001c $d
     /tmp/ccJOLCOT.s:610    .text.test_wait_threads:0000000000000000 $t
     /tmp/ccJOLCOT.s:616    .text.test_wait_threads:0000000000000000 test_wait_threads
     /tmp/ccJOLCOT.s:796    .bss.threads:0000000000000000 .LANCHOR0
     /tmp/ccJOLCOT.s:657    .text.test_wait_tick:0000000000000000 $t
     /tmp/ccJOLCOT.s:663    .text.test_wait_tick:0000000000000000 test_wait_tick
     /tmp/ccJOLCOT.s:764    .rodata.wa:0000000000000000 wa
     /tmp/ccJOLCOT.s:799    .bss.threads:0000000000000000 threads
     /tmp/ccJOLCOT.s:739    .bss.test_buffer:0000000000000000 test_buffer
     /tmp/ccJOLCOT.s:745    .data.test_suite:0000000000000000 test_suite
     /tmp/ccJOLCOT.s:736    .bss.test_buffer:0000000000000000 $d
     /tmp/ccJOLCOT.s:742    .data.test_suite:0000000000000000 $d
     /tmp/ccJOLCOT.s:761    .rodata.wa:0000000000000000 $d
     /tmp/ccJOLCOT.s:771    .rodata.str1.4:0000000000000000 $d
     /tmp/ccJOLCOT.s:795    .bss.threads:0000000000000000 $d
                            *COM*:0000000000000001 __gnu_lto_v1
                     .debug_frame:0000000000000010 $d

UNDEFINED SYMBOLS
test_print
test_println
chThdTerminate
chThdWait
chThdSleep
test_sequence_001
test_sequence_002
test_sequence_003
test_sequence_004
test_sequence_005
test_sequence_006
test_sequence_007
test_sequence_008
test_sequence_009
test_sequence_010
test_sequence_011
test_sequence_012
test_sequence_013
