ARM GAS  /tmp/ccbtJCRQ.s 			page 1


   1              		.syntax unified
   2              		.cpu cortex-m3
   3              		.fpu softvfp
   4              		.eabi_attribute 20, 1
   5              		.eabi_attribute 21, 1
   6              		.eabi_attribute 23, 3
   7              		.eabi_attribute 24, 1
   8              		.eabi_attribute 25, 1
   9              		.eabi_attribute 26, 1
  10              		.eabi_attribute 30, 2
  11              		.eabi_attribute 34, 1
  12              		.eabi_attribute 18, 4
  13              		.thumb
  14              		.file	"test_sequence_007.c"
  15              		.text
  16              	.Ltext0:
  17              		.section	.gnu.lto_.jmpfuncs.53d92863ee8fd734,"",%progbits
  18 0000 789C6362 		.ascii	"x\234cb`b\300\006\326\000\261\004\020\003e\231\230\252"
  18      6062C006 
  18      D600B104 
  18      10036599 
  18      98AA
  19 0012 197E35CC 		.ascii	"\031~5\314h\020\310dd\220c`\234\3330\303!\223\221\021"
  19      6810C864 
  19      64906360 
  19      9CDB30C3 
  19      21939111 
  20 0026 AC0A21C3 		.ascii	"\254\012!\303$\307\300\016\221a\206\030\300\310\000"
  20      24C7C00E 
  20      91618618 
  20      C0C800
  21 0035 359915C8 		.ascii	"5\231\025\310\210`\314dd9\301\004\327\322\001\322\302"
  21      8860CC64 
  21      6439C104 
  21      D7D201D2 
  21      C2
  22 0046 9ACC08B5 		.ascii	"\232\314\010\265\214\205\221\011\244\253\014\252\222"
  22      8C859109 
  22      A4AB0CAA 
  22      92
  23 0053 CD05C840 		.ascii	"\315\005\310@\021pF\027pB\027p\004\331\344\350\344\354"
  23      11704617 
  23      70421770 
  23      04D9E4E8 
  23      E4EC
  24 0065 C2209899 		.ascii	"\302 \230\231W\226\230\223\231\242P\234ZX\232\232\227"
  24      57969893 
  24      99A2509C 
  24      5A589A9A 
  24      97
  25 0076 9CCA0000 		.ascii	"\234\312\000\000\333\023 \013"
  25      DB13200B 
  26              		.text
  27              		.section	.gnu.lto_.inline.53d92863ee8fd734,"",%progbits
  28 0000 789C6362 		.ascii	"x\234cb`b\300\006\312\2414PV\341$##\003\223\330\205"
  28      6062C006 
  28      CAA13450 
ARM GAS  /tmp/ccbtJCRQ.s 			page 2


  28      56E12423 
  28      230393D8 
  29 0015 366606B6 		.ascii	"6f\006\266\005\362`\345\314<`\031F.\220\012nF\006\306"
  29      05F260E5 
  29      CC3C6019 
  29      462E900A 
  29      6E4606C6 
  30 0029 097ECC3C 		.ascii	"\011~\314<@E\023\374&\370\201\370\014\354\002\014\014"
  30      404513FC 
  30      26F881F8 
  30      0CEC020C 
  30      0C
  31 003a AC13FC18 		.ascii	"\254\023\374\030\300\210\205\201\337\210\021l\017\212"
  31      C0888581 
  31      DF88116C 
  31      0F8A
  32 0048 7EA01C2E 		.ascii	"~\240\034.\232\001\000ot\016\007"
  32      9A01006F 
  32      740E07
  33              		.text
  34              		.section	.gnu.lto_.pureconst.53d92863ee8fd734,"",%progbits
  35 0000 789C6362 		.ascii	"x\234cb`b`e\200\000&\006I\026\011\000\001\007\000A"
  35      60626065 
  35      80002606 
  35      49160900 
  35      01070041 
  36              		.text
  37              		.section	.gnu.lto_test_007_001_execute.53d92863ee8fd734,"",%progbits
  38 0000 789C9554 		.ascii	"x\234\225T[kSY\024^k\237s\3224M\215\321V\353\255\255"
  38      5B6B5359 
  38      145E6B9F 
  38      73D2344D 
  38      8DD156EB 
  39 0016 B7979149 		.ascii	"\267\227\221I\024\004)\210x\373\011\012\372$\3614\244"
  39      14042988 
  39      78FB090A 
  39      FA24F134 
  39      A4
  40 0027 079A3A36 		.ascii	"\007\232:6\351\274\314\203\273M\035}\360\022\364\245"
  40      E9BCCC83 
  40      BB4D1D7D 
  40      F012F4A5 
  41 0037 2AE2A554 		.ascii	"*\342\245TA\304\013\202\212x\211\024$\245j\355\203\240"
  41      41C40B82 
  41      8A788914 
  41      24A56AED 
  41      83A0
  42 0049 224C1807 		.ascii	"\"L\030\007\025\005\025_\2523\203\235\265\366>\373L"
  42      1505155F 
  42      AA33839D 
  42      B5F63EFB 
  42      4C
  43 005a B5E38887 		.ascii	"\265\343\210\207d\237u\326Z\337\267\327e\257-@\300\227"
  43      649F75D6 
  43      5ADFB7D7 
  43      65AF2D40 
  43      C097
ARM GAS  /tmp/ccbtJCRQ.s 			page 3


  44 006c CF4AFA4F 		.ascii	"\317J\372O\013\001\364\321\033C\200\242x\037\240;,\320"
  44      0B01F4D1 
  44      1B4380A2 
  44      781FA03B 
  44      2CD0
  45 007e D682A585 		.ascii	"\326\202\245\205\333a[X\245U #\316\203\030\310\250\203"
  45      DB615B58 
  45      A5552023 
  45      CE8318C8 
  45      A883
  46 0090 C86A40D8 		.ascii	"\310j@\330!,\333\301\035\233\221\331\304\0028!\345\201"
  46      212CDBC1 
  46      1D9B91D9 
  46      C4023821 
  46      E581
  47 00a2 CAC08B97 		.ascii	"\312\300\213\227xH\226z\217\313\277\307\307\021=\244"
  47      7848967A 
  47      8FCBBFC7 
  47      C7113DA4 
  48 00b2 9D9723B8 		.ascii	"\235\227#\270\010\233\350\003\233\325K\330\237\207\242"
  48      089BE803 
  48      9BD54BD8 
  48      9F87A2
  49 00c1 B1A5B15F 		.ascii	"\261\245\261_\367\317\222\307{\212\362\023A=\264\004"
  49      F7CF92C7 
  49      7B8AF213 
  49      413DB404 
  50 00d1 ACF816F2 		.ascii	"\254\370\026\362\274(U\306\307\357^\252\374~\037\343"
  50      BC2855C6 
  50      C7EF5EAA 
  50      FC7E1FE3 
  51 00e1 331052D8 		.ascii	"3\020R\330\217\013\300\001\017\355\020-N\230\026\210"
  51      8F0BC001 
  51      0FED102D 
  51      4E981688 
  52 00f1 92FA04A9 		.ascii	"\222\372\004\251k\351#\024\243\245*\356;\326\261\271"
  52      6BE92314 
  52      A3A52AEE 
  52      3BD6B1B9 
  53 0101 9E963071 		.ascii	"\236\2260q9\320+e\261Y\373\252\220\212\245\033w\366"
  53      39D02B65 
  53      B159FBAA 
  53      908AA51B 
  53      77F6
  54 0113 4C0CA95A 		.ascii	"L\014\251Z@\313\267B\002\266\323\263\201V\252\330F\024"
  54      40CBB742 
  54      02B6D3B3 
  54      8156AAD8 
  54      4614
  55 0125 F4B2EE41 		.ascii	"\364\262\356A\317\325\253\257\032R8\200\016\034\201"
  55      CFD5ABAF 
  55      1A523880 
  55      0E1C81
  56 0134 C3DD524E 		.ascii	"\303\335RN\245\024\177\201?\345n\226\"Y\005b\302\010"
  56      A5147F81 
  56      3FE56E96 
  56      22590562 
ARM GAS  /tmp/ccbtJCRQ.s 			page 4


  56      C208
  57 0146 18C9621D 		.ascii	"\030\311b\035!\237~x\365\310\326\320\014:?\302YF\324"
  57      219F7E78 
  57      F5C8D6D0 
  57      0C3A3FC2 
  57      5946D4
  58 0159 304B91A5 		.ascii	"0K\221\245(\263\364\261T\233E\364\261\265\001\313\224"
  58      28B3F4B1 
  58      549B45F4 
  58      B1B501CB 
  58      94
  59 016a 09A111D9 		.ascii	"\011\241\021\331\223\353\307~[\356\347j\222\226oO%\203"
  59      93EBC77E 
  59      5BEEE76A 
  59      92966F4F 
  59      2583
  60 017c 0218A134 		.ascii	"\002\030\2414\374p4NtzcW1\323K\235\244\014\326-\201"
  60      FC70344E 
  60      747A6357 
  60      31D34B9D 
  60      A40CD62D 
  61 0191 3352CACA 		.ascii	"3R\312\312_\037\007~\240\"\352/\331\342a,\310nj\220"
  61      5F1F077E 
  61      A022EA2F 
  61      D9E2612C 
  61      C86E6A90 
  62 01a5 5D3CAB60 		.ascii	"]<\253`\034M\\\305\261\225\311Rx\216\210I\306@\326\021"
  62      1C4D5CC5 
  62      B195C952 
  62      788E8849 
  62      C640D611 
  63 01b9 7EB83C3B 		.ascii	"~\270<;\205\347U\266\365>q\216z\024\020O\243\355\231"
  63      85E755B6 
  63      F53E718E 
  63      7A14104F 
  63      A3ED99
  64 01cc 0B7C2EC1 		.ascii	"\013|.\301\370\013\006_\330=8\374\360b\265\251W\210"
  64      F80B065F 
  64      D83D38FC 
  64      F062B5A9 
  64      5788
  65 01de 48D8D961 		.ascii	"H\330\331a\367\021h0\372p\020\335t\027-\320Y9\252\354"
  65      F7116830 
  65      FA7010DD 
  65      74172DD0 
  65      5939AAEC 
  66 01f2 65C138B6 		.ascii	"e\3018\266\207=\254s\321\257=g\355a\275\212q\250\030"
  66      873DAC73 
  66      D1AF3D67 
  66      ED61BD8A 
  66      71A818
  67 0205 D14AEE86 		.ascii	"\321J\356\206N\374\337\266\316\010\250gf\0255\263\316"
  67      4EFCDFB6 
  67      CE08A867 
  67      661535B3 
  67      CE
  68 0216 FC8F8664 		.ascii	"\374\217\206d\370\340\251\243\361\346{\217\006\327s"
ARM GAS  /tmp/ccbtJCRQ.s 			page 5


  68      F8E0A9A3 
  68      F1E67B8F 
  68      06D773
  69 0225 087A2A37 		.ascii	"\010z*7\012U\301\301\345#m\372\245\004V(o\263\341F\022"
  69      0A55C1C1 
  69      E5236DFA 
  69      A5045628 
  69      6FB3E146 
  70 023a 4BABAC11 		.ascii	"K\253\254\021(Tn\016\206RxS\225\"\032\354\325\340j("
  70      28546E0E 
  70      86527853 
  70      95221AEC 
  70      D5E06A28 
  71 024e 8DC42CE6 		.ascii	"\215\304,\346\027\332E\317\0049\252h\257\355\034\333"
  71      17DA45CF 
  71      0439AA68 
  71      AFED1CDB 
  72 025e 338F83AF 		.ascii	"3\217\203\257\245hy*\310\240\332\261Ho\302a\335z\346"
  72      A568792A 
  72      C8A0DAB1 
  72      486FC261 
  72      DD7AE6
  73 0271 B367D156 		.ascii	"\263g\321V8R\206\315\244W\016\356\372c\024\017\024d"
  73      385286CD 
  73      A4570EEE 
  73      FA63140F 
  73      1464
  74 0283 59F69668 		.ascii	"Y\366\226h\260\232<\236\334\223\324\307\377\037-\342"
  74      B09A3C9E 
  74      DC93D4C7 
  74      FF1F2DE2 
  75 0293 5244EFDE 		.ascii	"RD\357\336_i7\201\235R9sgwV\312\317\"Z\015\020d4\333"
  75      5F693781 
  75      9D523973 
  75      677756CA 
  75      CF225A0D 
  76 02ab A5CB4DD7 		.ascii	"\245\313M\327:J\021{8G\345\360\272pz_\302\344\037\313"
  76      3A4A117B 
  76      3847E5F0 
  76      BA707A5F 
  76      C2E41FCB 
  77 02bf F0B88C80 		.ascii	"\360\270\214\200=\011=\327\305*\037\035\363p\236>^\205"
  77      3D093DD7 
  77      C52A1F1D 
  77      F3709E3E 
  77      5E85
  78 02d1 B1BD2D06 		.ascii	"\261\275-\006\032\317 \006\243:\241^\375\252^qSu\033"
  78      1ACF2006 
  78      A33AA15E 
  78      FDAA5E71 
  78      53751B
  79 02e4 E8D2B474 		.ascii	"\350\322\264t\015\214\221\020e\350}\336]c\2704Q\320"
  79      0D8C9110 
  79      65E87DDE 
  79      5D63B834 
  79      51D0
  80 02f6 2B780CE8 		.ascii	"+x\014\3507O\224-\"\263\372\252\230\313\341\373\204"
ARM GAS  /tmp/ccbtJCRQ.s 			page 6


  80      374F942D 
  80      22B3FAAA 
  80      98CBE1FB 
  80      84
  81 0307 3B383C58 		.ascii	";8<X3)\340FW\335e\334\300&]\224\273\3758\311\253\331"
  81      3329E046 
  81      57DD65DC 
  81      C0265D94 
  81      BBFD38C9 
  82 031d C56AE5C5 		.ascii	"\305j\345\305\232\006\017\3477B7\036\225}\253=\212\314"
  82      9A060FE7 
  82      3742371E 
  82      957DAB3D 
  82      8ACC
  83 032f F7F64D0B 		.ascii	"\367\366M\013\033a\227oZdL\036.\006\030\205\200W?\033"
  83      1B61976F 
  83      5A644C1E 
  83      2E061885 
  83      80573F1B 
  84 0343 28A30731 		.ascii	"(\243\0071>\227\313\022\211\244\376\345\323\271|\262"
  84      3E97CB12 
  84      89A4FEE5 
  84      D3B97CB2 
  85 0353 339FCC6D 		.ascii	"3\237\314m\353\352t\323\372\223\227-\271\364\366\256"
  85      EBEA74D3 
  85      FA93972D 
  85      B9F4F6AE 
  86 0363 74879BDE 		.ascii	"t\207\233\336\262t\351\212\204\013\"\377\023zV6\227"
  86      B274E98A 
  86      840B22FF 
  86      137A5636 
  86      97
  87 0374 591840B7 		.ascii	"Y\030@\267\345\030\350u\270\355]\255\351\244\333\226"
  87      E518E875 
  87      B8ED5DAD 
  87      E9A4DB96 
  88 0384 6FEB4CA7 		.ascii	"o\353L\247Zs\2116h\372\252\017\021\220\335Y\263v\335"
  88      5A738936 
  88      68FAAA0F 
  88      1190DD59 
  88      B376DD
  89 0397 7A887B1D 		.ascii	"z\210{\035?\247\332\275\326f\263\025\374\003\271r\232"
  89      3FA7DABD 
  89      D666B315 
  89      FC03B972 
  89      9A
  90 03a8 36       		.ascii	"6"
  91              		.text
  92              		.section	.gnu.lto_msg_thread1.53d92863ee8fd734,"",%progbits
  93 0000 789C6362 		.ascii	"x\234cb`b@\007\222@,\304\310\300`\014\244\031\231\031"
  93      60624007 
  93      92402CC4 
  93      C8C0600C 
  93      A4199919 
  94 0014 1899269C 		.ascii	"\030\231&\234c`h\344`bd\0041\030\030\031\352\231\030"
  94      636068E4 
  94      60626404 
ARM GAS  /tmp/ccbtJCRQ.s 			page 7


  94      31181819 
  94      EA9918
  95 0027 EB2319C1 		.ascii	"\353#\031\301j\3273\035x\360\377\377\272+[\037U0\262"
  95      6AD7331D 
  95      78F0FFFF 
  95      BA2B5B1F 
  95      5530B2
  96 003a 3331E682 		.ascii	"31\346\202EY\031Z\032\032&(00$\203\271!@\022\2443\224"
  96      4559195A 
  96      1A1A2628 
  96      30302483 
  96      B9214012 
  97 0051 91094433 		.ascii	"\221\011D3\237gh}\360\306\"\221q!#+P\266\232\341WCG"
  97      9F67687D 
  97      F0C62291 
  97      7121232B 
  97      50B69AE1 
  98 0068 83402623 		.ascii	"\203@&#P5\304\314tF\246\010\306LFFG\206L\240\016\006"
  98      5035C4CC 
  98      7446A608 
  98      C64C4646 
  98      47864CA0 
  99 007e A0F205B9 		.ascii	"\240\362\005\271\204U;!T\347\021V\355\214P\235OX\265"
  99      84553B21 
  99      54E71156 
  99      ED8C509D 
  99      4F58B5
 100 0091 0B44F545 		.ascii	"\013D\365E\206\306\007?\230`\312! \004\250\024\350)"
 100      86C6073F 
 100      9860CA21 
 100      2004A814 
 100      E829
 101 00a3 50281AEA 		.ascii	"P(\032\352\351\351CPIjq\211~Q\211~q~iQr*\204\013\"\342"
 101      E9E94350 
 101      496A7189 
 101      7E51897E 
 101      717E6951 
 102 00bd 8B530B4B 		.ascii	"\213S\013KS\363\222S\343\015\014\314\365\222\031\000"
 102      53F39253 
 102      E30D0CCC 
 102      F5921900 
 103 00cd 7CCE4F65 		.ascii	"|\316Oe"
 104              		.text
 105              		.section	.gnu.lto_.symbol_nodes.53d92863ee8fd734,"",%progbits
 106 0000 789C4DCA 		.ascii	"x\234M\312\311\015\3020\024\204\341\031/\020\326\026"
 106      C90DC230 
 106      1484E119 
 106      2F10D616 
 107 0010 A88D4678 		.ascii	"\250\215Fx\221\220@\300\205\002\270\271\224\334i\200"
 107      919040C0 
 107      8502B8B9 
 107      94DC6980 
 108 0020 2DC16193 		.ascii	"-\301a\223(\001!l\021a|\371\374\353\215\202\302\013"
 108      2801216C 
 108      11617CF9 
 108      FCEB8D82 
 108      C20B
ARM GAS  /tmp/ccbtJCRQ.s 			page 8


 109 0032 CD537B0A 		.ascii	"\315S{\012\261\336\002\"\233\305\330\236\030~\260%\031"
 109      B1DE0222 
 109      9BC5D89E 
 109      187EB025 
 109      19
 110 0043 795005D4 		.ascii	"yP\005\324\216\202\277\315\231:\036\21746p\2405\242"
 110      8E82BFCD 
 110      993A1E8F 
 110      343670A0 
 110      35A2
 111 0055 79A3A8EF 		.ascii	"y\243\250\357&\317\311+E\247\272PL\252\232bSyJ+UEi\247"
 111      26CFC92B 
 111      45A7BA50 
 111      4CAA9A62 
 111      53794A2B 
 112 006d BA53B25F 		.ascii	"\272S\262_i\014\340\252w\260\0177\253'\032=\370y\264"
 112      690CE0AA 
 112      77B00F37 
 112      AB271A3D 
 112      F879B4
 113 0080 0BB78C76 		.ascii	"\013\267\214vP\254\236#\215\014>j\206\230\226a\037t"
 113      50AC9E23 
 113      8D0C3E6A 
 113      86989661 
 113      1F74
 114 0092 8D45A30F 		.ascii	"\215E\243\017\342\003\201\272L%"
 114      E20381BA 
 114      4C25
 115              		.text
 116              		.section	.gnu.lto_.refs.53d92863ee8fd734,"",%progbits
 117 0000 789C6362 		.ascii	"x\234cb`b\020g\200\0006\006FF \227\231\211\205\221\225"
 117      60621067 
 117      80003606 
 117      46462097 
 117      99898591 
 118 0015 9191918D 		.ascii	"\221\221\221\215\211\235\221\235\211\201\001\000\005"
 118      899D919D 
 118      89810100 
 118      05
 119 0022 C70051   		.ascii	"\307\000Q"
 120              		.text
 121              		.section	.gnu.lto_.decls.53d92863ee8fd734,"",%progbits
 122 0000 789CBD5B 		.ascii	"x\234\275[{t\024U\232\277U\335\235\356&\341\245\342"
 122      7B741455 
 122      9ABF55DD 
 122      9DEE26E1 
 122      A5E2
 123 0012 817350E3 		.ascii	"\201sP\343\256\263\243\356J\300q\224\231sF\231e\317"
 123      AEB3A3EE 
 123      4AC07194 
 123      99734699 
 123      65CF
 124 0024 71FF61CF 		.ascii	"q\377a\317\236q\347\254\347\314\331\323St\212$k\322"
 124      9E71E7AC 
 124      E7CCD9D3 
 124      53748A24 
 124      6BD2
ARM GAS  /tmp/ccbtJCRQ.s 			page 9


 125 0036 DD535DE1 		.ascii	"\335S]\341\261\373\207E\300\200\217\325<xCb# !(\210"
 125      B1FB8745 
 125      C0808FD5 
 125      3C784362 
 125      23202128 
 126 004b 0F22C3C3 		.ascii	"\017\"\303\303\006\307\020yC\200 \321\020F\221\327\014"
 126      06C71079 
 126      438020D1 
 126      104691D7 
 126      0C
 127 005c C24096A7 		.ascii	"\302@\226\247d\277\373\335\252\352\252\352\252\356\252"
 127      64BFFBDD 
 127      AAEAAAEA 
 127      AAEEAA
 128 006b 306E9FDC 		.ascii	"0n\237\334\233\352\252\373\375\356\367\335\357q\277"
 128      9BEAAAFB 
 128      FDEEF7DD 
 128      EF71BF
 129 007a 7B6F354F 		.ascii	"{o5Ox\362!GH?|v\374\202\220\366\002B|\204\220\247\241"
 129      78F22147 
 129      483F7C76 
 129      FC8290F6 
 129      02427C84 
 130 0091 04A12C87 		.ascii	"\004\241,\207\362\026\224\325PZ\240\004\240\264BYG\330"
 130      F21694D5 
 130      505AA004 
 130      A0B44259 
 130      47D8
 131 00a3 270CA50D 		.ascii	"'\014\245\015\312\026(i(\273\241\354\205r\020\312\213"
 131      CA162869 
 131      28BBA1EC 
 131      857210CA 
 131      8B
 132 00b4 805B03A5 		.ascii	"\200[\003\245\016\012\300\222\371\360\177!\224eP\316"
 132      0E0AC092 
 132      F9F07F21 
 132      946550CE 
 133 00c4 40390FC5 		.ascii	"@9\017\305\307\023\323\207\342\374\035\224\303P\206"
 133      C713D387 
 133      E2FC1D94 
 133      C35086
 134 00d3 402952FB 		.ascii	"@)R\373|F\345\207\342\254\200rF\345\241\010\350\027"
 134      7C46E587 
 134      E2AC8072 
 134      46E5A108 
 134      E817
 135 00e5 03CE2228 		.ascii	"\003\316\"(\203\341\332\017\367V\302u\023\224!\360\375"
 135      83E1DA0F 
 135      F756C275 
 135      139421F0 
 135      FD
 136 00f6 087C1FCA 		.ascii	"\010|\037\3123\236g\301\275\263P\206\301\367\341P\024"
 136      339E67C1 
 136      BDB35086 
 136      C1F7E150 
 136      14
 137 0107 B8BE0BFE 		.ascii	"\270\276\013\376\037\202gw\303\377}\360\277\017\356"
ARM GAS  /tmp/ccbtJCRQ.s 			page 10


 137      1F826777 
 137      C3FF7DF0 
 137      BF0FEE
 138 0116 6D85FFF7 		.ascii	"m\205\377\367\360\331\262o'llV@\233\365PN\303\365 \225"
 138      F0D9B26F 
 138      276C6C56 
 138      409BF550 
 138      4EC3F520 
 139 012b E711D07E 		.ascii	"\347\021\320~\024\317\344mSe?\250\216\305nul\0026c0"
 139      14CFE46D 
 139      53653FA8 
 139      8EC56E75 
 139      6C023663 
 140 0140 DA227F9B 		.ascii	"\332\"\177\233\332\307}<\223\257\236c\367y\365\031\035"
 140      DAC77D3C 
 140      93AF9E63 
 140      F779F519 
 140      1D
 141 0151 4B7A6B93 		.ascii	"Kzk\223\231\214\024\222W\024\245FI\325*\377\3341d8\251"
 141      998C1492 
 141      5714A546 
 141      49D52AFF 
 141      DC316438 
 142 0166 53E053BC 		.ascii	"S\340S\274hH\230\314\245\267{W)#G\022\362<'pp+\204\027"
 142      684898CC 
 142      A5B77B57 
 142      29234712 
 142      F23C2770 
 143 017e 456104FA 		.ascii	"Ea\004\372\021Y\011M\241=/p+\2700t\304s\304\366\303"
 143      1159094D 
 143      A13D2F70 
 143      2BB83074 
 143      C473C4F6 
 144 0193 9ED30F25 		.ascii	"\236\323\017%g\327\332U?\247\243?\254\241\007T\252\267"
 144      67D7DA55 
 144      3FA7A33F 
 144      ACA10754 
 144      AAB7
 145 01a5 B8E1AAA9 		.ascii	"\270\341\252\251\314\245\\1\026\261\205JQ\254Q\370U"
 145      CCA55C31 
 145      16B1854A 
 145      51AC51F8 
 145      55
 146 01b6 8AB70DFD 		.ascii	"\212\267\015\375\024\2053\027~\225\023'\272\345\\a\236"
 146      14853317 
 146      7E951327 
 146      BAE55C61 
 146      9E
 147 01c7 F160DCAA 		.ascii	"\361`\334\252\364s9\015`\270\012\320\342\231\3255\016"
 147      F473390D 
 147      60B80AD0 
 147      E299D535 
 147      0E
 148 01d8 AC0ECBC3 		.ascii	"\254\016\313\303\352j\007V\357%\363\325\236\025N\026"
 148      EA6A0756 
 148      EF25F3D5 
 148      9E154E16 
ARM GAS  /tmp/ccbtJCRQ.s 			page 11


 149 01e8 B8A74738 		.ascii	"\270\247G8\"\254\345\356\305+\037\332\006\334x\246\020"
 149      22ACE5EE 
 149      C52B1FDA 
 149      06DC78A6 
 149      10
 150 01f9 AA5FFB74 		.ascii	"\252_\373t}9\021\266B\327\217\2225L\353\177\264Q\266"
 150      7D3911B6 
 150      42D78F92 
 150      354CEB7F 
 150      B451B6
 151 020c 497A7B1C 		.ascii	"Iz{\034\264\232\272\336\255+_\373\205\242\204\004n\035"
 151      B49ABADE 
 151      AD2B5FFB 
 151      85A28404 
 151      6E1D
 152 021e 5ACEB31C 		.ascii	"Z\316\263\034\300\277\313=\352\025'\265\271}\204\342"
 152      C0BFCB3D 
 152      EA1527B5 
 152      B97D84E2 
 153 022e 17B80D88 		.ascii	"\027\270\015\210\362\302\000Qz\273v\266\215Gn>D\234"
 153      F2C20051 
 153      7ABB76B6 
 153      8D476E3E 
 153      449C
 154 0240 E59C1948 		.ascii	"\345\234\031H\340\012\302f{\206\357Z\003\212\006_iO"
 154      E00AC266 
 154      7B86EF5A 
 154      038A065F 
 154      694F
 155 0252 D7682CE4 		.ascii	"\327h,\344^T\357\320/A\362\377N\367\000iV\322\027{\333"
 155      5E54EFD0 
 155      2F41F2FF 
 155      4EF70069 
 155      56D2177B 
 156 0267 5EFD68E4 		.ascii	"^\375h\344b%=[\351\357\177Q\3259O\276\262\010\366\020"
 156      62253D5B 
 156      E9EF7F51 
 156      D5394FBE 
 156      B208F610 
 157 027b 59A1280D 		.ascii	"Y\241(\015\312\373\212\022F+\340!\312\321\026m\334\003"
 157      CAFB8A12 
 157      462BE021 
 157      CAD1166D 
 157      DC03
 158 028d B6C3858D 		.ascii	"\266\303\205\215\010\215\263\253h\377J\213\342CK#*\215"
 158      088DB3AB 
 158      68FF4A8B 
 158      E2434B23 
 158      2A8D
 159 029f 89E78F39 		.ascii	"\211\347\2179S\204b|\2457\265\277>JI\325\244\373\373"
 159      5384627C 
 159      A537B5BF 
 159      3E4A49D5 
 159      A4FBFB
 160 02b2 9F21EE4D 		.ascii	"\237!\356Mv\253j\262\0313\345a\0220\013c\317\326\026"
 160      76AB6AB2 
 160      1933E561 
ARM GAS  /tmp/ccbtJCRQ.s 			page 12


 160      12300B63 
 160      CFD616
 161 02c5 2B5BDBB2 		.ascii	"+[\333\262\331\352\255\353\255?t\272\206\253\237\225"
 161      D9EAADEB 
 161      AD3F74BA 
 161      86AB9F95 
 162 02d5 EA502EF6 		.ascii	"\352P.\366\367\0175s\026\"s0\024\276\244\314\344~\227"
 162      F70F3573 
 162      16227330 
 162      14BEA4CC 
 162      E47E97
 163 02e8 3F16EEE0 		.ascii	"?\026\356\340B\300]\223s0\244\015\210\252Iv\255]q\316"
 163      42C05D93 
 163      7330A40D 
 163      88AA4976 
 163      AD5D71CE 
 164 02fc BEB7DDEC 		.ascii	"\276\267\335\354\264&\3277\305\246,\312\366L\300\260"
 164      B426D737 
 164      C5A62CCA 
 164      F64CC0B0 
 165 030c 23D6037D 		.ascii	"#\326\003}z\344\242!\366\322\011\334J\356Gn\243xV\377"
 165      7AE4A221 
 165      F6D209DC 
 165      4AEE476E 
 165      A37856FF 
 166 0320 1D99FE4D 		.ascii	"\035\231\376M\032D%\256\340\255Jd\215v\331j\351r\347"
 166      1A4425AE 
 166      E0AD4A64 
 166      8D76D96A 
 166      E972E7
 167 0333 37C26265 		.ascii	"7\302be\207f\324[\321\250\277v\200\330c\257\350\206"
 167      8766D45B 
 167      D1A8BF76 
 167      80D863AF 
 167      E886
 168 0345 EF1C159D 		.ascii	"\357\034\025\235\323\004\367Y\243&\225\333\"M\237\003"
 168      D304F759 
 168      A32695DB 
 168      224D9F03 
 169 0355 2B076C59 		.ascii	"+\007lYY\262\344\223Q\312r\257\256p(\207!\334E\352q"
 169      59B2E493 
 169      51CA72AF 
 169      AE702887 
 169      21DC45EA 
 170 036a BA3284BB 		.ascii	"\2722\204\273\224_\003\370'\242\307\273\245\335\237"
 170      945F03F8 
 170      27A2C7BB 
 170      A5DD9F
 171 0379 FC1CE3DD 		.ascii	"\374\034\343\335\021\356.\200\331\3453\263\235\027\206"
 171      11EE2E80 
 171      D9E533B3 
 171      9D1786
 172 0388 279D4872 		.ascii	"'\235Hr\014\310\031!s\200\336\233\315_\325p3A\006\366"
 172      0CC81921 
 172      7380DE9B 
 172      CD5FD570 
 172      334106F6 
ARM GAS  /tmp/ccbtJCRQ.s 			page 13


 173 039c 8CD88C86 		.ascii	"\214\330\214\206\372y\220\244\200 }u\3272NI\355\340"
 173      FA7990A4 
 173      80207D75 
 173      D7324E49 
 173      EDE0
 174 03ae 6CBA9CA0 		.ascii	"l\272\234\240\365\03020\276\364p=7\033\361\277D\326"
 174      F5183230 
 174      BEF4703D 
 174      371BF1BF 
 174      44D6
 175 03c0 6FDBB39E 		.ascii	"o\333\263\236\232\340\004\304\223\327\375\224\344D\026"
 175      9AE004C4 
 175      93D7FD94 
 175      E44416
 176 03cf EB3DFB35 		.ascii	"\353=\3735\326O\270`\275&}\360\225\246Q\224u\201;\314"
 176      D64FB860 
 176      BD267DF0 
 176      95A65194 
 176      75813BCC 
 177 03e3 D1D0F9A6 		.ascii	"\321\320\371\246\216k\247:}\232'Dg\314\214whWQ\235\240"
 177      8E6BA73A 
 177      7D9A2744 
 177      67CC8C77 
 177      6857519D 
 178 03f8 81ADF40C 		.ascii	"\201\255\364\014Vl\307\252f\200\031i\005\356$\372\362"
 178      566CC7AA 
 178      66801969 
 178      05EE24FA 
 178      F2
 179 0409 1FB907A1 		.ascii	"\037\271\007\241\376\006j\375\303\2235~M\253vC\227_"
 179      FE066AFD 
 179      C393357E 
 179      4DAB7643 
 179      975F
 180 041b 84EBBB96 		.ascii	"\204\353\273\226\341\220\2501\305M\036\220R\363\200"
 180      E190A831 
 180      C54D1E90 
 180      52F380
 181 042a 3338F3AE 		.ascii	"38\363\256\367\333L\341\256\2006\327~\266\235\253A\365"
 181      F7DB4CE1 
 181      AE8036D7 
 181      7EB69DAB 
 181      41F5
 182 043c 9D47A8B6 		.ascii	"\235G\250\266\001Cu\315\331\3623\344\351\002\002\245"
 182      014375CD 
 182      D9F233E4 
 182      E90202A5 
 183 044c FDD66C20 		.ascii	"\375\326l h\311\006\202\346\3319\030\316\\\320Iy(\371"
 183      68C90682 
 183      E6D93918 
 183      CE5CD049 
 183      7928F9
 184 045f 819BF364 		.ascii	"\201\233\363d\267Uqv\346\222\231u,\212Szo\364\364\360"
 184      B7557176 
 184      E6929975 
 184      2C8A537A 
 184      6FF4F4F0 
ARM GAS  /tmp/ccbtJCRQ.s 			page 14


 185 0473 345BF069 		.ascii	"4[\360i\376S\3404F<9\200}]\316\362\237o;\036Y\244(\303"
 185      FE53E034 
 185      463C3980 
 185      7D5DCEF2 
 185      9F6F3B1E 
 186 048b D8A3FCEE 		.ascii	"\330\243\374\356\363\321\256\205h+y\003\030\257u\377"
 186      F3D1AE85 
 186      682B7903 
 186      18AF75FF 
 187 049b 10763F27 		.ascii	"\020v?'@\273\277f\355\276\353\\\307oX\367\327\\u\277"
 187      40BBBF66 
 187      EDBEEB5C 
 187      C76F58F7 
 187      D75C75BF 
 188 04af A96B5E76 		.ascii	"\251k^v\367\216\201W\265\214\233\337\236\031\375&vr"
 188      F78E8157 
 188      B58C9BDF 
 188      9E19FD26 
 188      7672
 189 04c1 0BBD747B 		.ascii	"\013\275t{\300j\032\317\030\347:-\265\326\033@\250\325"
 189      C06A1ACF 
 189      18E73A2D 
 189      B5D61B40 
 189      A8D5
 190 04d3 B91F5090 		.ascii	"\271\037P\220\0001\317\374\307\032\310\327^.\320x\330"
 190      0031CFFC 
 190      C71AC8D7 
 190      5E2ED078 
 190      D8
 191 04e4 EB19B1D8 		.ascii	"\353\031\261\3304\020[\2720\3540\260\003n\300\034\355"
 191      34105BBA 
 191      30EC30B0 
 191      036EC01C 
 191      ED
 192 04f5 A826BDCD 		.ascii	"\250&\275\315\010\326\351\031\314\314\331\001#\330Q"
 192      08D6E919 
 192      CCCCD901 
 192      23D851
 193 0504 3760C39C 		.ascii	"7`\303\2349;d\004\373\3023\230\231\263\303F\260/\335"
 193      393B6404 
 193      FBC23398 
 193      99B3C346 
 193      B02FDD
 194 0517 808D74E6 		.ascii	"\200\215t\346\354\250\021\254\3273\230\231\263cF\260"
 194      ECA811AC 
 194      D7339899 
 194      B36346B0 
 195 0527 6FDC8015 		.ascii	"o\334\200\025\333p\246\177\234\222\220\253\231\234\216"
 195      DB70A67F 
 195      9C9290AB 
 195      999C8E
 196 0536 27A7035A 		.ascii	"'\247\003Z@\360h\323$\203q.\3405\200\231\344\206\331"
 196      40F068D3 
 196      2483712E 
 196      E0358099 
 196      E486D9
 197 0549 FBC45B5C 		.ascii	"\373\304[\\\343,\245c\2546\203^p\203\230\303`\352v\033"
ARM GAS  /tmp/ccbtJCRQ.s 			page 15


 197      E32CA563 
 197      AC36835E 
 197      708398C3 
 197      60EA761B 
 198 055d A6E32B9E 		.ascii	"\246\343+\236\301\314jif`\035\010v\303\015X\016\203"
 198      C1CC6A69 
 198      66601D08 
 198      76C30D58 
 198      0E83
 199 056f 3940C1EC 		.ascii	"9@\301\354r\370t\2552\227\233\271at\316\024\012b\330"
 199      72F874AD 
 199      32979BB9 
 199      6174CE14 
 199      0A62D8
 200 0582 7DAD18C3 		.ascii	"}\255\030\303\226\360tz\353\017\330\316\223\256\260"
 200      96F0747A 
 200      EB0FD8CE 
 200      93AEB0
 201 0591 36D7EED7 		.ascii	"6\327\356\327&\335&\004{\245`\300`\251\256\235\243\351"
 201      26DD2604 
 201      7BA560C0 
 201      60A9AE9D 
 201      A3E9
 202 05a3 523E8540 		.ascii	"R>\205@\215\005\326\310\032\266L\272a\363\264\030\016"
 202      8D05D6C8 
 202      1AB64CBA 
 202      61F3B418 
 202      0E
 203 05b4 672EFAB5 		.ascii	"g.\372\265\217y\011\366\203\3228y\312b\336\340)\315"
 203      8F7909F6 
 203      83D23879 
 203      CA62DEE0 
 203      29CD
 204 05c6 055E356F 		.ascii	"\005^5o\266\362\033=\377\313/T\3223}\206\3359\247E\233"
 204      B6F21B3D 
 204      FFCB2F54 
 204      D2337D86 
 204      DD39A745 
 205 05db 96605D39 		.ascii	"\226`]9\357\303df\025\216\353*{\005\271\000\332\\\373"
 205      EFC36466 
 205      158EEB2A 
 205      7B05B900 
 205      DA5CFB
 206 05ee EEDF2350 		.ascii	"\356\337#P\013\002\255\0330P\327\234f\266\331\262\026"
 206      0B02AD1B 
 206      3050D79C 
 206      66B6D9B2 
 206      16
 207 05ff 81366669 		.ascii	"\2016fi\232\263h\2323k@_x\252\353\316\037\252-d~Vu\231"
 207      9AB3689A 
 207      336B405F 
 207      78AAEBCE 
 207      1FAA2D64 
 208 0617 C4C9113F 		.ascii	"\304\311\021?\365\240t\253\201\273\\\243,\032\353A_"
 208      F5A074AB 
 208      81BB5CA3 
 208      2C1AEB41 
ARM GAS  /tmp/ccbtJCRQ.s 			page 16


 208      5F
 209 0628 17557DBD 		.ascii	"\027U}\275\207\243\323\2365:t\370\275\211\261\317\263"
 209      87A3D39E 
 209      353A74F8 
 209      BD89B1CF 
 209      B3
 210 0639 1821B318 		.ascii	"\030!\263\030\315\375\336\305\270\246\212\361\021\212"
 210      CDFDDEC5 
 210      B8A68AF1 
 210      118A
 211 0647 71F8AF20 		.ascii	"q\370\257 \306\227\236\305\030f\020\003\027x\363\330"
 211      C6979EC5 
 211      18661003 
 211      1778F3D8 
 212 0657 14713769 		.ascii	"\024q7i\310\235\344R~~\317\337m\3120\323G\366q\305\354"
 212      C89DE452 
 212      7E7ECFDF 
 212      6DCA30D3 
 212      47F671C5 
 213 066c 76FE65ED 		.ascii	"v\376e\355\345}\313\324\265!\333\337<\211\274S\332\201"
 213      E57DCBD4 
 213      B521DBDF 
 213      3C89BC53 
 213      DA81
 214 067e A47D4ABA 		.ascii	"\244}J\272n?\316\037\014\354\314\035\201\325\244\337"
 214      6E3FCE1F 
 214      0CECCC1D 
 214      81D5A4DF 
 215 068e 7C435BB8 		.ascii	"|C[\270\342\226\337\245;\204\333\262\337:\035Yr\352"
 215      E296DFA5 
 215      3B84DBB2 
 215      DF3A1D59 
 215      72EA
 216 06a0 230EF14E 		.ascii	"#\016\361N_\323\267k\223\310\037x\312\320\265,c9\314"
 216      5FD3B76B 
 216      93C81F78 
 216      CAD0B52C 
 216      6339CC
 217 06b3 59D26A7A 		.ascii	"Y\322jz\303\320\304I\207\237\032\203\357\253\301;\322"
 217      C3D0C449 
 217      879F1A83 
 217      EFABC13B 
 217      D2
 218 06c4 01D84F5F 		.ascii	"\001\330O_\243\226b0E\324\337\021\",\227UE\344[\002"
 218      A3966230 
 218      45D4DF11 
 218      222C9755 
 218      45E45B02 
 219 06d8 FD56C32A 		.ascii	"\375V\303*BA\026c\267{x\313\012\250\351fo\255:\216\364"
 219      42411663 
 219      B77B78CB 
 219      0AA8E966 
 219      6FAD3A8E 
 220 06ed 597E23ED 		.ascii	"Y~#\355>\025V\032\212\330N\212\300}\313\361*\252\335"
 220      3E15561A 
 220      8AD84E8A 
 220      C07DCBF1 
ARM GAS  /tmp/ccbtJCRQ.s 			page 17


 220      2AAADD
 221 0700 1C9DDF44 		.ascii	"\034\235\337D{\304\216\261\036\366\377?T\327\375\007"
 221      7BC48EB1 
 221      1EF6FF3F 
 221      54D7FD07 
 222 0710 59980B5A 		.ascii	"Y\230\013ZU\276\301:\013x\330\002\347\311\036}\210\334"
 222      55BEC13A 
 222      0B78D802 
 222      E7C91E7D 
 222      88DC
 223 0722 A693D68F 		.ascii	"\246\223\326\217\223I\3556\232\324\201;3\0000\251\366"
 223      9349ED36 
 223      9AD4813B 
 223      330030A9 
 223      F6
 224 0733 95CCA4F2 		.ascii	"\225\314\244\362\231\200\242\2378\015\303\236\273\260"
 224      9980A29F 
 224      380DC39E 
 224      BBB0
 225 0741 E763561B 		.ascii	"\347cV\033\250\357\357\230\243\355\277\271\262\201>"
 225      A8EFEF98 
 225      A3EDBFB9 
 225      B2813E
 226 0750 1B1B3836 		.ascii	"\033\03386@\033\000\203>\3739\207p,kVB\234\031\316\343"
 226      401B0083 
 226      3EFB3987 
 226      702C6B56 
 226      429C19CE 
 227 0765 6AF296E8 		.ascii	"j\362\226\350u`\230u\245\2778ECu/Ow\010kCV\323b#c0\255"
 227      75609875 
 227      A5BF3845 
 227      43752F4F 
 227      77086B43 
 228 0780 CC300ADC 		.ascii	"\3140\012\334q\236\356\216u\363tw\354K\254{x\303\036"
 228      719EEE8E 
 228      75F37477 
 228      EC4BAC7B 
 228      78C31E
 229 0793 9993599C 		.ascii	"\231\223Y\234\310\230\205\300}m\035F\267\213\231\274"
 229      C89885C0 
 229      7D6D1D46 
 229      B78B99BC 
 230 07a3 DD7419AD 		.ascii	"\335t\031\255\357\365\320\235Y\337\215\236}~\334\364"
 230      EFF5D09D 
 230      59DF8D9E 
 230      7D7EDCF4 
 231 07b3 F1B05DF7 		.ascii	"\361\260]\367\216\352\266\247\320m\347g\215\355y\253"
 231      8EEAB6A7 
 231      D06DE767 
 231      8DED79AB 
 232 07c3 DBBAD9BD 		.ascii	"\333\272\331\275Z>PA\364\017OZB"
 232      5A3E5041 
 232      F40F4F5A 
 232      42
 233 07d0 2E52EB62 		.ascii	".R\353b\2331\327\242{\363Q5;\310\273\005\246o\242\357"
 233      9B31D7A2 
 233      7BF35135 
ARM GAS  /tmp/ccbtJCRQ.s 			page 18


 233      3BC8BB05 
 233      A66FA2EF 
 234 07e4 99A9EE45 		.ascii	"\231\251\356E\237GKk\265\214\206\213\275\264MHr\301"
 234      9F474B6B 
 234      B58C868B 
 234      BDB44D48 
 234      72C1
 235 07f6 EAC6379B 		.ascii	"\352\3067\233\367h{\321\027\\\270qM\372\003\323^\264"
 235      F7687BD1 
 235      175CB871 
 235      4DFA03D3 
 235      5EB4
 236 0808 66811772 		.ascii	"f\201\027r[`\316\0215)\361\202\301A.\242\203\\2:\005"
 236      5B60CE11 
 236      3529F182 
 236      C1412EA2 
 236      835C323A 
 237 081d 4F3E7733 		.ascii	"O>w3\372\017;\231\"\204\241C\354\030@\333\326?h\305"
 237      FA0F3B99 
 237      2284A143 
 237      EC1840DB 
 237      D63F68C5 
 238 0831 B30B4426 		.ascii	"\263\013D&<\2436a\361\336\211\371\022\263\322\343n\230"
 238      3CA33661 
 238      F1DE89F9 
 238      12B3D2E3 
 238      6E98
 239 0843 1BEB0CF6 		.ascii	"\033\353\014\366f\2436\270]\230\237|\355\006o\274\223"
 239      66A336B8 
 239      5D989F7C 
 239      ED066FBC 
 239      93
 240 0854 B035E9B6 		.ascii	"\2605\351\266N-9d\233\336\347=\343\231\371;\322h\312"
 240      4E2D3964 
 240      9BDEE73D 
 240      E399F93B 
 240      D268CA
 241 0867 E7AEB881 		.ascii	"\347\256\270\201\233\340Z\367\2313\036\010\216xt\320"
 241      9BE05AF7 
 241      99331E08 
 241      8E7874D0 
 242 0877 8D4707A7 		.ascii	"\215G\007\247\261\376\013\326\015\030(\347a\275\000"
 242      B1FE0BD6 
 242      0D1828E7 
 242      61BD00
 243 0886 EB4558AF 		.ascii	"\353EX\257\304z=\326\037b\275\011\353sX_\306\272\017"
 243      C47A3DD6 
 243      1F62BD09 
 243      EB73585F 
 243      C6BA0F
 244 0899 EBAB585F 		.ascii	"\353\253X_\307\372\246\233\200k\311\000\365S\271u,\000"
 244      C7FAA69B 
 244      806BC900 
 244      F553B975 
 244      2C00
 245 08ab 590EE66E 		.ascii	"Y\016\346nX\\S\023\3566ow0\267\364\370\266\373\365c"
 245      585C5313 
ARM GAS  /tmp/ccbtJCRQ.s 			page 19


 245      EE366F77 
 245      30B7F4F8 
 245      B6FBF563 
 246 08bf 46CBC91C 		.ascii	"F\313\311\034\355\327\211'\305\227}J='l\337\363L\237"
 246      EDD78927 
 246      C5977D4A 
 246      3D276CDF 
 246      F34C9F
 247 08d2 5DCF9DAD 		.ascii	"]\317\235\255_<\335\364\2762\373e\345v\377\213\234\207"
 247      5F3CDDF4 
 247      BE32FB65 
 247      E576FF8B 
 247      9C87
 248 08e4 AE67F9B2 		.ascii	"\256g\371\262\337\351P\257\335G\367\356\265'\177\276"
 248      DFE950AF 
 248      DD47F7EE 
 248      B5277FBE 
 249 08f4 1EB7866A 		.ascii	"\036\267\206j}\270\320\010[\303{\300\022\335\003\346"
 249      7DB8D008 
 249      5BC37BC0 
 249      12DD03E6 
 250 0904 E81E0867 		.ascii	"\350\036\010g.2G\031:Og\230n\354\217\260\351\033\012"
 250      2E324719 
 250      3A4F6798 
 250      6EEC8FB0 
 250      E91B0A
 251 0917 3978EB6C 		.ascii	"9x\353l\335>\262\005y{\325G\255\374\273,\336Z\255\213"
 251      DD3EB205 
 251      797BD547 
 251      ADFCBB2C 
 251      DE5AAD8B 
 252 092b 8456B389 		.ascii	"\204V\263\211XF'\333H\256:\250\352\015[U-]\262m\224"
 252      584627DB 
 252      48AE3AA8 
 252      EA0D5B55 
 252      2D5DB26D 
 253 0940 9391ACCB 		.ascii	"\223\221\254\313q\034_o\325\024Uk\036\363}y\220=g\363"
 253      711C5F6F 
 253      D514556B 
 253      1EF37D79 
 253      903D67F3 
 254 0954 CC9CFD0D 		.ascii	"\314\234\375\015Y\256\244\032z\353\033N4p\015\364\210"
 254      59AEA41A 
 254      7AEB1B4E 
 254      34700DF4 
 254      88
 255 0965 5B494372 		.ascii	"[ICr\374\000\252\203'\215:\210\023k\0132p\024\352=z"
 255      FC00AA83 
 255      278D3A88 
 255      136B0B32 
 255      7014EA3D 
 256 097a E0DE3393 		.ascii	"\340\3363\223kTt(\355}(\303\032/\235\353\334$\373\010"
 256      6B547428 
 256      ED7D28C3 
 256      1A2F9DEB 
 256      DC24FB08 
 257 098e 446D95D2 		.ascii	"Dm\225\322\323\266{\360v\006\030\011\034Z\011\334\022"
ARM GAS  /tmp/ccbtJCRQ.s 			page 20


 257      D3B67BF0 
 257      76061809 
 257      1C5A09DC 
 257      12
 258 099f 9FF6C6D5 		.ascii	"\237\366\306\325\333\306L\303\360\225'MVA\263a\226\232"
 258      DBC64CC3 
 258      F095274D 
 258      5641B361 
 258      969A
 259 09b1 250575DE 		.ascii	"%\005u\336l>\262\223k\310Hj\227j\0065\230\0041\254^"
 259      6C3EB293 
 259      6BC8486A 
 259      976A0635 
 259      980431AC 
 260 09c6 AF2CE766 		.ascii	"\257,\347f\261-P\037\235\272R\203l\263\000g \236\274"
 260      B12D501F 
 260      9DBA5283 
 260      6CB30067 
 260      209EBC
 261 09d9 8324295F 		.ascii	"\203$)_V\026\320S\253f\001\364Y\376d\276\276\333\361"
 261      5616D053 
 261      AB6601F4 
 261      59FE64BE 
 261      BEDBF1
 262 09ec 30BD571F 		.ascii	"0\275W\037\202\321\006\336\273\273N\252\274\257D\336"
 262      82D106DE 
 262      BBBB4EAA 
 262      BCAF44DE 
 263 09fc 37E6E7DD 		.ascii	"7\346\347\335\014\304\223O\221du6\357\177~I\345}\265"
 263      0CC4934F 
 263      91647536 
 263      EF7F7E49 
 263      E57DB5
 264 0a0f 2BDEDBBA 		.ascii	"+\336\333\272\214\031\200\266\024\241\264\003[\212|"
 264      8C1980B6 
 264      14A1B403 
 264      5B8A7C
 265 0a1e CC0E42CE 		.ascii	"\314\016B\316\340\266\322%+\230\247\205\210\242\235"
 265      E0B6D225 
 265      2B98A785 
 265      88A29D
 266 0a2d 91B133CF 		.ascii	"\221\2613\317z\336+X\261\211\263\316\205\346\\\255\321"
 266      7ADE2B58 
 266      B189B3CE 
 266      85E65CAD 
 266      D1
 267 0a3e 0D5E8E83 		.ascii	"\015^\216\203\012\3650\212\201\315\367\014ff\356x\227"
 267      0AF5308A 
 267      81CDF70C 
 267      6666EE78 
 267      97
 268 0a4f E1D4E3A0 		.ascii	"\341\324\343\240\256\333\034`v\007\025v\037\243\221"
 268      AEDB1C60 
 268      76071576 
 268      1FA391
 269 0a5e 08DC1A1F 		.ascii	"\010\334\032\037\315$Z}t\276_\213\365;X\277\213\365"
 269      CD245A7D 
ARM GAS  /tmp/ccbtJCRQ.s 			page 21


 269      74BE5F8B 
 269      F53B58BF 
 269      8BF5
 270 0a70 3AACD7FB 		.ascii	":\254\327\373L9\346\027\272\227\330\232b>\223P\322\213"
 270      4C39E617 
 270      BA97D89A 
 270      623E9350 
 270      D28B
 271 0a82 9DDDC3B4 		.ascii	"\235\335\303\264\303\242{\366\351\231\334Kh\302\037"
 271      C3A27BF6 
 271      E999DC4B 
 271      68C21F
 272 0a91 A0779CC8 		.ascii	"\240w\234\310\357\035\226\235\232>\244\330\230\345\034"
 272      EF1D969D 
 272      9A3EA4D8 
 272      98E51C
 273 0aa0 3D4735E7 		.ascii	"=G5\347\330\350\3029j\322_-p\267Qd\016t\272\227\177"
 273      D8E8C239 
 273      6AD25F2D 
 273      70B75164 
 273      0E74BA97 
 274 0ab5 A3BD33B3 		.ascii	"\243\2753\263\031\345x\2550\377\353>& \236,C\222m\331"
 274      19E578AD 
 274      30FFEB3E 
 274      26209E2C 
 274      43926DD9 
 275 0ac9 82B46B82 		.ascii	"\202\264k\202ls%H\323\002\315\366\177\357\313\254S\266"
 275      6C732548 
 275      D302CDF6 
 275      7FEFCBAC 
 275      53B6
 276 0adb E5B63047 		.ascii	"\345\2660G\225\326\244\233\217\242\2712\260S\236\301"
 276      95D6A49B 
 276      8FA2B932 
 276      B0539EC1 
 277 0aeb CCB6BFE1 		.ascii	"\314\266\277\341\350\262\221Jj\273\366\366\212R\253"
 277      E8B2914A 
 277      6ABBF6F6 
 277      8A52AB
 278 0afa 3CDC9219 		.ascii	"<\334\222\031\222a\032\002o\034\332\215\217\342r\370"
 278      92611A02 
 278      6F1CDA8D 
 278      8FE272F8 
 279 0b0a 0F982FBD 		.ascii	"\017\230/\275k\031X\367@\233k\333\376\001\201v\"P\333"
 279      6B1958F7 
 279      409B6BDB 
 279      FE018176 
 279      2250DB
 280 0b1d 8081BAE6 		.ascii	"\200\201\272\346\254f\357\256\354B\240t\2415K\362Y2"
 280      AC66EFAE 
 280      EC42A074 
 280      A1354BF2 
 280      5932
 281 0b2f 389F3983 		.ascii	"8\2379\203\363\2053\027\375\375>\362\0036\346\311n\335"
 281      F3853317 
 281      FDFD3EF2 
 281      0336E6C9 
ARM GAS  /tmp/ccbtJCRQ.s 			page 22


 281      6EDD
 282 0b41 AAEC24CA 		.ascii	"\252\354$\312\027\226\351\006\306\236\000n`xK%\227."
 282      1796E906 
 282      C69E006E 
 282      60784B25 
 282      972E
 283 0b53 85A4866D 		.ascii	"\205\244\206m\224\356\307\\\362`\326(\345\313%aQi\345"
 283      94EEC75C 
 283      F260D628 
 283      E5CB2561 
 283      5169E5
 284 0b66 DDDB2C00 		.ascii	"\335\333,\000\256\263w\225\266\233\214\313\266\023n"
 284      AEB37795 
 284      B69B8CCB 
 284      B6136E
 285 0b75 00EDA601 		.ascii	"\000\355\246\001\273\217\321W\005.\215\301v;\006\325"
 285      BB8FD157 
 285      052E8DC1 
 285      763B06D5 
 286 0b85 1D587F8A 		.ascii	"\035X\177\212\365>\254;}.\226[\324\303tl\346\265\033"
 286      F53EAC3B 
 286      7D2E965B 
 286      D4C3746C 
 286      E6B51B
 287 0b98 07ECB517 		.ascii	"\007\354\265\027\263\275\326\013\230i \323}\252\327"
 287      B3BDD60B 
 287      986920D3 
 287      7DAAD7
 288 0ba7 322714B8 		.ascii	"2'\024\270\275>\013\2367\243J\317[Xt\340\267\232G\177"
 288      BD3E0B9E 
 288      37A34ACF 
 288      5B5874E0 
 288      B79A477F 
 289 0bbb 5DC87904 		.ascii	"]\310y\004\323^\337\267U\312F\203R>F\245lB\025\034\301"
 289      D35EDFB7 
 289      55CA4683 
 289      523E46A5 
 289      6C42151C 
 290 0bd0 FA28D65D 		.ascii	"\372(\326]\346Y\357O\205\226Y\3174\305\330\315\301\306"
 290      E659EF4F 
 290      859659CF 
 290      34C5D8CD 
 290      C1C6
 291 0be2 E151D2EF 		.ascii	"\341Q\322\357u\303X\273\337\322\372\263\266\245\325"
 291      75C358BB 
 291      DFD2FAB3 
 291      B6A5D5
 292 0bf1 8D53C565 		.ascii	"\215S\305e\373\251\"\327\226VM\021%\351\311N\010okS"
 292      FBA922D7 
 292      96564D11 
 292      25E9C94E 
 292      086F6B53 
 293 0c05 454FFEA9 		.ascii	"EO\376\251b\366\254\364\342%og\346\274Y\272o\177\236"
 293      62F6ACF4 
 293      E2256F67 
 293      E6BC59BA 
 293      6F7F9E
ARM GAS  /tmp/ccbtJCRQ.s 			page 23


 294 0c18 6369D561 		.ascii	"ci\325a|+\245A\347\303\243\221\332\253\256\307\240\272"
 294      7C2BA541 
 294      E7C3A391 
 294      DAABAEC7 
 294      A0BA
 295 0c2a 5E54DD49 		.ascii	"^T\335I\263\242\226\025Y\024\345q\013lS\267\226\000"
 295      B3A29615 
 295      5914E571 
 295      0B6C53B7 
 295      9600
 296 0c3c B3977253 		.ascii	"\263\227rSV<\363+\270v\200\305\271\004H\031\004x\013"
 296      563CF32B 
 296      B87680C5 
 296      B9044819 
 296      04780B
 297 0c4f 055881F6 		.ascii	"\005X\201\366\366>\326\307\261>e\026im\221e!e^\270P"
 297      F63ED6C7 
 297      B13E6516 
 297      696D9165 
 297      21655EB8 
 298 0c64 D4D3E685 		.ascii	"\324\323\346\205T\012\226\214\215=\313\215\013)\343"
 298      540A968C 
 298      8D3DCB8D 
 298      0B29E3
 299 0c73 CACEB083 		.ascii	"\312\316\260\203\221\275&;\233\275\264\343\311:+\013"
 299      91BD263B 
 299      9BBDB4E3 
 299      C93A2B0B 
 300 0c83 D974E72C 		.ascii	"\331t\347,\253\326to\333\253W\227\303\252U\261\260@"
 300      ABD6746F 
 300      DBAB5797 
 300      C3AA55B1 
 300      B040
 301 0c95 5F0A362D 		.ascii	"_\0126-[5k\006\253\314s\242\000k\352\317\306\301\274"
 301      5B356B06 
 301      ABCC73A2 
 301      006BEACF 
 301      C6C1BC
 302 0ca8 9AF70042 		.ascii	"\232\367\000B\340\276\203\261\315\333\2146\274dq\221"
 302      E0BE83B1 
 302      CDDB8C36 
 302      BC647191 
 303 0cb8 F44DB198 		.ascii	"\364M\261\230\335\315\237G}\377}\007;h\351\300yi!f\375"
 303      DDCD9F47 
 303      7DFF7D07 
 303      3B68E9C0 
 303      79692166 
 304 0ccd 97061C90 		.ascii	"\227\006\034\220\373\317\"\234e\032\335\3520\215R\366"
 304      FBCF229C 
 304      651ADDEA 
 304      308D52F6 
 305 0cdd FA7C96F9 		.ascii	"\372|\226\371p#*\312\013\013\305&\026\352\332qN\350"
 305      70232ACA 
 305      0B0BC526 
 305      16EADA71 
 305      4EE8
 306 0cef C309798B 		.ascii	"\303\011y\213\033\260\0341\274\301\010\366\231g\260"
ARM GAS  /tmp/ccbtJCRQ.s 			page 24


 306      1BB01C31 
 306      BCC108F6 
 306      9967B0
 307 0cfe E22CE761 		.ascii	"\342,\347an\363\027t\233\313\350*W\260\276\212\365u"
 307      6EF31774 
 307      9BCBE82A 
 307      57B0BE8A 
 307      F575
 308 0d10 B3DBEC2D 		.ascii	"\263\333\354-\262\246\023L\251\006\274\214\356I~D{\035"
 308      B2A6134C 
 308      A906BC8C 
 308      EE497E44 
 308      7B1D
 309 0d22 589475C1 		.ascii	"X\224u\301A>\212\177\313g\312f2\220\023\314\342\033"
 309      413E8A7F 
 309      CB67CA66 
 309      329013CC 
 309      E21B
 310 0d34 FC8411D9 		.ascii	"\374\204\021\3317\023\270\357}^\177\355v\333g\377k7"
 310      3713B8EF 
 310      7D5E7FED 
 310      76DB67FF 
 310      6B37
 311 0d46 E33B3999 		.ascii	"\343;9\231V0\210\307\254\216\237\305D?\370\375\375\344"
 311      563088C7 
 311      AC8E9FC5 
 311      443FF8FD 
 311      FDE4
 312 0d58 5C5193C2 		.ascii	"\\Q\223\302\356<A>P\346\246\301\205\376\004\334\351"
 312      EE3C413E 
 312      50E6A6C1 
 312      85FE04DC 
 312      E9
 313 0d69 66F1DFE4 		.ascii	"f\361\337\344\206\262H\351m\333}u\034\223\211\306\210"
 313      86B248E9 
 313      6DDB7D75 
 313      1C9389C6 
 313      88
 314 0d7a 0307D21B 		.ascii	"\003\007\322\033v\322p\013Y\340m\210\020l\370x2{\260"
 314      76D2700B 
 314      59E06D88 
 314      106CF878 
 314      327BB0
 315 0d8d 35E06579 		.ascii	"5\340ey\355l?o\350m\002\243d*d]\245?\330\311\271\371"
 315      ED6C3F6F 
 315      E86D02A3 
 315      642A645D 
 315      A53FD8C9 
 316 0da3 0D618B0E 		.ascii	"\015a\213\016=B\205\236\353\367:\252/\373\355G\365\236"
 316      3D42859E 
 316      EBF73AAA 
 316      2FFBED47 
 316      F59E
 317 0db5 9C962370 		.ascii	"\234\226#ps\374\272A\334O\352\0077)\213&d\272g\226H"
 317      73FCBA41 
 317      DC4FEA07 
 317      37298B26 
ARM GAS  /tmp/ccbtJCRQ.s 			page 25


 317      64BA6796 
 318 0dca 29FAD06E 		.ascii	")\372\320n\230M\032\277_W\205\235\253\244?\016j\261"
 318      984D1ABF 
 318      5F57859D 
 318      ABA43F0E 
 318      6AB1
 319 0ddc C0F8432B 		.ascii	"\300\370C+\265_&\241f}\026\203\0158\213\365\232\337"
 319      B55F26A1 
 319      667D1683 
 319      0D388BF5 
 319      9ADF
 320 0dee FE278E02 		.ascii	"\376'\216\002\267(\243\332,\252\377q\244j\312\341\033"
 320      B728A3DA 
 320      2CAAFF71 
 320      A46ACAE1 
 320      1B
 321 0dff AF3B52D1 		.ascii	"\257;R\321-u'\2527\034\251\316\346\340\260\316\221J"
 321      2D7527AA 
 321      371CA9CE 
 321      E6E0B0CE 
 321      914A
 322 0e11 C9D157BD 		.ascii	"\311\321W\275#\325\241\034\001\272\301\221j_\016\252"
 322      23D5A11C 
 322      01BAC191 
 322      6A5F0EAA 
 323 0e21 4647AAED 		.ascii	"FG\252\3559\250\346e\250\324_\037v\266~>i=}M\235\236"
 323      39A8E665 
 323      A8D45F1F 
 323      76B67E3E 
 323      693D7D4D 
 324 0e37 63CC9CFD 		.ascii	"c\314\234\375K\313\376\370\231\034I\334\002\177\366"
 324      4BCBFEF8 
 324      991C49DC 
 324      027FF6
 325 0e46 21CAEAC1 		.ascii	"!\312\352\301\346\210\252\376\324\257Fy\277\205\376"
 325      E688AAFE 
 325      D4AF4679 
 325      BF85FE
 326 0e55 72919D2B 		.ascii	"r\221\235+\010\334|\277\375\317\026U\274\205~\273\037"
 326      08DC7CBF 
 326      FDCF1655 
 326      BC857EBB 
 326      1F
 327 0e66 245E3FB4 		.ascii	"$^?\264L\375A\342'\312\203!\246\012\236l\312\335#{!"
 327      4CFD41E2 
 327      27CA8321 
 327      A60A9E6C 
 327      CADD237B 
 328 0e7b 49E016E7 		.ascii	"I\340\026\347\356q\211\271\307\037\223\267i*\334\266"
 328      EE7189B9 
 328      C71F93B7 
 328      692ADCB6 
 329 0e8b FBD6F0C5 		.ascii	"\373\326\360\305u\241\254\327\232\262\306\274>\207U"
 329      75A1ACD7 
 329      9AB2C6BC 
 329      3E8755
 330 0e9a 3465C69C 		.ascii	"4e\306\234\370\243\345\202T\360\354\277\374\272x\"\031"
ARM GAS  /tmp/ccbtJCRQ.s 			page 26


 330      F8A3E582 
 330      54F0ECBF 
 330      FCBA7822 
 330      19
 331 0eab 3F664C09 		.ascii	"?fL\011\373\213'K\242\361\252\252x\254$\021\227\344"
 331      FB8B274B 
 331      A2F1AAAA 
 331      78AC2411 
 331      97E4
 332 0ebd 64C92F7F 		.ascii	"d\311/\1775i\342\244\351\364^\242\242R\224\222%\317"
 332      3569E2A4 
 332      E9F45EA2 
 332      A2529492 
 332      25CF
 333 0ecf 4E9C5812 		.ascii	"N\234X\022-\227g$\304\344\230r\022\250J\226E\344\373"
 333      2D976724 
 333      C4E49872 
 333      12A84A96 
 333      45E4FB
 334 0ee2 4AAA9352 		.ascii	"J\252\223RIE,ZY]*\226\304\304i\225\025\223K\222riEL"
 334      49452C5A 
 334      595D2A96 
 334      C4C46995 
 334      15934B92 
 335 0efa 863641F8 		.ascii	"\2066A\370\367\223\307#\362cv\255\252\204hyEL,\211\224"
 335      F793C723 
 335      F26376AD 
 335      AA846879 
 335      454C2C89 
 336 0f0f 8A5384EA 		.ascii	"\212S\204\352J9\242!\207#\021\225n\234\316\234,&\345"
 336      4A39A221 
 336      87231195 
 336      6E9CCE9C 
 336      2C26E5
 337 0f22 12492E49 		.ascii	"\022I.I\306\253\245\250\310\276\322*\222\024\177W-\306"
 337      C6ABA5A8 
 337      C8BED22A 
 337      92147F57 
 337      2DC6
 338 0f34 A26264EC 		.ascii	"\242bd\354\330\247\306DI!rU.\211B\3518.q\0176\201'P"
 338      D8A7C644 
 338      49217255 
 338      2E8942E9 
 338      382E710F 
 339 0f4c C645C4E9 		.ascii	"\306E\304\351b\264Z\026G\233A)+\321\362\010\275\246"
 339      62B45A16 
 339      479B4129 
 339      2BD1F208 
 339      BDA6
 340 0f5e 5245FE31 		.ascii	"RE\3761\036\257\034\201_#B2)J\231.\036\311\317\215\024"
 340      1EAF1C81 
 340      5F234232 
 340      294A992E 
 340      1EC9CF8D 
 341 0f73 8F5394E1 		.ascii	"\217S\224\341\370e\232P!\253\274$\207\342\035\261\212"
 341      F8659A50 
 341      21ABBC24 
ARM GAS  /tmp/ccbtJCRQ.s 			page 27


 341      87E21DB1 
 341      8A
 342 0f84 DE89BF20 		.ascii	"\336\211\277 \306\0360\016; ic\023-\007\001\000\341"
 342      C61E300E 
 342      3B206963 
 342      132D0701 
 342      00E1
 343 0f96 21C7E7C9 		.ascii	"!\307\347\311\031Im\240B\014"
 343      19496DA0 
 343      420C
 344 0fa0 3C2287A9 		.ascii	"<\"\207\251\000x]\354L\027-/\005\232\241*C\021\220\251"
 344      00785DEC 
 344      4C172D2F 
 344      059AA12A 
 344      431190A9 
 345 0fb4 5A8CC8C3 		.ascii	"Z\214\310\303tR\365\226?&N\227\375\011I\234\032\300"
 345      7452F596 
 345      3F264E97 
 345      FD09499C 
 345      1AC0
 346 0fc6 EF413921 		.ascii	"\357A9!U\304#r\250ZU\312\240HD\273\364\323GE\324\\\""
 346      55C42372 
 346      A85A55CA 
 346      A04844BB 
 346      F4D34745 
 347 0fdd D1784C06 		.ascii	"\321xL\006\302G\362\232Sy4.\211\300H!\222\001PT\236"
 347      C247F29A 
 347      5379342E 
 347      89C04821 
 347      92015054 
 348 0ff2 FE983BAA 		.ascii	"\376\230;\252\310\324\247\252\250\330\222X&H"
 348      C8D4A7AA 
 348      A8D89258 
 348      2648
 349 1000 55119997 		.ascii	"U\021\231\227\236\340\245\237\362\322\223\274\364\024"
 349      9EE0A59F 
 349      F2D293BC 
 349      F414
 350 100e 2F8DE7A5 		.ascii	"/\215\347\245\237\371\244qc\241\214\343+%>\231\360\001"
 350      9FF9A471 
 350      63A18CE3 
 350      2B253E99 
 350      F001
 351 1020 7400AC4D 		.ascii	"t\000\254M\224\002\361\312RQ\362\307\204*qPR~A\250\254"
 351      9402F1CA 
 351      5251F2C7 
 351      842A7150 
 351      527E41A8 
 352 1035 288BA922 		.ascii	"(\213\251\"=\371\204.\022\275,\230&L\026\222bHN\312"
 352      3DF9842E 
 352      12BD2C98 
 352      264C1692 
 352      62484ECA 
 353 1049 820CE313 		.ascii	"\202\014\343\023\244\017\306\303\020\263&p\025\300'"
 353      A40FC6C3 
 353      10B32670 
 353      15C027
ARM GAS  /tmp/ccbtJCRQ.s 			page 28


 354 1058 41B92A5E 		.ascii	"A\271*^\012\317\003S*\205\262dP\226\304)I\030\020\372"
 354      0ACF0353 
 354      2A85B264 
 354      5096C429 
 354      491810FA 
 355 106c AF402A9D 		.ascii	"\257@*\235\001Z\014\211\323+\344(4*\230&\307'\377g\342"
 355      015A0C89 
 355      D32BE428 
 355      342A9826 
 355      C727FF67 
 356 1081 2E555BD0 		.ascii	".U[\320D\224\320d\345\3004Y\226\022\301\244\030\223"
 356      4494D064 
 356      E5C03459 
 356      9612C1A4 
 356      1893
 357 1093 81A00854 		.ascii	"\201\240\010T\221\024\253\204D9\310\352l \320\204\032"
 357      9114AB84 
 357      4439C8EA 
 357      6C20D084 
 357      1A
 358 10a4 6A3406A6 		.ascii	"j4\006\246\344\203\032\340\341V\"\004\324U`\336\323"
 358      E4831AE0 
 358      E1562204 
 358      D45560DE 
 358      D3
 359 10b5 7398963C 		.ascii	"s\230\226<\235R\306\247\305D)\210m\251\2742\334N\024"
 359      9D52C6A7 
 359      C5442988 
 359      6DA9BC32 
 359      DC4E14
 360 10c8 8A532913 		.ascii	"\212S)\023B\362\005\270%N\243\027\\\365\020\3150*+\300"
 360      42F205B8 
 360      254EA317 
 360      5CF510CD 
 360      302A2BC0 
 361 10dc 78E5A106 		.ascii	"x\345\241\006S\241w\202\324\300+be!\340\035M%$&\304"
 361      53A17782 
 361      D4C02B62 
 361      6521E01D 
 361      4D252426 
 362 10f1 18B87E59 		.ascii	"\030\270~Y\020 i\013\320\224PIm$P\225\000\267\002\001"
 362      1020690B 
 362      D0945049 
 362      6D245095 
 362      00B70201 
 363 1105 2725CB7E 		.ascii	"'%\313~%V\2120\302a\374\362\357\000\361\267\216\014"
 363      25568A30 
 363      C261FCF2 
 363      EF00F1B7 
 363      8E0C
 364 1117 ABBD01D3 		.ascii	"\253\275\001\323\217c\004\241\276Z\026\215\226\200\366"
 364      8F6304A1 
 364      BE5A168D 
 364      9680F6
 365 1126 1F8BC563 		.ascii	"\037\213\305c\342c\2420\271\242\344\2111\343\307<\256"
 365      E263A230 
 365      B9A2E489 
ARM GAS  /tmp/ccbtJCRQ.s 			page 29


 365      31E3C73C 
 365      AE
 366 1137 5341F081 		.ascii	"SA\360\201\200\002$\005\311\212\377\242\012\224\247"
 366      80022405 
 366      C98AFFA2 
 366      0A94A7
 367 1146 54C7A211 		.ascii	"T\307\242\021yx\264\374\337\312K'\002\240,>\007\032"
 367      7978B4FC 
 367      DFCA4B27 
 367      02A02C3E 
 367      071A
 368 1158 AC88320E 		.ascii	"\254\2102\016\236\003\226\303,\224\310b\202\237&\024"
 368      9E0396C3 
 368      2C94C862 
 368      829F2614 
 369 1168 52358093 		.ascii	"R5\200\223\211U\314\261\330u\021\345d\206:\022\203\341"
 369      8955CCB1 
 369      D87511E5 
 369      64863A12 
 369      83E1
 370 117a 76E67B30 		.ascii	"v\346{0Z-\201B\345\200D\277\215\230Z!\311\325BeD\256"
 370      5A2D8142 
 370      E58044BF 
 370      8D985A21 
 370      C9D54265 
 371 1190 A882A8A9 		.ascii	"\250\202\250\251R\334\013\0246\017\206\232\3561o4\335"
 371      52DC0B14 
 371      360F869A 
 371      EE316F34 
 371      DD
 372 11a1 0AD3DEE1 		.ascii	"\012\323\336\341B5\326qO\352\306J/\003\245b\245,\204"
 372      4235D671 
 372      4FEAC64A 
 372      2F03A562 
 372      A52C84
 373 11b4 A6AA22FA 		.ascii	"\246\252\"\372\351?_B\220B\225BR\246d\005Se\332\315"
 373      E93F5F42 
 373      90429542 
 373      52A66405 
 373      5365DACD 
 374 11c8 10559E52 		.ascii	"\020U\236Rqru\031S\244\361N8!\304*\242\021P\243\257"
 374      71727519 
 374      53A4F14E 
 374      3821C42A 
 374      A21150A3 
 375 11dd 7472D9A0 		.ascii	"tr\331\240*\001\340q\344\371hyP\325A )\312\325\211\220"
 375      2A01E071 
 375      E4F96879 
 375      50D54120 
 375      29CAD589 
 376 11f2 2C0A5229 		.ascii	",\012R)\030PP\015\246\203\350\310EA\2350\300Y\361x\324"
 376      1850500D 
 376      A683E8C8 
 376      45419D30 
 376      C059F178 
 377 1207 18295E2A 		.ascii	"\030)^*\310\302\230\254'E\306\300<b\222\230L\012eb\262"
 377      C8C298AC 
ARM GAS  /tmp/ccbtJCRQ.s 			page 30


 377      2745C6C0 
 377      3C629298 
 377      4C0A6562 
 378 121c F839519A 		.ascii	"\3709Q\232*J\305\225\361x\2020}=+\312\377\012\366#U"
 378      2A4AC595 
 378      F1788230 
 378      7D3D2BCA 
 378      FF0AF623 
 379 1231 C8339E1F 		.ascii	"\3103\236\037\254\335yN\254\234\362\374\377\001\251"
 379      ACDD794E 
 379      AC9CF2FC 
 379      FF01A9
 380 1240 F2FC7C   		.ascii	"\362\374|"
 381              		.text
 382              		.section	.gnu.lto_.symtab.53d92863ee8fd734,"",%progbits
 383 0000 74657374 		.ascii	"test_sequence_007\000\000\000\000\000\000\000\000\000"
 383      5F736571 
 383      75656E63 
 383      655F3030 
 383      37000000 
 384 001a 000000EB 		.ascii	"\000\000\000\353\001\000\000test_step\000\000\002\000"
 384      01000074 
 384      6573745F 
 384      73746570 
 384      00000200 
 385 002e 00000000 		.ascii	"\000\000\000\000\000\000\000\000\225\001\000\000wa\000"
 385      00000000 
 385      95010000 
 385      776100
 386 003d 00020000 		.ascii	"\000\002\000\000\000\000\000\000\000\000\000\227\001"
 386      00000000 
 386      00000097 
 386      01
 387 004a 00006368 		.ascii	"\000\000ch\000\000\002\000\000\000\000\000\000\000\000"
 387      00000200 
 387      00000000 
 387      000000
 388 0059 009C0100 		.ascii	"\000\234\001\000\000threads\000\000\002\000\000\000"
 388      00746872 
 388      65616473 
 388      00000200 
 388      0000
 389 006b 00000000 		.ascii	"\000\000\000\000\000\000\350\001\000\000_test_asser"
 389      0000E801 
 389      00005F74 
 389      6573745F 
 389      61737365 
 390 0080 745F7365 		.ascii	"t_sequence\000\000\002\000\000\000\000\000\000\000\000"
 390      7175656E 
 390      63650000 
 390      02000000 
 390      00000000 
 391 0095 00C00000 		.ascii	"\000\300\000\000\000test_wait_threads\000\000\002\000"
 391      00746573 
 391      745F7761 
 391      69745F74 
 391      68726561 
ARM GAS  /tmp/ccbtJCRQ.s 			page 31


 392 00af 00000000 		.ascii	"\000\000\000\000\000\000\000\000\313\000\000\000tes"
 392      00000000 
 392      CB000000 
 392      746573
 393 00be 745F656D 		.ascii	"t_emit_token\000\000\002\000\000\000\000\000\000\000"
 393      69745F74 
 393      6F6B656E 
 393      00000200 
 393      00000000 
 394 00d4 0000CD00 		.ascii	"\000\000\315\000\000\000chMsgRelease\000\000\002\000"
 394      00006368 
 394      4D736752 
 394      656C6561 
 394      73650000 
 395 00ea 00000000 		.ascii	"\000\000\000\000\000\000\000\000\321\000\000\000chM"
 395      00000000 
 395      D1000000 
 395      63684D
 396 00f9 73675761 		.ascii	"sgWait\000\000\002\000\000\000\000\000\000\000\000\000"
 396      69740000 
 396      02000000 
 396      00000000 
 396      0000
 397 010b 7F010000 		.ascii	"\177\001\000\000chThdCreateStatic\000\000\002\000\000"
 397      63685468 
 397      64437265 
 397      61746553 
 397      74617469 
 398 0125 00000000 		.ascii	"\000\000\000\000\000\000\000\202\001\000\000chMsgSe"
 398      00000082 
 398      01000063 
 398      684D7367 
 398      5365
 399 0137 6E640000 		.ascii	"nd\000\000\002\000\000\000\000\000\000\000\000\000\220"
 399      02000000 
 399      00000000 
 399      000090
 400 0146 010000   		.ascii	"\001\000\000"
 401              		.text
 402              		.section	.gnu.lto_.opts,"",%progbits
 403 0000 272D6D63 		.ascii	"'-mcpu=cortex-m3' '-mno-thumb-interwork' '-mthumb' "
 403      70753D63 
 403      6F727465 
 403      782D6D33 
 403      2720272D 
 404 0033 272D6767 		.ascii	"'-ggdb' '-O2' '-fomit-frame-pointer' '-falign-funct"
 404      64622720 
 404      272D4F32 
 404      2720272D 
 404      666F6D69 
 405 0066 696F6E73 		.ascii	"ions=16' '-ffunction-sections' '-fdata-sections' '-"
 405      3D313627 
 405      20272D66 
 405      66756E63 
 405      74696F6E 
 406 0099 666E6F2D 		.ascii	"fno-common' '-flto'\000"
 406      636F6D6D 
ARM GAS  /tmp/ccbtJCRQ.s 			page 32


 406      6F6E2720 
 406      272D666C 
 406      746F2700 
 407              		.text
 408              		.cfi_sections	.debug_frame
 409              		.section	.text.test_007_001_execute,"ax",%progbits
 410              		.align	2
 411              		.p2align 4,,15
 412              		.thumb
 413              		.thumb_func
 414              		.type	test_007_001_execute, %function
 415              	test_007_001_execute:
 416              	.LFB220:
 417              		.file 1 "../../../test/rt/source/test/test_sequence_007.c"
 418              		.loc 1 76 0
 419              		.cfi_startproc
 420              		@ args = 0, pretend = 0, frame = 0
 421              		@ frame_needed = 0, uses_anonymous_args = 0
 422 0000 30B5     		push	{r4, r5, lr}
 423              		.cfi_def_cfa_offset 12
 424              		.cfi_offset 4, -12
 425              		.cfi_offset 5, -8
 426              		.cfi_offset 14, -4
 427              	.LBB13:
 428              	.LBB14:
 429              	.LBB15:
 430              	.LBB16:
 431              		.file 2 "../../../os/rt/include/chthreads.h"
 432              		.loc 2 286 0
 433 0002 40F20003 		movw	r3, #:lower16:ch
 434 0006 C0F20003 		movt	r3, #:upper16:ch
 435 000a 9969     		ldr	r1, [r3, #24]
 436              	.LBE16:
 437              	.LBE15:
 438              	.LBE14:
 439              	.LBE13:
 440              		.loc 1 83 0
 441 000c 40F20003 		movw	r3, #:lower16:wa
 442 0010 8A68     		ldr	r2, [r1, #8]
 443 0012 C0F20003 		movt	r3, #:upper16:wa
 444              		.loc 1 81 0
 445 0016 40F20004 		movw	r4, #:lower16:test_step
 446 001a C0F20004 		movt	r4, #:upper16:test_step
 447              		.loc 1 76 0
 448 001e 83B0     		sub	sp, sp, #12
 449              		.cfi_def_cfa_offset 24
 450              		.loc 1 83 0
 451 0020 1868     		ldr	r0, [r3]
 452              		.loc 1 81 0
 453 0022 0125     		movs	r5, #1
 454              		.loc 1 83 0
 455 0024 40F20003 		movw	r3, #:lower16:msg_thread1
 456 0028 0091     		str	r1, [sp]
 457 002a 0132     		adds	r2, r2, #1
 458 002c C0F20003 		movt	r3, #:upper16:msg_thread1
 459              		.loc 1 81 0
 460 0030 2560     		str	r5, [r4]
ARM GAS  /tmp/ccbtJCRQ.s 			page 33


 461              		.loc 1 83 0
 462 0032 4FF4A471 		mov	r1, #328
 463 0036 FFF7FEFF 		bl	chThdCreateStatic
 464              	.LVL0:
 465 003a 40F20003 		movw	r3, #:lower16:threads
 466 003e C0F20003 		movt	r3, #:upper16:threads
 467              		.loc 1 89 0
 468 0042 0222     		movs	r2, #2
 469 0044 2260     		str	r2, [r4]
 470              	.LVL1:
 471              		.loc 1 83 0
 472 0046 1860     		str	r0, [r3]
 473              		.loc 1 89 0
 474 0048 0424     		movs	r4, #4
 475              	.LVL2:
 476              	.L3:
 477              	.LBB17:
 478              		.loc 1 94 0 discriminator 2
 479 004a FFF7FEFF 		bl	chMsgWait
 480              	.LVL3:
 481              	.LBE17:
 482              		.loc 1 77 0 discriminator 2
 483 004e 456A     		ldr	r5, [r0, #36]
 484              	.LVL4:
 485              	.LBB18:
 486              		.loc 1 96 0 discriminator 2
 487 0050 2946     		mov	r1, r5
 488 0052 FFF7FEFF 		bl	chMsgRelease
 489              	.LVL5:
 490              		.loc 1 97 0 discriminator 2
 491 0056 E8B2     		uxtb	r0, r5
 492 0058 FFF7FEFF 		bl	test_emit_token
 493              	.LVL6:
 494              		.loc 1 93 0 discriminator 2
 495 005c 013C     		subs	r4, r4, #1
 496              	.LVL7:
 497 005e F4D1     		bne	.L3
 498              		.loc 1 99 0
 499 0060 FFF7FEFF 		bl	test_wait_threads
 500              	.LVL8:
 501              		.loc 1 100 0
 502 0064 40F20000 		movw	r0, #:lower16:.LC0
 503 0068 40F20001 		movw	r1, #:lower16:.LC1
 504 006c C0F20000 		movt	r0, #:upper16:.LC0
 505 0070 C0F20001 		movt	r1, #:upper16:.LC1
 506              	.LBE18:
 507              		.loc 1 102 0
 508 0074 03B0     		add	sp, sp, #12
 509              		@ sp needed
 510 0076 BDE83040 		pop	{r4, r5, lr}
 511              	.LVL9:
 512              	.LBB19:
 513              		.loc 1 100 0
 514 007a FFF7FEBF 		b	_test_assert_sequence
 515              	.LVL10:
 516              	.LBE19:
 517              		.cfi_endproc
ARM GAS  /tmp/ccbtJCRQ.s 			page 34


 518              	.LFE220:
 519              		.size	test_007_001_execute, .-test_007_001_execute
 520 007e 00BF     		.section	.text.msg_thread1,"ax",%progbits
 521              		.align	2
 522              		.p2align 4,,15
 523              		.thumb
 524              		.thumb_func
 525              		.type	msg_thread1, %function
 526              	msg_thread1:
 527              	.LFB219:
 528              		.loc 1 50 0
 529              		.cfi_startproc
 530              		@ args = 0, pretend = 0, frame = 0
 531              		@ frame_needed = 0, uses_anonymous_args = 0
 532              	.LVL11:
 533 0000 10B5     		push	{r4, lr}
 534              		.cfi_def_cfa_offset 8
 535              		.cfi_offset 4, -8
 536              		.cfi_offset 14, -4
 537              		.loc 1 52 0
 538 0002 4121     		movs	r1, #65
 539              		.loc 1 50 0
 540 0004 0446     		mov	r4, r0
 541              		.loc 1 52 0
 542 0006 FFF7FEFF 		bl	chMsgSend
 543              	.LVL12:
 544              		.loc 1 53 0
 545 000a 2046     		mov	r0, r4
 546 000c 4221     		movs	r1, #66
 547 000e FFF7FEFF 		bl	chMsgSend
 548              	.LVL13:
 549              		.loc 1 54 0
 550 0012 2046     		mov	r0, r4
 551 0014 4321     		movs	r1, #67
 552 0016 FFF7FEFF 		bl	chMsgSend
 553              	.LVL14:
 554              		.loc 1 55 0
 555 001a 2046     		mov	r0, r4
 556 001c 4421     		movs	r1, #68
 557              		.loc 1 56 0
 558 001e BDE81040 		pop	{r4, lr}
 559              	.LVL15:
 560              		.loc 1 55 0
 561 0022 FFF7FEBF 		b	chMsgSend
 562              	.LVL16:
 563              		.cfi_endproc
 564              	.LFE219:
 565              		.size	msg_thread1, .-msg_thread1
 566              		.global	test_sequence_007
 567 0026 00BFAFF3 		.section	.rodata.test_007_001,"a",%progbits
 567      0080AFF3 
 567      0080
 568              		.align	2
 569              		.type	test_007_001, %object
 570              		.size	test_007_001, 16
 571              	test_007_001:
 572 0000 1C000000 		.word	.LC2
ARM GAS  /tmp/ccbtJCRQ.s 			page 35


 573 0004 00000000 		.word	0
 574 0008 00000000 		.word	0
 575 000c 00000000 		.word	test_007_001_execute
 576              		.section	.rodata.test_sequence_007,"a",%progbits
 577              		.align	2
 578              		.type	test_sequence_007, %object
 579              		.size	test_sequence_007, 8
 580              	test_sequence_007:
 581 0000 00000000 		.word	test_007_001
 582 0004 00000000 		.word	0
 583              		.section	.rodata.str1.4,"aMS",%progbits,1
 584              		.align	2
 585              	.LC0:
 586 0000 41424344 		.ascii	"ABCD\000"
 586      00
 587 0005 000000   		.space	3
 588              	.LC1:
 589 0008 696E7661 		.ascii	"invalid sequence\000"
 589      6C696420 
 589      73657175 
 589      656E6365 
 589      00
 590 0019 000000   		.space	3
 591              	.LC2:
 592 001c 4D657373 		.ascii	"Messages Server loop\000"
 592      61676573 
 592      20536572 
 592      76657220 
 592      6C6F6F70 
 593 0031 000000   		.text
 594              	.Letext0:
 595              		.file 3 "/usr/lib/gcc/arm-none-eabi/4.8.2/include/stddef.h"
 596              		.file 4 "/usr/include/newlib/machine/_default_types.h"
 597              		.file 5 "/usr/include/newlib/stdint.h"
 598              		.file 6 "../../../os/common/ports/ARMCMx/compilers/GCC/chtypes.h"
 599              		.file 7 "../../../os/rt/include/chsystypes.h"
 600              		.file 8 "../../../os/rt/include/chschd.h"
 601              		.file 9 "../../../os/common/ports/ARMCMx/chcore.h"
 602              		.file 10 "../../../os/common/ports/ARMCMx/chcore_v7m.h"
 603              		.file 11 "../../../os/rt/include/chsem.h"
 604              		.file 12 "../../../os/rt/include/chmtx.h"
 605              		.file 13 "../../../test/lib/ch_test.h"
 606              		.file 14 "../../../os/common/ext/CMSIS/include/core_cm3.h"
 607              		.file 15 "../../../test/rt/source/test/test_root.h"
 608              		.file 16 "../../../os/rt/include/chmsg.h"