ARM GAS  /tmp/ccuqBRmh.s 			page 1


   1              		.syntax unified
   2              		.cpu cortex-m3
   3              		.fpu softvfp
   4              		.eabi_attribute 20, 1
   5              		.eabi_attribute 21, 1
   6              		.eabi_attribute 23, 3
   7              		.eabi_attribute 24, 1
   8              		.eabi_attribute 25, 1
   9              		.eabi_attribute 26, 1
  10              		.eabi_attribute 30, 2
  11              		.eabi_attribute 34, 1
  12              		.eabi_attribute 18, 4
  13              		.thumb
  14              		.file	"test_sequence_010.c"
  15              		.text
  16              	.Ltext0:
  17              		.section	.gnu.lto_.jmpfuncs.3ab41d4bef2e5fa1,"",%progbits
  18 0000 789CB591 		.ascii	"x\234\265\221=\016\202@\020\205\337,\210?h\324\322B"
  18      3D0E8240 
  18      1085DF2C 
  18      883F68D4 
  18      D242
  19 0012 C2218CB5 		.ascii	"\302!\214\265\307\260\227-6q\201\254hbl(=\202\215\027"
  19      C7B0972D 
  19      367181AC 
  19      68626C28 
  19      3D828D17 
  20 0026 B5121645 		.ascii	"\265\022\026EC\026\320Di\030\346{\314\316{\313\300`"
  20      4316D044 
  20      6918E67B 
  20      CCCE7BCB 
  20      C060
  21 0038 7A1616B0 		.ascii	"z\026\026\260\314\336}\200r\011;\341\226^\322\211 x"
  21      CCDE7D80 
  21      72093BE1 
  21      965ED289 
  21      2078
  22 004a A06B7A59 		.ascii	"\240kzY\011\"\255d\032\235s\304\344\243\265&AV\000\330"
  22      0922AD64 
  22      1A9D73C4 
  22      E4A3B526 
  22      415600D8 
  23 005e B5D4B681 		.ascii	"\265\324\266\201N#u`\275hG\026\247\225T\027N\326\351"
  23      4E237560 
  23      BD684716 
  23      A7955417 
  23      4ED6E9
  24 0071 9986346C 		.ascii	"\231\2064l\225\027\357v\272\036\246\205\235\336w?Vs"
  24      9517EF76 
  24      BA1EA685 
  24      9DDE773F 
  24      5673
  25 0083 18B4F0BF 		.ascii	"\030\264\360\277ld\031X\331\351Kb\245z\220\205\346\276"
  25      6C641958 
  25      D9E94B62 
  25      A57A9085 
  25      E6BE
ARM GAS  /tmp/ccuqBRmh.s 			page 2


  26 0095 CF7A469A 		.ascii	"\317zF\232]\260!\347\246\205\332\364U\347\215\367X\""
  26      5DB021E7 
  26      A685DAF4 
  26      55E78DF7 
  26      5822
  27 00a7 77431F4D 		.ascii	"wC\037M\037z\230\027\323GZ?l9\375\007\356L\006\352S"
  27      1F7A9817 
  27      D3475A3F 
  27      6C39FD07 
  27      EE4C06EA 
  28 00bc C6782B76 		.ascii	"\306x+v\211\037F\211\317e\234\034\341\352\357\242\236"
  28      891F4689 
  28      CF659C1C 
  28      E1EAEFA2 
  28      9E
  29 00cd C52A3A88 		.ascii	"\305*:\210\200+_\361d\257B\036\370\222\313H\035q\007"
  29      802B5FF1 
  29      64AF421E 
  29      F892CB48 
  29      1D7107
  30 00e0 8147AD91 		.ascii	"\201G\255\221"
  31              		.text
  32              		.section	.gnu.lto_.inline.3ab41d4bef2e5fa1,"",%progbits
  33 0000 789C7D8F 		.ascii	"x\234}\217;\016\3020\020Dgm\307@p\240EH(\222E\317Mr"
  33      3B0EC230 
  33      1044676D 
  33      C74070A0 
  33      45482892 
  34 0018 2A2A1A22 		.ascii	"**\032\":\032\224:\005\327\240\347\030\234\002\257c"
  34      3A1A943A 
  34      05D7A0E7 
  34      189C02AF 
  34      63
  35 0029 3BB1F8B8 		.ascii	";\261\370\270Yiw\346\315X@\340\333;\3210\027\200\024"
  35      596977E6 
  35      CD5840E0 
  35      DB3BD130 
  35      178014
  36 003c E445BAAB 		.ascii	"\344E\272\253\275\226`vn\243\272:\255\244\001D\333@"
  36      BD966076 
  36      6EA3BA3A 
  36      ADA40144 
  36      DB40
  37 004e 5560A982 		.ascii	"U`\251\202^\345\036/\000\212_\007\215\331:?0J\2729\207"
  37      5EE51E2F 
  37      008A5F07 
  37      8DD93A3F 
  37      304ABA39 
  38 0063 7D903B6D 		.ascii	"}\220;m\357/5q\261\270mT\345M~\214\361\261M\211\375"
  38      EF2F3571 
  38      B1B86D54 
  38      E54D7E8C 
  38      F1B14D89 
  39 0078 8DAD9B63 		.ascii	"\215\255\233c/\307\366e\200O\373&\177\300\015\321K\034"
  39      2FC7F665 
  39      804FFB26 
  39      7FC00DD1 
ARM GAS  /tmp/ccuqBRmh.s 			page 3


  39      4B1C
  40 008a 9EECB797 		.ascii	"\236\354\267\227s\361\021\315\223\222\223#)\303\312"
  40      73F111CD 
  40      93929323 
  40      29C3CA
  41 0099 F0394A75 		.ascii	"\3609Ju\014\354\365\177\235H\211L\012Lf\341\015\371"
  41      0CECF57F 
  41      9D48894C 
  41      0A4C66E1 
  41      0DF9
  42 00ab B71E99   		.ascii	"\267\036\231"
  43              		.text
  44              		.section	.gnu.lto_.pureconst.3ab41d4bef2e5fa1,"",%progbits
  45 0000 789C6362 		.ascii	"x\234cb`b\020f\200\000N\006\006F\011\026\011V\0116\011"
  45      60621066 
  45      80004E06 
  45      06460916 
  45      09560936 
  46 0015 0E092E09 		.ascii	"\016\011.\011n\011\036\011\000\012\303\001\032"
  46      6E091E09 
  46      000AC301 
  46      1A
  47              		.text
  48              		.section	.gnu.lto_null_provider.3ab41d4bef2e5fa1,"",%progbits
  49 0000 789C6362 		.ascii	"x\234cb`b@\007\222@\034\005\304\306@\314\310\314\300"
  49      60624007 
  49      92401C05 
  49      C4C640CC 
  49      C8CCC0
  50 0013 C834E11C 		.ascii	"\3104\341\034\003C#\007\023##\210\301\300\310P\317\304"
  50      03432307 
  50      13232388 
  50      C1C0C850 
  50      CFC4
  51 0025 581FC908 		.ascii	"X\037\311\010V\273\236\351\300\203\377\377\327\375z"
  51      56BB9EE9 
  51      C083FFFF 
  51      D7FD7A
  52 0034 FAB89B51 		.ascii	"\372\270\233Q\020d\024+CKC\303\004\005\006\206d\260"
  52      1064142B 
  52      434B43C3 
  52      04050686 
  52      64B0
  53 0046 82102009 		.ascii	"\202\020 \011\322\025\312\310\004\242\231/24>\350JN"
  53      D215CAC8 
  53      04A2992F 
  53      32343EE8 
  53      4A4E
  54 0058 645CC8C8 		.ascii	"d\\\310\310\312\020\301\230\311\010\2674\204\221\021"
  54      CA10C198 
  54      C908B734 
  54      849111
  55 0067 A4006484 		.ascii	"\244\000d\204\241\236\236>\004\225\244\026\227\350\027"
  55      A19E9E3E 
  55      0495A416 
  55      97E817
  56 0076 95E817E7 		.ascii	"\225\350\027\347\227\026%\247B\270 \"\2768\265\2604"
ARM GAS  /tmp/ccuqBRmh.s 			page 4


  56      971625A7 
  56      42B82022 
  56      BE38B5B0 
  56      34
  57 0087 352F3935 		.ascii	"5/95\336\300\320@/\231\001\000[\340*\335"
  57      DEC0D040 
  57      2F990100 
  57      5BE02ADD 
  58              		.text
  59              		.section	.gnu.lto_test_010_003_execute.3ab41d4bef2e5fa1,"",%progbits
  60 0000 789C5D50 		.ascii	"x\234]P=K\003A\020}\263wkN-\264T\013\271_p\227\200?"
  60      3D4B0341 
  60      107DB377 
  60      6B4E2DB4 
  60      540BB95F 
  61 0018 40F02F44 		.ascii	"@\360/D\320*\310\272\310\202\227hnS\210E6~\200e\260"
  61      D02AC8BA 
  61      C8829768 
  61      6E538845 
  61      367E8065 
  62 002d 92040B1B 		.ascii	"\222\004\013\033A\020mS\332Z\304\303\336\"\277\303&"
  62      41106D53 
  62      DA5AC4C3 
  62      DE22BFC3 
  62      26
  63 003e EEDE470A 		.ascii	"\356\336G\012\207\335\231\2673\357\315\316.\003\303"
  63      87DD99B7 
  63      33EFCDCE 
  63      2E03C3
  64 004d 7FDBB4BB 		.ascii	"\177\333\264\273N\300\236\215\344\201\330\360\013\030"
  64      4EC09E8D 
  64      E481D8F0 
  64      0B18
  65 005b 048CC801 		.ascii	"\004\214\310\001\020\372\214\372\207\224s\337\331\307"
  65      10FA8CFA 
  65      879473DF 
  65      D9C7
  66 0069 6C3E7F1B 		.ascii	"l>\177\033\335\277\376\320'\253\371P\004n\235\253r\334"
  66      DDBFFED0 
  66      27ABF950 
  66      046E9DAB 
  66      72DC
  67 007b 18330C01 		.ascii	"\0303\014\001\221s\233\326\273\006\373\304\\\364\246"
  67      91739BD6 
  67      BB06FBC4 
  67      5CF4A6
  68 008a B89A4C9E 		.ascii	"\270\232L\236\267\216\350\2118\306\030\015\214YW\304"
  68      B78EE889 
  68      38C6180D 
  68      8C5957C4 
  69 009a 2EF16BEE 		.ascii	".\361k\356\034\362\222\\v@\026\242B\314\3452\334\316"
  69      1CF2925C 
  69      764016A2 
  69      42CCE532 
  69      DCCE
  70 00ac C62F5428 		.ascii	"\306/T(O\310_H|A\305X.\023(\342\011\225\254\\\274tl"
  70      4FC85F48 
ARM GAS  /tmp/ccuqBRmh.s 			page 5


  70      7C41C558 
  70      2E1328E2 
  70      0995AC5C 
  71 00c3 27AB0153 		.ascii	"'\253\001S\\g^\245\346\266\201+\346\272\014\274\344"
  71      5C675EA5 
  71      E6B6812B 
  71      E6BA0CBC 
  71      E4
  72 00d4 63D13410 		.ascii	"c\3214\020T\374\221\345\272\344\206\242\345m\354<\232"
  72      54FC91E5 
  72      BAE486A2 
  72      E56DEC3C 
  72      9A
  73 00e5 875D452B 		.ascii	"\207]E+(\371\212V\201oT\327\225\326\264\363\330\267"
  73      28F98A56 
  73      816F54D7 
  73      95D6B4F3 
  73      D8B7
  74 00f7 3A7D238A 		.ascii	":}#\212\342bi\231\352\270\253\343\264\323\353\012Y\034"
  74      E2626999 
  74      EAB8ABE3 
  74      B4D3EB0A 
  74      591C
  75 0109 9D6BA5F2 		.ascii	"\235k\245\362\274'\333B\266\352\215z$\260v\252R\035"
  75      BC27DB42 
  75      B6EA8D7A 
  75      24B076AA 
  75      521D
  76 011b B63B3A94 		.ascii	"\266;:\224\311\231\276\300\037v)[p"
  76      C999BEC0 
  76      1F76295B 
  76      70
  77              		.text
  78              		.section	.gnu.lto_test_010_003_setup.3ab41d4bef2e5fa1,"",%progbits
  79 0000 789C6362 		.ascii	"x\234cb`b@\007\222@<\025\210\215\201\230\221\231\201"
  79      60624007 
  79      92403C15 
  79      888D8198 
  79      919981
  80 0013 9169C239 		.ascii	"\221i\3029\006\206F\016&FF\020\203\201\221\241\236\211"
  80      0686460E 
  80      26464610 
  80      838191A1 
  80      9E89
  81 0025 B13E9211 		.ascii	"\261>\222\021\254v=\323\201\007\377\377\257\2334i\371"
  81      AC763DD3 
  81      8107FFFF 
  81      AF9B3469 
  81      F9
  82 0036 1EC6134C 		.ascii	"\036\306\023L\314@\021V\206\226\206\206\011\012\014"
  82      CC401156 
  82      86968686 
  82      090A0C
  83 0045 0CC96015 		.ascii	"\014\311`\025!@\022\244-\224\221\011D3\237gh}\320u\222"
  83      214012A4 
  83      2D949109 
  83      44339F67 
ARM GAS  /tmp/ccuqBRmh.s 			page 6


  83      687DD075 
  84 005a 2F917121 		.ascii	"/\221q!#+P\272\232\341WCG\203@&#P9\304D\220\010G&#c"
  84      232B50BA 
  84      9AE15743 
  84      47834026 
  84      235039C4 
  85 0075 2E230354 		.ascii	".#\003TQ\004c&#\023\013C&\320-\014\027\031\032\037t"
  85      51046326 
  85      23130B43 
  85      26D02D0C 
  85      17191A1F 
  86 008a 6BC27443 		.ascii	"k\302tC@\010P'\320h\220G\014\365\364\364!\250$\265\270"
  86      40085027 
  86      D0689047 
  86      0CF5F4F4 
  86      21A824B5 
  87 009f 44BFA844 		.ascii	"D\277\250D\2778\277\264(9\025\302\005\021\361\305\251"
  87      BF38BFB4 
  87      283915C2 
  87      0511F1C5 
  87      A9
  88 00b0 85A5A979 		.ascii	"\205\245\251y\311\251\361\006\206\006z\311\014\000\034"
  88      C9A9F106 
  88      86067AC9 
  88      0C001C
  89 00bf D5379F   		.ascii	"\3257\237"
  90              		.text
  91              		.section	.gnu.lto_test_010_002_setup.3ab41d4bef2e5fa1,"",%progbits
  92 0000 789C6362 		.ascii	"x\234cb`b@\007\222@<\025\210\215\201\230\221\231\201"
  92      60624007 
  92      92403C15 
  92      888D8198 
  92      919981
  93 0013 9169C239 		.ascii	"\221i\3029\006\206F\016&FF\020\203\201\221\241\236\211"
  93      0686460E 
  93      26464610 
  93      838191A1 
  93      9E89
  94 0025 B13E9211 		.ascii	"\261>\222\021\254v=\323\201\007\377\377\257\273\321"
  94      AC763DD3 
  94      8107FFFF 
  94      AFBBD1
  95 0034 BDFC0DE3 		.ascii	"\275\374\015\343:&f\240\010+CKC\303\004\005\006\206"
  95      3A2666A0 
  95      082B434B 
  95      43C30405 
  95      0686
  96 0046 64B08A10 		.ascii	"d\260\212\020 \011\322\026\312\310\004\242\231\3173"
  96      2009D216 
  96      CAC804A2 
  96      99CF33
  97 0055 B43E787B 		.ascii	"\264>x{\224/\221q!#+P\272\232\341WCG\203@&#P9\304D\220"
  97      942F9171 
  97      21232B50 
  97      BA9AE157 
  97      43478340 
  98 0070 08472623 		.ascii	"\010G&#c.#\003TQ\004c&#\023\013C&\320-\014\027\031\032"
ARM GAS  /tmp/ccuqBRmh.s 			page 7


  98      632E2303 
  98      54510463 
  98      2623130B 
  98      4326D02D 
  99 0088 1FBC5385 		.ascii	"\037\274S\205\351\206\200\020\240N\240\321 \217\030"
  99      E9868010 
  99      A04EA0D1 
  99      208F18
 100 0097 EAE9E943 		.ascii	"\352\351\351CPIjq\211~Q\211~q~iQr*\204\013\"\342\213"
 100      50496A71 
 100      897E5189 
 100      7E717E69 
 100      51722A84 
 101 00af 530B4B53 		.ascii	"S\013KS\363\222S\343\015\014\015\364\222\031\000\253"
 101      F39253E3 
 101      0D0C0DF4 
 101      921900AB 
 102 00bf 1F38B2   		.ascii	"\0378\262"
 103              		.text
 104              		.section	.gnu.lto_test_010_001_setup.3ab41d4bef2e5fa1,"",%progbits
 105 0000 789C6362 		.ascii	"x\234cb`b@\007\222@<\007\210\215\201\230\221\231\201"
 105      60624007 
 105      92403C07 
 105      888D8198 
 105      919981
 106 0013 9169C239 		.ascii	"\221i\3029\006\206F\016&FF\020\203\201\221\241\236\211"
 106      0686460E 
 106      26464610 
 106      838191A1 
 106      9E89
 107 0025 B13E9211 		.ascii	"\261>\222\021\254v=\323\201\007\377\377\257\373\321"
 107      AC763DD3 
 107      8107FFFF 
 107      AFFBD1
 108 0034 B6FC0DE3 		.ascii	"\266\374\015\343l&f\240\010+CKC\303\004\005\006\206"
 108      6C2666A0 
 108      082B434B 
 108      43C30405 
 108      0686
 109 0046 64B08A10 		.ascii	"d\260\212\020 \011\322\026\312\310\004\242\231\3173"
 109      2009D216 
 109      CAC804A2 
 109      99CF33
 110 0055 B43DD8FB 		.ascii	"\264=\330\373\230+\221q!#+P\272\232\341WCG\203@&#P9"
 110      982B9171 
 110      21232B50 
 110      BA9AE157 
 110      43478340 
 111 006d C4449008 		.ascii	"\304D\220\010G&#c.#\003TQ\004c&#\023\013\230\002Z\220"
 111      47262363 
 111      2E230354 
 111      51046326 
 111      23130B98 
 112 0084 C9C8C2C0 		.ascii	"\311\310\302\300p\221\241\361\301>e\230!\020\020\002"
 112      7091A1F1 
 112      C13E6598 
 112      21101002 
ARM GAS  /tmp/ccuqBRmh.s 			page 8


 113 0094 34006803 		.ascii	"4\000h\003\310?\206zz\372\020T\222Z\\\242_T\242_\234"
 113      C83F867A 
 113      7AFA1054 
 113      925A5CA2 
 113      5F54A25F 
 114 00a9 5F5A949C 		.ascii	"_Z\224\234\012\341\202\210\370\342\324\302\322\324\274"
 114      0AE18288 
 114      F8E2D4C2 
 114      D2D4BC
 115 00b8 E4D47803 		.ascii	"\344\324x\003C\003\275d\006\000\320\2649A"
 115      4303BD64 
 115      0600D0B4 
 115      3941
 116              		.text
 117              		.section	.gnu.lto_test_010_002_execute.part.0.3ab41d4bef2e5fa1,"",%progbits
 118 0000 789C9D54 		.ascii	"x\234\235TOHTA\030\377\276\231\367g\336{\332Z\035\252"
 118      4F485441 
 118      18FFBE99 
 118      F767DE7B 
 118      DA5A1DAA 
 119 0014 8B48F756 		.ascii	"\213H\367V\015\211N\022\235\272\006\012v\022y,\362\240"
 119      0D894E12 
 119      9DBA060A 
 119      7612792C 
 119      F2A0
 120 0026 D572D743 		.ascii	"\325r\327Cyp\326\335\310\243t\322DJ\":THt\021\212X="
 120      7970D6DD 
 120      C8A374D2 
 120      444A223A 
 120      54487411 
 121 003d 99E19F6E 		.ascii	"\231\341\237nu\333.\005\021\005u\023a\373f\346\275\267"
 121      75DB2E05 
 121      11057513 
 121      61FB66E6 
 121      BDB7
 122 004f EB8A810D 		.ascii	"\353\212\201\015\273\363\315|\377\3467\277\337\360\030"
 122      BBF3CD7C 
 122      FFE637BF 
 122      DFF018
 123 005e 30681D25 		.ascii	"0h\035%\372\277\264\000\256\223\3056\300`n\233\026\001"
 123      FABFB400 
 123      AE93C536 
 123      C0606E9B 
 123      1601
 124 0070 326D195A 		.ascii	"2m\031Z\312\226\0047\2135a1^\355\007\351\333\273\031"
 124      CA960437 
 124      8B356131 
 124      5EED07E9 
 124      DBBB19
 125 0083 906D360A 		.ascii	"\220m6\012\023w\230\277\316\311\355no\002\371]\343_"
 125      137798BF 
 125      CEC9ED6E 
 125      6F02F95D 
 125      E35F
 126 0095 1382393A 		.ascii	"\023\2029:\335\323\351\036\372&\335GT\013@\230\016\030"
 126      DDD3E91E 
 126      FA26DD47 
ARM GAS  /tmp/ccuqBRmh.s 			page 9


 126      540B4098 
 126      0E18
 127 00a7 B76CC715 		.ascii	"\267l\307\025\236\217\3237PA\302\363\260,\345\203\332"
 127      9E8FD337 
 127      5041C2F3 
 127      B02CE583 
 127      DA
 128 00b8 D3775F70 		.ascii	"\323w_pAV+\217\345~\275\216\030!\301\357C\010\021\206"
 128      41562B8F 
 128      E57EBD8E 
 128      1821C1EF 
 128      43081186 
 129 00cc 68835DDA 		.ascii	"h\203]\3320\353\340}V\230\254\325\353\013\177\2743\010"
 129      30EBE07D 
 129      5698ACD5 
 129      EB0B7FBC 
 129      3308
 130 00de 23B84CBD 		.ascii	"#\270L\275\030D\310y\274\261hc\3314\331\216\232\334"
 130      1844C879 
 130      BCB16863 
 130      D934D98E 
 130      9ADC
 131 00f0 D82D62EB 		.ascii	"\330-b\353\251\260\257\"\324\312\206\212\224s]&\002"
 131      A9B0AF22 
 131      D4CA868A 
 131      94735D26 
 131      02
 132 0101 EA5C1A03 		.ascii	"\352\\\032\0034\323]\0060 \303\007\221)\263\0053\253"
 132      34D35D06 
 132      3020C307 
 132      9129B305 
 132      33AB
 133 0113 ABDFCF8D 		.ascii	"\253\337\317\215\340\023*\\\204\207%);\010\356\024\354"
 133      E0132A5C 
 133      84872529 
 133      3B08EE14 
 133      EC
 134 0124 C959B572 		.ascii	"\311Y\265r\362\272V\341u Y\201B\376\036fj\317\357\273"
 134      F2BA56E1 
 134      75205981 
 134      42FE1E66 
 134      6ACFEFBB 
 135 0138 A6D29CA4 		.ascii	"\246\322\234\244c\311\030D\016\325~u\300^\371\365\322"
 135      63C91844 
 135      0ED57E75 
 135      C05EF9F5 
 135      D2
 136 0149 3593378A 		.ascii	"5\2237\212l\012\356\322\255.\300\013I\343\025U\270y"
 136      6C0AEED2 
 136      AD2EC00B 
 136      49E31555 
 136      B879
 137 015b C451C466 		.ascii	"\304Q\304f*v\340^\365\262\251\200\006\026\021\306Y\312"
 137      2A76E05E 
 137      F5B2A980 
 137      061611C6 
 137      59CA
ARM GAS  /tmp/ccuqBRmh.s 			page 10


 138 016d 2322F4F2 		.ascii	"#\"\364\362\310\342$\352\033\241\017\260\005\345\331"
 138      C8E224EA 
 138      1BA10FB0 
 138      05E5D9
 139 017c F2CAD250 		.ascii	"\362\312\322Pr\032\247\306\032\025j\304\254\031-E\023"
 139      721AA7C6 
 139      1A156AC4 
 139      AC192D45 
 139      13
 140 018d A41690A6 		.ascii	"\244\026\220\246\234n$ \015R\305\006T\276\226\202\244"
 140      9C6E2420 
 140      0D52C506 
 140      54BE9682 
 140      A4
 141 019e 9769C453 		.ascii	"\227i\304S\220\237\001\343\013\263\015:\207\363\331"
 141      909F01E3 
 141      0BB30D3A 
 141      87F3D9
 142 01ad 40F5B253 		.ascii	"@\365\262SZ\177\036\227V;\246\365\315?iu`\277\217\023"
 142      5A7F1E97 
 142      563BA6F5 
 142      CD3F6975 
 142      60BF8F13 
 143 01c1 43B5B7DF 		.ascii	"C\265\267\3370\301f\245\235\203\020\331\021$\251>m@"
 143      30C166A5 
 143      9D8310D9 
 143      1124A93E 
 143      6D40
 144 01d3 4FA45D13 		.ascii	"O\244]\023\365\211'\32565PA\313po'~'\355z\"\214\311"
 144      F58927D5 
 144      36355041 
 144      CB706F27 
 144      7E27ED7A 
 145 01ea A264E53C 		.ascii	"\242d\345<\033a\246\023.-\311\371+\021v@|@\204'5i?R"
 145      1B61A613 
 145      2E2DC9F9 
 145      2B117640 
 145      7C408427 
 146 0202 5C8E6A6B 		.ascii	"\\\216jk7K;\210.|\270\310\265P\277\032B\211Qt\217\026"
 146      374B3B88 
 146      2E7CB8C8 
 146      B550BF1A 
 146      42895174 
 147 0218 4A24B502 		.ascii	"J$\265\002\026\327[\205r[\205r\017\011\345\306\024\332"
 147      16D75B85 
 147      725B8572 
 147      0F09E5C6 
 147      14DA
 148 022a 4A28E11A 		.ascii	"J(\341\032\241<x\324\256\205\232\377}\\\241\034\363"
 148      A13C78D4 
 148      AE859AFF 
 148      7D5CA11C 
 148      F3
 149 023b 466B9BCF 		.ascii	"Fk\233\317\322\233z\377\241\300N\252\200O\015\016+\320"
 149      D29B7AFF 
 149      A1C04EAA 
 149      804F0D0E 
ARM GAS  /tmp/ccuqBRmh.s 			page 11


 149      2BD0
 150 024d F4F69B04 		.ascii	"\364\366\233\004\360c\001Nu\302U#\300\351\003\002\030"
 150      F063014E 
 150      75C25523 
 150      C0E90302 
 150      18
 151 025e A67CF50C 		.ascii	"\246|\365\014?\322\007\253A\375\000\275\351\335\214"
 151      3FD207AB 
 151      41FD00BD 
 151      E9DD8C
 152 026d C2D69BCD 		.ascii	"\302\326\233\315v\233_1W(vO\024\273\013\343\223\023"
 152      769B5F31 
 152      5728764F 
 152      14BB0BE3 
 152      9313
 153 027f 61CE6CD5 		.ascii	"a\316l\3254\\\310\335\236\314\215\205\271\341\236\336"
 153      345CC8DD 
 153      9ECC8D85 
 153      B9E19EDE 
 154 028f 9E6C0818 		.ascii	"\236l\010\030\0057\243B\261+\227\277U\274\003\031\275"
 154      0537A342 
 154      B12B97BF 
 154      55BC0319 
 154      BD
 155 02a0 1E1B4FF6 		.ascii	"\036\033O\366\177\001c?$\216"
 155      7F01633F 
 155      248E
 156              		.text
 157              		.section	.gnu.lto_test_010_002_execute.3ab41d4bef2e5fa1,"",%progbits
 158 0000 789C9D54 		.ascii	"x\234\235T\317k\023A\024~of7\231tc\023S\013\012R\212"
 158      CF6B1341 
 158      147E6F66 
 158      37997463 
 158      13530B0A 
 159 0016 7F40D282 		.ascii	"\177@\322\202x\021\212\370\037\010\015\324S)k\010\013"
 159      78118AF8 
 159      1F080DD4 
 159      53296B08 
 159      0B
 160 0027 A6D5263D 		.ascii	"\246\325&=\210\207N\232T{P)^\374U\301\"\342\321\243"
 160      88874E9A 
 160      547B5029 
 160      5EFC55C1 
 160      22E2D1A3 
 161 003b 398846F1 		.ascii	"9\210F\361\320\212\266\025<\324\223k\301z\361\017\020"
 161      D08AB615 
 161      3CD4936B 
 161      C17AF10F 
 161      10
 162 004c 11E27B3B 		.ascii	"\021\342{;\273\333V\323C\035\222\231y\337\274\367\315"
 162      BBDB56D3 
 162      431D9299 
 162      79DFBCF7 
 162      CD
 163 005d 37F34D22 		.ascii	"7\363M\"@\300\337\355\002}\217[\000\347h\304\024\240"
 163      40C0DFED 
 163      027D8F5B 
ARM GAS  /tmp/ccuqBRmh.s 			page 12


 163      00E768C4 
 163      14A0
 164 006f 585C03A8 		.ascii	"X\\\003\250+\201\266\231H\241\336H\320=\326\332;\000"
 164      2B81B699 
 164      48A1DE48 
 164      D03DD6DA 
 164      3B00
 165 0081 9DB60CFE 		.ascii	"\235\266\014\376Z\331B\266G\010Old\010N\010\365b\200"
 165      5AD942B6 
 165      47084F6C 
 165      64084E08 
 165      F56280
 166 0094 A2E4A702 		.ascii	"\242\344\247\002EIT\234\204\012\221G@\230\025\322\262"
 166      4549549C 
 166      840A9147 
 166      409815D2 
 166      B2
 167 00a5 134985B3 		.ascii	"\023I\205\263\347\221w\305\023\260\254\365m\377\311"
 167      E79177C5 
 167      13B0ACF5 
 167      6DFFC9
 168 00b4 CBAF784F 		.ascii	"\313\257xO\267\233\217\364\357N\007\321CRx\022\301E"
 168      B79B8FF4 
 168      EF4E07D1 
 168      43527812 
 168      C145
 169 00c6 18A30007 		.ascii	"\030\243\000\007\203AX{%?\023m\277\323\271\361\305\337"
 169      8341587B 
 169      253F136D 
 169      BFD3B9F1 
 169      C5DF
 170 00d8 7A8F7DFD 		.ascii	"z\217}\375\010\023\270L|\012<\224)\352,\207\273t\010"
 170      0813B84C 
 170      7C0A3C94 
 170      29EA2C87 
 170      BB7408
 171 00eb 6718CE32 		.ascii	"g\030\3162\222\343\216\312mhj\2758h\226\201\367\242"
 171      92E38ECA 
 171      6D686ABD 
 171      38689681 
 171      F7A2
 172 00fd 364A7D2B 		.ascii	"6J}+\007E\0244\310\0170\327j\275:6\201\217\321\206\007"
 172      07451434 
 172      C80F30D7 
 172      6ABD3A36 
 172      818FD186 
 173 0112 70BFAE75 		.ascii	"p\277\256u\226\264]\205_z\201gv%(bq6D3`l\035\256\371"
 173      96B45D85 
 173      5F7A8167 
 173      76252862 
 173      71364433 
 174 012b 9D6FBDA6 		.ascii	"\235o\275\246\022v*\022.\006%\001\242<LV\020\303$\223"
 174      12762A12 
 174      2E062501 
 174      A23C4C56 
 174      10C32493 
 175 013f A3EF1085 		.ascii	"\243\357\020\205\252\240\010QfLY$\271\007\200\345\374"
ARM GAS  /tmp/ccuqBRmh.s 			page 13


 175      AAA00851 
 175      664C5924 
 175      B90780E5 
 175      FC
 176 0150 DC3AA81C 		.ascii	"\334:\250\034\366z\025\346\374\233\327\223\246\322\234"
 176      F67A15E6 
 176      FC9BD793 
 176      A6D29C
 177 015f 38588B5A 		.ascii	"8X\213Z\021%\264G\344:\314\373\267\276\207\202\312\250"
 177      1125B447 
 177      E43ACCFB 
 177      B7BE8782 
 177      CAA8
 178 0171 6266C745 		.ascii	"bf\307E\261\217l\346I\003\011<\304\002\033\2332\252"
 178      B18F6CE6 
 178      4903093C 
 178      C4021B9B 
 178      32AA
 179 0183 4E11012F 		.ascii	"N\021\001/J\010\356\303\216p'f\355u\315\"'3x\324\303"
 179      4A08EEC3 
 179      8E702766 
 179      ED75CD22 
 179      273378D4 
 180 0198 CC009C7A 		.ascii	"\314\000\234z\250\357\236\3610\013\341\006\036\036\006"
 180      A8EF9EF1 
 180      300BE106 
 180      1E1E06
 181 01a7 5881E68F 		.ascii	"X\201\346\217X\227\303\264{\036C\221\302\315\323\344"
 181      5897C3B4 
 181      7B1E4391 
 181      C2CDD3E4 
 182 01b7 5763A1F1 		.ascii	"Wc\241\361|i,JL\227\021cKVA\354>\177\231U\233Z\033\350"
 182      7C692C4A 
 182      4C971163 
 182      4B5641EC 
 182      3E7F9955 
 183 01cf 794ABA23 		.ascii	"yJ\272#\005\361\"\006{n\327\235\210\313\020\311x\313"
 183      05F12206 
 183      7B6ED79D 
 183      88CB10C9 
 183      78CB
 184 01e1 CF80E115 		.ascii	"\317\200\341\025\212\025Id\326\202\303\\\011\330\310"
 184      8A154964 
 184      D682C35C 
 184      09D8C8
 185 01f0 04EF6673 		.ascii	"\004\357fs\373\240F\311\340\236\346\375\245\247\361"
 185      FBA046C9 
 185      E09EE6FD 
 185      A5A7F1
 186 01ff 4933FFE1 		.ascii	"I3\377\341\300z\354@\226\010\2729\220\353\346@6t 7\000"
 186      C07AEC40 
 186      9608BA39 
 186      90EBE640 
 186      36742037 
 187 0214 678D037D 		.ascii	"g\215\003}\373;\220\353\342@\022\336\246\350\0055\324"
 187      FB3B90EB 
 187      E24012DE 
ARM GAS  /tmp/ccuqBRmh.s 			page 14


 187      A6E80535 
 187      D4
 188 0225 3F8FFE88 		.ascii	"?\217\376\210\033\346z\330\037e+\376}}\244?\226\035"
 188      1BE67AD8 
 188      1F652BFE 
 188      7D7DA43F 
 188      961D
 189 0237 8A51BAF4 		.ascii	"\212Q\272\364V\216O9\234\317\027\314\247V\252\326\012"
 189      568E4F39 
 189      9CCF17CC 
 189      A756AAD6 
 189      0A
 190 0248 D3B54275 		.ascii	"\323\265Bujf\332-\231\220\273\361j\351\362Li\322-\215"
 190      6A66DA2D 
 190      9990BBF1 
 190      6AE9F24C 
 190      69D22D8D 
 191 025c 0F0D0FE5 		.ascii	"\017\015\017\345]@\317\271\350Uk\203\245\312\245\332"
 191      5D40CFB9 
 191      E8556B83 
 191      A5CAA5DA 
 192 026c 15C804F3 		.ascii	"\025\310\004\363\311\251(\376\003\265+\005\313"
 192      C9A928FE 
 192      03B52B05 
 192      CB
 193              		.text
 194              		.section	.gnu.lto_test_010_001_execute.part.1.3ab41d4bef2e5fa1,"",%progbits
 195 0000 789C9D94 		.ascii	"x\234\235\224\317O\023A\024\307\337\233\375\275\333"
 195      CF4F1341 
 195      14C7DF9B 
 195      FDBDDB
 196 000f 5AFC0D97 		.ascii	"Z\374\015\227\246\361\346A\012\206\030O\304\370'\030"
 196      A6F1E641 
 196      0A86184F 
 196      C4F82718 
 197 001f 48F044C8 		.ascii	"H\360D\310\262!\033-\305RL\220\003\013-\246\236@\243"
 197      B2211B2D 
 197      C5524C90 
 197      030B2DA6 
 197      9E40A3
 198 0032 094A1409 		.ascii	"\011J\024\011!&\306\304+z*\234P\303\017/\006o\275\250"
 198      2126C6C4 
 198      2B7A2A9C 
 198      50C30F2F 
 198      066FBDA8 
 199 0046 073D7952 		.ascii	"\007=yR$\251ovv\227\002\305\244N\332\231y3\363\336|"
 199      24A96F76 
 199      769702C5 
 199      A44EDA99 
 199      7933F3DE 
 200 005b DFE76587 		.ascii	"\337\347e\207\001\203\203m\206\376?\025\200\0334b\034"
 200      0183836D 
 200      86FE3F15 
 200      801B3462 
 200      1C
 201 006c 3036B341 		.ascii	"06\263A\223\0302\177d(\363qB\227\304dE\227\231T\356"
 201      9318327F 
ARM GAS  /tmp/ccuqBRmh.s 			page 15


 201      6428F371 
 201      4297C464 
 201      45979954 
 202 0081 04CF54B6 		.ascii	"\004\317T\266\022\340\305\024\324\305\276\312\254U\211"
 202      12E0C514 
 202      D4C5BECA 
 202      AC5589
 203 0090 96B58DF7 		.ascii	"\226\265\215\367@\353\232X_\321u\246\372\307\015\377"
 203      40EB9A58 
 203      5FD175A6 
 203      FAC70DFF 
 204 00a0 B8C1AC4F 		.ascii	"\270\301\254Oi\262\314\267I\262L\264\204\263\205\310"
 204      69B2CCB7 
 204      49B24CB4 
 204      84B385C8 
 205 00b0 2780301E 		.ascii	"'\2000\036c\222\254\250\232n\230\026\216_G\256\020\317"
 205      6392ACA8 
 205      9A6E9816 
 205      8E5F47AE 
 205      10CF
 206 00c2 C182E73D 		.ascii	"\301\202\347=\250,\375\254\340c\257\\|\356\355V\253"
 206      A82CFDAC 
 206      E063AF5C 
 206      7CEEED56 
 206      AB
 207 00d3 882E5236 		.ascii	"\210.R6\035\0106B\017\031\230\362\007&\357O\3575\363"
 207      1D083642 
 207      0F1998F2 
 207      0726EF4F 
 207      EF35F3
 208 00e6 2AD5EA9B 		.ascii	"*\325\352\233\227F\022\241\017\027(\026\003\027%)0d"
 208      974612A1 
 208      0F172816 
 208      03172529 
 208      3064
 209 00f8 3264853A 		.ascii	"2d\205:E\345\235\026,\353\301h\360m\223\357X\274\213"
 209      45E59D16 
 209      2CEBC168 
 209      F06D93EF 
 209      58BC8B
 210 010b 7133CE67 		.ascii	"q3\316g\024Y\201\242\347\315\244\304A\3402\250uQO\231"
 210      145981A2 
 210      E7CDA4C4 
 210      41E032A8 
 210      75514F99 
 211 011f 76618C06 		.ascii	"va\214\006\251\033\031\037\326ar\371\327\237\346>\\"
 211      A91B191F 
 211      D66172F9 
 211      D79FE63E 
 211      5C
 212 0130 24C73978 		.ascii	"$\3079x2\341yM\244~\014v\274\022\237\251\031\337\227"
 212      32E1794D 
 212      A47E0C76 
 212      BC129FA9 
 212      19DF97
 213 0143 CB57219C 		.ascii	"\313W!\234\001O\344\035LV~\0274\341)n\362\367\302\326"
 213      014FE41D 
ARM GAS  /tmp/ccuqBRmh.s 			page 16


 213      4C567E17 
 213      34E1296E 
 213      F2F7C2D6 
 214 0157 8D12943B 		.ascii	"\215\022\224;\371\005;\205\357\323\227\305\271\001d"
 214      F9053B85 
 214      EFD397C5 
 214      B90164
 215 0166 63708792 		.ascii	"cp\207\222\274\000\257<j\367\311C\313 \016 \326\222"
 215      BC00AF3C 
 215      6AF7C943 
 215      CB200E20 
 215      D692
 216 0178 D984A9F2 		.ascii	"\331\204\251\362y\341\001{Zt;8\305Wt\027\215\014\262"
 216      79E1017B 
 216      5A743B38 
 216      C5577417 
 216      8D0CB2
 217 018b E010C575 		.ascii	"\340\020\305u\321\004X\207B\251\360m\272'\274M\242\300"
 217      D1045887 
 217      42A9F06D 
 217      BA27BC4D 
 217      A2C0
 218 019d BE2AF415 		.ascii	"\276*\364\025\263Z\265\264\033*\225\201j,QF:D\233\344"
 218      B35AB5B4 
 218      1B2A9581 
 218      6A2C5146 
 218      3A449BE4 
 219 01b1 B106C5AF 		.ascii	"\261\006\305\257\023V\030K\004\222\"\221\237\001\203"
 219      1356184B 
 219      04922291 
 219      9F0183
 220 01c0 84D91ADD 		.ascii	"\204\331\032\335#I%\213\307RB\254\333\325F\261*\001"
 220      2349258B 
 220      C75242AC 
 220      DBD546B1 
 220      2A01
 221 01d2 D6D2D4BF 		.ascii	"\326\322\324\277\260\252\260\333!mB\261r\357\013\206"
 221      B0AAB0DB 
 221      216D42B1 
 221      72EF0B86 
 222 01e2 DAE428B2 		.ascii	"\332\344(\262e#;\002\222K\225\347\204\266\245\320M!"
 222      65233B02 
 222      924B95E7 
 222      84B6A5D0 
 222      4D21
 223 01f4 4F1E5D16 		.ascii	"O\036]\026\320\225p]\215\302\305\355\200\022\035\346"
 223      D095705D 
 223      8DC2C5ED 
 223      80121DE6 
 224 0204 8BCD2E1E 		.ascii	"\213\315.\036K\302\245\247\336\354\025\027\023\020E"
 224      4BC2A5A7 
 224      DEEC1517 
 224      131045
 225 0213 6EF269FD 		.ascii	"n\362i\375\210\004\251<\254R[\323n\324\340\303E\311"
 225      8804A93C 
 225      AC525BD3 
 225      6ED4E0C3 
ARM GAS  /tmp/ccuqBRmh.s 			page 17


 225      45C9
 226 0225 AFD0E2C3 		.ascii	"\257\320\342\303\250B\372\000jGWH\017}u\230[=X!\355"
 226      A842FA00 
 226      6A475748 
 226      0F7D7598 
 226      5B3D5821 
 227 023a 6085B443 		.ascii	"`\205\264C\025\322\002v\012\257\220\256\211\012\031"
 227      15D20276 
 227      0AAF90AE 
 227      890A19
 228 0249 301FF72B 		.ascii	"0\037\367+\264\274\330\322`\205T\237S\2612\275\024e"
 228      B4BCD8D2 
 228      6085549F 
 228      53B132BD 
 228      1465
 229 025b 6A34827E 		.ascii	"j4\202~3Bo\222g=\364V=\364f\200\376x\022\256\012\364"
 229      33426F92 
 229      673DF456 
 229      3DF46680 
 229      FE7812AE 
 230 0271 278E466F 		.ascii	"'\216Fo\325Ao\302#\305Oy\366E\243)k\276\276\273\225"
 230      D5416FC2 
 230      23C54F79 
 230      F645A329 
 230      6BBEBEBB 
 231 0286 674BD6A1 		.ascii	"gK\326\241/\362\244-\364\327\3118x'\202\215S6*\221\340"
 231      2FF2A42D 
 231      F4D7C938 
 231      7827828D 
 231      53362A91 
 232 029b D382E1FC 		.ascii	"\323\202\341\374\036\303\330\3771\214\223\347a\2065"
 232      1EC3D8FF 
 232      318C93E7 
 232      618635
 233 02aa FA6A10C6 		.ascii	"\372j\020\306\003\204g\222pM <\273\017\241\340d\361"
 233      03846792 
 233      704D203C 
 233      BB0FA1E0 
 233      64F1
 234 02bc 8FF7233D 		.ascii	"\217\367#=\373{\360\272\350%\330JpQ\355\255\255i\361"
 234      FB7BF0BA 
 234      E825D84A 
 234      7051EDAD 
 234      AD69F1
 235 02cf CB3BC3F9 		.ascii	"\313;\303\371t.\237\036\316\216\344lG\230\274\353\035"
 235      742E9F1E 
 235      CE8EE46C 
 235      4798BCEB 
 235      1D
 236 02e0 766E8D38 		.ascii	"vn\2158\203\266\323\333\326\336\326j\003\272\326Mw8"
 236      83B6D3DB 
 236      D6DED66A 
 236      03BAD64D 
 236      7738
 237 02f2 9F723243 		.ascii	"\237r2C\371QH\370\363\301lh\267\014\345\262\267\335"
 237      F95148F8 
 237      F3C16C68 
ARM GAS  /tmp/ccuqBRmh.s 			page 18


 237      B70CE5B2 
 237      B7DD
 238 0304 7E2797CA 		.ascii	"~'\227\3129\371\221\334\240\323\237\3128\231ln\024\376"
 238      39F991DC 
 238      A0D39FCA 
 238      38996C6E 
 238      14FE
 239 0316 0293E975 		.ascii	"\002\223\351uq"
 239      71
 240              		.text
 241              		.section	.gnu.lto_test_010_001_execute.3ab41d4bef2e5fa1,"",%progbits
 242 0000 789C9554 		.ascii	"x\234\225TAk\023A\024~of7;\351\246&\256\012=\205\340"
 242      416B1341 
 242      147E6F66 
 242      373BE9A6 
 242      26AE0A3D 
 243 0016 0F485A10 		.ascii	"\017HZ\020/B\021\377\201\320@=\225\262.a\301\264\332"
 243      2F4211FF 
 243      81D0403D 
 243      95B22E61 
 243      C1B4DA
 244 0029 A48878E8 		.ascii	"\244\210x\350\244\011\222\203H\361T\025\301R<x\362\032"
 244      A4099283 
 244      48F15415 
 244      C1523C78 
 244      F21A
 245 003b C143140F 		.ascii	"\301C\024\017\255`R\301C\004\205E\301\213\236,x(B|\263"
 245      AD6052C1 
 245      43048545 
 245      C18B9E2C 
 245      7828427C 
 246 0050 B3BBB59A 		.ascii	"\263\273\265\232\0362$3\363\276y\357\233o\276\231\204"
 246      1E322433 
 246      F3BE79EF 
 246      9B6FBE99 
 246      84
 247 0061 01837FDB 		.ascii	"\001\203\177\333U\372N\032\000\227i\3044 \333\350\001"
 247      55FA4E1A 
 247      009769C4 
 247      3420DBE8 
 247      01
 248 0072 34044353 		.ascii	"4\004CSO8\023\2579\310\011\243\367\026@f\014\215\277"
 248      4F3813AF 
 248      39C809A3 
 248      F7164066 
 248      0C8DBF
 249 0085 1226E3DD 		.ascii	"\022&\343\335Y\302S{Y\202SL\274\314Sd}(Qd\241PI(\020"
 249      59C2537B 
 249      5982534C 
 249      BCCC5364 
 249      7D285164 
 250 009e D508086B 		.ascii	"\325\010\010k\214\033f\312\022\270v\005\325\256x\026"
 250      8C1B66CA 
 250      12B87605 
 250      D5AE7816 
 251 00ae B6A4BC1F 		.ascii	"\266\244\274\037<\375\031\340\003\331m=\221\277\207"
 251      3CFD19E0 
ARM GAS  /tmp/ccuqBRmh.s 			page 19


 251      03D96D3D 
 251      91BF87
 252 00bd 43441F49 		.ascii	"CD\037I\3419\004\027a\236\002,\204\0033\216J~\316\272"
 252      E1390417 
 252      619E022C 
 252      8403338E 
 252      4A7ECEBA 
 253 00d1 C17078F7 		.ascii	"\301px\367E\360\345\031:g\020\026q\213\370\004\370\310"
 253      45F0E519 
 253      3A671016 
 253      718BF804 
 253      F8C8
 254 00e3 D3D419B6 		.ascii	"\323\324\031\266\3522\021\234UpN!\216\352\250\334\204"
 254      EA32119C 
 254      55704E21 
 254      8EEAA8DC 
 254      84
 255 00f4 96941B05 		.ascii	"\226\224\033\005\275\014j/js\324w\034(#\243\201\277"
 255      BD0C6A2F 
 255      6A73D477 
 255      1C2823A3 
 255      81BF
 256 0106 83F5CEE6 		.ascii	"\203\365\316\346\376\324\"n\243\011\217\340aC\312\034"
 256      FED4226E 
 256      A3098FE0 
 256      6143CA1C 
 257 0116 69BB0D07 		.ascii	"i\273\015\007\262\255ff5,R\342L\210g\240\260>\334\011"
 257      B2AD6666 
 257      352C52E2 
 257      4C8867A0 
 257      B03EDC09 
 258 012a 7A4D5B57 		.ascii	"zM[W\302aE\312\305\260$D\204\217V\0251J\3229\362\246"
 258      C26145CA 
 258      C5B02444 
 258      848F5615 
 258      314AD239 
 259 0140 8FA28A2C 		.ascii	"\217\242\212,\002\025a\332 \305\023\000J\315\340\327"
 259      021561DA 
 259      20C51300 
 259      4ACDE0D7 
 260 0150 B86AD455 		.ascii	"\270j\324U\357\302z\360\251i\351J}\340p-ne\344\320\235"
 260      EFC27AF0 
 260      A969E94A 
 260      7DE0702D 
 260      6E65E4D0 
 261 0165 E57D6805 		.ascii	"\345}h\005\237\277Fz*(\022f\333Ev\214j\0373JYs\300\343"
 261      9FBF467A 
 261      2A281266 
 261      DB45768C 
 261      6A1F334A 
 262 017d B234552A 		.ascii	"\2624U*v\016\241\017f\214\333\011\335\244\253\027U\262"
 262      760EA10F 
 262      668CDB09 
 262      DDA4AB17 
 262      55B2
 263 018f 02A77C3C 		.ascii	"\002\247|<\221\207\363\217\345\346E\037\263\2200\347"
 263      9187F38F 
ARM GAS  /tmp/ccuqBRmh.s 			page 20


 263      E5E6451F 
 263      B39030E7 
 264 019f 0076A0F5 		.ascii	"\000v\240\365#\021d+\332#\217\240L\341\340\002\335S"
 264      2311642B 
 264      DA238FA0 
 264      4CE1E002 
 264      DD53
 265 01b1 B3DDDCBF 		.ascii	"\263\335\334\2777\037'f*\210\311U\354\002\373\373\340"
 265      371F2766 
 265      2A88C955 
 265      EC02FBFB 
 265      E0
 266 01c2 152558D7 		.ascii	"\025%X\327\232@\317\222\2239\002\222E\014\367\374\326"
 266      9A40CF92 
 266      93390292 
 266      450CF7FC 
 266      D6
 267 01d3 B0632E4D 		.ascii	"\260c.M\304\223-?\002F\336\261\035NdF\333V\\)\330\313"
 267      C4932D3F 
 267      0246DEB1 
 267      1D4E6446 
 267      DB565C29 
 268 01e9 86EFA573 		.ascii	"\206\357\245s0\356\015\361\320\247V\360};9iv\034\353"
 268      30EE0DF1 
 268      D0A756F0 
 268      7D3B3969 
 268      761CEB
 269 01fc FB89F539 		.ascii	"\373\211\3659\252\034e\2753\312\372\\d\375\311<\\\322"
 269      AA1C65BD 
 269      33CAFA5C 
 269      64FDC93C 
 269      5CD2
 270 020e D63BC75B 		.ascii	"\326;\307[\357\214\260\336\2027iz3M\361\337+?\345F\271"
 270      EF8CB0DE 
 270      8237697A 
 270      334DF1DF 
 270      2B3FE546 
 271 0223 3E9E8EB3 		.ascii	">\236\216\263\205\372A\275\247\177\222C\2129r\273\343"
 271      85FA41BD 
 271      A77F9243 
 271      8A3972BB 
 271      E3
 272 0234 A8E3CD14 		.ascii	"\250\343\315\024\213%\375\251{\265zi\245^\252-\257\256"
 272      8B25FDA9 
 272      7BB57A69 
 272      A55EAA2D 
 272      AFAE
 273 0246 B89E0E55 		.ascii	"\270\236\016U\267P\363n\254zK\256\2670=3]t\001}\373"
 273      B750F36E 
 273      AC7A4BAE 
 273      B7303D33 
 273      5D74017D 
 274 025b 9A5FAB17 		.ascii	"\232_\253\027\274\352\365\372-\310\206\363\245\3458"
 274      BCEAF5FA 
 274      2DC886F3 
 274      A5E538
 275 026a FE03DA5A 		.ascii	"\376\003\332Z\004J"
ARM GAS  /tmp/ccuqBRmh.s 			page 21


 275      044A
 276              		.text
 277              		.section	.gnu.lto_.symbol_nodes.3ab41d4bef2e5fa1,"",%progbits
 278 0000 789C4D8E 		.ascii	"x\234M\216GN\304@\020E\353w\273mc\233`\223\206\005g"
 278      474EC440 
 278      1045EB77 
 278      BB6D639B 
 278      60938605 
 279 0015 E04CECB9 		.ascii	"\340L\354\271C\215d\211\264@\034\000$\204\2172\022H"
 279      438D6489 
 279      B4401C00 
 279      24848F32 
 279      1248
 280 0027 20E000A4 		.ascii	" \340\000\244\001\003C\316\260\004:X\264\275yz\245\252"
 280      010343CE 
 280      B0043A58 
 280      B4BD797A 
 280      A5AA
 281 0039 7E162468 		.ascii	"~\026$hN\220\373\304\031\230h\375\220\210yce^\334\200"
 281      4E90FBC4 
 281      199868FD 
 281      90887963 
 281      655EDC80 
 282 004d E155DD41 		.ascii	"\341U\335A\022\223:\005\005,\3055X\264v/\301\262\245"
 282      12933A05 
 282      052CC535 
 282      58B4762F 
 282      C1B2A5
 283 0060 E7E0A075 		.ascii	"\347\340\240uz\002\230\233\017\260j\246\233\313P\307"
 283      7A02989B 
 283      0FB06AA6 
 283      9BCB50C7 
 284 0070 10665A83 		.ascii	"\020fZ\203\303\326\351'8\362K\242\017\216[/\335\"P\372"
 284      C3D6E927 
 284      38F24BA2 
 284      0F8E5B2F 
 284      DD2250FA 
 285 0084 272EA0F4 		.ascii	"'.\240\364\251\272Bh0@\244\201\007\360\220[\355v\201"
 285      A9BA4268 
 285      3040A481 
 285      07F0905B 
 285      ED7681
 286 0097 7B70E2ED 		.ascii	"{p\342\355\021\234z{\007g\336\236\301\303\336\236\300"
 286      119C7A7B 
 286      0767DE9E 
 286      C1C3DE9E 
 286      C0
 287 00a8 23DEDEC0 		.ascii	"#\336\336\300\243\336^\301c\336^\300\371\277I\024T\365"
 287      A3DE5EC1 
 287      63DE5EC0 
 287      F9BF4914 
 287      54F5
 288 00ba 7F3473AA 		.ascii	"\1774s\252\015\203q*\015U\303p\3021\316\251\332?\232"
 288      0D83712A 
 288      0D55C370 
 288      C231CEA9 
 288      DA3F9A
ARM GAS  /tmp/ccuqBRmh.s 			page 22


 289 00cd 957141F5 		.ascii	"\225qA\365\236aN\345\322\357\202\361\336\242\341$\325"
 289      9E614EE5 
 289      D2EF82F1 
 289      DEA2E124 
 289      D5
 290 00de 5BDF914C 		.ascii	"[\337\221L\246\334{IA\345\327 \224IN=K\335\331\325w"
 290      A6DC7B49 
 290      41E5D720 
 290      94494E3D 
 290      4BDDD9D5 
 291 00f3 DA6BCB98 		.ascii	"\332k\313\230\266Ww:2\325\276v\240d\332\241\312R\367"
 291      B657773A 
 291      32D5BE76 
 291      A064DAA1 
 291      CA52F7
 292 0106 2C9B9E9E 		.ascii	",\233\236\236\333^\332\364\264\333^:\355z\331\214\353"
 292      DB5EDAF4 
 292      B4DB5E3A 
 292      ED7AD98C 
 292      EB
 293 0117 651DD7CB 		.ascii	"e\035\327\313\232\236v\333\313\232^\226\332\036\375"
 293      9A9E76DB 
 293      CB9A5E96 
 293      DA1EFD
 294 0126 01BBAEAE 		.ascii	"\001\273\256\256V"
 294      56
 295              		.text
 296              		.section	.gnu.lto_.refs.3ab41d4bef2e5fa1,"",%progbits
 297 0000 789C3D8B 		.ascii	"x\234=\213\007\016\300 \014\003\3031RF\307\177\373\371"
 297      070EC020 
 297      0C03C331 
 297      5246C77F 
 297      FBF9
 298 0012 5A209AE8 		.ascii	"Z \232\350,;\003\303^[E\010\020W\207$\262(\270\037\232"
 298      2C3B03C3 
 298      5E5B4508 
 298      10578724 
 298      B228B81F 
 299 0027 577916DE 		.ascii	"Wy\026\336\346]\335\271\367\271w\351\017\246\2771]\335"
 299      E65DDDB9 
 299      F7B977E9 
 299      0FA6BF31 
 299      5DDD
 300 0039 B3787271 		.ascii	"\263xrq\363H\013C.\323\224\022\301>\246\336\002k"
 300      F3480B43 
 300      2ED39412 
 300      C13EA6DE 
 300      026B
 301              		.text
 302              		.section	.gnu.lto_.decls.3ab41d4bef2e5fa1,"",%progbits
 303 0000 789CBD5B 		.ascii	"x\234\275[{t\024U\232\277U\335\235\356&\341)2pF\207"
 303      7B741455 
 303      9ABF55DD 
 303      9DEE26E1 
 303      29327046 
 304 0015 1E477766 		.ascii	"\036GwfpL\0022\210\272#\270\356Y\3353\353\356\23493"
 304      704C0232 
ARM GAS  /tmp/ccuqBRmh.s 			page 23


 304      88BA23B8 
 304      EE59DD33 
 304      EBEE9C39 
 305 002a E7CC7F3D 		.ascii	"\347\314\177=e\247L\262\223tg\272+\002\273\177P\011"
 305      65A74CB2 
 305      937467BA 
 305      2B02BB7F 
 305      5009
 306 003c 213C6421 		.ascii	"!<d!$B\"\002&<\0268 a@\0101<\032\201\030\242B\022\011"
 306      24422202 
 306      263C1638 
 306      20614008 
 306      313C1A81 
 307 0055 3146210A 		.ascii	"1F!\012\263\232aVA\006\206(\322\373\335GUWUWUW\207q"
 307      B39A6156 
 307      41068628 
 307      D2FBDD47 
 307      55575557 
 308 006d EB702BB7 		.ascii	"\353p+\267n\335\357\367=\357\353\253\206G<*p#\224\200"
 308      6EDDEFF7 
 308      3DEFEBAB 
 308      86473C2A 
 308      70239480 
 309 0081 EB3B7311 		.ascii	"\353;s\021*\364\"4\012!\364\004\2241P\232\240l\202\262"
 309      2AF42234 
 309      0A21F404 
 309      9431509A 
 309      A06C82B2 
 310 0095 0D8A0B8A 		.ascii	"\015\212\013\212\007J%\207\320\002(\213\240TA\251\206"
 310      074A2587 
 310      D002288B 
 310      A05441A9 
 310      86
 311 00a6 22415908 		.ascii	"\"AY\010e\031\224\345P\3605\001\312\012\250\327A\251"
 311      651994E5 
 311      50F03501 
 311      CA0AA8D7 
 311      41A9
 312 00b8 87B20ECA 		.ascii	"\207\262\016\312\006(\215P\266@\331\006e'\224\335P\016"
 312      06288D50 
 312      B640D906 
 312      652794DD 
 312      500E
 313 00ca 403901E5 		.ascii	"@9\001\345\024\2243P\316B\371\000\312\005(\027\241\370"
 313      14943350 
 313      CE42F900 
 313      CA052817 
 313      A1F8
 314 00dc 006B08FE 		.ascii	"\000k\010\376\336\2002\014\345k(\337@\231\310#4\025"
 314      DE80320C 
 314      E56B28DF 
 314      4099C823 
 314      3415
 315 00ee CA341EE9 		.ascii	"\3124\036\351.\314\027\2131\207=s\254\315xa\331rX\277"
 315      2ECC178B 
 315      31873D73 
 315      ACCD7861 
ARM GAS  /tmp/ccuqBRmh.s 			page 24


 315      D97258BF 
 316 0102 3D1CD56F 		.ascii	"=\034\325o&`\375\224O\352\334\002\355\263\370\244-\232"
 316      2660FD94 
 316      4FEADC02 
 316      EDB3F8A4 
 316      2D9A
 317 0114 198E8BD1 		.ascii	"\031\216\213\321\037`:`\021\260\\C\006>Xw01z\204ab\036"
 317      1F603A60 
 317      11B05C43 
 317      063E5877 
 317      30317A84 
 318 012b 27591F9E 		.ascii	"'Y\037\236\275?\301\3445\322\256KC\273\316\206v\003"
 318      BD3FC1E4 
 318      35D2AE4B 
 318      43BBCE86 
 318      7603
 319 013d D367364F 		.ascii	"\323g6O}\206\353\330o\235\032\372\015\314\346\270\351"
 319      7D86EBD8 
 319      6F9D1AFA 
 319      0DCCE6B8 
 319      E9
 320 014e 86811EFB 		.ascii	"\206\201\036\373i\"\343\211c\001\333\351Q>i+l\247N\250"
 320      6922E389 
 320      6301DBE9 
 320      513E692B 
 320      6CA74EA8 
 321 0162 3FC664EB 		.ascii	"?\306d\353\342\250\335\2646Sb\004\333L\261\037\276\334"
 321      E2A8DDB4 
 321      36536204 
 321      DB4CB11F 
 321      BEDC
 322 0174 0CFF8CC6 		.ascii	"\014\377\214\306~.f\277a\023\033\342x\231d\220E+\307"
 322      7E2E66BF 
 322      61131BE2 
 322      78996490 
 322      452BC7
 323 0187 E34C0625 		.ascii	"\343L\006%\026{\035\312\362\367\330\257\214\227\207"
 323      167B1DCA 
 323      F2F7D8AF 
 323      8C9787
 324 0196 F139AB91 		.ascii	"\3619\253\221\251Q#\327\020\223M{\341\030\236\354\300"
 324      A95123D7 
 324      10934D7B 
 324      E1189EEC 
 324      C0
 325 01a7 463F633E 		.ascii	"F?c>\030\200\362\004\324\007md\302\376Z\310\374\244"
 325      1880F204 
 325      D4076D64 
 325      C2FE5AC8 
 325      FCA4
 326 01b9 1D4F598C 		.ascii	"\035OY\214\2372.v3\337\2550\330\316\350G<\306\356\266"
 326      9F322E76 
 326      33DFAD30 
 326      D8CEE847 
 326      3CC6EEB6 
 327 01cd B1DD1C26 		.ascii	"\261\335\034&\233b\273K\016d\234\013\355\3335v\333\311"
 327      9B62BB4B 
ARM GAS  /tmp/ccuqBRmh.s 			page 25


 327      0E649C0B 
 327      EDDB3576 
 327      DBC9
 328 01df C6A922D7 		.ascii	"\306\251\"\3276\215L\312\230\325^\331h\271,W\312\215"
 328      368D4CCA 
 328      98D55ED9 
 328      68B92C57 
 328      CA8D
 329 01f1 D5F2331D 		.ascii	"\325\3623\035c\306\243\032\031\256@\303\030?Z\212\233"
 329      63C6A31A 
 329      19AE40C3 
 329      183F5A8A 
 329      9B
 330 0202 07B7CA93 		.ascii	"\007\267\312\223\301\252\277\341\004\016\232|\244\222"
 330      C1AABFE1 
 330      040E9A7C 
 330      A492
 331 0210 E32741FA 		.ascii	"\343'A\372\000\332\002]\241?/p\2339?\0041o2\254\361"
 331      00DA025D 
 331      A13F2F70 
 331      9B393F04 
 331      316F32AC 
 332 0225 45DFE30B 		.ascii	"E\337\343\013\223\323\272RKp*\372|\005},\243\332\304"
 332      93D3BA52 
 332      4B702AFA 
 332      7C057D2C 
 332      A3DAC4
 333 0238 8D273522 		.ascii	"\215'5\"\213\314D$=\030E@\241p3\212\377\326\360\311"
 333      8BCC4424 
 333      3D184540 
 333      A170338A 
 333      FFD6F0C9 
 334 024c F1272B63 		.ascii	"\361'+c\230$VtM\\\266\251=&\240\325\304\036\035cT\332"
 334      98245674 
 334      4D5CB6A9 
 334      3D26A0D5 
 334      C41E1D63 
 335 0262 38A7104F 		.ascii	"8\247\020OV\214P3\270\352O\223e\267\300m\347&\200\031"
 335      568C5033 
 335      B8EA4F93 
 335      65B7C06D 
 335      E7268019 
 336 0276 6671681A 		.ascii	"fqh\032\332AmS\371C3\233\244\205\3052\355\0020\201\333"
 336      DA416D53 
 336      F943339B 
 336      A485C532 
 336      ED023081 
 337 028b C94D6396 		.ascii	"\311Mc\226\216\267\266\347`&\270\035\2617&\327\367Q"
 337      8EB7B6E7 
 337      6026B81D 
 337      B13726D7 
 337      F751
 338 029d 23EEDCD6 		.ascii	"#\356\334\326\276\236\223\033\337\344LX\375V\341\224"
 338      BE9E931B 
 338      DFE44C58 
 338      FD56E194 
 339 02ad 9354A0AF 		.ascii	"\223T\240\257\372\220K\226}\002\327LT\210q:\006\351"
ARM GAS  /tmp/ccuqBRmh.s 			page 26


 339      FA904B96 
 339      7D02D74C 
 339      5488713A 
 339      06E9
 340 02bf 40783C4A 		.ascii	"@x<J\004n\257Q\342\376&.@\233\323\013<\360G\277\\\233"
 340      046EAF51 
 340      E2FE262E 
 340      409BD30B 
 340      3CF047BF 
 341 02d5 63C269AE 		.ascii	"c\302i\256\302\311\227\024\267u\371\331\325\\\225,\303"
 341      C2C99714 
 341      B775F9D9 
 341      D55C952C 
 341      C3
 342 02e6 8B0344E0 		.ascii	"\213\003D\340?p\246\0227\316\265\002\342\3211B\322j"
 342      3F70A612 
 342      37CEB502 
 342      E2D13142 
 342      D26A
 343 02f8 9079B0F7 		.ascii	"\220y\260\367\364\231J\256\202@\267:\020\2742\336\275"
 343      F4994AAE 
 343      8240B73A 
 343      10BC32DE 
 343      BD
 344 0309 7CC3146C 		.ascii	"|\303\024l\351t\201\323\350V\370\377cR\221\203\235s"
 344      E97481D3 
 344      E856F8FF 
 344      63529183 
 344      9D73
 345 031b B04F8F10 		.ascii	"\260O\217\020%\256\231+a\015\302\243[\204\344X\212\022"
 345      25AE992B 
 345      610DC2A3 
 345      5B84E458 
 345      8A12
 346 032d 2B3F5294 		.ascii	"+?R\2248\346\310\372\177\355\244\341\242\330\263\232"
 346      38E6C8FA 
 346      7FEDA4E1 
 346      A2D8B39A 
 347 033d 5770CD8C 		.ascii	"Wp\315\214\247\016/\204T\311\364F\271\331\231S#\260"
 347      A70E2F84 
 347      54C9F446 
 347      B9D99953 
 347      23B0
 348 034f 39845AC4 		.ascii	"9\204Z\304|\360)\376\254=\321\315-\"\362\276E\246\222"
 348      7CF029FE 
 348      AC3DD1CD 
 348      2D22F2BE 
 348      45A692
 349 0362 93BCDE14 		.ascii	"\223\274\336\024\316\241\332\326\236<\306U\022\250N"
 349      CEA1DAD6 
 349      9E3CC655 
 349      12A84E
 350 0371 027579C4 		.ascii	"\002uy\304P\375\365\207\036%\203\342]\002\264\311\245"
 350      50FDF587 
 350      1E2583E2 
 350      5D02B4C9 
 350      A5
ARM GAS  /tmp/ccuqBRmh.s 			page 27


 351 0382 071238AF 		.ascii	"\007\0228\257\252\266\372\254t\300h^\177\262\202\267"
 351      AAB6FAAC 
 351      74C0685E 
 351      7FB282B7 
 352 0392 7563D1B7 		.ascii	"uc\321\267\334\235G\257\271\014~\323\351\245q\241\251"
 352      DC9D47AF 
 352      B90C7ED3 
 352      E9A571A1 
 352      A9
 353 03a3 DFE4C1B3 		.ascii	"\337\344\301\263\247\317\363/\313\361*\2272\200\262"
 353      A7CFF32F 
 353      CBF12A97 
 353      3280B2
 354 03b2 AC6CC4A3 		.ascii	"\254l\304\243\275\204W\2171\366\022\003\357(\261\327"
 354      BD84578F 
 354      31F61203 
 354      EF28B1D7 
 355 03c2 E36800ED 		.ascii	"\343h\000\355\357\254w6\200x\205\377\375\204\377\020"
 355      EFAC7736 
 355      807885FF 
 355      FD84FF10 
 356 03d2 E1DF67E4 		.ascii	"\341\337g\344?p\341\303\305\214\177\237#\376\255}/\245"
 356      3F70E1C3 
 356      C58C7F9F 
 356      23FEAD7D 
 356      2FA5
 357 03e4 F217B827 		.ascii	"\362\027\270'\356\266\213\215\304\300\377\\e\\\006\200"
 357      EEB68B8D 
 357      C4C0FF5C 
 357      655C0680 
 358 03f4 92479BDD 		.ascii	"\222G\233\335\306\350\230\223\255eF\2365\035x\264\313"
 358      C6E89893 
 358      AD65469E 
 358      351D78B4 
 358      CB
 359 0405 ADC86FE3 		.ascii	"\255\310o\343+d\345\253JP\364\3635\\\355\"\271#_\221"
 359      2B64E5AB 
 359      4A50F4F3 
 359      355CED22 
 359      B9235F91 
 360 0419 A13963C4 		.ascii	"\2419c\304\200\316\022\207\372`\324*`{\235\200Y\206"
 360      80CE1287 
 360      FA60D42A 
 360      607B9D80 
 360      5986
 361 042b 5265FC88 		.ascii	"Re\374\210\026l\177\306`z\311\272\264`\007\235\200\215"
 361      166C7FC6 
 361      607AC9BA 
 361      B460079D 
 361      808D
 362 043d B396AC47 		.ascii	"\263\226\254G\013\326\2261\230^\262\263Z\260#N\300&"
 362      0BD69631 
 362      985EB2B3 
 362      5AB0234E 
 362      C026
 363 044f 5B4B764E 		.ascii	"[KvN\013\366f\306`z\311\336\327\202\265;\001\013\230"
 363      0BF666C6 
ARM GAS  /tmp/ccuqBRmh.s 			page 28


 363      607AC9DE 
 363      D782B53B 
 363      010B98
 364 0462 48A65E56 		.ascii	"H\246^V{\247s\311\275\023\217N\271\2259!\303\230FI\214"
 364      7BA773C9 
 364      BD138F4E 
 364      B9953921 
 364      C3984649 
 365 0477 77DC99CE 		.ascii	"w\334\231\316a:\275a\005\277\260\211\253\243\343\342"
 365      613ABD61 
 365      05BFB089 
 365      ABA3E3E2 
 366 0487 3051BECB 		.ascii	"0Q\276\313\011\242M\300\324\274M,I\301\316e\014\246"
 366      09A24DC0 
 366      D4BC4D2C 
 366      49C1CE65 
 366      0CA6
 367 0499 77CB460C 		.ascii	"w\313F\014\246\233k\324\275v|rCr\272\323m\266\005n\013"
 367      A69B6BD4 
 367      BD767C72 
 367      4372BAD3 
 367      6DB6056E 
 368 04ae F780D38D 		.ascii	"\367\200\323\215t\212\213nh]\364\241\023\371mb\264\313"
 368      748A8B6E 
 368      685DF4A1 
 368      13F96D62 
 368      B4CB
 369 04c0 4AFE78B5 		.ascii	"J\376x\265\274\224\253\370\303=\266;\267\304\300\347"
 369      BC94ABF8 
 369      C33DB63B 
 369      B7C4C0E7 
 370 04d0 4D6C79FE 		.ascii	"Mly\376\232\254\252\037\273M\227gG`mk\317(k\375m\002"
 370      9AACAA1F 
 370      BB4D9767 
 370      47606D6B 
 370      CF286BFD 
 371 04e6 F6E79183 		.ascii	"\366\347\221\2035\366\367\335\203\267b\025<\006\272"
 371      35F6F7DD 
 371      83B76215 
 371      3C06BA
 372 04f5 9E329BFB 		.ascii	"\2362\233\373\015k\275_\277\032\373\375\311JB\271\364"
 372      0D6BBD5F 
 372      BF1AFBFD 
 372      C94A42B9 
 372      F4
 373 0506 7BFF6F95 		.ascii	"{\377o\225\306\312\365_i]/{2u\275~d\235=}\203\257\227"
 373      C6CAF55F 
 373      695D2F7B 
 373      3275BD7E 
 373      649D3D7D 
 374 051d E3152ECD 		.ascii	"\343\025.\315\351\320*b\225\235]\317\221\237\221=T5"
 374      E9D02A62 
 374      959D5DCF 
 374      919F913D 
 374      5435
 375 052f B1EB128F 		.ascii	"\261\353\022\217\251\203\034\000\265\255}\355A\002\264"
 375      A9831C00 
ARM GAS  /tmp/ccuqBRmh.s 			page 29


 375      B5AD7DED 
 375      4102B4
 376 053e 8C00D58C 		.ascii	"\214\000\325\214\030\250\277~\343l\002\264\202\0005"
 376      18A8BF7E 
 376      E36C02B4 
 376      820035
 377 054d 788C9EE6 		.ascii	"x\214\236\346\014\236\346\364\036PG\035\033t\337V_\330"
 377      0C9EE6F4 
 377      1E50471D 
 377      1B74DF56 
 377      5FD8
 378 055f 701ADDA5 		.ascii	"p\032\335\245S\307f\316V'\302[\265\334\265J\271!?\003"
 378      53C766CE 
 378      5627C25B 
 378      B5DCB54A 
 378      B9213F03 
 379 0573 7FD5327F 		.ascii	"\177\3252\177\255&\326\331\236b\035l\376\314\324\330"
 379      AD26D6D9 
 379      9E621D6C 
 379      FECCD4D8 
 380 0583 93B11A3E 		.ascii	"\223\261\032>\275\032+\023#P\343(Uc-Q\343\300\337@\215"
 380      BD1A2B13 
 380      2350E328 
 380      55632D51 
 380      E3C0DF40 
 381 0598 2319AB31 		.ascii	"#\031\2531N\243\0069X\276D\227\245\273P\255\375\336"
 381      4EA30639 
 381      58BE4497 
 381      A5BB50AD 
 381      FDDE
 382 05aa 1ACBF30A 		.ascii	"\032\313\363\012\177\227\3760\335{\032\037\246qs\372"
 382      7F97FE30 
 382      DD7B1A1F 
 382      A67173FA 
 383 05ba E3DCB5D3 		.ascii	"\343\334\265\323\353\311\226V\2279\261?\201\365\250"
 383      EBC99656 
 383      9739B13F 
 383      81F5A8
 384 05c9 27B08DC4 		.ascii	"'\260\215\304d\307\315\006\230\023\250\306\266sw\343"
 384      64C7CD06 
 384      9813A8C6 
 384      B67377E3 
 385 05d9 89B489C0 		.ascii	"\211\264\211\300\234\032)\314`\177_\013\035\247[\010"
 385      9C1A29CC 
 385      607F5F0B 
 385      1DA75B08 
 386 05e9 50778A0B 		.ascii	"Pw\212\013\263\014\036\314\322{\020\0361\247\233d\202"
 386      B30C1ECC 
 386      D27B101E 
 386      31A79B64 
 386      82
 387 05fa 5CC85AF0 		.ascii	"\\\310Z\360\203\027\375\277\323\361h\200\210\217\275"
 387      8317FDBF 
 387      D3F16880 
 387      888FBD
 388 0609 3792CD3E 		.ascii	"7\222\315>>\321_\252S65\324A\237\334\021be\374\325U"
 388      3ED15FAA 
ARM GAS  /tmp/ccuqBRmh.s 			page 30


 388      533635D4 
 388      419FDC11 
 388      6265FCD5 
 389 061e 346F410E 		.ascii	"4oA\016&pL\276C\270Cg\214\333\002\303y\352\210\305\262"
 389      26704CBE 
 389      43B84367 
 389      8CDB02C3 
 389      79EA88C5 
 390 0633 A3A674DA 		.ascii	"\243\246t\332\225\265|7\217\005\3722\305\341\2079\303"
 390      95B57C37 
 390      8F05FA32 
 390      C5E18739 
 390      C3
 391 0644 890A3768 		.ascii	"\211\0127h\272X\015\245\327x\315\032\2708\353\016\035"
 391      BA580DA5 
 391      D778CD1A 
 391      B838EB0E 
 391      1D
 392 0655 71FABAC1 		.ascii	"q\372\272\301\021/\336\021be|x\225I\002\211\246\315"
 392      112FDE11 
 392      62657C78 
 392      95490289 
 392      A6CD
 393 0667 AC34DAAF 		.ascii	"\2544\332\257\325\250\356\016\371\257\3531z\316\344"
 393      D5A8EE0E 
 393      F9AFEB31 
 393      7ACEE4
 394 0676 F02DABF9 		.ascii	"\360-\253\371\311q\204\351:\302\264\2257\034\276\353"
 394      C97184E9 
 394      3AC2B495 
 394      371CBEEB 
 395 0686 AF752C51 		.ascii	"\257u,Q\262g\274\223\304\323u\222\366\243i'\201;\311"
 395      B267BC93 
 395      C4D37592 
 395      F6A36927 
 395      813BC9
 396 0699 F10CD56C 		.ascii	"\361\014\325l\243\346\300\224C\2478\002G\267\352\307"
 396      A3E6C094 
 396      43A73802 
 396      47B7EAC7 
 397 06a9 55219D9E 		.ascii	"U!\235\236$\364p\267\304\216\374\314\014C\2039\336\377"
 397      24F470B7 
 397      C48EFCCC 
 397      0C438339 
 397      DEFF
 398 06bb 473C571F 		.ascii	"G<W\037\343q*\355T\2261\216\251e4q\2344\243\300\265"
 398      E3712AED 
 398      5496318E 
 398      A9653471 
 398      9C34A3C0 
 399 06d0 F1789F7F 		.ascii	"\361x\237\177\210\377>\216or?\012w\365\262\212\210\270"
 399      88FF3E8E 
 399      6F723F0A 
 399      77F5B28A 
 399      88B8
 400 06e2 3622BA33 		.ascii	"6\"\2723\326;`\360\216\025\233\203Z6\347\356,\360`;"
 400      D63B60F0 
ARM GAS  /tmp/ccuqBRmh.s 			page 31


 400      8E159B83 
 400      5A36E7EE 
 400      2CF0603B 
 401 06f6 79DA4D92 		.ascii	"y\332M\222M\031$\012{N\252\211B2\370>J\261n\247q\377"
 401      4D19240A 
 401      7B4EAA89 
 401      4232F83E 
 401      4AB16EA7 
 402 070c E6246F36 		.ascii	"\346$o64RU\324\213GW\262\034\354\256\003&VW\247\370"
 402      345255D4 
 402      8B4757B2 
 402      1CECAE03 
 402      265657A7 
 403 0721 736C8390 		.ascii	"sl\203\2206\371\246X\243\363\235\012\226\006\177\227"
 403      36F9A658 
 403      A3F39D0A 
 403      96067F97 
 404 0731 C4DA9706 		.ascii	"\304\332\227\006k8\310\342Ux1I\227q \367\256T\263x]"
 404      6B38C8E2 
 404      55783149 
 404      977120F7 
 404      AE54B378 
 405 0746 0E067265 		.ascii	"\016\006re|\337re9\241\263\362\011\236g\270#\265\250"
 405      7CDF7265 
 405      39A1B3F2 
 405      099E67B8 
 405      23B5A8
 406 0759 CE895D9A 		.ascii	"\316\211]\232!\322C\206\310{\332a\301\243\325^\007\326"
 406      21D24386 
 406      C87BDA61 
 406      C1A3D55E 
 406      07D6
 407 076b FF915530 		.ascii	"\377\221U0\302D\324\243\317\200\277l\3043\233\212tx"
 407      C244D4A3 
 407      CF80BF6C 
 407      C4339B8A 
 407      7478
 408 077d 5A6F56C6 		.ascii	"ZoV\306k\336#9\003\032\245\233\234\010\227o\015\366"
 408      6BDE2339 
 408      031AA59B 
 408      9C08976F 
 408      0DF6
 409 078f 6A9D62DC 		.ascii	"j\235b\334\203dm\334\351\004o\266\225\262\225\361\226"
 409      83646DDC 
 409      E9046FB6 
 409      95B295F1 
 409      96
 410 07a0 F7D6333C 		.ascii	"\367\3263<\232n\337\2271\236^\276\336:\335^\342\220"
 410      9A6EDF97 
 410      319E5EBE 
 410      DE3ADD5E 
 410      E290
 411 07b2 13B8B98E 		.ascii	"\023\270\271\216}\237\374\274!p\307I\032\344\004\207"
 411      7D9FFCBC 
 411      2170C749 
 411      1AE40487 
 412 07c2 27C67672 		.ascii	"'\306vr\357&\367\253\344~\215\334\257\223"
ARM GAS  /tmp/ccuqBRmh.s 			page 32


 412      EF26F7AB 
 412      E47E8DDC 
 412      AF93
 413 07d0 FB30B92F 		.ascii	"\3730\271/&Sh\015\271\257!\367u\344\376\016\271\367"
 413      2653680D 
 413      B9AF21F7 
 413      75E4FE0E 
 413      B9F7
 414 07e2 927B1FB9 		.ascii	"\222{\037\271\367\223\373\000\271\177\344d\3125\354"
 414      F793FB00 
 414      B97FE464 
 414      CA35EC
 415 07f1 3E94906F 		.ascii	">\224\220o\035iB7\336\323\251I3\275\351\3452\004\013"
 415      1D694237 
 415      DED3A949 
 415      33BDE9E5 
 415      32040B
 416 0804 D8D9B055 		.ascii	"\330\331\260Uc\3036b\303C\304>\027\264\232*\013\360"
 416      63C33662 
 416      C343C43E 
 416      17B49A2A 
 416      0BF0
 417 0816 5EFBA8B7 		.ascii	"^\373\250\267TA\036\354koy49\245;<y\264+S\372'd\260"
 417      54411EEC 
 417      6B6F7934 
 417      39A53B3C 
 417      79B42B53 
 418 082e BCE5354E 		.ascii	"\274\3455N\351M\306\303ZF[\357w\275\034\262\336N\331"
 418      E94DC6C3 
 418      5A465BEF 
 418      77BD1CB2 
 418      DE4ED9
 419 0841 EC02CC2D 		.ascii	"\354\002\314-\271Wc\311\327\211%\367\023K~\254\237\217"
 419      B95763C9 
 419      D78925F7 
 419      134B7EAC 
 419      9F8F
 420 0853 BA09D75D 		.ascii	"\272\011\327]I\256\277UX\3458\262\344\027\237v\270*"
 420      49AEBF55 
 420      58E538B2 
 420      E4179F76 
 420      B82A
 421 0865 345F62D2 		.ascii	"4_b\322|\301\215oh\307[\216\317\3102\320\3535]\006,"
 421      7CC18D6F 
 421      68C75B8E 
 421      CFC832D0 
 421      EB355D06 
 422 087a 21B05A97 		.ascii	"!\260Z\227\015+@|5\375\334|\331\321\354_Wm\375\021\324"
 422      0D2B407C 
 422      35FDDC7C 
 422      D9D1EC5F 
 422      576DFD11 
 423 088f 6EF5B948 		.ascii	"n\365\271H$\375\302\310\373\252\020\240\255\3519_S\266"
 423      24FDC2C8 
 423      FBAA10A0 
 423      ADE9395F 
 423      53B6
ARM GAS  /tmp/ccuqBRmh.s 			page 33


 424 08a1 7C9FF3C9 		.ascii	"|\237\363\311e\347\213;Xv\254\206\373\347\311\255\217"
 424      65E78B3B 
 424      5876AC86 
 424      FBE7C9AD 
 424      8F
 425 08b2 C2E672E6 		.ascii	"\302\346r\346l\230\324k\3325\007tG;\237\243\211\301"
 425      6C98D46B 
 425      DA350774 
 425      473B9FA3 
 425      89C1
 426 08c4 C79A6579 		.ascii	"\307\232ey\234\300\375\205.)>\343(\361\030\006\211G"
 426      9CC0FD85 
 426      2E293EE3 
 426      28F11806 
 426      8947
 427 08d6 3F483CFE 		.ascii	"?H<\376dE\335\367\354 (\231\350\021\320\3521\270\352"
 427      6445DDF7 
 427      EC202899 
 427      E811D0EA 
 427      31B8EA
 428 08e9 62878B8C 		.ascii	"b\207\213\214w\235\343'\2415l\360\313\234D\326\004+"
 428      779DE327 
 428      A1356CF0 
 428      CB9C44D6 
 428      042B
 429 08fb A37EC54F 		.ascii	"\243~\305O\"5\027\371\015\024\242\312\251\017T#\201"
 429      223517F9 
 429      0D14A2CA 
 429      A90F5423 
 429      81
 430 090c FBB5CBD6 		.ascii	"\373\265\313\326;\314B\003\233\207'\357 \026\032&\213"
 430      3BCC4203 
 430      9B8727EF 
 430      20161A26 
 430      8B
 431 091d E4458385 		.ascii	"\344E\203\205\014\347+\314\332J\254\004\237m\021x)\357"
 431      0CE72BCC 
 431      DA4AAC04 
 431      9F6D1178 
 431      29EF
 432 092f 60DFE7C4 		.ascii	"`\337\347\304\206\316\347\227\313\232\235\316\237\311"
 432      86CEE797 
 432      CB9A9DCE 
 432      9FC9
 433 093d 4EE77FC9 		.ascii	"N\347\177\311\232t\215\334o\352g\231a\237\203Y\306v"
 433      9A748DDC 
 433      6FEA6799 
 433      619F8359 
 433      C676
 434 094f A7AFE3BD 		.ascii	"\247\257\343\275K3\267\275F\346\266\335dn\373\324\311"
 434      4B33B7BD 
 434      46E6B6DD 
 434      646EFBD4 
 434      C9
 435 0960 7AB8CDE2 		.ascii	"z\270\315\342G4tV\262\242\252t\231S%\177\212D\277o0"
 435      47347456 
 435      B2A2AA74 
ARM GAS  /tmp/ccuqBRmh.s 			page 34


 435      9953257F 
 435      8A44BF6F 
 436 0975 FADF28F4 		.ascii	"\372\337(\364\331\214\276\312\225\351\217\204\026\273"
 436      D98CBECA 
 436      95E98F84 
 436      16BB
 437 0983 CC7F2434 		.ascii	"\314\177$4*\215~\213\322H\212\331v&%\325\037\0141\300"
 437      2A8D7E8B 
 437      D2488AD9 
 437      762625D5 
 437      1F0C31C0 
 438 0997 928C455D 		.ascii	"\222\214E]j!\252+\215\250\325\231\031\265C\025u\012"
 438      6A21AA2B 
 438      8DA8D599 
 438      19B54315 
 438      750A
 439 09a9 03589EB1 		.ascii	"\003X\236\261\250/Z\210:9\215\250\313\222\242NE\033"
 439      A82F5A88 
 439      3A398DA8 
 439      CB92A24E 
 439      451B
 440 09bb E5AE2B83 		.ascii	"\345\256+\203\337l\033\372\224[\015\347 \371\012\236"
 440      DF6C1BFA 
 440      945B0DE7 
 440      20F90A9E 
 441 09cb A5E848E5 		.ascii	"\245\350H\345\321\036\277~8\337\2176\313r\255\\/>\243"
 441      D11EBF7E 
 441      38DF8F36 
 441      CB72AD5C 
 441      2F3EA3
 442 09de 4C894748 		.ascii	"L\211GH\217\025\256\251\246\314h/\205\254\027\223yH"
 442      8F15AEA9 
 442      A6CC682F 
 442      85AC1793 
 442      7948
 443 09f0 A2330D15 		.ascii	"\2423\015\025\235\204\376\016m\305f<|\351\027\317\260"
 443      9D84FE0E 
 443      6DC5663C 
 443      7CE917CF 
 443      B0
 444 0a01 2FFBD634 		.ascii	"/\373\3264L\263\377r\351~\012\213\265\213_\211\277\322"
 444      4CB3FF72 
 444      E97E0A8B 
 444      B58B5F89 
 444      BFD2
 445 0a13 B31266FE 		.ascii	"\263\022f\376\312x\"1\007\031\346I\213_\034`\254\227"
 445      CA782231 
 445      0719E649 
 445      8B5F1C60 
 445      AC97
 446 0a25 5C93584D 		.ascii	"\\\223XM\231\013yt\312`\020&$\\\333e\027A\303\375\353"
 446      990B7974 
 446      CA601026 
 446      245CDB65 
 446      1741C3FD 
 447 0a3a 4048CD05 		.ascii	"@H\315\005\273`S\261j{rj*\006\023\211\251\224\027\217"
 447      BB6053B1 
ARM GAS  /tmp/ccuqBRmh.s 			page 35


 447      6A7B726A 
 447      2A061389 
 447      A994178F 
 448 0a4e CE3B42AF 		.ascii	"\316;B\2577\2427\230\242\277\377\266\001\375\252#\364"
 448      37A23798 
 448      A2BFFFB6 
 448      01FDAA23 
 448      F4
 449 0a5f 7546F457 		.ascii	"uF\364WL\321o\266\033\320\253F9A\337`D\337h\212~\345"
 449      4CD16FB6 
 449      1BD0AB46 
 449      3941DF60 
 449      44DF688A 
 450 0a75 ED153E0A 		.ascii	"\355\025>\012\357\334]M&\356\2527\027\252F/T\243Q\250"
 450      EFDC5D4D 
 450      26EEAA37 
 450      17AA462F 
 450      54A351A8 
 451 0a89 4D6642C9 		.ascii	"MfB\311{e\331/\303\"\216\177|Iu\336\347H\347-F\370\255"
 451      7B65D92F 
 451      C3228E7F 
 451      7C4975DE 
 451      E748E72D 
 452 0aa0 A63AD7BC 		.ascii	"\246:\327\274\225\271\316\333Mt\356p\244\3636\243P;"
 452      95B9CEDB 
 452      4D74EE70 
 452      A4F336A3 
 452      503B
 453 0ab2 1CEA7CC9 		.ascii	"\034\352|\311\221\316;\215\360\273R\341\007k\006\257"
 453      91CE3B8D 
 453      F0BB52E1 
 453      076B06AF 
 454 0ac2 B55CFD49 		.ascii	"\265\\\375I\303^\271j\231|;\261\220\323\351\355CK\310"
 454      C35EB96A 
 454      997C3BB1 
 454      90D3E9ED 
 454      434BC8
 455 0ad5 77A7C572 		.ascii	"w\247\305r\005\367{u*\263\3745\354\036\227\017\204["
 455      05F77B75 
 455      2AB3FC35 
 455      EC1E970F 
 455      845B
 456 0ae7 9BADFFE0 		.ascii	"\233\255\377\340\247\021\000w\300\027\246\247u\245f"
 456      A7110077 
 456      C017A6A7 
 456      75A566
 457 0af6 F325B7D9 		.ascii	"\363%\267\331e\330*\341\376\352\003\373\304\257\333"
 457      65D82AE1 
 457      FEEA03FB 
 457      C4AFDB
 458 0b05 2BF1687D 		.ascii	"+\361h}\266\321@\264\323~S\013\254j>\305\275,\277Y\005"
 458      B6D140B4 
 458      D37E530B 
 458      AC6A3EC5 
 458      BD2CBF59 
 459 0b1a 465E689C 		.ascii	"F^h\234\233l\366p-F\301\360F\200=\260\375\255\\-\377"
 459      9B6CF670 
ARM GAS  /tmp/ccuqBRmh.s 			page 36


 459      2D46C1F0 
 459      46803DB0 
 459      FDAD5C2D 
 460 0b2f 687B727F 		.ascii	"h{r\177;N\201\340\221&\227u`\032\371\334\363\206\013"
 460      3B4E81E0 
 460      91269775 
 460      601AF9DC 
 460      F3860B
 461 0b42 B7EF3048 		.ascii	"\267\3570H\356\034\250mm\313O\010\320a\002\264o\304"
 461      EE1CA86D 
 461      6DCB4F08 
 461      D06102B4 
 461      6FC4
 462 0b54 40FDF5DB 		.ascii	"@\375\365\333\350\317\377\342\004\350P\266q\303\355"
 462      E8CFFFE2 
 462      04E850B6 
 462      71C3ED
 463 0b63 326CB85D 		.ascii	"2l\270]\372\015\267\313\237\254$\022.\364\355v6x\376"
 463      FA0DB7CB 
 463      9FAC2412 
 463      2EF4ED76 
 463      3678FE
 464 0b76 2D0BCF1F 		.ascii	"-\013\317\0377\367\374\356c\226\236\267\031\362'm<\317"
 464      37F7FCEE 
 464      63969EB7 
 464      19F2276D 
 464      3CCF
 465 0b88 96DB14C1 		.ascii	"\226\333\024\301>\266\020\254\303L\260xO\347\012\231"
 465      3EB610AC 
 465      C34CB078 
 465      4FE70A99 
 466 0b98 CB7426EA 		.ascii	"\313t&\3524\212\205\367\230F\261\324\347a\336l\344\014"
 466      348A85F7 
 466      9846B1D4 
 466      E761DE6C 
 466      E40C
 467 0baa 5B8879DA 		.ascii	"[\210y\332T\314\333#\021\263\313\326zs\314\244Z\236"
 467      54CCDB23 
 467      11B3CBD6 
 467      7A73CCA4 
 467      5A9E
 468 0bbc 632ED57B 		.ascii	"c.\325{\246R}9\022\251z\035H\225\306\305\353-\244\354"
 468      A6527D39 
 468      12A97A1D 
 468      4895C6C5 
 468      EB2DA4EC 
 469 0bd0 3795F2C3 		.ascii	"7\225\362\303\221H9`\353bS\333\355\263\220\352\274\251"
 469      91483960 
 469      EB6253DB 
 469      EDB390EA 
 469      BCA9
 470 0be2 54FD9D2B 		.ascii	"T\375\235+\246\310M\246\3334\233\251p\320L,\203\034"
 470      A6C84DA6 
 470      DB349BA9 
 470      70D04C2C 
 470      831C
 471 0bf4 472CE4F8 		.ascii	"G,\344\370\304T\216\336\345\226r\330\230\347\222\003"
ARM GAS  /tmp/ccuqBRmh.s 			page 37


 471      C4548EDE 
 471      E59672D8 
 471      98E79203 
 472 0c04 F3A47162 		.ascii	"\363\244qb\247\205\230\237\351\305\274\0175\311\361"
 472      A785989F 
 472      E9C5BC0F 
 472      35C9F1
 473 0c13 AEC15BDB 		.ascii	"\256\301[\333\272\2758[%\313\267\022\011\216S\376+\304"
 473      BABD385B 
 473      25CBB712 
 473      098E53FE 
 473      2BC4
 474 0c25 072A0893 		.ascii	"\007*\010\2234\365\2779\374\211\341\315D\373\344\245"
 474      34F5BF39 
 474      FC89E1CD 
 474      44FBE4A5 
 475 0c35 F100A5A4 		.ascii	"\361\000\245\244\347N\265\251\2314\355\3276\321\357"
 475      E74EB5A9 
 475      9934EDD7 
 475      36D1EF
 476 0c44 853887F9 		.ascii	"\2058\207\371\237\350+\331g8p\036\260\371v\372E\362"
 476      9FE82BD9 
 476      6738701E 
 476      B0F976FA 
 476      45F2
 477 0c56 C0F1209A 		.ascii	"\300\361 \232F\373\222\012\3452\344\272\217\261g\375"
 477      46FB920A 
 477      E532E4BA 
 477      8FB167FD 
 478 0c66 F773C9B3 		.ascii	"\367s\311\263/\315\227\022\216\024(c\004D\023\205,G"
 478      2FCD9712 
 478      8E142863 
 478      04441385 
 478      2C47
 479 0c78 499EF1E1 		.ascii	"I\236\361\341\232\352\225O\217\312\364\304\217\273\320"
 479      9AEA954F 
 479      8FCAF4C4 
 479      8FBBD0
 480 0c87 9C133DFB 		.ascii	"\234\023=\373\263\324\215\033\321$\000~L())\352\205"
 480      B3D48D1B 
 480      D124007E 
 480      4C282929 
 480      EA85
 481 0c99 F8794F87 		.ascii	"\370yO\207,\343PQ\022\201\027\214\366OI\373\375Ug\376"
 481      2CE35051 
 481      1281178C 
 481      F64F49FB 
 481      FD5567FE 
 482 0cad 910AC0F8 		.ascii	"\221\012\300\370\177\264\325\017G+rl\243\247]\036]4"
 482      7FB4D50F 
 482      472B726C 
 482      A3A75D1E 
 482      5D34
 483 0cbf 4A907A2C 		.ascii	"J\220z,\376*\031Q\030\247\261v\360\313\226\253\017\222"
 483      FE2A1951 
 483      18A7B176 
 483      F0CB96AB 
ARM GAS  /tmp/ccuqBRmh.s 			page 38


 483      0F92
 484 0cd1 E5488926 		.ascii	"\345H\211&rP\273l\204Jq\355-=\322\2368\234%\257\376"
 484      7250BB6C 
 484      844A71ED 
 484      2D3DD29E 
 484      389C25AF 
 485 0ce6 FC0D58ED 		.ascii	"\374\015X\355\227\341\3540\227p%\317\352j\304\3045\231"
 485      97E1EC30 
 485      977025CF 
 485      EA6AC4C4 
 485      3599
 486 0cf8 4A185869 		.ascii	"J\030Xi>\355\3026\261{2\316V\247\375\024,p\025\356\007"
 486      3EEDC236 
 486      B17B32CE 
 486      56A7FD14 
 486      2C7015EE 
 487 0d0d CC52AFA9 		.ascii	"\314R\257\251\026X\3446\344?\277\026\003\2645}\376\363"
 487      1658E436 
 487      E43FBF16 
 487      03B4357D 
 487      FEF3
 488 0d1f 9B6F3A68 		.ascii	"\233o:h\376\363\006\371\034q\223$\3601\351\310\022\223"
 488      FEF306F9 
 488      1C719324 
 488      F031E9C8 
 488      1293
 489 0d31 89210267 		.ascii	"\211!\002g\030Ox\273me\364%nC>\354:\361S&\"\004t\"\324"
 489      184F78BB 
 489      6D65F425 
 489      6E433EEC 
 489      3AF15326 
 490 0d4a B493CF20 		.ascii	"\264\223\317 \030\227G_;\001\263\371\204_\253\005\253"
 490      1897475F 
 490      3B01B3F9 
 490      845FAB05 
 490      AB
 491 0d5b 1A9D2958 		.ascii	"\032\235)X\300`t%9V\345\306\311\261\305n\234\034\253"
 491      C0607425 
 491      3956E5C6 
 491      C9B1C56E 
 491      9C1CAB
 492 0d6e 26F765E4 		.ascii	"&\367e\344\376\242[\227\236[1\332\270g\244N\325\340"
 492      FEA25B97 
 492      9E5B31DA 
 492      B867A44E 
 492      D5E0
 493 0d80 257D8FD2 		.ascii	"%}\217\322#\232\373\300\340,\331B?\214\277\322\255\373"
 493      239AFBC0 
 493      E02CD942 
 493      3F8CBFD2 
 493      ADFB
 494 0d92 090DB20C 		.ascii	"\011\015\262\014JmR\013\023Y\306\356*\367xV[\252\335"
 494      4A6D520B 
 494      1359C6EE 
 494      2AF77856 
 494      5BAADD
 495 0da5 0F6B1EE1 		.ascii	"\017k\036\341\350;:\355$P\343\346\321\367\320\216\321"
ARM GAS  /tmp/ccuqBRmh.s 			page 39


 495      E83B3AED 
 495      2450E3E6 
 495      D1F7D08E 
 495      D1
 496 0db6 1B646A7F 		.ascii	"\033dj\177:\037\315\025\270\3330fU\317\342\231\267A"
 496      3A1FCD15 
 496      B8DB3066 
 496      55CFE299 
 496      B741
 497 0dc8 86513DFC 		.ascii	"\206Q=\374s\027\225\013\217\363\256\256x\037\371\377"
 497      7317950B 
 497      8FF3AEAE 
 497      781FF9FF 
 498 0dd8 4B30D06F 		.ascii	"K0\320o\303\204AM\300\243\343\351\331\256q\363zv2q\007"
 498      C384414D 
 498      C0A3E3E9 
 498      D9AE71F3 
 498      7A763271 
 499 0ded 7603E505 		.ascii	"v\003\345\005\033\001\316I\012\255A\375\317)?`\320/"
 499      1B01CE49 
 499      0AAD41FD 
 499      CF293F60 
 499      D02F
 500 0dff BB334DA1 		.ascii	"\2733M\241\255s\233\247\320\356\263\365\276\3005$\235"
 500      AD739BA7 
 500      D0EEB3F5 
 500      BEC03524 
 500      9D
 501 0e10 FA3DD405 		.ascii	"\372=\324\005&l\230\233dO\243\011+\263T\216\1770J\031"
 501      266C989B 
 501      644FA309 
 501      2BB3548E 
 501      7F304A19 
 502 0e24 AF2CF941 		.ascii	"\257,\371A\243\014\343-q\323\231\376\305d\357\363jo"
 502      A30CE32D 
 502      71D399FE 
 502      C564EFF3 
 502      6A6F
 503 0e36 ED119A49 		.ascii	"\355\021\232I\301)\006\252\275K\347\211\015gL<\361\227"
 503      C12906AA 
 503      BD4BE789 
 503      0D674C3C 
 503      F197
 504 0e48 F49E684C 		.ascii	"\364\236hL\353\211W\3178\362\304\373.\005\372q\006\275"
 504      EB8957CF 
 504      38F2C4FB 
 504      2E05FA71 
 504      06BD
 505 0e5a 25634F6C 		.ascii	"%cOl\265\360\304ci<\261Y\353\211\2121\324\023[\314<"
 505      B5F0C463 
 505      693CB159 
 505      EB898A31 
 505      D4135BCC 
 506 0e6f B167AC62 		.ascii	"\261g\254b\333u\016<\361\272\332{K\252'x\305@\015zO"
 506      DB750E3C 
 506      F1BADA7B 
 506      4BAA2778 
ARM GAS  /tmp/ccuqBRmh.s 			page 40


 506      C5400D7A 
 507 0e84 1CED31F1 		.ascii	"\034\3551\361\304\3411i=\2613\255'\272{\034y\3423\025"
 507      C4E13169 
 507      3DB133AD 
 507      27BA7B1C 
 507      79E23315 
 508 0e98 FA5E06DD 		.ascii	"\372^\006\335\234\261'\366Xx\342\2364\236\330\255\365"
 508      9CB127F6 
 508      5878E29E 
 508      349ED8AD 
 508      F5
 509 0ea9 4427F344 		.ascii	"D'\363D\263\231'z&(\266\255w\340\211sj\357\272TO\320"
 509      B399277A 
 509      2628B6AD 
 509      77E08973 
 509      6AEFBA54 
 510 0ebf C853E658 		.ascii	"\310S\346X\303\264\354\261V\362u\267\325\227\223\026"
 510      C3B4ECB1 
 510      56F275B7 
 510      D5979316 
 511 0ecf 9B8577BF 		.ascii	"\233\205w\277%U\263\015\325\001K\252\2236T-\226T\235"
 511      2555B30D 
 511      D5014BAA 
 511      9336542D 
 511      96549D
 512 0ee2 365407AD 		.ascii	"6T\007\255\2518kk\264ZRu\331\360z\303\222\252\327\206"
 512      A9386B6B 
 512      B45A5275 
 512      D9F07AC3 
 512      92AAD786 
 513 0ef6 AACD92AA 		.ascii	"\252\315\222\252\311\206\352\220%\325\200\015\325aK"
 513      C986EA90 
 513      25D5800D 
 513      D5614B
 514 0f05 AA411BAA 		.ascii	"\252A\033\252#\226T\227l\250\216ZRm\267\241\212kv\007"
 514      23965497 
 514      6CA88E5A 
 514      526DB7A1 
 514      8A6B7607 
 515 0f19 EE509110 		.ascii	"\356P\221\020\315\315\315\315\243\377\"\261\274P\244"
 515      CDCDCDCD 
 515      A3FF22B1 
 515      BC50A4
 516 0f28 B4341286 		.ascii	"\2644\022\206ZI\361sy\305\341PIy\201\230\027**\025K"
 516      5A49F173 
 516      79C5E150 
 516      49798198 
 516      172A2A15 
 517 0f3d CB229192 		.ascii	"\313\"\221\222Xn\021\272\273\260\\\210\026\210\005A"
 517      586E11BA 
 517      BBB05C88 
 517      16880541 
 518 0f4d 688B4417 		.ascii	"h\213D\027\004q{P\312z\372_\177\035x\012M\325bE%\015"
 518      04717B50 
 518      CA7AFA5F 
 518      7F1D780A 
 518      4DD56245 
ARM GAS  /tmp/ccuqBRmh.s 			page 41


 519 0f63 424C2C05 		.ascii	"BL,\005\342l\370#\224\025E\242bP\312\011\025\005\325"
 519      E26CF823 
 519      941545A2 
 519      6250CA09 
 519      1505D5
 520 0f76 C7FBAD09 		.ascii	"\307\373\255\011\027\304\244\005e\"f=V*\212\212BA,\370"
 520      17C4A405 
 520      6522663D 
 520      562A8A8A 
 520      42412CF8 
 521 0f8a FB72B11C 		.ascii	"\373r\261\034\020\306\001\202\256)`\215\022**\000\004"
 521      10C60182 
 521      AE29608D 
 521      122A2A00 
 521      04
 522 0f9b 1FED1E94 		.ascii	"\037\355\036\224\374"
 522      FC
 523 0fa0 2AA98750 		.ascii	"*\251\207P\31661BY$*\305\362\236\374\345\263O=;\037"
 523      CE363142 
 523      59242AC5 
 523      F29EFCE5 
 523      B34F3D3B 
 524 0fb5 B7951597 		.ascii	"\267\225\025\227\210\321X\336\323O=\005\200\212L^\251"
 524      88D158DE 
 524      D34F3D05 
 524      808A4C5E 
 524      A9
 525 0fc6 2C5A1C09 		.ascii	",Z\034\011J\367\346\225\307\242*\303\2608\017\0330&"
 525      4AF7E695 
 525      C7A22AC3 
 525      B0380F1B 
 525      3026
 526 0fd8 15148725 		.ascii	"\025\024\207%\314\267\034\376><#(=d\326\255T\010\025"
 526      CCB71CFE 
 526      3E3C2328 
 526      3D64D6AD 
 526      540815
 527 0feb 1587C5BC 		.ascii	"\025\207\305\274`\201\370\274P^\"\005\025\360Q\301\240"
 527      6081F8BC 
 527      505E2205 
 527      15F051C1 
 527      A0
 528 0ffc 42E8C66C 		.ascii	"B\350\306l"
 529 1000 72B048C1 		.ascii	"r\260H\301P$,\211\363\245\037\247\025\271(\004\226\305"
 529      50242C89 
 529      F3A51FA7 
 529      15B92804 
 529      96C5
 530 1012 56276400 		.ascii	"V'd\000\024\222\346?\344\214*\370\302#\330_\276\250"
 530      1492E63F 
 530      E48C2AF8 
 530      C223D85F 
 530      BEA8
 531 1024 5828444B 		.ascii	"X(DK\203\022\037\235\311G\177\312Gg\361\321G\370\350"
 531      83121F9D 
 531      C9477FCA 
 531      4767F1D1 
ARM GAS  /tmp/ccuqBRmh.s 			page 42


 531      47F8E8
 532 1037 6C3EFAA8 		.ascii	"l>\372\250+:=\037\312t\276$\312\307\312\\\000\355\001"
 532      2B3A3D1F 
 532      CA74BE24 
 532      CAC7CA5C 
 532      00ED01
 533 104a 75C4A827 		.ascii	"u\304\250'RR F\335a\241T\034\025\223~'\224\024\027\206"
 533      52522046 
 533      DD61A154 
 533      1C15937E 
 533      27941417 
 534 105f 831231C0 		.ascii	"\203\0221\300\254\231A\211\251\204\253Y\363\204\347"
 534      AC994189 
 534      A984AB59 
 534      F384E7
 535 106e 8498E893 		.ascii	"\204\230\350\223b\222 \201;\275\370\305l\360\015\355"
 535      62922081 
 535      3BBDF8C5 
 535      6CF00DED 
 536 107e 02350F79 		.ascii	"\0025\017y\343\225J#\005\360\336\363|\211P\030\363J"
 536      E3954A23 
 536      05F0DEF3 
 536      7C895018 
 536      F34A
 537 1090 51F1F918 		.ascii	"Q\361\371\030\030\004\377\361\224\306\012\201\220\331"
 537      1804FFF1 
 537      94C60A81 
 537      90D9
 538 109e 0808592D 		.ascii	"\010\010Y-+Z\260\000^\371\304\371\305R\010\210\263\346"
 538      2B5AB000 
 538      5EF9C4F9 
 538      C5520888 
 538      B3E6
 539 10b0 4991E7FE 		.ascii	"I\221\347\376\275l\002s?\220\212Q1\034\302\240\363$"
 539      BD6C0273 
 539      3F908A51 
 539      311CC2A0 
 539      F324
 540 10c2 295AE68D 		.ascii	")Z\346\215\211a\011\010\240\037\204d\231\017\242\243"
 540      89610908 
 540      A01F8464 
 540      990FA2A3 
 541 10d2 B41C8C6C 		.ascii	"\264\034\214l\035\317\245\322|\260\217'2/,F\275\244"
 541      1DCFA5D2 
 541      7CB08F27 
 541      322F2C46 
 541      BDA4
 542 10e4 2F881406 		.ascii	"/\210\024\006\267\000\004\274+\313\026_\300\220B\354"
 542      B70004BC 
 542      2BCB165F 
 542      C09042EC 
 543 10f4 77208D38 		.ascii	"w \2158\017W\270\3621J\264\226\024\307\300\313c5\361"
 543      0F57B8F2 
 543      314AB496 
 543      14C7C0CB 
 543      6335F1
 544 1107 8B5BBCF3 		.ascii	"\213[\274\363\204b\2518\\\350\003IHT\372\30421\014!"
ARM GAS  /tmp/ccuqBRmh.s 			page 43


 544      8462A938 
 544      5CE80349 
 544      4854FAC4 
 544      32310C21 
 545 111b 54E80548 		.ascii	"T\350\005H\334\003\374!\224\340H\360\220\361\010A!\276"
 545      DC03FC21 
 545      94E048F0 
 545      90F10841 
 545      21BE
 546 112d E0098501 		.ascii	"\340\011\205\001\313\005w\027\310>Z7,\263\311\237\""
 546      CB057717 
 546      C83E5A37 
 546      2CB3C99F 
 546      22
 547 113e E0204667 		.ascii	"\340 Fg\220\320\303\361V\030\012\345\201W\037\012G\302"
 547      90D0C3F1 
 547      56180AE5 
 547      81571F0A 
 547      47C2
 548 1150 E243A2F0 		.ascii	"\342C\242\360\\q\336\314\334\331\2713T\355 l!\022A\275"
 548      5C71DECC 
 548      DCD9B933 
 548      54ED206C 
 548      211241BD 
 549 1164 AC58F17F 		.ascii	"\254X\361\177\200\215\262\301vbH\012\342'\263\3701\231"
 549      808DB2C1 
 549      7662480A 
 549      E227B3F8 
 549      3199
 550 1176 2D58E4E5 		.ascii	"-X\344\345@\265P\224\236/\017\207 \006\312\242\221\027"
 550      40B55094 
 550      9E2F0F87 
 550      2006CAA2 
 550      9117
 551 1188 8A717060 		.ascii	"\212qp`\251\246\253@\222\030\223\260qc\221\362hH\244"
 551      A9A6AB40 
 551      921893B0 
 551      716391F2 
 551      6848A4
 552 119b 8FF806B3 		.ascii	"\217\370\006\263\003X\001{)\177z~n\010\215\016\227\227"
 552      0358017B 
 552      297F7A7E 
 552      6E088D0E 
 552      9797
 553 11ad 94045510 		.ascii	"\224\004U\020,\215\207\204\327D\322\033:\005\363\363"
 553      2C8D8784 
 553      D744D21B 
 553      3A05F3F3 
 554 11bd 1F0E8AF3 		.ascii	"\037\016\212\363\305\020\370c\202\2561&J\345e\332\246"
 554      C510F863 
 554      82AE3126 
 554      4AE565DA 
 554      A6
 555 11ce 19A94DD3 		.ascii	"\031\251M\323i\323wu\275\030Zn\231\020\225r\363'\232"
 555      69D37775 
 555      BD185A6E 
 555      99109572 
ARM GAS  /tmp/ccuqBRmh.s 			page 44


 555      F3279A
 556 11e1 BDFBAE0E 		.ascii	"\275\373\256\016CG0}\242\331\273{\364\252c\343\341H"
 556      4347307D 
 556      A2D9BB7B 
 556      F4AA63E3 
 556      E148
 557 11f3 803A0EA9 		.ascii	"\200:\016\251\340?\200ur\310cP\210\305\304\250\344\307"
 557      E03F8075 
 557      72C86350 
 557      88C5C4A8 
 557      E4C7
 558 1205 736071A9 		.ascii	"s`q\251\310\206\321\364Y\3520\302\325)\241\242\247\351"
 558      C886D1F4 
 558      59EA30C2 
 558      D529A1A2 
 558      A7E9
 559 1217 94FC0B20 		.ascii	"\224\374\013 |\262\244$\022\372\025t\216\224K\337\321"
 559      7CB2A424 
 559      12FA1574 
 559      8E944BDF 
 559      D1
 560 1228 BDF937E2 		.ascii	"\275\3717\342\304\177\016\027\343yS\3370^\327\361\237"
 560      C47F0E17 
 560      E37953DF 
 560      305ED7F1 
 560      9F
 561 1239 A2A23849 		.ascii	"\242\2428I\327\362/\021\241\340\311hTX0\212R\342\036"
 561      D7F22F11 
 561      A1E0C968 
 561      5458308A 
 561      52E21E
 562 124c D9B44AF8 		.ascii	"\331\264J\370\215\245u\265\233\273\260\264l\272\013"
 562      8DA575B5 
 562      9BBBB0B4 
 562      6CBA0B
 563 125b 8A97464E 		.ascii	"\212\227FN\314O\375)\211e\036bc\237$\0028\014\036/3"
 563      CC4FFD29 
 563      89651E62 
 563      639F2402 
 563      380C1E2F 
 564 1270 C928DC21 		.ascii	"\311(\334!\004\263AP\032\237\342\373)\271\321H\201 "
 564      04B34150 
 564      1A9FE2FB 
 564      29B9D148 
 564      8120
 565 1282 09B9296F 		.ascii	"\011\271)or\264\346\375\001\346\017\203% \204\013\002"
 565      72B4E6FD 
 565      01E60F83 
 565      2520840B 
 565      02
 566 1293 308AA505 		.ascii	"0\212\245\005\344!@GD\000\007\035\322\022\314x\334\202"
 566      E4214047 
 566      4400071D 
 566      D212CC78 
 566      DC82
 567 12a5 80AD705A 		.ascii	"\200\255pZ\302\300\274b\251\010L\032`CT\007\364\360"
 567      C2C0BC62 
ARM GAS  /tmp/ccuqBRmh.s 			page 45


 567      A9084C1A 
 567      60435407 
 567      F4F0
 568 12b7 BDCC5681 		.ascii	"\275\314V\201g)\0056F, Q/\240\377\003\010\014\325\026"
 568      67290536 
 568      462C2051 
 568      2FA0FF03 
 568      080CD516 
 569              		.text
 570              		.section	.gnu.lto_.symtab.3ab41d4bef2e5fa1,"",%progbits
 571 0000 74657374 		.ascii	"test_sequence_010\000\000\000\000\000\000\000\000\000"
 571      5F736571 
 571      75656E63 
 571      655F3031 
 571      30000000 
 572 001a 000000FD 		.ascii	"\000\000\000\375\001\000\000test_step\000\000\002\000"
 572      01000074 
 572      6573745F 
 572      73746570 
 572      00000200 
 573 002e 00000000 		.ascii	"\000\000\000\000\000\000\000\000\373\001\000\000_te"
 573      00000000 
 573      FB010000 
 573      5F7465
 574 003d 73745F61 		.ascii	"st_assert\000\000\002\000\000\000\000\000\000\000\000"
 574      73736572 
 574      74000002 
 574      00000000 
 574      00000000 
 575 0051 00AE0100 		.ascii	"\000\256\001\000\000chGuardedPoolAllocTimeout\000\000"
 575      00636847 
 575      75617264 
 575      6564506F 
 575      6F6C416C 
 576 0071 02000000 		.ascii	"\002\000\000\000\000\000\000\000\000\000\266\001\000"
 576      00000000 
 576      0000B601 
 576      00
 577 007e 00636847 		.ascii	"\000chGuardedPoolObjectInit\000\000\002\000\000\000"
 577      75617264 
 577      6564506F 
 577      6F6C4F62 
 577      6A656374 
 578 009c 00000000 		.ascii	"\000\000\000\000\000\000\304\001\000\000chPoolObjec"
 578      0000C401 
 578      00006368 
 578      506F6F6C 
 578      4F626A65 
 579 00b1 74496E69 		.ascii	"tInit\000\000\002\000\000\000\000\000\000\000\000\000"
 579      74000002 
 579      00000000 
 579      00000000 
 579      00
 580 00c2 C9010000 		.ascii	"\311\001\000\000chGuardedPoolFree\000\000\002\000\000"
 580      63684775 
 580      61726465 
 580      64506F6F 
ARM GAS  /tmp/ccuqBRmh.s 			page 46


 580      6C467265 
 581 00dc 00000000 		.ascii	"\000\000\000\000\000\000\000\317\001\000\000chGuard"
 581      000000CF 
 581      01000063 
 581      68477561 
 581      7264
 582 00ee 6564506F 		.ascii	"edPoolLoadArray\000\000\002\000\000\000\000\000\000"
 582      6F6C4C6F 
 582      61644172 
 582      72617900 
 582      00020000 
 583 0106 000000D4 		.ascii	"\000\000\000\324\001\000\000chPoolFree\000\000\002\000"
 583      01000063 
 583      68506F6F 
 583      6C467265 
 583      65000002 
 584 011b 00000000 		.ascii	"\000\000\000\000\000\000\000\000\332\001\000\000chP"
 584      00000000 
 584      DA010000 
 584      636850
 585 012a 6F6F6C41 		.ascii	"oolAlloc\000\000\002\000\000\000\000\000\000\000\000"
 585      6C6C6F63 
 585      00000200 
 585      00000000 
 585      000000
 586 013d 00DF0100 		.ascii	"\000\337\001\000\000chPoolLoadArray\000\000\002\000"
 586      00636850 
 586      6F6F6C4C 
 586      6F616441 
 586      72726179 
 587 0155 00000000 		.ascii	"\000\000\000\000\000\000\000\000\343\001\000\000"
 587      00000000 
 587      E3010000 
 588              		.text
 589              		.section	.gnu.lto_.opts,"",%progbits
 590 0000 272D6D63 		.ascii	"'-mcpu=cortex-m3' '-mno-thumb-interwork' '-mthumb' "
 590      70753D63 
 590      6F727465 
 590      782D6D33 
 590      2720272D 
 591 0033 272D6767 		.ascii	"'-ggdb' '-O2' '-fomit-frame-pointer' '-falign-funct"
 591      64622720 
 591      272D4F32 
 591      2720272D 
 591      666F6D69 
 592 0066 696F6E73 		.ascii	"ions=16' '-ffunction-sections' '-fdata-sections' '-"
 592      3D313627 
 592      20272D66 
 592      66756E63 
 592      74696F6E 
 593 0099 666E6F2D 		.ascii	"fno-common' '-flto'\000"
 593      636F6D6D 
 593      6F6E2720 
 593      272D666C 
 593      746F2700 
 594              		.text
 595              		.cfi_sections	.debug_frame
ARM GAS  /tmp/ccuqBRmh.s 			page 47


 596              		.section	.text.null_provider,"ax",%progbits
 597              		.align	2
 598              		.p2align 4,,15
 599              		.thumb
 600              		.thumb_func
 601              		.type	null_provider, %function
 602              	null_provider:
 603              	.LFB219:
 604              		.file 1 "../../../test/rt/source/test/test_sequence_010.c"
 605              		.loc 1 61 0
 606              		.cfi_startproc
 607              		@ args = 0, pretend = 0, frame = 0
 608              		@ frame_needed = 0, uses_anonymous_args = 0
 609              		@ link register save eliminated.
 610              	.LVL0:
 611              		.loc 1 67 0
 612 0000 0020     		movs	r0, #0
 613              	.LVL1:
 614 0002 7047     		bx	lr
 615              		.cfi_endproc
 616              	.LFE219:
 617              		.size	null_provider, .-null_provider
 618 0004 AFF30080 		.section	.text.test_010_003_execute,"ax",%progbits
 618      AFF30080 
 618      AFF30080 
 619              		.align	2
 620              		.p2align 4,,15
 621              		.thumb
 622              		.thumb_func
 623              		.type	test_010_003_execute, %function
 624              	test_010_003_execute:
 625              	.LFB225:
 626              		.loc 1 261 0
 627              		.cfi_startproc
 628              		@ args = 0, pretend = 0, frame = 0
 629              		@ frame_needed = 0, uses_anonymous_args = 0
 630 0000 08B5     		push	{r3, lr}
 631              		.cfi_def_cfa_offset 8
 632              		.cfi_offset 3, -8
 633              		.cfi_offset 14, -4
 634              		.loc 1 267 0
 635 0002 40F20000 		movw	r0, #:lower16:.LANCHOR0
 636              		.loc 1 265 0
 637 0006 40F20003 		movw	r3, #:lower16:test_step
 638 000a C0F20003 		movt	r3, #:upper16:test_step
 639 000e 0122     		movs	r2, #1
 640              		.loc 1 267 0
 641 0010 6421     		movs	r1, #100
 642 0012 C0F20000 		movt	r0, #:upper16:.LANCHOR0
 643              		.loc 1 265 0
 644 0016 1A60     		str	r2, [r3]
 645              		.loc 1 267 0
 646 0018 FFF7FEFF 		bl	chGuardedPoolAllocTimeout
 647              	.LVL2:
 648              		.loc 1 269 0
 649 001c BDE80840 		pop	{r3, lr}
 650              		.loc 1 267 0
ARM GAS  /tmp/ccuqBRmh.s 			page 48


 651 0020 40F20001 		movw	r1, #:lower16:.LC0
 652 0024 D0F10100 		rsbs	r0, r0, #1
 653 0028 38BF     		it	cc
 654 002a 0020     		movcc	r0, #0
 655 002c C0F20001 		movt	r1, #:upper16:.LC0
 656 0030 FFF7FEBF 		b	_test_assert
 657              	.LVL3:
 658              		.cfi_endproc
 659              	.LFE225:
 660              		.size	test_010_003_execute, .-test_010_003_execute
 661 0034 AFF30080 		.section	.text.test_010_003_setup,"ax",%progbits
 661      AFF30080 
 661      AFF30080 
 662              		.align	2
 663              		.p2align 4,,15
 664              		.thumb
 665              		.thumb_func
 666              		.type	test_010_003_setup, %function
 667              	test_010_003_setup:
 668              	.LFB224:
 669              		.loc 1 257 0
 670              		.cfi_startproc
 671              		@ args = 0, pretend = 0, frame = 0
 672              		@ frame_needed = 0, uses_anonymous_args = 0
 673              		@ link register save eliminated.
 674              		.loc 1 258 0
 675 0000 40F20000 		movw	r0, #:lower16:.LANCHOR0
 676 0004 C0F20000 		movt	r0, #:upper16:.LANCHOR0
 677 0008 0421     		movs	r1, #4
 678 000a FFF7FEBF 		b	chGuardedPoolObjectInit
 679              	.LVL4:
 680              		.cfi_endproc
 681              	.LFE224:
 682              		.size	test_010_003_setup, .-test_010_003_setup
 683 000e 00BF     		.section	.text.test_010_002_setup,"ax",%progbits
 684              		.align	2
 685              		.p2align 4,,15
 686              		.thumb
 687              		.thumb_func
 688              		.type	test_010_002_setup, %function
 689              	test_010_002_setup:
 690              	.LFB222:
 691              		.loc 1 180 0
 692              		.cfi_startproc
 693              		@ args = 0, pretend = 0, frame = 0
 694              		@ frame_needed = 0, uses_anonymous_args = 0
 695              		@ link register save eliminated.
 696              		.loc 1 181 0
 697 0000 40F20000 		movw	r0, #:lower16:.LANCHOR0
 698 0004 C0F20000 		movt	r0, #:upper16:.LANCHOR0
 699 0008 0421     		movs	r1, #4
 700 000a FFF7FEBF 		b	chGuardedPoolObjectInit
 701              	.LVL5:
 702              		.cfi_endproc
 703              	.LFE222:
 704              		.size	test_010_002_setup, .-test_010_002_setup
 705 000e 00BF     		.section	.text.test_010_001_setup,"ax",%progbits
ARM GAS  /tmp/ccuqBRmh.s 			page 49


 706              		.align	2
 707              		.p2align 4,,15
 708              		.thumb
 709              		.thumb_func
 710              		.type	test_010_001_setup, %function
 711              	test_010_001_setup:
 712              	.LFB220:
 713              		.loc 1 92 0
 714              		.cfi_startproc
 715              		@ args = 0, pretend = 0, frame = 0
 716              		@ frame_needed = 0, uses_anonymous_args = 0
 717              		@ link register save eliminated.
 718              		.loc 1 93 0
 719 0000 40F20000 		movw	r0, #:lower16:.LANCHOR1
 720 0004 C0F20000 		movt	r0, #:upper16:.LANCHOR1
 721 0008 0421     		movs	r1, #4
 722 000a 0022     		movs	r2, #0
 723 000c FFF7FEBF 		b	chPoolObjectInit
 724              	.LVL6:
 725              		.cfi_endproc
 726              	.LFE220:
 727              		.size	test_010_001_setup, .-test_010_001_setup
 728              		.section	.text.test_010_002_execute,"ax",%progbits
 729              		.align	2
 730              		.p2align 4,,15
 731              		.thumb
 732              		.thumb_func
 733              		.type	test_010_002_execute, %function
 734              	test_010_002_execute:
 735              	.LFB223:
 736              		.loc 1 184 0
 737              		.cfi_startproc
 738              		@ args = 0, pretend = 0, frame = 0
 739              		@ frame_needed = 0, uses_anonymous_args = 0
 740 0000 F8B5     		push	{r3, r4, r5, r6, r7, lr}
 741              		.cfi_def_cfa_offset 24
 742              		.cfi_offset 3, -24
 743              		.cfi_offset 4, -20
 744              		.cfi_offset 5, -16
 745              		.cfi_offset 6, -12
 746              		.cfi_offset 7, -8
 747              		.cfi_offset 14, -4
 748              		.loc 1 191 0
 749 0002 40F20000 		movw	r0, #:lower16:.LANCHOR0
 750              		.loc 1 189 0
 751 0006 40F20005 		movw	r5, #:lower16:test_step
 752              		.loc 1 191 0
 753 000a 40F20001 		movw	r1, #:lower16:.LANCHOR2
 754              		.loc 1 189 0
 755 000e 0123     		movs	r3, #1
 756 0010 C0F20005 		movt	r5, #:upper16:test_step
 757              		.loc 1 191 0
 758 0014 C0F20000 		movt	r0, #:upper16:.LANCHOR0
 759 0018 C0F20001 		movt	r1, #:upper16:.LANCHOR2
 760 001c 0422     		movs	r2, #4
 761              		.loc 1 189 0
 762 001e 2B60     		str	r3, [r5]
ARM GAS  /tmp/ccuqBRmh.s 			page 50


 763              		.loc 1 191 0
 764 0020 FFF7FEFF 		bl	chGuardedPoolLoadArray
 765              	.LVL7:
 766              		.loc 1 195 0
 767 0024 0223     		movs	r3, #2
 768 0026 2B60     		str	r3, [r5]
 769              	.LVL8:
 770 0028 0424     		movs	r4, #4
 771              	.LVL9:
 772              	.L10:
 773              		.loc 1 198 0
 774 002a 40F20000 		movw	r0, #:lower16:.LANCHOR0
 775 002e 0021     		movs	r1, #0
 776 0030 C0F20000 		movt	r0, #:upper16:.LANCHOR0
 777 0034 FFF7FEFF 		bl	chGuardedPoolAllocTimeout
 778              	.LVL10:
 779 0038 40F20001 		movw	r1, #:lower16:.LC1
 780 003c 0030     		adds	r0, r0, #0
 781 003e 18BF     		it	ne
 782 0040 0120     		movne	r0, #1
 783 0042 C0F20001 		movt	r1, #:upper16:.LC1
 784 0046 FFF7FEFF 		bl	_test_assert
 785              	.LVL11:
 786 004a 0028     		cmp	r0, #0
 787 004c 57D1     		bne	.L6
 788              		.loc 1 197 0
 789 004e 013C     		subs	r4, r4, #1
 790              	.LVL12:
 791 0050 EBD1     		bne	.L10
 792              		.loc 1 204 0
 793 0052 40F20000 		movw	r0, #:lower16:.LANCHOR0
 794 0056 2146     		mov	r1, r4
 795              		.loc 1 202 0
 796 0058 0323     		movs	r3, #3
 797              		.loc 1 204 0
 798 005a C0F20000 		movt	r0, #:upper16:.LANCHOR0
 799              		.loc 1 202 0
 800 005e 2B60     		str	r3, [r5]
 801              		.loc 1 204 0
 802 0060 FFF7FEFF 		bl	chGuardedPoolAllocTimeout
 803              	.LVL13:
 804 0064 40F20001 		movw	r1, #:lower16:.LC0
 805 0068 D0F10100 		rsbs	r0, r0, #1
 806 006c 38BF     		it	cc
 807 006e 0020     		movcc	r0, #0
 808              		.loc 1 202 0
 809 0070 40F20006 		movw	r6, #:lower16:test_step
 810              		.loc 1 204 0
 811 0074 C0F20001 		movt	r1, #:upper16:.LC0
 812              		.loc 1 202 0
 813 0078 C0F20006 		movt	r6, #:upper16:test_step
 814              		.loc 1 204 0
 815 007c FFF7FEFF 		bl	_test_assert
 816              	.LVL14:
 817 0080 0028     		cmp	r0, #0
 818 0082 3CD1     		bne	.L6
 819 0084 40F20004 		movw	r4, #:lower16:.LANCHOR2
ARM GAS  /tmp/ccuqBRmh.s 			page 51


 820              	.LVL15:
 821 0088 C0F20004 		movt	r4, #:upper16:.LANCHOR2
 822              	.LBB4:
 823              	.LBB5:
 824              		.loc 1 209 0
 825 008c 0423     		movs	r3, #4
 826 008e 04F11007 		add	r7, r4, #16
 827 0092 3360     		str	r3, [r6]
 828              	.LVL16:
 829              	.L13:
 830              		.loc 1 212 0
 831 0094 40F20000 		movw	r0, #:lower16:.LANCHOR0
 832 0098 2146     		mov	r1, r4
 833 009a C0F20000 		movt	r0, #:upper16:.LANCHOR0
 834 009e 0434     		adds	r4, r4, #4
 835 00a0 FFF7FEFF 		bl	chGuardedPoolFree
 836              	.LVL17:
 837              		.loc 1 211 0
 838 00a4 BC42     		cmp	r4, r7
 839 00a6 F5D1     		bne	.L13
 840              		.loc 1 217 0
 841 00a8 0523     		movs	r3, #5
 842 00aa 2B60     		str	r3, [r5]
 843              	.LVL18:
 844 00ac 0424     		movs	r4, #4
 845              	.LVL19:
 846              	.L15:
 847              		.loc 1 220 0
 848 00ae 40F20000 		movw	r0, #:lower16:.LANCHOR0
 849 00b2 0021     		movs	r1, #0
 850 00b4 C0F20000 		movt	r0, #:upper16:.LANCHOR0
 851 00b8 FFF7FEFF 		bl	chGuardedPoolAllocTimeout
 852              	.LVL20:
 853 00bc 40F20001 		movw	r1, #:lower16:.LC1
 854 00c0 0030     		adds	r0, r0, #0
 855 00c2 18BF     		it	ne
 856 00c4 0120     		movne	r0, #1
 857 00c6 C0F20001 		movt	r1, #:upper16:.LC1
 858 00ca FFF7FEFF 		bl	_test_assert
 859              	.LVL21:
 860 00ce B0B9     		cbnz	r0, .L6
 861              		.loc 1 219 0
 862 00d0 013C     		subs	r4, r4, #1
 863              	.LVL22:
 864 00d2 ECD1     		bne	.L15
 865              		.loc 1 226 0
 866 00d4 40F20000 		movw	r0, #:lower16:.LANCHOR0
 867 00d8 2146     		mov	r1, r4
 868              		.loc 1 224 0
 869 00da 0623     		movs	r3, #6
 870              		.loc 1 226 0
 871 00dc C0F20000 		movt	r0, #:upper16:.LANCHOR0
 872              		.loc 1 224 0
 873 00e0 2B60     		str	r3, [r5]
 874              		.loc 1 226 0
 875 00e2 FFF7FEFF 		bl	chGuardedPoolAllocTimeout
 876              	.LVL23:
ARM GAS  /tmp/ccuqBRmh.s 			page 52


 877              	.LBE5:
 878              	.LBE4:
 879              		.loc 1 228 0
 880 00e6 BDE8F840 		pop	{r3, r4, r5, r6, r7, lr}
 881              	.LVL24:
 882              	.LBB7:
 883              	.LBB6:
 884              		.loc 1 226 0
 885 00ea 40F20001 		movw	r1, #:lower16:.LC0
 886 00ee D0F10100 		rsbs	r0, r0, #1
 887 00f2 38BF     		it	cc
 888 00f4 0020     		movcc	r0, #0
 889 00f6 C0F20001 		movt	r1, #:upper16:.LC0
 890 00fa FFF7FEBF 		b	_test_assert
 891              	.LVL25:
 892              	.L6:
 893 00fe F8BD     		pop	{r3, r4, r5, r6, r7, pc}
 894              	.LBE6:
 895              	.LBE7:
 896              		.cfi_endproc
 897              	.LFE223:
 898              		.size	test_010_002_execute, .-test_010_002_execute
 899              		.section	.text.test_010_001_execute,"ax",%progbits
 900              		.align	2
 901              		.p2align 4,,15
 902              		.thumb
 903              		.thumb_func
 904              		.type	test_010_001_execute, %function
 905              	test_010_001_execute:
 906              	.LFB221:
 907              		.loc 1 96 0
 908              		.cfi_startproc
 909              		@ args = 0, pretend = 0, frame = 0
 910              		@ frame_needed = 0, uses_anonymous_args = 0
 911 0000 F8B5     		push	{r3, r4, r5, r6, r7, lr}
 912              		.cfi_def_cfa_offset 24
 913              		.cfi_offset 3, -24
 914              		.cfi_offset 4, -20
 915              		.cfi_offset 5, -16
 916              		.cfi_offset 6, -12
 917              		.cfi_offset 7, -8
 918              		.cfi_offset 14, -4
 919              		.loc 1 102 0
 920 0002 40F20000 		movw	r0, #:lower16:.LANCHOR1
 921              		.loc 1 100 0
 922 0006 40F20005 		movw	r5, #:lower16:test_step
 923              		.loc 1 102 0
 924 000a 40F20001 		movw	r1, #:lower16:.LANCHOR2
 925              		.loc 1 100 0
 926 000e 0123     		movs	r3, #1
 927 0010 C0F20005 		movt	r5, #:upper16:test_step
 928              		.loc 1 102 0
 929 0014 C0F20000 		movt	r0, #:upper16:.LANCHOR1
 930 0018 C0F20001 		movt	r1, #:upper16:.LANCHOR2
 931 001c 0422     		movs	r2, #4
 932              		.loc 1 100 0
 933 001e 2B60     		str	r3, [r5]
ARM GAS  /tmp/ccuqBRmh.s 			page 53


 934              		.loc 1 102 0
 935 0020 FFF7FEFF 		bl	chPoolLoadArray
 936              	.LVL26:
 937              		.loc 1 106 0
 938 0024 0223     		movs	r3, #2
 939 0026 2B60     		str	r3, [r5]
 940              	.LVL27:
 941 0028 0424     		movs	r4, #4
 942              	.LVL28:
 943              	.L21:
 944              		.loc 1 109 0
 945 002a 40F20000 		movw	r0, #:lower16:.LANCHOR1
 946 002e C0F20000 		movt	r0, #:upper16:.LANCHOR1
 947 0032 FFF7FEFF 		bl	chPoolAlloc
 948              	.LVL29:
 949 0036 40F20001 		movw	r1, #:lower16:.LC1
 950 003a 0030     		adds	r0, r0, #0
 951 003c 18BF     		it	ne
 952 003e 0120     		movne	r0, #1
 953 0040 C0F20001 		movt	r1, #:upper16:.LC1
 954 0044 FFF7FEFF 		bl	_test_assert
 955              	.LVL30:
 956 0048 0028     		cmp	r0, #0
 957 004a 57D1     		bne	.L17
 958              		.loc 1 108 0
 959 004c 013C     		subs	r4, r4, #1
 960              	.LVL31:
 961 004e ECD1     		bne	.L21
 962              		.loc 1 115 0
 963 0050 40F20000 		movw	r0, #:lower16:.LANCHOR1
 964              		.loc 1 113 0
 965 0054 0323     		movs	r3, #3
 966              		.loc 1 115 0
 967 0056 C0F20000 		movt	r0, #:upper16:.LANCHOR1
 968              		.loc 1 113 0
 969 005a 2B60     		str	r3, [r5]
 970              		.loc 1 115 0
 971 005c FFF7FEFF 		bl	chPoolAlloc
 972              	.LVL32:
 973 0060 40F20001 		movw	r1, #:lower16:.LC0
 974 0064 D0F10100 		rsbs	r0, r0, #1
 975 0068 38BF     		it	cc
 976 006a 0020     		movcc	r0, #0
 977              		.loc 1 113 0
 978 006c 40F20006 		movw	r6, #:lower16:test_step
 979              		.loc 1 115 0
 980 0070 C0F20001 		movt	r1, #:upper16:.LC0
 981              		.loc 1 113 0
 982 0074 C0F20006 		movt	r6, #:upper16:test_step
 983              		.loc 1 115 0
 984 0078 FFF7FEFF 		bl	_test_assert
 985              	.LVL33:
 986 007c 0028     		cmp	r0, #0
 987 007e 3DD1     		bne	.L17
 988 0080 40F20004 		movw	r4, #:lower16:.LANCHOR2
 989              	.LVL34:
 990 0084 C0F20004 		movt	r4, #:upper16:.LANCHOR2
ARM GAS  /tmp/ccuqBRmh.s 			page 54


 991              	.LBB10:
 992              	.LBB11:
 993              		.loc 1 119 0
 994 0088 0423     		movs	r3, #4
 995 008a 04F11007 		add	r7, r4, #16
 996 008e 3360     		str	r3, [r6]
 997              	.LVL35:
 998              	.L24:
 999              		.loc 1 122 0
 1000 0090 40F20000 		movw	r0, #:lower16:.LANCHOR1
 1001 0094 2146     		mov	r1, r4
 1002 0096 C0F20000 		movt	r0, #:upper16:.LANCHOR1
 1003 009a 0434     		adds	r4, r4, #4
 1004 009c FFF7FEFF 		bl	chPoolFree
 1005              	.LVL36:
 1006              		.loc 1 121 0
 1007 00a0 BC42     		cmp	r4, r7
 1008 00a2 F5D1     		bne	.L24
 1009              		.loc 1 126 0
 1010 00a4 0523     		movs	r3, #5
 1011 00a6 2B60     		str	r3, [r5]
 1012              	.LVL37:
 1013 00a8 0424     		movs	r4, #4
 1014              	.LVL38:
 1015              	.L26:
 1016              		.loc 1 129 0
 1017 00aa 40F20000 		movw	r0, #:lower16:.LANCHOR1
 1018 00ae C0F20000 		movt	r0, #:upper16:.LANCHOR1
 1019 00b2 FFF7FEFF 		bl	chPoolAlloc
 1020              	.LVL39:
 1021 00b6 40F20001 		movw	r1, #:lower16:.LC1
 1022 00ba 0030     		adds	r0, r0, #0
 1023 00bc 18BF     		it	ne
 1024 00be 0120     		movne	r0, #1
 1025 00c0 C0F20001 		movt	r1, #:upper16:.LC1
 1026 00c4 FFF7FEFF 		bl	_test_assert
 1027              	.LVL40:
 1028 00c8 C0B9     		cbnz	r0, .L17
 1029              		.loc 1 128 0
 1030 00ca 013C     		subs	r4, r4, #1
 1031              	.LVL41:
 1032 00cc EDD1     		bne	.L26
 1033              		.loc 1 135 0
 1034 00ce 40F20000 		movw	r0, #:lower16:.LANCHOR1
 1035              		.loc 1 133 0
 1036 00d2 0623     		movs	r3, #6
 1037              		.loc 1 135 0
 1038 00d4 C0F20000 		movt	r0, #:upper16:.LANCHOR1
 1039              		.loc 1 133 0
 1040 00d8 2B60     		str	r3, [r5]
 1041              		.loc 1 135 0
 1042 00da FFF7FEFF 		bl	chPoolAlloc
 1043              	.LVL42:
 1044 00de 40F20001 		movw	r1, #:lower16:.LC0
 1045 00e2 D0F10100 		rsbs	r0, r0, #1
 1046 00e6 38BF     		it	cc
 1047 00e8 0020     		movcc	r0, #0
ARM GAS  /tmp/ccuqBRmh.s 			page 55


 1048              		.loc 1 133 0
 1049 00ea 40F20004 		movw	r4, #:lower16:test_step
 1050              	.LVL43:
 1051              		.loc 1 135 0
 1052 00ee C0F20001 		movt	r1, #:upper16:.LC0
 1053              		.loc 1 133 0
 1054 00f2 C0F20004 		movt	r4, #:upper16:test_step
 1055              		.loc 1 135 0
 1056 00f6 FFF7FEFF 		bl	_test_assert
 1057              	.LVL44:
 1058 00fa 00B1     		cbz	r0, .L27
 1059              	.L17:
 1060 00fc F8BD     		pop	{r3, r4, r5, r6, r7, pc}
 1061              	.L27:
 1062              		.loc 1 142 0
 1063 00fe 40F20000 		movw	r0, #:lower16:.LANCHOR1
 1064 0102 40F20002 		movw	r2, #:lower16:null_provider
 1065              		.loc 1 140 0
 1066 0106 0723     		movs	r3, #7
 1067              		.loc 1 142 0
 1068 0108 0421     		movs	r1, #4
 1069 010a C0F20000 		movt	r0, #:upper16:.LANCHOR1
 1070 010e C0F20002 		movt	r2, #:upper16:null_provider
 1071              		.loc 1 140 0
 1072 0112 2360     		str	r3, [r4]
 1073              		.loc 1 142 0
 1074 0114 FFF7FEFF 		bl	chPoolObjectInit
 1075              	.LVL45:
 1076              		.loc 1 143 0
 1077 0118 40F20000 		movw	r0, #:lower16:.LANCHOR1
 1078 011c C0F20000 		movt	r0, #:upper16:.LANCHOR1
 1079 0120 FFF7FEFF 		bl	chPoolAlloc
 1080              	.LVL46:
 1081              	.LBE11:
 1082              	.LBE10:
 1083              		.loc 1 145 0
 1084 0124 BDE8F840 		pop	{r3, r4, r5, r6, r7, lr}
 1085              	.LBB13:
 1086              	.LBB12:
 1087              		.loc 1 143 0
 1088 0128 40F20001 		movw	r1, #:lower16:.LC2
 1089 012c D0F10100 		rsbs	r0, r0, #1
 1090 0130 38BF     		it	cc
 1091 0132 0020     		movcc	r0, #0
 1092 0134 C0F20001 		movt	r1, #:upper16:.LC2
 1093 0138 FFF7FEBF 		b	_test_assert
 1094              	.LVL47:
 1095              	.LBE12:
 1096              	.LBE13:
 1097              		.cfi_endproc
 1098              	.LFE221:
 1099              		.size	test_010_001_execute, .-test_010_001_execute
 1100              		.global	test_sequence_010
 1101 013c AFF30080 		.section	.data.gmp1,"aw",%progbits
 1102              		.align	2
 1103              		.set	.LANCHOR0,. + 0
 1104              		.type	gmp1, %object
ARM GAS  /tmp/ccuqBRmh.s 			page 56


 1105              		.size	gmp1, 24
 1106              	gmp1:
 1107 0000 00000000 		.word	gmp1
 1108 0004 00000000 		.word	gmp1
 1109 0008 00000000 		.word	0
 1110 000c 00000000 		.word	0
 1111 0010 04000000 		.word	4
 1112 0014 00000000 		.word	0
 1113              		.section	.rodata.test_sequence_010,"a",%progbits
 1114              		.align	2
 1115              		.type	test_sequence_010, %object
 1116              		.size	test_sequence_010, 16
 1117              	test_sequence_010:
 1118 0000 00000000 		.word	test_010_001
 1119 0004 00000000 		.word	test_010_002
 1120 0008 00000000 		.word	test_010_003
 1121 000c 00000000 		.word	0
 1122              		.section	.bss.objects,"aw",%nobits
 1123              		.align	2
 1124              		.set	.LANCHOR2,. + 0
 1125              		.type	objects, %object
 1126              		.size	objects, 16
 1127              	objects:
 1128 0000 00000000 		.space	16
 1128      00000000 
 1128      00000000 
 1128      00000000 
 1129              		.section	.rodata.str1.4,"aMS",%progbits,1
 1130              		.align	2
 1131              	.LC0:
 1132 0000 6C697374 		.ascii	"list not empty\000"
 1132      206E6F74 
 1132      20656D70 
 1132      747900
 1133 000f 00       		.space	1
 1134              	.LC1:
 1135 0010 6C697374 		.ascii	"list empty\000"
 1135      20656D70 
 1135      747900
 1136 001b 00       		.space	1
 1137              	.LC2:
 1138 001c 70726F76 		.ascii	"provider returned memory\000"
 1138      69646572 
 1138      20726574 
 1138      75726E65 
 1138      64206D65 
 1139 0035 000000   		.space	3
 1140              	.LC3:
 1141 0038 47756172 		.ascii	"Guarded Memory Pools timeout\000"
 1141      64656420 
 1141      4D656D6F 
 1141      72792050 
 1141      6F6F6C73 
 1142 0055 000000   		.space	3
 1143              	.LC4:
 1144 0058 4C6F6164 		.ascii	"Loading and emptying a guarded memory pool without "
 1144      696E6720 
ARM GAS  /tmp/ccuqBRmh.s 			page 57


 1144      616E6420 
 1144      656D7074 
 1144      79696E67 
 1145 008b 77616974 		.ascii	"waiting\000"
 1145      696E6700 
 1146 0093 00       		.space	1
 1147              	.LC5:
 1148 0094 4C6F6164 		.ascii	"Loading and emptying a memory pool\000"
 1148      696E6720 
 1148      616E6420 
 1148      656D7074 
 1148      79696E67 
 1149 00b7 00       		.section	.rodata.test_010_001,"a",%progbits
 1150              		.align	2
 1151              		.type	test_010_001, %object
 1152              		.size	test_010_001, 16
 1153              	test_010_001:
 1154 0000 94000000 		.word	.LC5
 1155 0004 00000000 		.word	test_010_001_setup
 1156 0008 00000000 		.word	0
 1157 000c 00000000 		.word	test_010_001_execute
 1158              		.section	.rodata.test_010_002,"a",%progbits
 1159              		.align	2
 1160              		.type	test_010_002, %object
 1161              		.size	test_010_002, 16
 1162              	test_010_002:
 1163 0000 58000000 		.word	.LC4
 1164 0004 00000000 		.word	test_010_002_setup
 1165 0008 00000000 		.word	0
 1166 000c 00000000 		.word	test_010_002_execute
 1167              		.section	.rodata.test_010_003,"a",%progbits
 1168              		.align	2
 1169              		.type	test_010_003, %object
 1170              		.size	test_010_003, 16
 1171              	test_010_003:
 1172 0000 38000000 		.word	.LC3
 1173 0004 00000000 		.word	test_010_003_setup
 1174 0008 00000000 		.word	0
 1175 000c 00000000 		.word	test_010_003_execute
 1176              		.section	.data.mp1,"aw",%progbits
 1177              		.align	2
 1178              		.set	.LANCHOR1,. + 0
 1179              		.type	mp1, %object
 1180              		.size	mp1, 12
 1181              	mp1:
 1182 0000 00000000 		.word	0
 1183 0004 04000000 		.word	4
 1184 0008 00000000 		.word	0
 1185              		.text
 1186              	.Letext0:
 1187              		.file 2 "/usr/lib/gcc/arm-none-eabi/4.8.2/include/stddef.h"
 1188              		.file 3 "/usr/include/newlib/machine/_default_types.h"
 1189              		.file 4 "/usr/include/newlib/stdint.h"
 1190              		.file 5 "../../../os/common/ports/ARMCMx/compilers/GCC/chtypes.h"
 1191              		.file 6 "../../../os/rt/include/chsystypes.h"
 1192              		.file 7 "../../../os/rt/include/chschd.h"
 1193              		.file 8 "../../../os/common/ports/ARMCMx/chcore.h"
ARM GAS  /tmp/ccuqBRmh.s 			page 58


 1194              		.file 9 "../../../os/common/ports/ARMCMx/chcore_v7m.h"
 1195              		.file 10 "../../../os/rt/include/chsem.h"
 1196              		.file 11 "../../../os/rt/include/chmtx.h"
 1197              		.file 12 "../../../os/common/oslib/include/chmemcore.h"
 1198              		.file 13 "../../../os/common/oslib/include/chmempools.h"
 1199              		.file 14 "../../../test/lib/ch_test.h"
 1200              		.file 15 "../../../os/common/ext/CMSIS/include/core_cm3.h"