ARM GAS  /tmp/cccQfvUh.s 			page 1


   1              		.syntax unified
   2              		.cpu cortex-m3
   3              		.fpu softvfp
   4              		.eabi_attribute 20, 1
   5              		.eabi_attribute 21, 1
   6              		.eabi_attribute 23, 3
   7              		.eabi_attribute 24, 1
   8              		.eabi_attribute 25, 1
   9              		.eabi_attribute 26, 1
  10              		.eabi_attribute 30, 2
  11              		.eabi_attribute 34, 1
  12              		.eabi_attribute 18, 4
  13              		.thumb
  14              		.file	"test_sequence_004.c"
  15              		.text
  16              	.Ltext0:
  17              		.section	.gnu.lto_.jmpfuncs.22bedfcc54647f3d,"",%progbits
  18 0000 789C6362 		.ascii	"x\234cb`b\300\006L\031\031\030,\2014\013\003\003\023"
  18      6062C006 
  18      4C191918 
  18      2C81340B 
  18      030313
  19 0013 2390CDC0 		.ascii	"#\220\315\300\304T\315\360\253\241\243A \223\221!\227"
  19      C454CDF0 
  19      ABA1A341 
  19      20939121 
  19      97
  20 0024 11AC8629 		.ascii	"\021\254\206)\2021\023,\307\214[\232\351\005;X\036\310"
  20      8231132C 
  20      C78C5B9A 
  20      E9053B58 
  20      1EC8
  21 0036 05299801 		.ascii	"\005)\230\001R\300,\307\3008\267a\206C&#\013D!\262$"
  21      52C02CC7 
  21      C038B761 
  21      86432623 
  21      0B4421B2 
  22 004b AB1C8328 		.ascii	"\253\034\203(D\222\015S\222]\216A\036\"\311\001\226"
  22      44920D53 
  22      925D8E41 
  22      1E22C901 
  22      96
  23 005c 6425208F 		.ascii	"d% \217\337d\\N\376\377\237\031b4\210\307y\202\011\356"
  23      DF645C4E 
  23      FEFF9F19 
  23      623488C7 
  23      798209EE 
  24 0070 7AB05AAE 		.ascii	"z\260Z\256d\250Z\270\301\334r\014\346\020\203y \201"
  24      64A85AB8 
  24      C1DC720C 
  24      E6108379 
  24      2081
  25 0082 279C5F5A 		.ascii	"'\234_Z\242\220\237\246P\222\231\233\252P\236\231\227"
  25      A2909FA6 
  25      5092999B 
  25      AA509E99 
  25      97
ARM GAS  /tmp/cccQfvUh.s 			page 2


  26 0093 925FCEC0 		.ascii	"\222_\316\300\231\227_\242\340\027\352\343\303 ^^\224"
  26      99975FA2 
  26      E017EAE3 
  26      C3205E5E 
  26      94
  27 00a4 9F97AE50 		.ascii	"\237\227\256P\224ZRZ\224\227\232\242\220\233Z\\\234"
  27      945A525A 
  27      94979AA2 
  27      909B5A5C 
  27      9C
  28 00b5 989ECAC0 		.ascii	"\230\236\312\300\344\310\000\000\234\273N\331"
  28      E4C80000 
  28      9CBB4ED9 
  29              		.text
  30              		.section	.gnu.lto_.inline.22bedfcc54647f3d,"",%progbits
  31 0000 789C6362 		.ascii	"x\234cb`b\300\0066Ai\026 bfd`b\272\300\317\300\266@"
  31      6062C006 
  31      36416916 
  31      20626664 
  31      6062BAC0 
  32 0018 1EAC9889 		.ascii	"\036\254\230\211\201G\015(\304\332\241\316\300\336\241"
  32      81470D28 
  32      C4DAA1CE 
  32      C0DEA1
  33 0027 0E11E266 		.ascii	"\016\021\342f``\234\340\307\310\005d3\363\200\22400"
  33      60609CE0 
  33      C7C80564 
  33      33F38094 
  33      3030
  34 0039 33285A00 		.ascii	"3(Z\000UI]\233\316\010\327\011\226g\341\005\313\263"
  34      55495D9B 
  34      CE08D709 
  34      9667E105 
  34      CBB3
  35 004b F201D54C 		.ascii	"\362\001\325L\360\233\340\007\021\000\322`\215@\232"
  35      F09BE007 
  35      1100D260 
  35      8D409A
  36 005a 9541ED00 		.ascii	"\225A\355\000\003P\253\334\275\263\330\264\"\351\200"
  36      0350ABDC 
  36      BDB3D8B4 
  36      22E980
  37 0069 1AC52E00 		.ascii	"\032\305.\0004\016\310\005\"\006\006\000hZ\022\355"
  37      340EC805 
  37      22060600 
  37      685A12ED 
  38              		.text
  39              		.section	.gnu.lto_.pureconst.22bedfcc54647f3d,"",%progbits
  40 0000 789C6362 		.ascii	"x\234cb`b\340d\200\000\026\006\011&+f+V+\000\003\366"
  40      6062E064 
  40      80001606 
  40      09262B66 
  40      2B562B00 
  41 0016 00E2     		.ascii	"\000\342"
  42              		.text
  43              		.section	.gnu.lto_test_004_001_setup.22bedfcc54647f3d,"",%progbits
  44 0000 789C6362 		.ascii	"x\234cb`b@\007\222@<\001\210\215\201\230\221\231\201"
ARM GAS  /tmp/cccQfvUh.s 			page 3


  44      60624007 
  44      92403C01 
  44      888D8198 
  44      919981
  45 0013 9169C239 		.ascii	"\221i\3029\006\206F\016&FF\020\203\201\221\241\236\211"
  45      0686460E 
  45      26464610 
  45      838191A1 
  45      9E89
  46 0025 B13E9211 		.ascii	"\261>\222\021\254v=\323\201\007\377\377\257\333\322"
  46      AC763DD3 
  46      8107FFFF 
  46      AFDBD2
  47 0034 B6FC0CE3 		.ascii	"\266\374\014\343L&f\240\010+CKC\303\004\005\006\206"
  47      4C2666A0 
  47      082B434B 
  47      43C30405 
  47      0686
  48 0046 64B08A10 		.ascii	"d\260\212\020 \011\322\026\312\310\004\242\231\3172"
  48      2009D216 
  48      CAC804A2 
  48      99CF32
  49 0055 34EDF8F1 		.ascii	"4\355\370\361\314\"\221q!#+\303l\206Y\215\015\015\002"
  49      CC229171 
  49      21232BC3 
  49      6C86598D 
  49      0D0D02
  50 0068 998C0CD5 		.ascii	"\231\214\014\325\014\277\032:@,\306\\\260\266\010F "
  50      0CBF1A3A 
  50      402CC65C 
  50      B0B60846 
  50      20
  51 0079 9301C602 		.ascii	"\223\001\306\0023.24>\230\243\014\321\010\003!@E@SA"
  51      332E3234 
  51      3E98A30C 
  51      D1080321 
  51      40454053 
  52 008e 7E30D4D3 		.ascii	"~0\324\323\323\207\240\222\324\342\022\375\242\022\375"
  52      D387A092 
  52      D4E212FD 
  52      A212FD
  53 009d E2FCD2A2 		.ascii	"\342\374\322\242\344T\010\027D\304\027\247\026\226\246"
  53      E4540817 
  53      44C417A7 
  53      1696A6
  54 00ac E625A7C6 		.ascii	"\346%\247\306\033\030\230\350%3\000\000\306\2027\323"
  54      1B1898E8 
  54      25330000 
  54      C68237D3 
  55              		.text
  56              		.section	.gnu.lto_thread1.22bedfcc54647f3d,"",%progbits
  57 0000 789C8552 		.ascii	"x\234\205RMh\023A\024~o6\177\032+\275*\222\206\202\340"
  57      4D681341 
  57      147E6F36 
  57      7F1A2BBD 
  57      2A928682 
  58 0015 41332914 		.ascii	"A3)\024\274I\245'\017\2714U\364\024\266\343\320\014"
ARM GAS  /tmp/cccQfvUh.s 			page 4


  58      BC49A527 
  58      0FB93455 
  58      F414B6E3 
  58      D00C
  59 0027 76B37537 		.ascii	"v\263u7)-=t\233\264\240\267R\020\304R\244\212BQT\360"
  59      292D3D74 
  59      9BB4A0B7 
  59      5210C452 
  59      A48A4251 
  60 003d 223DC55B 		.ascii	"\"=\305[\2134\"E\320\223\301\223\222\2237\361\022\337"
  60      8B342245 
  60      D093C193 
  60      929337F1 
  60      12DF
  61 004f EC26DBA6 		.ascii	"\354&\333\246-:\354\314\274y\357}\357{\363\3152`px\234"
  61      2D3AECCC 
  61      BC79EF7D 
  61      EF7BF3CD 
  61      32607078 
  62 0064 A1B94DEE 		.ascii	"\241\271M\356\317\264\243\001\310V\032\000\213\011\206"
  62      CFB4A301 
  62      C8561A00 
  62      8B0986
  63 0073 A80D4058 		.ascii	"\250\015@X`\270p\013\375\334\327\254\336l\267_\275{"
  63      60B8700B 
  63      FDDCD7AC 
  63      DE6CB75F 
  63      BD7B
  64 0085 F6FD0E26 		.ascii	"\366\375\016&ch!\304A\371\241(,y\336J\032@\370\307q"
  64      636821C4 
  64      41F9A128 
  64      2C79DE4A 
  64      1A40F8C7 
  65 009a 5A35FC3A 		.ascii	"Z5\374:2\275\033;PM\000\014\302\206\347\2556\277n\356"
  65      32BD1B3B 
  65      504D000C 
  65      C286E7AD 
  65      36BF6EEE 
  66 00ae BEC7D59A 		.ascii	"\276\307\325\232\267\355-\325\333m\034PHY\023\250\241"
  66      B7ED2DD5 
  66      DB6D1C50 
  66      485913A8 
  66      A1
  67 00bf 3751214B 		.ascii	"7Q!K\373\233\021\351\355S\373\220\010\240\001\325__"
  67      FB9B11E9 
  67      ED53FB90 
  67      08A001D5 
  67      5F5F
  68 00d1 6ACFCF86 		.ascii	"j\317\317\206\224\201Q\177\273\267f\\0\361\011\016\206"
  68      9481517F 
  68      BBB7665C 
  68      30F1090E 
  68      86
  69 00e2 FDD45B0F 		.ascii	"\375\324[\017~'\317\205\247\373\034\300\304\015\214"
  69      7E27CF85 
  69      A7FB1CC0 
  69      C40D8C
ARM GAS  /tmp/cccQfvUh.s 			page 5


  70 00f1 1295A663 		.ascii	"\022\225\246c4\015\360/\211\260E&\311`\004\022\245\340"
  70      340DF02F 
  70      89B04526 
  70      C9600412 
  70      A5E0
  71 0103 03AE7B0F 		.ascii	"\003\256{\017G\024Fz\310\367\343\215N<\032\264\367\021"
  71      4714467A 
  71      C8F7E38D 
  71      4E3C1AB4 
  71      F711
  72 0115 969BDFAE 		.ascii	"\226\233\337\256\004\325\001\346\341\217w\317\353W\030"
  72      04D501E6 
  72      E18F77CF 
  72      EB5718
  73 0124 134101DF 		.ascii	"\023A\001\337\223P\030\267\020;I\272&\211\242\360\204"
  73      935018B7 
  73      103B49BA 
  73      2689A2F0 
  73      84
  74 0135 46D79A3F 		.ascii	"F\327\232?n\034A\237\024\235\362\012\223\000\275\"\376"
  74      6E1C419F 
  74      149DF20A 
  74      9300BD22 
  74      FE
  75 0146 6C1C16D1 		.ascii	"l\034\026\321\304\247\376\225\376\253\"\374K\305\326"
  75      C4A7FE95 
  75      FEAB22FC 
  75      4BC5D6
  76 0155 BA56F14D 		.ascii	"\272V\361M\257\212\217\373R\007\336\270\343\336\031"
  76      AF8A8FFB 
  76      5207DEB8 
  76      E3DE19
  77 0164 DE9733A6 		.ascii	"\336\2273\246k\012\214\037\243\250\211\233d\204\304"
  77      6B0A8C1F 
  77      A3A8899B 
  77      6484C4
  78 0173 5D054D7C 		.ascii	"]\005M|\211\251\240\251]\250n-\277\330cA\261I\214\257"
  78      89A9A0A9 
  78      5DA86E2D 
  78      BFD86341 
  78      B1498CAF 
  79 0187 C1234A27 		.ascii	"\301#J'+\246a\247\240+q\344\210B}BkH\203P\012O\003|"
  79      2BA661A7 
  79      A02B71E4 
  79      88427D42 
  79      6B488350 
  80 019f 82C5668B 		.ascii	"\202\305f\213u\363\2021N\314\364\027j\332\241L\206\007"
  80      75F38231 
  80      4ECCF417 
  80      6ADAA14C 
  80      8607
  81 01b1 5F59BA65 		.ascii	"_Y\272e\356\224\271kW\034!\203\243^\012\256\274[\221"
  81      EE94B96B 
  81      571C2183 
  81      A35E0AAE 
  81      BC5B91
  82 01c4 25210BD9 		.ascii	"%!\013\331\354pF\300\245\020a\273\\\330\226e\227\370"
ARM GAS  /tmp/cccQfvUh.s 			page 6


  82      EC7046C0 
  82      A51061BB 
  82      5CD89665 
  82      97F8
  83 01d6 B4ED945D 		.ascii	"\264\355\224]~u,7\232\233\345\242(lG\026f.[\231\"Dg"
  83      7E752C37 
  83      9A9BE5A2 
  83      286C4716 
  83      662E5B99 
  84 01ed CCA98A1C 		.ascii	"\314\251\212\034:\006#g\313|4\227\277\226\347\252$\246"
  84      3A062367 
  84      CB7C3497 
  84      BF96E7AA 
  84      24A6
  85 01ff 2AB72517 		.ascii	"*\267%\027\226\253\334\302\244\020\204\0338\210\240"
  85      96ABDCC2 
  85      A410841B 
  85      3888A0
  86 020e AEC29CA2 		.ascii	"\256\302\234\242;\347R\274?\227\037KO\230\256\234v\324"
  86      3BE752BC 
  86      3F971F4B 
  86      4F98AE9C 
  86      76D4
  87 0220 C5F4F92C 		.ascii	"\305\364\371,0\007\342\226\264lg\016\376\002\011\"\345"
  87      3007E296 
  87      B46C670E 
  87      FE020922 
  87      E5
  88 0231 C4       		.ascii	"\304"
  89              		.text
  90              		.section	.gnu.lto_test_004_001_execute.part.0.22bedfcc54647f3d,"",%progbits
  91 0000 789C8D55 		.ascii	"x\234\215U]h\034U\024>gfg\177\22346\255Mb\335\216\005"
  91      5D681C55 
  91      143E6766 
  91      677F9334 
  91      36AD4D62 
  92 0017 9FD44C62 		.ascii	"\237\324Lb\013\372\"(\365%\220\365\241I@\237\302t2n"
  92      0BFA2228 
  92      F52590F5 
  92      A149409F 
  92      C274326E 
  93 002b 06B23BED 		.ascii	"\006\262;\355\314n\322\342C\356fc\211XJ\010\242\245"
  93      CC6ED2E2 
  93      43EE6663 
  93      89584A08 
  93      A2A5
  94 003d 259850AA 		.ascii	"%\230P\252V\252\205 \330\006\305E1\030\245\011}\320"
  94      56AA8520 
  94      D806C545 
  94      3118A509 
  94      7DD0
  95 004f 874A6115 		.ascii	"\207Ja\0254\021\253\255\2124Jq=w\376v\263D\223\273;"
  95      3411ABAD 
  95      8A344A71 
  95      3D77FE76 
  95      B34493BB 
  96 0064 77EEB9E7 		.ascii	"w\356\271\347\347~\347;\347\356\012 @\375\350\246g>"
ARM GAS  /tmp/cccQfvUh.s 			page 7


  96      E77EE73B 
  96      E7EE0A20 
  96      40FDE8A6 
  96      673E
  97 0076 0C308300 		.ascii	"\0140\203\000\030\001\014O-\323\"\214\202\363\026\004"
  97      18010C4F 
  97      2DD3228C 
  97      82F31604 
  98 0086 E91B0558 		.ascii	"\351\033\005X\\\\H\002k\020=)\344H!\224\270M!*!\362"
  98      5C5C4802 
  98      6B103D29 
  98      E4482194 
  98      B84D212A 
  99 009c 05208C85 		.ascii	"\005 \214\205\0051$\341\330\013\310CK\373a\216\261\263"
  99      053124E1 
  99      D80BC843 
  99      4BFB618E 
  99      B1B3
 100 00ae E5CF57D7 		.ascii	"\345\317W\327\360\314k\245\361Yv\257RA4\270RCx\236V"
 100      F0CC6BA5 
 100      F15976AF 
 100      524134B8 
 100      5243789E 
 101 00c3 D8ECBC84 		.ascii	"\330\354\274\204:\\\256#\233\177\207\305\034'\321@\261"
 101      3A5CAE23 
 101      9B7F87C5 
 101      1C27D140 
 101      B1
 102 00d4 EA23BB3E 		.ascii	"\352#\273>\241M|\246J\327\027O\265\261\331\361)\366"
 102      A14D7CA6 
 102      4AD7174F 
 102      B5B1D9F1 
 102      29F6
 103 00e6 0F9D6560 		.ascii	"\017\235e`H\200\203\270\035\317\351\322'\213\247[\331"
 103      488083B8 
 103      1DCFE9D2 
 103      278BA75B 
 103      D9
 104 00f7 6CC1F724 		.ascii	"l\301\367$\256\236\304\355\340\234.\335]\374r\016\331"
 104      AE9EC4ED 
 104      E09C2EDD 
 104      5DFC720E 
 104      D9
 105 0108 342BDCA9 		.ascii	"4+\334\251Tv\030(\011\360\324Vg^\026X\271R\371\353n"
 105      54761828 
 105      09F0D456 
 105      675E1658 
 105      B952F9EB 
 106 011d 74378281 		.ascii	"t7\202\201a\201&\020A\305\363\270\037B$D$>\205i\212"
 106      61812610 
 106      41C5F3B8 
 106      1F422444 
 106      243E8569 
 107 0132 4668FB6D 		.ascii	"Fh\373m\332\216r!\306\2478\2378\3010A)\313*^ \265\353"
 107      DA8E7221 
 107      C6A7389F 
 107      38C13041 
ARM GAS  /tmp/cccQfvUh.s 			page 8


 107      29CB2A5E 
 108 0149 EBB044A3 		.ascii	"\353\260D\243\217f^\224>\014\363\267\330\217\202\363"
 108      8F665E94 
 108      3E0CF3B7 
 108      D88F82F3 
 109 0159 5E8162F9 		.ascii	"^\201b\371\343\317\022*^D\211\314^\202\277\331$k60\246"
 109      E3CF122A 
 109      5E4489CC 
 109      5E82BFD9 
 109      246B3630 
 110 016e A1E34791 		.ascii	"\241\343G\221\343\000\327`\374\312\372\357\255\256\325"
 110      E300D760 
 110      FCCAFAEF 
 110      ADAED5
 111 017d 39385B60 		.ascii	"98[`\334&\021X7d\034c\236X\003\370\253\004'g\011\306"
 111      DC261158 
 111      37641C63 
 111      9E5803F8 
 111      AB042767 
 112 0193 A33E2FE5 		.ascii	"\243>/\3457N~\335vi\236\261WJl\275\202\274\212\215\002"
 112      374E7EDD 
 112      76699EB1 
 112      574A6CBD 
 112      82BC8A8D 
 113 01a8 1CDB8A1A 		.ascii	"\034\333\212\032\276\327(\323b\031\306\177\273]|\253"
 113      BED728D3 
 113      6219C67F 
 113      BB5D7CAB 
 114 01b8 DD4BD3CF 		.ascii	"\335K\323\317\267t\371\324BKAR\361='_os\365\365\365"
 114      B774F9D4 
 114      424B4152 
 114      F13D275F 
 114      6F73F5F5 
 115 01cd C4DE40FA 		.ascii	"\304\336@\372\352\307\357\250a\\\374\032\245\256Q\377"
 115      EAC7EFA8 
 115      615CFC1A 
 115      A5AE51FF 
 116 01dd 68E81C84 		.ascii	"h\350\034\204\364Y\"\221\320\212\356}H\302\015\234a"
 116      F4592291 
 116      D08AEE7D 
 116      48C20D9C 
 116      61
 117 01ee 679E36B0 		.ascii	"g\2366\260i\303\371U\375MO\277\303Ex\015>\275\361\321"
 117      69C3F955 
 117      FD4D4FBF 
 117      C345780D 
 117      3EBDF1D1 
 118 0202 1F3F5D9C 		.ascii	"\037?]\234\306zh\253\027\276\025\305@\372\341\322Lc"
 118      C67A68AB 
 118      17BE15C5 
 118      40FAE1D2 
 118      4C63
 119 0214 20BCBA3A 		.ascii	" \274\272:W\003\211?az\"<^\032\361\021x\227M\024\312"
 119      5703893F 
 119      617A223C 
 119      5E1AF111 
 119      78974D14 
ARM GAS  /tmp/cccQfvUh.s 			page 9


 120 0229 E75696A7 		.ascii	"\347V\226\2471d`3'}\212S}\037\207\263\223\321\0109\310"
 120      31646033 
 120      277D8A53 
 120      7D1F87B3 
 120      93D10839 
 121 023e 763A088E 		.ascii	"v:\010\216p\376U\274\352\024\221\227\353\327b\223\212"
 121      70FE55BC 
 121      EA149197 
 121      EBD76293 
 121      8A
 122 024f 57484CA3 		.ascii	"WHL\243\220\346\245\244B\334\371\376\352\220{\236\333"
 122      90E6A5A4 
 122      42DCF9FE 
 122      EA907B9E 
 122      DB
 123 0260 217CACC0 		.ascii	"!|\254\300\313\345\225\363aw;\215bP\322\026\315i)\277"
 123      CBE595F3 
 123      61773B8D 
 123      6250D216 
 123      CD6929BF 
 124 0274 25D89881 		.ascii	"%\330\230\201\2732\210^\243\360\223#k\021\352\216\335"
 124      BB32885E 
 124      A3F09323 
 124      6B11EA8E 
 124      DD
 125 0285 4EE8529B 		.ascii	"N\350R\233\037\2307]\232\337\316\272\312\377R_y\025"
 125      1F98375D 
 125      9ADFCEBA 
 125      CAFF525F 
 125      7915
 126 0297 DF770AB1 		.ascii	"\337w\012\261e\351\341\177K\177\323)}ic\351\337lL\006"
 126      65E9E17F 
 126      4B7FD329 
 126      7D6963E9 
 126      DF6C4C06 
 127 02ab B7A14AF8 		.ascii	"\267\241J\370\255\202T%<\006\316\335\210o\322\006*~"
 127      AD825425 
 127      3C06CEDD 
 127      886FD206 
 127      2A7E
 128 02bd 408BE06C 		.ascii	"@\213\340l\277\354*~\210I\277\340\305\311\342\352i\311"
 128      BFEC2A7E 
 128      8849BFE0 
 128      C5C9E2EA 
 128      69C9
 129 02cf A72D442C 		.ascii	"\247-D,s{X\213xZ\321WI\276\352\347\210Cw@u8\240\372"
 129      737B588B 
 129      785AD157 
 129      49BEEAE7 
 129      88437740 
 130 02e7 7E0D13E0 		.ascii	"~\015\023\340\326\235\002I|\277\325\300=IX\023\3346"
 130      D69D0249 
 130      7CBFD5C0 
 130      3D495813 
 130      DC36
 131 02f9 6BF55013 		.ascii	"k\365P\023\335m\000_\300\304-\014\242\360\330\321Z\316"
 131      DD6D005F 
ARM GAS  /tmp/cccQfvUh.s 			page 10


 131      C0C42D0C 
 131      A2F0D8D1 
 131      5ACE
 132 030b FA09FB42 		.ascii	"\372\011\373BR\244\036X\232\034\365\315\"\301\245m\017"
 132      52A41E58 
 132      9A1CF5CD 
 132      22C1A56D 
 132      0F
 133 031c 8EE5E5F4 		.ascii	"\216\345\345\3648\336\005A^+\001\362(\271qe\273\333"
 133      38DE0541 
 133      5E2B01F2 
 133      28B97165 
 133      BBDB
 134 032e 2741B2B1 		.ascii	"'A\262\261 \302\003\232w\335\311\330C\2757\011\367<"
 134      20C2039A 
 134      77DDC9D8 
 134      43BD3709 
 134      F73C
 135 0340 D40F5651 		.ascii	"\324\017VQ'\353P\3076A\035\202\333\011\221\003(\376"
 135      27EB50C7 
 135      36411D82 
 135      DB099103 
 135      28FE
 136 0352 D9E4DBC5 		.ascii	"\331\344\333\305\251\223\270\351\276\212?p\254\006K"
 136      A993B8E9 
 136      BE8A3F70 
 136      AC064B
 137 0361 CDEF550D 		.ascii	"\315\357U\015\224\270\007EN\302I\321\205\362\320\006"
 137      94B80745 
 137      4EC249D1 
 137      85F2D006 
 138 0371 28EE7992 		.ascii	"(\356y\222\363\373w\235\376\257\252(\372\210\021\332"
 138      F3FB779D 
 138      FEAFAA28 
 138      FA8811DA 
 139 0381 E5E5EEEA 		.ascii	"\345\345\356\352\350P\334oN\267s\212\225Sl3oi\272+\362"
 139      E850DC6F 
 139      4EB7738A 
 139      95536C33 
 139      6F69BA2B 
 140 0396 69C0D68F 		.ascii	"i\300\326\217\345\365\254\246\017tv\036\354\320@\314"
 140      E5F5ACA6 
 140      0F74761E 
 140      ECD040CC 
 141 03a6 D8E950CE 		.ascii	"\330\351P\316\310\350R\316\352\352\350|,\010`\332\212"
 141      C8E852CE 
 141      EAEAE87C 
 141      2C0860DA 
 141      8A
 142 03b7 66663266 		.ascii	"ff2fV9jZ9[y\346p\352P\352\270\242\015i\246\245\017\214"
 142      56396A5A 
 142      395B79E6 
 142      70EA50EA 
 142      B8A20D69 
 143 03cf 3C91E918 		.ascii	"<\221\351\030\002iD\035\316\353]\233\370\350\307s\312"
 143      0269441D 
 143      CEEB5D9B 
ARM GAS  /tmp/cccQfvUh.s 			page 11


 143      F8E8C773 
 143      CA
 144 03e0 A1546F77 		.ascii	"\241Tow\257bd\265\341\374\240\256h\031\333\260\007\322"
 144      AF6264B5 
 144      E1FCA0AE 
 144      6819DBB0 
 144      07D2
 145 03f2 9A467EFB 		.ascii	"\232F~\373j=\010d`3d\237\260I\337\234\352=,\037Qm\375"
 145      6A3D0864 
 145      6033649F 
 145      B049DF9C 
 145      EA3D2C1F 
 146 0409 A8653C2A 		.ascii	"\250e<*?\334\011\202\005\221\214\2361\255\023p\240\326"
 146      3FDC0982 
 146      05918C9E 
 146      31AD1370 
 146      A0D6
 147 041b 77481DF6 		.ascii	"wH\035\366\340\365\366\245\016<\256\364\364<\253\364"
 147      E0F5F6A5 
 147      0E3CAEF4 
 147      F43CABF4 
 148 042b 75A746BA 		.ascii	"u\247F\272\270f\200\262\035\036\036\244x\3126\263\342"
 148      B86680B2 
 148      1D1E1EA4 
 148      78CA36B3 
 148      E2
 149 043c 3C58649F 		.ascii	"<Xd\237\374O|#9R\267\230\371\234l\276(ssy\324\310\016"
 149      FC4F7C23 
 149      3952B798 
 149      F99C6CBE 
 149      28737379 
 150 0453 9AA310CB 		.ascii	"\232\243\020\313\2329\371\271\376\236\036\3303j\231"
 150      9A39F9B9 
 150      FE9E1ED8 
 150      336A99
 151 0462 D9B46CE9 		.ascii	"\331\264l\351\271\274\225\325\007\345\214n\333jZ\207"
 151      B9BC95D5 
 151      07E58C6E 
 151      DB6A5A87 
 152 0472 7F01EDE1 		.ascii	"\177\001\355\341\035\347"
 152      1DE7
 153              		.text
 154              		.section	.gnu.lto_test_004_001_execute.22bedfcc54647f3d,"",%progbits
 155 0000 789C8D55 		.ascii	"x\234\215U_lSe\024?\347\336\336\322v\255\353\206J;G"
 155      5F6C5365 
 155      143FE7DE 
 155      DED276AD 
 155      EB864A3B 
 156 0015 A94314A3 		.ascii	"\251C\024\243[\267\204\304\350\203\201\360d\302|`,\321"
 156      5BB784C4 
 156      E88381F0 
 156      64C27C60 
 156      2CD1
 157 0027 A7E57277 		.ascii	"\247\345rw\323\335\204\333\342\275\267\010\361a\267"
 157      D3DD84DB 
 157      E2BDB708 
 157      F161B7
ARM GAS  /tmp/cccQfvUh.s 			page 12


 158 0036 DB501442 		.ascii	"\333P\024B\032\036t\321\020!Sb\014\021\321hp\017\320"
 158      1A1E74D1 
 158      10215362 
 158      0C11D168 
 158      700FD0
 159 0049 C448B62C 		.ascii	"\304H\266,\262\354A1\006B%\361i\310\237\267\306\030"
 159      B2EC4131 
 159      064225F1 
 159      69C89FB7 
 159      C618
 160 005b EB39F75F 		.ascii	"\3539\367_G-\342M\357\367\367\234\337\367;\277\363\235"
 160      472DE24D 
 160      EFF7F79C 
 160      DFF73BBF 
 160      F39D
 161 006d 5B010468 		.ascii	"[\001\004h}\266\323\333\010\003\364#\000\206\001\205"
 161      7DB6D3DB 
 161      0803F423 
 161      00860185 
 162 007d CA158072 		.ascii	"\312\025\200rD\020\244\237s`\307\304\371\014\330q\321"
 162      4410A49F 
 162      7360C7C4 
 162      F90CD871 
 162      D1
 163 008e 9B859C59 		.ascii	"\233\205\234Y\010%6B\011\221{@\230\024\304\220\204\223"
 163      08253642 
 163      09917B40 
 163      9814C490 
 163      8493
 164 00a0 AF23230A 		.ascii	"\257##\012}p\332\266O\324~\277\375Y\372\275SS\025\373"
 164      7D70DAB6 
 164      4FD47EBF 
 164      FD59FABD 
 164      535315FB 
 165 00b4 EF460335 		.ascii	"\357F\0035\244\263\267!(\010\257\321\004\263N'\204\356"
 165      A4B3B721 
 165      2808AFD1 
 165      04B34E27 
 165      84EE
 166 00c6 27E37856 		.ascii	"'\343xV\252+\227\217\245\355\246\247(\300K\017\363<"
 166      AA2B978F 
 166      A5EDA6A7 
 166      28C04B0F 
 166      F33C
 167 00d8 27546B8D 		.ascii	"'Tk\215\306\255\257k7o`W\257\010\032\206B\324Haj \006"
 167      C6ADAF6B 
 167      376F6057 
 167      AF081A86 
 167      42D44861 
 168 00ef 32CE611F 		.ascii	"2\316a\037\304\251?M}\202\026\303\235\334$\271\351\346"
 168      C4A93F4D 
 168      7D8216C3 
 168      9DDC24B9 
 168      E9E6
 169 0101 26C58669 		.ascii	"&\305\206ij\326\021\232\0043\304#\353\006R\275t\371"
 169      6AD6119A 
 169      0433C423 
ARM GAS  /tmp/cccQfvUh.s 			page 13


 169      EB0652BD 
 169      74F9
 170 0113 78CA3E55 		.ascii	"x\312>U\366\351D\004x\271I'\351\322i\021\326=\017\330"
 170      F6E94404 
 170      78B94927 
 170      E9D26911 
 170      D63D0FD8 
 171 0127 8A9E3DD4 		.ascii	"\212\236=\324\262R\243(p/\376\010S\027.\254\246d\374"
 171      B252A328 
 171      702FFE08 
 171      53172EAC 
 171      A664FC
 172 013a 1425F808 		.ascii	"\024%\370\010>,\333vR\303\350[\360\247}\204G1\335qc"
 172      3E2CDB76 
 172      52C3E85B 
 172      F0A77D84 
 172      4731DD71 
 173 014f E018F8A3 		.ascii	"\340\030\370\243(\257\221\347\265\372\352/!\3275\217"
 173      28AF91E7 
 173      B5FAEA2F 
 173      21D7358F 
 174 015f 623F9C65 		.ascii	"b?\234e\217\016F\251\360(\316(\263<J\350\210\236o\""
 174      8F0E46A9 
 174      F028CE28 
 174      B33C4AE8 
 174      889E6F22 
 175 0173 4079640D 		.ascii	"@yd\015I\002\373\365\257\233w\227\302^\270~\334\366"
 175      4902FBF5 
 175      AF9B7797 
 175      C25EB87E 
 175      DCF6
 176 0185 9D33B940 		.ascii	"\2353\271@\003\177P]\272\272\322\205\034\031\237\254"
 176      037F505D 
 176      BABAD285 
 176      1C199FAC 
 177 0195 38D0D439 		.ascii	"8\320\3249q\3471\365\034|n\333v\355\203\267o|\202\002"
 177      71E731F5 
 177      1C7C6EDB 
 177      76ED83B7 
 177      6F7C8202 
 178 01a9 29E9CEED 		.ascii	")\351\316\355\0275\354\014\002L\006\001v\351\216#\023"
 178      1735EC0C 
 178      024C0601 
 178      76E98E23 
 178      13
 179 01ba EA72A8EC 		.ascii	"\352r\250\354EG\264/\010\232\306\030\214]\222\365o{"
 179      4547B42F 
 179      089AC618 
 179      8C5D92F5 
 179      6F7B
 180 01cc 643CE704 		.ascii	"d<\347\004\234\366\200MJT\000\334M\004\030\013<,\201"
 180      9CF6804D 
 180      4A5400DC 
 180      4D04180B 
 180      3C2C81
 181 01df FDBFF4FD 		.ascii	"\375\277\364\375\247\217|\277t\365|\324\227,D l,5\350"
 181      A78F7CBF 
ARM GAS  /tmp/cccQfvUh.s 			page 14


 181      74F57CD4 
 181      972C4420 
 181      6C2C35E8 
 182 01f3 E9248B65 		.ascii	"\351$\213eH\371{\341\200\341z\005Epc\023\035\365\027"
 182      48F97BE1 
 182      80E17A05 
 182      45706313 
 182      1DF517
 183 0206 04F6E5FD 		.ascii	"\004\366\345\375\210\206\217*\350\245\000x%\245\341"
 183      88868F2A 
 183      E8A50078 
 183      25A5E1
 184 0215 6319C89F 		.ascii	"c\031\310\237\264g\267k\370\270'\021]\245\015\016\375"
 184      B467B76B 
 184      F8B82711 
 184      5DA50D0E 
 184      FD
 185 0226 C54ACC5D 		.ascii	"\305J\314]\341\\\271\2324\223\236\012NL\353\316\211"
 185      E15CB99A 
 185      34939E0A 
 185      4E4CEBCE 
 185      89
 186 0237 7C58BA4D 		.ascii	"|X\272M\272\210\034\300\"LE\274*9Q\373\346\235\237\322"
 186      BA881CC0 
 186      224C45BC 
 186      2A3951FB 
 186      E69D9FD2 
 187 024b 67BFB2ED 		.ascii	"g\277\262\355w\253v\275\201\015Q\303\036\001f\361a\225"
 187      77AB76BD 
 187      810D51C3 
 187      1E0166F1 
 187      6195
 188 025d C26B3D94 		.ascii	"\302k=\224V\270\002S\367.\036>\323\323\232\350\325\343"
 188      56B80253 
 188      F72E1E3E 
 188      D3D39AE8 
 188      D5E3
 189 026f F3EBCB92 		.ascii	"\363\353\313\222\214\027\235\033\354-\316\235\254w\364"
 189      8C179D1B 
 189      EC2DCE9D 
 189      AC77F4
 190 027e 06B3A3D7 		.ascii	"\006\263\243\327~\023\233W\201\3370\275\\9\3641@\270"
 190      7E139B57 
 190      81DF30BD 
 190      5C39F431 
 190      40B8
 191 0290 4B91500E 		.ascii	"K\221P\016D\367s\223\201\262\340K\263\366\374\346\376"
 191      44F77393 
 191      81B2E04B 
 191      B3F6FCE6 
 191      FE
 192 02a1 8CB7FF84 		.ascii	"\214\267\377\204\313p\031\016\327\276\233\013\373I\211"
 192      CB70190E 
 192      D7BE9B0B 
 192      FB4989
 193 02b0 0512F52A 		.ascii	"\005\022\365*\030q,\334\025{R\303\215z\220\011\006\316"
 193      18712CDC 
ARM GAS  /tmp/cccQfvUh.s 			page 15


 193      157B52C3 
 193      8D7A9009 
 193      06CE
 194 02c2 341A5CFB 		.ascii	"4\032\\\373\233\034\251\252iw\307-\306<\327R\213\200"
 194      9B1CA9AA 
 194      6977C72D 
 194      C63CD752 
 194      8B80
 195 02d4 7FB40A28 		.ascii	"\177\264\012(\343%\272=\377C@\370O\001\257;\002.\335"
 195      E325BA3D 
 195      FF4340F8 
 195      4F01AF3B 
 195      022EDD
 196 02e7 2FE0C789 		.ascii	"/\340\307\211\314\277\253\352\350\365\262\324T2\352"
 196      CCBFABEA 
 196      E8F5B2D4 
 196      5432EA
 197 02f6 1655AC8D 		.ascii	"\026U\254\215\2302\376@\203\340l_<\031\0270\023\224"
 197      9832FE40 
 197      83E06C5F 
 197      3C191730 
 197      1394
 198 0308 F362FDF6 		.ascii	"\363b\375\366V_\266xp\307\262\201\200\254\226\027\301"
 198      565FB678 
 198      70C7B281 
 198      80AC9617 
 198      C1
 199 0319 C6E02330 		.ascii	"\306\340#0\275,\372>\011r\343\315\254\233\006\311_\357"
 199      BD2CFA3E 
 199      0972E3CD 
 199      AC9B06C9 
 199      5FEF
 200 032b 0C109E54 		.ascii	"\014\020\236T\260\303\273\217\011\357\352\367e\340\230"
 200      B0C3BB8F 
 200      09EFEAF7 
 200      65E098
 201 033a 97C0CDCD 		.ascii	"\227\300\315\315\273\377\024\300\002\314\334\302\000"
 201      BBFF14C0 
 201      02CCDCC2 
 201      00
 202 0347 8271C36B 		.ascii	"\202q\303ku\034\245x\3463\"\023\230\276\227\360\355"
 202      751CA578 
 202      E6332213 
 202      98BE97F0 
 202      ED
 203 0358 92942736 		.ascii	"\222\224'6\335\322B\241\273\035\205\244G\341\351\014"
 203      DDD242A1 
 203      BB1D85A4 
 203      47E1E90C 
 204 0368 BCEF5178 		.ascii	"\274\357Qx\346\301\024\272\333P\010\301\235\016q\031"
 204      E6C114BA 
 204      DB5008C1 
 204      9D0E7119 
 205 0378 A6239E17 		.ascii	"\246#\236\027\004\307lU0\356\030i\370\254o-9\237\357"
 205      04C76C55 
 205      30EE1869 
 205      F8AC6F2D 
ARM GAS  /tmp/cccQfvUh.s 			page 16


 205      399FEF
 206 038b 15FA7F6C 		.ascii	"\025\372\177lb\354\241\212\243U\316\306\320\300@\316"
 206      62ECA18A 
 206      A355CEC6 
 206      D0C040CE 
 207 039b FD59AA69 		.ascii	"\375Y\252i\345\014+g\026K\206\242\272Sn\306L\365\215"
 207      E50C2B67 
 207      164B86A2 
 207      BA536EC6 
 207      4CF58D
 208 03ae 925A50D4 		.ascii	"\222ZP\324\261\301\301m\003\012H\226140(\352f>di\272"
 208      B1C1C16D 
 208      030A4896 
 208      31343028 
 208      EA663E64 
 209 03c4 BA390028 		.ascii	"\2729\000(\232\354\256\025\224}\245q5\247LX\023\206"
 209      9AECAE15 
 209      947DA571 
 209      35A74C58 
 209      1386
 210 03d6 2A8F9B03 		.ascii	"*\217\233\003\023 \354\200\376\265fJQ\327\213\205\334"
 210      1320EC80 
 210      FEB5664A 
 210      51D78B85 
 210      DC
 211 03e7 FEA26199 		.ascii	"\376\242a\231\271\035\273\207w\016\037${\245h\250c\007"
 211      B91DBB87 
 211      770E1F24 
 211      7BA568A8 
 211      6307
 212 03f9 5ED0C941 		.ascii	"^\320\311A: \357+\251Cm|\324\203Vn\347\360\310+#\315"
 212      3A20EF2B 
 212      A9436D7C 
 212      D483566E 
 212      E7F0C82B 
 213 040f 83745333 		.ascii	"\203tS3\307\362\212B~\233\036H\306<\304D\222\303#\273"
 213      C7F28A42 
 213      7E9B1E48 
 213      C63CC444 
 213      92C323BB 
 214 0423 B37B6553 		.ascii	"\263{eS\335oh\317g\267\014\202`\300:]\325\213\306!\210"
 214      DD6F68CF 
 214      67B70C82 
 214      60C03A5D 
 214      D58BC621 
 215 0438 168A56F6 		.ascii	"\026\212V\366\325\321]\273`\303\233F\261\220\317\032"
 215      D5D15DBB 
 215      60C39B46 
 215      B190CF1A 
 216 0448 AA55320A 		.ascii	"\252U2\012\352xVWMS\316\253\360\017\203{\001\005"
 216      EA785657 
 216      4D53CEAB 
 216      F00F837B 
 216      0105
 217              		.text
 218              		.section	.gnu.lto_.symbol_nodes.22bedfcc54647f3d,"",%progbits
 219 0000 789C4D8C 		.ascii	"x\234M\214MN\002Q\020\204\253\272\247\007\025\024\360"
ARM GAS  /tmp/cccQfvUh.s 			page 17


 219      4D4E0251 
 219      1084ABBA 
 219      A7071514 
 219      F0
 220 0011 021EC773 		.ascii	"\002\036\307sx\222&\222\010\356<\200\254\346($, a\313"
 220      78922692 
 220      08EE3C80 
 220      ACE62824 
 220      2C2061CB 
 221 0025 027FC001 		.ascii	"\002\177\300\001Ae\307\336\370\036C|\364\346\313W\335"
 221      4165C7DE 
 221      F81E437C 
 221      F4E6CB57 
 221      DD
 222 0036 D502C12D 		.ascii	"\325\002\301-Q\215\274\322\211\247)\340\376\374xgs\""
 222      518DBCD2 
 222      89A729E0 
 222      FEFC7867 
 222      7322
 223 0048 7395173A 		.ascii	"s\225\027:R*{\272\034u\320\247-I8\344\215\256'\325\017"
 223      522A7BBA 
 223      1C75D0A7 
 223      2D4938E4 
 223      8DAE27D5 
 224 005d 4A486D47 		.ascii	"JHmG\215X1\213X\320,\340\235yx\313\037zV5:\035\362\233"
 224      8D58318B 
 224      58D02CE0 
 224      9D7978CB 
 224      1F7A5635 
 225 0075 6EC9BEE8 		.ascii	"n\311\276\350y\262\015\275\226lM?K\266\245\237'\373"
 225      79B20DBD 
 225      966C4D3F 
 225      4BB6A59F 
 225      27FB
 226 0087 A45F242B 		.ascii	"\244_$+\351\365\177S\271\304p\361\033\330@y`\035\345"
 226      E9F57F53 
 226      B9C470F1 
 226      1BD84079 
 226      601DE5
 227 009a 3250DBE8 		.ascii	"2P\333\350Nf\022Y\214G\271j\013Eow\243\332<\356\257"
 227      4E661259 
 227      8C47B96A 
 227      0B456F77 
 227      A3DA3CEE 
 228 00af D08DF776 		.ascii	"\320\215\367v\215\"\2725Q<\204\275\265Q\366*\016c\317"
 228      8D22BA35 
 228      513C84BD 
 228      B551F62A 
 228      0E63CF
 229 00c2 14F7E10F 		.ascii	"\024\367\341\017\376\000\027\316b\016"
 229      FE0017CE 
 229      620E
 230              		.text
 231              		.section	.gnu.lto_.refs.22bedfcc54647f3d,"",%progbits
 232 0000 789C2588 		.ascii	"x\234%\210\321\025\000\020\014\304.G\025\253\330\177"
 232      D1150010 
 232      0CC42E47 
ARM GAS  /tmp/cccQfvUh.s 			page 18


 232      15ABD87F 
 233 0010 3FF5245F 		.ascii	"?\365$_\211e\035}\020`\323\032\335\025\031t\015e\255"
 233      89651D7D 
 233      1060D31A 
 233      DD151974 
 233      0D65AD
 234 0023 F99AE55D 		.ascii	"\371\232\345]\312\241\013\021\353\000\242"
 234      CAA10B11 
 234      EB00A2
 235              		.text
 236              		.section	.gnu.lto_.decls.22bedfcc54647f3d,"",%progbits
 237 0000 789CBD5B 		.ascii	"x\234\275[\011x\024U\236\257\243;IC8=\026W\035\202\243"
 237      09781455 
 237      9EAFA33B 
 237      4943383D 
 237      16571D82 
 238 0015 BB3AAE04 		.ascii	"\273:\256\004\220UfvW\321\350'~\237\270~\011\356\307"
 238      90556676 
 238      57D1E827 
 238      7E9FB87E 
 238      09EEC7
 239 0028 9E4DD129 		.ascii	"\236M\321)H\217\235\356\330]\341\330c\250\004\210\300"
 239      488F9DEE 
 239      D85DE1D8 
 239      63A80488 
 239      C0
 240 0039 38100208 		.ascii	"8\020\002\010(\321\000\242x\014B\000\011\210\320\\!"
 240      28D100A2 
 240      780C4200 
 240      0988D05C 
 240      21
 241 004a 04310186 		.ascii	"\0041\001\206 D0\242\200\240\334\203\020$\364\376\337"
 241      204430A2 
 241      80A0DC83 
 241      1024F4FE 
 241      DF
 242 005b FF557557 		.ascii	"\377UuWUWuW\205u\353\313{]\307{\277\367?\337\373\277"
 242      55577557 
 242      8575EBCB 
 242      7B5DC77B 
 242      BFF73FDF 
 243 0071 231CC331 		.ascii	"#\034\3031\243x\206\211\3015\373y\206i\317b\0307\303"
 243      A3788689 
 243      C135FB79 
 243      8669CF62 
 243      1837C3
 244 0084 308F41EA 		.ascii	"0\217A\352\006i1\244\014HP\204\371g\226a\376\005\322"
 244      066931A4 
 244      0C485084 
 244      F9679661 
 244      FE05D2
 245 0097 BF41FA77 		.ascii	"\277A\372wH^H\243XZ~4\374\212\220\306@\"W6\244\"\270"
 245      485E48A3 
 245      585A7E34 
 245      FC8A90C6 
 245      40225736 
 246 00ae 2F86F432 		.ascii	"/\206\3642\244RH\023 \3757\244\337A\232\014i*\2449\220"
ARM GAS  /tmp/cccQfvUh.s 			page 19


 246      A4524813 
 246      20FD37A4 
 246      DF419A0C 
 246      692AA439 
 247 00c3 16415A0C 		.ascii	"\026AZ\014)\023\352|\004\277\253 \255\206\264\036\322"
 247      2913EA7C 
 247      04BFAB20 
 247      AD86B41E 
 247      D2
 248 00d4 75483148 		.ascii	"uH1H\267s\214\356\"\270\344\325\022\205Fr\261\312{V"
 248      B7738CEE 
 248      22B8E4D5 
 248      12854672 
 248      B1CA7B56 
 249 00e8 C1D15E84 		.ascii	"\301\321^\204\226\036\360{\032\322'\220\272+4\022zs"
 249      961EF07B 
 249      1AD22790 
 249      BA2B3412 
 249      7A73
 250 00fa 00E81E2E 		.ascii	"\000\350\036.\301\353$x\347\201\347 \374\376\022~\357"
 250      C1EB2478 
 250      E781E720 
 250      FCFE127E 
 250      EF
 251 010b 853451C1 		.ascii	"\2054Q\301\363(X\367\301\273\373!=\310Q~\010_\203\341"
 251      F32858F7 
 251      C1BBFB21 
 251      3DC8517E 
 251      085F83E1 
 252 011f FE518EF2 		.ascii	"\376Q\216\362Ih\373-\233L\007\221\305=\360;\235M\320"
 252      4968FB2D 
 252      9B4C0791 
 252      C53DF03B 
 252      9D4DD0
 253 0132 5007A937 		.ascii	"P\007\2517<\3272T\006D\326\36344\020\371\376\206\243"
 253      3CD73254 
 253      0644D6F3 
 253      343410F9 
 253      FE86A3
 254 0145 74ABF4FE 		.ascii	"t\253\364\376\035\244\277'\337!\205\024\332+\340[\011"
 254      1DA4BF27 
 254      DF218514 
 254      DA2BE05B 
 254      09
 255 0156 97D0D35C 		.ascii	"\227\320\323\\\226\312\347e.\241\263j\226\362\250\352"
 255      96CAE765 
 255      2EA1B36A 
 255      96F2A8EA 
 256 0166 8E9057C0 		.ascii	"\216\220W\300Q]\277\254\350E\313[\030\3228\302?G\365"
 256      515DBFAC 
 256      E845CB5B 
 256      18D238C2 
 256      3F47F5
 257 0179 A5F2A8EA 		.ascii	"\245\362\250\352\215\360\271\312\204O\242\357_1\224"
 257      8DF0B9CA 
 257      844FA2EF 
 257      5F3194
ARM GAS  /tmp/cccQfvUh.s 			page 20


 258 0188 27954FC2 		.ascii	"'\225O\302\343\343\012\217\204\277:E\016*\177k\341~"
 258      E3E30A8F 
 258      84BF3A45 
 258      0E2A7F6B 
 258      E17E
 259 019a 0D9125DC 		.ascii	"\015\221%\334\273\340\335\026\270\337\000\351\177\340"
 259      BBE0DD16 
 259      B8DF00E9 
 259      7FE0
 260 01a8 79293CFF 		.ascii	"y)<\377\216\323\333\331\022H\035\220&)\262\311\321\310"
 260      8ED3DBD9 
 260      12481D90 
 260      2629B2C9 
 260      D1C8
 261 01ba 8257E491 		.ascii	"\202W\344\221\216\177\231\360\310\322\362Q\370\375\014"
 261      8E7F99F0 
 261      C8D2F251 
 261      F8FD0C
 262 01c9 D23AC5F6 		.ascii	"\322:\305\366\011\017e\204o\216\332\247Q\357Zy,R\354"
 262      090F6584 
 262      6F8EDAA7 
 262      51EF5A79 
 262      2C52EC
 263 01dc DCCD24DB 		.ascii	"\334\315$\333\257Q6]\231\031\262\\.\327T\310\303\032"
 263      AF51365D 
 263      9919B25C 
 263      2ED754C8 
 263      C31A
 264 01ee BAEB1E7A 		.ascii	"\272\353\036z3\263e\270r\032@d#Y\201\355\356aj\\x\227"
 264      33B365B8 
 264      721A4064 
 264      235981ED 
 264      EE616A5C 
 265 0204 ED619E82 		.ascii	"\355a\236\202\252\3671o\313re\333\361\267\356\226]\002"
 265      AAF7316F 
 265      CB7265DB 
 265      F1B7EE96 
 265      5D02
 266 0216 BB94ED0D 		.ascii	"\273\224\355\015\012\370k\026$\375\036T\253\004\240"
 266      0AF86B16 
 266      24FD1E54 
 266      AB04A0
 267 0225 BF6492AF 		.ascii	"\277d\222\257\264\250\034\363(\313\010\354\273\000'"
 267      B4A81CF3 
 267      28CB08EC 
 267      BB0027
 268 0234 B0EFB0BF 		.ascii	"\260\357\260\277\242\315\310ms*\216\224\263e\262\314"
 268      A2CDC86D 
 268      732A8E94 
 268      B365B2CC 
 269 0244 D26F8CF2 		.ascii	"\322o\214\362\325\344\352\307\324@\205\350\225\306E"
 269      D5E4EAC7 
 269      D44085E8 
 269      95C645
 270 0253 AC5CB395 		.ascii	"\254\\\263\2255iq\250\332`V\202\215\251\247\033\\\262"
 270      356971A8 
 270      DA605682 
ARM GAS  /tmp/cccQfvUh.s 			page 21


 270      8DA9A71B 
 270      5CB2
 271 0265 9C25B01F 		.ascii	"\234%\260\037 #\243Y]\003\012H\315P+\024\216hN`W$\221"
 271      2023A359 
 271      5D030A48 
 271      CD502B14 
 271      8E684E60 
 272 027c 5DDFA492 		.ascii	"]\337\244\222\275\302\006\331\345\321\2753\252\357 "
 272      BDC206D9 
 272      E5D1BD33 
 272      AAEF20
 273 028b 64EB7441 		.ascii	"d\353tA\305\253\264\233\243\266\353\302z\002[\013\205"
 273      C5ABB49B 
 273      A3B6EBC2 
 273      7A025B0B 
 273      85
 274 029c 35B01C38 		.ascii	"5\260\0348\216J\213Y\025\345\226^J\001=\015\373\032"
 274      8E4A8B59 
 274      15E5965E 
 274      4A013D0D 
 274      FB1A
 275 02ae B32B058A 		.ascii	"\263+\005\212\3131\323\034\203\345\230\261\307(\304"
 275      CB31D31C 
 275      83E598B1 
 275      C728C4
 276 02bd 262424B0 		.ascii	"&$$\260+\331\373 _\305\366\203|\015\344\361\213c\376"
 276      2BD9FB20 
 276      5FC5F683 
 276      7C0DE4F1 
 276      8B63FE
 277 02d0 C0AA5660 		.ascii	"\300\252V`&\355\364,\2647.B1z\230i\01112\246,(\006p"
 277      26EDF42C 
 277      B4372E42 
 277      317A9869 
 277      093132A6 
 278 02e8 70C6F6BD 		.ascii	"p\306\366\275\354d\324T\035T\343\300\375\3646`\037\352"
 278      EC64D454 
 278      1D54E3C0 
 278      FDF43660 
 278      1FEA
 279 02fa D0CC1D5B 		.ascii	"\320\314\035[\330r\204\372\004\241.v\032\352\312\254"
 279      D87284FA 
 279      04A12E76 
 279      1AEACAAC 
 280 030a 8DBF46B3 		.ascii	"\215\277F\263\334\204@\357qz \201\315\214s\036\177V"
 280      DC8440EF 
 280      717A2081 
 280      CD8C731E 
 280      7F56
 281 031c 0B1034FC 		.ascii	"\013\0204\374\254\334\220q\265\007\3633\027\347\230"
 281      ACDC9071 
 281      B507F333 
 281      17E798
 282 032b 359C4175 		.ascii	"5\234Auf\006\223e\245:\271\255\252\376(\267P\216N\341"
 282      66069365 
 282      A53AB9AD 
 282      AAFE28B7 
ARM GAS  /tmp/cccQfvUh.s 			page 22


 282      508E4EE1 
 283 033f 55A7CBB0 		.ascii	"U\247\313\260\222\021\307\254\307\266\266\031\275\256"
 283      9211C7AC 
 283      C7B6B619 
 283      BDAE
 284 034d BAE533D5 		.ascii	"\272\3453\325\353\266\331\362\272\265\215\363\223\275"
 284      EBB6D9F2 
 284      BAB58DF3 
 284      93BD
 285 035b CEACAFE2 		.ascii	"\316\254\257\342\324\366\357\305\366\317c\373\015\306"
 285      D4F6EFC5 
 285      F6CF63FB 
 285      0DC6
 286 0369 F6DB0F7E 		.ascii	"\366\333\017~9Ui\277\301V\373\353\017\3165\363\372\307"
 286      395569BF 
 286      C156FBEB 
 286      0FCE35F3 
 286      FAC7
 287 037b 6E4B651B 		.ascii	"nKe\033\325-'.(\255|\206\256\372>o\264\216\307\273\352"
 287      D52D272E 
 287      28AD7C86 
 287      AEFA3E6F 
 287      B48EC7BB 
 288 0390 F5F7B8A1 		.ascii	"\365\367\270\241\247X\315\253\364w\252\247\000F\317"
 288      A758CDAB 
 288      F477AAA7 
 288      0046CF
 289 039f CE63AB26 		.ascii	"\316c\253&\313\015\003T\032>v\214\230\243\223\304\306"
 289      CB0D0354 
 289      1A3E768C 
 289      98A393C4 
 289      C6
 290 03b0 83D8F750 		.ascii	"\203\330\367P\260\365v\300,M\251<\272I\013\266\3211"
 290      B0F576C0 
 290      2C4DA93C 
 290      BA490BB6 
 290      D131
 291 03c2 989EB266 		.ascii	"\230\236\262f-\330f;`=\255)\333\247\005\333\352\030"
 291      2DD8663B 
 291      603DAD29 
 291      DBA705DB 
 291      EA18
 292 03d4 4C4FD99F 		.ascii	"LO\331\237\264`;\354\200\365\261\246\254E\013\266\313"
 292      B4603BEC 
 292      80F5B1A6 
 292      AC450BB6 
 292      CB
 293 03e5 31989EB2 		.ascii	"1\230\236\262/\264`{\354\200\345\230P\026\277\254F\300"
 293      2FB4607B 
 293      EC80E598 
 293      5016BFAC 
 293      46C0
 294 03f7 9D6CDCCE 		.ascii	"\235l\334\3169\246\231W\373\004\2076\315$0\366\363N"
 294      39A69957 
 294      FB048736 
 294      CD2430F6 
 294      F34E
ARM GAS  /tmp/cccQfvUh.s 			page 23


 295 0409 FB301DDF 		.ascii	"\3730\035\3370\354\177\265\204\235C\375\202\016\243"
 295      30EC7FB5 
 295      849D43FD 
 295      820EA3
 296 0418 07ED20A6 		.ascii	"\007\355 \2460\230\312\335\2321\371\210c0\275Z\336$"
 296      3098CADD 
 296      9A31F988 
 296      6330BD5A 
 296      DE24
 297 042a 60BABE46 		.ascii	"`\272\276F\031\221\332\226E\373,HtwY*\026\211\032i\337"
 297      1991DA96 
 297      45FB2C48 
 297      7477592A 
 297      16891A69 
 298 043f 06811D17 		.ascii	"\006\201\035\027/,\367\351c^V`O\341\330~\232\365\304"
 298      2F2CF7E9 
 298      635E5660 
 298      4FE1D87E 
 298      9AF5C4
 299 0452 A9A0F7EA 		.ascii	"\251\240\367\352]\014\003\366oxC<\252^\351\252ZY\302"
 299      5D0C03F6 
 299      6F78433C 
 299      AA5EE9AA 
 299      5A59C2
 300 0465 49AD257C 		.ascii	"I\255%|gGL)\\\241\331JL\321\012y\032[\266\352\256\224"
 300      67474C29 
 300      5CA1D94A 
 300      4CD10A79 
 300      1A5BB6EA 
 301 047b 116575CB 		.ascii	"\021eu\313\331\305J\024p\016\007\3573\274i\024`\013"
 301      D9C54A14 
 301      700E07EF 
 301      33BC6914 
 301      600B
 302 048d ECD0CC26 		.ascii	"\354\320\314&5\244\270\210`W;\017Vs\245\351.\022\262"
 302      35A4B888 
 302      60573B0F 
 302      5673A5E9 
 302      2E12B2
 303 04a0 5F46A032 		.ascii	"_F\2402\227q\320\360\030B\012\217~\320\367x\02271\365"
 303      9771D0F0 
 303      18420A8F 
 303      7ED0F778 
 303      123731F5 
 304 04b4 D2ABF167 		.ascii	"\322\253\361g\255c\245\372\263Z\325\277\352r\252z\235"
 304      AD63A5FA 
 304      B35AD5BF 
 304      EA72AA7A 
 304      9D
 305 04c5 874010F2 		.ascii	"\207@\020\362#7_\216\226\361\032[O\351\030\020@6n\372"
 305      23375F8E 
 305      96F11A5B 
 305      4FE91810 
 305      40366EFA 
 306 04d9 070CD5AE 		.ascii	"\007\014\325\256\241\\\347\270L\025d\003\350\320\314"
 306      A15CE7B8 
 306      4C156403 
ARM GAS  /tmp/cccQfvUh.s 			page 24


 306      E8D0CC
 307 04e8 3F3E8840 		.ascii	"?>\210@\035\010\264\250\323@Wf\2759\004\201\210\313"
 307      1D08B4A8 
 307      D3405766 
 307      BD390481 
 307      88CB
 308 04fa 72CCDB49 		.ascii	"r\314\333I\232f\015\232f\365\032\210{\235\342t?WY\216"
 308      9A660D9A 
 308      66F51A88 
 308      7B9DE274 
 308      3F57598E 
 309 050e 59615497 		.ascii	"YaT\227\216\235\024CC\274\277\275^\305^*\227\027\014"
 309      8E9D1443 
 309      43BCBFBD 
 309      5EC55E2A 
 309      97170C
 310 0521 70A0AF19 		.ascii	"p\240\257\031\212\276\246\242t\326$I\247\303\241x \304"
 310      8ABEA6A2 
 310      74D62449 
 310      A7C3A178 
 310      20C4
 311 0533 70CC4696 		.ascii	"p\314F\226\236\215\212X'\330\330L\331\230\201ll\375"
 311      9E8D8A58 
 311      27D8D84C 
 311      D998816C 
 311      6CFD
 312 0545 3F60A3D1 		.ascii	"?`\243\3211\033=5l\340\244w.\035\375na\252R\207\360"
 312      311B3D35 
 312      6CE0A477 
 312      2E1DFD6E 
 312      61AA5287 
 313 055a 849E59DC 		.ascii	"\204\236Y\334-\272\3609z\340s6\207\276N?\315\277\364"
 313      2DBAF039 
 313      7AE07336 
 313      87BE4E3F 
 313      CDBFF4
 314 056d B966A227 		.ascii	"\271f\242'\333\232\3505\306'zU(\262&3\007\263\003Us"
 314      DB9AE835 
 314      C6277A55 
 314      28B22633 
 314      07B30355 
 315 0582 E8F3DB48 		.ascii	"\350\363\333HG:\017a\016t\026\246\355J\323:\352\247"
 315      473A0F61 
 315      0E7416A6 
 315      ED4AD33A 
 315      EAA7
 316 0594 0B10E848 		.ascii	"\013\020\350H\222\0123\014\032\314\320k\020\036IKW\261"
 316      920A330C 
 316      1ACCD06B 
 316      101E494B 
 316      57B1
 317 05a6 839CA4BC 		.ascii	"\203\234\244\274!\017\231\314\377{=\2169\211\344\023"
 317      210F99CC 
 317      FF7B3D8E 
 317      3989E413 
 318 05b6 ED398CBF 		.ascii	"\3559\214\277T\353\251\370v\216\032;Q\005\235\275)\304"
 318      54EBA9F8 
ARM GAS  /tmp/cccQfvUh.s 			page 25


 318      768E1A3B 
 318      51059DBD 
 318      29C4
 319 05c8 F2E85BB3 		.ascii	"\362\350[\263\350\232\012\316\1778\346\312M\302ml\302"
 319      E89A0ACE 
 319      7F38E6CA 
 319      4DC26D6C 
 319      C2
 320 05d9 506C3186 		.ascii	"Pl1\206b7n\216\333\350\301\246E\012m\224\327)\356\233"
 320      62376E8E 
 320      DBE8C1A6 
 320      450A6D94 
 320      D729EE9B 
 321 05ed 23AE7D96 		.ascii	"#\256}\226\311\372\221\311Lv\224\212EVCa\274\304f\337"
 321      C9FA91C9 
 321      4C76948A 
 321      45564361 
 321      BCC466DF 
 322 0601 E10C13D9 		.ascii	"\341\014\023\331K\247\333*\224\260\203|K\357\216\255"
 322      4BA7DB2A 
 322      94B0837C 
 322      4BEF8EAD 
 323 0611 C73D7255 		.ascii	"\307=rU6]E\023\330\217YNA5\213F\322\013\347\250\330"
 323      365D4513 
 323      D88F594E 
 323      41358B46 
 323      D20BE7A8 
 324 0626 30C08963 		.ascii	"0\300\211c\327\253\216\375\001\312r\275\333\350H\304"
 324      D7AB8EFD 
 324      01CA72BD 
 324      DBE848C4 
 325 0636 533B6FD9 		.ascii	"S;o\331\233\343B\262;+0^V]\3402N\023\273l\2739\023\200"
 325      9BE342B2 
 325      3B2B305E 
 325      565DE032 
 325      4E13BB6C 
 326 064e EEB7FE6D 		.ascii	"\356\267\376m\352@\351\214@f\265\223\005\350\370\261"
 326      EA40E98C 
 326      4066B593 
 326      05E8F8B1 
 327 065e E55AA315 		.ascii	"\345Z\243\025\034<\333\360\212\262\320Pk\313\012.\233"
 327      1C3CDBF0 
 327      8AB2D050 
 327      6BCB0A2E 
 327      9B
 328 066f 58416D27 		.ascii	"XAm'\255\000L\372\324.\026\341\350\344\347R\234H\207"
 328      AD004CFA 
 328      D42E16E1 
 328      E8E4E752 
 328      9C4887
 329 0682 5A50E0AE 		.ascii	"ZP\340\256\213N\005C\355+z\3508\031\2266pd}\270=\311"
 329      8B4E0543 
 329      ED2B7AE8 
 329      38199636 
 329      70647DB8 
 330 0698 B4A86434 		.ascii	"\264\250d4\246\225\020\243\300\256\341\310lh-GV:?\306"
 330      A69510A3 
ARM GAS  /tmp/cccQfvUh.s 			page 26


 330      C0AEE1C8 
 330      6C682D47 
 330      563A3FC6 
 331 06ac BC8ED3AC 		.ascii	"\274\216\323\254wZ\231\305\372\204Y\010\354j\243\030"
 331      775A99C5 
 331      FA845908 
 331      EC6AA318 
 332 06bc EDCE49D3 		.ascii	"\355\316I\3236\263Jk}e\0317g}U\365\237\273p\371\316"
 332      36B34A6B 
 332      7D651937 
 332      677D55F5 
 332      9FBB70F9 
 333 06d1 C1D26BE3 		.ascii	"\301\322k\343\016\325q7\243\343N\3130J\367\023c\020"
 333      0ED57137 
 333      A3E34ECB 
 333      304AF713 
 333      6310
 334 06e3 63672572 		.ascii	"cg%rngY\211_\034\363F\206\215\211D\216\211\324\343\243"
 334      6E675989 
 334      5F1CF346 
 334      868D8944 
 334      8E89D4E3 
 335 06f8 598B120B 		.ascii	"Y\213\022\013\245]\316T\244\261\354D\224\356D\354@K"
 335      A55DCE54 
 335      A4B1EC44 
 335      94EE44EC 
 335      404B
 336 070a AB36C8C2 		.ascii	"\2536\310\302\306\252\350\207X\245\301\350\306s*\342"
 336      C6AAE887 
 336      58A5C1E8 
 336      C6732AE2 
 337 071a ABA20D36 		.ascii	"\253\242\0156\334\270<\272z\206:n\322-\006j\201\015"
 337      DCB83CBA 
 337      7A863A6E 
 337      D22D066A 
 337      810D
 338 072c A92D30A5 		.ascii	"\251-0\245<u*l\3208H#:\310n\255S@8mG\366\367[\231\""
 338      3C752A6C 
 338      D0384823 
 338      3AC86EAD 
 338      5340386D 
 339 0746 7443FBE8 		.ascii	"tC\373\350\026\220\272\251\263\335\210g\326\021\351"
 339      1690BAA9 
 339      B3DD8867 
 339      D611E9
 340 0755 F0B4BA2C 		.ascii	"\360\264\272,\217V\356\307\201\237\332\350\036;\304"
 340      8F56EEC7 
 340      819FDAE8 
 340      1E3BC4
 341 0764 0DB0067B 		.ascii	"\015\260\006{k\216*\\\342~\034\323b\007o\210\025\263"
 341      6B8E2A5C 
 341      E27E1CD3 
 341      62076F88 
 341      15B3
 342 0776 E5D175FB 		.ascii	"\345\321u\373\325@\202n_\034u\214\247\247\357\300\034"
 342      D540826E 
 342      5F1C758C 
ARM GAS  /tmp/cccQfvUh.s 			page 27


 342      A7A7EFC0 
 342      1C
 343 0787 5DD074D2 		.ascii	"]\320t\322\016\334P\333\272O\354\357\011\354{\270T\364"
 343      0EDC50DB 
 343      BA4FECEF 
 343      09EC7BB8 
 343      54F4
 344 0799 3E6E03AD 		.ascii	">n\003\255\303|+\346\3070\377\026\363\023\230\237\301"
 344      C37C2BE6 
 344      C730FF16 
 344      F313989F 
 344      C1
 345 07aa BC1DF329 		.ascii	"\274\035\363)\330\215N\307|&\346\3331\337\203y\023\346"
 345      D88D4EC7 
 345      7C26E6DB 
 345      31DF8379 
 345      13E6
 346 07bc 7B31DF8F 		.ascii	"{1\337\217\371\201t\035\256\272\021\370M\033\207\356"
 346      F981741D 
 346      AEBA11F8 
 346      4D1B87EE 
 347 07cc B704479B 		.ascii	"\267\004G\233"
 348 07d0 33495D51 		.ascii	"3I]Q-kXT7\354\277Y\365\262\213\023\365t\303O/\246\022"
 348      2D6B5854 
 348      37ECBF59 
 348      F5B28B13 
 348      F574C34F 
 349 07e7 879F05DD 		.ascii	"\207\237\005\335\351\362\226R\177A|\010\272E\0018\314"
 349      E9F29652 
 349      7F417C08 
 349      BA450138 
 349      CC
 350 07f8 F5C23B5D 		.ascii	"\365\302;]D\204%\254\232l\345\022kh\331\236\304\215"
 350      448425AC 
 350      9A6CE512 
 350      6B68D99E 
 350      C48D
 351 080a 3A5259D5 		.ascii	":RY\325;\3049\"u\230Z\337\243\324?\342\230\322\243\026"
 351      3BC43922 
 351      75985ADF 
 351      A3D43FE2 
 351      98D2A316 
 352 081e 9466A5A1 		.ascii	"\224f\245\241\364Kg\224\326\305\205\372\027\012@\233"
 352      F44B6794 
 352      D6C585FA 
 352      170A409B 
 353 082e 6352BFB6 		.ascii	"cR\277\266 \365\3664\244~eA\352\355\314<\245e\231\225"
 353      20F5F634 
 353      A47E6541 
 353      EAEDCC3C 
 353      A5659995 
 354 0842 2CF77C08 		.ascii	",\367|\010\3027\034m\203\307\243\016\214\262\235\363"
 354      C2371C6D 
 354      83C7A30E 
 354      8CB29DF3 
 355 0852 229FD2AC 		.ascii	"\"\237\322\254I\271c\234\316B\315$U3\324 \252\236*\010"
 355      49B9639C 
ARM GAS  /tmp/cccQfvUh.s 			page 28


 355      CE42CD24 
 355      5533D420 
 355      AA9E2A08 
 356 0866 A7809C70 		.ascii	"\247\200\234p,\251\223\026\222b\323\220{<!\251\276\314"
 356      2CA99316 
 356      9262D390 
 356      7B3C21A9 
 356      BECC
 357 0878 9B72F47C 		.ascii	"\233r\364|\333\354kmS\331\3310\212\312\347\311\330N"
 357      DBEC6B6D 
 357      53D9D930 
 357      8ACAE7C9 
 357      D84E
 358 088a 45C131B5 		.ascii	"E\3011\265\231z\347\274\227Y*\313Ur\255,{\224nk\003"
 358      997AE7BC 
 358      97592ACB 
 358      5572AD2C 
 358      7B946E6B 
 359 089f 96F88EEB 		.ascii	"\226\370\216\353k\332\230\272A\366W\3142\302\222\274"
 359      6BDA98BA 
 359      41F657CC 
 359      32C292BC 
 360 08af 5CE65101 		.ascii	"\\\346Q\001\214RGs\011\354)Nw\356\207R\026][?\023\272"
 360      8C524773 
 360      09EC294E 
 360      77EE8752 
 360      165D5B3F 
 361 08c5 C9F2682C 		.ascii	"\311\362h,\3668c_\223g\025M&\264\007\243\235\201\031"
 361      F638635F 
 361      9367154D 
 361      26B407A3 
 361      9D8119
 362 08d8 73B2CE18 		.ascii	"s\262\316\030\311:gJ\326\306\372W\263*\313\332b\261"
 362      C93A674A 
 362      D6C6FA57 
 362      B32ACBDA 
 362      62B1
 363 08ea BEF689BA 		.ascii	"\276\366\211\272hBT\2239Q\225z\242.\030\211\272dF\024"
 363      68425493 
 363      3951957A 
 363      A22E1889 
 363      BA644614 
 364 08fe EA4586E0 		.ascii	"\352E\206\340L\346\250\0048\346{[<_6\302\377\230\014"
 364      4CE6A804 
 364      38E67B5B 
 364      3C5F36C2 
 364      FF980C
 365 0911 DF56D936 		.ascii	"\337V\3316{\311\205\207\026\324\312S\246\3137b\223X"
 365      7BC98587 
 365      16D4CA53 
 365      A6CB3762 
 365      9358
 366 0923 FB7CB71B 		.ascii	"\373|\267\033\335\3524\256\220i\374\012\242\260,#\241"
 366      DDEA34AE 
 366      9069FC0A 
 366      A2B02C23 
 366      A1
ARM GAS  /tmp/cccQfvUh.s 			page 29


 367 0934 B4E84FA6 		.ascii	"\264\350O\246\224T\325\177\233\271P\336:\005\230\235"
 367      9454D57F 
 367      9BB950DE 
 367      3A05989D 
 368 0944 C4A8BCFE 		.ascii	"\304\250\274\376\321\002\242\303\024\342\372\322C\303"
 368      D102A2C3 
 368      14E2FAD2 
 368      43C3
 369 0952 E210F679 		.ascii	"\342\020\366y\211\031y!\243N\374\241\212:\244\201\267"
 369      89197921 
 369      A34EFCA1 
 369      8A3AA481 
 369      B7
 370 0963 63168495 		.ascii	"c\026\204\225\363f\204m~w\327]\257M\256\211{\"en\241"
 370      F366846D 
 370      7E77D75D 
 370      AF4DAE89 
 370      7B22656E 
 371 0978 C71C638A 		.ascii	"\307\034c\212)F\307\322\275\303\026Zi\212\020i\305^"
 371      2946C7D2 
 371      BDC3165A 
 371      698A1069 
 371      C55E
 372 098a 056FCD9E 		.ascii	"\005o\315\2362\337\220+\344\373\227'Bc]7\246F\330o\340"
 372      32DF902B 
 372      E4FB9727 
 372      42635D37 
 372      A646D86F 
 373 099f B2DD749E 		.ascii	"\262\335t\236\274\375\300@\271}\230C3\327\375\015F\012"
 373      BCFDC040 
 373      B97D9843 
 373      33D7FD0D 
 373      460A
 374 09b1 AF22D0DA 		.ascii	"\257\"\320\332N\003]\231\365.=\3441\013\2016y\214!\007"
 374      4E035D99 
 374      F52E3DE4 
 374      310B8136 
 374      798C2107 
 375 09c5 6F98FCF0 		.ascii	"o\230\374\360\372\311\017\357I\334\304b<\363\363\026"
 375      FAC90FEF 
 375      49DCC462 
 375      3CF3F316 
 376 09d5 3658CF2E 		.ascii	"6X\317.\013\315W\231j~\366\222-V>\232\305\274\202K\336"
 376      0BCD5799 
 376      6A7EF692 
 376      2D563E9A 
 376      C5BC824B 
 377 09ea 53E532F6 		.ascii	"S\3452\366\345\270\274,\266 \005v\036\237E\242\\\217"
 377      E5B8BC2C 
 377      B6200576 
 377      1E9F45A2 
 377      5C8F
 378 09fc E5062229 		.ascii	"\345\006\")\300(\344\323{\365.\305&\322\\\243\201\021"
 378      C028E4D3 
 378      7BF52EC5 
 378      26D25CA3 
 378      8111
ARM GAS  /tmp/cccQfvUh.s 			page 30


 379 0a0e 23D13D68 		.ascii	"#\321=h?*\273\215\006\211|k!\2217\314$\022]\264\373"
 379      3F2ABB8D 
 379      06897C6B 
 379      219137CC 
 379      24125DB4 
 380 0a23 559935ED 		.ascii	"U\2315\355\252\011\251VtV\033\351$\205\323\320\325a"
 380      AA09A956 
 380      74561BE9 
 380      2485D3D0 
 380      D561
 381 0a35 41578D85 		.ascii	"AW\215\205\217\036z\254\332\312GI\310kE\332\022#i\217"
 381      8F1E7AAC 
 381      DACA4749 
 381      C86B45DA 
 381      1223698F 
 382 0a49 1B5DD4C6 		.ascii	"\033]\324\306\222\300\332\332\257\177\363\221,\367\024"
 382      92C0DADA 
 382      AF7FF391 
 382      2CF714
 383 0a58 D865E813 		.ascii	"\330e\350\023\237v1\372\204\333\340\023n\275\345\272"
 383      9F7631FA 
 383      84DBE013 
 383      6EBDE5BA 
 384 0a68 3D899BC4 		.ascii	"=\211\233\304I\2468Mu\254V\223\206c7$\270HA[\307\322"
 384      49A6384D 
 384      75AC5693 
 384      86633724 
 384      B848415B 
 385 0a7e 2D7D9623 		.ascii	"-}\226#m\357\363$\306\330\236D\3331\3160E0\004`\006"
 385      6DEFF324 
 385      C6D89E44 
 385      DB31CE30 
 385      45300460 
 386 0a93 E924ABEA 		.ascii	"\351$\253\352\263.\346\252Z\241W\325=\314b9\272\017"
 386      B32EE6AA 
 386      5AA157D5 
 386      3DCC6239 
 386      BA0F
 387 0aa5 A2A3E6B5 		.ascii	"\242\243\346\265\270\306\000s\336X\214\355\253\316]"
 387      B8C60073 
 387      DE588CED 
 387      ABCE5D
 388 0ab4 8EC651AC 		.ascii	"\216\306Q\254t\2652\201G\260j\252\310 \372\340{\250"
 388      74B53281 
 388      47B06AAA 
 388      C820FAE0 
 388      7BA8
 389 0ac6 76F96A8C 		.ascii	"v\371j\214\215\361(@\030#\322B\325\352\241V\222\221"
 389      8DF12840 
 389      1823D242 
 389      D5EAA156 
 389      9291
 390 0ad8 E2D49D75 		.ascii	"\342\324\235u\345\011(5&\327\0344\215\246:\346\224|"
 390      E5092835 
 390      26D71C34 
 390      8DA63AE6 
 390      947C
ARM GAS  /tmp/cccQfvUh.s 			page 31


 391 0aea 60492955 		.ascii	"`I)U\023\217\342o\305\327\011`\254`QJ`?\346\235F\260"
 391      138FE26F 
 391      C5D70960 
 391      AC60514A 
 391      603FE69D 
 392 0b00 EB78F308 		.ascii	"\353x\363\010\326\245\323\212Z\012\344\364\203QN\311"
 392      D6A5D38A 
 392      5A0AE4F4 
 392      83514EC9 
 393 0b10 54D4E905 		.ascii	"T\324\351\005\005\2566\247\342\300N\266J\256Q\365g\266"
 393      05AE36A7 
 393      E2C04EB6 
 393      4AAE51F5 
 393      67B6
 394 0b22 2099A9C2 		.ascii	" \231\251\302\224$\014q\352\265f\036\307\215\015<Y\336"
 394      94240C71 
 394      EAB5661E 
 394      C78D0D3C 
 394      59DE
 395 0b34 3867309A 		.ascii	"8g0\232\2640\034\363\023V\371\224OZ):Z\241\254\024\221"
 395      B4301CF3 
 395      1356F994 
 395      4F5A293A 
 395      5AA1AC14 
 396 0b49 6FE9177C 		.ascii	"o\351\027|g\267Z\036\266m\213\013\340\256\004\345\307"
 396      67B75A1E 
 396      B66D8B0B 
 396      E0AE04E5 
 396      C7
 397 0b5a BF3F4F29 		.ascii	"\277?O)\337\202\224O\355\232\226r=\014\307Ta\225\355"
 397      DF82944F 
 397      ED9A9672 
 397      3D0CC754 
 397      6195ED
 398 0b6d C9949F51 		.ascii	"\311\224\237QO\336m\267E\371\272\203\3325\"u\261\232"
 398      4FDE6DB7 
 398      45F9BA83 
 398      DA352275 
 398      B19A
 399 0b7f D44DB146 		.ascii	"\324M\261F\244\263F-^y\264\216\236x\252\303\020r\213"
 399      A4B3462D 
 399      5E79B48E 
 399      9E78AAC3 
 399      10728B
 400 0b92 11CCD152 		.ascii	"\021\314\321R\265\254\036\206\243\347\033\277v\014\226"
 400      B5AC1E86 
 400      A3E71BBF 
 400      760C96
 401 0ba1 A3A36CFF 		.ascii	"\243\243l\377|\375j\3367v\360R\234HRN\235Q\260\343\216"
 401      7CFD6ADE 
 401      3776F052 
 401      9C48524E 
 401      9D51B0E3 
 402 0bb6 C1F4C41D 		.ascii	"\301\364\304\035>\2509\336T\023\327m\0120\263s;f\227"
 402      3EA839DE 
 402      5413D76D 
 402      0A30B373 
ARM GAS  /tmp/cccQfvUh.s 			page 32


 402      3B6697
 403 0bc9 D64804B6 		.ascii	"\326H\004\266\236'kM;y\262\"\324\200\371.\314\0331\337"
 403      9E276B4D 
 403      3B79B222 
 403      D480F92E 
 403      CC1B31DF 
 404 0bdd 8DF967BC 		.ascii	"\215\371g\274n\025ryW\325GLM1\235I\310\321\205\326\316"
 404      6E157279 
 404      57D5474C 
 404      4D319D49 
 404      C8D185D6 
 405 0bf2 314AAD9E 		.ascii	"1J\255\236\235\360\215\035\227\242n\364\215f\364\215"
 405      9DF08D1D 
 405      97A26EF4 
 405      8D66F48D 
 406 0c02 15E97D43 		.ascii	"\025\351}C\207\002\343\021\326\330\237\344\032\365-"
 406      8702E311 
 406      D6D89FE4 
 406      1AF52D
 407 0c11 AA6BECB7 		.ascii	"\252k\354\267\341\032\345\321#\257\331\333J\324wqj\214"
 407      E11AE5D1 
 407      23AFD9DB 
 407      4AD47771 
 407      6A8C
 408 0c23 7D51394F 		.ascii	"}Q9O\377\005r\321\232\236\013=\014\314\015\261Jk2\033"
 408      FF0572D1 
 408      9A9E0B3D 
 408      0CCC0DB1 
 408      4A6B321B 
 409 0c37 F52A1BAD 		.ascii	"\365*\033\255\266\330\250~M\265\373\203|b\025\2735\265"
 409      B6D8A87E 
 409      4DB5FB83 
 409      7C6215BB 
 409      35B5
 410 0c49 7559AAB3 		.ascii	"uY\252\263<\372f\013\232*\005[\353\030Lo\367\253Z\026"
 410      3CFA660B 
 410      9A2A055B 
 410      EB184C6F 
 410      F7AB5A16 
 411 0c5d F5916BB6 		.ascii	"\365\221k\266\260\352l\344z\234i\263\371B\272\036\243"
 411      B0EA6CE4 
 411      7A9C69B3 
 411      F942BA1E 
 411      A3
 412 0c6e 3C5ADB62 		.ascii	"<Z\333b<\262\2266\234\231z.J\027<\277\301h\246<\333"
 412      3CB29636 
 412      9C997A2E 
 412      4A173CBF 
 412      C168A63C 
 413 0c83 6934C331 		.ascii	"i4\3031\277\317f\323K!\345q\311=\313\324-\177\\\266"
 413      BFCF66D3 
 413      4B21E571 
 413      C93DCBD4 
 413      2D7F5CB6 
 414 0c97 A9B40368 		.ascii	"\251\264\003h\3267\231]Z#\022\330#\330\003\034EO\377"
 414      D637995D 
 414      5A2312D8 
ARM GAS  /tmp/cccQfvUh.s 			page 33


 414      23D8031C 
 414      454FFF
 415 0caa 0AF336CC 		.ascii	"\012\3636\314\217a~R\353\373VQ\001Q}\034\233\232\323"
 415      8F617E52 
 415      EBFB5651 
 415      01517D1C 
 415      9B9AD3
 416 0cbd FE4E9BD3 		.ascii	"\376N\233\323\371dsr\002\2467\247\313:s\2021\2037\340"
 416      F9647372 
 416      02A637A7 
 416      CB3A7382 
 416      318337E0 
 417 0cd1 3934A7B9 		.ascii	"94\247\271\363\263\233G\251\26697\233u\010\3263\225"
 417      F3B39B47 
 417      A9B63937 
 417      9B7508D6 
 417      3395
 418 0ce3 52F66B94 		.ascii	"R\366k\224r\000\225\322\202*8\205\371i\314\277\327w"
 418      720095D2 
 418      822A3885 
 418      F969CCBF 
 418      D777
 419 0cf5 C5D5D986 		.ascii	"\305\325\331\206\256X\327\363\231\015\014Z\361\310\321"
 419      AE58D7F3 
 419      990D0C5A 
 419      F1C8D1
 420 0d04 95AD206B 		.ascii	"\225\255 k\273\373p\307\177\214\322\036\354\034\366"
 420      BBFB70C7 
 420      7F8CD21E 
 420      EC1CF6
 421 0d13 606F679B 		.ascii	"`og\233\366`\251\366\341Vc\225\213\3111\312\015\265"
 421      F660A9F6 
 421      E1566395 
 421      8BC931CA 
 421      0DB5
 422 0d25 07BB98BE 		.ascii	"\007\273\230\276\007\23329\272\360\365w\022\035\361"
 422      079B3239 
 422      BAF0F577 
 422      121DF1
 423 0d34 E4B85F7F 		.ascii	"\344\270_\177\307\246Xz\325\036\206\334\026\247\303"
 423      C7A6587A 
 423      D51E86DC 
 423      16A7C3
 424 0d43 A1899A2B 		.ascii	"\241\211\232+\356\242Fq\177F\305]\326\253i\217QMf\355"
 424      EEA24671 
 424      7F46C55D 
 424      D6AB698F 
 424      514D66ED 
 425 0d57 A5D8B75B 		.ascii	"\245\330\267[\337\252\306d\364\277\312\366\032\361j"
 425      DFAAC664 
 425      F4BFCAF6 
 425      1AF16A
 426 0d66 74FF3266 		.ascii	"t\3772f\006\230\223\212\201O5\014lF\006\242hmM\230\237"
 426      0698938A 
 426      814F350C 
 426      6C4606A2 
 426      686D4D98 
ARM GAS  /tmp/cccQfvUh.s 			page 34


 427 0d7b C5BC5DCF 		.ascii	"\305\274]\317\322\227q\355\233F\322\270\024h\230K\221"
 427      D29771ED 
 427      9B46D2B8 
 427      1468984B 
 427      91
 428 0d8c 09D0D777 		.ascii	"\011\320\327w\276o:\001\322\315\240\223\247\010\035"
 428      BE6F3A01 
 428      D2CDA093 
 428      A7081D
 429 0d9b CA444537 		.ascii	"\312DE7\265\370\312HBr\275\033\2069X\024\246\206W\373"
 429      B5F8CA48 
 429      4272BD1B 
 429      86395814 
 429      A68657FB 
 430 0daf 6E289765 		.ascii	"n(\227e\003\011\344\037\331t\2230\325\232\301*\323\034"
 430      0309E41F 
 430      D9749330 
 430      D59AC12A 
 430      D31C
 431 0dc1 838019E2 		.ascii	"\203\200\031\342\336>d\263>\355\261\011\201\235\354"
 431      DE3E64B3 
 431      3EEDB109 
 431      819DEC
 432 0dd0 BACF7416 		.ascii	"\272\317t\026\242+F\012Nu\351}$\372\223\230C\337\246"
 432      A22B460A 
 432      4E75E97D 
 432      24FA9398 
 432      43DFA6
 433 0de3 1FDF3B3A 		.ascii	"\037\337;:\032\350\361\220\223\030\211\376\200](\251"
 433      1AE8F190 
 433      931889FE 
 433      805D28A9 
 434 0df3 DAB9FE38 		.ascii	"\332\271\3768v\012\341\014c\350Y\2131\024W\205\\\206"
 434      760AE10C 
 434      63E8598B 
 434      31145785 
 434      5C86
 435 0e05 E1F0246A 		.ascii	"\341\360$j\312\011\0119:\022*\353qH \270\034s\306\016"
 435      CA090939 
 435      3A122AEB 
 435      714820B8 
 435      1C73C60E 
 436 0e19 588A2EBC 		.ascii	"X\212.\274J\013\366\243c\260\234$\357\241~S\341\"~\363"
 436      4A0BF6A3 
 436      63B09C24 
 436      EFA17E53 
 436      E1227EF3 
 437 0e2d 8A8BF8CA 		.ascii	"\212\213\370\3124\314\177\217\371\037\\:\277\271\221"
 437      34CC7F8F 
 437      F91F5C3A 
 437      BFB991
 438 0e3c 144D50A5 		.ascii	"\024MP\245j\360\022\272g\322#\232\353\300\240\254r\013"
 438      6AF012BA 
 438      67D2239A 
 438      EBC0A0AC 
 438      720B
 439 0e4e FE087EA5 		.ascii	"\376\010~\245K\027\314$ \207\352\331\3278\012\255d^"
ARM GAS  /tmp/cccQfvUh.s 			page 35


 439      4B17CC24 
 439      2087EAD9 
 439      D7380AAD 
 439      645E
 440 0e60 4C6067BB 		.ascii	"L`g\273T_=\251=\\\246y\344\230\351\335\014\256\233\204"
 440      545F3DA9 
 440      3D5CA679 
 440      E498E9DD 
 440      0CAE9B84 
 441 0e74 52E5E298 		.ascii	"R\345\342\230_0ot\253\226\351\233\301\314jyZ\024|@\006"
 441      5F306F74 
 441      AB96E99B 
 441      C1CC6A79 
 441      5A147C40 
 442 0e89 F8B85EFF 		.ascii	"\370\270^\377\213\271&/\220\301\251\243\367\363\224"
 442      8BB9262F 
 442      90C1A9A3 
 442      F7F394
 443 0e98 2AE2E6CD 		.ascii	"*\342\346\315\315\321\375;I\217\011~~#\026c\251\000"
 443      CDD1FD3B 
 443      498F097E 
 443      7E231663 
 443      A900
 444 0eaa 3866ADB1 		.ascii	"8f\255\261\325d\277\233\357\3424\315\015\2455\251\022"
 444      D564BF9B 
 444      EFE234CD 
 444      0DA535A9 
 444      12
 445 0ebb 685BD103 		.ascii	"h[\321\003;Y;\033\253\323\342\377\030\327O\201~\303"
 445      3B593B1B 
 445      ABD3E2FF 
 445      18D74F81 
 445      7EC3
 446 0ecd E574B165 		.ascii	"\345t\261e\221\313|\261E5A\253z\257'T\372\013f+\210"
 446      91CB7CB1 
 446      453541AB 
 446      7AAF2754 
 446      FA0B662B 
 447 0ee2 70C1D044 		.ascii	"p\301\320D\363\324\226\0103\323\344hK\246\352\255\312"
 447      F3D49608 
 447      33D3E468 
 447      4BA6EAAD 
 447      CA
 448 0ef3 361AB531 		.ascii	"6\032\2651\2027\035A\250\265)\245\017\307Kk7\240\024"
 448      82371D41 
 448      A8B529A5 
 448      0FC74B6B 
 448      37A014
 449 0f06 2AA82855 		.ascii	"*\250(Uk\262\220\312\020\225\324L\205\226\032\307BY"
 449      6BB290CA 
 449      1095D44C 
 449      85961AC7 
 449      4259
 450 0f18 6C21940C 		.ascii	"l!\224\014\205\034\203\351\307R\364SK\\\346\033\320"
 450      851C83E9 
 450      C752F453 
 450      4B5CE61B 
ARM GAS  /tmp/cccQfvUh.s 			page 36


 450      D0
 451 0f29 3A92936A 		.ascii	":\222\223j-\265\254\325\236\242\255\267]\306-\334\205"
 451      2DB5ACD5 
 451      9EA2ADB7 
 451      5DC62DDC 
 451      85
 452 0f3a E72EFCC7 		.ascii	"\347.\374\307\207\265d$\272\021\233T6\205Uw\216\246"
 452      87B56424 
 452      BA119B54 
 452      36855577 
 452      8EA6
 453 0f4c 74B7B305 		.ascii	"t\267\263\005\270\314e\330\002|\307e\262\303\330vu\376"
 453      B8CC65D8 
 453      027CC765 
 453      B2C3D876 
 453      75FE
 454 0f5e 813BC8E1 		.ascii	"\201;\310\3413\262k\326Oma\246\255\026\226\033[x\317"
 454      33B26BD6 
 454      4F6D61A6 
 454      AD16961B 
 454      5B78CF
 455 0f71 B4850B17 		.ascii	"\264\205\013\027/\014kO\260\321\317\376\326\334\207"
 455      2F0C6B4F 
 455      B0D1CFFE 
 455      D6DC87
 456 0f80 2EC3BAF8 		.ascii	".\303\272\370'\311\333\214\215:R\261$\307|\321]\331"
 456      27C9DB8C 
 456      8D3A52B1 
 456      24C77CD1 
 456      5DD9
 457 0f92 E350B6B7 		.ascii	"\343P\266\267\367B\217\316\252\377Z|\002k"
 457      F7428FCE 
 457      AAFF5A7C 
 457      026B
 458 0fa0 7CE0B2DA 		.ascii	"|\340\262\332\340V\016\316)\034_*{\241O\234\343\017"
 458      E0560ECE 
 458      291C5F2A 
 458      7BA14F9C 
 458      E30F
 459 0fb2 8C1CAF30 		.ascii	"\214\034\2570\345x\341\271\275Ef\212\373\301\226X\327"
 459      E578E1B9 
 459      BD45668A 
 459      FBC19658 
 459      D7
 460 0fc3 181B596B 		.ascii	"\030\033Yk\241\2703\311\212\273j\253\205u\306\026\352"
 460      A1B833C9 
 460      8ABB6AAB 
 460      8575C616 
 460      EA
 461 0fd4 F42D18AC 		.ascii	"\364-\030\254\326mm\352\033\022F\213\016:9\345N\205"
 461      D66D6DEA 
 461      1B12468B 
 461      0E3A39E5 
 461      4E85
 462 0fe6 C06EC483 		.ascii	"\300n\304\203K\351O\"\232\205@\031*\324(&\036Y-\274"
 462      4BE94F22 
 462      9A854019 
ARM GAS  /tmp/cccQfvUh.s 			page 37


 462      2AD42826 
 462      1E592DBC 
 463 0ffa 7621488F 		.ascii	"v!H\217An"
 463      416E
 464 1000 C40E7C5D 		.ascii	"\304\016|]\217\364\013\272:\034B\324fc(5\2475\233\354"
 464      8FF40BBA 
 464      3A1C42D4 
 464      66632835 
 464      A7359BEC 
 465 1014 766E4E1F 		.ascii	"vnN\037L\301Tc^\253z\212\354\023\0271\257mH\302\346"
 465      4CC15463 
 465      5EAB7A8A 
 465      EC131731 
 465      AF6D48C2 
 466 1029 CE455380 		.ascii	"\316ES\200\367Z+F\037\024l\247c\260\034\035\330\002"
 466      F75A2B46 
 466      1F146CA7 
 466      63B01C1D 
 466      D802
 467 103b 2DD86E3B 		.ascii	"-\330n;`Vq\021\200\275\256\005kv\014\246\247l\221\026"
 467      60567111 
 467      80BDAE05 
 467      6B760CA6 
 467      A76C9116 
 468 104f EC801D30 		.ascii	"\354\200\0350\253\205U\000{S\013\366\205c0=e+\265`_"
 468      AB855500 
 468      7B530BF6 
 468      8563303D 
 468      652BB560 
 469 1064 DA01B3FA 		.ascii	"\332\001\263\372\207H\000\253\325\202\035s\014\246\247"
 469      874800AB 
 469      D5821D73 
 469      0CA6A7
 470 1073 6C8D16EC 		.ascii	"l\215\026\354;;`9\326\224}\254\005;\343\030LOY\235\026"
 470      3B3B6039 
 470      D6947DAC 
 470      053BE318 
 470      4C4F599D 
 471 1088 EC821D30 		.ascii	"\354\202\0350\253\311,\200m\320\202]v\014\246\247l\243"
 471      ABC92C80 
 471      6DD0825D 
 471      760CA6A7 
 471      6CA3
 472 109a 16ACDD0E 		.ascii	"\026\254\335\016\330\000+\312\312\242\233\376\265R\320"
 472      D8002BCA 
 472      CAA29BFE 
 472      B552D0
 473 10a9 4E4909AA 		.ascii	"NI\011\252E\244\250+\306Z\026\023\330#\216\003\234\243"
 473      45A4A82B 
 473      C65A1613 
 473      D8238E03 
 473      9CA3
 474 10bb 16018EF6 		.ascii	"\026\001\216\366dB\242\024\331\3066\262\255\247\302"
 474      6442A214 
 474      D9C636B2 
 474      ADA7C2
 475 10ca 8C6FBD10 		.ascii	"\214o\275\020\233\265B,\353iC\210C\255\301\366i\301"
ARM GAS  /tmp/cccQfvUh.s 			page 38


 475      9BB5422C 
 475      EB694388 
 475      43ADC1F6 
 475      69C1
 476 10dc 2AEC800D 		.ascii	"*\354\200\015\263\266\225?i\301f8\006\323S\326\242\005"
 476      B3B6953F 
 476      69C16638 
 476      06D353D6 
 476      A205
 477 10ee 9B6507EC 		.ascii	"\233e\007\354\005k\312\276\320\202U9\006\323RV\026="
 477      056BCABE 
 477      D0825539 
 477      06D35256 
 477      163D
 478 1100 9C303C3A 		.ascii	"\2340<:\277\322X^\252i\230\306\362\222&P?\330\230\206"
 478      BFD2585E 
 478      AA6998C6 
 478      F2922650 
 478      3FD89886 
 479 1114 2D30D2AD 		.ascii	"-0\322\255CQnG\232\010\301\354\322\216\264\002\033\305"
 479      43516E47 
 479      9A08C1EC 
 479      D28EB402 
 479      1BC5
 480 1126 E9F0169C 		.ascii	"\351\360\026\234\260n\303|\007\346;1\337\205\371n\314"
 480      B06EC37C 
 480      07E63B31 
 480      DF85F96E 
 480      CC
 481 1137 F760DE84 		.ascii	"\367`\336\204\371^\314\367c~\000\363\203\230\037\302"
 481      F95ECCF7 
 481      637E00F3 
 481      83981FC2 
 482 1147 BC15F336 		.ascii	"\274\025\3636\314\217a\376-\346'0\377\016\363\323\332"
 482      CC8F61FE 
 482      2DE62730 
 482      FF0EF3D3 
 482      DA
 483 1158 C9B121D2 		.ascii	"\311\261!\322\331\230b\032|\3262\252'G\254\254j\235"
 483      D998621A 
 483      7CD632AA 
 483      2747ACAC 
 483      6A9D
 484 116a B3AC3537 		.ascii	"\263\25457E\255\363\226\265\252S\324\272\2204\203\270"
 484      45ADF396 
 484      B5AA53D4 
 484      BA903483 
 484      B8
 485 117b B664AB3F 		.ascii	"\266d\253?\036#\032\342n\262Bm\205t\311er\330\262\247"
 485      1E231AE2 
 485      6EB2426D 
 485      8574C965 
 485      72D8B2A7 
 486 118f 6968592E 		.ascii	"ihY.\257\\.\273\325\203>\002{1\021W\033\316\303\342"
 486      AF5C2EBB 
 486      D5833E02 
 486      7B311157 
ARM GAS  /tmp/cccQfvUh.s 			page 39


 486      1BCEC3E2 
 487 11a3 E73F9BC6 		.ascii	"\347?\233\306\262\233\336i\274[\023\313\222\3469&f\257"
 487      B29BDE69 
 487      BC5B13CB 
 487      92E63926 
 487      66AF
 488 11b5 C11F5337 		.ascii	"\301\037S7x\305\264\301\226\367\017?\220\324\340\316"
 488      78C5B4C1 
 488      96F70F3F 
 488      90D4E0CE 
 489 11c5 5EB61A6C 		.ascii	"^\266\032lO\335\340\265\224\261\364\032\276\227\245"
 489      4FDDE0B5 
 489      94B1F41A 
 489      BE97A5
 490 11d4 D4AF5B6A 		.ascii	"\324\257[j}\203\305\3020\256|Z\326Z\222\302VnX\326\352"
 490      7D83C5C2 
 490      30AE7C5A 
 490      D65A92C2 
 490      566E58D6 
 491 11e9 484161CC 		.ascii	"HAa\314\262\326\305\0243[\331m\264\313\216\245\273\206"
 491      B2D6C514 
 491      335BD96D 
 491      B4CB8EA5 
 491      BB86
 492 11fb 7F949820 		.ascii	"\177\224\230 =a0\315\272\024\223\353rw\262i\036\266"
 492      3D6130CD 
 492      BA1493EB 
 492      7277B269 
 492      1EB6
 493 120d 525CED72 		.ascii	"R\\\355rr\254\231\236\\\022\3302\267\371\224O\301\233"
 493      72AC999E 
 493      5C12D832 
 493      B7F9944F 
 493      C19B
 494 121f EC363B16 		.ascii	"\3546;\026\334\276o\221rZy\263\334/\313\301\241\256"
 494      DCBE6F91 
 494      725A79B3 
 494      DC2FCBC1 
 494      A1AE
 495 1231 0A13427F 		.ascii	"\012\023B\177HM(\375?\011\201\235\232\232\320W\364\204"
 495      484D28FD 
 495      3F09819D 
 495      9A9AD057 
 495      F484
 496 1243 32F7F6EF 		.ascii	"2\367\366\357\237K\377B\221\334\260\224\353\017\372"
 496      9F4BFF42 
 496      91DCB094 
 496      EB0FFA
 497 1252 02A58562 		.ascii	"\002\245\205b\256\257(21\"M,\021#\375\213\230,\251("
 497      AEAF2832 
 497      31224D2C 
 497      1123FD8B 
 497      982CA928 
 498 1266 2C0A855E 		.ascii	",\012\205^)\343\231\347_\314\311c<\276\"/}\225c]\335"
 498      29E399E7 
 498      5FCCC963 
 498      3CBE222F 
ARM GAS  /tmp/cccQfvUh.s 			page 40


 498      7D95635D 
 499 127b 57540855 		.ascii	"WT\010U{\320r\021\357\313\245b\251\350\225z\306\253"
 499      7BD07211 
 499      EFCBA562 
 499      A9E8957A 
 499      C6AB
 500 128d 2AAF5C41 		.ascii	"*\257\\Aq\202\344*\011\213\343\334\370<D\213\350\013"
 500      7182E42A 
 500      098BE3DC 
 500      F83C448B 
 500      E80B
 501 129f 15178782 		.ascii	"\025\027\207\202\271%\241\260\024\311}\"\177x\336\360"
 501      B925A1B0 
 501      14C97D22 
 501      7F78DEF0 
 502 12af 09E45D89 		.ascii	"\011\344]\211? \206#\271\317\344\345AC*\221\231RI\330"
 502      3F208623 
 502      B9CFE4E5 
 502      41432A91 
 502      995249D8 
 503 12c3 1FF24A77 		.ascii	"\037\362Jw\347\226F\302qB\202\342\370\200\177tnD*\364"
 503      E79646C2 
 503      714282E2 
 503      F8807F74 
 503      6E442AF4 
 504 12d7 0725C24A 		.ascii	"\007%\302J)\374><\310+=dV\254X\360\025\371\203b\256"
 504      29FC3E3C 
 504      C82B3D64 
 504      56AC58F0 
 504      15F98362 
 505 12ec B7501C23 		.ascii	"\267P\034#\224\006$\257\012\336\305\353U+\272H3\331"
 505      940624AF 
 505      0ADEC5EB 
 505      552BBA48 
 505      33D9
 506 12fe 8424AF2F 		.ascii	"\204$\257/\024\224\200\372\007\322\222\\\344\013\205"
 506      149480FA 
 506      07D2925C 
 506      E40B85
 507 130d 4580E98A 		.ascii	"E\200\351\212\325\000\310'Mx\310^-\357\270G\213\011"
 507      D500C827 
 507      4D78C85E 
 507      2DEFB847 
 507      8B09
 508 131f DD6171AC 		.ascii	"\335aq\254\020.\366J\\x0\027\376[.\374\010\027~\224"
 508      102EF64A 
 508      5C783017 
 508      FE5B2EFC 
 508      08177E94 
 509 1333 0B0FE1C2 		.ascii	"\013\017\341\302\277\346\303\003\007@\032\310\005\302"
 509      BFE6C303 
 509      07401AC8 
 509      05C2
 510 1341 5CA48407 		.ascii	"\\\244\204\007h7\260#\206\335\241@\241\030v\371\212"
 510      6837B023 
 510      86DDA140 
 510      A11876F9 
ARM GAS  /tmp/cccQfvUh.s 			page 41


 510      8A
 511 1352 84B02B28 		.ascii	"\204\260+(\024\213]\"\322KB\300?6\350\225P\012\217\014"
 511      148B5D22 
 511      D24B42C0 
 511      3F36E895 
 511      500A8F0C 
 512 1366 F64A0A5F 		.ascii	"\366J\012_\3446c\2740Z\210\210YRD\022$\320T&\3710\304"
 512      E43663BC 
 512      305A8888 
 512      59524412 
 512      24D05426 
 513 137d 2B796811 		.ascii	"+yh\021\270s\343\227L\2518T\010\337\335c\002\302\330"
 513      B873E397 
 513      4CA93854 
 513      08DFDD63 
 513      02C2D8
 514 1390 48A61416 		.ascii	"H\246\024\026\307D@*\344\307]\034\031\013\025\025AA"
 514      C744402A 
 514      E4C75D1C 
 514      190B1515 
 514      4141
 515 13a2 45E52E23 		.ascii	"E\345.#\\8\021>e\211\023\374\222\017*g\214\227B\243"
 515      5C38113E 
 515      658913FC 
 515      920F2A67 
 515      8C9742A3 
 516 13b6 7F5BE21E 		.ascii	"\177[\342\036/I\341\222\314\210\030\224\340k6XFD,\026"
 516      2F49E192 
 516      CC881894 
 516      E06B3658 
 516      46442C16 
 517 13ca 4A8A80EB 		.ascii	"J\212\200\353\276\326v%\022q\270}AP\016\0179`\301\253"
 517      BED67625 
 517      1271B87D 
 517      41500E0F 
 517      3960C1AB 
 518 13de 922CA85D 		.ascii	"\222,\250]\\\012\332\260\256Y,M 5C\343\203b8\023\313"
 518      5C0ADAB0 
 518      AE592C4D 
 518      203543E3 
 518      83623813 
 519 13f3 12A62578 		.ascii	"\022\246%x]\322U\034G\210\020\"/\301+q<\271aK\273\253"
 519      5DD2551C 
 519      47881022 
 519      2FC12B71 
 519      3CB9614B 
 520 1409 761AF047 		.ascii	"v\032\360G\240\261\036\032\313%o2\307\013~\311\037\034"
 520      A0B11E1A 
 520      CB256F32 
 520      C70B7EC9 
 520      1F1C
 521 141b 9B05B4A3 		.ascii	"\233\005\264\243\345f\211%b\020\314ll&@\222\022\240"
 521      E5668925 
 521      6210CC6C 
 521      6C264092 
 521      12A0
 522 142d 332140AC 		.ascii	"3!@\254\305]\\\022\012\005z+^\004\222\022\303b\320\007"
ARM GAS  /tmp/cccQfvUh.s 			page 42


 522      C55D5C12 
 522      0A057A2B 
 522      5E049212 
 522      C362D007 
 523 1441 321C1827 		.ascii	"2\034\030'V\022#\022!7\022*\015\373D\372H2\020\011\200"
 523      56122312 
 523      2137122A 
 523      0DFB44FA 
 523      48321009 
 524 1456 93C20306 		.ascii	"\223\302\003\006\014\356\357\003+G\220\201lIo\374\014"
 524      0CEEEF03 
 524      2B479081 
 524      6C496FFC 
 524      0C
 525 1467 6F210D84 		.ascii	"o!\015\204bRi\311\235\272W\342\004\321\007\\\366/\021"
 525      625269C9 
 525      9DBA57E2 
 525      04D1075C 
 525      F62F11
 526 147a C252FF01 		.ascii	"\302R\377\001\267\232}\273K\337>q\001\302%\334\243\353"
 526      B79A7DBB 
 526      4BDF3E71 
 526      01C225DC 
 526      A3EB
 527 148c 921A62B1 		.ascii	"\222\032b\261\037\230\017\275$\006\301u\013|E\371\""
 527      1F980FBD 
 527      2406C175 
 527      0B7C45F9 
 527      22
 528 149d 78B65858 		.ascii	"x\266XX\032\020\013~i)jEN\000\002Z\035QT\010\225J\213"
 528      1A100B7E 
 528      69296A45 
 528      4E00025A 
 528      1D515408 
 529 14b4 C5671F48 		.ascii	"\305g\037H\317n8\024\"m\367\302\007\"aU\346\036\322"
 529      CF6E3814 
 529      226DF7C2 
 529      07226155 
 529      E61ED2
 530 14c7 1FF98B45 		.ascii	"\037\371\213E\305x\007>\0227^r{+6SP\032!*\030\001\305"
 530      C578073E 
 530      12375E72 
 530      7B2B3653 
 530      501A212A 
 531 14de 42A55281 		.ascii	"B\245R\201\333\373$\210\275\017\362\343\025\"\021\021"
 531      DBFB2488 
 531      BD0FF2E3 
 531      15221111 
 532 14ee 7C0F21C6 		.ascii	"|\017!\306\373\203\205\241\361\331\332\017\203\260;"
 532      FB8385A1 
 532      F1D9DA0F 
 532      83B03B
 533 14fd 200218EB 		.ascii	" \002\030\353\363\345\202\247=\024\014\005\305\207D"
 533      F3E582A7 
 533      3D140C05 
 533      C58744
 534 150c 61B43F77 		.ascii	"a\264?wp\377!\375\007\305\271\203\256\004z\007\2401"
ARM GAS  /tmp/cccQfvUh.s 			page 43


 534      70FF21FD 
 534      07C5B983 
 534      AE047A07 
 534      A031
 535 151e 23E2FF4F 		.ascii	"#\342\377O\342'\322\230\322\240\317+\365B\022\362\200"
 535      E227D298 
 535      D2A0CF2B 
 535      F54212F2 
 535      80
 536 152f 58492C00 		.ascii	"XI,\000G\361\373x)<\320C\225(\211%\334x\241+1q`C\004"
 536      47F1FB78 
 536      293CD043 
 536      95288925 
 536      DC78A12B 
 537 1548 3FF6C4EF 		.ascii	"?\366\304\357\263\011\177\023\025+\353\006\257\023\317"
 537      B3097F13 
 537      152BEB06 
 537      AF13CF
 538 1557 99BED230 		.ascii	"\231\276\3220\230\212\344\016\223\247\333\306\371\303"
 538      988AE40E 
 538      93A7DBC6 
 538      F9C3
 539 1565 52A91040 		.ascii	"R\251\020@&\302\252]\336\0165L>\364\320\275\243\035"
 539      26C2AA5D 
 539      DE0E354C 
 539      3EF4D0BD 
 539      A31D
 540 1577 AFEE95BB 		.ascii	"\257\356\225\273P\014HB\3268\205|\027\371\341\301V\262"
 540      500C4842 
 540      D638857C 
 540      17F9E1C1 
 540      56B2
 541 1589 02424422 		.ascii	"\002BD\"%2\306I\004\250\273Bq\2418\272t,u\003\355\033"
 541      2532C649 
 541      04A8BB42 
 541      71A138BA 
 541      742C7503 
 542 159f 4F8910F4 		.ascii	"O\211\020\364\373\274\340\004|\341\350\261]\212\005"
 542      FBBCE004 
 542      7CE1E8B1 
 542      5D8A05
 543 15ae D0086A8C 		.ascii	"\320\010j\214\363\025)\306\032q\243ufI\242\020\006\271"
 543      F31529C6 
 543      1A71A375 
 543      6649A210 
 543      06B9
 544 15c0 073315EB 		.ascii	"\0073\025\353\353Bd\343\203>\007\204\227d\353w\364\017"
 544      EB4264E3 
 544      833E0784 
 544      9764EB77 
 544      F40F
 545 15d2 870A0549 		.ascii	"\207\012\005I\350\237\364%[k\311\375\024\235\347\010"
 545      E89FF425 
 545      5B6BC9FD 
 545      149DE708 
 546 15e2 90A899E5 		.ascii	"\220\250\231\345\020N$\177(\010\235\2354\221I\321\225"
 546      104E247F 
ARM GAS  /tmp/cccQfvUh.s 			page 44


 546      28089D9D 
 546      349149D1 
 546      95
 547 15f3 4C24160A 		.ascii	"L$\026\012\212(\230\030y.\344{\311\203\275s\000\356"
 547      8A289818 
 547      792EE47B 
 547      C983BD73 
 547      00EE
 548 1605 069AF4CD 		.ascii	"\006\232\364\315\320\321\347\346\015/x\266 \201P\034"
 548      D0D1E7E6 
 548      0D2F78B6 
 548      2081501C 
 549 1615 F147BC60 		.ascii	"\361G\274`/\200\322\315K\\\320\373\344\023\005O\277"
 549      2F80D2CD 
 549      4B5CD0FB 
 549      E413054F 
 549      BF
 550 1626 90FF6C37 		.ascii	"\220\377l7!0^\230\030\201\376/\000\303\211{\234\020"
 550      21305E98 
 550      1881FE2F 
 550      00C3897B 
 550      9C10
 551 1638 2815BB62 		.ascii	"(\025\273b;/\006\011>\035\007J\361~\220\266\255\"!\240"
 551      3B2F0609 
 551      3E1D074A 
 551      F17E90B6 
 551      AD2221A0 
 552 164c 0C020523 		.ascii	"\014\002\005#\206?<(\367\271\347\236\312\035\361\354"
 552      863F3C28 
 552      F7B9E79E 
 552      CA1DF1EC 
 553 165c F07103C1 		.ascii	"\360q\003\301\354\212IW\352'\275_\327\370\003\364\201"
 553      EC8A4957 
 553      EA27BD5F 
 553      D7F803F4 
 553      81
 554 166d 79F90321 		.ascii	"y\371\003!\015r\025\014\317\313w=\365\354\323\371\\"
 554      0D72150C 
 554      CFCB773D 
 554      F5ECD3F9 
 554      5C
 555 167e 413EFFF4 		.ascii	"A>\377\3643\371\356\274\274\341\371\0031\037\344\312"
 555      33F9EEBC 
 555      BCE1F903 
 555      311FE4CA 
 556 168e CB7B3A9F 		.ascii	"\313{:\237\317{~\004\377BA\036\377D~>\237\237\007\317"
 556      CF7B7E04 
 556      FF42411E 
 556      FF447E3E 
 556      9F9F07CF 
 557 16a2 50E1C9A7 		.ascii	"P\341\311\247F\344\363O\221\232\303\237\310\347\376"
 557      46E4F34F 
 557      919AC39F 
 557      C8E7FE
 558 16b1 91D67A18 		.ascii	"\221\326z\030\312\217\314\377\205\245\340\306\021\027"
 558      CA8FCCFF 
 558      85A5E0C6 
ARM GAS  /tmp/cccQfvUh.s 			page 45


 558      1117
 559 16bf EDED2BFA 		.ascii	"\355\355+\372\247\021\317\210R\001\032\003\361\271\221"
 559      A711CF88 
 559      52011A03 
 559      F1B991
 560 16ce B9368734 		.ascii	"\2716\2074\264?\200\270\005\305@\015t\254H\357\036\266"
 560      B43F80B8 
 560      05C5400D 
 560      74AC48EF 
 560      1EB6
 561 16e0 270EF802 		.ascii	"'\016\370\002^\345\015\004H\220\321\233\336!\206/T\012"
 561      5EE50D04 
 561      4890D19B 
 561      DE21862F 
 561      540A
 562 16f2 8372987A 		.ascii	"\203r\230z#\220\367\002\364\277a\260\203\221\335\324"
 562      2390F702 
 562      F4BF61B0 
 562      8391DDD4 
 563 1702 37056260 		.ascii	"7\005b`\314\310\377\005\272=\300\227"
 563      CCC8FF05 
 563      BA3DC097 
 564              		.text
 565              		.section	.gnu.lto_.symtab.22bedfcc54647f3d,"",%progbits
 566 0000 74657374 		.ascii	"test_sequence_004\000\000\000\000\000\000\000\000\000"
 566      5F736571 
 566      75656E63 
 566      655F3030 
 566      34000000 
 567 001a 000000FF 		.ascii	"\000\000\000\377\001\000\000test_step\000\000\002\000"
 567      01000074 
 567      6573745F 
 567      73746570 
 567      00000200 
 568 002e 00000000 		.ascii	"\000\000\000\000\000\000\000\000\261\001\000\000wa\000"
 568      00000000 
 568      B1010000 
 568      776100
 569 003d 00020000 		.ascii	"\000\002\000\000\000\000\000\000\000\000\000\263\001"
 569      00000000 
 569      000000B3 
 569      01
 570 004a 00006368 		.ascii	"\000\000ch\000\000\002\000\000\000\000\000\000\000\000"
 570      00000200 
 570      00000000 
 570      000000
 571 0059 00B90100 		.ascii	"\000\271\001\000\000threads\000\000\002\000\000\000"
 571      00746872 
 571      65616473 
 571      00000200 
 571      0000
 572 006b 00000000 		.ascii	"\000\000\000\000\000\000\374\001\000\000test_emit_t"
 572      0000FC01 
 572      00007465 
 572      73745F65 
 572      6D69745F 
 573 0080 6F6B656E 		.ascii	"oken\000\000\002\000\000\000\000\000\000\000\000\000"
ARM GAS  /tmp/cccQfvUh.s 			page 46


 573      00000200 
 573      00000000 
 573      00000000 
 574 0090 78010000 		.ascii	"x\001\000\000chSchRescheduleS\000\000\002\000\000\000"
 574      63685363 
 574      68526573 
 574      63686564 
 574      756C6553 
 575 00aa 00000000 		.ascii	"\000\000\000\000\000\000|\001\000\000chThdResumeI\000"
 575      00007C01 
 575      00006368 
 575      54686452 
 575      6573756D 
 576 00c1 00020000 		.ascii	"\000\002\000\000\000\000\000\000\000\000\000~\001\000"
 576      00000000 
 576      0000007E 
 576      0100
 577 00cf 00746573 		.ascii	"\000test_wait_threads\000\000\002\000\000\000\000\000"
 577      745F7761 
 577      69745F74 
 577      68726561 
 577      64730000 
 578 00e9 00000000 		.ascii	"\000\000\000\000\203\001\000\000chThdSuspendTimeout"
 578      83010000 
 578      63685468 
 578      64537573 
 578      70656E64 
 579 0104 53000002 		.ascii	"S\000\000\002\000\000\000\000\000\000\000\000\000\205"
 579      00000000 
 579      00000000 
 579      0085
 580 0112 0100005F 		.ascii	"\001\000\000_test_assert_time_window\000\000\002\000"
 580      74657374 
 580      5F617373 
 580      6572745F 
 580      74696D65 
 581 0131 00000000 		.ascii	"\000\000\000\000\000\000\000\000\223\001\000\000_te"
 581      00000000 
 581      93010000 
 581      5F7465
 582 0140 73745F61 		.ascii	"st_assert\000\000\002\000\000\000\000\000\000\000\000"
 582      73736572 
 582      74000002 
 582      00000000 
 582      00000000 
 583 0154 009C0100 		.ascii	"\000\234\001\000\000chThdCreateStatic\000\000\002\000"
 583      00636854 
 583      68644372 
 583      65617465 
 583      53746174 
 584 016e 00000000 		.ascii	"\000\000\000\000\000\000\000\000\241\001\000\000"
 584      00000000 
 584      A1010000 
 585              		.text
 586              		.section	.gnu.lto_.opts,"",%progbits
 587 0000 272D6D63 		.ascii	"'-mcpu=cortex-m3' '-mno-thumb-interwork' '-mthumb' "
 587      70753D63 
ARM GAS  /tmp/cccQfvUh.s 			page 47


 587      6F727465 
 587      782D6D33 
 587      2720272D 
 588 0033 272D6767 		.ascii	"'-ggdb' '-O2' '-fomit-frame-pointer' '-falign-funct"
 588      64622720 
 588      272D4F32 
 588      2720272D 
 588      666F6D69 
 589 0066 696F6E73 		.ascii	"ions=16' '-ffunction-sections' '-fdata-sections' '-"
 589      3D313627 
 589      20272D66 
 589      66756E63 
 589      74696F6E 
 590 0099 666E6F2D 		.ascii	"fno-common' '-flto'\000"
 590      636F6D6D 
 590      6F6E2720 
 590      272D666C 
 590      746F2700 
 591              		.text
 592              		.cfi_sections	.debug_frame
 593              		.section	.text.test_004_001_setup,"ax",%progbits
 594              		.align	2
 595              		.p2align 4,,15
 596              		.thumb
 597              		.thumb_func
 598              		.type	test_004_001_setup, %function
 599              	test_004_001_setup:
 600              	.LFB220:
 601              		.file 1 "../../../test/rt/source/test/test_sequence_004.c"
 602              		.loc 1 74 0
 603              		.cfi_startproc
 604              		@ args = 0, pretend = 0, frame = 0
 605              		@ frame_needed = 0, uses_anonymous_args = 0
 606              		@ link register save eliminated.
 607              		.loc 1 75 0
 608 0000 40F20003 		movw	r3, #:lower16:.LANCHOR0
 609 0004 C0F20003 		movt	r3, #:upper16:.LANCHOR0
 610 0008 0022     		movs	r2, #0
 611 000a 1A60     		str	r2, [r3]
 612 000c 7047     		bx	lr
 613              		.cfi_endproc
 614              	.LFE220:
 615              		.size	test_004_001_setup, .-test_004_001_setup
 616 000e 00BF     		.section	.text.thread1,"ax",%progbits
 617              		.align	2
 618              		.p2align 4,,15
 619              		.thumb
 620              		.thumb_func
 621              		.type	thread1, %function
 622              	thread1:
 623              	.LFB219:
 624              		.loc 1 44 0
 625              		.cfi_startproc
 626              		@ args = 0, pretend = 0, frame = 0
 627              		@ frame_needed = 0, uses_anonymous_args = 0
 628              	.LVL0:
 629 0000 10B5     		push	{r4, lr}
ARM GAS  /tmp/cccQfvUh.s 			page 48


 630              		.cfi_def_cfa_offset 8
 631              		.cfi_offset 4, -8
 632              		.cfi_offset 14, -4
 633              	.LBB87:
 634              	.LBB88:
 635              	.LBB89:
 636              	.LBB90:
 637              		.file 2 "../../../os/common/ext/CMSIS/include/cmsis_gcc.h"
 638              		.loc 2 264 0
 639 0002 2023     		movs	r3, #32
 640              	.LBE90:
 641              	.LBE89:
 642              	.LBE88:
 643              	.LBE87:
 644              		.loc 1 44 0
 645 0004 0446     		mov	r4, r0
 646              	.LBB94:
 647              	.LBB93:
 648              	.LBB92:
 649              	.LBB91:
 650              		.loc 2 264 0
 651              	@ 264 "../../../os/common/ext/CMSIS/include/cmsis_gcc.h" 1
 652 0006 83F31188 		MSR basepri, r3
 653              	@ 0 "" 2
 654              		.thumb
 655              	.LBE91:
 656              	.LBE92:
 657              	.LBE93:
 658              	.LBE94:
 659              		.loc 1 47 0
 660 000a 40F20000 		movw	r0, #:lower16:.LANCHOR0
 661              	.LVL1:
 662 000e C0F20000 		movt	r0, #:upper16:.LANCHOR0
 663 0012 0021     		movs	r1, #0
 664 0014 FFF7FEFF 		bl	chThdResumeI
 665              	.LVL2:
 666              		.loc 1 48 0
 667 0018 FFF7FEFF 		bl	chSchRescheduleS
 668              	.LVL3:
 669              	.LBB95:
 670              	.LBB96:
 671              	.LBB97:
 672              	.LBB98:
 673              	.LBB99:
 674              		.loc 2 264 0
 675 001c 0023     		movs	r3, #0
 676              	@ 264 "../../../os/common/ext/CMSIS/include/cmsis_gcc.h" 1
 677 001e 83F31188 		MSR basepri, r3
 678              	@ 0 "" 2
 679              		.thumb
 680              	.LBE99:
 681              	.LBE98:
 682              	.LBE97:
 683              	.LBE96:
 684              	.LBE95:
 685              		.loc 1 50 0
 686 0022 2078     		ldrb	r0, [r4]	@ zero_extendqisi2
ARM GAS  /tmp/cccQfvUh.s 			page 49


 687              		.loc 1 51 0
 688 0024 BDE81040 		pop	{r4, lr}
 689              	.LVL4:
 690              		.loc 1 50 0
 691 0028 FFF7FEBF 		b	test_emit_token
 692              	.LVL5:
 693              		.cfi_endproc
 694              	.LFE219:
 695              		.size	thread1, .-thread1
 696 002c AFF30080 		.section	.text.test_004_001_execute,"ax",%progbits
 697              		.align	2
 698              		.p2align 4,,15
 699              		.thumb
 700              		.thumb_func
 701              		.type	test_004_001_execute, %function
 702              	test_004_001_execute:
 703              	.LFB221:
 704              		.loc 1 78 0
 705              		.cfi_startproc
 706              		@ args = 0, pretend = 0, frame = 0
 707              		@ frame_needed = 0, uses_anonymous_args = 0
 708 0000 70B5     		push	{r4, r5, r6, lr}
 709              		.cfi_def_cfa_offset 16
 710              		.cfi_offset 4, -16
 711              		.cfi_offset 5, -12
 712              		.cfi_offset 6, -8
 713              		.cfi_offset 14, -4
 714              	.LBB141:
 715              	.LBB142:
 716              	.LBB143:
 717              	.LBB144:
 718              		.file 3 "../../../os/rt/include/chthreads.h"
 719              		.loc 3 286 0
 720 0002 40F20003 		movw	r3, #:lower16:ch
 721 0006 C0F20003 		movt	r3, #:upper16:ch
 722              	.LBE144:
 723              	.LBE143:
 724              		.loc 3 299 0
 725 000a 9A69     		ldr	r2, [r3, #24]
 726              	.LBE142:
 727              	.LBE141:
 728              		.loc 1 87 0
 729 000c 40F20003 		movw	r3, #:lower16:wa
 730 0010 9268     		ldr	r2, [r2, #8]
 731 0012 C0F20003 		movt	r3, #:upper16:wa
 732 0016 40F20001 		movw	r1, #:lower16:.LC0
 733              		.loc 1 85 0
 734 001a 40F20004 		movw	r4, #:lower16:test_step
 735              		.loc 1 78 0
 736 001e 82B0     		sub	sp, sp, #8
 737              		.cfi_def_cfa_offset 24
 738              		.loc 1 87 0
 739 0020 1868     		ldr	r0, [r3]
 740 0022 C0F20001 		movt	r1, #:upper16:.LC0
 741              		.loc 1 85 0
 742 0026 C0F20004 		movt	r4, #:upper16:test_step
 743 002a 0125     		movs	r5, #1
ARM GAS  /tmp/cccQfvUh.s 			page 50


 744              		.loc 1 87 0
 745 002c 40F20003 		movw	r3, #:lower16:thread1
 746 0030 0091     		str	r1, [sp]
 747 0032 013A     		subs	r2, r2, #1
 748 0034 C0F20003 		movt	r3, #:upper16:thread1
 749 0038 4FF4A471 		mov	r1, #328
 750              		.loc 1 85 0
 751 003c 2560     		str	r5, [r4]
 752              		.loc 1 87 0
 753 003e FFF7FEFF 		bl	chThdCreateStatic
 754              	.LVL6:
 755 0042 40F20003 		movw	r3, #:lower16:threads
 756 0046 C0F20003 		movt	r3, #:upper16:threads
 757 004a 1860     		str	r0, [r3]
 758              	.LVL7:
 759              	.LBB145:
 760              	.LBB146:
 761              	.LBB147:
 762              	.LBB148:
 763              		.loc 2 264 0
 764 004c 2023     		movs	r3, #32
 765              	@ 264 "../../../os/common/ext/CMSIS/include/cmsis_gcc.h" 1
 766 004e 83F31188 		MSR basepri, r3
 767              	@ 0 "" 2
 768              		.thumb
 769              	.LBE148:
 770              	.LBE147:
 771              	.LBE146:
 772              	.LBE145:
 773              		.loc 1 89 0
 774 0052 40F20000 		movw	r0, #:lower16:.LANCHOR0
 775 0056 4FF6FF71 		movw	r1, #65535
 776 005a C0F20000 		movt	r0, #:upper16:.LANCHOR0
 777 005e FFF7FEFF 		bl	chThdSuspendTimeoutS
 778              	.LVL8:
 779              	.LBB149:
 780              	.LBB150:
 781              	.LBB151:
 782              	.LBB152:
 783              	.LBB153:
 784              		.loc 2 264 0
 785 0062 0023     		movs	r3, #0
 786              	.LBE153:
 787              	.LBE152:
 788              	.LBE151:
 789              	.LBE150:
 790              	.LBE149:
 791              		.loc 1 89 0
 792 0064 0646     		mov	r6, r0
 793              	.LVL9:
 794              	.LBB158:
 795              	.LBB157:
 796              	.LBB156:
 797              	.LBB155:
 798              	.LBB154:
 799              		.loc 2 264 0
 800              	@ 264 "../../../os/common/ext/CMSIS/include/cmsis_gcc.h" 1
ARM GAS  /tmp/cccQfvUh.s 			page 51


 801 0066 83F31188 		MSR basepri, r3
 802              	@ 0 "" 2
 803              		.thumb
 804              	.LBE154:
 805              	.LBE155:
 806              	.LBE156:
 807              	.LBE157:
 808              	.LBE158:
 809              		.loc 1 91 0
 810 006a 40F20005 		movw	r5, #:lower16:.LANCHOR0
 811 006e C0F20005 		movt	r5, #:upper16:.LANCHOR0
 812 0072 2868     		ldr	r0, [r5]
 813              	.LVL10:
 814 0074 40F20001 		movw	r1, #:lower16:.LC1
 815 0078 D0F10100 		rsbs	r0, r0, #1
 816 007c 38BF     		it	cc
 817 007e 0020     		movcc	r0, #0
 818 0080 C0F20001 		movt	r1, #:upper16:.LC1
 819 0084 FFF7FEFF 		bl	_test_assert
 820              	.LVL11:
 821 0088 08B1     		cbz	r0, .L8
 822              	.LVL12:
 823              	.L3:
 824              		.loc 1 111 0
 825 008a 02B0     		add	sp, sp, #8
 826              		@ sp needed
 827 008c 70BD     		pop	{r4, r5, r6, pc}
 828              	.LVL13:
 829              	.L8:
 830              		.loc 1 92 0
 831 008e D6F10100 		rsbs	r0, r6, #1
 832 0092 40F20001 		movw	r1, #:lower16:.LC2
 833 0096 38BF     		it	cc
 834 0098 0020     		movcc	r0, #0
 835 009a C0F20001 		movt	r1, #:upper16:.LC2
 836 009e FFF7FEFF 		bl	_test_assert
 837              	.LVL14:
 838 00a2 0028     		cmp	r0, #0
 839 00a4 F1D1     		bne	.L3
 840              	.LBB159:
 841              	.LBB160:
 842              		.loc 1 93 0
 843 00a6 FFF7FEFF 		bl	test_wait_threads
 844              	.LVL15:
 845              		.loc 1 99 0
 846 00aa 0223     		movs	r3, #2
 847 00ac 2360     		str	r3, [r4]
 848              	.LVL16:
 849              	.LBB161:
 850              	.LBB162:
 851              	.LBB163:
 852              	.LBB164:
 853              		.loc 2 264 0
 854 00ae 2023     		movs	r3, #32
 855              	@ 264 "../../../os/common/ext/CMSIS/include/cmsis_gcc.h" 1
 856 00b0 83F31188 		MSR basepri, r3
 857              	@ 0 "" 2
ARM GAS  /tmp/cccQfvUh.s 			page 52


 858              		.thumb
 859              	.LBE164:
 860              	.LBE163:
 861              	.LBE162:
 862              	.LBE161:
 863              		.loc 1 103 0
 864 00b4 40F20000 		movw	r0, #:lower16:.LANCHOR0
 865              	.LBB165:
 866              	.LBB166:
 867              	.LBB167:
 868              	.LBB168:
 869              		.file 4 "../../../os/hal/ports/STM32/LLD/TIMv1/hal_st_lld.h"
 870              		.loc 4 141 0
 871 00b8 4FF08043 		mov	r3, #1073741824
 872              	.LBE168:
 873              	.LBE167:
 874              	.LBE166:
 875              	.LBE165:
 876              		.loc 1 103 0
 877 00bc 4FF47A71 		mov	r1, #1000
 878 00c0 C0F20000 		movt	r0, #:upper16:.LANCHOR0
 879              	.LBB175:
 880              	.LBB173:
 881              	.LBB171:
 882              	.LBB169:
 883              		.loc 4 141 0
 884 00c4 5C6A     		ldr	r4, [r3, #36]
 885              	.LBE169:
 886              	.LBE171:
 887              	.LBE173:
 888              	.LBE175:
 889              		.loc 1 103 0
 890 00c6 FFF7FEFF 		bl	chThdSuspendTimeoutS
 891              	.LVL17:
 892              	.LBB176:
 893              	.LBB174:
 894              	.LBB172:
 895              	.LBB170:
 896              		.loc 4 141 0
 897 00ca A4B2     		uxth	r4, r4
 898              	.LBE170:
 899              	.LBE172:
 900              	.LBE174:
 901              	.LBE176:
 902              		.loc 1 103 0
 903 00cc 0646     		mov	r6, r0
 904              	.LVL18:
 905              	.LBB177:
 906              	.LBB178:
 907              	.LBB179:
 908              	.LBB180:
 909              	.LBB181:
 910              		.loc 2 264 0
 911 00ce 0023     		movs	r3, #0
 912              	@ 264 "../../../os/common/ext/CMSIS/include/cmsis_gcc.h" 1
 913 00d0 83F31188 		MSR basepri, r3
 914              	@ 0 "" 2
ARM GAS  /tmp/cccQfvUh.s 			page 53


 915              		.thumb
 916              	.LBE181:
 917              	.LBE180:
 918              	.LBE179:
 919              	.LBE178:
 920              	.LBE177:
 921              		.loc 1 105 0
 922 00d4 40F20002 		movw	r2, #:lower16:.LC3
 923 00d8 04F57A70 		add	r0, r4, #1000
 924              	.LVL19:
 925 00dc 04F2EB31 		addw	r1, r4, #1003
 926 00e0 80B2     		uxth	r0, r0
 927 00e2 89B2     		uxth	r1, r1
 928 00e4 C0F20002 		movt	r2, #:upper16:.LC3
 929 00e8 FFF7FEFF 		bl	_test_assert_time_window
 930              	.LVL20:
 931 00ec 0028     		cmp	r0, #0
 932 00ee CCD1     		bne	.L3
 933              		.loc 1 108 0
 934 00f0 2868     		ldr	r0, [r5]
 935 00f2 40F20001 		movw	r1, #:lower16:.LC1
 936 00f6 D0F10100 		rsbs	r0, r0, #1
 937 00fa 38BF     		it	cc
 938 00fc 0020     		movcc	r0, #0
 939 00fe C0F20001 		movt	r1, #:upper16:.LC1
 940 0102 FFF7FEFF 		bl	_test_assert
 941              	.LVL21:
 942 0106 0028     		cmp	r0, #0
 943 0108 BFD1     		bne	.L3
 944              		.loc 1 109 0
 945 010a B6F1FF33 		subs	r3, r6, #-1
 946 010e 5842     		rsbs	r0, r3, #0
 947 0110 40F20001 		movw	r1, #:lower16:.LC2
 948 0114 5841     		adcs	r0, r0, r3
 949 0116 C0F20001 		movt	r1, #:upper16:.LC2
 950              	.LBE160:
 951              	.LBE159:
 952              		.loc 1 111 0
 953 011a 02B0     		add	sp, sp, #8
 954              		@ sp needed
 955 011c BDE87040 		pop	{r4, r5, r6, lr}
 956              	.LVL22:
 957              	.LBB183:
 958              	.LBB182:
 959              		.loc 1 109 0
 960 0120 FFF7FEBF 		b	_test_assert
 961              	.LVL23:
 962              	.LBE182:
 963              	.LBE183:
 964              		.cfi_endproc
 965              	.LFE221:
 966              		.size	test_004_001_execute, .-test_004_001_execute
 967              		.global	test_sequence_004
 968 0124 AFF30080 		.section	.rodata.test_sequence_004,"a",%progbits
 968      AFF30080 
 968      AFF30080 
 969              		.align	2
ARM GAS  /tmp/cccQfvUh.s 			page 54


 970              		.type	test_sequence_004, %object
 971              		.size	test_sequence_004, 8
 972              	test_sequence_004:
 973 0000 00000000 		.word	test_004_001
 974 0004 00000000 		.word	0
 975              		.section	.bss.tr1,"aw",%nobits
 976              		.align	2
 977              		.set	.LANCHOR0,. + 0
 978              		.type	tr1, %object
 979              		.size	tr1, 4
 980              	tr1:
 981 0000 00000000 		.space	4
 982              		.section	.rodata.str1.4,"aMS",%progbits,1
 983              		.align	2
 984              	.LC0:
 985 0000 4100     		.ascii	"A\000"
 986 0002 0000     		.space	2
 987              	.LC1:
 988 0004 6E6F7420 		.ascii	"not NULL\000"
 988      4E554C4C 
 988      00
 989 000d 000000   		.space	3
 990              	.LC2:
 991 0010 77726F6E 		.ascii	"wrong returned message\000"
 991      67207265 
 991      7475726E 
 991      6564206D 
 991      65737361 
 992 0027 00       		.space	1
 993              	.LC3:
 994 0028 6F757420 		.ascii	"out of time window\000"
 994      6F662074 
 994      696D6520 
 994      77696E64 
 994      6F7700
 995 003b 00       		.space	1
 996              	.LC4:
 997 003c 53757370 		.ascii	"Suspend and Resume functionality\000"
 997      656E6420 
 997      616E6420 
 997      52657375 
 997      6D652066 
 998 005d 000000   		.section	.rodata.test_004_001,"a",%progbits
 999              		.align	2
 1000              		.type	test_004_001, %object
 1001              		.size	test_004_001, 16
 1002              	test_004_001:
 1003 0000 3C000000 		.word	.LC4
 1004 0004 00000000 		.word	test_004_001_setup
 1005 0008 00000000 		.word	0
 1006 000c 00000000 		.word	test_004_001_execute
 1007              		.text
 1008              	.Letext0:
 1009              		.file 5 "/usr/lib/gcc/arm-none-eabi/4.8.2/include/stddef.h"
 1010              		.file 6 "/usr/include/newlib/machine/_default_types.h"
 1011              		.file 7 "/usr/include/newlib/stdint.h"
 1012              		.file 8 "../../../os/common/ports/ARMCMx/compilers/GCC/chtypes.h"
ARM GAS  /tmp/cccQfvUh.s 			page 55


 1013              		.file 9 "../../../os/rt/include/chsystypes.h"
 1014              		.file 10 "../../../os/rt/include/chschd.h"
 1015              		.file 11 "../../../os/common/ports/ARMCMx/chcore.h"
 1016              		.file 12 "../../../os/common/ports/ARMCMx/chcore_v7m.h"
 1017              		.file 13 "../../../os/hal/ports/STM32/LLD/TIMv1/stm32_tim.h"
 1018              		.file 14 "../../../os/rt/include/chsem.h"
 1019              		.file 15 "../../../os/rt/include/chmtx.h"
 1020              		.file 16 "../../../test/lib/ch_test.h"
 1021              		.file 17 "../../../os/common/ports/ARMCMx/chcore_timer.h"
 1022              		.file 18 "../../../os/rt/include/chsys.h"
 1023              		.file 19 "../../../os/rt/include/chvt.h"
 1024              		.file 20 "../../../os/common/ext/CMSIS/include/core_cm3.h"
 1025              		.file 21 "../../../test/rt/source/test/test_root.h"